ARM GAS  C:\Users\IVYLIU~1\AppData\Local\Temp\cc2mWG7N.s 			page 1


   1              		.syntax unified
   2              		.cpu cortex-m3
   3              		.fpu softvfp
   4              		.eabi_attribute 20, 1
   5              		.eabi_attribute 21, 1
   6              		.eabi_attribute 23, 3
   7              		.eabi_attribute 24, 1
   8              		.eabi_attribute 25, 1
   9              		.eabi_attribute 26, 1
  10              		.eabi_attribute 30, 1
  11              		.eabi_attribute 34, 1
  12              		.eabi_attribute 18, 4
  13              		.thumb
  14              		.file	"main.c"
  15              		.text
  16              	.Ltext0:
  17              		.cfi_sections	.debug_frame
  18              		.section	.text.setPixel,"ax",%progbits
  19              		.align	2
  20              		.global	setPixel
  21              		.thumb
  22              		.thumb_func
  23              		.type	setPixel, %function
  24              	setPixel:
  25              	.LFB64:
  26              		.file 1 ".\\main.c"
   1:.\main.c      **** //PSOC5 Control for 144 LEDs
   2:.\main.c      **** 
   3:.\main.c      **** #include <project.h>
   4:.\main.c      **** #include "math.h"
   5:.\main.c      **** #define LED_NUM 144
   6:.\main.c      **** //Allocate an array for LED_NUM NeoPixels
   7:.\main.c      **** unsigned char pPixelArray[LED_NUM*3];
   8:.\main.c      **** //Set up some variables for animation code
   9:.\main.c      **** float power = 1;
  10:.\main.c      **** float Deltapower = 0.005;
  11:.\main.c      **** float offset = 0;
  12:.\main.c      **** 
  13:.\main.c      **** void setPixel(int i, int r, int b, int g);
  14:.\main.c      **** 
  15:.\main.c      **** //Main function
  16:.\main.c      **** int main()
  17:.\main.c      **** {
  18:.\main.c      ****     //Start the NeoPixel component (LED_NUM pix, User array, 12.8 MHz base clock)
  19:.\main.c      ****     NP_Start(LED_NUM, pPixelArray, 12.8);
  20:.\main.c      ****     
  21:.\main.c      ****     int i;
  22:.\main.c      ****     for(i = 0; i < LED_NUM; i++) //Update each of the 16 pixels in turn here
  23:.\main.c      ****     {
  24:.\main.c      ****         if (i == 80 || i == 81) setPixel(i, 0, i, 144 - i);
  25:.\main.c      ****         else setPixel(i, 0, 0, 0);
  26:.\main.c      ****     }
  27:.\main.c      ****     //Call NeoPixel update function (non blocking) to trigger DMA pixel update
  28:.\main.c      ****     NP_Update();
  29:.\main.c      ****  
  30:.\main.c      ****     //Endless loop...
  31:.\main.c      ****     for(;;)
ARM GAS  C:\Users\IVYLIU~1\AppData\Local\Temp\cc2mWG7N.s 			page 2


  32:.\main.c      ****     {      
  33:.\main.c      ****        
  34:.\main.c      ****        //Delay before next frame
  35:.\main.c      ****         CyDelay(5);
  36:.\main.c      ****     }
  37:.\main.c      **** }
  38:.\main.c      **** 
  39:.\main.c      **** void setPixel(int i, int r, int g, int b) {
  27              		.loc 1 39 0
  28              		.cfi_startproc
  29              		@ args = 0, pretend = 0, frame = 0
  30              		@ frame_needed = 0, uses_anonymous_args = 0
  31              		@ link register save eliminated.
  32              	.LVL0:
  33 0000 10B4     		push	{r4}
  34              		.cfi_def_cfa_offset 4
  35              		.cfi_offset 4, -4
  40:.\main.c      ****     //Compute Green Component
  41:.\main.c      ****     pPixelArray[i*3] = g;
  36              		.loc 1 41 0
  37 0002 00EB4000 		add	r0, r0, r0, lsl #1
  38              	.LVL1:
  39 0006 044C     		ldr	r4, .L3
  40 0008 2254     		strb	r2, [r4, r0]
  42:.\main.c      ****     //Compute Red Component
  43:.\main.c      ****     pPixelArray[1+i*3] = r;
  41              		.loc 1 43 0
  42 000a 421C     		adds	r2, r0, #1
  43              	.LVL2:
  44 000c A154     		strb	r1, [r4, r2]
  44:.\main.c      ****     //Compute Blue Component
  45:.\main.c      ****     pPixelArray[2+i*3] = b;
  45              		.loc 1 45 0
  46 000e 0230     		adds	r0, r0, #2
  47 0010 2354     		strb	r3, [r4, r0]
  46:.\main.c      **** }...
  48              		.loc 1 46 0
  49 0012 5DF8044B 		ldr	r4, [sp], #4
  50              		.cfi_restore 4
  51              		.cfi_def_cfa_offset 0
  52 0016 7047     		bx	lr
  53              	.L4:
  54              		.align	2
  55              	.L3:
  56 0018 00000000 		.word	pPixelArray
  57              		.cfi_endproc
  58              	.LFE64:
  59              		.size	setPixel, .-setPixel
  60              		.section	.text.main,"ax",%progbits
  61              		.align	2
  62              		.global	main
  63              		.thumb
  64              		.thumb_func
  65              		.type	main, %function
  66              	main:
  67              	.LFB63:
  17:.\main.c      **** {
ARM GAS  C:\Users\IVYLIU~1\AppData\Local\Temp\cc2mWG7N.s 			page 3


  68              		.loc 1 17 0
  69              		.cfi_startproc
  70              		@ args = 0, pretend = 0, frame = 0
  71              		@ frame_needed = 0, uses_anonymous_args = 0
  72 0000 10B5     		push	{r4, lr}
  73              		.cfi_def_cfa_offset 8
  74              		.cfi_offset 4, -8
  75              		.cfi_offset 14, -4
  19:.\main.c      ****     NP_Start(LED_NUM, pPixelArray, 12.8);
  76              		.loc 1 19 0
  77 0002 9020     		movs	r0, #144
  78 0004 1449     		ldr	r1, .L12+8
  79 0006 12A3     		adr	r3, .L12
  80 0008 D3E90023 		ldrd	r2, [r3]
  81 000c FFF7FEFF 		bl	NP_Start
  82              	.LVL3:
  22:.\main.c      ****     for(i = 0; i < LED_NUM; i++) //Update each of the 16 pixels in turn here
  83              		.loc 1 22 0
  84 0010 0024     		movs	r4, #0
  85 0012 12E0     		b	.L6
  86              	.LVL4:
  87              	.L9:
  24:.\main.c      ****         if (i == 80 || i == 81) setPixel(i, 0, i, 144 - i);
  88              		.loc 1 24 0
  89 0014 A4F15003 		sub	r3, r4, #80
  90 0018 012B     		cmp	r3, #1
  91 001a 07D8     		bhi	.L7
  24:.\main.c      ****         if (i == 80 || i == 81) setPixel(i, 0, i, 144 - i);
  92              		.loc 1 24 0 is_stmt 0 discriminator 1
  93 001c 2046     		mov	r0, r4
  94 001e 0021     		movs	r1, #0
  95 0020 2246     		mov	r2, r4
  96 0022 C4F19003 		rsb	r3, r4, #144
  97 0026 FFF7FEFF 		bl	setPixel
  98              	.LVL5:
  99 002a 05E0     		b	.L8
 100              	.L7:
  25:.\main.c      ****         else setPixel(i, 0, 0, 0);
 101              		.loc 1 25 0 is_stmt 1
 102 002c 2046     		mov	r0, r4
 103 002e 0021     		movs	r1, #0
 104 0030 0A46     		mov	r2, r1
 105 0032 0B46     		mov	r3, r1
 106 0034 FFF7FEFF 		bl	setPixel
 107              	.LVL6:
 108              	.L8:
  22:.\main.c      ****     for(i = 0; i < LED_NUM; i++) //Update each of the 16 pixels in turn here
 109              		.loc 1 22 0 discriminator 2
 110 0038 0134     		adds	r4, r4, #1
 111              	.LVL7:
 112              	.L6:
  22:.\main.c      ****     for(i = 0; i < LED_NUM; i++) //Update each of the 16 pixels in turn here
 113              		.loc 1 22 0 is_stmt 0 discriminator 1
 114 003a 8F2C     		cmp	r4, #143
 115 003c EADD     		ble	.L9
  28:.\main.c      ****     NP_Update();
 116              		.loc 1 28 0 is_stmt 1
ARM GAS  C:\Users\IVYLIU~1\AppData\Local\Temp\cc2mWG7N.s 			page 4


 117 003e FFF7FEFF 		bl	NP_Update
 118              	.LVL8:
 119              	.L10:
  35:.\main.c      ****         CyDelay(5);
 120              		.loc 1 35 0 discriminator 1
 121 0042 0520     		movs	r0, #5
 122 0044 FFF7FEFF 		bl	CyDelay
 123              	.LVL9:
  36:.\main.c      ****     }
 124              		.loc 1 36 0 discriminator 1
 125 0048 FBE7     		b	.L10
 126              	.L13:
 127 004a 00BFAFF3 		.align	3
 127      0080
 128              	.L12:
 129 0050 9A999999 		.word	-1717986918
 130 0054 99992940 		.word	1076468121
 131 0058 00000000 		.word	pPixelArray
 132              		.cfi_endproc
 133              	.LFE63:
 134              		.size	main, .-main
 135              		.global	offset
 136              		.global	Deltapower
 137              		.global	power
 138              		.comm	pPixelArray,432,4
 139              		.comm	NP_g_nFrameBufferSize,4,4
 140              		.comm	NP_g_pFrameBuffer,4,4
 141              		.comm	NP_g_bOwnsBuffer,1,1
 142              		.comm	NP_g_nDMA_TD,1,1
 143              		.comm	NP_g_nDMA_Chan,1,1
 144              		.comm	NP_g_nNumberOfPixels,4,4
 145 005c AFF30080 		.data
 146              		.align	2
 147              		.type	Deltapower, %object
 148              		.size	Deltapower, 4
 149              	Deltapower:
 150 0000 0AD7A33B 		.word	1000593162
 151              		.type	power, %object
 152              		.size	power, 4
 153              	power:
 154 0004 0000803F 		.word	1065353216
 155              		.bss
 156              		.align	2
 157              		.type	offset, %object
 158              		.size	offset, 4
 159              	offset:
 160 0000 00000000 		.space	4
 161              		.text
 162              	.Letext0:
 163              		.file 2 "c:\\program files (x86)\\cypress\\psoc creator\\3.3\\psoc creator\\import\\gnu\\arm\\4.9.
 164              		.file 3 "c:\\program files (x86)\\cypress\\psoc creator\\3.3\\psoc creator\\import\\gnu\\arm\\4.9.
 165              		.file 4 "Generated_Source\\PSoC5/cytypes.h"
 166              		.file 5 "Generated_Source\\PSoC5/NP_funcs.h"
 167              		.file 6 "Generated_Source\\PSoC5/core_cm3.h"
 168              		.file 7 "Generated_Source\\PSoC5/CyLib.h"