ARM GAS  C:\Users\IVYLIU~1\AppData\Local\Temp\cckaBvwB.s 			page 1


   1              		.syntax unified
   2              		.cpu cortex-m3
   3              		.fpu softvfp
   4              		.eabi_attribute 20, 1
   5              		.eabi_attribute 21, 1
   6              		.eabi_attribute 23, 3
   7              		.eabi_attribute 24, 1
   8              		.eabi_attribute 25, 1
   9              		.eabi_attribute 26, 1
  10              		.eabi_attribute 30, 4
  11              		.eabi_attribute 34, 1
  12              		.eabi_attribute 18, 4
  13              		.thumb
  14              		.file	"ADC_DelSig_1.c"
  15              		.text
  16              	.Ltext0:
  17              		.cfi_sections	.debug_frame
  18              		.section	.text.ADC_DelSig_1_SetDSMRef0Reg,"ax",%progbits
  19              		.align	1
  20              		.thumb
  21              		.thumb_func
  22              		.type	ADC_DelSig_1_SetDSMRef0Reg, %function
  23              	ADC_DelSig_1_SetDSMRef0Reg:
  24              	.LFB22:
  25              		.file 1 ".\\Generated_Source\\PSoC5\\ADC_DelSig_1.c"
   1:.\Generated_Source\PSoC5/ADC_DelSig_1.c **** /*******************************************************************************
   2:.\Generated_Source\PSoC5/ADC_DelSig_1.c **** * File Name: ADC_DelSig_1.c
   3:.\Generated_Source\PSoC5/ADC_DelSig_1.c **** * Version 3.20
   4:.\Generated_Source\PSoC5/ADC_DelSig_1.c **** *
   5:.\Generated_Source\PSoC5/ADC_DelSig_1.c **** * Description:
   6:.\Generated_Source\PSoC5/ADC_DelSig_1.c **** *  This file provides the source code to the API for the Delta-Sigma ADC
   7:.\Generated_Source\PSoC5/ADC_DelSig_1.c **** *  Component.
   8:.\Generated_Source\PSoC5/ADC_DelSig_1.c **** *
   9:.\Generated_Source\PSoC5/ADC_DelSig_1.c **** * Note:
  10:.\Generated_Source\PSoC5/ADC_DelSig_1.c **** *
  11:.\Generated_Source\PSoC5/ADC_DelSig_1.c **** ********************************************************************************
  12:.\Generated_Source\PSoC5/ADC_DelSig_1.c **** * Copyright 2008-2015, Cypress Semiconductor Corporation.  All rights reserved.
  13:.\Generated_Source\PSoC5/ADC_DelSig_1.c **** * You may use this file only in accordance with the license, terms, conditions,
  14:.\Generated_Source\PSoC5/ADC_DelSig_1.c **** * disclaimers, and limitations in the end user license agreement accompanying
  15:.\Generated_Source\PSoC5/ADC_DelSig_1.c **** * the software package with which this file was provided.
  16:.\Generated_Source\PSoC5/ADC_DelSig_1.c **** *******************************************************************************/
  17:.\Generated_Source\PSoC5/ADC_DelSig_1.c **** 
  18:.\Generated_Source\PSoC5/ADC_DelSig_1.c **** #include "ADC_DelSig_1.h"
  19:.\Generated_Source\PSoC5/ADC_DelSig_1.c **** 
  20:.\Generated_Source\PSoC5/ADC_DelSig_1.c **** #if(ADC_DelSig_1_DEFAULT_INTERNAL_CLK)
  21:.\Generated_Source\PSoC5/ADC_DelSig_1.c ****     #include "ADC_DelSig_1_theACLK.h"
  22:.\Generated_Source\PSoC5/ADC_DelSig_1.c **** #endif /* ADC_DelSig_1_DEFAULT_INTERNAL_CLK */
  23:.\Generated_Source\PSoC5/ADC_DelSig_1.c **** 
  24:.\Generated_Source\PSoC5/ADC_DelSig_1.c **** #include "ADC_DelSig_1_Ext_CP_Clk.h"
  25:.\Generated_Source\PSoC5/ADC_DelSig_1.c **** 
  26:.\Generated_Source\PSoC5/ADC_DelSig_1.c **** #if(ADC_DelSig_1_DEFAULT_INPUT_MODE)
  27:.\Generated_Source\PSoC5/ADC_DelSig_1.c ****     #include "ADC_DelSig_1_AMux.h"
  28:.\Generated_Source\PSoC5/ADC_DelSig_1.c **** #endif /* ADC_DelSig_1_DEFAULT_INPUT_MODE */
  29:.\Generated_Source\PSoC5/ADC_DelSig_1.c **** 
  30:.\Generated_Source\PSoC5/ADC_DelSig_1.c **** 
  31:.\Generated_Source\PSoC5/ADC_DelSig_1.c **** /***************************************
  32:.\Generated_Source\PSoC5/ADC_DelSig_1.c **** * Global data allocation
ARM GAS  C:\Users\IVYLIU~1\AppData\Local\Temp\cckaBvwB.s 			page 2


  33:.\Generated_Source\PSoC5/ADC_DelSig_1.c **** ***************************************/
  34:.\Generated_Source\PSoC5/ADC_DelSig_1.c **** 
  35:.\Generated_Source\PSoC5/ADC_DelSig_1.c **** /* Software flag for checking conversion completed or not */
  36:.\Generated_Source\PSoC5/ADC_DelSig_1.c **** volatile uint8 ADC_DelSig_1_convDone = 0u;
  37:.\Generated_Source\PSoC5/ADC_DelSig_1.c **** 
  38:.\Generated_Source\PSoC5/ADC_DelSig_1.c **** /* Software flag to stop conversion for single sample conversion mode
  39:.\Generated_Source\PSoC5/ADC_DelSig_1.c **** *   with resolution above 16 bits 
  40:.\Generated_Source\PSoC5/ADC_DelSig_1.c **** */
  41:.\Generated_Source\PSoC5/ADC_DelSig_1.c **** volatile uint8 ADC_DelSig_1_stopConversion = 0u;
  42:.\Generated_Source\PSoC5/ADC_DelSig_1.c **** 
  43:.\Generated_Source\PSoC5/ADC_DelSig_1.c **** /* To run the initialization block only at the start up */
  44:.\Generated_Source\PSoC5/ADC_DelSig_1.c **** uint8 ADC_DelSig_1_initVar = 0u;
  45:.\Generated_Source\PSoC5/ADC_DelSig_1.c **** 
  46:.\Generated_Source\PSoC5/ADC_DelSig_1.c **** /* To check whether ADC started or not before switching the configuration */
  47:.\Generated_Source\PSoC5/ADC_DelSig_1.c **** volatile uint8 ADC_DelSig_1_started = 0u;
  48:.\Generated_Source\PSoC5/ADC_DelSig_1.c **** 
  49:.\Generated_Source\PSoC5/ADC_DelSig_1.c **** /* Flag to hold ADC config number. By default active config is 1. */
  50:.\Generated_Source\PSoC5/ADC_DelSig_1.c **** volatile uint8 ADC_DelSig_1_Config = 1u;
  51:.\Generated_Source\PSoC5/ADC_DelSig_1.c **** 
  52:.\Generated_Source\PSoC5/ADC_DelSig_1.c **** volatile int32 ADC_DelSig_1_Offset;
  53:.\Generated_Source\PSoC5/ADC_DelSig_1.c **** volatile int32 ADC_DelSig_1_CountsPerVolt;
  54:.\Generated_Source\PSoC5/ADC_DelSig_1.c **** 
  55:.\Generated_Source\PSoC5/ADC_DelSig_1.c **** 
  56:.\Generated_Source\PSoC5/ADC_DelSig_1.c **** /***************************************
  57:.\Generated_Source\PSoC5/ADC_DelSig_1.c **** * Local data allocation
  58:.\Generated_Source\PSoC5/ADC_DelSig_1.c **** ***************************************/
  59:.\Generated_Source\PSoC5/ADC_DelSig_1.c **** 
  60:.\Generated_Source\PSoC5/ADC_DelSig_1.c **** /* The array with precalculated gain compensation coefficients */
  61:.\Generated_Source\PSoC5/ADC_DelSig_1.c **** static ADC_DelSig_1_GCOR_STRUCT ADC_DelSig_1_gcor[ADC_DelSig_1_DEFAULT_NUM_CONFIGS];
  62:.\Generated_Source\PSoC5/ADC_DelSig_1.c **** 
  63:.\Generated_Source\PSoC5/ADC_DelSig_1.c **** 
  64:.\Generated_Source\PSoC5/ADC_DelSig_1.c **** 
  65:.\Generated_Source\PSoC5/ADC_DelSig_1.c **** /***************************************
  66:.\Generated_Source\PSoC5/ADC_DelSig_1.c **** * Forward function references
  67:.\Generated_Source\PSoC5/ADC_DelSig_1.c **** ***************************************/
  68:.\Generated_Source\PSoC5/ADC_DelSig_1.c **** static void ADC_DelSig_1_InitConfig(uint8 config) ;
  69:.\Generated_Source\PSoC5/ADC_DelSig_1.c **** static void ADC_DelSig_1_GainCompensation(uint8 inputRange, uint16 idealDecGain, uint16 idealOddDec
  70:.\Generated_Source\PSoC5/ADC_DelSig_1.c ****                             uint8 resolution, uint8 config) ;
  71:.\Generated_Source\PSoC5/ADC_DelSig_1.c **** static void ADC_DelSig_1_SetDSMRef0Reg(uint8 value) ;
  72:.\Generated_Source\PSoC5/ADC_DelSig_1.c **** 
  73:.\Generated_Source\PSoC5/ADC_DelSig_1.c **** 
  74:.\Generated_Source\PSoC5/ADC_DelSig_1.c **** /******************************************************************************
  75:.\Generated_Source\PSoC5/ADC_DelSig_1.c **** * Function Name: ADC_DelSig_1_Init
  76:.\Generated_Source\PSoC5/ADC_DelSig_1.c **** *******************************************************************************
  77:.\Generated_Source\PSoC5/ADC_DelSig_1.c **** *
  78:.\Generated_Source\PSoC5/ADC_DelSig_1.c **** * Summary:
  79:.\Generated_Source\PSoC5/ADC_DelSig_1.c **** *  Initialize component's parameters to the parameters set by user in the
  80:.\Generated_Source\PSoC5/ADC_DelSig_1.c **** *  customizer of the component placed onto schematic. Usually called in
  81:.\Generated_Source\PSoC5/ADC_DelSig_1.c **** * ADC_DelSig_1_Start().
  82:.\Generated_Source\PSoC5/ADC_DelSig_1.c **** *
  83:.\Generated_Source\PSoC5/ADC_DelSig_1.c **** *
  84:.\Generated_Source\PSoC5/ADC_DelSig_1.c **** * Parameters:
  85:.\Generated_Source\PSoC5/ADC_DelSig_1.c **** *  None
  86:.\Generated_Source\PSoC5/ADC_DelSig_1.c **** *
  87:.\Generated_Source\PSoC5/ADC_DelSig_1.c **** * Return:
  88:.\Generated_Source\PSoC5/ADC_DelSig_1.c **** *  None
  89:.\Generated_Source\PSoC5/ADC_DelSig_1.c **** *
ARM GAS  C:\Users\IVYLIU~1\AppData\Local\Temp\cckaBvwB.s 			page 3


  90:.\Generated_Source\PSoC5/ADC_DelSig_1.c **** *******************************************************************************/
  91:.\Generated_Source\PSoC5/ADC_DelSig_1.c **** void ADC_DelSig_1_Init(void) 
  92:.\Generated_Source\PSoC5/ADC_DelSig_1.c **** {
  93:.\Generated_Source\PSoC5/ADC_DelSig_1.c **** 
  94:.\Generated_Source\PSoC5/ADC_DelSig_1.c ****     ADC_DelSig_1_Config = 1u;
  95:.\Generated_Source\PSoC5/ADC_DelSig_1.c ****     ADC_DelSig_1_convDone = 0u;
  96:.\Generated_Source\PSoC5/ADC_DelSig_1.c **** 
  97:.\Generated_Source\PSoC5/ADC_DelSig_1.c ****     ADC_DelSig_1_Ext_CP_Clk_SetMode(CYCLK_DUTY);
  98:.\Generated_Source\PSoC5/ADC_DelSig_1.c **** 
  99:.\Generated_Source\PSoC5/ADC_DelSig_1.c ****     /* This is only valid if there is an internal clock */
 100:.\Generated_Source\PSoC5/ADC_DelSig_1.c ****     #if(ADC_DelSig_1_DEFAULT_INTERNAL_CLK)
 101:.\Generated_Source\PSoC5/ADC_DelSig_1.c ****         ADC_DelSig_1_theACLK_SetMode(CYCLK_DUTY);
 102:.\Generated_Source\PSoC5/ADC_DelSig_1.c ****     #endif /* ADC_DelSig_1_DEFAULT_INTERNAL_CLK */
 103:.\Generated_Source\PSoC5/ADC_DelSig_1.c **** 
 104:.\Generated_Source\PSoC5/ADC_DelSig_1.c ****     #if(ADC_DelSig_1_IRQ_REMOVE == 0u)
 105:.\Generated_Source\PSoC5/ADC_DelSig_1.c ****         /* Set interrupt priority */
 106:.\Generated_Source\PSoC5/ADC_DelSig_1.c ****         CyIntSetPriority(ADC_DelSig_1_INTC_NUMBER, ADC_DelSig_1_INTC_PRIOR_NUMBER);
 107:.\Generated_Source\PSoC5/ADC_DelSig_1.c ****     #endif   /* End ADC_DelSig_1_IRQ_REMOVE */
 108:.\Generated_Source\PSoC5/ADC_DelSig_1.c **** 
 109:.\Generated_Source\PSoC5/ADC_DelSig_1.c ****     /* Init static registers with common configuration */
 110:.\Generated_Source\PSoC5/ADC_DelSig_1.c ****     ADC_DelSig_1_DSM_DEM0_REG    = ADC_DelSig_1_CFG1_DSM_DEM0;
 111:.\Generated_Source\PSoC5/ADC_DelSig_1.c ****     ADC_DelSig_1_DSM_DEM1_REG    = ADC_DelSig_1_CFG1_DSM_DEM1;
 112:.\Generated_Source\PSoC5/ADC_DelSig_1.c ****     ADC_DelSig_1_DSM_MISC_REG    = ADC_DelSig_1_CFG1_DSM_MISC;
 113:.\Generated_Source\PSoC5/ADC_DelSig_1.c ****     ADC_DelSig_1_DSM_CLK_REG    |= ADC_DelSig_1_CFG1_DSM_CLK;
 114:.\Generated_Source\PSoC5/ADC_DelSig_1.c ****     ADC_DelSig_1_DSM_REF1_REG    = ADC_DelSig_1_CFG1_DSM_REF1;
 115:.\Generated_Source\PSoC5/ADC_DelSig_1.c **** 
 116:.\Generated_Source\PSoC5/ADC_DelSig_1.c ****     ADC_DelSig_1_DSM_OUT0_REG    = ADC_DelSig_1_CFG1_DSM_OUT0;
 117:.\Generated_Source\PSoC5/ADC_DelSig_1.c ****     ADC_DelSig_1_DSM_OUT1_REG    = ADC_DelSig_1_CFG1_DSM_OUT1;
 118:.\Generated_Source\PSoC5/ADC_DelSig_1.c **** 
 119:.\Generated_Source\PSoC5/ADC_DelSig_1.c ****     ADC_DelSig_1_DSM_CR0_REG     = ADC_DelSig_1_CFG1_DSM_CR0;
 120:.\Generated_Source\PSoC5/ADC_DelSig_1.c ****     ADC_DelSig_1_DSM_CR1_REG     = ADC_DelSig_1_CFG1_DSM_CR1;
 121:.\Generated_Source\PSoC5/ADC_DelSig_1.c **** #if(ADC_DelSig_1_MI_ENABLE != 0u) /* Enable Modulator Input */
 122:.\Generated_Source\PSoC5/ADC_DelSig_1.c ****     ADC_DelSig_1_DSM_CR3_REG     |= ADC_DelSig_1_DSM_MODBIT_EN;
 123:.\Generated_Source\PSoC5/ADC_DelSig_1.c **** #else
 124:.\Generated_Source\PSoC5/ADC_DelSig_1.c ****     ADC_DelSig_1_DSM_CR3_REG     = ADC_DelSig_1_CFG1_DSM_CR3;
 125:.\Generated_Source\PSoC5/ADC_DelSig_1.c **** #endif /* ADC_DelSig_1_MI_ENABLE != 0u*/    
 126:.\Generated_Source\PSoC5/ADC_DelSig_1.c ****     ADC_DelSig_1_DSM_CR8_REG     = ADC_DelSig_1_CFG1_DSM_CR8;
 127:.\Generated_Source\PSoC5/ADC_DelSig_1.c ****     ADC_DelSig_1_DSM_CR9_REG     = ADC_DelSig_1_CFG1_DSM_CR9;
 128:.\Generated_Source\PSoC5/ADC_DelSig_1.c ****     ADC_DelSig_1_DSM_CR13_REG    = ADC_DelSig_1_CFG1_DSM_CR13;
 129:.\Generated_Source\PSoC5/ADC_DelSig_1.c **** 
 130:.\Generated_Source\PSoC5/ADC_DelSig_1.c ****     ADC_DelSig_1_DEC_SR_REG      = ADC_DelSig_1_CFG1_DEC_SR;
 131:.\Generated_Source\PSoC5/ADC_DelSig_1.c **** 
 132:.\Generated_Source\PSoC5/ADC_DelSig_1.c ****     /* Calculate Gain compensation coefficients for all configurations */
 133:.\Generated_Source\PSoC5/ADC_DelSig_1.c ****     ADC_DelSig_1_GainCompensation(ADC_DelSig_1_CFG1_INPUT_RANGE,
 134:.\Generated_Source\PSoC5/ADC_DelSig_1.c ****                                       ADC_DelSig_1_CFG1_IDEAL_DEC_GAIN,
 135:.\Generated_Source\PSoC5/ADC_DelSig_1.c ****                                       ADC_DelSig_1_CFG1_IDEAL_ODDDEC_GAIN,
 136:.\Generated_Source\PSoC5/ADC_DelSig_1.c ****                                       ADC_DelSig_1_CFG1_RESOLUTION,
 137:.\Generated_Source\PSoC5/ADC_DelSig_1.c ****                                       ADC_DelSig_1_CFG1);
 138:.\Generated_Source\PSoC5/ADC_DelSig_1.c ****     #if(ADC_DelSig_1_DEFAULT_NUM_CONFIGS > 1)
 139:.\Generated_Source\PSoC5/ADC_DelSig_1.c ****         ADC_DelSig_1_GainCompensation(ADC_DelSig_1_CFG2_INPUT_RANGE,
 140:.\Generated_Source\PSoC5/ADC_DelSig_1.c ****                                           ADC_DelSig_1_CFG2_IDEAL_DEC_GAIN,
 141:.\Generated_Source\PSoC5/ADC_DelSig_1.c ****                                           ADC_DelSig_1_CFG2_IDEAL_ODDDEC_GAIN,
 142:.\Generated_Source\PSoC5/ADC_DelSig_1.c ****                                           ADC_DelSig_1_CFG2_RESOLUTION,
 143:.\Generated_Source\PSoC5/ADC_DelSig_1.c ****                                           ADC_DelSig_1_CFG2);
 144:.\Generated_Source\PSoC5/ADC_DelSig_1.c ****     #endif /* ADC_DelSig_1_DEFAULT_NUM_CONFIGS > 1 */
 145:.\Generated_Source\PSoC5/ADC_DelSig_1.c ****     #if(ADC_DelSig_1_DEFAULT_NUM_CONFIGS > 2)
 146:.\Generated_Source\PSoC5/ADC_DelSig_1.c ****         ADC_DelSig_1_GainCompensation(ADC_DelSig_1_CFG3_INPUT_RANGE,
ARM GAS  C:\Users\IVYLIU~1\AppData\Local\Temp\cckaBvwB.s 			page 4


 147:.\Generated_Source\PSoC5/ADC_DelSig_1.c ****                                           ADC_DelSig_1_CFG3_IDEAL_DEC_GAIN,
 148:.\Generated_Source\PSoC5/ADC_DelSig_1.c ****                                           ADC_DelSig_1_CFG3_IDEAL_ODDDEC_GAIN,
 149:.\Generated_Source\PSoC5/ADC_DelSig_1.c ****                                           ADC_DelSig_1_CFG3_RESOLUTION,
 150:.\Generated_Source\PSoC5/ADC_DelSig_1.c ****                                           ADC_DelSig_1_CFG3);
 151:.\Generated_Source\PSoC5/ADC_DelSig_1.c ****     #endif /* ADC_DelSig_1_DEFAULT_NUM_CONFIGS > 2 */
 152:.\Generated_Source\PSoC5/ADC_DelSig_1.c ****     #if(ADC_DelSig_1_DEFAULT_NUM_CONFIGS > 3)
 153:.\Generated_Source\PSoC5/ADC_DelSig_1.c ****         ADC_DelSig_1_GainCompensation(ADC_DelSig_1_CFG4_INPUT_RANGE,
 154:.\Generated_Source\PSoC5/ADC_DelSig_1.c ****                                           ADC_DelSig_1_CFG4_IDEAL_DEC_GAIN,
 155:.\Generated_Source\PSoC5/ADC_DelSig_1.c ****                                           ADC_DelSig_1_CFG4_IDEAL_ODDDEC_GAIN,
 156:.\Generated_Source\PSoC5/ADC_DelSig_1.c ****                                           ADC_DelSig_1_CFG4_RESOLUTION,
 157:.\Generated_Source\PSoC5/ADC_DelSig_1.c ****                                           ADC_DelSig_1_CFG4);
 158:.\Generated_Source\PSoC5/ADC_DelSig_1.c ****     #endif /* ADC_DelSig_1_DEFAULT_NUM_CONFIGS > 3 */
 159:.\Generated_Source\PSoC5/ADC_DelSig_1.c **** 
 160:.\Generated_Source\PSoC5/ADC_DelSig_1.c ****     /* Set GCOR register for config1 */
 161:.\Generated_Source\PSoC5/ADC_DelSig_1.c ****     ADC_DelSig_1_DEC_GVAL_REG = ADC_DelSig_1_gcor[ADC_DelSig_1_Config - 1u].gval;
 162:.\Generated_Source\PSoC5/ADC_DelSig_1.c ****     CY_SET_REG16(ADC_DelSig_1_DEC_GCOR_16B_PTR, ADC_DelSig_1_gcor[ADC_DelSig_1_Config - 1u].gcor);
 163:.\Generated_Source\PSoC5/ADC_DelSig_1.c **** 
 164:.\Generated_Source\PSoC5/ADC_DelSig_1.c ****     /* Initialize the registers with default customizer settings for config1 */
 165:.\Generated_Source\PSoC5/ADC_DelSig_1.c ****     ADC_DelSig_1_InitConfig(ADC_DelSig_1_Config);
 166:.\Generated_Source\PSoC5/ADC_DelSig_1.c **** }
 167:.\Generated_Source\PSoC5/ADC_DelSig_1.c **** 
 168:.\Generated_Source\PSoC5/ADC_DelSig_1.c **** 
 169:.\Generated_Source\PSoC5/ADC_DelSig_1.c **** /******************************************************************************
 170:.\Generated_Source\PSoC5/ADC_DelSig_1.c **** * Function Name: ADC_DelSig_1_Enable
 171:.\Generated_Source\PSoC5/ADC_DelSig_1.c **** *******************************************************************************
 172:.\Generated_Source\PSoC5/ADC_DelSig_1.c **** *
 173:.\Generated_Source\PSoC5/ADC_DelSig_1.c **** * Summary:
 174:.\Generated_Source\PSoC5/ADC_DelSig_1.c **** *  Enables the ADC DelSig block operation.
 175:.\Generated_Source\PSoC5/ADC_DelSig_1.c **** *
 176:.\Generated_Source\PSoC5/ADC_DelSig_1.c **** *
 177:.\Generated_Source\PSoC5/ADC_DelSig_1.c **** * Parameters:
 178:.\Generated_Source\PSoC5/ADC_DelSig_1.c **** *  None
 179:.\Generated_Source\PSoC5/ADC_DelSig_1.c **** *
 180:.\Generated_Source\PSoC5/ADC_DelSig_1.c **** * Return:
 181:.\Generated_Source\PSoC5/ADC_DelSig_1.c **** *  None
 182:.\Generated_Source\PSoC5/ADC_DelSig_1.c **** *
 183:.\Generated_Source\PSoC5/ADC_DelSig_1.c **** *******************************************************************************/
 184:.\Generated_Source\PSoC5/ADC_DelSig_1.c **** void ADC_DelSig_1_Enable(void) 
 185:.\Generated_Source\PSoC5/ADC_DelSig_1.c **** {
 186:.\Generated_Source\PSoC5/ADC_DelSig_1.c **** 	uint8 config;
 187:.\Generated_Source\PSoC5/ADC_DelSig_1.c ****     uint8 enableInterrupts;
 188:.\Generated_Source\PSoC5/ADC_DelSig_1.c ****     enableInterrupts = CyEnterCriticalSection();
 189:.\Generated_Source\PSoC5/ADC_DelSig_1.c **** 
 190:.\Generated_Source\PSoC5/ADC_DelSig_1.c ****     /* Read volatile variable to the local variable */
 191:.\Generated_Source\PSoC5/ADC_DelSig_1.c ****     config = ADC_DelSig_1_Config;
 192:.\Generated_Source\PSoC5/ADC_DelSig_1.c ****     
 193:.\Generated_Source\PSoC5/ADC_DelSig_1.c ****     /* Enable active mode power for ADC */
 194:.\Generated_Source\PSoC5/ADC_DelSig_1.c ****     ADC_DelSig_1_PWRMGR_DEC_REG |= ADC_DelSig_1_ACT_PWR_DEC_EN;
 195:.\Generated_Source\PSoC5/ADC_DelSig_1.c ****     ADC_DelSig_1_PWRMGR_DSM_REG |= ADC_DelSig_1_ACT_PWR_DSM_EN;
 196:.\Generated_Source\PSoC5/ADC_DelSig_1.c **** 
 197:.\Generated_Source\PSoC5/ADC_DelSig_1.c ****      /* Enable alternative active mode power for ADC */
 198:.\Generated_Source\PSoC5/ADC_DelSig_1.c ****     ADC_DelSig_1_STBY_PWRMGR_DEC_REG |= ADC_DelSig_1_STBY_PWR_DEC_EN;
 199:.\Generated_Source\PSoC5/ADC_DelSig_1.c ****     ADC_DelSig_1_STBY_PWRMGR_DSM_REG |= ADC_DelSig_1_STBY_PWR_DSM_EN;
 200:.\Generated_Source\PSoC5/ADC_DelSig_1.c **** 
 201:.\Generated_Source\PSoC5/ADC_DelSig_1.c ****     /* Disable PRES, Enable power to VCMBUF0, REFBUF0 and REFBUF1, enable PRES */
 202:.\Generated_Source\PSoC5/ADC_DelSig_1.c ****     ADC_DelSig_1_RESET_CR4_REG |= ADC_DelSig_1_IGNORE_PRESA1;
 203:.\Generated_Source\PSoC5/ADC_DelSig_1.c ****     ADC_DelSig_1_RESET_CR5_REG |= ADC_DelSig_1_IGNORE_PRESA2;
ARM GAS  C:\Users\IVYLIU~1\AppData\Local\Temp\cckaBvwB.s 			page 5


 204:.\Generated_Source\PSoC5/ADC_DelSig_1.c **** 
 205:.\Generated_Source\PSoC5/ADC_DelSig_1.c ****     ADC_DelSig_1_DSM_CR17_REG |= (ADC_DelSig_1_DSM_EN_BUF_VREF | ADC_DelSig_1_DSM_EN_BUF_VCM);
 206:.\Generated_Source\PSoC5/ADC_DelSig_1.c **** 
 207:.\Generated_Source\PSoC5/ADC_DelSig_1.c ****     /* Code to disable the REFBUF0 if reference chosen is External ref */
 208:.\Generated_Source\PSoC5/ADC_DelSig_1.c ****     #if (((ADC_DelSig_1_CFG1_REFERENCE == ADC_DelSig_1_EXT_REF_ON_P03) || \
 209:.\Generated_Source\PSoC5/ADC_DelSig_1.c ****           (ADC_DelSig_1_CFG1_REFERENCE == ADC_DelSig_1_EXT_REF_ON_P32)) || \
 210:.\Generated_Source\PSoC5/ADC_DelSig_1.c ****          ((ADC_DelSig_1_DEFAULT_NUM_CONFIGS > 1) && \
 211:.\Generated_Source\PSoC5/ADC_DelSig_1.c ****           ((ADC_DelSig_1_CFG2_REFERENCE == ADC_DelSig_1_EXT_REF_ON_P03) ||  \
 212:.\Generated_Source\PSoC5/ADC_DelSig_1.c ****            (ADC_DelSig_1_CFG2_REFERENCE == ADC_DelSig_1_EXT_REF_ON_P32))) || \
 213:.\Generated_Source\PSoC5/ADC_DelSig_1.c ****          ((ADC_DelSig_1_DEFAULT_NUM_CONFIGS > 2) && \
 214:.\Generated_Source\PSoC5/ADC_DelSig_1.c ****           ((ADC_DelSig_1_CFG3_REFERENCE == ADC_DelSig_1_EXT_REF_ON_P03) ||  \
 215:.\Generated_Source\PSoC5/ADC_DelSig_1.c ****            (ADC_DelSig_1_CFG3_REFERENCE == ADC_DelSig_1_EXT_REF_ON_P32))) || \
 216:.\Generated_Source\PSoC5/ADC_DelSig_1.c ****          ((ADC_DelSig_1_DEFAULT_NUM_CONFIGS > 3) && \
 217:.\Generated_Source\PSoC5/ADC_DelSig_1.c ****           ((ADC_DelSig_1_CFG4_REFERENCE == ADC_DelSig_1_EXT_REF_ON_P03) || \
 218:.\Generated_Source\PSoC5/ADC_DelSig_1.c ****            (ADC_DelSig_1_CFG4_REFERENCE == ADC_DelSig_1_EXT_REF_ON_P32))))
 219:.\Generated_Source\PSoC5/ADC_DelSig_1.c ****         if (((config == 1u) &&
 220:.\Generated_Source\PSoC5/ADC_DelSig_1.c ****             ((ADC_DelSig_1_CFG1_REFERENCE == ADC_DelSig_1_EXT_REF_ON_P03) ||
 221:.\Generated_Source\PSoC5/ADC_DelSig_1.c ****              (ADC_DelSig_1_CFG1_REFERENCE == ADC_DelSig_1_EXT_REF_ON_P32))) ||
 222:.\Generated_Source\PSoC5/ADC_DelSig_1.c ****             ((config == 2u) &&
 223:.\Generated_Source\PSoC5/ADC_DelSig_1.c ****             ((ADC_DelSig_1_CFG2_REFERENCE == ADC_DelSig_1_EXT_REF_ON_P03) ||
 224:.\Generated_Source\PSoC5/ADC_DelSig_1.c ****              (ADC_DelSig_1_CFG2_REFERENCE == ADC_DelSig_1_EXT_REF_ON_P32))) ||
 225:.\Generated_Source\PSoC5/ADC_DelSig_1.c ****             ((config == 3u) &&
 226:.\Generated_Source\PSoC5/ADC_DelSig_1.c ****             ((ADC_DelSig_1_CFG3_REFERENCE == ADC_DelSig_1_EXT_REF_ON_P03) ||
 227:.\Generated_Source\PSoC5/ADC_DelSig_1.c ****              (ADC_DelSig_1_CFG3_REFERENCE == ADC_DelSig_1_EXT_REF_ON_P32))) ||
 228:.\Generated_Source\PSoC5/ADC_DelSig_1.c ****             ((config == 4u) &&
 229:.\Generated_Source\PSoC5/ADC_DelSig_1.c ****             ((ADC_DelSig_1_CFG4_REFERENCE == ADC_DelSig_1_EXT_REF_ON_P03) ||
 230:.\Generated_Source\PSoC5/ADC_DelSig_1.c ****              (ADC_DelSig_1_CFG4_REFERENCE == ADC_DelSig_1_EXT_REF_ON_P32))))
 231:.\Generated_Source\PSoC5/ADC_DelSig_1.c ****         {
 232:.\Generated_Source\PSoC5/ADC_DelSig_1.c ****             /* Disable the REFBUF0 */
 233:.\Generated_Source\PSoC5/ADC_DelSig_1.c ****             ADC_DelSig_1_DSM_CR17_REG &= (uint8)~ADC_DelSig_1_DSM_EN_BUF_VREF;
 234:.\Generated_Source\PSoC5/ADC_DelSig_1.c ****         }
 235:.\Generated_Source\PSoC5/ADC_DelSig_1.c ****     #endif /* External ref */
 236:.\Generated_Source\PSoC5/ADC_DelSig_1.c **** 
 237:.\Generated_Source\PSoC5/ADC_DelSig_1.c ****     #if (((ADC_DelSig_1_CFG1_INPUT_RANGE == ADC_DelSig_1_IR_VSSA_TO_2VREF) || \
 238:.\Generated_Source\PSoC5/ADC_DelSig_1.c ****          ((ADC_DelSig_1_DEFAULT_NUM_CONFIGS > 1) && \
 239:.\Generated_Source\PSoC5/ADC_DelSig_1.c ****           (ADC_DelSig_1_CFG2_INPUT_RANGE == ADC_DelSig_1_IR_VSSA_TO_2VREF)) || \
 240:.\Generated_Source\PSoC5/ADC_DelSig_1.c ****          ((ADC_DelSig_1_DEFAULT_NUM_CONFIGS > 2) && \
 241:.\Generated_Source\PSoC5/ADC_DelSig_1.c ****           (ADC_DelSig_1_CFG3_INPUT_RANGE == ADC_DelSig_1_IR_VSSA_TO_2VREF)) || \
 242:.\Generated_Source\PSoC5/ADC_DelSig_1.c ****          ((ADC_DelSig_1_DEFAULT_NUM_CONFIGS > 3) && \
 243:.\Generated_Source\PSoC5/ADC_DelSig_1.c ****           (ADC_DelSig_1_CFG4_INPUT_RANGE == ADC_DelSig_1_IR_VSSA_TO_2VREF))))
 244:.\Generated_Source\PSoC5/ADC_DelSig_1.c ****         if(((config == 1u) &&
 245:.\Generated_Source\PSoC5/ADC_DelSig_1.c ****             (ADC_DelSig_1_CFG1_INPUT_RANGE == ADC_DelSig_1_IR_VSSA_TO_2VREF) &&
 246:.\Generated_Source\PSoC5/ADC_DelSig_1.c ****             ((ADC_DelSig_1_CFG1_REFERENCE != ADC_DelSig_1_EXT_REF_ON_P03) &&
 247:.\Generated_Source\PSoC5/ADC_DelSig_1.c ****              (ADC_DelSig_1_CFG1_REFERENCE != ADC_DelSig_1_EXT_REF_ON_P32))) ||
 248:.\Generated_Source\PSoC5/ADC_DelSig_1.c ****              ((config == 2u) &&
 249:.\Generated_Source\PSoC5/ADC_DelSig_1.c ****               (ADC_DelSig_1_CFG2_INPUT_RANGE == ADC_DelSig_1_IR_VSSA_TO_2VREF) &&
 250:.\Generated_Source\PSoC5/ADC_DelSig_1.c ****              ((ADC_DelSig_1_CFG2_REFERENCE != ADC_DelSig_1_EXT_REF_ON_P03) &&
 251:.\Generated_Source\PSoC5/ADC_DelSig_1.c ****              (ADC_DelSig_1_CFG2_REFERENCE != ADC_DelSig_1_EXT_REF_ON_P32))) ||
 252:.\Generated_Source\PSoC5/ADC_DelSig_1.c ****              ((config == 3u) &&
 253:.\Generated_Source\PSoC5/ADC_DelSig_1.c ****               (ADC_DelSig_1_CFG3_INPUT_RANGE == ADC_DelSig_1_IR_VSSA_TO_2VREF) &&
 254:.\Generated_Source\PSoC5/ADC_DelSig_1.c ****              ((ADC_DelSig_1_CFG3_REFERENCE != ADC_DelSig_1_EXT_REF_ON_P03) &&
 255:.\Generated_Source\PSoC5/ADC_DelSig_1.c ****              (ADC_DelSig_1_CFG3_REFERENCE != ADC_DelSig_1_EXT_REF_ON_P32))) ||
 256:.\Generated_Source\PSoC5/ADC_DelSig_1.c ****              ((config == 4u) &&
 257:.\Generated_Source\PSoC5/ADC_DelSig_1.c ****               (ADC_DelSig_1_CFG4_INPUT_RANGE == ADC_DelSig_1_IR_VSSA_TO_2VREF) &&
 258:.\Generated_Source\PSoC5/ADC_DelSig_1.c ****              ((ADC_DelSig_1_CFG4_REFERENCE != ADC_DelSig_1_EXT_REF_ON_P03) &&
 259:.\Generated_Source\PSoC5/ADC_DelSig_1.c ****              (ADC_DelSig_1_CFG4_REFERENCE != ADC_DelSig_1_EXT_REF_ON_P32))))
 260:.\Generated_Source\PSoC5/ADC_DelSig_1.c ****         {
ARM GAS  C:\Users\IVYLIU~1\AppData\Local\Temp\cckaBvwB.s 			page 6


 261:.\Generated_Source\PSoC5/ADC_DelSig_1.c ****             /* Enable the REFBUF1 */
 262:.\Generated_Source\PSoC5/ADC_DelSig_1.c ****             ADC_DelSig_1_DSM_REF0_REG |= ADC_DelSig_1_DSM_EN_BUF_VREF_INN;
 263:.\Generated_Source\PSoC5/ADC_DelSig_1.c ****         }
 264:.\Generated_Source\PSoC5/ADC_DelSig_1.c ****     #endif /* VSSA_TO_2VREF */
 265:.\Generated_Source\PSoC5/ADC_DelSig_1.c ****     if(config != 0u)
 266:.\Generated_Source\PSoC5/ADC_DelSig_1.c ****     {
 267:.\Generated_Source\PSoC5/ADC_DelSig_1.c ****         /* Suppress compiler warning */
 268:.\Generated_Source\PSoC5/ADC_DelSig_1.c ****     }
 269:.\Generated_Source\PSoC5/ADC_DelSig_1.c **** 
 270:.\Generated_Source\PSoC5/ADC_DelSig_1.c ****     /* Wait for 3 microseconds */
 271:.\Generated_Source\PSoC5/ADC_DelSig_1.c ****     CyDelayUs(ADC_DelSig_1_PRES_DELAY_TIME);
 272:.\Generated_Source\PSoC5/ADC_DelSig_1.c **** 
 273:.\Generated_Source\PSoC5/ADC_DelSig_1.c ****     /* Enable the press circuit */
 274:.\Generated_Source\PSoC5/ADC_DelSig_1.c ****     ADC_DelSig_1_RESET_CR4_REG &= (uint8)~ADC_DelSig_1_IGNORE_PRESA1;
 275:.\Generated_Source\PSoC5/ADC_DelSig_1.c ****     ADC_DelSig_1_RESET_CR5_REG &= (uint8)~ADC_DelSig_1_IGNORE_PRESA2;
 276:.\Generated_Source\PSoC5/ADC_DelSig_1.c **** 
 277:.\Generated_Source\PSoC5/ADC_DelSig_1.c ****     /* Enable negative pumps for DSM  */
 278:.\Generated_Source\PSoC5/ADC_DelSig_1.c ****     ADC_DelSig_1_PUMP_CR1_REG  |= ( ADC_DelSig_1_PUMP_CR1_CLKSEL | ADC_DelSig_1_PUMP_CR1_FORCE );
 279:.\Generated_Source\PSoC5/ADC_DelSig_1.c **** 
 280:.\Generated_Source\PSoC5/ADC_DelSig_1.c ****     /* Enable Modulator Chopping if required */
 281:.\Generated_Source\PSoC5/ADC_DelSig_1.c ****     ADC_DelSig_1_DSM_CR2_REG = ADC_DelSig_1_CFG1_DSM_CR2;
 282:.\Generated_Source\PSoC5/ADC_DelSig_1.c **** 
 283:.\Generated_Source\PSoC5/ADC_DelSig_1.c ****     /* This is only valid if there is an internal clock */
 284:.\Generated_Source\PSoC5/ADC_DelSig_1.c ****     #if(ADC_DelSig_1_DEFAULT_INTERNAL_CLK)
 285:.\Generated_Source\PSoC5/ADC_DelSig_1.c ****         ADC_DelSig_1_PWRMGR_CLK_REG |= ADC_DelSig_1_ACT_PWR_CLK_EN;
 286:.\Generated_Source\PSoC5/ADC_DelSig_1.c ****         ADC_DelSig_1_STBY_PWRMGR_CLK_REG |= ADC_DelSig_1_STBY_PWR_CLK_EN;
 287:.\Generated_Source\PSoC5/ADC_DelSig_1.c ****     #endif /* ADC_DelSig_1_DEFAULT_INTERNAL_CLK */
 288:.\Generated_Source\PSoC5/ADC_DelSig_1.c **** 
 289:.\Generated_Source\PSoC5/ADC_DelSig_1.c ****     /* Enable the active and alternate active power for charge pump clock */
 290:.\Generated_Source\PSoC5/ADC_DelSig_1.c ****     ADC_DelSig_1_PWRMGR_CHARGE_PUMP_CLK_REG |= ADC_DelSig_1_ACT_PWR_CHARGE_PUMP_CLK_EN;
 291:.\Generated_Source\PSoC5/ADC_DelSig_1.c ****     ADC_DelSig_1_STBY_PWRMGR_CHARGE_PUMP_CLK_REG |= ADC_DelSig_1_STBY_PWR_CHARGE_PUMP_CLK_EN;
 292:.\Generated_Source\PSoC5/ADC_DelSig_1.c **** 
 293:.\Generated_Source\PSoC5/ADC_DelSig_1.c ****     #if(ADC_DelSig_1_IRQ_REMOVE == 0u)
 294:.\Generated_Source\PSoC5/ADC_DelSig_1.c ****         /* Clear a pending interrupt */
 295:.\Generated_Source\PSoC5/ADC_DelSig_1.c ****         CyIntClearPending(ADC_DelSig_1_INTC_NUMBER);
 296:.\Generated_Source\PSoC5/ADC_DelSig_1.c ****         /* Enable interrupt */
 297:.\Generated_Source\PSoC5/ADC_DelSig_1.c ****         CyIntEnable(ADC_DelSig_1_INTC_NUMBER);
 298:.\Generated_Source\PSoC5/ADC_DelSig_1.c ****     #endif   /* End ADC_DelSig_1_IRQ_REMOVE */
 299:.\Generated_Source\PSoC5/ADC_DelSig_1.c **** 
 300:.\Generated_Source\PSoC5/ADC_DelSig_1.c ****     CyExitCriticalSection(enableInterrupts);
 301:.\Generated_Source\PSoC5/ADC_DelSig_1.c **** 
 302:.\Generated_Source\PSoC5/ADC_DelSig_1.c **** }
 303:.\Generated_Source\PSoC5/ADC_DelSig_1.c **** 
 304:.\Generated_Source\PSoC5/ADC_DelSig_1.c **** 
 305:.\Generated_Source\PSoC5/ADC_DelSig_1.c **** /*******************************************************************************
 306:.\Generated_Source\PSoC5/ADC_DelSig_1.c **** * Function Name: ADC_DelSig_1_Start
 307:.\Generated_Source\PSoC5/ADC_DelSig_1.c **** ********************************************************************************
 308:.\Generated_Source\PSoC5/ADC_DelSig_1.c **** *
 309:.\Generated_Source\PSoC5/ADC_DelSig_1.c **** * Summary:
 310:.\Generated_Source\PSoC5/ADC_DelSig_1.c **** *  Performs all required initialization for this component and enables
 311:.\Generated_Source\PSoC5/ADC_DelSig_1.c **** *  the power. It configure all the register the first time it is called.
 312:.\Generated_Source\PSoC5/ADC_DelSig_1.c **** *  Subsequent calls of the Start function only enable the ADC and turn
 313:.\Generated_Source\PSoC5/ADC_DelSig_1.c **** *  on the power. If multiple configurations are selected, it will
 314:.\Generated_Source\PSoC5/ADC_DelSig_1.c **** *  configure the ADC for configuration 1 by default, unless the
 315:.\Generated_Source\PSoC5/ADC_DelSig_1.c **** *  ADC_DelSig_1_SelectConfiguration( ) function has been called to change
 316:.\Generated_Source\PSoC5/ADC_DelSig_1.c **** *  the default setting.
 317:.\Generated_Source\PSoC5/ADC_DelSig_1.c **** *
ARM GAS  C:\Users\IVYLIU~1\AppData\Local\Temp\cckaBvwB.s 			page 7


 318:.\Generated_Source\PSoC5/ADC_DelSig_1.c **** * Parameters:
 319:.\Generated_Source\PSoC5/ADC_DelSig_1.c **** *  None
 320:.\Generated_Source\PSoC5/ADC_DelSig_1.c **** *
 321:.\Generated_Source\PSoC5/ADC_DelSig_1.c **** * Return:
 322:.\Generated_Source\PSoC5/ADC_DelSig_1.c **** *  None
 323:.\Generated_Source\PSoC5/ADC_DelSig_1.c **** *
 324:.\Generated_Source\PSoC5/ADC_DelSig_1.c **** * Global variables:
 325:.\Generated_Source\PSoC5/ADC_DelSig_1.c **** *  ADC_DelSig_1_initVar:  Used to check the initial configuration,
 326:.\Generated_Source\PSoC5/ADC_DelSig_1.c **** *  modified when this function is called for the first time.
 327:.\Generated_Source\PSoC5/ADC_DelSig_1.c **** *
 328:.\Generated_Source\PSoC5/ADC_DelSig_1.c **** *******************************************************************************/
 329:.\Generated_Source\PSoC5/ADC_DelSig_1.c **** void ADC_DelSig_1_Start(void) 
 330:.\Generated_Source\PSoC5/ADC_DelSig_1.c **** {
 331:.\Generated_Source\PSoC5/ADC_DelSig_1.c ****     if(ADC_DelSig_1_initVar == 0u)
 332:.\Generated_Source\PSoC5/ADC_DelSig_1.c ****     {
 333:.\Generated_Source\PSoC5/ADC_DelSig_1.c ****         if(ADC_DelSig_1_started == 0u)
 334:.\Generated_Source\PSoC5/ADC_DelSig_1.c ****         {
 335:.\Generated_Source\PSoC5/ADC_DelSig_1.c ****             ADC_DelSig_1_Init();
 336:.\Generated_Source\PSoC5/ADC_DelSig_1.c ****         }
 337:.\Generated_Source\PSoC5/ADC_DelSig_1.c ****         ADC_DelSig_1_initVar = 1u;
 338:.\Generated_Source\PSoC5/ADC_DelSig_1.c ****     }
 339:.\Generated_Source\PSoC5/ADC_DelSig_1.c **** 
 340:.\Generated_Source\PSoC5/ADC_DelSig_1.c ****     /* Enable the ADC */
 341:.\Generated_Source\PSoC5/ADC_DelSig_1.c ****     ADC_DelSig_1_Enable();
 342:.\Generated_Source\PSoC5/ADC_DelSig_1.c **** }
 343:.\Generated_Source\PSoC5/ADC_DelSig_1.c **** 
 344:.\Generated_Source\PSoC5/ADC_DelSig_1.c **** 
 345:.\Generated_Source\PSoC5/ADC_DelSig_1.c **** /*******************************************************************************
 346:.\Generated_Source\PSoC5/ADC_DelSig_1.c **** * Function Name: ADC_DelSig_1_Stop
 347:.\Generated_Source\PSoC5/ADC_DelSig_1.c **** ********************************************************************************
 348:.\Generated_Source\PSoC5/ADC_DelSig_1.c **** *
 349:.\Generated_Source\PSoC5/ADC_DelSig_1.c **** * Summary:
 350:.\Generated_Source\PSoC5/ADC_DelSig_1.c **** *  This function stops and powers down the ADC component and the internal
 351:.\Generated_Source\PSoC5/ADC_DelSig_1.c **** *  clock if the external clock is not selected. If an external clock is
 352:.\Generated_Source\PSoC5/ADC_DelSig_1.c **** *  used, it is up to the designer to power down the external clock it
 353:.\Generated_Source\PSoC5/ADC_DelSig_1.c **** *  required.
 354:.\Generated_Source\PSoC5/ADC_DelSig_1.c **** *
 355:.\Generated_Source\PSoC5/ADC_DelSig_1.c **** * Parameters:
 356:.\Generated_Source\PSoC5/ADC_DelSig_1.c **** *  None
 357:.\Generated_Source\PSoC5/ADC_DelSig_1.c **** *
 358:.\Generated_Source\PSoC5/ADC_DelSig_1.c **** * Return:
 359:.\Generated_Source\PSoC5/ADC_DelSig_1.c **** *  None
 360:.\Generated_Source\PSoC5/ADC_DelSig_1.c **** *
 361:.\Generated_Source\PSoC5/ADC_DelSig_1.c **** *******************************************************************************/
 362:.\Generated_Source\PSoC5/ADC_DelSig_1.c **** void ADC_DelSig_1_Stop(void) 
 363:.\Generated_Source\PSoC5/ADC_DelSig_1.c **** {
 364:.\Generated_Source\PSoC5/ADC_DelSig_1.c ****     uint8 enableInterrupts;
 365:.\Generated_Source\PSoC5/ADC_DelSig_1.c ****     enableInterrupts = CyEnterCriticalSection();
 366:.\Generated_Source\PSoC5/ADC_DelSig_1.c **** 
 367:.\Generated_Source\PSoC5/ADC_DelSig_1.c ****     /* Stop conversions */
 368:.\Generated_Source\PSoC5/ADC_DelSig_1.c ****     ADC_DelSig_1_DEC_CR_REG &= (uint8)~ADC_DelSig_1_DEC_START_CONV;
 369:.\Generated_Source\PSoC5/ADC_DelSig_1.c ****     ADC_DelSig_1_DEC_SR_REG |=  ADC_DelSig_1_DEC_INTR_CLEAR;
 370:.\Generated_Source\PSoC5/ADC_DelSig_1.c **** 
 371:.\Generated_Source\PSoC5/ADC_DelSig_1.c ****     /* Disable PRES, Disable power to VCMBUF0, REFBUF0 and REFBUF1,
 372:.\Generated_Source\PSoC5/ADC_DelSig_1.c ****        enable PRES */
 373:.\Generated_Source\PSoC5/ADC_DelSig_1.c ****     ADC_DelSig_1_RESET_CR4_REG |= ADC_DelSig_1_IGNORE_PRESA1;
 374:.\Generated_Source\PSoC5/ADC_DelSig_1.c ****     ADC_DelSig_1_RESET_CR5_REG |= ADC_DelSig_1_IGNORE_PRESA2;
ARM GAS  C:\Users\IVYLIU~1\AppData\Local\Temp\cckaBvwB.s 			page 8


 375:.\Generated_Source\PSoC5/ADC_DelSig_1.c **** 
 376:.\Generated_Source\PSoC5/ADC_DelSig_1.c ****     ADC_DelSig_1_DSM_CR17_REG &= (uint8)~(ADC_DelSig_1_DSM_EN_BUF_VREF | ADC_DelSig_1_DSM_EN_BUF_VC
 377:.\Generated_Source\PSoC5/ADC_DelSig_1.c ****     ADC_DelSig_1_DSM_REF0_REG &= (uint8)~ADC_DelSig_1_DSM_EN_BUF_VREF_INN;
 378:.\Generated_Source\PSoC5/ADC_DelSig_1.c **** 
 379:.\Generated_Source\PSoC5/ADC_DelSig_1.c ****     /* Wait for 3 microseconds. */
 380:.\Generated_Source\PSoC5/ADC_DelSig_1.c ****     CyDelayUs(ADC_DelSig_1_PRES_DELAY_TIME);
 381:.\Generated_Source\PSoC5/ADC_DelSig_1.c **** 
 382:.\Generated_Source\PSoC5/ADC_DelSig_1.c ****     /* Enable the press circuit */
 383:.\Generated_Source\PSoC5/ADC_DelSig_1.c ****     ADC_DelSig_1_RESET_CR4_REG &= (uint8)~ADC_DelSig_1_IGNORE_PRESA1;
 384:.\Generated_Source\PSoC5/ADC_DelSig_1.c ****     ADC_DelSig_1_RESET_CR5_REG &= (uint8)~ADC_DelSig_1_IGNORE_PRESA2;
 385:.\Generated_Source\PSoC5/ADC_DelSig_1.c **** 
 386:.\Generated_Source\PSoC5/ADC_DelSig_1.c ****     /* Disable power to the ADC */
 387:.\Generated_Source\PSoC5/ADC_DelSig_1.c ****     ADC_DelSig_1_PWRMGR_DSM_REG &= (uint8)~ADC_DelSig_1_ACT_PWR_DSM_EN;
 388:.\Generated_Source\PSoC5/ADC_DelSig_1.c **** 
 389:.\Generated_Source\PSoC5/ADC_DelSig_1.c ****     /* Disable power to Decimator block */
 390:.\Generated_Source\PSoC5/ADC_DelSig_1.c ****     ADC_DelSig_1_PWRMGR_DEC_REG &= (uint8)~ADC_DelSig_1_ACT_PWR_DEC_EN;
 391:.\Generated_Source\PSoC5/ADC_DelSig_1.c **** 
 392:.\Generated_Source\PSoC5/ADC_DelSig_1.c ****     /* Disable alternative active power to the ADC */
 393:.\Generated_Source\PSoC5/ADC_DelSig_1.c ****     ADC_DelSig_1_STBY_PWRMGR_DEC_REG &= (uint8)~ADC_DelSig_1_STBY_PWR_DEC_EN;
 394:.\Generated_Source\PSoC5/ADC_DelSig_1.c ****     ADC_DelSig_1_STBY_PWRMGR_DSM_REG &= (uint8)~ADC_DelSig_1_STBY_PWR_DSM_EN;
 395:.\Generated_Source\PSoC5/ADC_DelSig_1.c **** 
 396:.\Generated_Source\PSoC5/ADC_DelSig_1.c ****    /* Disable negative pumps for DSM  */
 397:.\Generated_Source\PSoC5/ADC_DelSig_1.c ****     ADC_DelSig_1_PUMP_CR1_REG &= (uint8)~(ADC_DelSig_1_PUMP_CR1_CLKSEL | ADC_DelSig_1_PUMP_CR1_FORC
 398:.\Generated_Source\PSoC5/ADC_DelSig_1.c **** 
 399:.\Generated_Source\PSoC5/ADC_DelSig_1.c ****     /* This is only valid if there is an internal clock */
 400:.\Generated_Source\PSoC5/ADC_DelSig_1.c ****     #if(ADC_DelSig_1_DEFAULT_INTERNAL_CLK)
 401:.\Generated_Source\PSoC5/ADC_DelSig_1.c ****         ADC_DelSig_1_PWRMGR_CLK_REG &= (uint8)~ADC_DelSig_1_ACT_PWR_CLK_EN;
 402:.\Generated_Source\PSoC5/ADC_DelSig_1.c ****         ADC_DelSig_1_STBY_PWRMGR_CLK_REG &= (uint8)~ADC_DelSig_1_STBY_PWR_CLK_EN;
 403:.\Generated_Source\PSoC5/ADC_DelSig_1.c ****     #endif /* ADC_DelSig_1_DEFAULT_INTERNAL_CLK */
 404:.\Generated_Source\PSoC5/ADC_DelSig_1.c **** 
 405:.\Generated_Source\PSoC5/ADC_DelSig_1.c ****     /* Disable Modulator Chopping */
 406:.\Generated_Source\PSoC5/ADC_DelSig_1.c ****     ADC_DelSig_1_DSM_CR2_REG &= (uint8)~ADC_DelSig_1_DSM_MOD_CHOP_EN;
 407:.\Generated_Source\PSoC5/ADC_DelSig_1.c ****     /* Disable power to charge pump clock */
 408:.\Generated_Source\PSoC5/ADC_DelSig_1.c ****     ADC_DelSig_1_PWRMGR_CHARGE_PUMP_CLK_REG &= (uint8)~ADC_DelSig_1_ACT_PWR_CHARGE_PUMP_CLK_EN;
 409:.\Generated_Source\PSoC5/ADC_DelSig_1.c ****     ADC_DelSig_1_STBY_PWRMGR_CHARGE_PUMP_CLK_REG &= (uint8)~ADC_DelSig_1_STBY_PWR_CHARGE_PUMP_CLK_E
 410:.\Generated_Source\PSoC5/ADC_DelSig_1.c ****     
 411:.\Generated_Source\PSoC5/ADC_DelSig_1.c ****     CyExitCriticalSection(enableInterrupts);
 412:.\Generated_Source\PSoC5/ADC_DelSig_1.c **** }
 413:.\Generated_Source\PSoC5/ADC_DelSig_1.c **** 
 414:.\Generated_Source\PSoC5/ADC_DelSig_1.c **** 
 415:.\Generated_Source\PSoC5/ADC_DelSig_1.c **** /*******************************************************************************
 416:.\Generated_Source\PSoC5/ADC_DelSig_1.c **** * Function Name: ADC_DelSig_1_SetBufferGain
 417:.\Generated_Source\PSoC5/ADC_DelSig_1.c **** ********************************************************************************
 418:.\Generated_Source\PSoC5/ADC_DelSig_1.c **** *
 419:.\Generated_Source\PSoC5/ADC_DelSig_1.c **** * Summary:
 420:.\Generated_Source\PSoC5/ADC_DelSig_1.c **** *  Sets input buffer gain.
 421:.\Generated_Source\PSoC5/ADC_DelSig_1.c **** *
 422:.\Generated_Source\PSoC5/ADC_DelSig_1.c **** * Parameters:
 423:.\Generated_Source\PSoC5/ADC_DelSig_1.c **** *  gain:  Two bit value to select a gain of 1, 2, 4, or 8.
 424:.\Generated_Source\PSoC5/ADC_DelSig_1.c **** *
 425:.\Generated_Source\PSoC5/ADC_DelSig_1.c **** * Return:
 426:.\Generated_Source\PSoC5/ADC_DelSig_1.c **** *  None
 427:.\Generated_Source\PSoC5/ADC_DelSig_1.c **** *
 428:.\Generated_Source\PSoC5/ADC_DelSig_1.c **** *******************************************************************************/
 429:.\Generated_Source\PSoC5/ADC_DelSig_1.c **** void ADC_DelSig_1_SetBufferGain(uint8 gain) 
 430:.\Generated_Source\PSoC5/ADC_DelSig_1.c **** {
 431:.\Generated_Source\PSoC5/ADC_DelSig_1.c ****     uint8 tmpReg;
ARM GAS  C:\Users\IVYLIU~1\AppData\Local\Temp\cckaBvwB.s 			page 9


 432:.\Generated_Source\PSoC5/ADC_DelSig_1.c ****     tmpReg = ADC_DelSig_1_DSM_BUF1_REG & (uint8)~ADC_DelSig_1_DSM_GAIN_MASK;
 433:.\Generated_Source\PSoC5/ADC_DelSig_1.c ****     tmpReg |= (uint8)(gain << ADC_DelSig_1_DSM_GAIN_SHIFT) & ADC_DelSig_1_DSM_GAIN_MASK;
 434:.\Generated_Source\PSoC5/ADC_DelSig_1.c ****     ADC_DelSig_1_DSM_BUF1_REG = tmpReg;
 435:.\Generated_Source\PSoC5/ADC_DelSig_1.c **** }
 436:.\Generated_Source\PSoC5/ADC_DelSig_1.c **** 
 437:.\Generated_Source\PSoC5/ADC_DelSig_1.c **** 
 438:.\Generated_Source\PSoC5/ADC_DelSig_1.c **** /*******************************************************************************
 439:.\Generated_Source\PSoC5/ADC_DelSig_1.c **** * Function Name: ADC_DelSig_1_SetCoherency
 440:.\Generated_Source\PSoC5/ADC_DelSig_1.c **** ********************************************************************************
 441:.\Generated_Source\PSoC5/ADC_DelSig_1.c **** *
 442:.\Generated_Source\PSoC5/ADC_DelSig_1.c **** * Summary:
 443:.\Generated_Source\PSoC5/ADC_DelSig_1.c **** *  This function allows the user to change which of the ADC's 3 word
 444:.\Generated_Source\PSoC5/ADC_DelSig_1.c **** *  result will trigger a coherency unlock. The ADC's result will not be
 445:.\Generated_Source\PSoC5/ADC_DelSig_1.c **** *  updated until the set byte is read either by the ADC or DMA. 
 446:.\Generated_Source\PSoC5/ADC_DelSig_1.c **** *  By default the LSB is the coherency byte for right alignment data format. 
 447:.\Generated_Source\PSoC5/ADC_DelSig_1.c **** *  The middle or high byte is set automatically depend on left alignment 
 448:.\Generated_Source\PSoC5/ADC_DelSig_1.c **** *  configuration for DMA data transfer.
 449:.\Generated_Source\PSoC5/ADC_DelSig_1.c **** *  If DMA or if a custom API requires different byte to be read the last,
 450:.\Generated_Source\PSoC5/ADC_DelSig_1.c **** *  this API should be used to set the last byte of the ADC result that is read. 
 451:.\Generated_Source\PSoC5/ADC_DelSig_1.c **** *  If a multibyte read is performed either by DMA or the ARM processor, the
 452:.\Generated_Source\PSoC5/ADC_DelSig_1.c **** *  coherency can be set to any byte in the last word read.
 453:.\Generated_Source\PSoC5/ADC_DelSig_1.c **** *
 454:.\Generated_Source\PSoC5/ADC_DelSig_1.c **** * Parameters:
 455:.\Generated_Source\PSoC5/ADC_DelSig_1.c **** *  coherency:  Two bit value to set the coherency bit.
 456:.\Generated_Source\PSoC5/ADC_DelSig_1.c **** *           00-Coherency checking off
 457:.\Generated_Source\PSoC5/ADC_DelSig_1.c **** *           01-low byte is key byte
 458:.\Generated_Source\PSoC5/ADC_DelSig_1.c **** *           02-middle byte is the key byte
 459:.\Generated_Source\PSoC5/ADC_DelSig_1.c **** *           03-high byte is the key byte
 460:.\Generated_Source\PSoC5/ADC_DelSig_1.c **** *
 461:.\Generated_Source\PSoC5/ADC_DelSig_1.c **** * Return:
 462:.\Generated_Source\PSoC5/ADC_DelSig_1.c **** *  None
 463:.\Generated_Source\PSoC5/ADC_DelSig_1.c **** *
 464:.\Generated_Source\PSoC5/ADC_DelSig_1.c **** *******************************************************************************/
 465:.\Generated_Source\PSoC5/ADC_DelSig_1.c **** void ADC_DelSig_1_SetCoherency(uint8 coherency) 
 466:.\Generated_Source\PSoC5/ADC_DelSig_1.c **** {
 467:.\Generated_Source\PSoC5/ADC_DelSig_1.c ****     uint8 tmpReg;
 468:.\Generated_Source\PSoC5/ADC_DelSig_1.c **** 
 469:.\Generated_Source\PSoC5/ADC_DelSig_1.c ****     tmpReg = ADC_DelSig_1_DEC_COHER_REG & (uint8)~ADC_DelSig_1_DEC_SAMP_KEY_MASK;
 470:.\Generated_Source\PSoC5/ADC_DelSig_1.c ****     tmpReg |= coherency & ADC_DelSig_1_DEC_SAMP_KEY_MASK;
 471:.\Generated_Source\PSoC5/ADC_DelSig_1.c ****     ADC_DelSig_1_DEC_COHER_REG = tmpReg;
 472:.\Generated_Source\PSoC5/ADC_DelSig_1.c **** }
 473:.\Generated_Source\PSoC5/ADC_DelSig_1.c **** 
 474:.\Generated_Source\PSoC5/ADC_DelSig_1.c **** 
 475:.\Generated_Source\PSoC5/ADC_DelSig_1.c **** /*******************************************************************************
 476:.\Generated_Source\PSoC5/ADC_DelSig_1.c **** * Function Name: ADC_DelSig_1_SetGCOR
 477:.\Generated_Source\PSoC5/ADC_DelSig_1.c **** ********************************************************************************
 478:.\Generated_Source\PSoC5/ADC_DelSig_1.c **** *
 479:.\Generated_Source\PSoC5/ADC_DelSig_1.c **** * Summary:
 480:.\Generated_Source\PSoC5/ADC_DelSig_1.c **** *  Calculates a new GCOR value and writes it into the GCOR register. 
 481:.\Generated_Source\PSoC5/ADC_DelSig_1.c **** *  The GCOR value is a 16-bit value that represents a gain of 0 to 2. 
 482:.\Generated_Source\PSoC5/ADC_DelSig_1.c **** *  The ADC result is multiplied by this value before it is placed in the ADC 
 483:.\Generated_Source\PSoC5/ADC_DelSig_1.c **** *  output registers. The numerical format for the GCOR value is:
 484:.\Generated_Source\PSoC5/ADC_DelSig_1.c **** *  0x0000 -> 0.000
 485:.\Generated_Source\PSoC5/ADC_DelSig_1.c **** *  0x8000 -> 1.000
 486:.\Generated_Source\PSoC5/ADC_DelSig_1.c **** *  0xFFFF -> 1.99997
 487:.\Generated_Source\PSoC5/ADC_DelSig_1.c **** *  When executing the function, the old GCOR value is multiplied by
 488:.\Generated_Source\PSoC5/ADC_DelSig_1.c **** *  gainAdjust and reloaded into the GCOR register.
ARM GAS  C:\Users\IVYLIU~1\AppData\Local\Temp\cckaBvwB.s 			page 10


 489:.\Generated_Source\PSoC5/ADC_DelSig_1.c **** *
 490:.\Generated_Source\PSoC5/ADC_DelSig_1.c **** * Parameters:
 491:.\Generated_Source\PSoC5/ADC_DelSig_1.c **** *  gainAdjust:  floating point value to set GCOR registers.
 492:.\Generated_Source\PSoC5/ADC_DelSig_1.c **** *
 493:.\Generated_Source\PSoC5/ADC_DelSig_1.c **** * Return:
 494:.\Generated_Source\PSoC5/ADC_DelSig_1.c **** *  uint8: 0 - if GCOR value is within the expected range.
 495:.\Generated_Source\PSoC5/ADC_DelSig_1.c **** *         1 - the correction value is outside GCOR value range of
 496:.\Generated_Source\PSoC5/ADC_DelSig_1.c **** *             0.00 to 1.9999.
 497:.\Generated_Source\PSoC5/ADC_DelSig_1.c **** *
 498:.\Generated_Source\PSoC5/ADC_DelSig_1.c **** * Side Effects:  The GVAL register is set to the amount of valid bits in the
 499:.\Generated_Source\PSoC5/ADC_DelSig_1.c **** *                GCOR  register minus one. If GVAL is 15 (0x0F), all 16 bits
 500:.\Generated_Source\PSoC5/ADC_DelSig_1.c **** *                of the GCOR registers will be valid. If for example GVAL is
 501:.\Generated_Source\PSoC5/ADC_DelSig_1.c **** *                11 (0x0B) only 12 bits will be valid. The least 4 bits will
 502:.\Generated_Source\PSoC5/ADC_DelSig_1.c **** *                be lost when the GCOR value is shifted 4 places to the right.
 503:.\Generated_Source\PSoC5/ADC_DelSig_1.c **** *
 504:.\Generated_Source\PSoC5/ADC_DelSig_1.c **** ******************************************************************************/
 505:.\Generated_Source\PSoC5/ADC_DelSig_1.c **** uint8 ADC_DelSig_1_SetGCOR(float32 gainAdjust) 
 506:.\Generated_Source\PSoC5/ADC_DelSig_1.c **** {
 507:.\Generated_Source\PSoC5/ADC_DelSig_1.c ****     uint16 tmpReg;
 508:.\Generated_Source\PSoC5/ADC_DelSig_1.c ****     uint8 status;
 509:.\Generated_Source\PSoC5/ADC_DelSig_1.c ****     float32 tmpValue;
 510:.\Generated_Source\PSoC5/ADC_DelSig_1.c **** 
 511:.\Generated_Source\PSoC5/ADC_DelSig_1.c ****     tmpReg = ADC_DelSig_1_gcor[ADC_DelSig_1_Config - 1u].gcor;
 512:.\Generated_Source\PSoC5/ADC_DelSig_1.c ****     tmpValue = ((float32)tmpReg / (float32)ADC_DelSig_1_IDEAL_GAIN_CONST);
 513:.\Generated_Source\PSoC5/ADC_DelSig_1.c ****     tmpValue = tmpValue * gainAdjust;
 514:.\Generated_Source\PSoC5/ADC_DelSig_1.c **** 
 515:.\Generated_Source\PSoC5/ADC_DelSig_1.c ****     if (tmpValue > 1.9999)
 516:.\Generated_Source\PSoC5/ADC_DelSig_1.c ****     {
 517:.\Generated_Source\PSoC5/ADC_DelSig_1.c ****         status = 1u;
 518:.\Generated_Source\PSoC5/ADC_DelSig_1.c ****     }
 519:.\Generated_Source\PSoC5/ADC_DelSig_1.c ****     else
 520:.\Generated_Source\PSoC5/ADC_DelSig_1.c ****     {
 521:.\Generated_Source\PSoC5/ADC_DelSig_1.c ****         tmpValue *= (float32)ADC_DelSig_1_IDEAL_GAIN_CONST;
 522:.\Generated_Source\PSoC5/ADC_DelSig_1.c **** 		tmpReg = (uint16)tmpValue;
 523:.\Generated_Source\PSoC5/ADC_DelSig_1.c ****         CY_SET_REG16(ADC_DelSig_1_DEC_GCOR_16B_PTR, tmpReg);
 524:.\Generated_Source\PSoC5/ADC_DelSig_1.c ****         /* Update gain array to be used by SelectConfiguration() API */
 525:.\Generated_Source\PSoC5/ADC_DelSig_1.c ****        ADC_DelSig_1_gcor[ADC_DelSig_1_Config - 1u].gcor = tmpReg;
 526:.\Generated_Source\PSoC5/ADC_DelSig_1.c **** 
 527:.\Generated_Source\PSoC5/ADC_DelSig_1.c ****         status = 0u;
 528:.\Generated_Source\PSoC5/ADC_DelSig_1.c **** 
 529:.\Generated_Source\PSoC5/ADC_DelSig_1.c ****     }
 530:.\Generated_Source\PSoC5/ADC_DelSig_1.c ****     return(status);
 531:.\Generated_Source\PSoC5/ADC_DelSig_1.c **** }
 532:.\Generated_Source\PSoC5/ADC_DelSig_1.c **** 
 533:.\Generated_Source\PSoC5/ADC_DelSig_1.c **** 
 534:.\Generated_Source\PSoC5/ADC_DelSig_1.c **** /******************************************************************************
 535:.\Generated_Source\PSoC5/ADC_DelSig_1.c **** * Function Name: ADC_DelSig_1_ReadGCOR
 536:.\Generated_Source\PSoC5/ADC_DelSig_1.c **** *******************************************************************************
 537:.\Generated_Source\PSoC5/ADC_DelSig_1.c **** *
 538:.\Generated_Source\PSoC5/ADC_DelSig_1.c **** * Summary:
 539:.\Generated_Source\PSoC5/ADC_DelSig_1.c **** *  This API returns the current GCOR register value, normalized based on the
 540:.\Generated_Source\PSoC5/ADC_DelSig_1.c **** *  GVAL register settings.
 541:.\Generated_Source\PSoC5/ADC_DelSig_1.c **** *  For example, if the GCOR value is 0x0812 and the GVAL register is set to 
 542:.\Generated_Source\PSoC5/ADC_DelSig_1.c **** *  11 (0x0B) then the returned value will be shifted by for bits to the left.
 543:.\Generated_Source\PSoC5/ADC_DelSig_1.c **** *  (Actual GCOR value = 0x0812, returned value = 0x8120)
 544:.\Generated_Source\PSoC5/ADC_DelSig_1.c **** *
 545:.\Generated_Source\PSoC5/ADC_DelSig_1.c **** * Parameters:
ARM GAS  C:\Users\IVYLIU~1\AppData\Local\Temp\cckaBvwB.s 			page 11


 546:.\Generated_Source\PSoC5/ADC_DelSig_1.c **** *  None
 547:.\Generated_Source\PSoC5/ADC_DelSig_1.c **** *
 548:.\Generated_Source\PSoC5/ADC_DelSig_1.c **** * Return:
 549:.\Generated_Source\PSoC5/ADC_DelSig_1.c **** *  uint16:  Normalized GCOR value.
 550:.\Generated_Source\PSoC5/ADC_DelSig_1.c **** *
 551:.\Generated_Source\PSoC5/ADC_DelSig_1.c **** *******************************************************************************/
 552:.\Generated_Source\PSoC5/ADC_DelSig_1.c **** uint16 ADC_DelSig_1_ReadGCOR(void) 
 553:.\Generated_Source\PSoC5/ADC_DelSig_1.c **** {
 554:.\Generated_Source\PSoC5/ADC_DelSig_1.c ****     uint8 gValue;
 555:.\Generated_Source\PSoC5/ADC_DelSig_1.c ****     uint16 gcorValue;
 556:.\Generated_Source\PSoC5/ADC_DelSig_1.c **** 
 557:.\Generated_Source\PSoC5/ADC_DelSig_1.c ****     gValue = ADC_DelSig_1_DEC_GVAL_REG;
 558:.\Generated_Source\PSoC5/ADC_DelSig_1.c ****     gcorValue = CY_GET_REG16(ADC_DelSig_1_DEC_GCOR_16B_PTR);
 559:.\Generated_Source\PSoC5/ADC_DelSig_1.c **** 
 560:.\Generated_Source\PSoC5/ADC_DelSig_1.c ****     if (gValue < ADC_DelSig_1_MAX_GVAL)
 561:.\Generated_Source\PSoC5/ADC_DelSig_1.c ****     {
 562:.\Generated_Source\PSoC5/ADC_DelSig_1.c ****         gcorValue <<= ADC_DelSig_1_MAX_GVAL - gValue;
 563:.\Generated_Source\PSoC5/ADC_DelSig_1.c ****     }
 564:.\Generated_Source\PSoC5/ADC_DelSig_1.c **** 
 565:.\Generated_Source\PSoC5/ADC_DelSig_1.c ****     return gcorValue;
 566:.\Generated_Source\PSoC5/ADC_DelSig_1.c **** }
 567:.\Generated_Source\PSoC5/ADC_DelSig_1.c **** 
 568:.\Generated_Source\PSoC5/ADC_DelSig_1.c **** 
 569:.\Generated_Source\PSoC5/ADC_DelSig_1.c **** /*******************************************************************************
 570:.\Generated_Source\PSoC5/ADC_DelSig_1.c **** * Function Name: ADC_DelSig_1_StartConvert
 571:.\Generated_Source\PSoC5/ADC_DelSig_1.c **** ********************************************************************************
 572:.\Generated_Source\PSoC5/ADC_DelSig_1.c **** *
 573:.\Generated_Source\PSoC5/ADC_DelSig_1.c **** * Summary:
 574:.\Generated_Source\PSoC5/ADC_DelSig_1.c **** *  Forces the ADC to initiate a conversion. If in the "Single Sample"
 575:.\Generated_Source\PSoC5/ADC_DelSig_1.c **** *  mode, one conversion will be performed then the ADC will halt. If in
 576:.\Generated_Source\PSoC5/ADC_DelSig_1.c **** *  one of the other three conversion modes, the ADC will run
 577:.\Generated_Source\PSoC5/ADC_DelSig_1.c **** *  continuously until the ADC_Stop() or ADC_StopConvert() is called.
 578:.\Generated_Source\PSoC5/ADC_DelSig_1.c **** *
 579:.\Generated_Source\PSoC5/ADC_DelSig_1.c **** * Parameters:
 580:.\Generated_Source\PSoC5/ADC_DelSig_1.c **** *  None
 581:.\Generated_Source\PSoC5/ADC_DelSig_1.c **** *
 582:.\Generated_Source\PSoC5/ADC_DelSig_1.c **** * Return:
 583:.\Generated_Source\PSoC5/ADC_DelSig_1.c **** *  None
 584:.\Generated_Source\PSoC5/ADC_DelSig_1.c **** *
 585:.\Generated_Source\PSoC5/ADC_DelSig_1.c **** *******************************************************************************/
 586:.\Generated_Source\PSoC5/ADC_DelSig_1.c **** void ADC_DelSig_1_StartConvert(void) 
 587:.\Generated_Source\PSoC5/ADC_DelSig_1.c **** {
 588:.\Generated_Source\PSoC5/ADC_DelSig_1.c ****     /* Start the conversion */
 589:.\Generated_Source\PSoC5/ADC_DelSig_1.c ****     ADC_DelSig_1_DEC_CR_REG |= ADC_DelSig_1_DEC_START_CONV;
 590:.\Generated_Source\PSoC5/ADC_DelSig_1.c **** }
 591:.\Generated_Source\PSoC5/ADC_DelSig_1.c **** 
 592:.\Generated_Source\PSoC5/ADC_DelSig_1.c **** 
 593:.\Generated_Source\PSoC5/ADC_DelSig_1.c **** /*******************************************************************************
 594:.\Generated_Source\PSoC5/ADC_DelSig_1.c **** * Function Name: ADC_DelSig_1_StopConvert
 595:.\Generated_Source\PSoC5/ADC_DelSig_1.c **** ********************************************************************************
 596:.\Generated_Source\PSoC5/ADC_DelSig_1.c **** *
 597:.\Generated_Source\PSoC5/ADC_DelSig_1.c **** * Summary:
 598:.\Generated_Source\PSoC5/ADC_DelSig_1.c **** *  Forces the ADC to stop all conversions. If the ADC is in the middle of a
 599:.\Generated_Source\PSoC5/ADC_DelSig_1.c **** *  conversion, the ADC will be reset and not provide a result for that partial
 600:.\Generated_Source\PSoC5/ADC_DelSig_1.c **** *  conversion.
 601:.\Generated_Source\PSoC5/ADC_DelSig_1.c **** *
 602:.\Generated_Source\PSoC5/ADC_DelSig_1.c **** * Parameters:
ARM GAS  C:\Users\IVYLIU~1\AppData\Local\Temp\cckaBvwB.s 			page 12


 603:.\Generated_Source\PSoC5/ADC_DelSig_1.c **** *  None
 604:.\Generated_Source\PSoC5/ADC_DelSig_1.c **** *
 605:.\Generated_Source\PSoC5/ADC_DelSig_1.c **** * Return:
 606:.\Generated_Source\PSoC5/ADC_DelSig_1.c **** *  None
 607:.\Generated_Source\PSoC5/ADC_DelSig_1.c **** *
 608:.\Generated_Source\PSoC5/ADC_DelSig_1.c **** *******************************************************************************/
 609:.\Generated_Source\PSoC5/ADC_DelSig_1.c **** void ADC_DelSig_1_StopConvert(void) 
 610:.\Generated_Source\PSoC5/ADC_DelSig_1.c **** {
 611:.\Generated_Source\PSoC5/ADC_DelSig_1.c ****     /* Stop all conversions */
 612:.\Generated_Source\PSoC5/ADC_DelSig_1.c ****     ADC_DelSig_1_DEC_CR_REG &= (uint8)~ADC_DelSig_1_DEC_START_CONV;
 613:.\Generated_Source\PSoC5/ADC_DelSig_1.c **** }
 614:.\Generated_Source\PSoC5/ADC_DelSig_1.c **** 
 615:.\Generated_Source\PSoC5/ADC_DelSig_1.c **** 
 616:.\Generated_Source\PSoC5/ADC_DelSig_1.c **** /*******************************************************************************
 617:.\Generated_Source\PSoC5/ADC_DelSig_1.c **** * Function Name: ADC_DelSig_1_IsEndConversion
 618:.\Generated_Source\PSoC5/ADC_DelSig_1.c **** ********************************************************************************
 619:.\Generated_Source\PSoC5/ADC_DelSig_1.c **** *
 620:.\Generated_Source\PSoC5/ADC_DelSig_1.c **** * Summary:
 621:.\Generated_Source\PSoC5/ADC_DelSig_1.c **** *  Checks the status that the most recently started conversion has completed.
 622:.\Generated_Source\PSoC5/ADC_DelSig_1.c **** *  The status is cleared by any of ADC_GetResult8(), ADC_GetResult16() or 
 623:.\Generated_Source\PSoC5/ADC_DelSig_1.c **** *  ADC_GetResult32() API.
 624:.\Generated_Source\PSoC5/ADC_DelSig_1.c **** *  This function provides the programmer with two options. In one mode this 
 625:.\Generated_Source\PSoC5/ADC_DelSig_1.c **** *  function immediately returns with the conversion status. In the other mode,
 626:.\Generated_Source\PSoC5/ADC_DelSig_1.c **** *  the function does not return (blocking) until the conversion has completed.
 627:.\Generated_Source\PSoC5/ADC_DelSig_1.c **** *
 628:.\Generated_Source\PSoC5/ADC_DelSig_1.c **** * Parameters:
 629:.\Generated_Source\PSoC5/ADC_DelSig_1.c **** *  retMode: Check conversion return mode. See the following table for options.
 630:.\Generated_Source\PSoC5/ADC_DelSig_1.c **** *   ADC_DelSig_1_RETURN_STATUS -   Immediately returns conversion result
 631:.\Generated_Source\PSoC5/ADC_DelSig_1.c **** *                                      status.
 632:.\Generated_Source\PSoC5/ADC_DelSig_1.c **** *   ADC_DelSig_1_WAIT_FOR_RESULT - Does not return until ADC conversion
 633:.\Generated_Source\PSoC5/ADC_DelSig_1.c **** *                                      is complete.
 634:.\Generated_Source\PSoC5/ADC_DelSig_1.c **** *
 635:.\Generated_Source\PSoC5/ADC_DelSig_1.c **** * Return:
 636:.\Generated_Source\PSoC5/ADC_DelSig_1.c **** *  If a nonzero value is returned, the last conversion has completed.
 637:.\Generated_Source\PSoC5/ADC_DelSig_1.c **** *  If the returned value is zero, the ADC is still calculating the last result.
 638:.\Generated_Source\PSoC5/ADC_DelSig_1.c **** *
 639:.\Generated_Source\PSoC5/ADC_DelSig_1.c **** * Global variables:
 640:.\Generated_Source\PSoC5/ADC_DelSig_1.c **** *  ADC_DelSig_1_convDone:  Used to check whether conversion is complete
 641:.\Generated_Source\PSoC5/ADC_DelSig_1.c **** *  or not for single sample mode with resolution is above 16
 642:.\Generated_Source\PSoC5/ADC_DelSig_1.c **** *
 643:.\Generated_Source\PSoC5/ADC_DelSig_1.c **** *******************************************************************************/
 644:.\Generated_Source\PSoC5/ADC_DelSig_1.c **** uint8 ADC_DelSig_1_IsEndConversion(uint8 retMode) 
 645:.\Generated_Source\PSoC5/ADC_DelSig_1.c **** {
 646:.\Generated_Source\PSoC5/ADC_DelSig_1.c ****     uint8 status;
 647:.\Generated_Source\PSoC5/ADC_DelSig_1.c **** 
 648:.\Generated_Source\PSoC5/ADC_DelSig_1.c ****     do
 649:.\Generated_Source\PSoC5/ADC_DelSig_1.c ****     {
 650:.\Generated_Source\PSoC5/ADC_DelSig_1.c ****         /* Check for stop convert if conversion mode is Single Sample with
 651:.\Generated_Source\PSoC5/ADC_DelSig_1.c ****         *   resolution above 16 bit
 652:.\Generated_Source\PSoC5/ADC_DelSig_1.c ****         */
 653:.\Generated_Source\PSoC5/ADC_DelSig_1.c ****         if(ADC_DelSig_1_stopConversion != 0u)
 654:.\Generated_Source\PSoC5/ADC_DelSig_1.c ****         {
 655:.\Generated_Source\PSoC5/ADC_DelSig_1.c ****             status = ADC_DelSig_1_convDone;
 656:.\Generated_Source\PSoC5/ADC_DelSig_1.c ****         }
 657:.\Generated_Source\PSoC5/ADC_DelSig_1.c ****         else
 658:.\Generated_Source\PSoC5/ADC_DelSig_1.c ****         {
 659:.\Generated_Source\PSoC5/ADC_DelSig_1.c ****             status = ADC_DelSig_1_DEC_SR_REG & ADC_DelSig_1_DEC_CONV_DONE;
ARM GAS  C:\Users\IVYLIU~1\AppData\Local\Temp\cckaBvwB.s 			page 13


 660:.\Generated_Source\PSoC5/ADC_DelSig_1.c ****         }
 661:.\Generated_Source\PSoC5/ADC_DelSig_1.c ****     }while((status != ADC_DelSig_1_DEC_CONV_DONE) && (retMode == ADC_DelSig_1_WAIT_FOR_RESULT));
 662:.\Generated_Source\PSoC5/ADC_DelSig_1.c **** 
 663:.\Generated_Source\PSoC5/ADC_DelSig_1.c ****     return(status);
 664:.\Generated_Source\PSoC5/ADC_DelSig_1.c **** }
 665:.\Generated_Source\PSoC5/ADC_DelSig_1.c **** 
 666:.\Generated_Source\PSoC5/ADC_DelSig_1.c **** 
 667:.\Generated_Source\PSoC5/ADC_DelSig_1.c **** /*******************************************************************************
 668:.\Generated_Source\PSoC5/ADC_DelSig_1.c **** * Function Name: ADC_DelSig_1_GetResult8
 669:.\Generated_Source\PSoC5/ADC_DelSig_1.c **** ********************************************************************************
 670:.\Generated_Source\PSoC5/ADC_DelSig_1.c **** *
 671:.\Generated_Source\PSoC5/ADC_DelSig_1.c **** * Summary:
 672:.\Generated_Source\PSoC5/ADC_DelSig_1.c **** *  This function returns the result of an 8-bit conversion. If the
 673:.\Generated_Source\PSoC5/ADC_DelSig_1.c **** *  resolution is set greater than 8-bits, the LSB of the result will be
 674:.\Generated_Source\PSoC5/ADC_DelSig_1.c **** *  returned. When the ADC is configured for 8-bit single ended mode,
 675:.\Generated_Source\PSoC5/ADC_DelSig_1.c **** *  the ADC_GetResult16() function should be used instead. This
 676:.\Generated_Source\PSoC5/ADC_DelSig_1.c **** *  function returns only signed 8-bit values. The maximum positive
 677:.\Generated_Source\PSoC5/ADC_DelSig_1.c **** *  signed 8-bit value is 127, but in singled ended 8-bit mode, the
 678:.\Generated_Source\PSoC5/ADC_DelSig_1.c **** *  maximum positive value is 255.
 679:.\Generated_Source\PSoC5/ADC_DelSig_1.c **** *
 680:.\Generated_Source\PSoC5/ADC_DelSig_1.c **** * Parameters:
 681:.\Generated_Source\PSoC5/ADC_DelSig_1.c **** *  None
 682:.\Generated_Source\PSoC5/ADC_DelSig_1.c **** *
 683:.\Generated_Source\PSoC5/ADC_DelSig_1.c **** * Return:
 684:.\Generated_Source\PSoC5/ADC_DelSig_1.c **** *  int8: The LSB of the last ADC conversion.
 685:.\Generated_Source\PSoC5/ADC_DelSig_1.c **** *
 686:.\Generated_Source\PSoC5/ADC_DelSig_1.c **** * Global variables:
 687:.\Generated_Source\PSoC5/ADC_DelSig_1.c **** *  ADC_DelSig_1_convDone:  Cleared in single sample mode with resolution
 688:.\Generated_Source\PSoC5/ADC_DelSig_1.c **** *                              above 16 bits
 689:.\Generated_Source\PSoC5/ADC_DelSig_1.c **** *
 690:.\Generated_Source\PSoC5/ADC_DelSig_1.c **** *******************************************************************************/
 691:.\Generated_Source\PSoC5/ADC_DelSig_1.c **** int8 ADC_DelSig_1_GetResult8( void ) 
 692:.\Generated_Source\PSoC5/ADC_DelSig_1.c **** {
 693:.\Generated_Source\PSoC5/ADC_DelSig_1.c ****     int8 result;
 694:.\Generated_Source\PSoC5/ADC_DelSig_1.c ****     uint8 coherency;
 695:.\Generated_Source\PSoC5/ADC_DelSig_1.c **** 
 696:.\Generated_Source\PSoC5/ADC_DelSig_1.c ****     /* Read active coherency configuration */
 697:.\Generated_Source\PSoC5/ADC_DelSig_1.c ****     coherency = ADC_DelSig_1_DEC_COHER_REG & ADC_DelSig_1_DEC_SAMP_KEY_MASK;
 698:.\Generated_Source\PSoC5/ADC_DelSig_1.c **** 
 699:.\Generated_Source\PSoC5/ADC_DelSig_1.c ****     result = (int8)ADC_DelSig_1_DEC_SAMP_REG;
 700:.\Generated_Source\PSoC5/ADC_DelSig_1.c **** 
 701:.\Generated_Source\PSoC5/ADC_DelSig_1.c ****     if(coherency == ADC_DelSig_1_DEC_SAMP_KEY_MID)
 702:.\Generated_Source\PSoC5/ADC_DelSig_1.c ****     {   /* Dummy read of the middle byte to unlock the coherency */
 703:.\Generated_Source\PSoC5/ADC_DelSig_1.c ****         (void)ADC_DelSig_1_DEC_SAMPM_REG;
 704:.\Generated_Source\PSoC5/ADC_DelSig_1.c ****     }
 705:.\Generated_Source\PSoC5/ADC_DelSig_1.c ****     else  if(coherency == ADC_DelSig_1_DEC_SAMP_KEY_HIGH)
 706:.\Generated_Source\PSoC5/ADC_DelSig_1.c ****     {   /* Dummy read of the MSB byte to unlock the coherency */
 707:.\Generated_Source\PSoC5/ADC_DelSig_1.c ****         (void)ADC_DelSig_1_DEC_SAMPH_REG;
 708:.\Generated_Source\PSoC5/ADC_DelSig_1.c ****     }
 709:.\Generated_Source\PSoC5/ADC_DelSig_1.c ****     else /*No action required for other coherency */
 710:.\Generated_Source\PSoC5/ADC_DelSig_1.c ****     {
 711:.\Generated_Source\PSoC5/ADC_DelSig_1.c ****     }
 712:.\Generated_Source\PSoC5/ADC_DelSig_1.c ****     /* Clear conversion complete status in Single Sample mode with resolution above 16 bit */
 713:.\Generated_Source\PSoC5/ADC_DelSig_1.c ****     if(ADC_DelSig_1_stopConversion != 0u)
 714:.\Generated_Source\PSoC5/ADC_DelSig_1.c ****     {
 715:.\Generated_Source\PSoC5/ADC_DelSig_1.c ****         ADC_DelSig_1_convDone = 0u;
 716:.\Generated_Source\PSoC5/ADC_DelSig_1.c ****     }
ARM GAS  C:\Users\IVYLIU~1\AppData\Local\Temp\cckaBvwB.s 			page 14


 717:.\Generated_Source\PSoC5/ADC_DelSig_1.c ****     return (result);
 718:.\Generated_Source\PSoC5/ADC_DelSig_1.c **** }
 719:.\Generated_Source\PSoC5/ADC_DelSig_1.c **** 
 720:.\Generated_Source\PSoC5/ADC_DelSig_1.c **** 
 721:.\Generated_Source\PSoC5/ADC_DelSig_1.c **** /*******************************************************************************
 722:.\Generated_Source\PSoC5/ADC_DelSig_1.c **** * Function Name: ADC_DelSig_1_GetResult16
 723:.\Generated_Source\PSoC5/ADC_DelSig_1.c **** ********************************************************************************
 724:.\Generated_Source\PSoC5/ADC_DelSig_1.c **** *
 725:.\Generated_Source\PSoC5/ADC_DelSig_1.c **** * Summary:
 726:.\Generated_Source\PSoC5/ADC_DelSig_1.c **** *  Returns a 16-bit result for a conversion with a result that has a
 727:.\Generated_Source\PSoC5/ADC_DelSig_1.c **** *  resolution of 8 to 16 bits. If the resolution is set greater than 16-bits,
 728:.\Generated_Source\PSoC5/ADC_DelSig_1.c **** *  it will return the 16 least significant bits of the result. When the ADC
 729:.\Generated_Source\PSoC5/ADC_DelSig_1.c **** *  is configured for 16-bit single ended mode, the ADC_GetResult32()
 730:.\Generated_Source\PSoC5/ADC_DelSig_1.c **** *  function should be used instead. This function returns only signed
 731:.\Generated_Source\PSoC5/ADC_DelSig_1.c **** *  16-bit result, which allows a maximum positive value of 32767, not 65535.
 732:.\Generated_Source\PSoC5/ADC_DelSig_1.c **** *  This function supports different coherency settings.
 733:.\Generated_Source\PSoC5/ADC_DelSig_1.c **** *
 734:.\Generated_Source\PSoC5/ADC_DelSig_1.c **** * Parameters:
 735:.\Generated_Source\PSoC5/ADC_DelSig_1.c **** *   void
 736:.\Generated_Source\PSoC5/ADC_DelSig_1.c **** *
 737:.\Generated_Source\PSoC5/ADC_DelSig_1.c **** * Return:
 738:.\Generated_Source\PSoC5/ADC_DelSig_1.c **** *  int16:  ADC result.
 739:.\Generated_Source\PSoC5/ADC_DelSig_1.c **** *
 740:.\Generated_Source\PSoC5/ADC_DelSig_1.c **** * Global variables:
 741:.\Generated_Source\PSoC5/ADC_DelSig_1.c **** *  ADC_DelSig_1_convDone:  Cleared in single sample mode with resolution
 742:.\Generated_Source\PSoC5/ADC_DelSig_1.c **** *                              above 16 bits
 743:.\Generated_Source\PSoC5/ADC_DelSig_1.c **** *
 744:.\Generated_Source\PSoC5/ADC_DelSig_1.c **** *******************************************************************************/
 745:.\Generated_Source\PSoC5/ADC_DelSig_1.c **** int16 ADC_DelSig_1_GetResult16(void) 
 746:.\Generated_Source\PSoC5/ADC_DelSig_1.c **** {
 747:.\Generated_Source\PSoC5/ADC_DelSig_1.c ****     uint16 result;
 748:.\Generated_Source\PSoC5/ADC_DelSig_1.c ****     uint8 coherency;
 749:.\Generated_Source\PSoC5/ADC_DelSig_1.c **** 
 750:.\Generated_Source\PSoC5/ADC_DelSig_1.c ****     /* Read active coherency configuration */
 751:.\Generated_Source\PSoC5/ADC_DelSig_1.c ****     coherency = ADC_DelSig_1_DEC_COHER_REG & ADC_DelSig_1_DEC_SAMP_KEY_MASK;
 752:.\Generated_Source\PSoC5/ADC_DelSig_1.c **** 
 753:.\Generated_Source\PSoC5/ADC_DelSig_1.c ****     if(coherency <= ADC_DelSig_1_DEC_SAMP_KEY_LOW)
 754:.\Generated_Source\PSoC5/ADC_DelSig_1.c ****     {   /*  Use default method to read result registers i.e. LSB byte read at the end*/
 755:.\Generated_Source\PSoC5/ADC_DelSig_1.c ****         #if (CY_PSOC3)
 756:.\Generated_Source\PSoC5/ADC_DelSig_1.c ****             result = ADC_DelSig_1_DEC_SAMPM_REG;
 757:.\Generated_Source\PSoC5/ADC_DelSig_1.c ****             result = (result << 8u) | ADC_DelSig_1_DEC_SAMP_REG;
 758:.\Generated_Source\PSoC5/ADC_DelSig_1.c ****         #else
 759:.\Generated_Source\PSoC5/ADC_DelSig_1.c ****             result = (CY_GET_REG16(ADC_DelSig_1_DEC_SAMP_16B_PTR));
 760:.\Generated_Source\PSoC5/ADC_DelSig_1.c ****         #endif /* CY_PSOC3 */
 761:.\Generated_Source\PSoC5/ADC_DelSig_1.c ****     }
 762:.\Generated_Source\PSoC5/ADC_DelSig_1.c ****     else /* MID or HIGH */
 763:.\Generated_Source\PSoC5/ADC_DelSig_1.c ****     {   /* Read middle byte at the end */
 764:.\Generated_Source\PSoC5/ADC_DelSig_1.c ****         #if (CY_PSOC3)
 765:.\Generated_Source\PSoC5/ADC_DelSig_1.c ****             result = (CY_GET_REG16(ADC_DelSig_1_DEC_SAMP_16B_PTR));
 766:.\Generated_Source\PSoC5/ADC_DelSig_1.c ****         #else
 767:.\Generated_Source\PSoC5/ADC_DelSig_1.c ****             result = ADC_DelSig_1_DEC_SAMP_REG;
 768:.\Generated_Source\PSoC5/ADC_DelSig_1.c ****             result |=  (uint16)((uint16)ADC_DelSig_1_DEC_SAMPM_REG << 8u);
 769:.\Generated_Source\PSoC5/ADC_DelSig_1.c ****         #endif /* CY_PSOC3 */
 770:.\Generated_Source\PSoC5/ADC_DelSig_1.c ****         if(coherency == ADC_DelSig_1_DEC_SAMP_KEY_HIGH)
 771:.\Generated_Source\PSoC5/ADC_DelSig_1.c ****         {   /* Dummy read of the MSB byte to unlock the coherency */
 772:.\Generated_Source\PSoC5/ADC_DelSig_1.c ****             (void)ADC_DelSig_1_DEC_SAMPH_REG;
 773:.\Generated_Source\PSoC5/ADC_DelSig_1.c ****         }
ARM GAS  C:\Users\IVYLIU~1\AppData\Local\Temp\cckaBvwB.s 			page 15


 774:.\Generated_Source\PSoC5/ADC_DelSig_1.c ****     }
 775:.\Generated_Source\PSoC5/ADC_DelSig_1.c ****     /* Clear conversion complete status in Single Sample mode with resolution above 16 bit */
 776:.\Generated_Source\PSoC5/ADC_DelSig_1.c ****     if(ADC_DelSig_1_stopConversion != 0u)
 777:.\Generated_Source\PSoC5/ADC_DelSig_1.c ****     {
 778:.\Generated_Source\PSoC5/ADC_DelSig_1.c ****         ADC_DelSig_1_convDone = 0u;
 779:.\Generated_Source\PSoC5/ADC_DelSig_1.c ****     }
 780:.\Generated_Source\PSoC5/ADC_DelSig_1.c **** 
 781:.\Generated_Source\PSoC5/ADC_DelSig_1.c ****     return ((int16)result);
 782:.\Generated_Source\PSoC5/ADC_DelSig_1.c **** }
 783:.\Generated_Source\PSoC5/ADC_DelSig_1.c **** 
 784:.\Generated_Source\PSoC5/ADC_DelSig_1.c **** 
 785:.\Generated_Source\PSoC5/ADC_DelSig_1.c **** /*******************************************************************************
 786:.\Generated_Source\PSoC5/ADC_DelSig_1.c **** * Function Name: ADC_DelSig_1_GetResult32
 787:.\Generated_Source\PSoC5/ADC_DelSig_1.c **** ********************************************************************************
 788:.\Generated_Source\PSoC5/ADC_DelSig_1.c **** *
 789:.\Generated_Source\PSoC5/ADC_DelSig_1.c **** * Summary:
 790:.\Generated_Source\PSoC5/ADC_DelSig_1.c **** *  Returns a 32-bit result for a conversion with a result that has a
 791:.\Generated_Source\PSoC5/ADC_DelSig_1.c **** *  resolution of 8 to 20 bits.
 792:.\Generated_Source\PSoC5/ADC_DelSig_1.c **** *  This function supports different coherency settings.
 793:.\Generated_Source\PSoC5/ADC_DelSig_1.c **** *
 794:.\Generated_Source\PSoC5/ADC_DelSig_1.c **** * Parameters:
 795:.\Generated_Source\PSoC5/ADC_DelSig_1.c **** *  None
 796:.\Generated_Source\PSoC5/ADC_DelSig_1.c **** *
 797:.\Generated_Source\PSoC5/ADC_DelSig_1.c **** * Return:
 798:.\Generated_Source\PSoC5/ADC_DelSig_1.c **** *  int32: Result of the last ADC conversion.
 799:.\Generated_Source\PSoC5/ADC_DelSig_1.c **** *
 800:.\Generated_Source\PSoC5/ADC_DelSig_1.c **** * Global variables:
 801:.\Generated_Source\PSoC5/ADC_DelSig_1.c **** *  ADC_DelSig_1_convDone:  Cleared in single sample mode with resolution
 802:.\Generated_Source\PSoC5/ADC_DelSig_1.c **** *                              above 16 bits
 803:.\Generated_Source\PSoC5/ADC_DelSig_1.c **** *
 804:.\Generated_Source\PSoC5/ADC_DelSig_1.c **** *******************************************************************************/
 805:.\Generated_Source\PSoC5/ADC_DelSig_1.c **** int32 ADC_DelSig_1_GetResult32(void) 
 806:.\Generated_Source\PSoC5/ADC_DelSig_1.c **** {
 807:.\Generated_Source\PSoC5/ADC_DelSig_1.c ****     uint32 result;
 808:.\Generated_Source\PSoC5/ADC_DelSig_1.c ****     uint8 coherency;
 809:.\Generated_Source\PSoC5/ADC_DelSig_1.c ****     #if (CY_PSOC3)
 810:.\Generated_Source\PSoC5/ADC_DelSig_1.c **** 	    uint16 tmp;
 811:.\Generated_Source\PSoC5/ADC_DelSig_1.c ****     #endif /* CY_PSOC3 */
 812:.\Generated_Source\PSoC5/ADC_DelSig_1.c **** 
 813:.\Generated_Source\PSoC5/ADC_DelSig_1.c ****     /* Read active coherency configuration */
 814:.\Generated_Source\PSoC5/ADC_DelSig_1.c ****     coherency = ADC_DelSig_1_DEC_COHER_REG & ADC_DelSig_1_DEC_SAMP_KEY_MASK;
 815:.\Generated_Source\PSoC5/ADC_DelSig_1.c **** 
 816:.\Generated_Source\PSoC5/ADC_DelSig_1.c ****     if(coherency <= ADC_DelSig_1_DEC_SAMP_KEY_LOW)
 817:.\Generated_Source\PSoC5/ADC_DelSig_1.c ****     {   /*  Use default method to read result registers i.e. LSB byte read at the end*/
 818:.\Generated_Source\PSoC5/ADC_DelSig_1.c ****         #if (CY_PSOC3)
 819:.\Generated_Source\PSoC5/ADC_DelSig_1.c ****             result = ADC_DelSig_1_DEC_SAMPH_REG;
 820:.\Generated_Source\PSoC5/ADC_DelSig_1.c ****             if((result & 0x80u) != 0u)
 821:.\Generated_Source\PSoC5/ADC_DelSig_1.c ****             {   /* Sign extend */
 822:.\Generated_Source\PSoC5/ADC_DelSig_1.c ****                 result |= 0xFF00u;
 823:.\Generated_Source\PSoC5/ADC_DelSig_1.c ****             }
 824:.\Generated_Source\PSoC5/ADC_DelSig_1.c ****             result = (result << 8u) | ADC_DelSig_1_DEC_SAMPM_REG;
 825:.\Generated_Source\PSoC5/ADC_DelSig_1.c ****             result = (result << 8u) | ADC_DelSig_1_DEC_SAMP_REG;
 826:.\Generated_Source\PSoC5/ADC_DelSig_1.c ****         #else
 827:.\Generated_Source\PSoC5/ADC_DelSig_1.c ****             result = CY_GET_REG16(ADC_DelSig_1_DEC_SAMPH_16B_PTR);
 828:.\Generated_Source\PSoC5/ADC_DelSig_1.c ****             result = (result << 16u) | (CY_GET_REG16(ADC_DelSig_1_DEC_SAMP_16B_PTR));
 829:.\Generated_Source\PSoC5/ADC_DelSig_1.c ****         #endif /* CY_PSOC3 */
 830:.\Generated_Source\PSoC5/ADC_DelSig_1.c ****     }
ARM GAS  C:\Users\IVYLIU~1\AppData\Local\Temp\cckaBvwB.s 			page 16


 831:.\Generated_Source\PSoC5/ADC_DelSig_1.c ****     else if(coherency == ADC_DelSig_1_DEC_SAMP_KEY_MID)
 832:.\Generated_Source\PSoC5/ADC_DelSig_1.c ****     {   /* Read middle byte at the end */
 833:.\Generated_Source\PSoC5/ADC_DelSig_1.c ****         #if (CY_PSOC3)
 834:.\Generated_Source\PSoC5/ADC_DelSig_1.c ****             result = ADC_DelSig_1_DEC_SAMPH_REG;
 835:.\Generated_Source\PSoC5/ADC_DelSig_1.c ****             if((result & 0x80u) != 0u)
 836:.\Generated_Source\PSoC5/ADC_DelSig_1.c ****             {   /* Sign extend */
 837:.\Generated_Source\PSoC5/ADC_DelSig_1.c ****                 result |= 0xFF00u;
 838:.\Generated_Source\PSoC5/ADC_DelSig_1.c ****             }
 839:.\Generated_Source\PSoC5/ADC_DelSig_1.c ****             result = (result << 16u) | (CY_GET_REG16(ADC_DelSig_1_DEC_SAMP_16B_PTR));
 840:.\Generated_Source\PSoC5/ADC_DelSig_1.c ****         #else
 841:.\Generated_Source\PSoC5/ADC_DelSig_1.c ****             result = CY_GET_REG16(ADC_DelSig_1_DEC_SAMPH_16B_PTR);
 842:.\Generated_Source\PSoC5/ADC_DelSig_1.c ****             result = (result << 16u) | ADC_DelSig_1_DEC_SAMP_REG;
 843:.\Generated_Source\PSoC5/ADC_DelSig_1.c ****             result |=  (uint32)((uint32)ADC_DelSig_1_DEC_SAMPM_REG << 8u);
 844:.\Generated_Source\PSoC5/ADC_DelSig_1.c ****         #endif /* CY_PSOC3 */
 845:.\Generated_Source\PSoC5/ADC_DelSig_1.c ****     }
 846:.\Generated_Source\PSoC5/ADC_DelSig_1.c ****     else /*ADC_DelSig_1_DEC_SAMP_KEY_HIGH */
 847:.\Generated_Source\PSoC5/ADC_DelSig_1.c ****     {
 848:.\Generated_Source\PSoC5/ADC_DelSig_1.c ****         /* Read MSB byte at the end */
 849:.\Generated_Source\PSoC5/ADC_DelSig_1.c ****         #if (CY_PSOC3)
 850:.\Generated_Source\PSoC5/ADC_DelSig_1.c ****             result = CY_GET_REG16(ADC_DelSig_1_DEC_SAMP_16B_PTR);
 851:.\Generated_Source\PSoC5/ADC_DelSig_1.c **** 			tmp = ADC_DelSig_1_DEC_SAMPH_REG;
 852:.\Generated_Source\PSoC5/ADC_DelSig_1.c ****             if((tmp & 0x80u) != 0u)
 853:.\Generated_Source\PSoC5/ADC_DelSig_1.c ****             {   /* Sign extend */
 854:.\Generated_Source\PSoC5/ADC_DelSig_1.c ****                 tmp |= 0xFF00u;
 855:.\Generated_Source\PSoC5/ADC_DelSig_1.c ****             }
 856:.\Generated_Source\PSoC5/ADC_DelSig_1.c ****             result |= (uint32)tmp << 16u;
 857:.\Generated_Source\PSoC5/ADC_DelSig_1.c ****         #else
 858:.\Generated_Source\PSoC5/ADC_DelSig_1.c ****             result = CY_GET_REG16(ADC_DelSig_1_DEC_SAMP_16B_PTR);
 859:.\Generated_Source\PSoC5/ADC_DelSig_1.c ****             result |= (uint32)((uint32)CY_GET_REG16(ADC_DelSig_1_DEC_SAMPH_16B_PTR) << 16u);
 860:.\Generated_Source\PSoC5/ADC_DelSig_1.c ****         #endif /* CY_PSOC3 */
 861:.\Generated_Source\PSoC5/ADC_DelSig_1.c ****     }
 862:.\Generated_Source\PSoC5/ADC_DelSig_1.c ****     /* Clear conversion complete status in Single Sample mode with resolution above 16 bit */
 863:.\Generated_Source\PSoC5/ADC_DelSig_1.c ****     if(ADC_DelSig_1_stopConversion != 0u)
 864:.\Generated_Source\PSoC5/ADC_DelSig_1.c ****     {
 865:.\Generated_Source\PSoC5/ADC_DelSig_1.c ****         ADC_DelSig_1_convDone = 0u;
 866:.\Generated_Source\PSoC5/ADC_DelSig_1.c ****     }
 867:.\Generated_Source\PSoC5/ADC_DelSig_1.c **** 
 868:.\Generated_Source\PSoC5/ADC_DelSig_1.c ****     return ((int32)result);
 869:.\Generated_Source\PSoC5/ADC_DelSig_1.c **** }
 870:.\Generated_Source\PSoC5/ADC_DelSig_1.c **** 
 871:.\Generated_Source\PSoC5/ADC_DelSig_1.c **** 
 872:.\Generated_Source\PSoC5/ADC_DelSig_1.c **** /*******************************************************************************
 873:.\Generated_Source\PSoC5/ADC_DelSig_1.c **** * Function Name: ADC_DelSig_1_SetOffset
 874:.\Generated_Source\PSoC5/ADC_DelSig_1.c **** ********************************************************************************
 875:.\Generated_Source\PSoC5/ADC_DelSig_1.c **** *
 876:.\Generated_Source\PSoC5/ADC_DelSig_1.c **** * Summary:
 877:.\Generated_Source\PSoC5/ADC_DelSig_1.c **** *  Sets the ADC offset which is used by the functions ADC_CountsTo_uVolts, 
 878:.\Generated_Source\PSoC5/ADC_DelSig_1.c **** *  ADC_CountsTo_mVolts, and ADC_CountsTo_Volts to subtract the offset from the 
 879:.\Generated_Source\PSoC5/ADC_DelSig_1.c **** *  given reading before calculating the voltage conversion.
 880:.\Generated_Source\PSoC5/ADC_DelSig_1.c **** *
 881:.\Generated_Source\PSoC5/ADC_DelSig_1.c **** * Parameters:
 882:.\Generated_Source\PSoC5/ADC_DelSig_1.c **** *  int32:  This value is a measured value when the inputs are shorted or 
 883:.\Generated_Source\PSoC5/ADC_DelSig_1.c **** *          connected to the same input voltage.
 884:.\Generated_Source\PSoC5/ADC_DelSig_1.c **** *
 885:.\Generated_Source\PSoC5/ADC_DelSig_1.c **** * Return:
 886:.\Generated_Source\PSoC5/ADC_DelSig_1.c **** *  None
 887:.\Generated_Source\PSoC5/ADC_DelSig_1.c **** *
ARM GAS  C:\Users\IVYLIU~1\AppData\Local\Temp\cckaBvwB.s 			page 17


 888:.\Generated_Source\PSoC5/ADC_DelSig_1.c **** * Global variables:
 889:.\Generated_Source\PSoC5/ADC_DelSig_1.c **** *  ADC_DelSig_1_Offset:  Modified to set the user provided offset. This
 890:.\Generated_Source\PSoC5/ADC_DelSig_1.c **** *  variable is used for offset calibration purpose.
 891:.\Generated_Source\PSoC5/ADC_DelSig_1.c **** *
 892:.\Generated_Source\PSoC5/ADC_DelSig_1.c **** * Side Effects:
 893:.\Generated_Source\PSoC5/ADC_DelSig_1.c **** *  Affects the ADC_DelSig_1_CountsTo_Volts,
 894:.\Generated_Source\PSoC5/ADC_DelSig_1.c **** *  ADC_DelSig_1_CountsTo_mVolts, ADC_DelSig_1_CountsTo_uVolts functions
 895:.\Generated_Source\PSoC5/ADC_DelSig_1.c **** *  by subtracting the given offset.
 896:.\Generated_Source\PSoC5/ADC_DelSig_1.c **** *
 897:.\Generated_Source\PSoC5/ADC_DelSig_1.c **** *******************************************************************************/
 898:.\Generated_Source\PSoC5/ADC_DelSig_1.c **** void ADC_DelSig_1_SetOffset(int32 offset) 
 899:.\Generated_Source\PSoC5/ADC_DelSig_1.c **** {
 900:.\Generated_Source\PSoC5/ADC_DelSig_1.c **** 
 901:.\Generated_Source\PSoC5/ADC_DelSig_1.c ****     ADC_DelSig_1_Offset = offset;
 902:.\Generated_Source\PSoC5/ADC_DelSig_1.c **** }
 903:.\Generated_Source\PSoC5/ADC_DelSig_1.c **** 
 904:.\Generated_Source\PSoC5/ADC_DelSig_1.c **** 
 905:.\Generated_Source\PSoC5/ADC_DelSig_1.c **** /*******************************************************************************
 906:.\Generated_Source\PSoC5/ADC_DelSig_1.c **** * Function Name: ADC_DelSig_1_SetGain
 907:.\Generated_Source\PSoC5/ADC_DelSig_1.c **** ********************************************************************************
 908:.\Generated_Source\PSoC5/ADC_DelSig_1.c **** *
 909:.\Generated_Source\PSoC5/ADC_DelSig_1.c **** * Summary:
 910:.\Generated_Source\PSoC5/ADC_DelSig_1.c **** *  Sets the ADC gain in counts per volt for the voltage conversion
 911:.\Generated_Source\PSoC5/ADC_DelSig_1.c **** *  functions below. This value is set by default by the reference and
 912:.\Generated_Source\PSoC5/ADC_DelSig_1.c **** *  input range settings. It should only be used to further calibrate the
 913:.\Generated_Source\PSoC5/ADC_DelSig_1.c **** *  ADC with a known input or if an external reference is used. This
 914:.\Generated_Source\PSoC5/ADC_DelSig_1.c **** *  function may also be used to calibrate an entire signal chain, not
 915:.\Generated_Source\PSoC5/ADC_DelSig_1.c **** *  just the ADC.
 916:.\Generated_Source\PSoC5/ADC_DelSig_1.c **** *
 917:.\Generated_Source\PSoC5/ADC_DelSig_1.c **** * Parameters:
 918:.\Generated_Source\PSoC5/ADC_DelSig_1.c **** *  int32: ADC gain in counts per volt.
 919:.\Generated_Source\PSoC5/ADC_DelSig_1.c **** *
 920:.\Generated_Source\PSoC5/ADC_DelSig_1.c **** * Return:
 921:.\Generated_Source\PSoC5/ADC_DelSig_1.c **** *  None
 922:.\Generated_Source\PSoC5/ADC_DelSig_1.c **** *
 923:.\Generated_Source\PSoC5/ADC_DelSig_1.c **** * Global variables:
 924:.\Generated_Source\PSoC5/ADC_DelSig_1.c **** *  ADC_DelSig_1_CountsPerVolt:  modified to set the ADC gain in counts
 925:.\Generated_Source\PSoC5/ADC_DelSig_1.c **** *   per volt.
 926:.\Generated_Source\PSoC5/ADC_DelSig_1.c **** *
 927:.\Generated_Source\PSoC5/ADC_DelSig_1.c **** * Side Effects:
 928:.\Generated_Source\PSoC5/ADC_DelSig_1.c **** *  Affects the ADC_DelSig_1_CountsTo_Volts,
 929:.\Generated_Source\PSoC5/ADC_DelSig_1.c **** *  ADC_DelSig_1_CountsTo_mVolts, ADC_DelSig_1_CountsTo_uVolts functions
 930:.\Generated_Source\PSoC5/ADC_DelSig_1.c **** *  supplying the correct conversion between ADC counts and voltage.
 931:.\Generated_Source\PSoC5/ADC_DelSig_1.c **** *
 932:.\Generated_Source\PSoC5/ADC_DelSig_1.c **** *******************************************************************************/
 933:.\Generated_Source\PSoC5/ADC_DelSig_1.c **** void ADC_DelSig_1_SetGain(int32 adcGain) 
 934:.\Generated_Source\PSoC5/ADC_DelSig_1.c **** {
 935:.\Generated_Source\PSoC5/ADC_DelSig_1.c ****     ADC_DelSig_1_CountsPerVolt = adcGain;
 936:.\Generated_Source\PSoC5/ADC_DelSig_1.c **** }
 937:.\Generated_Source\PSoC5/ADC_DelSig_1.c **** 
 938:.\Generated_Source\PSoC5/ADC_DelSig_1.c **** 
 939:.\Generated_Source\PSoC5/ADC_DelSig_1.c **** /*******************************************************************************
 940:.\Generated_Source\PSoC5/ADC_DelSig_1.c **** * Function Name: ADC_DelSig_1_CountsTo_mVolts
 941:.\Generated_Source\PSoC5/ADC_DelSig_1.c **** ********************************************************************************
 942:.\Generated_Source\PSoC5/ADC_DelSig_1.c **** *
 943:.\Generated_Source\PSoC5/ADC_DelSig_1.c **** * Summary:
 944:.\Generated_Source\PSoC5/ADC_DelSig_1.c **** *  Converts the ADC counts output to mVolts as a 16-bit integer. For
ARM GAS  C:\Users\IVYLIU~1\AppData\Local\Temp\cckaBvwB.s 			page 18


 945:.\Generated_Source\PSoC5/ADC_DelSig_1.c **** *  example, if the ADC measured 0.534 volts, the return value would
 946:.\Generated_Source\PSoC5/ADC_DelSig_1.c **** *  be 534 mVolts.
 947:.\Generated_Source\PSoC5/ADC_DelSig_1.c **** *
 948:.\Generated_Source\PSoC5/ADC_DelSig_1.c **** * Parameters:
 949:.\Generated_Source\PSoC5/ADC_DelSig_1.c **** *  int32: adcCounts Result from the ADC conversion.
 950:.\Generated_Source\PSoC5/ADC_DelSig_1.c **** *
 951:.\Generated_Source\PSoC5/ADC_DelSig_1.c **** * Return:
 952:.\Generated_Source\PSoC5/ADC_DelSig_1.c **** *  int16:  Result in mVolts
 953:.\Generated_Source\PSoC5/ADC_DelSig_1.c **** *
 954:.\Generated_Source\PSoC5/ADC_DelSig_1.c **** * Global variables:
 955:.\Generated_Source\PSoC5/ADC_DelSig_1.c **** *  ADC_DelSig_1_CountsPerVolt:  used to convert ADC counts to mVolts.
 956:.\Generated_Source\PSoC5/ADC_DelSig_1.c **** *  ADC_DelSig_1_Offset:  Used as the offset while converting ADC counts
 957:.\Generated_Source\PSoC5/ADC_DelSig_1.c **** *   to mVolts.
 958:.\Generated_Source\PSoC5/ADC_DelSig_1.c **** *
 959:.\Generated_Source\PSoC5/ADC_DelSig_1.c **** *******************************************************************************/
 960:.\Generated_Source\PSoC5/ADC_DelSig_1.c **** int16 ADC_DelSig_1_CountsTo_mVolts(int32 adcCounts) 
 961:.\Generated_Source\PSoC5/ADC_DelSig_1.c **** {
 962:.\Generated_Source\PSoC5/ADC_DelSig_1.c **** 
 963:.\Generated_Source\PSoC5/ADC_DelSig_1.c ****     int16 mVolts;
 964:.\Generated_Source\PSoC5/ADC_DelSig_1.c **** 
 965:.\Generated_Source\PSoC5/ADC_DelSig_1.c ****     /* Convert adcCounts to the right align if left option selected */
 966:.\Generated_Source\PSoC5/ADC_DelSig_1.c ****     #if(ADC_DelSig_1_CFG1_DEC_DIV != 0)
 967:.\Generated_Source\PSoC5/ADC_DelSig_1.c ****         if(ADC_DelSig_1_Config == ADC_DelSig_1_CFG1)
 968:.\Generated_Source\PSoC5/ADC_DelSig_1.c ****         {
 969:.\Generated_Source\PSoC5/ADC_DelSig_1.c ****             adcCounts /= ADC_DelSig_1_CFG1_DEC_DIV;
 970:.\Generated_Source\PSoC5/ADC_DelSig_1.c ****         }
 971:.\Generated_Source\PSoC5/ADC_DelSig_1.c ****     #endif /* ADC_DelSig_1_CFG1_DEC_DIV */
 972:.\Generated_Source\PSoC5/ADC_DelSig_1.c ****     #if((ADC_DelSig_1_CFG2_DEC_DIV != 0) && (ADC_DelSig_1_DEFAULT_NUM_CONFIGS > 1))
 973:.\Generated_Source\PSoC5/ADC_DelSig_1.c ****         if(ADC_DelSig_1_Config == ADC_DelSig_1_CFG2)
 974:.\Generated_Source\PSoC5/ADC_DelSig_1.c ****         {
 975:.\Generated_Source\PSoC5/ADC_DelSig_1.c ****             adcCounts /= ADC_DelSig_1_CFG2_DEC_DIV;
 976:.\Generated_Source\PSoC5/ADC_DelSig_1.c ****         }
 977:.\Generated_Source\PSoC5/ADC_DelSig_1.c ****     #endif /* ADC_DelSig_1_CFG2_DEC_DIV */
 978:.\Generated_Source\PSoC5/ADC_DelSig_1.c ****     #if((ADC_DelSig_1_CFG3_DEC_DIV != 0) && (ADC_DelSig_1_DEFAULT_NUM_CONFIGS > 2))
 979:.\Generated_Source\PSoC5/ADC_DelSig_1.c ****         if(ADC_DelSig_1_Config == ADC_DelSig_1_CFG3)
 980:.\Generated_Source\PSoC5/ADC_DelSig_1.c ****         {
 981:.\Generated_Source\PSoC5/ADC_DelSig_1.c ****             adcCounts /= ADC_DelSig_1_CFG3_DEC_DIV;
 982:.\Generated_Source\PSoC5/ADC_DelSig_1.c ****         }
 983:.\Generated_Source\PSoC5/ADC_DelSig_1.c ****     #endif /* ADC_DelSig_1_CFG2_DEC_DIV */
 984:.\Generated_Source\PSoC5/ADC_DelSig_1.c ****     #if((ADC_DelSig_1_CFG4_DEC_DIV != 0) && (ADC_DelSig_1_DEFAULT_NUM_CONFIGS > 3))
 985:.\Generated_Source\PSoC5/ADC_DelSig_1.c ****         if(ADC_DelSig_1_Config == ADC_DelSig_1_CFG4)
 986:.\Generated_Source\PSoC5/ADC_DelSig_1.c ****         {
 987:.\Generated_Source\PSoC5/ADC_DelSig_1.c ****             adcCounts /= ADC_DelSig_1_CFG4_DEC_DIV;
 988:.\Generated_Source\PSoC5/ADC_DelSig_1.c ****         }
 989:.\Generated_Source\PSoC5/ADC_DelSig_1.c ****     #endif /* ADC_DelSig_1_CFG2_DEC_DIV */
 990:.\Generated_Source\PSoC5/ADC_DelSig_1.c **** 
 991:.\Generated_Source\PSoC5/ADC_DelSig_1.c ****     /* Subtract ADC offset */
 992:.\Generated_Source\PSoC5/ADC_DelSig_1.c ****     adcCounts -= ADC_DelSig_1_Offset;
 993:.\Generated_Source\PSoC5/ADC_DelSig_1.c **** 
 994:.\Generated_Source\PSoC5/ADC_DelSig_1.c ****     mVolts = (int16)(( adcCounts * ADC_DelSig_1_1MV_COUNTS ) / ADC_DelSig_1_CountsPerVolt) ;
 995:.\Generated_Source\PSoC5/ADC_DelSig_1.c **** 
 996:.\Generated_Source\PSoC5/ADC_DelSig_1.c ****     return(mVolts);
 997:.\Generated_Source\PSoC5/ADC_DelSig_1.c **** }
 998:.\Generated_Source\PSoC5/ADC_DelSig_1.c **** 
 999:.\Generated_Source\PSoC5/ADC_DelSig_1.c **** 
1000:.\Generated_Source\PSoC5/ADC_DelSig_1.c **** /*******************************************************************************
1001:.\Generated_Source\PSoC5/ADC_DelSig_1.c **** * Function Name: ADC_DelSig_1_CountsTo_Volts
ARM GAS  C:\Users\IVYLIU~1\AppData\Local\Temp\cckaBvwB.s 			page 19


1002:.\Generated_Source\PSoC5/ADC_DelSig_1.c **** ********************************************************************************
1003:.\Generated_Source\PSoC5/ADC_DelSig_1.c **** *
1004:.\Generated_Source\PSoC5/ADC_DelSig_1.c **** * Summary:
1005:.\Generated_Source\PSoC5/ADC_DelSig_1.c **** *  Converts the ADC output to Volts as a floating point number. For
1006:.\Generated_Source\PSoC5/ADC_DelSig_1.c **** *  example, if the ADC measure a voltage of 1.2345 Volts, the
1007:.\Generated_Source\PSoC5/ADC_DelSig_1.c **** *  returned result would be +1.2345 Volts.
1008:.\Generated_Source\PSoC5/ADC_DelSig_1.c **** *
1009:.\Generated_Source\PSoC5/ADC_DelSig_1.c **** * Parameters:
1010:.\Generated_Source\PSoC5/ADC_DelSig_1.c **** *  int32 adcCounts:  Result from the ADC conversion.
1011:.\Generated_Source\PSoC5/ADC_DelSig_1.c **** *
1012:.\Generated_Source\PSoC5/ADC_DelSig_1.c **** * Return:
1013:.\Generated_Source\PSoC5/ADC_DelSig_1.c **** *  float32: Result in Volts
1014:.\Generated_Source\PSoC5/ADC_DelSig_1.c **** *
1015:.\Generated_Source\PSoC5/ADC_DelSig_1.c **** * Global variables:
1016:.\Generated_Source\PSoC5/ADC_DelSig_1.c **** *  ADC_DelSig_1_CountsPerVolt:  used to convert to Volts.
1017:.\Generated_Source\PSoC5/ADC_DelSig_1.c **** *  ADC_DelSig_1_Offset:  Used as the offset while converting ADC counts
1018:.\Generated_Source\PSoC5/ADC_DelSig_1.c **** *   to Volts.
1019:.\Generated_Source\PSoC5/ADC_DelSig_1.c **** *
1020:.\Generated_Source\PSoC5/ADC_DelSig_1.c **** *******************************************************************************/
1021:.\Generated_Source\PSoC5/ADC_DelSig_1.c **** float32 ADC_DelSig_1_CountsTo_Volts(int32 adcCounts) 
1022:.\Generated_Source\PSoC5/ADC_DelSig_1.c **** {
1023:.\Generated_Source\PSoC5/ADC_DelSig_1.c **** 
1024:.\Generated_Source\PSoC5/ADC_DelSig_1.c ****     float32 Volts;
1025:.\Generated_Source\PSoC5/ADC_DelSig_1.c **** 
1026:.\Generated_Source\PSoC5/ADC_DelSig_1.c ****     /* Convert adcCounts to the right align if left option selected */
1027:.\Generated_Source\PSoC5/ADC_DelSig_1.c ****     #if(ADC_DelSig_1_CFG1_DEC_DIV != 0)
1028:.\Generated_Source\PSoC5/ADC_DelSig_1.c ****         if(ADC_DelSig_1_Config == ADC_DelSig_1_CFG1)
1029:.\Generated_Source\PSoC5/ADC_DelSig_1.c ****         {
1030:.\Generated_Source\PSoC5/ADC_DelSig_1.c ****             adcCounts /= ADC_DelSig_1_CFG1_DEC_DIV;
1031:.\Generated_Source\PSoC5/ADC_DelSig_1.c ****         }
1032:.\Generated_Source\PSoC5/ADC_DelSig_1.c ****     #endif /* ADC_DelSig_1_CFG1_DEC_DIV */
1033:.\Generated_Source\PSoC5/ADC_DelSig_1.c ****     #if((ADC_DelSig_1_CFG2_DEC_DIV != 0) && (ADC_DelSig_1_DEFAULT_NUM_CONFIGS > 1))
1034:.\Generated_Source\PSoC5/ADC_DelSig_1.c ****         if(ADC_DelSig_1_Config == ADC_DelSig_1_CFG2)
1035:.\Generated_Source\PSoC5/ADC_DelSig_1.c ****         {
1036:.\Generated_Source\PSoC5/ADC_DelSig_1.c ****             adcCounts /= ADC_DelSig_1_CFG2_DEC_DIV;
1037:.\Generated_Source\PSoC5/ADC_DelSig_1.c ****         }
1038:.\Generated_Source\PSoC5/ADC_DelSig_1.c ****     #endif /* ADC_DelSig_1_CFG2_DEC_DIV */
1039:.\Generated_Source\PSoC5/ADC_DelSig_1.c ****     #if((ADC_DelSig_1_CFG3_DEC_DIV != 0) && (ADC_DelSig_1_DEFAULT_NUM_CONFIGS > 2))
1040:.\Generated_Source\PSoC5/ADC_DelSig_1.c ****         if(ADC_DelSig_1_Config == ADC_DelSig_1_CFG3)
1041:.\Generated_Source\PSoC5/ADC_DelSig_1.c ****         {
1042:.\Generated_Source\PSoC5/ADC_DelSig_1.c ****             adcCounts /= ADC_DelSig_1_CFG3_DEC_DIV;
1043:.\Generated_Source\PSoC5/ADC_DelSig_1.c ****         }
1044:.\Generated_Source\PSoC5/ADC_DelSig_1.c ****     #endif /* ADC_DelSig_1_CFG2_DEC_DIV */
1045:.\Generated_Source\PSoC5/ADC_DelSig_1.c ****     #if((ADC_DelSig_1_CFG4_DEC_DIV != 0) && (ADC_DelSig_1_DEFAULT_NUM_CONFIGS > 3))
1046:.\Generated_Source\PSoC5/ADC_DelSig_1.c ****         if(ADC_DelSig_1_Config == ADC_DelSig_1_CFG4)
1047:.\Generated_Source\PSoC5/ADC_DelSig_1.c ****         {
1048:.\Generated_Source\PSoC5/ADC_DelSig_1.c ****             adcCounts /= ADC_DelSig_1_CFG4_DEC_DIV;
1049:.\Generated_Source\PSoC5/ADC_DelSig_1.c ****         }
1050:.\Generated_Source\PSoC5/ADC_DelSig_1.c ****     #endif /* ADC_DelSig_1_CFG2_DEC_DIV */
1051:.\Generated_Source\PSoC5/ADC_DelSig_1.c **** 
1052:.\Generated_Source\PSoC5/ADC_DelSig_1.c ****     /* Subtract ADC offset */
1053:.\Generated_Source\PSoC5/ADC_DelSig_1.c ****     adcCounts -= ADC_DelSig_1_Offset;
1054:.\Generated_Source\PSoC5/ADC_DelSig_1.c **** 
1055:.\Generated_Source\PSoC5/ADC_DelSig_1.c ****     Volts = (float32)adcCounts / (float32)ADC_DelSig_1_CountsPerVolt;
1056:.\Generated_Source\PSoC5/ADC_DelSig_1.c **** 
1057:.\Generated_Source\PSoC5/ADC_DelSig_1.c ****     return( Volts );
1058:.\Generated_Source\PSoC5/ADC_DelSig_1.c **** }
ARM GAS  C:\Users\IVYLIU~1\AppData\Local\Temp\cckaBvwB.s 			page 20


1059:.\Generated_Source\PSoC5/ADC_DelSig_1.c **** 
1060:.\Generated_Source\PSoC5/ADC_DelSig_1.c **** 
1061:.\Generated_Source\PSoC5/ADC_DelSig_1.c **** /*******************************************************************************
1062:.\Generated_Source\PSoC5/ADC_DelSig_1.c **** * Function Name: ADC_DelSig_1_CountsTo_uVolts
1063:.\Generated_Source\PSoC5/ADC_DelSig_1.c **** ********************************************************************************
1064:.\Generated_Source\PSoC5/ADC_DelSig_1.c **** *
1065:.\Generated_Source\PSoC5/ADC_DelSig_1.c **** * Summary:
1066:.\Generated_Source\PSoC5/ADC_DelSig_1.c **** *  Converts the ADC output to uVolts as a 32-bit integer. For example,
1067:.\Generated_Source\PSoC5/ADC_DelSig_1.c **** *  if the ADC measured -0.02345 Volts, the return value would be -23450 uVolts.
1068:.\Generated_Source\PSoC5/ADC_DelSig_1.c **** *
1069:.\Generated_Source\PSoC5/ADC_DelSig_1.c **** * Parameters:
1070:.\Generated_Source\PSoC5/ADC_DelSig_1.c **** *  int32 adcCounts: Result from the ADC conversion.
1071:.\Generated_Source\PSoC5/ADC_DelSig_1.c **** *
1072:.\Generated_Source\PSoC5/ADC_DelSig_1.c **** * Return:
1073:.\Generated_Source\PSoC5/ADC_DelSig_1.c **** *  int32:  Result in uVolts
1074:.\Generated_Source\PSoC5/ADC_DelSig_1.c **** *
1075:.\Generated_Source\PSoC5/ADC_DelSig_1.c **** * Global variables:
1076:.\Generated_Source\PSoC5/ADC_DelSig_1.c **** *  ADC_DelSig_1_CountsPerVolt:  used to convert ADC counts to mVolts.
1077:.\Generated_Source\PSoC5/ADC_DelSig_1.c **** *  ADC_DelSig_1_Offset:  Used as the offset while converting ADC counts
1078:.\Generated_Source\PSoC5/ADC_DelSig_1.c **** *   to mVolts.
1079:.\Generated_Source\PSoC5/ADC_DelSig_1.c **** *
1080:.\Generated_Source\PSoC5/ADC_DelSig_1.c **** * Theory:
1081:.\Generated_Source\PSoC5/ADC_DelSig_1.c **** *  Care must be taken to not exceed the maximum value for a 31 bit signed
1082:.\Generated_Source\PSoC5/ADC_DelSig_1.c **** *  number in the conversion to uVolts and at the same time not lose resolution.
1083:.\Generated_Source\PSoC5/ADC_DelSig_1.c **** *
1084:.\Generated_Source\PSoC5/ADC_DelSig_1.c **** *  uVolts = ((A * adcCounts) / ((int32)ADC_DelSig_1_CountsPerVolt / B));
1085:.\Generated_Source\PSoC5/ADC_DelSig_1.c **** *
1086:.\Generated_Source\PSoC5/ADC_DelSig_1.c **** *******************************************************************************/
1087:.\Generated_Source\PSoC5/ADC_DelSig_1.c **** int32 ADC_DelSig_1_CountsTo_uVolts(int32 adcCounts) 
1088:.\Generated_Source\PSoC5/ADC_DelSig_1.c **** {
1089:.\Generated_Source\PSoC5/ADC_DelSig_1.c **** 
1090:.\Generated_Source\PSoC5/ADC_DelSig_1.c ****     int32 uVolts;
1091:.\Generated_Source\PSoC5/ADC_DelSig_1.c ****     int32 coefA;
1092:.\Generated_Source\PSoC5/ADC_DelSig_1.c ****     int32 coefB;
1093:.\Generated_Source\PSoC5/ADC_DelSig_1.c ****     uint8 resolution;
1094:.\Generated_Source\PSoC5/ADC_DelSig_1.c **** 
1095:.\Generated_Source\PSoC5/ADC_DelSig_1.c ****     /* Set the resolution based on the configuration */
1096:.\Generated_Source\PSoC5/ADC_DelSig_1.c ****     /* Convert adcCounts to the right align if left option selected */
1097:.\Generated_Source\PSoC5/ADC_DelSig_1.c ****     if (ADC_DelSig_1_Config == ADC_DelSig_1_CFG1)
1098:.\Generated_Source\PSoC5/ADC_DelSig_1.c ****     {
1099:.\Generated_Source\PSoC5/ADC_DelSig_1.c ****         resolution = ADC_DelSig_1_CFG1_RESOLUTION;
1100:.\Generated_Source\PSoC5/ADC_DelSig_1.c ****         #if(ADC_DelSig_1_CFG1_DEC_DIV != 0)
1101:.\Generated_Source\PSoC5/ADC_DelSig_1.c ****             adcCounts /= ADC_DelSig_1_CFG1_DEC_DIV;
1102:.\Generated_Source\PSoC5/ADC_DelSig_1.c ****         #endif /* ADC_DelSig_1_CFG1_DEC_DIV */
1103:.\Generated_Source\PSoC5/ADC_DelSig_1.c ****     }
1104:.\Generated_Source\PSoC5/ADC_DelSig_1.c ****     else if (ADC_DelSig_1_Config == ADC_DelSig_1_CFG2)
1105:.\Generated_Source\PSoC5/ADC_DelSig_1.c ****     {
1106:.\Generated_Source\PSoC5/ADC_DelSig_1.c ****         resolution = ADC_DelSig_1_CFG2_RESOLUTION;
1107:.\Generated_Source\PSoC5/ADC_DelSig_1.c ****         #if(ADC_DelSig_1_CFG2_DEC_DIV != 0)
1108:.\Generated_Source\PSoC5/ADC_DelSig_1.c ****             adcCounts /= ADC_DelSig_1_CFG2_DEC_DIV;
1109:.\Generated_Source\PSoC5/ADC_DelSig_1.c ****         #endif /* ADC_DelSig_1_CFG2_DEC_DIV */
1110:.\Generated_Source\PSoC5/ADC_DelSig_1.c ****     }
1111:.\Generated_Source\PSoC5/ADC_DelSig_1.c ****     else if (ADC_DelSig_1_Config == ADC_DelSig_1_CFG3)
1112:.\Generated_Source\PSoC5/ADC_DelSig_1.c ****     {
1113:.\Generated_Source\PSoC5/ADC_DelSig_1.c ****         resolution = ADC_DelSig_1_CFG3_RESOLUTION;
1114:.\Generated_Source\PSoC5/ADC_DelSig_1.c ****         #if(ADC_DelSig_1_CFG3_DEC_DIV != 0)
1115:.\Generated_Source\PSoC5/ADC_DelSig_1.c ****             adcCounts /= ADC_DelSig_1_CFG3_DEC_DIV;
ARM GAS  C:\Users\IVYLIU~1\AppData\Local\Temp\cckaBvwB.s 			page 21


1116:.\Generated_Source\PSoC5/ADC_DelSig_1.c ****         #endif /* ADC_DelSig_1_CFG3_DEC_DIV */
1117:.\Generated_Source\PSoC5/ADC_DelSig_1.c ****     }
1118:.\Generated_Source\PSoC5/ADC_DelSig_1.c ****     else
1119:.\Generated_Source\PSoC5/ADC_DelSig_1.c ****     {
1120:.\Generated_Source\PSoC5/ADC_DelSig_1.c ****         resolution = ADC_DelSig_1_CFG4_RESOLUTION;
1121:.\Generated_Source\PSoC5/ADC_DelSig_1.c ****         #if(ADC_DelSig_1_CFG4_DEC_DIV != 0)
1122:.\Generated_Source\PSoC5/ADC_DelSig_1.c ****             adcCounts /= ADC_DelSig_1_CFG4_DEC_DIV;
1123:.\Generated_Source\PSoC5/ADC_DelSig_1.c ****         #endif /* ADC_DelSig_1_CFG4_DEC_DIV */
1124:.\Generated_Source\PSoC5/ADC_DelSig_1.c ****     }
1125:.\Generated_Source\PSoC5/ADC_DelSig_1.c **** 
1126:.\Generated_Source\PSoC5/ADC_DelSig_1.c ****     switch (resolution)
1127:.\Generated_Source\PSoC5/ADC_DelSig_1.c ****     {
1128:.\Generated_Source\PSoC5/ADC_DelSig_1.c ****         #if( (ADC_DelSig_1_CFG1_RESOLUTION == ADC_DelSig_1__BITS_12) || \
1129:.\Generated_Source\PSoC5/ADC_DelSig_1.c ****              (ADC_DelSig_1_CFG2_RESOLUTION == ADC_DelSig_1__BITS_12) || \
1130:.\Generated_Source\PSoC5/ADC_DelSig_1.c ****              (ADC_DelSig_1_CFG3_RESOLUTION == ADC_DelSig_1__BITS_12) || \
1131:.\Generated_Source\PSoC5/ADC_DelSig_1.c ****              (ADC_DelSig_1_CFG4_RESOLUTION == ADC_DelSig_1__BITS_12) )
1132:.\Generated_Source\PSoC5/ADC_DelSig_1.c ****             case (uint8)ADC_DelSig_1__BITS_12:
1133:.\Generated_Source\PSoC5/ADC_DelSig_1.c ****                 coefA = ADC_DelSig_1_1UV_COUNTS / ADC_DelSig_1_DIVISOR_2;
1134:.\Generated_Source\PSoC5/ADC_DelSig_1.c ****                 coefB = ADC_DelSig_1_DIVISOR_2;
1135:.\Generated_Source\PSoC5/ADC_DelSig_1.c ****                 break;
1136:.\Generated_Source\PSoC5/ADC_DelSig_1.c ****         #endif /* ADC_DelSig_1__BITS_12 */    
1137:.\Generated_Source\PSoC5/ADC_DelSig_1.c ****         #if( (ADC_DelSig_1_CFG1_RESOLUTION == ADC_DelSig_1__BITS_13) || \
1138:.\Generated_Source\PSoC5/ADC_DelSig_1.c ****              (ADC_DelSig_1_CFG2_RESOLUTION == ADC_DelSig_1__BITS_13) || \
1139:.\Generated_Source\PSoC5/ADC_DelSig_1.c ****              (ADC_DelSig_1_CFG3_RESOLUTION == ADC_DelSig_1__BITS_13) || \
1140:.\Generated_Source\PSoC5/ADC_DelSig_1.c ****              (ADC_DelSig_1_CFG4_RESOLUTION == ADC_DelSig_1__BITS_13) )
1141:.\Generated_Source\PSoC5/ADC_DelSig_1.c ****             case (uint8)ADC_DelSig_1__BITS_13:
1142:.\Generated_Source\PSoC5/ADC_DelSig_1.c ****                 coefA = ADC_DelSig_1_1UV_COUNTS / ADC_DelSig_1_DIVISOR_4;
1143:.\Generated_Source\PSoC5/ADC_DelSig_1.c ****                 coefB = ADC_DelSig_1_DIVISOR_4;
1144:.\Generated_Source\PSoC5/ADC_DelSig_1.c ****                 break;
1145:.\Generated_Source\PSoC5/ADC_DelSig_1.c ****         #endif /* ADC_DelSig_1__BITS_13 */    
1146:.\Generated_Source\PSoC5/ADC_DelSig_1.c ****         #if( (ADC_DelSig_1_CFG1_RESOLUTION == ADC_DelSig_1__BITS_14) || \
1147:.\Generated_Source\PSoC5/ADC_DelSig_1.c ****              (ADC_DelSig_1_CFG2_RESOLUTION == ADC_DelSig_1__BITS_14) || \
1148:.\Generated_Source\PSoC5/ADC_DelSig_1.c ****              (ADC_DelSig_1_CFG3_RESOLUTION == ADC_DelSig_1__BITS_14) || \
1149:.\Generated_Source\PSoC5/ADC_DelSig_1.c ****              (ADC_DelSig_1_CFG4_RESOLUTION == ADC_DelSig_1__BITS_14) )
1150:.\Generated_Source\PSoC5/ADC_DelSig_1.c ****             case (uint8)ADC_DelSig_1__BITS_14:
1151:.\Generated_Source\PSoC5/ADC_DelSig_1.c ****                 coefA = ADC_DelSig_1_1UV_COUNTS / ADC_DelSig_1_DIVISOR_8;
1152:.\Generated_Source\PSoC5/ADC_DelSig_1.c ****                 coefB = ADC_DelSig_1_DIVISOR_8;
1153:.\Generated_Source\PSoC5/ADC_DelSig_1.c ****                 break;
1154:.\Generated_Source\PSoC5/ADC_DelSig_1.c ****         #endif /* ADC_DelSig_1__BITS_14 */    
1155:.\Generated_Source\PSoC5/ADC_DelSig_1.c ****         #if( (ADC_DelSig_1_CFG1_RESOLUTION == ADC_DelSig_1__BITS_15) || \
1156:.\Generated_Source\PSoC5/ADC_DelSig_1.c ****              (ADC_DelSig_1_CFG2_RESOLUTION == ADC_DelSig_1__BITS_15) || \
1157:.\Generated_Source\PSoC5/ADC_DelSig_1.c ****              (ADC_DelSig_1_CFG3_RESOLUTION == ADC_DelSig_1__BITS_15) || \
1158:.\Generated_Source\PSoC5/ADC_DelSig_1.c ****              (ADC_DelSig_1_CFG4_RESOLUTION == ADC_DelSig_1__BITS_15) )
1159:.\Generated_Source\PSoC5/ADC_DelSig_1.c ****             case (uint8)ADC_DelSig_1__BITS_15:
1160:.\Generated_Source\PSoC5/ADC_DelSig_1.c ****                 coefA = ADC_DelSig_1_1UV_COUNTS / ADC_DelSig_1_DIVISOR_16;
1161:.\Generated_Source\PSoC5/ADC_DelSig_1.c ****                 coefB = ADC_DelSig_1_DIVISOR_16;
1162:.\Generated_Source\PSoC5/ADC_DelSig_1.c ****                 break;
1163:.\Generated_Source\PSoC5/ADC_DelSig_1.c ****         #endif /* ADC_DelSig_1__BITS_15 */    
1164:.\Generated_Source\PSoC5/ADC_DelSig_1.c ****         #if( (ADC_DelSig_1_CFG1_RESOLUTION == ADC_DelSig_1__BITS_16) || \
1165:.\Generated_Source\PSoC5/ADC_DelSig_1.c ****              (ADC_DelSig_1_CFG2_RESOLUTION == ADC_DelSig_1__BITS_16) || \
1166:.\Generated_Source\PSoC5/ADC_DelSig_1.c ****              (ADC_DelSig_1_CFG3_RESOLUTION == ADC_DelSig_1__BITS_16) || \
1167:.\Generated_Source\PSoC5/ADC_DelSig_1.c ****              (ADC_DelSig_1_CFG4_RESOLUTION == ADC_DelSig_1__BITS_16) )
1168:.\Generated_Source\PSoC5/ADC_DelSig_1.c ****             case (uint8)ADC_DelSig_1__BITS_16:
1169:.\Generated_Source\PSoC5/ADC_DelSig_1.c ****                 coefA = ADC_DelSig_1_1UV_COUNTS / ADC_DelSig_1_DIVISOR_32;
1170:.\Generated_Source\PSoC5/ADC_DelSig_1.c ****                 coefB = ADC_DelSig_1_DIVISOR_32;
1171:.\Generated_Source\PSoC5/ADC_DelSig_1.c ****                 break;
1172:.\Generated_Source\PSoC5/ADC_DelSig_1.c ****         #endif /* ADC_DelSig_1__BITS_16 */    
ARM GAS  C:\Users\IVYLIU~1\AppData\Local\Temp\cckaBvwB.s 			page 22


1173:.\Generated_Source\PSoC5/ADC_DelSig_1.c ****         #if( (ADC_DelSig_1_CFG1_RESOLUTION == ADC_DelSig_1__BITS_17) || \
1174:.\Generated_Source\PSoC5/ADC_DelSig_1.c ****              (ADC_DelSig_1_CFG2_RESOLUTION == ADC_DelSig_1__BITS_17) || \
1175:.\Generated_Source\PSoC5/ADC_DelSig_1.c ****              (ADC_DelSig_1_CFG3_RESOLUTION == ADC_DelSig_1__BITS_17) || \
1176:.\Generated_Source\PSoC5/ADC_DelSig_1.c ****              (ADC_DelSig_1_CFG4_RESOLUTION == ADC_DelSig_1__BITS_17) )
1177:.\Generated_Source\PSoC5/ADC_DelSig_1.c ****             case (uint8)ADC_DelSig_1__BITS_17:
1178:.\Generated_Source\PSoC5/ADC_DelSig_1.c ****                 coefA = ADC_DelSig_1_1UV_COUNTS / ADC_DelSig_1_DIVISOR_64;
1179:.\Generated_Source\PSoC5/ADC_DelSig_1.c ****                 coefB = ADC_DelSig_1_DIVISOR_64;
1180:.\Generated_Source\PSoC5/ADC_DelSig_1.c ****                 break;
1181:.\Generated_Source\PSoC5/ADC_DelSig_1.c ****         #endif /* ADC_DelSig_1__BITS_17 */    
1182:.\Generated_Source\PSoC5/ADC_DelSig_1.c ****         #if( (ADC_DelSig_1_CFG1_RESOLUTION == ADC_DelSig_1__BITS_18) || \
1183:.\Generated_Source\PSoC5/ADC_DelSig_1.c ****              (ADC_DelSig_1_CFG2_RESOLUTION == ADC_DelSig_1__BITS_18) || \
1184:.\Generated_Source\PSoC5/ADC_DelSig_1.c ****              (ADC_DelSig_1_CFG3_RESOLUTION == ADC_DelSig_1__BITS_18) || \
1185:.\Generated_Source\PSoC5/ADC_DelSig_1.c ****              (ADC_DelSig_1_CFG4_RESOLUTION == ADC_DelSig_1__BITS_18) )
1186:.\Generated_Source\PSoC5/ADC_DelSig_1.c ****             case (uint8)ADC_DelSig_1__BITS_18:
1187:.\Generated_Source\PSoC5/ADC_DelSig_1.c ****                 coefA = ADC_DelSig_1_1UV_COUNTS / ADC_DelSig_1_DIVISOR_125;
1188:.\Generated_Source\PSoC5/ADC_DelSig_1.c ****                 coefB = ADC_DelSig_1_DIVISOR_125;
1189:.\Generated_Source\PSoC5/ADC_DelSig_1.c ****                 break;
1190:.\Generated_Source\PSoC5/ADC_DelSig_1.c ****         #endif /* ADC_DelSig_1__BITS_18 */    
1191:.\Generated_Source\PSoC5/ADC_DelSig_1.c ****         #if( (ADC_DelSig_1_CFG1_RESOLUTION == ADC_DelSig_1__BITS_19) || \
1192:.\Generated_Source\PSoC5/ADC_DelSig_1.c ****              (ADC_DelSig_1_CFG2_RESOLUTION == ADC_DelSig_1__BITS_19) || \
1193:.\Generated_Source\PSoC5/ADC_DelSig_1.c ****              (ADC_DelSig_1_CFG3_RESOLUTION == ADC_DelSig_1__BITS_19) || \
1194:.\Generated_Source\PSoC5/ADC_DelSig_1.c ****              (ADC_DelSig_1_CFG4_RESOLUTION == ADC_DelSig_1__BITS_19) )
1195:.\Generated_Source\PSoC5/ADC_DelSig_1.c ****             case (uint8)ADC_DelSig_1__BITS_19:
1196:.\Generated_Source\PSoC5/ADC_DelSig_1.c ****                 coefA = ADC_DelSig_1_1UV_COUNTS / ADC_DelSig_1_DIVISOR_250;
1197:.\Generated_Source\PSoC5/ADC_DelSig_1.c ****                 coefB = ADC_DelSig_1_DIVISOR_250;
1198:.\Generated_Source\PSoC5/ADC_DelSig_1.c ****                 break;
1199:.\Generated_Source\PSoC5/ADC_DelSig_1.c ****         #endif /* ADC_DelSig_1__BITS_19 */    
1200:.\Generated_Source\PSoC5/ADC_DelSig_1.c ****         #if( (ADC_DelSig_1_CFG1_RESOLUTION == ADC_DelSig_1__BITS_20) || \
1201:.\Generated_Source\PSoC5/ADC_DelSig_1.c ****              (ADC_DelSig_1_CFG2_RESOLUTION == ADC_DelSig_1__BITS_20) || \
1202:.\Generated_Source\PSoC5/ADC_DelSig_1.c ****              (ADC_DelSig_1_CFG3_RESOLUTION == ADC_DelSig_1__BITS_20) || \
1203:.\Generated_Source\PSoC5/ADC_DelSig_1.c ****              (ADC_DelSig_1_CFG4_RESOLUTION == ADC_DelSig_1__BITS_20) )
1204:.\Generated_Source\PSoC5/ADC_DelSig_1.c ****             case (uint8)ADC_DelSig_1__BITS_20:
1205:.\Generated_Source\PSoC5/ADC_DelSig_1.c ****                 coefA = ADC_DelSig_1_1UV_COUNTS / ADC_DelSig_1_DIVISOR_500;
1206:.\Generated_Source\PSoC5/ADC_DelSig_1.c ****                 coefB = ADC_DelSig_1_DIVISOR_500;
1207:.\Generated_Source\PSoC5/ADC_DelSig_1.c ****                 break;
1208:.\Generated_Source\PSoC5/ADC_DelSig_1.c ****         #endif /* ADC_DelSig_1__BITS_20 */    
1209:.\Generated_Source\PSoC5/ADC_DelSig_1.c ****         default:    /* resolution < 12 */
1210:.\Generated_Source\PSoC5/ADC_DelSig_1.c ****             /* 11 bits ADC + 2^20(1048576) = 31 bits */
1211:.\Generated_Source\PSoC5/ADC_DelSig_1.c ****             coefA = ADC_DelSig_1_1UV_COUNTS;
1212:.\Generated_Source\PSoC5/ADC_DelSig_1.c ****             coefB = ADC_DelSig_1_DIVISOR_1;
1213:.\Generated_Source\PSoC5/ADC_DelSig_1.c ****             break;
1214:.\Generated_Source\PSoC5/ADC_DelSig_1.c ****     }
1215:.\Generated_Source\PSoC5/ADC_DelSig_1.c ****     coefB = ADC_DelSig_1_CountsPerVolt / coefB;
1216:.\Generated_Source\PSoC5/ADC_DelSig_1.c ****     uVolts = ((coefA * adcCounts) / coefB) - ((coefA * ADC_DelSig_1_Offset) / coefB);
1217:.\Generated_Source\PSoC5/ADC_DelSig_1.c **** 
1218:.\Generated_Source\PSoC5/ADC_DelSig_1.c ****     return( uVolts );
1219:.\Generated_Source\PSoC5/ADC_DelSig_1.c **** }
1220:.\Generated_Source\PSoC5/ADC_DelSig_1.c **** 
1221:.\Generated_Source\PSoC5/ADC_DelSig_1.c **** 
1222:.\Generated_Source\PSoC5/ADC_DelSig_1.c **** /*******************************************************************************
1223:.\Generated_Source\PSoC5/ADC_DelSig_1.c **** * Function Name: ADC_DelSig_1_InitConfig(uint8 config)
1224:.\Generated_Source\PSoC5/ADC_DelSig_1.c **** ********************************************************************************
1225:.\Generated_Source\PSoC5/ADC_DelSig_1.c **** *
1226:.\Generated_Source\PSoC5/ADC_DelSig_1.c **** * Summary:
1227:.\Generated_Source\PSoC5/ADC_DelSig_1.c **** *  Initializes all registers based on customizer settings
1228:.\Generated_Source\PSoC5/ADC_DelSig_1.c **** *
1229:.\Generated_Source\PSoC5/ADC_DelSig_1.c **** * Parameters:
ARM GAS  C:\Users\IVYLIU~1\AppData\Local\Temp\cckaBvwB.s 			page 23


1230:.\Generated_Source\PSoC5/ADC_DelSig_1.c **** *   void
1231:.\Generated_Source\PSoC5/ADC_DelSig_1.c **** *
1232:.\Generated_Source\PSoC5/ADC_DelSig_1.c **** * Return:
1233:.\Generated_Source\PSoC5/ADC_DelSig_1.c **** *  None
1234:.\Generated_Source\PSoC5/ADC_DelSig_1.c **** *
1235:.\Generated_Source\PSoC5/ADC_DelSig_1.c **** * Global variables:
1236:.\Generated_Source\PSoC5/ADC_DelSig_1.c **** *  ADC_DelSig_1_CountsPerVolt:  Used to set the default counts per volt.
1237:.\Generated_Source\PSoC5/ADC_DelSig_1.c **** *
1238:.\Generated_Source\PSoC5/ADC_DelSig_1.c **** * Side Effects: Rewrites the coherency set by ADC_DelSig_1_SetCoherency()
1239:.\Generated_Source\PSoC5/ADC_DelSig_1.c **** *   API to the default value.
1240:.\Generated_Source\PSoC5/ADC_DelSig_1.c **** *
1241:.\Generated_Source\PSoC5/ADC_DelSig_1.c **** *******************************************************************************/
1242:.\Generated_Source\PSoC5/ADC_DelSig_1.c **** static void ADC_DelSig_1_InitConfig(uint8 config) 
1243:.\Generated_Source\PSoC5/ADC_DelSig_1.c **** {
1244:.\Generated_Source\PSoC5/ADC_DelSig_1.c ****     ADC_DelSig_1_stopConversion = 0u;
1245:.\Generated_Source\PSoC5/ADC_DelSig_1.c **** 
1246:.\Generated_Source\PSoC5/ADC_DelSig_1.c ****     if (config == 1u)
1247:.\Generated_Source\PSoC5/ADC_DelSig_1.c ****     {
1248:.\Generated_Source\PSoC5/ADC_DelSig_1.c ****         /* Default Config */
1249:.\Generated_Source\PSoC5/ADC_DelSig_1.c ****         ADC_DelSig_1_DEC_CR_REG      = ADC_DelSig_1_CFG1_DEC_CR;
1250:.\Generated_Source\PSoC5/ADC_DelSig_1.c ****         ADC_DelSig_1_DEC_SHIFT1_REG  = ADC_DelSig_1_CFG1_DEC_SHIFT1;
1251:.\Generated_Source\PSoC5/ADC_DelSig_1.c ****         ADC_DelSig_1_DEC_SHIFT2_REG  = ADC_DelSig_1_CFG1_DEC_SHIFT2;
1252:.\Generated_Source\PSoC5/ADC_DelSig_1.c ****         ADC_DelSig_1_DEC_DR2_REG     = ADC_DelSig_1_CFG1_DEC_DR2;
1253:.\Generated_Source\PSoC5/ADC_DelSig_1.c ****         ADC_DelSig_1_DEC_DR2H_REG    = ADC_DelSig_1_CFG1_DEC_DR2H;
1254:.\Generated_Source\PSoC5/ADC_DelSig_1.c ****         ADC_DelSig_1_DEC_DR1_REG     = ADC_DelSig_1_CFG1_DEC_DR1;
1255:.\Generated_Source\PSoC5/ADC_DelSig_1.c ****         ADC_DelSig_1_DEC_OCOR_REG    = ADC_DelSig_1_CFG1_DEC_OCOR;
1256:.\Generated_Source\PSoC5/ADC_DelSig_1.c ****         ADC_DelSig_1_DEC_OCORM_REG   = ADC_DelSig_1_CFG1_DEC_OCORM;
1257:.\Generated_Source\PSoC5/ADC_DelSig_1.c ****         ADC_DelSig_1_DEC_OCORH_REG   = ADC_DelSig_1_CFG1_DEC_OCORH;
1258:.\Generated_Source\PSoC5/ADC_DelSig_1.c ****         ADC_DelSig_1_DEC_COHER_REG   = ADC_DelSig_1_CFG1_DEC_COHER;
1259:.\Generated_Source\PSoC5/ADC_DelSig_1.c **** 
1260:.\Generated_Source\PSoC5/ADC_DelSig_1.c ****         ADC_DelSig_1_DSM_CR4_REG     = ADC_DelSig_1_CFG1_DSM_CR4;
1261:.\Generated_Source\PSoC5/ADC_DelSig_1.c ****         ADC_DelSig_1_DSM_CR5_REG     = ADC_DelSig_1_CFG1_DSM_CR5;
1262:.\Generated_Source\PSoC5/ADC_DelSig_1.c ****         ADC_DelSig_1_DSM_CR6_REG     = ADC_DelSig_1_CFG1_DSM_CR6;
1263:.\Generated_Source\PSoC5/ADC_DelSig_1.c ****         ADC_DelSig_1_DSM_CR7_REG     = ADC_DelSig_1_CFG1_DSM_CR7;
1264:.\Generated_Source\PSoC5/ADC_DelSig_1.c ****         ADC_DelSig_1_DSM_CR10_REG    = ADC_DelSig_1_CFG1_DSM_CR10;
1265:.\Generated_Source\PSoC5/ADC_DelSig_1.c ****         ADC_DelSig_1_DSM_CR11_REG    = ADC_DelSig_1_CFG1_DSM_CR11;
1266:.\Generated_Source\PSoC5/ADC_DelSig_1.c ****         ADC_DelSig_1_DSM_CR12_REG    = ADC_DelSig_1_CFG1_DSM_CR12;
1267:.\Generated_Source\PSoC5/ADC_DelSig_1.c ****         ADC_DelSig_1_DSM_CR14_REG    = ADC_DelSig_1_CFG1_DSM_CR14;
1268:.\Generated_Source\PSoC5/ADC_DelSig_1.c ****         ADC_DelSig_1_DSM_CR15_REG    = ADC_DelSig_1_CFG1_DSM_CR15;
1269:.\Generated_Source\PSoC5/ADC_DelSig_1.c ****         ADC_DelSig_1_DSM_CR16_REG    = ADC_DelSig_1_CFG1_DSM_CR16;
1270:.\Generated_Source\PSoC5/ADC_DelSig_1.c ****         ADC_DelSig_1_DSM_CR17_REG    = ADC_DelSig_1_CFG1_DSM_CR17;
1271:.\Generated_Source\PSoC5/ADC_DelSig_1.c ****         /* Set DSM_REF0_REG by disabling and enabling the PRESS circuit */
1272:.\Generated_Source\PSoC5/ADC_DelSig_1.c ****         ADC_DelSig_1_SetDSMRef0Reg(ADC_DelSig_1_CFG1_DSM_REF0);
1273:.\Generated_Source\PSoC5/ADC_DelSig_1.c ****         ADC_DelSig_1_DSM_REF2_REG    = ADC_DelSig_1_CFG1_DSM_REF2;
1274:.\Generated_Source\PSoC5/ADC_DelSig_1.c ****         ADC_DelSig_1_DSM_REF3_REG    = ADC_DelSig_1_CFG1_DSM_REF3;
1275:.\Generated_Source\PSoC5/ADC_DelSig_1.c **** 
1276:.\Generated_Source\PSoC5/ADC_DelSig_1.c ****         ADC_DelSig_1_DSM_BUF0_REG    = ADC_DelSig_1_CFG1_DSM_BUF0;
1277:.\Generated_Source\PSoC5/ADC_DelSig_1.c ****         ADC_DelSig_1_DSM_BUF1_REG    = ADC_DelSig_1_CFG1_DSM_BUF1;
1278:.\Generated_Source\PSoC5/ADC_DelSig_1.c ****         ADC_DelSig_1_DSM_BUF2_REG    = ADC_DelSig_1_CFG1_DSM_BUF2;
1279:.\Generated_Source\PSoC5/ADC_DelSig_1.c ****         ADC_DelSig_1_DSM_BUF3_REG    = ADC_DelSig_1_CFG1_DSM_BUF3;
1280:.\Generated_Source\PSoC5/ADC_DelSig_1.c **** 
1281:.\Generated_Source\PSoC5/ADC_DelSig_1.c ****         /* To select either Vssa or Vref to -ve input of DSM depending on
1282:.\Generated_Source\PSoC5/ADC_DelSig_1.c ****         *  the input  range selected.
1283:.\Generated_Source\PSoC5/ADC_DelSig_1.c ****         */
1284:.\Generated_Source\PSoC5/ADC_DelSig_1.c ****         #if(ADC_DelSig_1_DEFAULT_INPUT_MODE)
1285:.\Generated_Source\PSoC5/ADC_DelSig_1.c ****             #if (ADC_DelSig_1_CFG1_INPUT_RANGE == ADC_DelSig_1_IR_VSSA_TO_2VREF)
1286:.\Generated_Source\PSoC5/ADC_DelSig_1.c ****                 ADC_DelSig_1_AMux_Select(1u);
ARM GAS  C:\Users\IVYLIU~1\AppData\Local\Temp\cckaBvwB.s 			page 24


1287:.\Generated_Source\PSoC5/ADC_DelSig_1.c ****             #else
1288:.\Generated_Source\PSoC5/ADC_DelSig_1.c ****                 ADC_DelSig_1_AMux_Select(0u);
1289:.\Generated_Source\PSoC5/ADC_DelSig_1.c ****             #endif /* ADC_DelSig_1_IR_VSSA_TO_2VREF) */
1290:.\Generated_Source\PSoC5/ADC_DelSig_1.c ****         #endif /* ADC_DelSig_1_DEFAULT_INPUT_MODE */
1291:.\Generated_Source\PSoC5/ADC_DelSig_1.c **** 
1292:.\Generated_Source\PSoC5/ADC_DelSig_1.c ****         /* Set the Conversion stop if resolution is above 16 bit and conversion
1293:.\Generated_Source\PSoC5/ADC_DelSig_1.c ****         *   mode is Single sample
1294:.\Generated_Source\PSoC5/ADC_DelSig_1.c ****         */
1295:.\Generated_Source\PSoC5/ADC_DelSig_1.c ****         #if(ADC_DelSig_1_CFG1_RESOLUTION > 16 && \
1296:.\Generated_Source\PSoC5/ADC_DelSig_1.c ****             ADC_DelSig_1_CFG1_CONV_MODE == ADC_DelSig_1_MODE_SINGLE_SAMPLE)
1297:.\Generated_Source\PSoC5/ADC_DelSig_1.c ****             ADC_DelSig_1_stopConversion = 1u;
1298:.\Generated_Source\PSoC5/ADC_DelSig_1.c ****         #endif /* Single sample with resolution above 16 bits. */
1299:.\Generated_Source\PSoC5/ADC_DelSig_1.c **** 
1300:.\Generated_Source\PSoC5/ADC_DelSig_1.c ****         ADC_DelSig_1_CountsPerVolt = (int32)ADC_DelSig_1_CFG1_COUNTS_PER_VOLT;
1301:.\Generated_Source\PSoC5/ADC_DelSig_1.c **** 
1302:.\Generated_Source\PSoC5/ADC_DelSig_1.c ****         ADC_DelSig_1_Ext_CP_Clk_SetDividerRegister(ADC_DelSig_1_CFG1_CP_CLK_DIVIDER, 1u);
1303:.\Generated_Source\PSoC5/ADC_DelSig_1.c **** 
1304:.\Generated_Source\PSoC5/ADC_DelSig_1.c ****         /* This is only valid if there is an internal clock */
1305:.\Generated_Source\PSoC5/ADC_DelSig_1.c ****         #if(ADC_DelSig_1_DEFAULT_INTERNAL_CLK)
1306:.\Generated_Source\PSoC5/ADC_DelSig_1.c ****             ADC_DelSig_1_theACLK_SetDividerRegister(ADC_DelSig_1_CFG1_ADC_CLK_DIVIDER, 1u);
1307:.\Generated_Source\PSoC5/ADC_DelSig_1.c ****         #endif /* ADC_DelSig_1_DEFAULT_INTERNAL_CLK */
1308:.\Generated_Source\PSoC5/ADC_DelSig_1.c **** 
1309:.\Generated_Source\PSoC5/ADC_DelSig_1.c ****         #if(ADC_DelSig_1_IRQ_REMOVE == 0u)
1310:.\Generated_Source\PSoC5/ADC_DelSig_1.c ****             /* Set interrupt vector */
1311:.\Generated_Source\PSoC5/ADC_DelSig_1.c ****             (void)CyIntSetVector(ADC_DelSig_1_INTC_NUMBER, &ADC_DelSig_1_ISR1);
1312:.\Generated_Source\PSoC5/ADC_DelSig_1.c ****         #endif   /* End ADC_DelSig_1_IRQ_REMOVE */
1313:.\Generated_Source\PSoC5/ADC_DelSig_1.c ****     }
1314:.\Generated_Source\PSoC5/ADC_DelSig_1.c **** 
1315:.\Generated_Source\PSoC5/ADC_DelSig_1.c ****     #if(ADC_DelSig_1_DEFAULT_NUM_CONFIGS > 1)
1316:.\Generated_Source\PSoC5/ADC_DelSig_1.c ****         if(config == 2u)
1317:.\Generated_Source\PSoC5/ADC_DelSig_1.c ****         {
1318:.\Generated_Source\PSoC5/ADC_DelSig_1.c ****             /* Second Config */
1319:.\Generated_Source\PSoC5/ADC_DelSig_1.c ****             ADC_DelSig_1_DEC_CR_REG      = ADC_DelSig_1_CFG2_DEC_CR;
1320:.\Generated_Source\PSoC5/ADC_DelSig_1.c ****             ADC_DelSig_1_DEC_SHIFT1_REG  = ADC_DelSig_1_CFG2_DEC_SHIFT1;
1321:.\Generated_Source\PSoC5/ADC_DelSig_1.c ****             ADC_DelSig_1_DEC_SHIFT2_REG  = ADC_DelSig_1_CFG2_DEC_SHIFT2;
1322:.\Generated_Source\PSoC5/ADC_DelSig_1.c ****             ADC_DelSig_1_DEC_DR2_REG     = ADC_DelSig_1_CFG2_DEC_DR2;
1323:.\Generated_Source\PSoC5/ADC_DelSig_1.c ****             ADC_DelSig_1_DEC_DR2H_REG    = ADC_DelSig_1_CFG2_DEC_DR2H;
1324:.\Generated_Source\PSoC5/ADC_DelSig_1.c ****             ADC_DelSig_1_DEC_DR1_REG     = ADC_DelSig_1_CFG2_DEC_DR1;
1325:.\Generated_Source\PSoC5/ADC_DelSig_1.c ****             ADC_DelSig_1_DEC_OCOR_REG    = ADC_DelSig_1_CFG2_DEC_OCOR;
1326:.\Generated_Source\PSoC5/ADC_DelSig_1.c ****             ADC_DelSig_1_DEC_OCORM_REG   = ADC_DelSig_1_CFG2_DEC_OCORM;
1327:.\Generated_Source\PSoC5/ADC_DelSig_1.c ****             ADC_DelSig_1_DEC_OCORH_REG   = ADC_DelSig_1_CFG2_DEC_OCORH;
1328:.\Generated_Source\PSoC5/ADC_DelSig_1.c ****             ADC_DelSig_1_DEC_COHER_REG   = ADC_DelSig_1_CFG2_DEC_COHER;
1329:.\Generated_Source\PSoC5/ADC_DelSig_1.c **** 
1330:.\Generated_Source\PSoC5/ADC_DelSig_1.c ****             ADC_DelSig_1_DSM_CR4_REG     = ADC_DelSig_1_CFG2_DSM_CR4;
1331:.\Generated_Source\PSoC5/ADC_DelSig_1.c ****             ADC_DelSig_1_DSM_CR5_REG     = ADC_DelSig_1_CFG2_DSM_CR5;
1332:.\Generated_Source\PSoC5/ADC_DelSig_1.c ****             ADC_DelSig_1_DSM_CR6_REG     = ADC_DelSig_1_CFG2_DSM_CR6;
1333:.\Generated_Source\PSoC5/ADC_DelSig_1.c ****             ADC_DelSig_1_DSM_CR7_REG     = ADC_DelSig_1_CFG2_DSM_CR7;
1334:.\Generated_Source\PSoC5/ADC_DelSig_1.c ****             ADC_DelSig_1_DSM_CR10_REG    = ADC_DelSig_1_CFG2_DSM_CR10;
1335:.\Generated_Source\PSoC5/ADC_DelSig_1.c ****             ADC_DelSig_1_DSM_CR11_REG    = ADC_DelSig_1_CFG2_DSM_CR11;
1336:.\Generated_Source\PSoC5/ADC_DelSig_1.c ****             ADC_DelSig_1_DSM_CR12_REG    = ADC_DelSig_1_CFG2_DSM_CR12;
1337:.\Generated_Source\PSoC5/ADC_DelSig_1.c ****             ADC_DelSig_1_DSM_CR14_REG    = ADC_DelSig_1_CFG2_DSM_CR14;
1338:.\Generated_Source\PSoC5/ADC_DelSig_1.c ****             ADC_DelSig_1_DSM_CR15_REG    = ADC_DelSig_1_CFG2_DSM_CR15;
1339:.\Generated_Source\PSoC5/ADC_DelSig_1.c ****             ADC_DelSig_1_DSM_CR16_REG    = ADC_DelSig_1_CFG2_DSM_CR16;
1340:.\Generated_Source\PSoC5/ADC_DelSig_1.c ****             ADC_DelSig_1_DSM_CR17_REG    = ADC_DelSig_1_CFG2_DSM_CR17;
1341:.\Generated_Source\PSoC5/ADC_DelSig_1.c ****             /* Set DSM_REF0_REG by disabling and enabling the PRESS cirucit */
1342:.\Generated_Source\PSoC5/ADC_DelSig_1.c ****             ADC_DelSig_1_SetDSMRef0Reg(ADC_DelSig_1_CFG2_DSM_REF0);
1343:.\Generated_Source\PSoC5/ADC_DelSig_1.c ****             ADC_DelSig_1_DSM_REF2_REG    = ADC_DelSig_1_CFG2_DSM_REF2;
ARM GAS  C:\Users\IVYLIU~1\AppData\Local\Temp\cckaBvwB.s 			page 25


1344:.\Generated_Source\PSoC5/ADC_DelSig_1.c ****             ADC_DelSig_1_DSM_REF3_REG    = ADC_DelSig_1_CFG2_DSM_REF3;
1345:.\Generated_Source\PSoC5/ADC_DelSig_1.c **** 
1346:.\Generated_Source\PSoC5/ADC_DelSig_1.c ****             ADC_DelSig_1_DSM_BUF0_REG    = ADC_DelSig_1_CFG2_DSM_BUF0;
1347:.\Generated_Source\PSoC5/ADC_DelSig_1.c ****             ADC_DelSig_1_DSM_BUF1_REG    = ADC_DelSig_1_CFG2_DSM_BUF1;
1348:.\Generated_Source\PSoC5/ADC_DelSig_1.c ****             ADC_DelSig_1_DSM_BUF2_REG    = ADC_DelSig_1_CFG2_DSM_BUF2;
1349:.\Generated_Source\PSoC5/ADC_DelSig_1.c ****             ADC_DelSig_1_DSM_BUF3_REG    = ADC_DelSig_1_CFG2_DSM_BUF3;
1350:.\Generated_Source\PSoC5/ADC_DelSig_1.c **** 
1351:.\Generated_Source\PSoC5/ADC_DelSig_1.c ****             /* To select either Vssa or Vref to -ve input of DSM depending on
1352:.\Generated_Source\PSoC5/ADC_DelSig_1.c ****             *  the input range selected.
1353:.\Generated_Source\PSoC5/ADC_DelSig_1.c ****             */
1354:.\Generated_Source\PSoC5/ADC_DelSig_1.c **** 
1355:.\Generated_Source\PSoC5/ADC_DelSig_1.c ****             #if(ADC_DelSig_1_DEFAULT_INPUT_MODE)
1356:.\Generated_Source\PSoC5/ADC_DelSig_1.c ****                 #if (ADC_DelSig_1_CFG2_INPUT_RANGE == ADC_DelSig_1_IR_VSSA_TO_2VREF)
1357:.\Generated_Source\PSoC5/ADC_DelSig_1.c ****                     ADC_DelSig_1_AMux_Select(1u);
1358:.\Generated_Source\PSoC5/ADC_DelSig_1.c ****                 #else
1359:.\Generated_Source\PSoC5/ADC_DelSig_1.c ****                     ADC_DelSig_1_AMux_Select(0u);
1360:.\Generated_Source\PSoC5/ADC_DelSig_1.c ****                 #endif /* ADC_DelSig_1_IR_VSSA_TO_2VREF) */
1361:.\Generated_Source\PSoC5/ADC_DelSig_1.c ****             #endif /* ADC_DelSig_1_DEFAULT_INPUT_MODE */
1362:.\Generated_Source\PSoC5/ADC_DelSig_1.c **** 
1363:.\Generated_Source\PSoC5/ADC_DelSig_1.c ****             /* Set the Conversion stop if resolution is above 16 bit and
1364:.\Generated_Source\PSoC5/ADC_DelSig_1.c ****             *   conversion mode is Single sample
1365:.\Generated_Source\PSoC5/ADC_DelSig_1.c ****             */
1366:.\Generated_Source\PSoC5/ADC_DelSig_1.c ****             #if(ADC_DelSig_1_CFG2_RESOLUTION > 16 && \
1367:.\Generated_Source\PSoC5/ADC_DelSig_1.c ****                 ADC_DelSig_1_CFG2_CONV_MODE == ADC_DelSig_1_MODE_SINGLE_SAMPLE)
1368:.\Generated_Source\PSoC5/ADC_DelSig_1.c ****                 ADC_DelSig_1_stopConversion = 1u;
1369:.\Generated_Source\PSoC5/ADC_DelSig_1.c ****             #endif /* Single sample with resolution above 16 bits. */
1370:.\Generated_Source\PSoC5/ADC_DelSig_1.c **** 
1371:.\Generated_Source\PSoC5/ADC_DelSig_1.c ****             ADC_DelSig_1_CountsPerVolt = (int32)ADC_DelSig_1_CFG2_COUNTS_PER_VOLT;
1372:.\Generated_Source\PSoC5/ADC_DelSig_1.c **** 
1373:.\Generated_Source\PSoC5/ADC_DelSig_1.c ****             ADC_DelSig_1_Ext_CP_Clk_SetDividerRegister(ADC_DelSig_1_CFG2_CP_CLK_DIVIDER, 1u);
1374:.\Generated_Source\PSoC5/ADC_DelSig_1.c **** 
1375:.\Generated_Source\PSoC5/ADC_DelSig_1.c ****             /* This is only valid if there is an internal clock */
1376:.\Generated_Source\PSoC5/ADC_DelSig_1.c ****             #if(ADC_DelSig_1_DEFAULT_INTERNAL_CLK)
1377:.\Generated_Source\PSoC5/ADC_DelSig_1.c ****                 ADC_DelSig_1_theACLK_SetDividerRegister(ADC_DelSig_1_CFG2_ADC_CLK_DIVIDER, 1u);
1378:.\Generated_Source\PSoC5/ADC_DelSig_1.c ****             #endif /* ADC_DelSig_1_DEFAULT_INTERNAL_CLK */
1379:.\Generated_Source\PSoC5/ADC_DelSig_1.c **** 
1380:.\Generated_Source\PSoC5/ADC_DelSig_1.c ****             #if(ADC_DelSig_1_IRQ_REMOVE == 0u)
1381:.\Generated_Source\PSoC5/ADC_DelSig_1.c ****                 /* Set interrupt vector */
1382:.\Generated_Source\PSoC5/ADC_DelSig_1.c ****                 (void)CyIntSetVector(ADC_DelSig_1_INTC_NUMBER, &ADC_DelSig_1_ISR2);
1383:.\Generated_Source\PSoC5/ADC_DelSig_1.c ****             #endif   /* End ADC_DelSig_1_IRQ_REMOVE */
1384:.\Generated_Source\PSoC5/ADC_DelSig_1.c ****         }
1385:.\Generated_Source\PSoC5/ADC_DelSig_1.c ****     #endif /* ADC_DelSig_1_DEFAULT_NUM_CONFIGS > 1 */
1386:.\Generated_Source\PSoC5/ADC_DelSig_1.c **** 
1387:.\Generated_Source\PSoC5/ADC_DelSig_1.c ****     #if(ADC_DelSig_1_DEFAULT_NUM_CONFIGS > 2)
1388:.\Generated_Source\PSoC5/ADC_DelSig_1.c ****         if(config == 3u)
1389:.\Generated_Source\PSoC5/ADC_DelSig_1.c ****         {
1390:.\Generated_Source\PSoC5/ADC_DelSig_1.c ****             /* Third Config */
1391:.\Generated_Source\PSoC5/ADC_DelSig_1.c ****             ADC_DelSig_1_DEC_CR_REG      = ADC_DelSig_1_CFG3_DEC_CR;
1392:.\Generated_Source\PSoC5/ADC_DelSig_1.c ****             ADC_DelSig_1_DEC_SHIFT1_REG  = ADC_DelSig_1_CFG3_DEC_SHIFT1;
1393:.\Generated_Source\PSoC5/ADC_DelSig_1.c ****             ADC_DelSig_1_DEC_SHIFT2_REG  = ADC_DelSig_1_CFG3_DEC_SHIFT2;
1394:.\Generated_Source\PSoC5/ADC_DelSig_1.c ****             ADC_DelSig_1_DEC_DR2_REG     = ADC_DelSig_1_CFG3_DEC_DR2;
1395:.\Generated_Source\PSoC5/ADC_DelSig_1.c ****             ADC_DelSig_1_DEC_DR2H_REG    = ADC_DelSig_1_CFG3_DEC_DR2H;
1396:.\Generated_Source\PSoC5/ADC_DelSig_1.c ****             ADC_DelSig_1_DEC_DR1_REG     = ADC_DelSig_1_CFG3_DEC_DR1;
1397:.\Generated_Source\PSoC5/ADC_DelSig_1.c ****             ADC_DelSig_1_DEC_OCOR_REG    = ADC_DelSig_1_CFG3_DEC_OCOR;
1398:.\Generated_Source\PSoC5/ADC_DelSig_1.c ****             ADC_DelSig_1_DEC_OCORM_REG   = ADC_DelSig_1_CFG3_DEC_OCORM;
1399:.\Generated_Source\PSoC5/ADC_DelSig_1.c ****             ADC_DelSig_1_DEC_OCORH_REG   = ADC_DelSig_1_CFG3_DEC_OCORH;
1400:.\Generated_Source\PSoC5/ADC_DelSig_1.c ****             ADC_DelSig_1_DEC_COHER_REG   = ADC_DelSig_1_CFG3_DEC_COHER;
ARM GAS  C:\Users\IVYLIU~1\AppData\Local\Temp\cckaBvwB.s 			page 26


1401:.\Generated_Source\PSoC5/ADC_DelSig_1.c **** 
1402:.\Generated_Source\PSoC5/ADC_DelSig_1.c ****             ADC_DelSig_1_DSM_CR4_REG     = ADC_DelSig_1_CFG3_DSM_CR4;
1403:.\Generated_Source\PSoC5/ADC_DelSig_1.c ****             ADC_DelSig_1_DSM_CR5_REG     = ADC_DelSig_1_CFG3_DSM_CR5;
1404:.\Generated_Source\PSoC5/ADC_DelSig_1.c ****             ADC_DelSig_1_DSM_CR6_REG     = ADC_DelSig_1_CFG3_DSM_CR6;
1405:.\Generated_Source\PSoC5/ADC_DelSig_1.c ****             ADC_DelSig_1_DSM_CR7_REG     = ADC_DelSig_1_CFG3_DSM_CR7;
1406:.\Generated_Source\PSoC5/ADC_DelSig_1.c ****             ADC_DelSig_1_DSM_CR10_REG    = ADC_DelSig_1_CFG3_DSM_CR10;
1407:.\Generated_Source\PSoC5/ADC_DelSig_1.c ****             ADC_DelSig_1_DSM_CR11_REG    = ADC_DelSig_1_CFG3_DSM_CR11;
1408:.\Generated_Source\PSoC5/ADC_DelSig_1.c ****             ADC_DelSig_1_DSM_CR12_REG    = ADC_DelSig_1_CFG3_DSM_CR12;
1409:.\Generated_Source\PSoC5/ADC_DelSig_1.c ****             ADC_DelSig_1_DSM_CR14_REG    = ADC_DelSig_1_CFG3_DSM_CR14;
1410:.\Generated_Source\PSoC5/ADC_DelSig_1.c ****             ADC_DelSig_1_DSM_CR15_REG    = ADC_DelSig_1_CFG3_DSM_CR15;
1411:.\Generated_Source\PSoC5/ADC_DelSig_1.c ****             ADC_DelSig_1_DSM_CR16_REG    = ADC_DelSig_1_CFG3_DSM_CR16;
1412:.\Generated_Source\PSoC5/ADC_DelSig_1.c ****             ADC_DelSig_1_DSM_CR17_REG    = ADC_DelSig_1_CFG3_DSM_CR17;
1413:.\Generated_Source\PSoC5/ADC_DelSig_1.c ****             /* Set DSM_REF0_REG by disabling and enabling the PRESS circuit */
1414:.\Generated_Source\PSoC5/ADC_DelSig_1.c ****             ADC_DelSig_1_SetDSMRef0Reg(ADC_DelSig_1_CFG3_DSM_REF0);
1415:.\Generated_Source\PSoC5/ADC_DelSig_1.c ****             ADC_DelSig_1_DSM_REF2_REG    = ADC_DelSig_1_CFG3_DSM_REF2;
1416:.\Generated_Source\PSoC5/ADC_DelSig_1.c ****             ADC_DelSig_1_DSM_REF3_REG    = ADC_DelSig_1_CFG3_DSM_REF3;
1417:.\Generated_Source\PSoC5/ADC_DelSig_1.c **** 
1418:.\Generated_Source\PSoC5/ADC_DelSig_1.c ****             ADC_DelSig_1_DSM_BUF0_REG    = ADC_DelSig_1_CFG3_DSM_BUF0;
1419:.\Generated_Source\PSoC5/ADC_DelSig_1.c ****             ADC_DelSig_1_DSM_BUF1_REG    = ADC_DelSig_1_CFG3_DSM_BUF1;
1420:.\Generated_Source\PSoC5/ADC_DelSig_1.c ****             ADC_DelSig_1_DSM_BUF2_REG    = ADC_DelSig_1_CFG3_DSM_BUF2;
1421:.\Generated_Source\PSoC5/ADC_DelSig_1.c ****             ADC_DelSig_1_DSM_BUF3_REG    = ADC_DelSig_1_CFG3_DSM_BUF3;
1422:.\Generated_Source\PSoC5/ADC_DelSig_1.c **** 
1423:.\Generated_Source\PSoC5/ADC_DelSig_1.c ****             /* To select either Vssa or Vref to -ve input of DSM depending on
1424:.\Generated_Source\PSoC5/ADC_DelSig_1.c ****             *  the input range selected.
1425:.\Generated_Source\PSoC5/ADC_DelSig_1.c ****             */
1426:.\Generated_Source\PSoC5/ADC_DelSig_1.c ****             #if(ADC_DelSig_1_DEFAULT_INPUT_MODE)
1427:.\Generated_Source\PSoC5/ADC_DelSig_1.c ****                 #if (ADC_DelSig_1_CFG3_INPUT_RANGE == ADC_DelSig_1_IR_VSSA_TO_2VREF)
1428:.\Generated_Source\PSoC5/ADC_DelSig_1.c ****                     ADC_DelSig_1_AMux_Select(1u);
1429:.\Generated_Source\PSoC5/ADC_DelSig_1.c ****                 #else
1430:.\Generated_Source\PSoC5/ADC_DelSig_1.c ****                     ADC_DelSig_1_AMux_Select(0u);
1431:.\Generated_Source\PSoC5/ADC_DelSig_1.c ****                 #endif /* ADC_DelSig_1_IR_VSSA_TO_2VREF) */
1432:.\Generated_Source\PSoC5/ADC_DelSig_1.c ****             #endif /* ADC_DelSig_1_DEFAULT_INPUT_MODE */
1433:.\Generated_Source\PSoC5/ADC_DelSig_1.c **** 
1434:.\Generated_Source\PSoC5/ADC_DelSig_1.c ****             /* Set the Conversion stop if resolution is above 16 bit and
1435:.\Generated_Source\PSoC5/ADC_DelSig_1.c ****                conversion  mode is Single sample */
1436:.\Generated_Source\PSoC5/ADC_DelSig_1.c ****             #if(ADC_DelSig_1_CFG3_RESOLUTION > 16 && \
1437:.\Generated_Source\PSoC5/ADC_DelSig_1.c ****                 ADC_DelSig_1_CFG3_CONV_MODE == ADC_DelSig_1_MODE_SINGLE_SAMPLE)
1438:.\Generated_Source\PSoC5/ADC_DelSig_1.c ****                 ADC_DelSig_1_stopConversion = 1u;
1439:.\Generated_Source\PSoC5/ADC_DelSig_1.c ****             #endif /* Single sample with resolution above 16 bits */
1440:.\Generated_Source\PSoC5/ADC_DelSig_1.c **** 
1441:.\Generated_Source\PSoC5/ADC_DelSig_1.c ****             ADC_DelSig_1_CountsPerVolt = (int32)ADC_DelSig_1_CFG3_COUNTS_PER_VOLT;
1442:.\Generated_Source\PSoC5/ADC_DelSig_1.c **** 
1443:.\Generated_Source\PSoC5/ADC_DelSig_1.c ****             ADC_DelSig_1_Ext_CP_Clk_SetDividerRegister(ADC_DelSig_1_CFG3_CP_CLK_DIVIDER, 1u);
1444:.\Generated_Source\PSoC5/ADC_DelSig_1.c **** 
1445:.\Generated_Source\PSoC5/ADC_DelSig_1.c ****             /* This is only valid if there is an internal clock */
1446:.\Generated_Source\PSoC5/ADC_DelSig_1.c ****             #if(ADC_DelSig_1_DEFAULT_INTERNAL_CLK)
1447:.\Generated_Source\PSoC5/ADC_DelSig_1.c ****                 ADC_DelSig_1_theACLK_SetDividerRegister(ADC_DelSig_1_CFG3_ADC_CLK_DIVIDER, 1u);
1448:.\Generated_Source\PSoC5/ADC_DelSig_1.c ****             #endif /* ADC_DelSig_1_DEFAULT_INTERNAL_CLK */
1449:.\Generated_Source\PSoC5/ADC_DelSig_1.c **** 
1450:.\Generated_Source\PSoC5/ADC_DelSig_1.c ****             #if(ADC_DelSig_1_IRQ_REMOVE == 0u)
1451:.\Generated_Source\PSoC5/ADC_DelSig_1.c ****                 /* Set interrupt vector */
1452:.\Generated_Source\PSoC5/ADC_DelSig_1.c ****                 (void)CyIntSetVector(ADC_DelSig_1_INTC_NUMBER, &ADC_DelSig_1_ISR3);
1453:.\Generated_Source\PSoC5/ADC_DelSig_1.c ****             #endif   /* End ADC_DelSig_1_IRQ_REMOVE */
1454:.\Generated_Source\PSoC5/ADC_DelSig_1.c ****         }
1455:.\Generated_Source\PSoC5/ADC_DelSig_1.c ****     #endif /* ADC_DelSig_1_DEFAULT_NUM_CONFIGS > 2 */
1456:.\Generated_Source\PSoC5/ADC_DelSig_1.c **** 
1457:.\Generated_Source\PSoC5/ADC_DelSig_1.c ****     #if(ADC_DelSig_1_DEFAULT_NUM_CONFIGS > 3)
ARM GAS  C:\Users\IVYLIU~1\AppData\Local\Temp\cckaBvwB.s 			page 27


1458:.\Generated_Source\PSoC5/ADC_DelSig_1.c ****         if (config == 4u)
1459:.\Generated_Source\PSoC5/ADC_DelSig_1.c ****         {
1460:.\Generated_Source\PSoC5/ADC_DelSig_1.c ****             /* Fourth Config */
1461:.\Generated_Source\PSoC5/ADC_DelSig_1.c ****             ADC_DelSig_1_DEC_CR_REG      = ADC_DelSig_1_CFG4_DEC_CR;
1462:.\Generated_Source\PSoC5/ADC_DelSig_1.c ****             ADC_DelSig_1_DEC_SHIFT1_REG  = ADC_DelSig_1_CFG4_DEC_SHIFT1;
1463:.\Generated_Source\PSoC5/ADC_DelSig_1.c ****             ADC_DelSig_1_DEC_SHIFT2_REG  = ADC_DelSig_1_CFG4_DEC_SHIFT2;
1464:.\Generated_Source\PSoC5/ADC_DelSig_1.c ****             ADC_DelSig_1_DEC_DR2_REG     = ADC_DelSig_1_CFG4_DEC_DR2;
1465:.\Generated_Source\PSoC5/ADC_DelSig_1.c ****             ADC_DelSig_1_DEC_DR2H_REG    = ADC_DelSig_1_CFG4_DEC_DR2H;
1466:.\Generated_Source\PSoC5/ADC_DelSig_1.c ****             ADC_DelSig_1_DEC_DR1_REG     = ADC_DelSig_1_CFG4_DEC_DR1;
1467:.\Generated_Source\PSoC5/ADC_DelSig_1.c ****             ADC_DelSig_1_DEC_OCOR_REG    = ADC_DelSig_1_CFG4_DEC_OCOR;
1468:.\Generated_Source\PSoC5/ADC_DelSig_1.c ****             ADC_DelSig_1_DEC_OCORM_REG   = ADC_DelSig_1_CFG4_DEC_OCORM;
1469:.\Generated_Source\PSoC5/ADC_DelSig_1.c ****             ADC_DelSig_1_DEC_OCORH_REG   = ADC_DelSig_1_CFG4_DEC_OCORH;
1470:.\Generated_Source\PSoC5/ADC_DelSig_1.c ****             ADC_DelSig_1_DEC_COHER_REG   = ADC_DelSig_1_CFG4_DEC_COHER;
1471:.\Generated_Source\PSoC5/ADC_DelSig_1.c **** 
1472:.\Generated_Source\PSoC5/ADC_DelSig_1.c ****             ADC_DelSig_1_DSM_CR4_REG     = ADC_DelSig_1_CFG4_DSM_CR4;
1473:.\Generated_Source\PSoC5/ADC_DelSig_1.c ****             ADC_DelSig_1_DSM_CR5_REG     = ADC_DelSig_1_CFG4_DSM_CR5;
1474:.\Generated_Source\PSoC5/ADC_DelSig_1.c ****             ADC_DelSig_1_DSM_CR6_REG     = ADC_DelSig_1_CFG4_DSM_CR6;
1475:.\Generated_Source\PSoC5/ADC_DelSig_1.c ****             ADC_DelSig_1_DSM_CR7_REG     = ADC_DelSig_1_CFG4_DSM_CR7;
1476:.\Generated_Source\PSoC5/ADC_DelSig_1.c ****             ADC_DelSig_1_DSM_CR10_REG    = ADC_DelSig_1_CFG4_DSM_CR10;
1477:.\Generated_Source\PSoC5/ADC_DelSig_1.c ****             ADC_DelSig_1_DSM_CR11_REG    = ADC_DelSig_1_CFG4_DSM_CR11;
1478:.\Generated_Source\PSoC5/ADC_DelSig_1.c ****             ADC_DelSig_1_DSM_CR12_REG    = ADC_DelSig_1_CFG4_DSM_CR12;
1479:.\Generated_Source\PSoC5/ADC_DelSig_1.c ****             ADC_DelSig_1_DSM_CR14_REG    = ADC_DelSig_1_CFG4_DSM_CR14;
1480:.\Generated_Source\PSoC5/ADC_DelSig_1.c ****             ADC_DelSig_1_DSM_CR15_REG    = ADC_DelSig_1_CFG4_DSM_CR15;
1481:.\Generated_Source\PSoC5/ADC_DelSig_1.c ****             ADC_DelSig_1_DSM_CR16_REG    = ADC_DelSig_1_CFG4_DSM_CR16;
1482:.\Generated_Source\PSoC5/ADC_DelSig_1.c ****             ADC_DelSig_1_DSM_CR17_REG    = ADC_DelSig_1_CFG4_DSM_CR17;
1483:.\Generated_Source\PSoC5/ADC_DelSig_1.c ****             /* Set DSM_REF0_REG by disabling and enabling the PRESS circuit */
1484:.\Generated_Source\PSoC5/ADC_DelSig_1.c ****             ADC_DelSig_1_SetDSMRef0Reg(ADC_DelSig_1_CFG4_DSM_REF0);
1485:.\Generated_Source\PSoC5/ADC_DelSig_1.c ****             ADC_DelSig_1_DSM_REF2_REG    = ADC_DelSig_1_CFG4_DSM_REF2;
1486:.\Generated_Source\PSoC5/ADC_DelSig_1.c ****             ADC_DelSig_1_DSM_REF3_REG    = ADC_DelSig_1_CFG4_DSM_REF3;
1487:.\Generated_Source\PSoC5/ADC_DelSig_1.c **** 
1488:.\Generated_Source\PSoC5/ADC_DelSig_1.c ****             ADC_DelSig_1_DSM_BUF0_REG    = ADC_DelSig_1_CFG4_DSM_BUF0;
1489:.\Generated_Source\PSoC5/ADC_DelSig_1.c ****             ADC_DelSig_1_DSM_BUF1_REG    = ADC_DelSig_1_CFG4_DSM_BUF1;
1490:.\Generated_Source\PSoC5/ADC_DelSig_1.c ****             ADC_DelSig_1_DSM_BUF2_REG    = ADC_DelSig_1_CFG4_DSM_BUF2;
1491:.\Generated_Source\PSoC5/ADC_DelSig_1.c ****             ADC_DelSig_1_DSM_BUF3_REG    = ADC_DelSig_1_CFG4_DSM_BUF3;
1492:.\Generated_Source\PSoC5/ADC_DelSig_1.c **** 
1493:.\Generated_Source\PSoC5/ADC_DelSig_1.c ****             /* To select either Vssa or Vref to -ve input of DSM depending on
1494:.\Generated_Source\PSoC5/ADC_DelSig_1.c ****             *  the input range selected.
1495:.\Generated_Source\PSoC5/ADC_DelSig_1.c ****             */
1496:.\Generated_Source\PSoC5/ADC_DelSig_1.c ****             #if(ADC_DelSig_1_DEFAULT_INPUT_MODE)
1497:.\Generated_Source\PSoC5/ADC_DelSig_1.c ****                 #if (ADC_DelSig_1_CFG4_INPUT_RANGE == ADC_DelSig_1_IR_VSSA_TO_2VREF)
1498:.\Generated_Source\PSoC5/ADC_DelSig_1.c ****                     ADC_DelSig_1_AMux_Select(1u);
1499:.\Generated_Source\PSoC5/ADC_DelSig_1.c ****                 #else
1500:.\Generated_Source\PSoC5/ADC_DelSig_1.c ****                     ADC_DelSig_1_AMux_Select(0u);
1501:.\Generated_Source\PSoC5/ADC_DelSig_1.c ****                 #endif /* ADC_DelSig_1_IR_VSSA_TO_2VREF) */
1502:.\Generated_Source\PSoC5/ADC_DelSig_1.c ****             #endif /* ADC_DelSig_1_DEFAULT_INPUT_MODE */
1503:.\Generated_Source\PSoC5/ADC_DelSig_1.c **** 
1504:.\Generated_Source\PSoC5/ADC_DelSig_1.c ****             /* Set the Conversion stop if resolution is above 16 bit and
1505:.\Generated_Source\PSoC5/ADC_DelSig_1.c ****                conversion mode is Single sample */
1506:.\Generated_Source\PSoC5/ADC_DelSig_1.c ****             #if(ADC_DelSig_1_CFG4_RESOLUTION > 16 && \
1507:.\Generated_Source\PSoC5/ADC_DelSig_1.c ****                 ADC_DelSig_1_CFG4_CONV_MODE == ADC_DelSig_1_MODE_SINGLE_SAMPLE)
1508:.\Generated_Source\PSoC5/ADC_DelSig_1.c ****                 ADC_DelSig_1_stopConversion = 1u;
1509:.\Generated_Source\PSoC5/ADC_DelSig_1.c ****             #endif /* Single sample with resolution above 16 bits */
1510:.\Generated_Source\PSoC5/ADC_DelSig_1.c **** 
1511:.\Generated_Source\PSoC5/ADC_DelSig_1.c ****             ADC_DelSig_1_CountsPerVolt = (int32)ADC_DelSig_1_CFG4_COUNTS_PER_VOLT;
1512:.\Generated_Source\PSoC5/ADC_DelSig_1.c **** 
1513:.\Generated_Source\PSoC5/ADC_DelSig_1.c ****             ADC_DelSig_1_Ext_CP_Clk_SetDividerRegister(ADC_DelSig_1_CFG4_CP_CLK_DIVIDER, 1u);
1514:.\Generated_Source\PSoC5/ADC_DelSig_1.c **** 
ARM GAS  C:\Users\IVYLIU~1\AppData\Local\Temp\cckaBvwB.s 			page 28


1515:.\Generated_Source\PSoC5/ADC_DelSig_1.c ****             /* This is only valid if there is an internal clock */
1516:.\Generated_Source\PSoC5/ADC_DelSig_1.c ****             #if(ADC_DelSig_1_DEFAULT_INTERNAL_CLK)
1517:.\Generated_Source\PSoC5/ADC_DelSig_1.c ****                 ADC_DelSig_1_theACLK_SetDividerRegister(ADC_DelSig_1_CFG4_ADC_CLK_DIVIDER, 1u);
1518:.\Generated_Source\PSoC5/ADC_DelSig_1.c ****             #endif /* ADC_DelSig_1_DEFAULT_INTERNAL_CLK */
1519:.\Generated_Source\PSoC5/ADC_DelSig_1.c **** 
1520:.\Generated_Source\PSoC5/ADC_DelSig_1.c ****             #if(ADC_DelSig_1_IRQ_REMOVE == 0u)
1521:.\Generated_Source\PSoC5/ADC_DelSig_1.c ****                 /* Set interrupt vector */
1522:.\Generated_Source\PSoC5/ADC_DelSig_1.c ****                 (void)CyIntSetVector(ADC_DelSig_1_INTC_NUMBER, &ADC_DelSig_1_ISR4);
1523:.\Generated_Source\PSoC5/ADC_DelSig_1.c ****             #endif   /* End ADC_DelSig_1_IRQ_REMOVE */
1524:.\Generated_Source\PSoC5/ADC_DelSig_1.c ****         }
1525:.\Generated_Source\PSoC5/ADC_DelSig_1.c ****     #endif /* ADC_DelSig_1_DEFAULT_NUM_CONFIGS > 3 */
1526:.\Generated_Source\PSoC5/ADC_DelSig_1.c **** }
1527:.\Generated_Source\PSoC5/ADC_DelSig_1.c **** 
1528:.\Generated_Source\PSoC5/ADC_DelSig_1.c **** 
1529:.\Generated_Source\PSoC5/ADC_DelSig_1.c **** /*******************************************************************************
1530:.\Generated_Source\PSoC5/ADC_DelSig_1.c **** * Function Name: ADC_DelSig_1_SelectCofiguration
1531:.\Generated_Source\PSoC5/ADC_DelSig_1.c **** ********************************************************************************
1532:.\Generated_Source\PSoC5/ADC_DelSig_1.c **** *
1533:.\Generated_Source\PSoC5/ADC_DelSig_1.c **** * Summary:
1534:.\Generated_Source\PSoC5/ADC_DelSig_1.c **** *  Sets one of up to four ADC configurations. Before setting the new
1535:.\Generated_Source\PSoC5/ADC_DelSig_1.c **** *  configuration, the ADC is stopped and powered down. After setting
1536:.\Generated_Source\PSoC5/ADC_DelSig_1.c **** *  the new configuration, the ADC can be powered and conversion
1537:.\Generated_Source\PSoC5/ADC_DelSig_1.c **** *  can be restarted depending up on the value of second parameter
1538:.\Generated_Source\PSoC5/ADC_DelSig_1.c **** *  restart. If the value of this parameter is 1, then ADC will be
1539:.\Generated_Source\PSoC5/ADC_DelSig_1.c **** *  restarted. If this value is zero, then user must call ADC_DelSig_1_Start
1540:.\Generated_Source\PSoC5/ADC_DelSig_1.c **** *  and ADC_DelSig_1_StartConvert() to restart the conversion.
1541:.\Generated_Source\PSoC5/ADC_DelSig_1.c **** *
1542:.\Generated_Source\PSoC5/ADC_DelSig_1.c **** * Parameters:
1543:.\Generated_Source\PSoC5/ADC_DelSig_1.c **** *  config:  configuration user wants to select.
1544:.\Generated_Source\PSoC5/ADC_DelSig_1.c **** *           Valid range: 1..4
1545:.\Generated_Source\PSoC5/ADC_DelSig_1.c **** *  restart:  Restart option. 1 means start the ADC and restart the conversion.
1546:.\Generated_Source\PSoC5/ADC_DelSig_1.c **** *                            0 means do not start the ADC and conversion.
1547:.\Generated_Source\PSoC5/ADC_DelSig_1.c **** *
1548:.\Generated_Source\PSoC5/ADC_DelSig_1.c **** * Return:
1549:.\Generated_Source\PSoC5/ADC_DelSig_1.c **** *  None
1550:.\Generated_Source\PSoC5/ADC_DelSig_1.c **** *
1551:.\Generated_Source\PSoC5/ADC_DelSig_1.c **** *******************************************************************************/
1552:.\Generated_Source\PSoC5/ADC_DelSig_1.c **** void ADC_DelSig_1_SelectConfiguration(uint8 config, uint8 restart)
1553:.\Generated_Source\PSoC5/ADC_DelSig_1.c ****                                               
1554:.\Generated_Source\PSoC5/ADC_DelSig_1.c **** {
1555:.\Generated_Source\PSoC5/ADC_DelSig_1.c ****     /* Check whether the configuration number is valid or not */
1556:.\Generated_Source\PSoC5/ADC_DelSig_1.c ****     if((config > 0u) && (config <= ADC_DelSig_1_DEFAULT_NUM_CONFIGS))
1557:.\Generated_Source\PSoC5/ADC_DelSig_1.c ****     {
1558:.\Generated_Source\PSoC5/ADC_DelSig_1.c ****         /* Set the flag to ensure Start() API doesn't override the 
1559:.\Generated_Source\PSoC5/ADC_DelSig_1.c **** 		*  selected configuration
1560:.\Generated_Source\PSoC5/ADC_DelSig_1.c **** 		*/
1561:.\Generated_Source\PSoC5/ADC_DelSig_1.c ****         if(ADC_DelSig_1_initVar == 0u)
1562:.\Generated_Source\PSoC5/ADC_DelSig_1.c ****         {
1563:.\Generated_Source\PSoC5/ADC_DelSig_1.c ****             ADC_DelSig_1_started = 1u;
1564:.\Generated_Source\PSoC5/ADC_DelSig_1.c ****         }
1565:.\Generated_Source\PSoC5/ADC_DelSig_1.c **** 
1566:.\Generated_Source\PSoC5/ADC_DelSig_1.c ****         /* Update the config flag */
1567:.\Generated_Source\PSoC5/ADC_DelSig_1.c ****         ADC_DelSig_1_Config = config;
1568:.\Generated_Source\PSoC5/ADC_DelSig_1.c **** 
1569:.\Generated_Source\PSoC5/ADC_DelSig_1.c ****         /* Stop the ADC  */
1570:.\Generated_Source\PSoC5/ADC_DelSig_1.c ****         ADC_DelSig_1_Stop();
1571:.\Generated_Source\PSoC5/ADC_DelSig_1.c **** 
ARM GAS  C:\Users\IVYLIU~1\AppData\Local\Temp\cckaBvwB.s 			page 29


1572:.\Generated_Source\PSoC5/ADC_DelSig_1.c ****         /* Set the  ADC registers based on the configuration */
1573:.\Generated_Source\PSoC5/ADC_DelSig_1.c ****         ADC_DelSig_1_InitConfig(config);
1574:.\Generated_Source\PSoC5/ADC_DelSig_1.c **** 
1575:.\Generated_Source\PSoC5/ADC_DelSig_1.c ****         /* Compensate the gain */
1576:.\Generated_Source\PSoC5/ADC_DelSig_1.c ****         ADC_DelSig_1_DEC_GVAL_REG = ADC_DelSig_1_gcor[config - 1u].gval;
1577:.\Generated_Source\PSoC5/ADC_DelSig_1.c ****         CY_SET_REG16(ADC_DelSig_1_DEC_GCOR_16B_PTR, ADC_DelSig_1_gcor[config - 1u].gcor);
1578:.\Generated_Source\PSoC5/ADC_DelSig_1.c **** 
1579:.\Generated_Source\PSoC5/ADC_DelSig_1.c ****         if(restart == 1u)
1580:.\Generated_Source\PSoC5/ADC_DelSig_1.c ****         {
1581:.\Generated_Source\PSoC5/ADC_DelSig_1.c ****             /* Restart the ADC */
1582:.\Generated_Source\PSoC5/ADC_DelSig_1.c ****             ADC_DelSig_1_Start();
1583:.\Generated_Source\PSoC5/ADC_DelSig_1.c **** 
1584:.\Generated_Source\PSoC5/ADC_DelSig_1.c ****             /* Restart the ADC conversion */
1585:.\Generated_Source\PSoC5/ADC_DelSig_1.c ****             ADC_DelSig_1_StartConvert();
1586:.\Generated_Source\PSoC5/ADC_DelSig_1.c ****         }
1587:.\Generated_Source\PSoC5/ADC_DelSig_1.c ****     }
1588:.\Generated_Source\PSoC5/ADC_DelSig_1.c ****     else
1589:.\Generated_Source\PSoC5/ADC_DelSig_1.c ****     {
1590:.\Generated_Source\PSoC5/ADC_DelSig_1.c ****         /* Halt CPU in debug mode if config is out of valid range */
1591:.\Generated_Source\PSoC5/ADC_DelSig_1.c ****         CYASSERT(0u != 0u);
1592:.\Generated_Source\PSoC5/ADC_DelSig_1.c ****     }
1593:.\Generated_Source\PSoC5/ADC_DelSig_1.c **** }
1594:.\Generated_Source\PSoC5/ADC_DelSig_1.c **** 
1595:.\Generated_Source\PSoC5/ADC_DelSig_1.c **** 
1596:.\Generated_Source\PSoC5/ADC_DelSig_1.c **** /*******************************************************************************
1597:.\Generated_Source\PSoC5/ADC_DelSig_1.c **** * Function Name: ADC_DelSig_1_GainCompensation
1598:.\Generated_Source\PSoC5/ADC_DelSig_1.c **** ********************************************************************************
1599:.\Generated_Source\PSoC5/ADC_DelSig_1.c **** *
1600:.\Generated_Source\PSoC5/ADC_DelSig_1.c **** * Summary:
1601:.\Generated_Source\PSoC5/ADC_DelSig_1.c **** *  This API calculates the trim value and then store this to gcor structure.
1602:.\Generated_Source\PSoC5/ADC_DelSig_1.c **** *
1603:.\Generated_Source\PSoC5/ADC_DelSig_1.c **** * Parameters:
1604:.\Generated_Source\PSoC5/ADC_DelSig_1.c **** *  inputRange:  input range for which trim value is to be calculated.
1605:.\Generated_Source\PSoC5/ADC_DelSig_1.c **** *  IdealDecGain:  Ideal Decimator gain for the selected resolution and
1606:.\Generated_Source\PSoC5/ADC_DelSig_1.c **** *                 conversion  mode.
1607:.\Generated_Source\PSoC5/ADC_DelSig_1.c **** *  IdealOddDecGain:  Ideal odd decimation gain for the selected resolution and
1608:.\Generated_Source\PSoC5/ADC_DelSig_1.c ****                      conversion mode.
1609:.\Generated_Source\PSoC5/ADC_DelSig_1.c **** *  resolution:  Resolution to select the proper flash location for trim value.
1610:.\Generated_Source\PSoC5/ADC_DelSig_1.c **** *  config:      Specifies the configuration number
1611:.\Generated_Source\PSoC5/ADC_DelSig_1.c **** *               Valid range: 1..4
1612:.\Generated_Source\PSoC5/ADC_DelSig_1.c **** *
1613:.\Generated_Source\PSoC5/ADC_DelSig_1.c **** * Return:
1614:.\Generated_Source\PSoC5/ADC_DelSig_1.c **** *  None
1615:.\Generated_Source\PSoC5/ADC_DelSig_1.c **** *
1616:.\Generated_Source\PSoC5/ADC_DelSig_1.c **** *******************************************************************************/
1617:.\Generated_Source\PSoC5/ADC_DelSig_1.c **** static void ADC_DelSig_1_GainCompensation(uint8 inputRange, uint16 idealDecGain, uint16 idealOddDec
1618:.\Generated_Source\PSoC5/ADC_DelSig_1.c ****                               uint8 resolution, uint8 config) 
1619:.\Generated_Source\PSoC5/ADC_DelSig_1.c **** {
1620:.\Generated_Source\PSoC5/ADC_DelSig_1.c ****     int8 flash;
1621:.\Generated_Source\PSoC5/ADC_DelSig_1.c **** 	int32 normalised;
1622:.\Generated_Source\PSoC5/ADC_DelSig_1.c **** 	uint16 gcorValue;
1623:.\Generated_Source\PSoC5/ADC_DelSig_1.c ****     uint32 gcorTmp;
1624:.\Generated_Source\PSoC5/ADC_DelSig_1.c **** 
1625:.\Generated_Source\PSoC5/ADC_DelSig_1.c ****     if((config > 0u) && (config <= ADC_DelSig_1_DEFAULT_NUM_CONFIGS))
1626:.\Generated_Source\PSoC5/ADC_DelSig_1.c ****     {
1627:.\Generated_Source\PSoC5/ADC_DelSig_1.c ****         switch(inputRange)
1628:.\Generated_Source\PSoC5/ADC_DelSig_1.c ****         {
ARM GAS  C:\Users\IVYLIU~1\AppData\Local\Temp\cckaBvwB.s 			page 30


1629:.\Generated_Source\PSoC5/ADC_DelSig_1.c ****             case ADC_DelSig_1_IR_VNEG_VREF_DIFF:
1630:.\Generated_Source\PSoC5/ADC_DelSig_1.c ****             case ADC_DelSig_1_IR_VSSA_TO_2VREF:
1631:.\Generated_Source\PSoC5/ADC_DelSig_1.c ****                 /* Normalize the flash Value */
1632:.\Generated_Source\PSoC5/ADC_DelSig_1.c ****                 if(resolution > 15u)
1633:.\Generated_Source\PSoC5/ADC_DelSig_1.c ****                 {
1634:.\Generated_Source\PSoC5/ADC_DelSig_1.c ****                     flash = ADC_DelSig_1_DEC_TRIM_VREF_DIFF_16_20;
1635:.\Generated_Source\PSoC5/ADC_DelSig_1.c ****                 }
1636:.\Generated_Source\PSoC5/ADC_DelSig_1.c ****                 else
1637:.\Generated_Source\PSoC5/ADC_DelSig_1.c ****                 {
1638:.\Generated_Source\PSoC5/ADC_DelSig_1.c ****                     flash = ADC_DelSig_1_DEC_TRIM_VREF_DIFF_8_15;
1639:.\Generated_Source\PSoC5/ADC_DelSig_1.c ****                 }
1640:.\Generated_Source\PSoC5/ADC_DelSig_1.c ****                 break;
1641:.\Generated_Source\PSoC5/ADC_DelSig_1.c **** 
1642:.\Generated_Source\PSoC5/ADC_DelSig_1.c ****             case ADC_DelSig_1_IR_VNEG_VREF_2_DIFF:
1643:.\Generated_Source\PSoC5/ADC_DelSig_1.c ****                 /* Normalize the flash Value */
1644:.\Generated_Source\PSoC5/ADC_DelSig_1.c ****                 if(resolution > 15u)
1645:.\Generated_Source\PSoC5/ADC_DelSig_1.c ****                 {
1646:.\Generated_Source\PSoC5/ADC_DelSig_1.c ****                     flash = ADC_DelSig_1_DEC_TRIM_VREF_2_DIFF_16_20;
1647:.\Generated_Source\PSoC5/ADC_DelSig_1.c ****                 }
1648:.\Generated_Source\PSoC5/ADC_DelSig_1.c ****                 else
1649:.\Generated_Source\PSoC5/ADC_DelSig_1.c ****                 {
1650:.\Generated_Source\PSoC5/ADC_DelSig_1.c ****                     flash = ADC_DelSig_1_DEC_TRIM_VREF_2_DIFF_8_15;
1651:.\Generated_Source\PSoC5/ADC_DelSig_1.c ****                 }
1652:.\Generated_Source\PSoC5/ADC_DelSig_1.c ****                 break;
1653:.\Generated_Source\PSoC5/ADC_DelSig_1.c **** 
1654:.\Generated_Source\PSoC5/ADC_DelSig_1.c ****             case ADC_DelSig_1_IR_VNEG_VREF_4_DIFF:
1655:.\Generated_Source\PSoC5/ADC_DelSig_1.c ****                 /* Normalize the flash Value */
1656:.\Generated_Source\PSoC5/ADC_DelSig_1.c ****                 if(resolution > 15u)
1657:.\Generated_Source\PSoC5/ADC_DelSig_1.c ****                 {
1658:.\Generated_Source\PSoC5/ADC_DelSig_1.c ****                     flash = ADC_DelSig_1_DEC_TRIM_VREF_4_DIFF_16_20;
1659:.\Generated_Source\PSoC5/ADC_DelSig_1.c ****                 }
1660:.\Generated_Source\PSoC5/ADC_DelSig_1.c ****                 else
1661:.\Generated_Source\PSoC5/ADC_DelSig_1.c ****                 {
1662:.\Generated_Source\PSoC5/ADC_DelSig_1.c ****                     flash = ADC_DelSig_1_DEC_TRIM_VREF_4_DIFF_8_15;
1663:.\Generated_Source\PSoC5/ADC_DelSig_1.c ****                 }
1664:.\Generated_Source\PSoC5/ADC_DelSig_1.c ****                 break;
1665:.\Generated_Source\PSoC5/ADC_DelSig_1.c **** 
1666:.\Generated_Source\PSoC5/ADC_DelSig_1.c ****             case ADC_DelSig_1_IR_VNEG_VREF_16_DIFF:
1667:.\Generated_Source\PSoC5/ADC_DelSig_1.c ****                 /* Normalize the flash Value */
1668:.\Generated_Source\PSoC5/ADC_DelSig_1.c ****                 if(resolution > 15u)
1669:.\Generated_Source\PSoC5/ADC_DelSig_1.c ****                 {
1670:.\Generated_Source\PSoC5/ADC_DelSig_1.c ****                     flash = ADC_DelSig_1_DEC_TRIM_VREF_16_DIFF_16_20;
1671:.\Generated_Source\PSoC5/ADC_DelSig_1.c ****                 }
1672:.\Generated_Source\PSoC5/ADC_DelSig_1.c ****                 else
1673:.\Generated_Source\PSoC5/ADC_DelSig_1.c ****                 {
1674:.\Generated_Source\PSoC5/ADC_DelSig_1.c ****                     flash = ADC_DelSig_1_DEC_TRIM_VREF_16_DIFF_8_15;
1675:.\Generated_Source\PSoC5/ADC_DelSig_1.c ****                 }
1676:.\Generated_Source\PSoC5/ADC_DelSig_1.c ****                 break;
1677:.\Generated_Source\PSoC5/ADC_DelSig_1.c **** 
1678:.\Generated_Source\PSoC5/ADC_DelSig_1.c ****             default:
1679:.\Generated_Source\PSoC5/ADC_DelSig_1.c ****                 flash = 0;
1680:.\Generated_Source\PSoC5/ADC_DelSig_1.c ****                 break;
1681:.\Generated_Source\PSoC5/ADC_DelSig_1.c ****         }
1682:.\Generated_Source\PSoC5/ADC_DelSig_1.c **** 
1683:.\Generated_Source\PSoC5/ADC_DelSig_1.c ****         /* Add two values */
1684:.\Generated_Source\PSoC5/ADC_DelSig_1.c **** 		normalised = (int32)idealDecGain + ((int32)flash * 32);
1685:.\Generated_Source\PSoC5/ADC_DelSig_1.c ****         gcorTmp = (uint32)normalised * (uint32)idealOddDecGain;
ARM GAS  C:\Users\IVYLIU~1\AppData\Local\Temp\cckaBvwB.s 			page 31


1686:.\Generated_Source\PSoC5/ADC_DelSig_1.c ****         gcorValue = (uint16)(gcorTmp / ADC_DelSig_1_IDEAL_GAIN_CONST);
1687:.\Generated_Source\PSoC5/ADC_DelSig_1.c **** 
1688:.\Generated_Source\PSoC5/ADC_DelSig_1.c ****         if (resolution < (ADC_DelSig_1_MAX_GVAL - 1u))
1689:.\Generated_Source\PSoC5/ADC_DelSig_1.c ****         {
1690:.\Generated_Source\PSoC5/ADC_DelSig_1.c ****             gcorValue = (gcorValue >> (ADC_DelSig_1_MAX_GVAL - (resolution + 1u)));
1691:.\Generated_Source\PSoC5/ADC_DelSig_1.c ****             ADC_DelSig_1_gcor[config - 1u].gval = (resolution + 1u);
1692:.\Generated_Source\PSoC5/ADC_DelSig_1.c ****         }
1693:.\Generated_Source\PSoC5/ADC_DelSig_1.c ****         else
1694:.\Generated_Source\PSoC5/ADC_DelSig_1.c ****         {
1695:.\Generated_Source\PSoC5/ADC_DelSig_1.c ****             /* Use all 16 bits */
1696:.\Generated_Source\PSoC5/ADC_DelSig_1.c ****             ADC_DelSig_1_gcor[config - 1u].gval = ADC_DelSig_1_MAX_GVAL;
1697:.\Generated_Source\PSoC5/ADC_DelSig_1.c ****         }
1698:.\Generated_Source\PSoC5/ADC_DelSig_1.c **** 
1699:.\Generated_Source\PSoC5/ADC_DelSig_1.c ****         /* Save the gain correction register value */
1700:.\Generated_Source\PSoC5/ADC_DelSig_1.c ****         ADC_DelSig_1_gcor[config - 1u].gcor = gcorValue;
1701:.\Generated_Source\PSoC5/ADC_DelSig_1.c ****     }
1702:.\Generated_Source\PSoC5/ADC_DelSig_1.c ****     else
1703:.\Generated_Source\PSoC5/ADC_DelSig_1.c ****     {
1704:.\Generated_Source\PSoC5/ADC_DelSig_1.c ****         /* Halt CPU in debug mode if config is out of valid range */
1705:.\Generated_Source\PSoC5/ADC_DelSig_1.c ****         CYASSERT(0u != 0u);
1706:.\Generated_Source\PSoC5/ADC_DelSig_1.c ****     }
1707:.\Generated_Source\PSoC5/ADC_DelSig_1.c **** }
1708:.\Generated_Source\PSoC5/ADC_DelSig_1.c **** 
1709:.\Generated_Source\PSoC5/ADC_DelSig_1.c **** 
1710:.\Generated_Source\PSoC5/ADC_DelSig_1.c **** /******************************************************************************
1711:.\Generated_Source\PSoC5/ADC_DelSig_1.c **** * Function Name: ADC_DelSig_1_SetDSMRef0Reg(uint8)
1712:.\Generated_Source\PSoC5/ADC_DelSig_1.c **** ******************************************************************************
1713:.\Generated_Source\PSoC5/ADC_DelSig_1.c **** *
1714:.\Generated_Source\PSoC5/ADC_DelSig_1.c **** * Summary:
1715:.\Generated_Source\PSoC5/ADC_DelSig_1.c **** *  This API sets the DSM_REF0 register. This is written for internal use.
1716:.\Generated_Source\PSoC5/ADC_DelSig_1.c **** *
1717:.\Generated_Source\PSoC5/ADC_DelSig_1.c **** * Parameters:
1718:.\Generated_Source\PSoC5/ADC_DelSig_1.c **** *  value:  Value to be written to DSM_REF0 register.
1719:.\Generated_Source\PSoC5/ADC_DelSig_1.c **** *
1720:.\Generated_Source\PSoC5/ADC_DelSig_1.c **** * Return:
1721:.\Generated_Source\PSoC5/ADC_DelSig_1.c **** *  None
1722:.\Generated_Source\PSoC5/ADC_DelSig_1.c **** *
1723:.\Generated_Source\PSoC5/ADC_DelSig_1.c **** ******************************************************************************/
1724:.\Generated_Source\PSoC5/ADC_DelSig_1.c **** static void ADC_DelSig_1_SetDSMRef0Reg(uint8 value) 
1725:.\Generated_Source\PSoC5/ADC_DelSig_1.c **** {
  26              		.loc 1 1725 0
  27              		.cfi_startproc
  28              		@ args = 0, pretend = 0, frame = 0
  29              		@ frame_needed = 0, uses_anonymous_args = 0
  30              	.LVL0:
  31 0000 F8B5     		push	{r3, r4, r5, r6, r7, lr}
  32              		.cfi_def_cfa_offset 24
  33              		.cfi_offset 3, -24
  34              		.cfi_offset 4, -20
  35              		.cfi_offset 5, -16
  36              		.cfi_offset 6, -12
  37              		.cfi_offset 7, -8
  38              		.cfi_offset 14, -4
  39              		.loc 1 1725 0
  40 0002 0746     		mov	r7, r0
1726:.\Generated_Source\PSoC5/ADC_DelSig_1.c ****     uint8 enableInterrupts;
1727:.\Generated_Source\PSoC5/ADC_DelSig_1.c ****     enableInterrupts = CyEnterCriticalSection();
ARM GAS  C:\Users\IVYLIU~1\AppData\Local\Temp\cckaBvwB.s 			page 32


  41              		.loc 1 1727 0
  42 0004 FFF7FEFF 		bl	CyEnterCriticalSection
  43              	.LVL1:
  44 0008 0646     		mov	r6, r0
  45              	.LVL2:
1728:.\Generated_Source\PSoC5/ADC_DelSig_1.c **** 
1729:.\Generated_Source\PSoC5/ADC_DelSig_1.c ****     /* Disable PRES, Enable power to VCMBUF0, REFBUF0 and REFBUF1, enable PRES */
1730:.\Generated_Source\PSoC5/ADC_DelSig_1.c ****     ADC_DelSig_1_RESET_CR4_REG |= (ADC_DelSig_1_IGNORE_PRESA1 | ADC_DelSig_1_IGNORE_PRESD1);
  46              		.loc 1 1730 0
  47 000a 0E4D     		ldr	r5, .L2
1731:.\Generated_Source\PSoC5/ADC_DelSig_1.c ****     ADC_DelSig_1_RESET_CR5_REG |= (ADC_DelSig_1_IGNORE_PRESA2 | ADC_DelSig_1_IGNORE_PRESD2);
  48              		.loc 1 1731 0
  49 000c 0E4C     		ldr	r4, .L2+4
1730:.\Generated_Source\PSoC5/ADC_DelSig_1.c ****     ADC_DelSig_1_RESET_CR5_REG |= (ADC_DelSig_1_IGNORE_PRESA2 | ADC_DelSig_1_IGNORE_PRESD2);
  50              		.loc 1 1730 0
  51 000e 2B78     		ldrb	r3, [r5]	@ zero_extendqisi2
1732:.\Generated_Source\PSoC5/ADC_DelSig_1.c ****     ADC_DelSig_1_DSM_REF0_REG = value;
1733:.\Generated_Source\PSoC5/ADC_DelSig_1.c **** 
1734:.\Generated_Source\PSoC5/ADC_DelSig_1.c ****     /* Wait for 3 microseconds */
1735:.\Generated_Source\PSoC5/ADC_DelSig_1.c ****     CyDelayUs(ADC_DelSig_1_PRES_DELAY_TIME);
  52              		.loc 1 1735 0
  53 0010 0320     		movs	r0, #3
1730:.\Generated_Source\PSoC5/ADC_DelSig_1.c ****     ADC_DelSig_1_RESET_CR5_REG |= (ADC_DelSig_1_IGNORE_PRESA2 | ADC_DelSig_1_IGNORE_PRESD2);
  54              		.loc 1 1730 0
  55 0012 43F00303 		orr	r3, r3, #3
  56 0016 2B70     		strb	r3, [r5]
1731:.\Generated_Source\PSoC5/ADC_DelSig_1.c ****     ADC_DelSig_1_DSM_REF0_REG = value;
  57              		.loc 1 1731 0
  58 0018 2378     		ldrb	r3, [r4]	@ zero_extendqisi2
  59 001a 43F00303 		orr	r3, r3, #3
  60 001e 2370     		strb	r3, [r4]
1732:.\Generated_Source\PSoC5/ADC_DelSig_1.c ****     ADC_DelSig_1_DSM_REF0_REG = value;
  61              		.loc 1 1732 0
  62 0020 0A4B     		ldr	r3, .L2+8
  63 0022 1F70     		strb	r7, [r3]
  64              		.loc 1 1735 0
  65 0024 FFF7FEFF 		bl	CyDelayUs
  66              	.LVL3:
1736:.\Generated_Source\PSoC5/ADC_DelSig_1.c ****     /* Enable the press circuit */
1737:.\Generated_Source\PSoC5/ADC_DelSig_1.c ****     ADC_DelSig_1_RESET_CR4_REG &= (uint8)~(ADC_DelSig_1_IGNORE_PRESA1 | ADC_DelSig_1_IGNORE_PRESD1)
  67              		.loc 1 1737 0
  68 0028 2B78     		ldrb	r3, [r5]	@ zero_extendqisi2
1738:.\Generated_Source\PSoC5/ADC_DelSig_1.c ****     ADC_DelSig_1_RESET_CR5_REG &= (uint8)~(ADC_DelSig_1_IGNORE_PRESA2 | ADC_DelSig_1_IGNORE_PRESD2)
1739:.\Generated_Source\PSoC5/ADC_DelSig_1.c **** 
1740:.\Generated_Source\PSoC5/ADC_DelSig_1.c ****     CyExitCriticalSection(enableInterrupts);
  69              		.loc 1 1740 0
  70 002a 3046     		mov	r0, r6
1737:.\Generated_Source\PSoC5/ADC_DelSig_1.c ****     ADC_DelSig_1_RESET_CR5_REG &= (uint8)~(ADC_DelSig_1_IGNORE_PRESA2 | ADC_DelSig_1_IGNORE_PRESD2)
  71              		.loc 1 1737 0
  72 002c 03F0FC03 		and	r3, r3, #252
  73 0030 2B70     		strb	r3, [r5]
1738:.\Generated_Source\PSoC5/ADC_DelSig_1.c ****     ADC_DelSig_1_RESET_CR5_REG &= (uint8)~(ADC_DelSig_1_IGNORE_PRESA2 | ADC_DelSig_1_IGNORE_PRESD2)
  74              		.loc 1 1738 0
  75 0032 2378     		ldrb	r3, [r4]	@ zero_extendqisi2
  76 0034 03F0FC03 		and	r3, r3, #252
  77 0038 2370     		strb	r3, [r4]
1741:.\Generated_Source\PSoC5/ADC_DelSig_1.c **** }
ARM GAS  C:\Users\IVYLIU~1\AppData\Local\Temp\cckaBvwB.s 			page 33


  78              		.loc 1 1741 0
  79 003a BDE8F840 		pop	{r3, r4, r5, r6, r7, lr}
  80              		.cfi_restore 14
  81              		.cfi_restore 7
  82              		.cfi_restore 6
  83              		.cfi_restore 5
  84              		.cfi_restore 4
  85              		.cfi_restore 3
  86              		.cfi_def_cfa_offset 0
  87              	.LVL4:
1740:.\Generated_Source\PSoC5/ADC_DelSig_1.c **** }
  88              		.loc 1 1740 0
  89 003e FFF7FEBF 		b	CyExitCriticalSection
  90              	.LVL5:
  91              	.L3:
  92 0042 00BF     		.align	2
  93              	.L2:
  94 0044 F8460040 		.word	1073759992
  95 0048 F9460040 		.word	1073759993
  96 004c 92580040 		.word	1073764498
  97              		.cfi_endproc
  98              	.LFE22:
  99              		.size	ADC_DelSig_1_SetDSMRef0Reg, .-ADC_DelSig_1_SetDSMRef0Reg
 100              		.section	.text.ADC_DelSig_1_InitConfig,"ax",%progbits
 101              		.align	1
 102              		.thumb
 103              		.thumb_func
 104              		.type	ADC_DelSig_1_InitConfig, %function
 105              	ADC_DelSig_1_InitConfig:
 106              	.LFB19:
1243:.\Generated_Source\PSoC5/ADC_DelSig_1.c ****     ADC_DelSig_1_stopConversion = 0u;
 107              		.loc 1 1243 0
 108              		.cfi_startproc
 109              		@ args = 0, pretend = 0, frame = 0
 110              		@ frame_needed = 0, uses_anonymous_args = 0
 111              	.LVL6:
 112 0000 F8B5     		push	{r3, r4, r5, r6, r7, lr}
 113              		.cfi_def_cfa_offset 24
 114              		.cfi_offset 3, -24
 115              		.cfi_offset 4, -20
 116              		.cfi_offset 5, -16
 117              		.cfi_offset 6, -12
 118              		.cfi_offset 7, -8
 119              		.cfi_offset 14, -4
1244:.\Generated_Source\PSoC5/ADC_DelSig_1.c **** 
 120              		.loc 1 1244 0
 121 0002 A24B     		ldr	r3, .L11
 122 0004 0024     		movs	r4, #0
1246:.\Generated_Source\PSoC5/ADC_DelSig_1.c ****     {
 123              		.loc 1 1246 0
 124 0006 0128     		cmp	r0, #1
1243:.\Generated_Source\PSoC5/ADC_DelSig_1.c ****     ADC_DelSig_1_stopConversion = 0u;
 125              		.loc 1 1243 0
 126 0008 0546     		mov	r5, r0
1244:.\Generated_Source\PSoC5/ADC_DelSig_1.c **** 
 127              		.loc 1 1244 0
 128 000a 1C70     		strb	r4, [r3]
ARM GAS  C:\Users\IVYLIU~1\AppData\Local\Temp\cckaBvwB.s 			page 34


1246:.\Generated_Source\PSoC5/ADC_DelSig_1.c ****     {
 129              		.loc 1 1246 0
 130 000c 4CD1     		bne	.L5
1249:.\Generated_Source\PSoC5/ADC_DelSig_1.c ****         ADC_DelSig_1_DEC_SHIFT1_REG  = ADC_DelSig_1_CFG1_DEC_SHIFT1;
 131              		.loc 1 1249 0
 132 000e A04B     		ldr	r3, .L11+4
 133 0010 3822     		movs	r2, #56
 134 0012 1A70     		strb	r2, [r3]
1250:.\Generated_Source\PSoC5/ADC_DelSig_1.c ****         ADC_DelSig_1_DEC_SHIFT2_REG  = ADC_DelSig_1_CFG1_DEC_SHIFT2;
 135              		.loc 1 1250 0
 136 0014 0422     		movs	r2, #4
 137 0016 9A70     		strb	r2, [r3, #2]
1251:.\Generated_Source\PSoC5/ADC_DelSig_1.c ****         ADC_DelSig_1_DEC_DR2_REG     = ADC_DelSig_1_CFG1_DEC_DR2;
 138              		.loc 1 1251 0
 139 0018 0622     		movs	r2, #6
 140 001a DA70     		strb	r2, [r3, #3]
1252:.\Generated_Source\PSoC5/ADC_DelSig_1.c ****         ADC_DelSig_1_DEC_DR2H_REG    = ADC_DelSig_1_CFG1_DEC_DR2H;
 141              		.loc 1 1252 0
 142 001c 1C71     		strb	r4, [r3, #4]
1254:.\Generated_Source\PSoC5/ADC_DelSig_1.c ****         ADC_DelSig_1_DEC_OCOR_REG    = ADC_DelSig_1_CFG1_DEC_OCOR;
 143              		.loc 1 1254 0
 144 001e 3F22     		movs	r2, #63
1253:.\Generated_Source\PSoC5/ADC_DelSig_1.c ****         ADC_DelSig_1_DEC_DR1_REG     = ADC_DelSig_1_CFG1_DEC_DR1;
 145              		.loc 1 1253 0
 146 0020 5C71     		strb	r4, [r3, #5]
1254:.\Generated_Source\PSoC5/ADC_DelSig_1.c ****         ADC_DelSig_1_DEC_OCOR_REG    = ADC_DelSig_1_CFG1_DEC_OCOR;
 147              		.loc 1 1254 0
 148 0022 0633     		adds	r3, r3, #6
 149 0024 1A70     		strb	r2, [r3]
1260:.\Generated_Source\PSoC5/ADC_DelSig_1.c ****         ADC_DelSig_1_DSM_CR5_REG     = ADC_DelSig_1_CFG1_DSM_CR5;
 150              		.loc 1 1260 0
 151 0026 5022     		movs	r2, #80
1255:.\Generated_Source\PSoC5/ADC_DelSig_1.c ****         ADC_DelSig_1_DEC_OCORM_REG   = ADC_DelSig_1_CFG1_DEC_OCORM;
 152              		.loc 1 1255 0
 153 0028 9C70     		strb	r4, [r3, #2]
1256:.\Generated_Source\PSoC5/ADC_DelSig_1.c ****         ADC_DelSig_1_DEC_OCORH_REG   = ADC_DelSig_1_CFG1_DEC_OCORH;
 154              		.loc 1 1256 0
 155 002a DC70     		strb	r4, [r3, #3]
1257:.\Generated_Source\PSoC5/ADC_DelSig_1.c ****         ADC_DelSig_1_DEC_COHER_REG   = ADC_DelSig_1_CFG1_DEC_COHER;
 156              		.loc 1 1257 0
 157 002c 1C71     		strb	r4, [r3, #4]
1258:.\Generated_Source\PSoC5/ADC_DelSig_1.c **** 
 158              		.loc 1 1258 0
 159 002e 9873     		strb	r0, [r3, #14]
1260:.\Generated_Source\PSoC5/ADC_DelSig_1.c ****         ADC_DelSig_1_DSM_CR5_REG     = ADC_DelSig_1_CFG1_DSM_CR5;
 160              		.loc 1 1260 0
 161 0030 83F87E2A 		strb	r2, [r3, #2686]
1261:.\Generated_Source\PSoC5/ADC_DelSig_1.c ****         ADC_DelSig_1_DSM_CR6_REG     = ADC_DelSig_1_CFG1_DSM_CR6;
 162              		.loc 1 1261 0
 163 0034 0A22     		movs	r2, #10
 164 0036 83F87F2A 		strb	r2, [r3, #2687]
1262:.\Generated_Source\PSoC5/ADC_DelSig_1.c ****         ADC_DelSig_1_DSM_CR7_REG     = ADC_DelSig_1_CFG1_DSM_CR7;
 165              		.loc 1 1262 0
 166 003a 2C22     		movs	r2, #44
 167 003c 83F8802A 		strb	r2, [r3, #2688]
1264:.\Generated_Source\PSoC5/ADC_DelSig_1.c ****         ADC_DelSig_1_DSM_CR11_REG    = ADC_DelSig_1_CFG1_DSM_CR11;
 168              		.loc 1 1264 0
ARM GAS  C:\Users\IVYLIU~1\AppData\Local\Temp\cckaBvwB.s 			page 35


 169 0040 4422     		movs	r2, #68
1263:.\Generated_Source\PSoC5/ADC_DelSig_1.c ****         ADC_DelSig_1_DSM_CR10_REG    = ADC_DelSig_1_CFG1_DSM_CR10;
 170              		.loc 1 1263 0
 171 0042 83F8814A 		strb	r4, [r3, #2689]
1264:.\Generated_Source\PSoC5/ADC_DelSig_1.c ****         ADC_DelSig_1_DSM_CR11_REG    = ADC_DelSig_1_CFG1_DSM_CR11;
 172              		.loc 1 1264 0
 173 0046 83F8842A 		strb	r2, [r3, #2692]
1265:.\Generated_Source\PSoC5/ADC_DelSig_1.c ****         ADC_DelSig_1_DSM_CR12_REG    = ADC_DelSig_1_CFG1_DSM_CR12;
 174              		.loc 1 1265 0
 175 004a 4822     		movs	r2, #72
 176 004c 83F8852A 		strb	r2, [r3, #2693]
1267:.\Generated_Source\PSoC5/ADC_DelSig_1.c ****         ADC_DelSig_1_DSM_CR15_REG    = ADC_DelSig_1_CFG1_DSM_CR15;
 177              		.loc 1 1267 0
 178 0050 0227     		movs	r7, #2
1268:.\Generated_Source\PSoC5/ADC_DelSig_1.c ****         ADC_DelSig_1_DSM_CR16_REG    = ADC_DelSig_1_CFG1_DSM_CR16;
 179              		.loc 1 1268 0
 180 0052 1222     		movs	r2, #18
1266:.\Generated_Source\PSoC5/ADC_DelSig_1.c ****         ADC_DelSig_1_DSM_CR14_REG    = ADC_DelSig_1_CFG1_DSM_CR14;
 181              		.loc 1 1266 0
 182 0054 83F8860A 		strb	r0, [r3, #2694]
1267:.\Generated_Source\PSoC5/ADC_DelSig_1.c ****         ADC_DelSig_1_DSM_CR15_REG    = ADC_DelSig_1_CFG1_DSM_CR15;
 183              		.loc 1 1267 0
 184 0058 83F8887A 		strb	r7, [r3, #2696]
1268:.\Generated_Source\PSoC5/ADC_DelSig_1.c ****         ADC_DelSig_1_DSM_CR16_REG    = ADC_DelSig_1_CFG1_DSM_CR16;
 185              		.loc 1 1268 0
 186 005c 83F8892A 		strb	r2, [r3, #2697]
1269:.\Generated_Source\PSoC5/ADC_DelSig_1.c ****         ADC_DelSig_1_DSM_CR17_REG    = ADC_DelSig_1_CFG1_DSM_CR17;
 187              		.loc 1 1269 0
 188 0060 2822     		movs	r2, #40
 189 0062 83F88A2A 		strb	r2, [r3, #2698]
1270:.\Generated_Source\PSoC5/ADC_DelSig_1.c ****         /* Set DSM_REF0_REG by disabling and enabling the PRESS circuit */
 190              		.loc 1 1270 0
 191 0066 EB22     		movs	r2, #235
 192 0068 83F88B2A 		strb	r2, [r3, #2699]
1272:.\Generated_Source\PSoC5/ADC_DelSig_1.c ****         ADC_DelSig_1_DSM_REF2_REG    = ADC_DelSig_1_CFG1_DSM_REF2;
 193              		.loc 1 1272 0
 194 006c 5220     		movs	r0, #82
 195              	.LVL7:
 196 006e FFF7FEFF 		bl	ADC_DelSig_1_SetDSMRef0Reg
 197              	.LVL8:
1273:.\Generated_Source\PSoC5/ADC_DelSig_1.c ****         ADC_DelSig_1_DSM_REF3_REG    = ADC_DelSig_1_CFG1_DSM_REF3;
 198              		.loc 1 1273 0
 199 0072 884B     		ldr	r3, .L11+8
 200 0074 5822     		movs	r2, #88
1276:.\Generated_Source\PSoC5/ADC_DelSig_1.c ****         ADC_DelSig_1_DSM_BUF1_REG    = ADC_DelSig_1_CFG1_DSM_BUF1;
 201              		.loc 1 1276 0
 202 0076 0526     		movs	r6, #5
1273:.\Generated_Source\PSoC5/ADC_DelSig_1.c ****         ADC_DelSig_1_DSM_REF3_REG    = ADC_DelSig_1_CFG1_DSM_REF3;
 203              		.loc 1 1273 0
 204 0078 1A70     		strb	r2, [r3]
1288:.\Generated_Source\PSoC5/ADC_DelSig_1.c ****             #endif /* ADC_DelSig_1_IR_VSSA_TO_2VREF) */
 205              		.loc 1 1288 0
 206 007a 2046     		mov	r0, r4
1274:.\Generated_Source\PSoC5/ADC_DelSig_1.c **** 
 207              		.loc 1 1274 0
 208 007c 5C70     		strb	r4, [r3, #1]
1276:.\Generated_Source\PSoC5/ADC_DelSig_1.c ****         ADC_DelSig_1_DSM_BUF1_REG    = ADC_DelSig_1_CFG1_DSM_BUF1;
ARM GAS  C:\Users\IVYLIU~1\AppData\Local\Temp\cckaBvwB.s 			page 36


 209              		.loc 1 1276 0
 210 007e 9E71     		strb	r6, [r3, #6]
1277:.\Generated_Source\PSoC5/ADC_DelSig_1.c ****         ADC_DelSig_1_DSM_BUF2_REG    = ADC_DelSig_1_CFG1_DSM_BUF2;
 211              		.loc 1 1277 0
 212 0080 DF71     		strb	r7, [r3, #7]
1278:.\Generated_Source\PSoC5/ADC_DelSig_1.c ****         ADC_DelSig_1_DSM_BUF3_REG    = ADC_DelSig_1_CFG1_DSM_BUF3;
 213              		.loc 1 1278 0
 214 0082 1C72     		strb	r4, [r3, #8]
1279:.\Generated_Source\PSoC5/ADC_DelSig_1.c **** 
 215              		.loc 1 1279 0
 216 0084 5C72     		strb	r4, [r3, #9]
1288:.\Generated_Source\PSoC5/ADC_DelSig_1.c ****             #endif /* ADC_DelSig_1_IR_VSSA_TO_2VREF) */
 217              		.loc 1 1288 0
 218 0086 FFF7FEFF 		bl	ADC_DelSig_1_AMux_Select
 219              	.LVL9:
1300:.\Generated_Source\PSoC5/ADC_DelSig_1.c **** 
 220              		.loc 1 1300 0
 221 008a 43F23332 		movw	r2, #13107
 222 008e 824B     		ldr	r3, .L11+12
1302:.\Generated_Source\PSoC5/ADC_DelSig_1.c **** 
 223              		.loc 1 1302 0
 224 0090 3046     		mov	r0, r6
 225 0092 2946     		mov	r1, r5
1300:.\Generated_Source\PSoC5/ADC_DelSig_1.c **** 
 226              		.loc 1 1300 0
 227 0094 1A60     		str	r2, [r3]
1302:.\Generated_Source\PSoC5/ADC_DelSig_1.c **** 
 228              		.loc 1 1302 0
 229 0096 FFF7FEFF 		bl	ADC_DelSig_1_Ext_CP_Clk_SetDividerRegister
 230              	.LVL10:
1306:.\Generated_Source\PSoC5/ADC_DelSig_1.c ****         #endif /* ADC_DelSig_1_DEFAULT_INTERNAL_CLK */
 231              		.loc 1 1306 0
 232 009a 1820     		movs	r0, #24
 233 009c 2946     		mov	r1, r5
 234 009e FFF7FEFF 		bl	ADC_DelSig_1_theACLK_SetDividerRegister
 235              	.LVL11:
1311:.\Generated_Source\PSoC5/ADC_DelSig_1.c ****         #endif   /* End ADC_DelSig_1_IRQ_REMOVE */
 236              		.loc 1 1311 0
 237 00a2 1D20     		movs	r0, #29
 238 00a4 7D49     		ldr	r1, .L11+16
 239 00a6 ECE0     		b	.L9
 240              	.LVL12:
 241              	.L5:
1316:.\Generated_Source\PSoC5/ADC_DelSig_1.c ****         {
 242              		.loc 1 1316 0
 243 00a8 0228     		cmp	r0, #2
 244 00aa 4CD1     		bne	.L6
1319:.\Generated_Source\PSoC5/ADC_DelSig_1.c ****             ADC_DelSig_1_DEC_SHIFT1_REG  = ADC_DelSig_1_CFG2_DEC_SHIFT1;
 245              		.loc 1 1319 0
 246 00ac 784B     		ldr	r3, .L11+4
 247 00ae 3822     		movs	r2, #56
 248 00b0 1A70     		strb	r2, [r3]
1320:.\Generated_Source\PSoC5/ADC_DelSig_1.c ****             ADC_DelSig_1_DEC_SHIFT2_REG  = ADC_DelSig_1_CFG2_DEC_SHIFT2;
 249              		.loc 1 1320 0
 250 00b2 0422     		movs	r2, #4
 251 00b4 9A70     		strb	r2, [r3, #2]
1321:.\Generated_Source\PSoC5/ADC_DelSig_1.c ****             ADC_DelSig_1_DEC_DR2_REG     = ADC_DelSig_1_CFG2_DEC_DR2;
ARM GAS  C:\Users\IVYLIU~1\AppData\Local\Temp\cckaBvwB.s 			page 37


 252              		.loc 1 1321 0
 253 00b6 0622     		movs	r2, #6
 254 00b8 DA70     		strb	r2, [r3, #3]
1322:.\Generated_Source\PSoC5/ADC_DelSig_1.c ****             ADC_DelSig_1_DEC_DR2H_REG    = ADC_DelSig_1_CFG2_DEC_DR2H;
 255              		.loc 1 1322 0
 256 00ba 1C71     		strb	r4, [r3, #4]
1324:.\Generated_Source\PSoC5/ADC_DelSig_1.c ****             ADC_DelSig_1_DEC_OCOR_REG    = ADC_DelSig_1_CFG2_DEC_OCOR;
 257              		.loc 1 1324 0
 258 00bc 3F22     		movs	r2, #63
1323:.\Generated_Source\PSoC5/ADC_DelSig_1.c ****             ADC_DelSig_1_DEC_DR1_REG     = ADC_DelSig_1_CFG2_DEC_DR1;
 259              		.loc 1 1323 0
 260 00be 5C71     		strb	r4, [r3, #5]
1324:.\Generated_Source\PSoC5/ADC_DelSig_1.c ****             ADC_DelSig_1_DEC_OCOR_REG    = ADC_DelSig_1_CFG2_DEC_OCOR;
 261              		.loc 1 1324 0
 262 00c0 0633     		adds	r3, r3, #6
 263 00c2 1A70     		strb	r2, [r3]
1328:.\Generated_Source\PSoC5/ADC_DelSig_1.c **** 
 264              		.loc 1 1328 0
 265 00c4 0126     		movs	r6, #1
1330:.\Generated_Source\PSoC5/ADC_DelSig_1.c ****             ADC_DelSig_1_DSM_CR5_REG     = ADC_DelSig_1_CFG2_DSM_CR5;
 266              		.loc 1 1330 0
 267 00c6 5022     		movs	r2, #80
1325:.\Generated_Source\PSoC5/ADC_DelSig_1.c ****             ADC_DelSig_1_DEC_OCORM_REG   = ADC_DelSig_1_CFG2_DEC_OCORM;
 268              		.loc 1 1325 0
 269 00c8 9C70     		strb	r4, [r3, #2]
1326:.\Generated_Source\PSoC5/ADC_DelSig_1.c ****             ADC_DelSig_1_DEC_OCORH_REG   = ADC_DelSig_1_CFG2_DEC_OCORH;
 270              		.loc 1 1326 0
 271 00ca DC70     		strb	r4, [r3, #3]
1327:.\Generated_Source\PSoC5/ADC_DelSig_1.c ****             ADC_DelSig_1_DEC_COHER_REG   = ADC_DelSig_1_CFG2_DEC_COHER;
 272              		.loc 1 1327 0
 273 00cc 1C71     		strb	r4, [r3, #4]
1328:.\Generated_Source\PSoC5/ADC_DelSig_1.c **** 
 274              		.loc 1 1328 0
 275 00ce 9E73     		strb	r6, [r3, #14]
1330:.\Generated_Source\PSoC5/ADC_DelSig_1.c ****             ADC_DelSig_1_DSM_CR5_REG     = ADC_DelSig_1_CFG2_DSM_CR5;
 276              		.loc 1 1330 0
 277 00d0 83F87E2A 		strb	r2, [r3, #2686]
1331:.\Generated_Source\PSoC5/ADC_DelSig_1.c ****             ADC_DelSig_1_DSM_CR6_REG     = ADC_DelSig_1_CFG2_DSM_CR6;
 278              		.loc 1 1331 0
 279 00d4 2722     		movs	r2, #39
 280 00d6 83F87F2A 		strb	r2, [r3, #2687]
1332:.\Generated_Source\PSoC5/ADC_DelSig_1.c ****             ADC_DelSig_1_DSM_CR7_REG     = ADC_DelSig_1_CFG2_DSM_CR7;
 281              		.loc 1 1332 0
 282 00da 2C22     		movs	r2, #44
 283 00dc 83F8802A 		strb	r2, [r3, #2688]
1334:.\Generated_Source\PSoC5/ADC_DelSig_1.c ****             ADC_DelSig_1_DSM_CR11_REG    = ADC_DelSig_1_CFG2_DSM_CR11;
 284              		.loc 1 1334 0
 285 00e0 5522     		movs	r2, #85
1333:.\Generated_Source\PSoC5/ADC_DelSig_1.c ****             ADC_DelSig_1_DSM_CR10_REG    = ADC_DelSig_1_CFG2_DSM_CR10;
 286              		.loc 1 1333 0
 287 00e2 83F8814A 		strb	r4, [r3, #2689]
1334:.\Generated_Source\PSoC5/ADC_DelSig_1.c ****             ADC_DelSig_1_DSM_CR11_REG    = ADC_DelSig_1_CFG2_DSM_CR11;
 288              		.loc 1 1334 0
 289 00e6 83F8842A 		strb	r2, [r3, #2692]
1335:.\Generated_Source\PSoC5/ADC_DelSig_1.c ****             ADC_DelSig_1_DSM_CR12_REG    = ADC_DelSig_1_CFG2_DSM_CR12;
 290              		.loc 1 1335 0
 291 00ea 5A22     		movs	r2, #90
ARM GAS  C:\Users\IVYLIU~1\AppData\Local\Temp\cckaBvwB.s 			page 38


 292 00ec 83F8852A 		strb	r2, [r3, #2693]
1336:.\Generated_Source\PSoC5/ADC_DelSig_1.c ****             ADC_DelSig_1_DSM_CR14_REG    = ADC_DelSig_1_CFG2_DSM_CR14;
 293              		.loc 1 1336 0
 294 00f0 0527     		movs	r7, #5
1338:.\Generated_Source\PSoC5/ADC_DelSig_1.c ****             ADC_DelSig_1_DSM_CR16_REG    = ADC_DelSig_1_CFG2_DSM_CR16;
 295              		.loc 1 1338 0
 296 00f2 1122     		movs	r2, #17
1336:.\Generated_Source\PSoC5/ADC_DelSig_1.c ****             ADC_DelSig_1_DSM_CR14_REG    = ADC_DelSig_1_CFG2_DSM_CR14;
 297              		.loc 1 1336 0
 298 00f4 83F8867A 		strb	r7, [r3, #2694]
1337:.\Generated_Source\PSoC5/ADC_DelSig_1.c ****             ADC_DelSig_1_DSM_CR15_REG    = ADC_DelSig_1_CFG2_DSM_CR15;
 299              		.loc 1 1337 0
 300 00f8 83F8886A 		strb	r6, [r3, #2696]
1338:.\Generated_Source\PSoC5/ADC_DelSig_1.c ****             ADC_DelSig_1_DSM_CR16_REG    = ADC_DelSig_1_CFG2_DSM_CR16;
 301              		.loc 1 1338 0
 302 00fc 83F8892A 		strb	r2, [r3, #2697]
1339:.\Generated_Source\PSoC5/ADC_DelSig_1.c ****             ADC_DelSig_1_DSM_CR17_REG    = ADC_DelSig_1_CFG2_DSM_CR17;
 303              		.loc 1 1339 0
 304 0100 1922     		movs	r2, #25
 305 0102 83F88A2A 		strb	r2, [r3, #2698]
1340:.\Generated_Source\PSoC5/ADC_DelSig_1.c ****             /* Set DSM_REF0_REG by disabling and enabling the PRESS cirucit */
 306              		.loc 1 1340 0
 307 0106 9722     		movs	r2, #151
 308 0108 83F88B2A 		strb	r2, [r3, #2699]
1342:.\Generated_Source\PSoC5/ADC_DelSig_1.c ****             ADC_DelSig_1_DSM_REF2_REG    = ADC_DelSig_1_CFG2_DSM_REF2;
 309              		.loc 1 1342 0
 310 010c 4420     		movs	r0, #68
 311              	.LVL13:
 312 010e FFF7FEFF 		bl	ADC_DelSig_1_SetDSMRef0Reg
 313              	.LVL14:
1343:.\Generated_Source\PSoC5/ADC_DelSig_1.c ****             ADC_DelSig_1_DSM_REF3_REG    = ADC_DelSig_1_CFG2_DSM_REF3;
 314              		.loc 1 1343 0
 315 0112 604B     		ldr	r3, .L11+8
 316 0114 5822     		movs	r2, #88
 317 0116 1A70     		strb	r2, [r3]
1359:.\Generated_Source\PSoC5/ADC_DelSig_1.c ****                 #endif /* ADC_DelSig_1_IR_VSSA_TO_2VREF) */
 318              		.loc 1 1359 0
 319 0118 2046     		mov	r0, r4
1344:.\Generated_Source\PSoC5/ADC_DelSig_1.c **** 
 320              		.loc 1 1344 0
 321 011a 5C70     		strb	r4, [r3, #1]
1346:.\Generated_Source\PSoC5/ADC_DelSig_1.c ****             ADC_DelSig_1_DSM_BUF1_REG    = ADC_DelSig_1_CFG2_DSM_BUF1;
 322              		.loc 1 1346 0
 323 011c 9F71     		strb	r7, [r3, #6]
1347:.\Generated_Source\PSoC5/ADC_DelSig_1.c ****             ADC_DelSig_1_DSM_BUF2_REG    = ADC_DelSig_1_CFG2_DSM_BUF2;
 324              		.loc 1 1347 0
 325 011e DD71     		strb	r5, [r3, #7]
1348:.\Generated_Source\PSoC5/ADC_DelSig_1.c ****             ADC_DelSig_1_DSM_BUF3_REG    = ADC_DelSig_1_CFG2_DSM_BUF3;
 326              		.loc 1 1348 0
 327 0120 1C72     		strb	r4, [r3, #8]
1349:.\Generated_Source\PSoC5/ADC_DelSig_1.c **** 
 328              		.loc 1 1349 0
 329 0122 5C72     		strb	r4, [r3, #9]
1359:.\Generated_Source\PSoC5/ADC_DelSig_1.c ****                 #endif /* ADC_DelSig_1_IR_VSSA_TO_2VREF) */
 330              		.loc 1 1359 0
 331 0124 FFF7FEFF 		bl	ADC_DelSig_1_AMux_Select
 332              	.LVL15:
ARM GAS  C:\Users\IVYLIU~1\AppData\Local\Temp\cckaBvwB.s 			page 39


1371:.\Generated_Source\PSoC5/ADC_DelSig_1.c **** 
 333              		.loc 1 1371 0
 334 0128 5B4B     		ldr	r3, .L11+12
 335 012a 4FF47A42 		mov	r2, #64000
1373:.\Generated_Source\PSoC5/ADC_DelSig_1.c **** 
 336              		.loc 1 1373 0
 337 012e 0820     		movs	r0, #8
 338 0130 3146     		mov	r1, r6
1371:.\Generated_Source\PSoC5/ADC_DelSig_1.c **** 
 339              		.loc 1 1371 0
 340 0132 1A60     		str	r2, [r3]
1373:.\Generated_Source\PSoC5/ADC_DelSig_1.c **** 
 341              		.loc 1 1373 0
 342 0134 FFF7FEFF 		bl	ADC_DelSig_1_Ext_CP_Clk_SetDividerRegister
 343              	.LVL16:
1377:.\Generated_Source\PSoC5/ADC_DelSig_1.c ****             #endif /* ADC_DelSig_1_DEFAULT_INTERNAL_CLK */
 344              		.loc 1 1377 0
 345 0138 2520     		movs	r0, #37
 346 013a 3146     		mov	r1, r6
 347 013c FFF7FEFF 		bl	ADC_DelSig_1_theACLK_SetDividerRegister
 348              	.LVL17:
1382:.\Generated_Source\PSoC5/ADC_DelSig_1.c ****             #endif   /* End ADC_DelSig_1_IRQ_REMOVE */
 349              		.loc 1 1382 0
 350 0140 1D20     		movs	r0, #29
 351 0142 5749     		ldr	r1, .L11+20
 352 0144 9DE0     		b	.L9
 353              	.LVL18:
 354              	.L6:
1388:.\Generated_Source\PSoC5/ADC_DelSig_1.c ****         {
 355              		.loc 1 1388 0
 356 0146 0328     		cmp	r0, #3
 357 0148 4DD1     		bne	.L7
1391:.\Generated_Source\PSoC5/ADC_DelSig_1.c ****             ADC_DelSig_1_DEC_SHIFT1_REG  = ADC_DelSig_1_CFG3_DEC_SHIFT1;
 358              		.loc 1 1391 0
 359 014a 514B     		ldr	r3, .L11+4
 360 014c 3822     		movs	r2, #56
 361 014e 1A70     		strb	r2, [r3]
1392:.\Generated_Source\PSoC5/ADC_DelSig_1.c ****             ADC_DelSig_1_DEC_SHIFT2_REG  = ADC_DelSig_1_CFG3_DEC_SHIFT2;
 362              		.loc 1 1392 0
 363 0150 0422     		movs	r2, #4
 364 0152 9A70     		strb	r2, [r3, #2]
1393:.\Generated_Source\PSoC5/ADC_DelSig_1.c ****             ADC_DelSig_1_DEC_DR2_REG     = ADC_DelSig_1_CFG3_DEC_DR2;
 365              		.loc 1 1393 0
 366 0154 0622     		movs	r2, #6
 367 0156 DA70     		strb	r2, [r3, #3]
1394:.\Generated_Source\PSoC5/ADC_DelSig_1.c ****             ADC_DelSig_1_DEC_DR2H_REG    = ADC_DelSig_1_CFG3_DEC_DR2H;
 368              		.loc 1 1394 0
 369 0158 1C71     		strb	r4, [r3, #4]
1396:.\Generated_Source\PSoC5/ADC_DelSig_1.c ****             ADC_DelSig_1_DEC_OCOR_REG    = ADC_DelSig_1_CFG3_DEC_OCOR;
 370              		.loc 1 1396 0
 371 015a 3F22     		movs	r2, #63
1395:.\Generated_Source\PSoC5/ADC_DelSig_1.c ****             ADC_DelSig_1_DEC_DR1_REG     = ADC_DelSig_1_CFG3_DEC_DR1;
 372              		.loc 1 1395 0
 373 015c 5C71     		strb	r4, [r3, #5]
1396:.\Generated_Source\PSoC5/ADC_DelSig_1.c ****             ADC_DelSig_1_DEC_OCOR_REG    = ADC_DelSig_1_CFG3_DEC_OCOR;
 374              		.loc 1 1396 0
 375 015e 0633     		adds	r3, r3, #6
ARM GAS  C:\Users\IVYLIU~1\AppData\Local\Temp\cckaBvwB.s 			page 40


 376 0160 1A70     		strb	r2, [r3]
1400:.\Generated_Source\PSoC5/ADC_DelSig_1.c **** 
 377              		.loc 1 1400 0
 378 0162 0125     		movs	r5, #1
1402:.\Generated_Source\PSoC5/ADC_DelSig_1.c ****             ADC_DelSig_1_DSM_CR5_REG     = ADC_DelSig_1_CFG3_DSM_CR5;
 379              		.loc 1 1402 0
 380 0164 5022     		movs	r2, #80
1397:.\Generated_Source\PSoC5/ADC_DelSig_1.c ****             ADC_DelSig_1_DEC_OCORM_REG   = ADC_DelSig_1_CFG3_DEC_OCORM;
 381              		.loc 1 1397 0
 382 0166 9C70     		strb	r4, [r3, #2]
1398:.\Generated_Source\PSoC5/ADC_DelSig_1.c ****             ADC_DelSig_1_DEC_OCORH_REG   = ADC_DelSig_1_CFG3_DEC_OCORH;
 383              		.loc 1 1398 0
 384 0168 DC70     		strb	r4, [r3, #3]
1399:.\Generated_Source\PSoC5/ADC_DelSig_1.c ****             ADC_DelSig_1_DEC_COHER_REG   = ADC_DelSig_1_CFG3_DEC_COHER;
 385              		.loc 1 1399 0
 386 016a 1C71     		strb	r4, [r3, #4]
1400:.\Generated_Source\PSoC5/ADC_DelSig_1.c **** 
 387              		.loc 1 1400 0
 388 016c 9D73     		strb	r5, [r3, #14]
1402:.\Generated_Source\PSoC5/ADC_DelSig_1.c ****             ADC_DelSig_1_DSM_CR5_REG     = ADC_DelSig_1_CFG3_DSM_CR5;
 389              		.loc 1 1402 0
 390 016e 83F87E2A 		strb	r2, [r3, #2686]
1403:.\Generated_Source\PSoC5/ADC_DelSig_1.c ****             ADC_DelSig_1_DSM_CR6_REG     = ADC_DelSig_1_CFG3_DSM_CR6;
 391              		.loc 1 1403 0
 392 0172 2722     		movs	r2, #39
 393 0174 83F87F2A 		strb	r2, [r3, #2687]
1404:.\Generated_Source\PSoC5/ADC_DelSig_1.c ****             ADC_DelSig_1_DSM_CR7_REG     = ADC_DelSig_1_CFG3_DSM_CR7;
 394              		.loc 1 1404 0
 395 0178 2C22     		movs	r2, #44
 396 017a 83F8802A 		strb	r2, [r3, #2688]
1406:.\Generated_Source\PSoC5/ADC_DelSig_1.c ****             ADC_DelSig_1_DSM_CR11_REG    = ADC_DelSig_1_CFG3_DSM_CR11;
 397              		.loc 1 1406 0
 398 017e 5522     		movs	r2, #85
1405:.\Generated_Source\PSoC5/ADC_DelSig_1.c ****             ADC_DelSig_1_DSM_CR10_REG    = ADC_DelSig_1_CFG3_DSM_CR10;
 399              		.loc 1 1405 0
 400 0180 83F8814A 		strb	r4, [r3, #2689]
1406:.\Generated_Source\PSoC5/ADC_DelSig_1.c ****             ADC_DelSig_1_DSM_CR11_REG    = ADC_DelSig_1_CFG3_DSM_CR11;
 401              		.loc 1 1406 0
 402 0184 83F8842A 		strb	r2, [r3, #2692]
1407:.\Generated_Source\PSoC5/ADC_DelSig_1.c ****             ADC_DelSig_1_DSM_CR12_REG    = ADC_DelSig_1_CFG3_DSM_CR12;
 403              		.loc 1 1407 0
 404 0188 5A22     		movs	r2, #90
 405 018a 83F8852A 		strb	r2, [r3, #2693]
1408:.\Generated_Source\PSoC5/ADC_DelSig_1.c ****             ADC_DelSig_1_DSM_CR14_REG    = ADC_DelSig_1_CFG3_DSM_CR14;
 406              		.loc 1 1408 0
 407 018e 0526     		movs	r6, #5
1410:.\Generated_Source\PSoC5/ADC_DelSig_1.c ****             ADC_DelSig_1_DSM_CR16_REG    = ADC_DelSig_1_CFG3_DSM_CR16;
 408              		.loc 1 1410 0
 409 0190 1122     		movs	r2, #17
1408:.\Generated_Source\PSoC5/ADC_DelSig_1.c ****             ADC_DelSig_1_DSM_CR14_REG    = ADC_DelSig_1_CFG3_DSM_CR14;
 410              		.loc 1 1408 0
 411 0192 83F8866A 		strb	r6, [r3, #2694]
1409:.\Generated_Source\PSoC5/ADC_DelSig_1.c ****             ADC_DelSig_1_DSM_CR15_REG    = ADC_DelSig_1_CFG3_DSM_CR15;
 412              		.loc 1 1409 0
 413 0196 83F8885A 		strb	r5, [r3, #2696]
1410:.\Generated_Source\PSoC5/ADC_DelSig_1.c ****             ADC_DelSig_1_DSM_CR16_REG    = ADC_DelSig_1_CFG3_DSM_CR16;
 414              		.loc 1 1410 0
ARM GAS  C:\Users\IVYLIU~1\AppData\Local\Temp\cckaBvwB.s 			page 41


 415 019a 83F8892A 		strb	r2, [r3, #2697]
1411:.\Generated_Source\PSoC5/ADC_DelSig_1.c ****             ADC_DelSig_1_DSM_CR17_REG    = ADC_DelSig_1_CFG3_DSM_CR17;
 416              		.loc 1 1411 0
 417 019e 1922     		movs	r2, #25
 418 01a0 83F88A2A 		strb	r2, [r3, #2698]
1412:.\Generated_Source\PSoC5/ADC_DelSig_1.c ****             /* Set DSM_REF0_REG by disabling and enabling the PRESS circuit */
 419              		.loc 1 1412 0
 420 01a4 9722     		movs	r2, #151
 421 01a6 83F88B2A 		strb	r2, [r3, #2699]
1414:.\Generated_Source\PSoC5/ADC_DelSig_1.c ****             ADC_DelSig_1_DSM_REF2_REG    = ADC_DelSig_1_CFG3_DSM_REF2;
 422              		.loc 1 1414 0
 423 01aa 4420     		movs	r0, #68
 424              	.LVL19:
 425 01ac FFF7FEFF 		bl	ADC_DelSig_1_SetDSMRef0Reg
 426              	.LVL20:
1415:.\Generated_Source\PSoC5/ADC_DelSig_1.c ****             ADC_DelSig_1_DSM_REF3_REG    = ADC_DelSig_1_CFG3_DSM_REF3;
 427              		.loc 1 1415 0
 428 01b0 384B     		ldr	r3, .L11+8
 429 01b2 5822     		movs	r2, #88
 430 01b4 1A70     		strb	r2, [r3]
1419:.\Generated_Source\PSoC5/ADC_DelSig_1.c ****             ADC_DelSig_1_DSM_BUF2_REG    = ADC_DelSig_1_CFG3_DSM_BUF2;
 431              		.loc 1 1419 0
 432 01b6 0222     		movs	r2, #2
1416:.\Generated_Source\PSoC5/ADC_DelSig_1.c **** 
 433              		.loc 1 1416 0
 434 01b8 5C70     		strb	r4, [r3, #1]
1430:.\Generated_Source\PSoC5/ADC_DelSig_1.c ****                 #endif /* ADC_DelSig_1_IR_VSSA_TO_2VREF) */
 435              		.loc 1 1430 0
 436 01ba 2046     		mov	r0, r4
1418:.\Generated_Source\PSoC5/ADC_DelSig_1.c ****             ADC_DelSig_1_DSM_BUF1_REG    = ADC_DelSig_1_CFG3_DSM_BUF1;
 437              		.loc 1 1418 0
 438 01bc 9E71     		strb	r6, [r3, #6]
1419:.\Generated_Source\PSoC5/ADC_DelSig_1.c ****             ADC_DelSig_1_DSM_BUF2_REG    = ADC_DelSig_1_CFG3_DSM_BUF2;
 439              		.loc 1 1419 0
 440 01be DA71     		strb	r2, [r3, #7]
1420:.\Generated_Source\PSoC5/ADC_DelSig_1.c ****             ADC_DelSig_1_DSM_BUF3_REG    = ADC_DelSig_1_CFG3_DSM_BUF3;
 441              		.loc 1 1420 0
 442 01c0 1C72     		strb	r4, [r3, #8]
1421:.\Generated_Source\PSoC5/ADC_DelSig_1.c **** 
 443              		.loc 1 1421 0
 444 01c2 5C72     		strb	r4, [r3, #9]
1430:.\Generated_Source\PSoC5/ADC_DelSig_1.c ****                 #endif /* ADC_DelSig_1_IR_VSSA_TO_2VREF) */
 445              		.loc 1 1430 0
 446 01c4 FFF7FEFF 		bl	ADC_DelSig_1_AMux_Select
 447              	.LVL21:
1441:.\Generated_Source\PSoC5/ADC_DelSig_1.c **** 
 448              		.loc 1 1441 0
 449 01c8 334B     		ldr	r3, .L11+12
 450 01ca 4FF47A42 		mov	r2, #64000
1443:.\Generated_Source\PSoC5/ADC_DelSig_1.c **** 
 451              		.loc 1 1443 0
 452 01ce 0820     		movs	r0, #8
 453 01d0 2946     		mov	r1, r5
1441:.\Generated_Source\PSoC5/ADC_DelSig_1.c **** 
 454              		.loc 1 1441 0
 455 01d2 1A60     		str	r2, [r3]
1443:.\Generated_Source\PSoC5/ADC_DelSig_1.c **** 
ARM GAS  C:\Users\IVYLIU~1\AppData\Local\Temp\cckaBvwB.s 			page 42


 456              		.loc 1 1443 0
 457 01d4 FFF7FEFF 		bl	ADC_DelSig_1_Ext_CP_Clk_SetDividerRegister
 458              	.LVL22:
1447:.\Generated_Source\PSoC5/ADC_DelSig_1.c ****             #endif /* ADC_DelSig_1_DEFAULT_INTERNAL_CLK */
 459              		.loc 1 1447 0
 460 01d8 2520     		movs	r0, #37
 461 01da 2946     		mov	r1, r5
 462 01dc FFF7FEFF 		bl	ADC_DelSig_1_theACLK_SetDividerRegister
 463              	.LVL23:
1452:.\Generated_Source\PSoC5/ADC_DelSig_1.c ****             #endif   /* End ADC_DelSig_1_IRQ_REMOVE */
 464              		.loc 1 1452 0
 465 01e0 1D20     		movs	r0, #29
 466 01e2 3049     		ldr	r1, .L11+24
 467 01e4 4DE0     		b	.L9
 468              	.LVL24:
 469              	.L7:
1458:.\Generated_Source\PSoC5/ADC_DelSig_1.c ****         {
 470              		.loc 1 1458 0
 471 01e6 0428     		cmp	r0, #4
 472 01e8 4FD1     		bne	.L4
1461:.\Generated_Source\PSoC5/ADC_DelSig_1.c ****             ADC_DelSig_1_DEC_SHIFT1_REG  = ADC_DelSig_1_CFG4_DEC_SHIFT1;
 473              		.loc 1 1461 0
 474 01ea 294B     		ldr	r3, .L11+4
 475 01ec 3822     		movs	r2, #56
 476 01ee 1A70     		strb	r2, [r3]
1463:.\Generated_Source\PSoC5/ADC_DelSig_1.c ****             ADC_DelSig_1_DEC_DR2_REG     = ADC_DelSig_1_CFG4_DEC_DR2;
 477              		.loc 1 1463 0
 478 01f0 0622     		movs	r2, #6
1462:.\Generated_Source\PSoC5/ADC_DelSig_1.c ****             ADC_DelSig_1_DEC_SHIFT2_REG  = ADC_DelSig_1_CFG4_DEC_SHIFT2;
 479              		.loc 1 1462 0
 480 01f2 9870     		strb	r0, [r3, #2]
1463:.\Generated_Source\PSoC5/ADC_DelSig_1.c ****             ADC_DelSig_1_DEC_DR2_REG     = ADC_DelSig_1_CFG4_DEC_DR2;
 481              		.loc 1 1463 0
 482 01f4 DA70     		strb	r2, [r3, #3]
1464:.\Generated_Source\PSoC5/ADC_DelSig_1.c ****             ADC_DelSig_1_DEC_DR2H_REG    = ADC_DelSig_1_CFG4_DEC_DR2H;
 483              		.loc 1 1464 0
 484 01f6 1C71     		strb	r4, [r3, #4]
1466:.\Generated_Source\PSoC5/ADC_DelSig_1.c ****             ADC_DelSig_1_DEC_OCOR_REG    = ADC_DelSig_1_CFG4_DEC_OCOR;
 485              		.loc 1 1466 0
 486 01f8 3F22     		movs	r2, #63
1465:.\Generated_Source\PSoC5/ADC_DelSig_1.c ****             ADC_DelSig_1_DEC_DR1_REG     = ADC_DelSig_1_CFG4_DEC_DR1;
 487              		.loc 1 1465 0
 488 01fa 5C71     		strb	r4, [r3, #5]
1466:.\Generated_Source\PSoC5/ADC_DelSig_1.c ****             ADC_DelSig_1_DEC_OCOR_REG    = ADC_DelSig_1_CFG4_DEC_OCOR;
 489              		.loc 1 1466 0
 490 01fc 0633     		adds	r3, r3, #6
 491 01fe 1A70     		strb	r2, [r3]
1470:.\Generated_Source\PSoC5/ADC_DelSig_1.c **** 
 492              		.loc 1 1470 0
 493 0200 0125     		movs	r5, #1
1472:.\Generated_Source\PSoC5/ADC_DelSig_1.c ****             ADC_DelSig_1_DSM_CR5_REG     = ADC_DelSig_1_CFG4_DSM_CR5;
 494              		.loc 1 1472 0
 495 0202 5022     		movs	r2, #80
1467:.\Generated_Source\PSoC5/ADC_DelSig_1.c ****             ADC_DelSig_1_DEC_OCORM_REG   = ADC_DelSig_1_CFG4_DEC_OCORM;
 496              		.loc 1 1467 0
 497 0204 9C70     		strb	r4, [r3, #2]
1468:.\Generated_Source\PSoC5/ADC_DelSig_1.c ****             ADC_DelSig_1_DEC_OCORH_REG   = ADC_DelSig_1_CFG4_DEC_OCORH;
ARM GAS  C:\Users\IVYLIU~1\AppData\Local\Temp\cckaBvwB.s 			page 43


 498              		.loc 1 1468 0
 499 0206 DC70     		strb	r4, [r3, #3]
1469:.\Generated_Source\PSoC5/ADC_DelSig_1.c ****             ADC_DelSig_1_DEC_COHER_REG   = ADC_DelSig_1_CFG4_DEC_COHER;
 500              		.loc 1 1469 0
 501 0208 1C71     		strb	r4, [r3, #4]
1470:.\Generated_Source\PSoC5/ADC_DelSig_1.c **** 
 502              		.loc 1 1470 0
 503 020a 9D73     		strb	r5, [r3, #14]
1472:.\Generated_Source\PSoC5/ADC_DelSig_1.c ****             ADC_DelSig_1_DSM_CR5_REG     = ADC_DelSig_1_CFG4_DSM_CR5;
 504              		.loc 1 1472 0
 505 020c 83F87E2A 		strb	r2, [r3, #2686]
1473:.\Generated_Source\PSoC5/ADC_DelSig_1.c ****             ADC_DelSig_1_DSM_CR6_REG     = ADC_DelSig_1_CFG4_DSM_CR6;
 506              		.loc 1 1473 0
 507 0210 2722     		movs	r2, #39
 508 0212 83F87F2A 		strb	r2, [r3, #2687]
1474:.\Generated_Source\PSoC5/ADC_DelSig_1.c ****             ADC_DelSig_1_DSM_CR7_REG     = ADC_DelSig_1_CFG4_DSM_CR7;
 509              		.loc 1 1474 0
 510 0216 2C22     		movs	r2, #44
 511 0218 83F8802A 		strb	r2, [r3, #2688]
1476:.\Generated_Source\PSoC5/ADC_DelSig_1.c ****             ADC_DelSig_1_DSM_CR11_REG    = ADC_DelSig_1_CFG4_DSM_CR11;
 512              		.loc 1 1476 0
 513 021c 5522     		movs	r2, #85
1475:.\Generated_Source\PSoC5/ADC_DelSig_1.c ****             ADC_DelSig_1_DSM_CR10_REG    = ADC_DelSig_1_CFG4_DSM_CR10;
 514              		.loc 1 1475 0
 515 021e 83F8814A 		strb	r4, [r3, #2689]
1476:.\Generated_Source\PSoC5/ADC_DelSig_1.c ****             ADC_DelSig_1_DSM_CR11_REG    = ADC_DelSig_1_CFG4_DSM_CR11;
 516              		.loc 1 1476 0
 517 0222 83F8842A 		strb	r2, [r3, #2692]
1477:.\Generated_Source\PSoC5/ADC_DelSig_1.c ****             ADC_DelSig_1_DSM_CR12_REG    = ADC_DelSig_1_CFG4_DSM_CR12;
 518              		.loc 1 1477 0
 519 0226 5A22     		movs	r2, #90
 520 0228 83F8852A 		strb	r2, [r3, #2693]
1478:.\Generated_Source\PSoC5/ADC_DelSig_1.c ****             ADC_DelSig_1_DSM_CR14_REG    = ADC_DelSig_1_CFG4_DSM_CR14;
 521              		.loc 1 1478 0
 522 022c 0526     		movs	r6, #5
1480:.\Generated_Source\PSoC5/ADC_DelSig_1.c ****             ADC_DelSig_1_DSM_CR16_REG    = ADC_DelSig_1_CFG4_DSM_CR16;
 523              		.loc 1 1480 0
 524 022e 1122     		movs	r2, #17
1478:.\Generated_Source\PSoC5/ADC_DelSig_1.c ****             ADC_DelSig_1_DSM_CR14_REG    = ADC_DelSig_1_CFG4_DSM_CR14;
 525              		.loc 1 1478 0
 526 0230 83F8866A 		strb	r6, [r3, #2694]
1479:.\Generated_Source\PSoC5/ADC_DelSig_1.c ****             ADC_DelSig_1_DSM_CR15_REG    = ADC_DelSig_1_CFG4_DSM_CR15;
 527              		.loc 1 1479 0
 528 0234 83F8885A 		strb	r5, [r3, #2696]
1480:.\Generated_Source\PSoC5/ADC_DelSig_1.c ****             ADC_DelSig_1_DSM_CR16_REG    = ADC_DelSig_1_CFG4_DSM_CR16;
 529              		.loc 1 1480 0
 530 0238 83F8892A 		strb	r2, [r3, #2697]
1481:.\Generated_Source\PSoC5/ADC_DelSig_1.c ****             ADC_DelSig_1_DSM_CR17_REG    = ADC_DelSig_1_CFG4_DSM_CR17;
 531              		.loc 1 1481 0
 532 023c 1922     		movs	r2, #25
 533 023e 83F88A2A 		strb	r2, [r3, #2698]
1482:.\Generated_Source\PSoC5/ADC_DelSig_1.c ****             /* Set DSM_REF0_REG by disabling and enabling the PRESS circuit */
 534              		.loc 1 1482 0
 535 0242 9722     		movs	r2, #151
 536 0244 83F88B2A 		strb	r2, [r3, #2699]
1484:.\Generated_Source\PSoC5/ADC_DelSig_1.c ****             ADC_DelSig_1_DSM_REF2_REG    = ADC_DelSig_1_CFG4_DSM_REF2;
 537              		.loc 1 1484 0
ARM GAS  C:\Users\IVYLIU~1\AppData\Local\Temp\cckaBvwB.s 			page 44


 538 0248 4420     		movs	r0, #68
 539              	.LVL25:
 540 024a FFF7FEFF 		bl	ADC_DelSig_1_SetDSMRef0Reg
 541              	.LVL26:
1485:.\Generated_Source\PSoC5/ADC_DelSig_1.c ****             ADC_DelSig_1_DSM_REF3_REG    = ADC_DelSig_1_CFG4_DSM_REF3;
 542              		.loc 1 1485 0
 543 024e 114B     		ldr	r3, .L11+8
 544 0250 5822     		movs	r2, #88
 545 0252 1A70     		strb	r2, [r3]
1489:.\Generated_Source\PSoC5/ADC_DelSig_1.c ****             ADC_DelSig_1_DSM_BUF2_REG    = ADC_DelSig_1_CFG4_DSM_BUF2;
 546              		.loc 1 1489 0
 547 0254 0222     		movs	r2, #2
1486:.\Generated_Source\PSoC5/ADC_DelSig_1.c **** 
 548              		.loc 1 1486 0
 549 0256 5C70     		strb	r4, [r3, #1]
1500:.\Generated_Source\PSoC5/ADC_DelSig_1.c ****                 #endif /* ADC_DelSig_1_IR_VSSA_TO_2VREF) */
 550              		.loc 1 1500 0
 551 0258 2046     		mov	r0, r4
1488:.\Generated_Source\PSoC5/ADC_DelSig_1.c ****             ADC_DelSig_1_DSM_BUF1_REG    = ADC_DelSig_1_CFG4_DSM_BUF1;
 552              		.loc 1 1488 0
 553 025a 9E71     		strb	r6, [r3, #6]
1489:.\Generated_Source\PSoC5/ADC_DelSig_1.c ****             ADC_DelSig_1_DSM_BUF2_REG    = ADC_DelSig_1_CFG4_DSM_BUF2;
 554              		.loc 1 1489 0
 555 025c DA71     		strb	r2, [r3, #7]
1490:.\Generated_Source\PSoC5/ADC_DelSig_1.c ****             ADC_DelSig_1_DSM_BUF3_REG    = ADC_DelSig_1_CFG4_DSM_BUF3;
 556              		.loc 1 1490 0
 557 025e 1C72     		strb	r4, [r3, #8]
1491:.\Generated_Source\PSoC5/ADC_DelSig_1.c **** 
 558              		.loc 1 1491 0
 559 0260 5C72     		strb	r4, [r3, #9]
1500:.\Generated_Source\PSoC5/ADC_DelSig_1.c ****                 #endif /* ADC_DelSig_1_IR_VSSA_TO_2VREF) */
 560              		.loc 1 1500 0
 561 0262 FFF7FEFF 		bl	ADC_DelSig_1_AMux_Select
 562              	.LVL27:
1511:.\Generated_Source\PSoC5/ADC_DelSig_1.c **** 
 563              		.loc 1 1511 0
 564 0266 0C4B     		ldr	r3, .L11+12
 565 0268 4FF47A42 		mov	r2, #64000
1513:.\Generated_Source\PSoC5/ADC_DelSig_1.c **** 
 566              		.loc 1 1513 0
 567 026c 0820     		movs	r0, #8
 568 026e 2946     		mov	r1, r5
1511:.\Generated_Source\PSoC5/ADC_DelSig_1.c **** 
 569              		.loc 1 1511 0
 570 0270 1A60     		str	r2, [r3]
1513:.\Generated_Source\PSoC5/ADC_DelSig_1.c **** 
 571              		.loc 1 1513 0
 572 0272 FFF7FEFF 		bl	ADC_DelSig_1_Ext_CP_Clk_SetDividerRegister
 573              	.LVL28:
1517:.\Generated_Source\PSoC5/ADC_DelSig_1.c ****             #endif /* ADC_DelSig_1_DEFAULT_INTERNAL_CLK */
 574              		.loc 1 1517 0
 575 0276 2520     		movs	r0, #37
 576 0278 2946     		mov	r1, r5
 577 027a FFF7FEFF 		bl	ADC_DelSig_1_theACLK_SetDividerRegister
 578              	.LVL29:
1522:.\Generated_Source\PSoC5/ADC_DelSig_1.c ****             #endif   /* End ADC_DelSig_1_IRQ_REMOVE */
 579              		.loc 1 1522 0
ARM GAS  C:\Users\IVYLIU~1\AppData\Local\Temp\cckaBvwB.s 			page 45


 580 027e 0A49     		ldr	r1, .L11+28
 581 0280 1D20     		movs	r0, #29
 582              	.L9:
1526:.\Generated_Source\PSoC5/ADC_DelSig_1.c **** 
 583              		.loc 1 1526 0
 584 0282 BDE8F840 		pop	{r3, r4, r5, r6, r7, lr}
 585              		.cfi_remember_state
 586              		.cfi_restore 14
 587              		.cfi_restore 7
 588              		.cfi_restore 6
 589              		.cfi_restore 5
 590              		.cfi_restore 4
 591              		.cfi_restore 3
 592              		.cfi_def_cfa_offset 0
1522:.\Generated_Source\PSoC5/ADC_DelSig_1.c ****             #endif   /* End ADC_DelSig_1_IRQ_REMOVE */
 593              		.loc 1 1522 0
 594 0286 FFF7FEBF 		b	CyIntSetVector
 595              	.LVL30:
 596              	.L4:
 597              		.cfi_restore_state
 598 028a F8BD     		pop	{r3, r4, r5, r6, r7, pc}
 599              	.L12:
 600              		.align	2
 601              	.L11:
 602 028c 00000000 		.word	.LANCHOR0
 603 0290 004E0040 		.word	1073761792
 604 0294 94580040 		.word	1073764500
 605 0298 00000000 		.word	ADC_DelSig_1_CountsPerVolt
 606 029c 00000000 		.word	ADC_DelSig_1_ISR1
 607 02a0 00000000 		.word	ADC_DelSig_1_ISR2
 608 02a4 00000000 		.word	ADC_DelSig_1_ISR3
 609 02a8 00000000 		.word	ADC_DelSig_1_ISR4
 610              		.cfi_endproc
 611              	.LFE19:
 612              		.size	ADC_DelSig_1_InitConfig, .-ADC_DelSig_1_InitConfig
 613              		.section	.text.ADC_DelSig_1_Init,"ax",%progbits
 614              		.align	1
 615              		.global	ADC_DelSig_1_Init
 616              		.thumb
 617              		.thumb_func
 618              		.type	ADC_DelSig_1_Init, %function
 619              	ADC_DelSig_1_Init:
 620              	.LFB0:
  92:.\Generated_Source\PSoC5/ADC_DelSig_1.c **** 
 621              		.loc 1 92 0
 622              		.cfi_startproc
 623              		@ args = 0, pretend = 0, frame = 0
 624              		@ frame_needed = 0, uses_anonymous_args = 0
 625 0000 70B5     		push	{r4, r5, r6, lr}
 626              		.cfi_def_cfa_offset 16
 627              		.cfi_offset 4, -16
 628              		.cfi_offset 5, -12
 629              		.cfi_offset 6, -8
 630              		.cfi_offset 14, -4
  95:.\Generated_Source\PSoC5/ADC_DelSig_1.c **** 
 631              		.loc 1 95 0
 632 0002 264C     		ldr	r4, .L14
ARM GAS  C:\Users\IVYLIU~1\AppData\Local\Temp\cckaBvwB.s 			page 46


  94:.\Generated_Source\PSoC5/ADC_DelSig_1.c ****     ADC_DelSig_1_convDone = 0u;
 633              		.loc 1 94 0
 634 0004 264E     		ldr	r6, .L14+4
  95:.\Generated_Source\PSoC5/ADC_DelSig_1.c **** 
 635              		.loc 1 95 0
 636 0006 0025     		movs	r5, #0
  94:.\Generated_Source\PSoC5/ADC_DelSig_1.c ****     ADC_DelSig_1_convDone = 0u;
 637              		.loc 1 94 0
 638 0008 0123     		movs	r3, #1
  97:.\Generated_Source\PSoC5/ADC_DelSig_1.c **** 
 639              		.loc 1 97 0
 640 000a 1020     		movs	r0, #16
  94:.\Generated_Source\PSoC5/ADC_DelSig_1.c ****     ADC_DelSig_1_convDone = 0u;
 641              		.loc 1 94 0
 642 000c 3370     		strb	r3, [r6]
  95:.\Generated_Source\PSoC5/ADC_DelSig_1.c **** 
 643              		.loc 1 95 0
 644 000e 6570     		strb	r5, [r4, #1]
  97:.\Generated_Source\PSoC5/ADC_DelSig_1.c **** 
 645              		.loc 1 97 0
 646 0010 FFF7FEFF 		bl	ADC_DelSig_1_Ext_CP_Clk_SetModeRegister
 647              	.LVL31:
 101:.\Generated_Source\PSoC5/ADC_DelSig_1.c ****     #endif /* ADC_DelSig_1_DEFAULT_INTERNAL_CLK */
 648              		.loc 1 101 0
 649 0014 1020     		movs	r0, #16
 650 0016 FFF7FEFF 		bl	ADC_DelSig_1_theACLK_SetModeRegister
 651              	.LVL32:
 106:.\Generated_Source\PSoC5/ADC_DelSig_1.c ****     #endif   /* End ADC_DelSig_1_IRQ_REMOVE */
 652              		.loc 1 106 0
 653 001a 1D20     		movs	r0, #29
 654 001c 0721     		movs	r1, #7
 655 001e FFF7FEFF 		bl	CyIntSetPriority
 656              	.LVL33:
 110:.\Generated_Source\PSoC5/ADC_DelSig_1.c ****     ADC_DelSig_1_DSM_DEM1_REG    = ADC_DelSig_1_CFG1_DSM_DEM1;
 657              		.loc 1 110 0
 658 0022 204B     		ldr	r3, .L14+8
 659 0024 0422     		movs	r2, #4
 660 0026 1A70     		strb	r2, [r3]
 113:.\Generated_Source\PSoC5/ADC_DelSig_1.c ****     ADC_DelSig_1_DSM_REF1_REG    = ADC_DelSig_1_CFG1_DSM_REF1;
 661              		.loc 1 113 0
 662 0028 1F4A     		ldr	r2, .L14+12
 111:.\Generated_Source\PSoC5/ADC_DelSig_1.c ****     ADC_DelSig_1_DSM_MISC_REG    = ADC_DelSig_1_CFG1_DSM_MISC;
 663              		.loc 1 111 0
 664 002a 5D70     		strb	r5, [r3, #1]
 112:.\Generated_Source\PSoC5/ADC_DelSig_1.c ****     ADC_DelSig_1_DSM_CLK_REG    |= ADC_DelSig_1_CFG1_DSM_CLK;
 665              		.loc 1 112 0
 666 002c 1D72     		strb	r5, [r3, #8]
 113:.\Generated_Source\PSoC5/ADC_DelSig_1.c ****     ADC_DelSig_1_DSM_REF1_REG    = ADC_DelSig_1_CFG1_DSM_REF1;
 667              		.loc 1 113 0
 668 002e 1378     		ldrb	r3, [r2]	@ zero_extendqisi2
 669 0030 43F01803 		orr	r3, r3, #24
 670 0034 1370     		strb	r3, [r2]
 114:.\Generated_Source\PSoC5/ADC_DelSig_1.c **** 
 671              		.loc 1 114 0
 672 0036 1D4B     		ldr	r3, .L14+16
 119:.\Generated_Source\PSoC5/ADC_DelSig_1.c ****     ADC_DelSig_1_DSM_CR1_REG     = ADC_DelSig_1_CFG1_DSM_CR1;
 673              		.loc 1 119 0
ARM GAS  C:\Users\IVYLIU~1\AppData\Local\Temp\cckaBvwB.s 			page 47


 674 0038 0A22     		movs	r2, #10
 114:.\Generated_Source\PSoC5/ADC_DelSig_1.c **** 
 675              		.loc 1 114 0
 676 003a 1D70     		strb	r5, [r3]
 116:.\Generated_Source\PSoC5/ADC_DelSig_1.c ****     ADC_DelSig_1_DSM_OUT1_REG    = ADC_DelSig_1_CFG1_DSM_OUT1;
 677              		.loc 1 116 0
 678 003c 83F8F552 		strb	r5, [r3, #757]
 117:.\Generated_Source\PSoC5/ADC_DelSig_1.c **** 
 679              		.loc 1 117 0
 680 0040 83F8F652 		strb	r5, [r3, #758]
 119:.\Generated_Source\PSoC5/ADC_DelSig_1.c ****     ADC_DelSig_1_DSM_CR1_REG     = ADC_DelSig_1_CFG1_DSM_CR1;
 681              		.loc 1 119 0
 682 0044 133B     		subs	r3, r3, #19
 683 0046 1A70     		strb	r2, [r3]
 126:.\Generated_Source\PSoC5/ADC_DelSig_1.c ****     ADC_DelSig_1_DSM_CR9_REG     = ADC_DelSig_1_CFG1_DSM_CR9;
 684              		.loc 1 126 0
 685 0048 5B22     		movs	r2, #91
 120:.\Generated_Source\PSoC5/ADC_DelSig_1.c **** #if(ADC_DelSig_1_MI_ENABLE != 0u) /* Enable Modulator Input */
 686              		.loc 1 120 0
 687 004a 5D70     		strb	r5, [r3, #1]
 124:.\Generated_Source\PSoC5/ADC_DelSig_1.c **** #endif /* ADC_DelSig_1_MI_ENABLE != 0u*/    
 688              		.loc 1 124 0
 689 004c DD70     		strb	r5, [r3, #3]
 126:.\Generated_Source\PSoC5/ADC_DelSig_1.c ****     ADC_DelSig_1_DSM_CR9_REG     = ADC_DelSig_1_CFG1_DSM_CR9;
 690              		.loc 1 126 0
 691 004e 1A72     		strb	r2, [r3, #8]
 127:.\Generated_Source\PSoC5/ADC_DelSig_1.c ****     ADC_DelSig_1_DSM_CR13_REG    = ADC_DelSig_1_CFG1_DSM_CR13;
 692              		.loc 1 127 0
 693 0050 5E22     		movs	r2, #94
 694 0052 5A72     		strb	r2, [r3, #9]
 128:.\Generated_Source\PSoC5/ADC_DelSig_1.c **** 
 695              		.loc 1 128 0
 696 0054 5D73     		strb	r5, [r3, #13]
 130:.\Generated_Source\PSoC5/ADC_DelSig_1.c **** 
 697              		.loc 1 130 0
 698 0056 1422     		movs	r2, #20
 699 0058 A3F67F23 		subw	r3, r3, #2687
 700 005c 1A70     		strb	r2, [r3]
 701              	.LVL34:
 702              	.LBB18:
 703              	.LBB19:
 704              	.LBB20:
 705              	.LBB21:
1700:.\Generated_Source\PSoC5/ADC_DelSig_1.c ****     }
 706              		.loc 1 1700 0
 707 005e 48F6F052 		movw	r2, #36336
 708 0062 6280     		strh	r2, [r4, #2]	@ movhi
 709              	.LBE21:
 710              	.LBE20:
 711              	.LBE19:
 712              	.LBE18:
 713              	.LBB25:
 714              	.LBB26:
 715              	.LBB27:
 716              	.LBB28:
 717 0064 49F2DA02 		movw	r2, #37082
 718              	.LBE28:
ARM GAS  C:\Users\IVYLIU~1\AppData\Local\Temp\cckaBvwB.s 			page 48


 719              	.LBE27:
 720              	.LBE26:
 721              	.LBE25:
 722              	.LBB35:
 723              	.LBB24:
 724              	.LBB23:
 725              	.LBB22:
1696:.\Generated_Source\PSoC5/ADC_DelSig_1.c ****         }
 726              		.loc 1 1696 0
 727 0068 0F23     		movs	r3, #15
 728 006a 2371     		strb	r3, [r4, #4]
 729              	.LVL35:
 730              	.LBE22:
 731              	.LBE23:
 732              	.LBE24:
 733              	.LBE35:
 734              	.LBB36:
 735              	.LBB33:
 736              	.LBB31:
 737              	.LBB29:
 738 006c 2372     		strb	r3, [r4, #8]
 739              	.LBE29:
 740              	.LBE31:
 741              	.LBE33:
 742              	.LBE36:
 743              	.LBB37:
 744              	.LBB38:
 745              	.LBB39:
 746              	.LBB40:
 747 006e 2373     		strb	r3, [r4, #12]
 748              	.LBE40:
 749              	.LBE39:
 750              	.LBE38:
 751              	.LBE37:
 752              	.LBB44:
 753              	.LBB45:
 754              	.LBB46:
 755              	.LBB47:
 756 0070 2374     		strb	r3, [r4, #16]
 757              	.LBE47:
 758              	.LBE46:
 759              	.LBE45:
 760              	.LBE44:
 161:.\Generated_Source\PSoC5/ADC_DelSig_1.c ****     CY_SET_REG16(ADC_DelSig_1_DEC_GCOR_16B_PTR, ADC_DelSig_1_gcor[ADC_DelSig_1_Config - 1u].gcor);
 761              		.loc 1 161 0
 762 0072 3378     		ldrb	r3, [r6]	@ zero_extendqisi2
 763              	.LBB51:
 764              	.LBB34:
 765              	.LBB32:
 766              	.LBB30:
1700:.\Generated_Source\PSoC5/ADC_DelSig_1.c ****     }
 767              		.loc 1 1700 0
 768 0074 E280     		strh	r2, [r4, #6]	@ movhi
 769              	.LVL36:
 770              	.LBE30:
 771              	.LBE32:
 772              	.LBE34:
ARM GAS  C:\Users\IVYLIU~1\AppData\Local\Temp\cckaBvwB.s 			page 49


 773              	.LBE51:
 774              	.LBB52:
 775              	.LBB43:
 776              	.LBB42:
 777              	.LBB41:
 778 0076 6281     		strh	r2, [r4, #10]	@ movhi
 779              	.LVL37:
 780              	.LBE41:
 781              	.LBE42:
 782              	.LBE43:
 783              	.LBE52:
 784              	.LBB53:
 785              	.LBB50:
 786              	.LBB49:
 787              	.LBB48:
 788 0078 E281     		strh	r2, [r4, #14]	@ movhi
 789              	.LBE48:
 790              	.LBE49:
 791              	.LBE50:
 792              	.LBE53:
 161:.\Generated_Source\PSoC5/ADC_DelSig_1.c ****     CY_SET_REG16(ADC_DelSig_1_DEC_GCOR_16B_PTR, ADC_DelSig_1_gcor[ADC_DelSig_1_Config - 1u].gcor);
 793              		.loc 1 161 0
 794 007a 14F82320 		ldrb	r2, [r4, r3, lsl #2]	@ zero_extendqisi2
 795 007e 0C4B     		ldr	r3, .L14+20
 796 0080 1A70     		strb	r2, [r3]
 162:.\Generated_Source\PSoC5/ADC_DelSig_1.c **** 
 797              		.loc 1 162 0
 798 0082 3378     		ldrb	r3, [r6]	@ zero_extendqisi2
 799 0084 04EB8304 		add	r4, r4, r3, lsl #2
 800 0088 34F8022C 		ldrh	r2, [r4, #-2]
 801 008c 094B     		ldr	r3, .L14+24
 802 008e 1A80     		strh	r2, [r3]	@ movhi
 165:.\Generated_Source\PSoC5/ADC_DelSig_1.c **** }
 803              		.loc 1 165 0
 804 0090 3078     		ldrb	r0, [r6]	@ zero_extendqisi2
 166:.\Generated_Source\PSoC5/ADC_DelSig_1.c **** 
 805              		.loc 1 166 0
 806 0092 BDE87040 		pop	{r4, r5, r6, lr}
 807              		.cfi_restore 14
 808              		.cfi_restore 6
 809              		.cfi_restore 5
 810              		.cfi_restore 4
 811              		.cfi_def_cfa_offset 0
 165:.\Generated_Source\PSoC5/ADC_DelSig_1.c **** }
 812              		.loc 1 165 0
 813 0096 FFF7FEBF 		b	ADC_DelSig_1_InitConfig
 814              	.LVL38:
 815              	.L15:
 816 009a 00BF     		.align	2
 817              	.L14:
 818 009c 00000000 		.word	.LANCHOR0
 819 00a0 00000000 		.word	.LANCHOR1
 820 00a4 96580040 		.word	1073764502
 821 00a8 075B0040 		.word	1073765127
 822 00ac 93580040 		.word	1073764499
 823 00b0 0E4E0040 		.word	1073761806
 824 00b4 0C4E0040 		.word	1073761804
ARM GAS  C:\Users\IVYLIU~1\AppData\Local\Temp\cckaBvwB.s 			page 50


 825              		.cfi_endproc
 826              	.LFE0:
 827              		.size	ADC_DelSig_1_Init, .-ADC_DelSig_1_Init
 828              		.section	.text.ADC_DelSig_1_Enable,"ax",%progbits
 829              		.align	1
 830              		.global	ADC_DelSig_1_Enable
 831              		.thumb
 832              		.thumb_func
 833              		.type	ADC_DelSig_1_Enable, %function
 834              	ADC_DelSig_1_Enable:
 835              	.LFB1:
 185:.\Generated_Source\PSoC5/ADC_DelSig_1.c **** 	uint8 config;
 836              		.loc 1 185 0
 837              		.cfi_startproc
 838              		@ args = 0, pretend = 0, frame = 0
 839              		@ frame_needed = 0, uses_anonymous_args = 0
 840 0000 70B5     		push	{r4, r5, r6, lr}
 841              		.cfi_def_cfa_offset 16
 842              		.cfi_offset 4, -16
 843              		.cfi_offset 5, -12
 844              		.cfi_offset 6, -8
 845              		.cfi_offset 14, -4
 188:.\Generated_Source\PSoC5/ADC_DelSig_1.c **** 
 846              		.loc 1 188 0
 847 0002 FFF7FEFF 		bl	CyEnterCriticalSection
 848              	.LVL39:
 191:.\Generated_Source\PSoC5/ADC_DelSig_1.c ****     
 849              		.loc 1 191 0
 850 0006 294B     		ldr	r3, .L17
 202:.\Generated_Source\PSoC5/ADC_DelSig_1.c ****     ADC_DelSig_1_RESET_CR5_REG |= ADC_DelSig_1_IGNORE_PRESA2;
 851              		.loc 1 202 0
 852 0008 294D     		ldr	r5, .L17+4
 191:.\Generated_Source\PSoC5/ADC_DelSig_1.c ****     
 853              		.loc 1 191 0
 854 000a 1B78     		ldrb	r3, [r3]	@ zero_extendqisi2
 194:.\Generated_Source\PSoC5/ADC_DelSig_1.c ****     ADC_DelSig_1_PWRMGR_DSM_REG |= ADC_DelSig_1_ACT_PWR_DSM_EN;
 855              		.loc 1 194 0
 856 000c 294B     		ldr	r3, .L17+8
 203:.\Generated_Source\PSoC5/ADC_DelSig_1.c **** 
 857              		.loc 1 203 0
 858 000e 2A4C     		ldr	r4, .L17+12
 194:.\Generated_Source\PSoC5/ADC_DelSig_1.c ****     ADC_DelSig_1_PWRMGR_DSM_REG |= ADC_DelSig_1_ACT_PWR_DSM_EN;
 859              		.loc 1 194 0
 860 0010 1A78     		ldrb	r2, [r3]	@ zero_extendqisi2
 188:.\Generated_Source\PSoC5/ADC_DelSig_1.c **** 
 861              		.loc 1 188 0
 862 0012 0646     		mov	r6, r0
 863              	.LVL40:
 194:.\Generated_Source\PSoC5/ADC_DelSig_1.c ****     ADC_DelSig_1_PWRMGR_DSM_REG |= ADC_DelSig_1_ACT_PWR_DSM_EN;
 864              		.loc 1 194 0
 865 0014 42F00102 		orr	r2, r2, #1
 866 0018 1A70     		strb	r2, [r3]
 195:.\Generated_Source\PSoC5/ADC_DelSig_1.c **** 
 867              		.loc 1 195 0
 868 001a 1A78     		ldrb	r2, [r3]	@ zero_extendqisi2
 271:.\Generated_Source\PSoC5/ADC_DelSig_1.c **** 
 869              		.loc 1 271 0
ARM GAS  C:\Users\IVYLIU~1\AppData\Local\Temp\cckaBvwB.s 			page 51


 870 001c 0320     		movs	r0, #3
 195:.\Generated_Source\PSoC5/ADC_DelSig_1.c **** 
 871              		.loc 1 195 0
 872 001e 42F01002 		orr	r2, r2, #16
 873 0022 1A70     		strb	r2, [r3]
 198:.\Generated_Source\PSoC5/ADC_DelSig_1.c ****     ADC_DelSig_1_STBY_PWRMGR_DSM_REG |= ADC_DelSig_1_STBY_PWR_DSM_EN;
 874              		.loc 1 198 0
 875 0024 1A7C     		ldrb	r2, [r3, #16]	@ zero_extendqisi2
 876 0026 42F00102 		orr	r2, r2, #1
 877 002a 1A74     		strb	r2, [r3, #16]
 199:.\Generated_Source\PSoC5/ADC_DelSig_1.c **** 
 878              		.loc 1 199 0
 879 002c 1A7C     		ldrb	r2, [r3, #16]	@ zero_extendqisi2
 880 002e 42F01002 		orr	r2, r2, #16
 881 0032 1A74     		strb	r2, [r3, #16]
 202:.\Generated_Source\PSoC5/ADC_DelSig_1.c ****     ADC_DelSig_1_RESET_CR5_REG |= ADC_DelSig_1_IGNORE_PRESA2;
 882              		.loc 1 202 0
 883 0034 2B78     		ldrb	r3, [r5]	@ zero_extendqisi2
 205:.\Generated_Source\PSoC5/ADC_DelSig_1.c **** 
 884              		.loc 1 205 0
 885 0036 214A     		ldr	r2, .L17+16
 202:.\Generated_Source\PSoC5/ADC_DelSig_1.c ****     ADC_DelSig_1_RESET_CR5_REG |= ADC_DelSig_1_IGNORE_PRESA2;
 886              		.loc 1 202 0
 887 0038 43F00203 		orr	r3, r3, #2
 888 003c 2B70     		strb	r3, [r5]
 203:.\Generated_Source\PSoC5/ADC_DelSig_1.c **** 
 889              		.loc 1 203 0
 890 003e 2378     		ldrb	r3, [r4]	@ zero_extendqisi2
 891 0040 43F00203 		orr	r3, r3, #2
 892 0044 2370     		strb	r3, [r4]
 205:.\Generated_Source\PSoC5/ADC_DelSig_1.c **** 
 893              		.loc 1 205 0
 894 0046 1378     		ldrb	r3, [r2]	@ zero_extendqisi2
 895 0048 43F00303 		orr	r3, r3, #3
 896 004c 1370     		strb	r3, [r2]
 271:.\Generated_Source\PSoC5/ADC_DelSig_1.c **** 
 897              		.loc 1 271 0
 898 004e FFF7FEFF 		bl	CyDelayUs
 899              	.LVL41:
 274:.\Generated_Source\PSoC5/ADC_DelSig_1.c ****     ADC_DelSig_1_RESET_CR5_REG &= (uint8)~ADC_DelSig_1_IGNORE_PRESA2;
 900              		.loc 1 274 0
 901 0052 2B78     		ldrb	r3, [r5]	@ zero_extendqisi2
 278:.\Generated_Source\PSoC5/ADC_DelSig_1.c **** 
 902              		.loc 1 278 0
 903 0054 1A4A     		ldr	r2, .L17+20
 274:.\Generated_Source\PSoC5/ADC_DelSig_1.c ****     ADC_DelSig_1_RESET_CR5_REG &= (uint8)~ADC_DelSig_1_IGNORE_PRESA2;
 904              		.loc 1 274 0
 905 0056 03F0FD03 		and	r3, r3, #253
 906 005a 2B70     		strb	r3, [r5]
 275:.\Generated_Source\PSoC5/ADC_DelSig_1.c **** 
 907              		.loc 1 275 0
 908 005c 2378     		ldrb	r3, [r4]	@ zero_extendqisi2
 300:.\Generated_Source\PSoC5/ADC_DelSig_1.c **** 
 909              		.loc 1 300 0
 910 005e 3046     		mov	r0, r6
 275:.\Generated_Source\PSoC5/ADC_DelSig_1.c **** 
 911              		.loc 1 275 0
ARM GAS  C:\Users\IVYLIU~1\AppData\Local\Temp\cckaBvwB.s 			page 52


 912 0060 03F0FD03 		and	r3, r3, #253
 913 0064 2370     		strb	r3, [r4]
 278:.\Generated_Source\PSoC5/ADC_DelSig_1.c **** 
 914              		.loc 1 278 0
 915 0066 1378     		ldrb	r3, [r2]	@ zero_extendqisi2
 916 0068 43F00603 		orr	r3, r3, #6
 917 006c 1370     		strb	r3, [r2]
 281:.\Generated_Source\PSoC5/ADC_DelSig_1.c **** 
 918              		.loc 1 281 0
 919 006e 154B     		ldr	r3, .L17+24
 920 0070 7A22     		movs	r2, #122
 921 0072 1A70     		strb	r2, [r3]
 285:.\Generated_Source\PSoC5/ADC_DelSig_1.c ****         ADC_DelSig_1_STBY_PWRMGR_CLK_REG |= ADC_DelSig_1_STBY_PWR_CLK_EN;
 922              		.loc 1 285 0
 923 0074 144A     		ldr	r2, .L17+28
 924 0076 1378     		ldrb	r3, [r2]	@ zero_extendqisi2
 925 0078 43F00103 		orr	r3, r3, #1
 926 007c 1370     		strb	r3, [r2]
 286:.\Generated_Source\PSoC5/ADC_DelSig_1.c ****     #endif /* ADC_DelSig_1_DEFAULT_INTERNAL_CLK */
 927              		.loc 1 286 0
 928 007e 137C     		ldrb	r3, [r2, #16]	@ zero_extendqisi2
 929 0080 43F00103 		orr	r3, r3, #1
 930 0084 1374     		strb	r3, [r2, #16]
 290:.\Generated_Source\PSoC5/ADC_DelSig_1.c ****     ADC_DelSig_1_STBY_PWRMGR_CHARGE_PUMP_CLK_REG |= ADC_DelSig_1_STBY_PWR_CHARGE_PUMP_CLK_EN;
 931              		.loc 1 290 0
 932 0086 5378     		ldrb	r3, [r2, #1]	@ zero_extendqisi2
 933 0088 43F00103 		orr	r3, r3, #1
 934 008c 5370     		strb	r3, [r2, #1]
 291:.\Generated_Source\PSoC5/ADC_DelSig_1.c **** 
 935              		.loc 1 291 0
 936 008e 537C     		ldrb	r3, [r2, #17]	@ zero_extendqisi2
 937 0090 43F00103 		orr	r3, r3, #1
 938 0094 5374     		strb	r3, [r2, #17]
 295:.\Generated_Source\PSoC5/ADC_DelSig_1.c ****         /* Enable interrupt */
 939              		.loc 1 295 0
 940 0096 0D4A     		ldr	r2, .L17+32
 941 0098 4FF00053 		mov	r3, #536870912
 942 009c 1360     		str	r3, [r2]
 297:.\Generated_Source\PSoC5/ADC_DelSig_1.c ****     #endif   /* End ADC_DelSig_1_IRQ_REMOVE */
 943              		.loc 1 297 0
 944 009e A2F5C072 		sub	r2, r2, #384
 945 00a2 1360     		str	r3, [r2]
 302:.\Generated_Source\PSoC5/ADC_DelSig_1.c **** 
 946              		.loc 1 302 0
 947 00a4 BDE87040 		pop	{r4, r5, r6, lr}
 948              		.cfi_restore 14
 949              		.cfi_restore 6
 950              		.cfi_restore 5
 951              		.cfi_restore 4
 952              		.cfi_def_cfa_offset 0
 953              	.LVL42:
 300:.\Generated_Source\PSoC5/ADC_DelSig_1.c **** 
 954              		.loc 1 300 0
 955 00a8 FFF7FEBF 		b	CyExitCriticalSection
 956              	.LVL43:
 957              	.L18:
 958              		.align	2
ARM GAS  C:\Users\IVYLIU~1\AppData\Local\Temp\cckaBvwB.s 			page 53


 959              	.L17:
 960 00ac 00000000 		.word	.LANCHOR1
 961 00b0 F8460040 		.word	1073759992
 962 00b4 AA430040 		.word	1073759146
 963 00b8 F9460040 		.word	1073759993
 964 00bc 91580040 		.word	1073764497
 965 00c0 77580040 		.word	1073764471
 966 00c4 82580040 		.word	1073764482
 967 00c8 A1430040 		.word	1073759137
 968 00cc 80E200E0 		.word	-536812928
 969              		.cfi_endproc
 970              	.LFE1:
 971              		.size	ADC_DelSig_1_Enable, .-ADC_DelSig_1_Enable
 972              		.section	.text.ADC_DelSig_1_Start,"ax",%progbits
 973              		.align	1
 974              		.global	ADC_DelSig_1_Start
 975              		.thumb
 976              		.thumb_func
 977              		.type	ADC_DelSig_1_Start, %function
 978              	ADC_DelSig_1_Start:
 979              	.LFB2:
 330:.\Generated_Source\PSoC5/ADC_DelSig_1.c ****     if(ADC_DelSig_1_initVar == 0u)
 980              		.loc 1 330 0
 981              		.cfi_startproc
 982              		@ args = 0, pretend = 0, frame = 0
 983              		@ frame_needed = 0, uses_anonymous_args = 0
 984 0000 10B5     		push	{r4, lr}
 985              		.cfi_def_cfa_offset 8
 986              		.cfi_offset 4, -8
 987              		.cfi_offset 14, -4
 331:.\Generated_Source\PSoC5/ADC_DelSig_1.c ****     {
 988              		.loc 1 331 0
 989 0002 064C     		ldr	r4, .L22
 990 0004 A37C     		ldrb	r3, [r4, #18]	@ zero_extendqisi2
 991 0006 2BB9     		cbnz	r3, .L20
 333:.\Generated_Source\PSoC5/ADC_DelSig_1.c ****         {
 992              		.loc 1 333 0
 993 0008 E37C     		ldrb	r3, [r4, #19]	@ zero_extendqisi2
 994 000a 0BB9     		cbnz	r3, .L21
 335:.\Generated_Source\PSoC5/ADC_DelSig_1.c ****         }
 995              		.loc 1 335 0
 996 000c FFF7FEFF 		bl	ADC_DelSig_1_Init
 997              	.LVL44:
 998              	.L21:
 337:.\Generated_Source\PSoC5/ADC_DelSig_1.c ****     }
 999              		.loc 1 337 0
 1000 0010 0123     		movs	r3, #1
 1001 0012 A374     		strb	r3, [r4, #18]
 1002              	.L20:
 342:.\Generated_Source\PSoC5/ADC_DelSig_1.c **** 
 1003              		.loc 1 342 0
 1004 0014 BDE81040 		pop	{r4, lr}
 1005              		.cfi_restore 14
 1006              		.cfi_restore 4
 1007              		.cfi_def_cfa_offset 0
 341:.\Generated_Source\PSoC5/ADC_DelSig_1.c **** }
 1008              		.loc 1 341 0
ARM GAS  C:\Users\IVYLIU~1\AppData\Local\Temp\cckaBvwB.s 			page 54


 1009 0018 FFF7FEBF 		b	ADC_DelSig_1_Enable
 1010              	.LVL45:
 1011              	.L23:
 1012              		.align	2
 1013              	.L22:
 1014 001c 00000000 		.word	.LANCHOR0
 1015              		.cfi_endproc
 1016              	.LFE2:
 1017              		.size	ADC_DelSig_1_Start, .-ADC_DelSig_1_Start
 1018              		.section	.text.ADC_DelSig_1_Stop,"ax",%progbits
 1019              		.align	1
 1020              		.global	ADC_DelSig_1_Stop
 1021              		.thumb
 1022              		.thumb_func
 1023              		.type	ADC_DelSig_1_Stop, %function
 1024              	ADC_DelSig_1_Stop:
 1025              	.LFB3:
 363:.\Generated_Source\PSoC5/ADC_DelSig_1.c ****     uint8 enableInterrupts;
 1026              		.loc 1 363 0
 1027              		.cfi_startproc
 1028              		@ args = 0, pretend = 0, frame = 0
 1029              		@ frame_needed = 0, uses_anonymous_args = 0
 1030 0000 70B5     		push	{r4, r5, r6, lr}
 1031              		.cfi_def_cfa_offset 16
 1032              		.cfi_offset 4, -16
 1033              		.cfi_offset 5, -12
 1034              		.cfi_offset 6, -8
 1035              		.cfi_offset 14, -4
 365:.\Generated_Source\PSoC5/ADC_DelSig_1.c **** 
 1036              		.loc 1 365 0
 1037 0002 FFF7FEFF 		bl	CyEnterCriticalSection
 1038              	.LVL46:
 368:.\Generated_Source\PSoC5/ADC_DelSig_1.c ****     ADC_DelSig_1_DEC_SR_REG |=  ADC_DelSig_1_DEC_INTR_CLEAR;
 1039              		.loc 1 368 0
 1040 0006 314A     		ldr	r2, .L25
 373:.\Generated_Source\PSoC5/ADC_DelSig_1.c ****     ADC_DelSig_1_RESET_CR5_REG |= ADC_DelSig_1_IGNORE_PRESA2;
 1041              		.loc 1 373 0
 1042 0008 314D     		ldr	r5, .L25+4
 368:.\Generated_Source\PSoC5/ADC_DelSig_1.c ****     ADC_DelSig_1_DEC_SR_REG |=  ADC_DelSig_1_DEC_INTR_CLEAR;
 1043              		.loc 1 368 0
 1044 000a 1378     		ldrb	r3, [r2]	@ zero_extendqisi2
 374:.\Generated_Source\PSoC5/ADC_DelSig_1.c **** 
 1045              		.loc 1 374 0
 1046 000c 314C     		ldr	r4, .L25+8
 368:.\Generated_Source\PSoC5/ADC_DelSig_1.c ****     ADC_DelSig_1_DEC_SR_REG |=  ADC_DelSig_1_DEC_INTR_CLEAR;
 1047              		.loc 1 368 0
 1048 000e 03F0FE03 		and	r3, r3, #254
 1049 0012 1370     		strb	r3, [r2]
 369:.\Generated_Source\PSoC5/ADC_DelSig_1.c **** 
 1050              		.loc 1 369 0
 1051 0014 5378     		ldrb	r3, [r2, #1]	@ zero_extendqisi2
 365:.\Generated_Source\PSoC5/ADC_DelSig_1.c **** 
 1052              		.loc 1 365 0
 1053 0016 0646     		mov	r6, r0
 1054              	.LVL47:
 369:.\Generated_Source\PSoC5/ADC_DelSig_1.c **** 
 1055              		.loc 1 369 0
ARM GAS  C:\Users\IVYLIU~1\AppData\Local\Temp\cckaBvwB.s 			page 55


 1056 0018 43F00403 		orr	r3, r3, #4
 1057 001c 5370     		strb	r3, [r2, #1]
 373:.\Generated_Source\PSoC5/ADC_DelSig_1.c ****     ADC_DelSig_1_RESET_CR5_REG |= ADC_DelSig_1_IGNORE_PRESA2;
 1058              		.loc 1 373 0
 1059 001e 2B78     		ldrb	r3, [r5]	@ zero_extendqisi2
 380:.\Generated_Source\PSoC5/ADC_DelSig_1.c **** 
 1060              		.loc 1 380 0
 1061 0020 0320     		movs	r0, #3
 373:.\Generated_Source\PSoC5/ADC_DelSig_1.c ****     ADC_DelSig_1_RESET_CR5_REG |= ADC_DelSig_1_IGNORE_PRESA2;
 1062              		.loc 1 373 0
 1063 0022 43F00203 		orr	r3, r3, #2
 1064 0026 2B70     		strb	r3, [r5]
 374:.\Generated_Source\PSoC5/ADC_DelSig_1.c **** 
 1065              		.loc 1 374 0
 1066 0028 2378     		ldrb	r3, [r4]	@ zero_extendqisi2
 1067 002a 43F00203 		orr	r3, r3, #2
 1068 002e 2370     		strb	r3, [r4]
 376:.\Generated_Source\PSoC5/ADC_DelSig_1.c ****     ADC_DelSig_1_DSM_REF0_REG &= (uint8)~ADC_DelSig_1_DSM_EN_BUF_VREF_INN;
 1069              		.loc 1 376 0
 1070 0030 92F8913A 		ldrb	r3, [r2, #2705]	@ zero_extendqisi2
 1071 0034 03F0FC03 		and	r3, r3, #252
 1072 0038 82F8913A 		strb	r3, [r2, #2705]
 377:.\Generated_Source\PSoC5/ADC_DelSig_1.c **** 
 1073              		.loc 1 377 0
 1074 003c 92F8923A 		ldrb	r3, [r2, #2706]	@ zero_extendqisi2
 1075 0040 03F0F703 		and	r3, r3, #247
 1076 0044 82F8923A 		strb	r3, [r2, #2706]
 380:.\Generated_Source\PSoC5/ADC_DelSig_1.c **** 
 1077              		.loc 1 380 0
 1078 0048 FFF7FEFF 		bl	CyDelayUs
 1079              	.LVL48:
 383:.\Generated_Source\PSoC5/ADC_DelSig_1.c ****     ADC_DelSig_1_RESET_CR5_REG &= (uint8)~ADC_DelSig_1_IGNORE_PRESA2;
 1080              		.loc 1 383 0
 1081 004c 2B78     		ldrb	r3, [r5]	@ zero_extendqisi2
 411:.\Generated_Source\PSoC5/ADC_DelSig_1.c **** }
 1082              		.loc 1 411 0
 1083 004e 3046     		mov	r0, r6
 383:.\Generated_Source\PSoC5/ADC_DelSig_1.c ****     ADC_DelSig_1_RESET_CR5_REG &= (uint8)~ADC_DelSig_1_IGNORE_PRESA2;
 1084              		.loc 1 383 0
 1085 0050 03F0FD03 		and	r3, r3, #253
 1086 0054 2B70     		strb	r3, [r5]
 384:.\Generated_Source\PSoC5/ADC_DelSig_1.c **** 
 1087              		.loc 1 384 0
 1088 0056 2378     		ldrb	r3, [r4]	@ zero_extendqisi2
 1089 0058 03F0FD03 		and	r3, r3, #253
 1090 005c 2370     		strb	r3, [r4]
 387:.\Generated_Source\PSoC5/ADC_DelSig_1.c **** 
 1091              		.loc 1 387 0
 1092 005e 1E4B     		ldr	r3, .L25+12
 1093 0060 1A78     		ldrb	r2, [r3]	@ zero_extendqisi2
 1094 0062 02F0EF02 		and	r2, r2, #239
 1095 0066 1A70     		strb	r2, [r3]
 390:.\Generated_Source\PSoC5/ADC_DelSig_1.c **** 
 1096              		.loc 1 390 0
 1097 0068 1A78     		ldrb	r2, [r3]	@ zero_extendqisi2
 1098 006a 02F0FE02 		and	r2, r2, #254
 1099 006e 1A70     		strb	r2, [r3]
ARM GAS  C:\Users\IVYLIU~1\AppData\Local\Temp\cckaBvwB.s 			page 56


 393:.\Generated_Source\PSoC5/ADC_DelSig_1.c ****     ADC_DelSig_1_STBY_PWRMGR_DSM_REG &= (uint8)~ADC_DelSig_1_STBY_PWR_DSM_EN;
 1100              		.loc 1 393 0
 1101 0070 1A7C     		ldrb	r2, [r3, #16]	@ zero_extendqisi2
 1102 0072 02F0FE02 		and	r2, r2, #254
 1103 0076 1A74     		strb	r2, [r3, #16]
 394:.\Generated_Source\PSoC5/ADC_DelSig_1.c **** 
 1104              		.loc 1 394 0
 1105 0078 1A7C     		ldrb	r2, [r3, #16]	@ zero_extendqisi2
 1106 007a 02F0EF02 		and	r2, r2, #239
 1107 007e 1A74     		strb	r2, [r3, #16]
 397:.\Generated_Source\PSoC5/ADC_DelSig_1.c **** 
 1108              		.loc 1 397 0
 1109 0080 164A     		ldr	r2, .L25+16
 1110 0082 1378     		ldrb	r3, [r2]	@ zero_extendqisi2
 1111 0084 03F0F903 		and	r3, r3, #249
 1112 0088 1370     		strb	r3, [r2]
 401:.\Generated_Source\PSoC5/ADC_DelSig_1.c ****         ADC_DelSig_1_STBY_PWRMGR_CLK_REG &= (uint8)~ADC_DelSig_1_STBY_PWR_CLK_EN;
 1113              		.loc 1 401 0
 1114 008a A2F5A652 		sub	r2, r2, #5312
 1115 008e 163A     		subs	r2, r2, #22
 1116 0090 1378     		ldrb	r3, [r2]	@ zero_extendqisi2
 1117 0092 03F0FE03 		and	r3, r3, #254
 1118 0096 1370     		strb	r3, [r2]
 402:.\Generated_Source\PSoC5/ADC_DelSig_1.c ****     #endif /* ADC_DelSig_1_DEFAULT_INTERNAL_CLK */
 1119              		.loc 1 402 0
 1120 0098 137C     		ldrb	r3, [r2, #16]	@ zero_extendqisi2
 1121 009a 03F0FE03 		and	r3, r3, #254
 1122 009e 1374     		strb	r3, [r2, #16]
 406:.\Generated_Source\PSoC5/ADC_DelSig_1.c ****     /* Disable power to charge pump clock */
 1123              		.loc 1 406 0
 1124 00a0 02F5A752 		add	r2, r2, #5344
 1125 00a4 0132     		adds	r2, r2, #1
 1126 00a6 1378     		ldrb	r3, [r2]	@ zero_extendqisi2
 1127 00a8 03F0F703 		and	r3, r3, #247
 1128 00ac 1370     		strb	r3, [r2]
 408:.\Generated_Source\PSoC5/ADC_DelSig_1.c ****     ADC_DelSig_1_STBY_PWRMGR_CHARGE_PUMP_CLK_REG &= (uint8)~ADC_DelSig_1_STBY_PWR_CHARGE_PUMP_CLK_E
 1129              		.loc 1 408 0
 1130 00ae A2F5A752 		sub	r2, r2, #5344
 1131 00b2 1378     		ldrb	r3, [r2]	@ zero_extendqisi2
 1132 00b4 03F0FE03 		and	r3, r3, #254
 1133 00b8 1370     		strb	r3, [r2]
 409:.\Generated_Source\PSoC5/ADC_DelSig_1.c ****     
 1134              		.loc 1 409 0
 1135 00ba 137C     		ldrb	r3, [r2, #16]	@ zero_extendqisi2
 1136 00bc 03F0FE03 		and	r3, r3, #254
 1137 00c0 1374     		strb	r3, [r2, #16]
 412:.\Generated_Source\PSoC5/ADC_DelSig_1.c **** 
 1138              		.loc 1 412 0
 1139 00c2 BDE87040 		pop	{r4, r5, r6, lr}
 1140              		.cfi_restore 14
 1141              		.cfi_restore 6
 1142              		.cfi_restore 5
 1143              		.cfi_restore 4
 1144              		.cfi_def_cfa_offset 0
 1145              	.LVL49:
 411:.\Generated_Source\PSoC5/ADC_DelSig_1.c **** }
 1146              		.loc 1 411 0
ARM GAS  C:\Users\IVYLIU~1\AppData\Local\Temp\cckaBvwB.s 			page 57


 1147 00c6 FFF7FEBF 		b	CyExitCriticalSection
 1148              	.LVL50:
 1149              	.L26:
 1150 00ca 00BF     		.align	2
 1151              	.L25:
 1152 00cc 004E0040 		.word	1073761792
 1153 00d0 F8460040 		.word	1073759992
 1154 00d4 F9460040 		.word	1073759993
 1155 00d8 AA430040 		.word	1073759146
 1156 00dc 77580040 		.word	1073764471
 1157              		.cfi_endproc
 1158              	.LFE3:
 1159              		.size	ADC_DelSig_1_Stop, .-ADC_DelSig_1_Stop
 1160              		.section	.text.ADC_DelSig_1_SetBufferGain,"ax",%progbits
 1161              		.align	1
 1162              		.global	ADC_DelSig_1_SetBufferGain
 1163              		.thumb
 1164              		.thumb_func
 1165              		.type	ADC_DelSig_1_SetBufferGain, %function
 1166              	ADC_DelSig_1_SetBufferGain:
 1167              	.LFB4:
 430:.\Generated_Source\PSoC5/ADC_DelSig_1.c ****     uint8 tmpReg;
 1168              		.loc 1 430 0
 1169              		.cfi_startproc
 1170              		@ args = 0, pretend = 0, frame = 0
 1171              		@ frame_needed = 0, uses_anonymous_args = 0
 1172              		@ link register save eliminated.
 1173              	.LVL51:
 432:.\Generated_Source\PSoC5/ADC_DelSig_1.c ****     tmpReg |= (uint8)(gain << ADC_DelSig_1_DSM_GAIN_SHIFT) & ADC_DelSig_1_DSM_GAIN_MASK;
 1174              		.loc 1 432 0
 1175 0000 044A     		ldr	r2, .L28
 433:.\Generated_Source\PSoC5/ADC_DelSig_1.c ****     ADC_DelSig_1_DSM_BUF1_REG = tmpReg;
 1176              		.loc 1 433 0
 1177 0002 8000     		lsls	r0, r0, #2
 1178              	.LVL52:
 432:.\Generated_Source\PSoC5/ADC_DelSig_1.c ****     tmpReg |= (uint8)(gain << ADC_DelSig_1_DSM_GAIN_SHIFT) & ADC_DelSig_1_DSM_GAIN_MASK;
 1179              		.loc 1 432 0
 1180 0004 1378     		ldrb	r3, [r2]	@ zero_extendqisi2
 433:.\Generated_Source\PSoC5/ADC_DelSig_1.c ****     ADC_DelSig_1_DSM_BUF1_REG = tmpReg;
 1181              		.loc 1 433 0
 1182 0006 00F00C00 		and	r0, r0, #12
 432:.\Generated_Source\PSoC5/ADC_DelSig_1.c ****     tmpReg |= (uint8)(gain << ADC_DelSig_1_DSM_GAIN_SHIFT) & ADC_DelSig_1_DSM_GAIN_MASK;
 1183              		.loc 1 432 0
 1184 000a 03F0F303 		and	r3, r3, #243
 1185              	.LVL53:
 433:.\Generated_Source\PSoC5/ADC_DelSig_1.c ****     ADC_DelSig_1_DSM_BUF1_REG = tmpReg;
 1186              		.loc 1 433 0
 1187 000e 1843     		orrs	r0, r0, r3
 1188              	.LVL54:
 434:.\Generated_Source\PSoC5/ADC_DelSig_1.c **** }
 1189              		.loc 1 434 0
 1190 0010 1070     		strb	r0, [r2]
 1191 0012 7047     		bx	lr
 1192              	.L29:
 1193              		.align	2
 1194              	.L28:
 1195 0014 9B580040 		.word	1073764507
ARM GAS  C:\Users\IVYLIU~1\AppData\Local\Temp\cckaBvwB.s 			page 58


 1196              		.cfi_endproc
 1197              	.LFE4:
 1198              		.size	ADC_DelSig_1_SetBufferGain, .-ADC_DelSig_1_SetBufferGain
 1199              		.section	.text.ADC_DelSig_1_SetCoherency,"ax",%progbits
 1200              		.align	1
 1201              		.global	ADC_DelSig_1_SetCoherency
 1202              		.thumb
 1203              		.thumb_func
 1204              		.type	ADC_DelSig_1_SetCoherency, %function
 1205              	ADC_DelSig_1_SetCoherency:
 1206              	.LFB5:
 466:.\Generated_Source\PSoC5/ADC_DelSig_1.c ****     uint8 tmpReg;
 1207              		.loc 1 466 0
 1208              		.cfi_startproc
 1209              		@ args = 0, pretend = 0, frame = 0
 1210              		@ frame_needed = 0, uses_anonymous_args = 0
 1211              		@ link register save eliminated.
 1212              	.LVL55:
 469:.\Generated_Source\PSoC5/ADC_DelSig_1.c ****     tmpReg |= coherency & ADC_DelSig_1_DEC_SAMP_KEY_MASK;
 1213              		.loc 1 469 0
 1214 0000 044A     		ldr	r2, .L31
 470:.\Generated_Source\PSoC5/ADC_DelSig_1.c ****     ADC_DelSig_1_DEC_COHER_REG = tmpReg;
 1215              		.loc 1 470 0
 1216 0002 00F00300 		and	r0, r0, #3
 1217              	.LVL56:
 469:.\Generated_Source\PSoC5/ADC_DelSig_1.c ****     tmpReg |= coherency & ADC_DelSig_1_DEC_SAMP_KEY_MASK;
 1218              		.loc 1 469 0
 1219 0006 1378     		ldrb	r3, [r2]	@ zero_extendqisi2
 1220 0008 03F0FC03 		and	r3, r3, #252
 1221              	.LVL57:
 470:.\Generated_Source\PSoC5/ADC_DelSig_1.c ****     ADC_DelSig_1_DEC_COHER_REG = tmpReg;
 1222              		.loc 1 470 0
 1223 000c 1843     		orrs	r0, r0, r3
 1224              	.LVL58:
 471:.\Generated_Source\PSoC5/ADC_DelSig_1.c **** }
 1225              		.loc 1 471 0
 1226 000e 1070     		strb	r0, [r2]
 1227 0010 7047     		bx	lr
 1228              	.L32:
 1229 0012 00BF     		.align	2
 1230              	.L31:
 1231 0014 144E0040 		.word	1073761812
 1232              		.cfi_endproc
 1233              	.LFE5:
 1234              		.size	ADC_DelSig_1_SetCoherency, .-ADC_DelSig_1_SetCoherency
 1235              		.global	__aeabi_ui2f
 1236              		.global	__aeabi_fmul
 1237              		.global	__aeabi_f2d
 1238              		.global	__aeabi_dcmpgt
 1239              		.global	__aeabi_f2uiz
 1240              		.section	.text.ADC_DelSig_1_SetGCOR,"ax",%progbits
 1241              		.align	1
 1242              		.global	ADC_DelSig_1_SetGCOR
 1243              		.thumb
 1244              		.thumb_func
 1245              		.type	ADC_DelSig_1_SetGCOR, %function
 1246              	ADC_DelSig_1_SetGCOR:
ARM GAS  C:\Users\IVYLIU~1\AppData\Local\Temp\cckaBvwB.s 			page 59


 1247              	.LFB6:
 506:.\Generated_Source\PSoC5/ADC_DelSig_1.c ****     uint16 tmpReg;
 1248              		.loc 1 506 0
 1249              		.cfi_startproc
 1250              		@ args = 0, pretend = 0, frame = 0
 1251              		@ frame_needed = 0, uses_anonymous_args = 0
 1252              	.LVL59:
 1253 0000 F8B5     		push	{r3, r4, r5, r6, r7, lr}
 1254              		.cfi_def_cfa_offset 24
 1255              		.cfi_offset 3, -24
 1256              		.cfi_offset 4, -20
 1257              		.cfi_offset 5, -16
 1258              		.cfi_offset 6, -12
 1259              		.cfi_offset 7, -8
 1260              		.cfi_offset 14, -4
 506:.\Generated_Source\PSoC5/ADC_DelSig_1.c ****     uint16 tmpReg;
 1261              		.loc 1 506 0
 1262 0002 0446     		mov	r4, r0
 511:.\Generated_Source\PSoC5/ADC_DelSig_1.c ****     tmpValue = ((float32)tmpReg / (float32)ADC_DelSig_1_IDEAL_GAIN_CONST);
 1263              		.loc 1 511 0
 1264 0004 184E     		ldr	r6, .L36+8
 1265 0006 194D     		ldr	r5, .L36+12
 1266 0008 3378     		ldrb	r3, [r6]	@ zero_extendqisi2
 1267              	.LVL60:
 1268 000a 05EB8303 		add	r3, r5, r3, lsl #2
 1269              	.LVL61:
 512:.\Generated_Source\PSoC5/ADC_DelSig_1.c ****     tmpValue = tmpValue * gainAdjust;
 1270              		.loc 1 512 0
 1271 000e 33F8020C 		ldrh	r0, [r3, #-2]
 1272              	.LVL62:
 1273 0012 FFF7FEFF 		bl	__aeabi_ui2f
 1274              	.LVL63:
 1275 0016 4FF06051 		mov	r1, #939524096
 1276 001a FFF7FEFF 		bl	__aeabi_fmul
 1277              	.LVL64:
 513:.\Generated_Source\PSoC5/ADC_DelSig_1.c **** 
 1278              		.loc 1 513 0
 1279 001e 2146     		mov	r1, r4
 1280 0020 FFF7FEFF 		bl	__aeabi_fmul
 1281              	.LVL65:
 1282 0024 0746     		mov	r7, r0
 1283              	.LVL66:
 515:.\Generated_Source\PSoC5/ADC_DelSig_1.c ****     {
 1284              		.loc 1 515 0
 1285 0026 FFF7FEFF 		bl	__aeabi_f2d
 1286              	.LVL67:
 1287 002a 0DA3     		adr	r3, .L36
 1288 002c D3E90023 		ldrd	r2, [r3]
 1289 0030 FFF7FEFF 		bl	__aeabi_dcmpgt
 1290              	.LVL68:
 1291 0034 0446     		mov	r4, r0
 1292              	.LVL69:
 1293 0036 80B9     		cbnz	r0, .L35
 1294              	.LVL70:
 521:.\Generated_Source\PSoC5/ADC_DelSig_1.c **** 		tmpReg = (uint16)tmpValue;
 1295              		.loc 1 521 0
 1296 0038 4FF08E41 		mov	r1, #1191182336
ARM GAS  C:\Users\IVYLIU~1\AppData\Local\Temp\cckaBvwB.s 			page 60


 1297 003c 3846     		mov	r0, r7
 1298 003e FFF7FEFF 		bl	__aeabi_fmul
 1299              	.LVL71:
 522:.\Generated_Source\PSoC5/ADC_DelSig_1.c ****         CY_SET_REG16(ADC_DelSig_1_DEC_GCOR_16B_PTR, tmpReg);
 1300              		.loc 1 522 0
 1301 0042 FFF7FEFF 		bl	__aeabi_f2uiz
 1302              	.LVL72:
 523:.\Generated_Source\PSoC5/ADC_DelSig_1.c ****         /* Update gain array to be used by SelectConfiguration() API */
 1303              		.loc 1 523 0
 1304 0046 0A4B     		ldr	r3, .L36+16
 522:.\Generated_Source\PSoC5/ADC_DelSig_1.c ****         CY_SET_REG16(ADC_DelSig_1_DEC_GCOR_16B_PTR, tmpReg);
 1305              		.loc 1 522 0
 1306 0048 80B2     		uxth	r0, r0
 1307              	.LVL73:
 523:.\Generated_Source\PSoC5/ADC_DelSig_1.c ****         /* Update gain array to be used by SelectConfiguration() API */
 1308              		.loc 1 523 0
 1309 004a 1880     		strh	r0, [r3]	@ movhi
 525:.\Generated_Source\PSoC5/ADC_DelSig_1.c **** 
 1310              		.loc 1 525 0
 1311 004c 3378     		ldrb	r3, [r6]	@ zero_extendqisi2
 1312 004e 05EB8305 		add	r5, r5, r3, lsl #2
 1313 0052 25F8020C 		strh	r0, [r5, #-2]	@ movhi
 1314              	.LVL74:
 527:.\Generated_Source\PSoC5/ADC_DelSig_1.c **** 
 1315              		.loc 1 527 0
 1316 0056 2046     		mov	r0, r4
 1317              	.LVL75:
 1318 0058 F8BD     		pop	{r3, r4, r5, r6, r7, pc}
 1319              	.LVL76:
 1320              	.L35:
 517:.\Generated_Source\PSoC5/ADC_DelSig_1.c ****     }
 1321              		.loc 1 517 0
 1322 005a 0120     		movs	r0, #1
 1323              	.LVL77:
 531:.\Generated_Source\PSoC5/ADC_DelSig_1.c **** 
 1324              		.loc 1 531 0
 1325 005c F8BD     		pop	{r3, r4, r5, r6, r7, pc}
 1326              	.LVL78:
 1327              	.L37:
 1328 005e 00BF     		.align	3
 1329              	.L36:
 1330 0060 8F537424 		.word	611603343
 1331 0064 97FFFF3F 		.word	1073741719
 1332 0068 00000000 		.word	.LANCHOR1
 1333 006c 00000000 		.word	.LANCHOR0
 1334 0070 0C4E0040 		.word	1073761804
 1335              		.cfi_endproc
 1336              	.LFE6:
 1337              		.size	ADC_DelSig_1_SetGCOR, .-ADC_DelSig_1_SetGCOR
 1338 0074 AFF30080 		.section	.text.ADC_DelSig_1_ReadGCOR,"ax",%progbits
 1339              		.align	1
 1340              		.global	ADC_DelSig_1_ReadGCOR
 1341              		.thumb
 1342              		.thumb_func
 1343              		.type	ADC_DelSig_1_ReadGCOR, %function
 1344              	ADC_DelSig_1_ReadGCOR:
 1345              	.LFB7:
ARM GAS  C:\Users\IVYLIU~1\AppData\Local\Temp\cckaBvwB.s 			page 61


 553:.\Generated_Source\PSoC5/ADC_DelSig_1.c ****     uint8 gValue;
 1346              		.loc 1 553 0
 1347              		.cfi_startproc
 1348              		@ args = 0, pretend = 0, frame = 0
 1349              		@ frame_needed = 0, uses_anonymous_args = 0
 1350              		@ link register save eliminated.
 557:.\Generated_Source\PSoC5/ADC_DelSig_1.c ****     gcorValue = CY_GET_REG16(ADC_DelSig_1_DEC_GCOR_16B_PTR);
 1351              		.loc 1 557 0
 1352 0000 064B     		ldr	r3, .L40
 558:.\Generated_Source\PSoC5/ADC_DelSig_1.c **** 
 1353              		.loc 1 558 0
 1354 0002 074A     		ldr	r2, .L40+4
 557:.\Generated_Source\PSoC5/ADC_DelSig_1.c ****     gcorValue = CY_GET_REG16(ADC_DelSig_1_DEC_GCOR_16B_PTR);
 1355              		.loc 1 557 0
 1356 0004 1B78     		ldrb	r3, [r3]	@ zero_extendqisi2
 558:.\Generated_Source\PSoC5/ADC_DelSig_1.c **** 
 1357              		.loc 1 558 0
 1358 0006 1088     		ldrh	r0, [r2]
 557:.\Generated_Source\PSoC5/ADC_DelSig_1.c ****     gcorValue = CY_GET_REG16(ADC_DelSig_1_DEC_GCOR_16B_PTR);
 1359              		.loc 1 557 0
 1360 0008 DBB2     		uxtb	r3, r3
 1361              	.LVL79:
 560:.\Generated_Source\PSoC5/ADC_DelSig_1.c ****     {
 1362              		.loc 1 560 0
 1363 000a 0E2B     		cmp	r3, #14
 558:.\Generated_Source\PSoC5/ADC_DelSig_1.c **** 
 1364              		.loc 1 558 0
 1365 000c 80B2     		uxth	r0, r0
 1366              	.LVL80:
 562:.\Generated_Source\PSoC5/ADC_DelSig_1.c ****     }
 1367              		.loc 1 562 0
 1368 000e 9EBF     		ittt	ls
 1369 0010 C3F10F03 		rsbls	r3, r3, #15
 1370              	.LVL81:
 1371 0014 9840     		lslls	r0, r0, r3
 1372              	.LVL82:
 1373 0016 80B2     		uxthls	r0, r0
 1374              	.LVL83:
 566:.\Generated_Source\PSoC5/ADC_DelSig_1.c **** 
 1375              		.loc 1 566 0
 1376 0018 7047     		bx	lr
 1377              	.L41:
 1378 001a 00BF     		.align	2
 1379              	.L40:
 1380 001c 0E4E0040 		.word	1073761806
 1381 0020 0C4E0040 		.word	1073761804
 1382              		.cfi_endproc
 1383              	.LFE7:
 1384              		.size	ADC_DelSig_1_ReadGCOR, .-ADC_DelSig_1_ReadGCOR
 1385              		.section	.text.ADC_DelSig_1_StartConvert,"ax",%progbits
 1386              		.align	1
 1387              		.global	ADC_DelSig_1_StartConvert
 1388              		.thumb
 1389              		.thumb_func
 1390              		.type	ADC_DelSig_1_StartConvert, %function
 1391              	ADC_DelSig_1_StartConvert:
 1392              	.LFB8:
ARM GAS  C:\Users\IVYLIU~1\AppData\Local\Temp\cckaBvwB.s 			page 62


 587:.\Generated_Source\PSoC5/ADC_DelSig_1.c ****     /* Start the conversion */
 1393              		.loc 1 587 0
 1394              		.cfi_startproc
 1395              		@ args = 0, pretend = 0, frame = 0
 1396              		@ frame_needed = 0, uses_anonymous_args = 0
 1397              		@ link register save eliminated.
 589:.\Generated_Source\PSoC5/ADC_DelSig_1.c **** }
 1398              		.loc 1 589 0
 1399 0000 024A     		ldr	r2, .L43
 1400 0002 1378     		ldrb	r3, [r2]	@ zero_extendqisi2
 1401 0004 43F00103 		orr	r3, r3, #1
 1402 0008 1370     		strb	r3, [r2]
 1403 000a 7047     		bx	lr
 1404              	.L44:
 1405              		.align	2
 1406              	.L43:
 1407 000c 004E0040 		.word	1073761792
 1408              		.cfi_endproc
 1409              	.LFE8:
 1410              		.size	ADC_DelSig_1_StartConvert, .-ADC_DelSig_1_StartConvert
 1411              		.section	.text.ADC_DelSig_1_StopConvert,"ax",%progbits
 1412              		.align	1
 1413              		.global	ADC_DelSig_1_StopConvert
 1414              		.thumb
 1415              		.thumb_func
 1416              		.type	ADC_DelSig_1_StopConvert, %function
 1417              	ADC_DelSig_1_StopConvert:
 1418              	.LFB9:
 610:.\Generated_Source\PSoC5/ADC_DelSig_1.c ****     /* Stop all conversions */
 1419              		.loc 1 610 0
 1420              		.cfi_startproc
 1421              		@ args = 0, pretend = 0, frame = 0
 1422              		@ frame_needed = 0, uses_anonymous_args = 0
 1423              		@ link register save eliminated.
 612:.\Generated_Source\PSoC5/ADC_DelSig_1.c **** }
 1424              		.loc 1 612 0
 1425 0000 024A     		ldr	r2, .L46
 1426 0002 1378     		ldrb	r3, [r2]	@ zero_extendqisi2
 1427 0004 03F0FE03 		and	r3, r3, #254
 1428 0008 1370     		strb	r3, [r2]
 1429 000a 7047     		bx	lr
 1430              	.L47:
 1431              		.align	2
 1432              	.L46:
 1433 000c 004E0040 		.word	1073761792
 1434              		.cfi_endproc
 1435              	.LFE9:
 1436              		.size	ADC_DelSig_1_StopConvert, .-ADC_DelSig_1_StopConvert
 1437              		.section	.text.ADC_DelSig_1_IsEndConversion,"ax",%progbits
 1438              		.align	1
 1439              		.global	ADC_DelSig_1_IsEndConversion
 1440              		.thumb
 1441              		.thumb_func
 1442              		.type	ADC_DelSig_1_IsEndConversion, %function
 1443              	ADC_DelSig_1_IsEndConversion:
 1444              	.LFB10:
 645:.\Generated_Source\PSoC5/ADC_DelSig_1.c ****     uint8 status;
ARM GAS  C:\Users\IVYLIU~1\AppData\Local\Temp\cckaBvwB.s 			page 63


 1445              		.loc 1 645 0
 1446              		.cfi_startproc
 1447              		@ args = 0, pretend = 0, frame = 0
 1448              		@ frame_needed = 0, uses_anonymous_args = 0
 1449              		@ link register save eliminated.
 1450              	.LVL84:
 1451              	.L52:
 653:.\Generated_Source\PSoC5/ADC_DelSig_1.c ****         {
 1452              		.loc 1 653 0
 1453 0000 074B     		ldr	r3, .L58
 1454 0002 1A78     		ldrb	r2, [r3]	@ zero_extendqisi2
 1455 0004 12B1     		cbz	r2, .L49
 655:.\Generated_Source\PSoC5/ADC_DelSig_1.c ****         }
 1456              		.loc 1 655 0
 1457 0006 5B78     		ldrb	r3, [r3, #1]	@ zero_extendqisi2
 1458 0008 DBB2     		uxtb	r3, r3
 1459              	.LVL85:
 1460 000a 03E0     		b	.L50
 1461              	.LVL86:
 1462              	.L49:
 659:.\Generated_Source\PSoC5/ADC_DelSig_1.c ****         }
 1463              		.loc 1 659 0
 1464 000c 054B     		ldr	r3, .L58+4
 1465 000e 1B78     		ldrb	r3, [r3]	@ zero_extendqisi2
 1466 0010 03F00103 		and	r3, r3, #1
 1467              	.LVL87:
 1468              	.L50:
 661:.\Generated_Source\PSoC5/ADC_DelSig_1.c **** 
 1469              		.loc 1 661 0
 1470 0014 012B     		cmp	r3, #1
 1471 0016 01D0     		beq	.L51
 661:.\Generated_Source\PSoC5/ADC_DelSig_1.c **** 
 1472              		.loc 1 661 0 is_stmt 0 discriminator 1
 1473 0018 0028     		cmp	r0, #0
 1474 001a F1D0     		beq	.L52
 1475              	.L51:
 664:.\Generated_Source\PSoC5/ADC_DelSig_1.c **** 
 1476              		.loc 1 664 0 is_stmt 1
 1477 001c 1846     		mov	r0, r3
 1478              	.LVL88:
 1479 001e 7047     		bx	lr
 1480              	.L59:
 1481              		.align	2
 1482              	.L58:
 1483 0020 00000000 		.word	.LANCHOR0
 1484 0024 014E0040 		.word	1073761793
 1485              		.cfi_endproc
 1486              	.LFE10:
 1487              		.size	ADC_DelSig_1_IsEndConversion, .-ADC_DelSig_1_IsEndConversion
 1488              		.section	.text.ADC_DelSig_1_GetResult8,"ax",%progbits
 1489              		.align	1
 1490              		.global	ADC_DelSig_1_GetResult8
 1491              		.thumb
 1492              		.thumb_func
 1493              		.type	ADC_DelSig_1_GetResult8, %function
 1494              	ADC_DelSig_1_GetResult8:
 1495              	.LFB11:
ARM GAS  C:\Users\IVYLIU~1\AppData\Local\Temp\cckaBvwB.s 			page 64


 692:.\Generated_Source\PSoC5/ADC_DelSig_1.c ****     int8 result;
 1496              		.loc 1 692 0
 1497              		.cfi_startproc
 1498              		@ args = 0, pretend = 0, frame = 0
 1499              		@ frame_needed = 0, uses_anonymous_args = 0
 1500              		@ link register save eliminated.
 697:.\Generated_Source\PSoC5/ADC_DelSig_1.c **** 
 1501              		.loc 1 697 0
 1502 0000 0A4B     		ldr	r3, .L68
 699:.\Generated_Source\PSoC5/ADC_DelSig_1.c **** 
 1503              		.loc 1 699 0
 1504 0002 0B4A     		ldr	r2, .L68+4
 697:.\Generated_Source\PSoC5/ADC_DelSig_1.c **** 
 1505              		.loc 1 697 0
 1506 0004 1B78     		ldrb	r3, [r3]	@ zero_extendqisi2
 699:.\Generated_Source\PSoC5/ADC_DelSig_1.c **** 
 1507              		.loc 1 699 0
 1508 0006 1078     		ldrb	r0, [r2]	@ zero_extendqisi2
 697:.\Generated_Source\PSoC5/ADC_DelSig_1.c **** 
 1509              		.loc 1 697 0
 1510 0008 03F00303 		and	r3, r3, #3
 1511              	.LVL89:
 701:.\Generated_Source\PSoC5/ADC_DelSig_1.c ****     {   /* Dummy read of the middle byte to unlock the coherency */
 1512              		.loc 1 701 0
 1513 000c 022B     		cmp	r3, #2
 1514 000e 01D1     		bne	.L61
 703:.\Generated_Source\PSoC5/ADC_DelSig_1.c ****     }
 1515              		.loc 1 703 0
 1516 0010 084B     		ldr	r3, .L68+8
 1517              	.LVL90:
 1518 0012 02E0     		b	.L67
 1519              	.LVL91:
 1520              	.L61:
 705:.\Generated_Source\PSoC5/ADC_DelSig_1.c ****     {   /* Dummy read of the MSB byte to unlock the coherency */
 1521              		.loc 1 705 0
 1522 0014 032B     		cmp	r3, #3
 1523 0016 01D1     		bne	.L62
 707:.\Generated_Source\PSoC5/ADC_DelSig_1.c ****     }
 1524              		.loc 1 707 0
 1525 0018 074B     		ldr	r3, .L68+12
 1526              	.LVL92:
 1527              	.L67:
 1528 001a 1B78     		ldrb	r3, [r3]	@ zero_extendqisi2
 1529              	.L62:
 713:.\Generated_Source\PSoC5/ADC_DelSig_1.c ****     {
 1530              		.loc 1 713 0
 1531 001c 074B     		ldr	r3, .L68+16
 1532 001e 1A78     		ldrb	r2, [r3]	@ zero_extendqisi2
 1533 0020 0AB1     		cbz	r2, .L63
 715:.\Generated_Source\PSoC5/ADC_DelSig_1.c ****     }
 1534              		.loc 1 715 0
 1535 0022 0022     		movs	r2, #0
 1536 0024 5A70     		strb	r2, [r3, #1]
 1537              	.L63:
 718:.\Generated_Source\PSoC5/ADC_DelSig_1.c **** 
 1538              		.loc 1 718 0
 1539 0026 40B2     		sxtb	r0, r0
ARM GAS  C:\Users\IVYLIU~1\AppData\Local\Temp\cckaBvwB.s 			page 65


 1540 0028 7047     		bx	lr
 1541              	.L69:
 1542 002a 00BF     		.align	2
 1543              	.L68:
 1544 002c 144E0040 		.word	1073761812
 1545 0030 104E0040 		.word	1073761808
 1546 0034 114E0040 		.word	1073761809
 1547 0038 124E0040 		.word	1073761810
 1548 003c 00000000 		.word	.LANCHOR0
 1549              		.cfi_endproc
 1550              	.LFE11:
 1551              		.size	ADC_DelSig_1_GetResult8, .-ADC_DelSig_1_GetResult8
 1552              		.section	.text.ADC_DelSig_1_GetResult16,"ax",%progbits
 1553              		.align	1
 1554              		.global	ADC_DelSig_1_GetResult16
 1555              		.thumb
 1556              		.thumb_func
 1557              		.type	ADC_DelSig_1_GetResult16, %function
 1558              	ADC_DelSig_1_GetResult16:
 1559              	.LFB12:
 746:.\Generated_Source\PSoC5/ADC_DelSig_1.c ****     uint16 result;
 1560              		.loc 1 746 0
 1561              		.cfi_startproc
 1562              		@ args = 0, pretend = 0, frame = 0
 1563              		@ frame_needed = 0, uses_anonymous_args = 0
 1564              		@ link register save eliminated.
 751:.\Generated_Source\PSoC5/ADC_DelSig_1.c **** 
 1565              		.loc 1 751 0
 1566 0000 0C4B     		ldr	r3, .L77
 1567 0002 1A78     		ldrb	r2, [r3]	@ zero_extendqisi2
 1568 0004 043B     		subs	r3, r3, #4
 1569 0006 02F00302 		and	r2, r2, #3
 1570              	.LVL93:
 753:.\Generated_Source\PSoC5/ADC_DelSig_1.c ****     {   /*  Use default method to read result registers i.e. LSB byte read at the end*/
 1571              		.loc 1 753 0
 1572 000a 012A     		cmp	r2, #1
 1573 000c 02D8     		bhi	.L71
 759:.\Generated_Source\PSoC5/ADC_DelSig_1.c ****         #endif /* CY_PSOC3 */
 1574              		.loc 1 759 0
 1575 000e 1888     		ldrh	r0, [r3]
 1576 0010 80B2     		uxth	r0, r0
 1577              	.LVL94:
 1578 0012 08E0     		b	.L72
 1579              	.LVL95:
 1580              	.L71:
 768:.\Generated_Source\PSoC5/ADC_DelSig_1.c ****         #endif /* CY_PSOC3 */
 1581              		.loc 1 768 0
 1582 0014 0849     		ldr	r1, .L77+4
 767:.\Generated_Source\PSoC5/ADC_DelSig_1.c ****             result |=  (uint16)((uint16)ADC_DelSig_1_DEC_SAMPM_REG << 8u);
 1583              		.loc 1 767 0
 1584 0016 1B78     		ldrb	r3, [r3]	@ zero_extendqisi2
 1585              	.LVL96:
 768:.\Generated_Source\PSoC5/ADC_DelSig_1.c ****         #endif /* CY_PSOC3 */
 1586              		.loc 1 768 0
 1587 0018 0878     		ldrb	r0, [r1]	@ zero_extendqisi2
 770:.\Generated_Source\PSoC5/ADC_DelSig_1.c ****         {   /* Dummy read of the MSB byte to unlock the coherency */
 1588              		.loc 1 770 0
ARM GAS  C:\Users\IVYLIU~1\AppData\Local\Temp\cckaBvwB.s 			page 66


 1589 001a 032A     		cmp	r2, #3
 768:.\Generated_Source\PSoC5/ADC_DelSig_1.c ****         #endif /* CY_PSOC3 */
 1590              		.loc 1 768 0
 1591 001c 43EA0020 		orr	r0, r3, r0, lsl #8
 1592              	.LVL97:
 772:.\Generated_Source\PSoC5/ADC_DelSig_1.c ****         }
 1593              		.loc 1 772 0
 1594 0020 04BF     		itt	eq
 1595 0022 064B     		ldreq	r3, .L77+8
 1596 0024 1B78     		ldrbeq	r3, [r3]	@ zero_extendqisi2
 1597              	.L72:
 776:.\Generated_Source\PSoC5/ADC_DelSig_1.c ****     {
 1598              		.loc 1 776 0
 1599 0026 064B     		ldr	r3, .L77+12
 1600 0028 1A78     		ldrb	r2, [r3]	@ zero_extendqisi2
 1601              	.LVL98:
 1602 002a 0AB1     		cbz	r2, .L73
 778:.\Generated_Source\PSoC5/ADC_DelSig_1.c ****     }
 1603              		.loc 1 778 0
 1604 002c 0022     		movs	r2, #0
 1605 002e 5A70     		strb	r2, [r3, #1]
 1606              	.L73:
 782:.\Generated_Source\PSoC5/ADC_DelSig_1.c **** 
 1607              		.loc 1 782 0
 1608 0030 00B2     		sxth	r0, r0
 1609 0032 7047     		bx	lr
 1610              	.L78:
 1611              		.align	2
 1612              	.L77:
 1613 0034 144E0040 		.word	1073761812
 1614 0038 114E0040 		.word	1073761809
 1615 003c 124E0040 		.word	1073761810
 1616 0040 00000000 		.word	.LANCHOR0
 1617              		.cfi_endproc
 1618              	.LFE12:
 1619              		.size	ADC_DelSig_1_GetResult16, .-ADC_DelSig_1_GetResult16
 1620              		.section	.text.ADC_DelSig_1_GetResult32,"ax",%progbits
 1621              		.align	1
 1622              		.global	ADC_DelSig_1_GetResult32
 1623              		.thumb
 1624              		.thumb_func
 1625              		.type	ADC_DelSig_1_GetResult32, %function
 1626              	ADC_DelSig_1_GetResult32:
 1627              	.LFB13:
 806:.\Generated_Source\PSoC5/ADC_DelSig_1.c ****     uint32 result;
 1628              		.loc 1 806 0
 1629              		.cfi_startproc
 1630              		@ args = 0, pretend = 0, frame = 0
 1631              		@ frame_needed = 0, uses_anonymous_args = 0
 1632              		@ link register save eliminated.
 814:.\Generated_Source\PSoC5/ADC_DelSig_1.c **** 
 1633              		.loc 1 814 0
 1634 0000 104B     		ldr	r3, .L88
 1635 0002 114A     		ldr	r2, .L88+4
 1636 0004 1B78     		ldrb	r3, [r3]	@ zero_extendqisi2
 1637 0006 1149     		ldr	r1, .L88+8
 1638 0008 03F00303 		and	r3, r3, #3
ARM GAS  C:\Users\IVYLIU~1\AppData\Local\Temp\cckaBvwB.s 			page 67


 1639              	.LVL99:
 816:.\Generated_Source\PSoC5/ADC_DelSig_1.c ****     {   /*  Use default method to read result registers i.e. LSB byte read at the end*/
 1640              		.loc 1 816 0
 1641 000c 012B     		cmp	r3, #1
 1642 000e 03D8     		bhi	.L80
 827:.\Generated_Source\PSoC5/ADC_DelSig_1.c ****             result = (result << 16u) | (CY_GET_REG16(ADC_DelSig_1_DEC_SAMP_16B_PTR));
 1643              		.loc 1 827 0
 1644 0010 1388     		ldrh	r3, [r2]
 1645              	.LVL100:
 828:.\Generated_Source\PSoC5/ADC_DelSig_1.c ****         #endif /* CY_PSOC3 */
 1646              		.loc 1 828 0
 1647 0012 0888     		ldrh	r0, [r1]
 1648 0014 80B2     		uxth	r0, r0
 1649 0016 0DE0     		b	.L87
 1650              	.LVL101:
 1651              	.L80:
 831:.\Generated_Source\PSoC5/ADC_DelSig_1.c ****     {   /* Read middle byte at the end */
 1652              		.loc 1 831 0
 1653 0018 022B     		cmp	r3, #2
 1654 001a 08D1     		bne	.L82
 841:.\Generated_Source\PSoC5/ADC_DelSig_1.c ****             result = (result << 16u) | ADC_DelSig_1_DEC_SAMP_REG;
 1655              		.loc 1 841 0
 1656 001c 1288     		ldrh	r2, [r2]
 1657              	.LVL102:
 842:.\Generated_Source\PSoC5/ADC_DelSig_1.c ****             result |=  (uint32)((uint32)ADC_DelSig_1_DEC_SAMPM_REG << 8u);
 1658              		.loc 1 842 0
 1659 001e 0B78     		ldrb	r3, [r1]	@ zero_extendqisi2
 1660              	.LVL103:
 843:.\Generated_Source\PSoC5/ADC_DelSig_1.c ****         #endif /* CY_PSOC3 */
 1661              		.loc 1 843 0
 1662 0020 0B49     		ldr	r1, .L88+12
 1663 0022 0878     		ldrb	r0, [r1]	@ zero_extendqisi2
 1664 0024 0002     		lsls	r0, r0, #8
 1665 0026 40EA0240 		orr	r0, r0, r2, lsl #16
 1666 002a 1843     		orrs	r0, r0, r3
 1667              	.LVL104:
 1668 002c 04E0     		b	.L81
 1669              	.LVL105:
 1670              	.L82:
 858:.\Generated_Source\PSoC5/ADC_DelSig_1.c ****             result |= (uint32)((uint32)CY_GET_REG16(ADC_DelSig_1_DEC_SAMPH_16B_PTR) << 16u);
 1671              		.loc 1 858 0
 1672 002e 0888     		ldrh	r0, [r1]
 859:.\Generated_Source\PSoC5/ADC_DelSig_1.c ****         #endif /* CY_PSOC3 */
 1673              		.loc 1 859 0
 1674 0030 1388     		ldrh	r3, [r2]
 1675              	.LVL106:
 858:.\Generated_Source\PSoC5/ADC_DelSig_1.c ****             result |= (uint32)((uint32)CY_GET_REG16(ADC_DelSig_1_DEC_SAMPH_16B_PTR) << 16u);
 1676              		.loc 1 858 0
 1677 0032 80B2     		uxth	r0, r0
 1678              	.LVL107:
 1679              	.L87:
 859:.\Generated_Source\PSoC5/ADC_DelSig_1.c ****         #endif /* CY_PSOC3 */
 1680              		.loc 1 859 0
 1681 0034 40EA0340 		orr	r0, r0, r3, lsl #16
 1682              	.LVL108:
 1683              	.L81:
 863:.\Generated_Source\PSoC5/ADC_DelSig_1.c ****     {
ARM GAS  C:\Users\IVYLIU~1\AppData\Local\Temp\cckaBvwB.s 			page 68


 1684              		.loc 1 863 0
 1685 0038 064B     		ldr	r3, .L88+16
 1686 003a 1A78     		ldrb	r2, [r3]	@ zero_extendqisi2
 1687 003c 0AB1     		cbz	r2, .L83
 865:.\Generated_Source\PSoC5/ADC_DelSig_1.c ****     }
 1688              		.loc 1 865 0
 1689 003e 0022     		movs	r2, #0
 1690 0040 5A70     		strb	r2, [r3, #1]
 1691              	.L83:
 869:.\Generated_Source\PSoC5/ADC_DelSig_1.c **** 
 1692              		.loc 1 869 0
 1693 0042 7047     		bx	lr
 1694              	.L89:
 1695              		.align	2
 1696              	.L88:
 1697 0044 144E0040 		.word	1073761812
 1698 0048 124E0040 		.word	1073761810
 1699 004c 104E0040 		.word	1073761808
 1700 0050 114E0040 		.word	1073761809
 1701 0054 00000000 		.word	.LANCHOR0
 1702              		.cfi_endproc
 1703              	.LFE13:
 1704              		.size	ADC_DelSig_1_GetResult32, .-ADC_DelSig_1_GetResult32
 1705              		.section	.text.ADC_DelSig_1_SetOffset,"ax",%progbits
 1706              		.align	1
 1707              		.global	ADC_DelSig_1_SetOffset
 1708              		.thumb
 1709              		.thumb_func
 1710              		.type	ADC_DelSig_1_SetOffset, %function
 1711              	ADC_DelSig_1_SetOffset:
 1712              	.LFB14:
 899:.\Generated_Source\PSoC5/ADC_DelSig_1.c **** 
 1713              		.loc 1 899 0
 1714              		.cfi_startproc
 1715              		@ args = 0, pretend = 0, frame = 0
 1716              		@ frame_needed = 0, uses_anonymous_args = 0
 1717              		@ link register save eliminated.
 1718              	.LVL109:
 901:.\Generated_Source\PSoC5/ADC_DelSig_1.c **** }
 1719              		.loc 1 901 0
 1720 0000 014B     		ldr	r3, .L91
 1721 0002 1860     		str	r0, [r3]
 1722 0004 7047     		bx	lr
 1723              	.L92:
 1724 0006 00BF     		.align	2
 1725              	.L91:
 1726 0008 00000000 		.word	ADC_DelSig_1_Offset
 1727              		.cfi_endproc
 1728              	.LFE14:
 1729              		.size	ADC_DelSig_1_SetOffset, .-ADC_DelSig_1_SetOffset
 1730              		.section	.text.ADC_DelSig_1_SetGain,"ax",%progbits
 1731              		.align	1
 1732              		.global	ADC_DelSig_1_SetGain
 1733              		.thumb
 1734              		.thumb_func
 1735              		.type	ADC_DelSig_1_SetGain, %function
 1736              	ADC_DelSig_1_SetGain:
ARM GAS  C:\Users\IVYLIU~1\AppData\Local\Temp\cckaBvwB.s 			page 69


 1737              	.LFB15:
 934:.\Generated_Source\PSoC5/ADC_DelSig_1.c ****     ADC_DelSig_1_CountsPerVolt = adcGain;
 1738              		.loc 1 934 0
 1739              		.cfi_startproc
 1740              		@ args = 0, pretend = 0, frame = 0
 1741              		@ frame_needed = 0, uses_anonymous_args = 0
 1742              		@ link register save eliminated.
 1743              	.LVL110:
 935:.\Generated_Source\PSoC5/ADC_DelSig_1.c **** }
 1744              		.loc 1 935 0
 1745 0000 014B     		ldr	r3, .L94
 1746 0002 1860     		str	r0, [r3]
 1747 0004 7047     		bx	lr
 1748              	.L95:
 1749 0006 00BF     		.align	2
 1750              	.L94:
 1751 0008 00000000 		.word	ADC_DelSig_1_CountsPerVolt
 1752              		.cfi_endproc
 1753              	.LFE15:
 1754              		.size	ADC_DelSig_1_SetGain, .-ADC_DelSig_1_SetGain
 1755              		.section	.text.ADC_DelSig_1_CountsTo_mVolts,"ax",%progbits
 1756              		.align	1
 1757              		.global	ADC_DelSig_1_CountsTo_mVolts
 1758              		.thumb
 1759              		.thumb_func
 1760              		.type	ADC_DelSig_1_CountsTo_mVolts, %function
 1761              	ADC_DelSig_1_CountsTo_mVolts:
 1762              	.LFB16:
 961:.\Generated_Source\PSoC5/ADC_DelSig_1.c **** 
 1763              		.loc 1 961 0
 1764              		.cfi_startproc
 1765              		@ args = 0, pretend = 0, frame = 0
 1766              		@ frame_needed = 0, uses_anonymous_args = 0
 1767              		@ link register save eliminated.
 1768              	.LVL111:
 992:.\Generated_Source\PSoC5/ADC_DelSig_1.c **** 
 1769              		.loc 1 992 0
 1770 0000 054B     		ldr	r3, .L97
 994:.\Generated_Source\PSoC5/ADC_DelSig_1.c **** 
 1771              		.loc 1 994 0
 1772 0002 064A     		ldr	r2, .L97+4
 992:.\Generated_Source\PSoC5/ADC_DelSig_1.c **** 
 1773              		.loc 1 992 0
 1774 0004 1B68     		ldr	r3, [r3]
 1775              	.LVL112:
 994:.\Generated_Source\PSoC5/ADC_DelSig_1.c **** 
 1776              		.loc 1 994 0
 1777 0006 1268     		ldr	r2, [r2]
 1778              	.LVL113:
 992:.\Generated_Source\PSoC5/ADC_DelSig_1.c **** 
 1779              		.loc 1 992 0
 1780 0008 C01A     		subs	r0, r0, r3
 1781              	.LVL114:
 994:.\Generated_Source\PSoC5/ADC_DelSig_1.c **** 
 1782              		.loc 1 994 0
 1783 000a 4FF47A73 		mov	r3, #1000
 1784              	.LVL115:
ARM GAS  C:\Users\IVYLIU~1\AppData\Local\Temp\cckaBvwB.s 			page 70


 1785 000e 5843     		muls	r0, r3, r0
 1786              	.LVL116:
 1787 0010 90FBF2F0 		sdiv	r0, r0, r2
 997:.\Generated_Source\PSoC5/ADC_DelSig_1.c **** 
 1788              		.loc 1 997 0
 1789 0014 00B2     		sxth	r0, r0
 1790 0016 7047     		bx	lr
 1791              	.L98:
 1792              		.align	2
 1793              	.L97:
 1794 0018 00000000 		.word	ADC_DelSig_1_Offset
 1795 001c 00000000 		.word	ADC_DelSig_1_CountsPerVolt
 1796              		.cfi_endproc
 1797              	.LFE16:
 1798              		.size	ADC_DelSig_1_CountsTo_mVolts, .-ADC_DelSig_1_CountsTo_mVolts
 1799              		.global	__aeabi_i2f
 1800              		.global	__aeabi_fdiv
 1801              		.section	.text.ADC_DelSig_1_CountsTo_Volts,"ax",%progbits
 1802              		.align	1
 1803              		.global	ADC_DelSig_1_CountsTo_Volts
 1804              		.thumb
 1805              		.thumb_func
 1806              		.type	ADC_DelSig_1_CountsTo_Volts, %function
 1807              	ADC_DelSig_1_CountsTo_Volts:
 1808              	.LFB17:
1022:.\Generated_Source\PSoC5/ADC_DelSig_1.c **** 
 1809              		.loc 1 1022 0
 1810              		.cfi_startproc
 1811              		@ args = 0, pretend = 0, frame = 0
 1812              		@ frame_needed = 0, uses_anonymous_args = 0
 1813              	.LVL117:
 1814 0000 38B5     		push	{r3, r4, r5, lr}
 1815              		.cfi_def_cfa_offset 16
 1816              		.cfi_offset 3, -16
 1817              		.cfi_offset 4, -12
 1818              		.cfi_offset 5, -8
 1819              		.cfi_offset 14, -4
1053:.\Generated_Source\PSoC5/ADC_DelSig_1.c **** 
 1820              		.loc 1 1053 0
 1821 0002 084B     		ldr	r3, .L100
1055:.\Generated_Source\PSoC5/ADC_DelSig_1.c **** 
 1822              		.loc 1 1055 0
 1823 0004 084A     		ldr	r2, .L100+4
1053:.\Generated_Source\PSoC5/ADC_DelSig_1.c **** 
 1824              		.loc 1 1053 0
 1825 0006 1B68     		ldr	r3, [r3]
 1826              	.LVL118:
1055:.\Generated_Source\PSoC5/ADC_DelSig_1.c **** 
 1827              		.loc 1 1055 0
 1828 0008 1568     		ldr	r5, [r2]
 1829              	.LVL119:
 1830 000a C01A     		subs	r0, r0, r3
 1831              	.LVL120:
 1832 000c FFF7FEFF 		bl	__aeabi_i2f
 1833              	.LVL121:
 1834 0010 0446     		mov	r4, r0
 1835 0012 2846     		mov	r0, r5
ARM GAS  C:\Users\IVYLIU~1\AppData\Local\Temp\cckaBvwB.s 			page 71


 1836 0014 FFF7FEFF 		bl	__aeabi_i2f
 1837              	.LVL122:
 1838 0018 0146     		mov	r1, r0
 1839 001a 2046     		mov	r0, r4
 1840 001c FFF7FEFF 		bl	__aeabi_fdiv
 1841              	.LVL123:
1058:.\Generated_Source\PSoC5/ADC_DelSig_1.c **** 
 1842              		.loc 1 1058 0
 1843 0020 38BD     		pop	{r3, r4, r5, pc}
 1844              	.L101:
 1845 0022 00BF     		.align	2
 1846              	.L100:
 1847 0024 00000000 		.word	ADC_DelSig_1_Offset
 1848 0028 00000000 		.word	ADC_DelSig_1_CountsPerVolt
 1849              		.cfi_endproc
 1850              	.LFE17:
 1851              		.size	ADC_DelSig_1_CountsTo_Volts, .-ADC_DelSig_1_CountsTo_Volts
 1852              		.section	.text.ADC_DelSig_1_CountsTo_uVolts,"ax",%progbits
 1853              		.align	1
 1854              		.global	ADC_DelSig_1_CountsTo_uVolts
 1855              		.thumb
 1856              		.thumb_func
 1857              		.type	ADC_DelSig_1_CountsTo_uVolts, %function
 1858              	ADC_DelSig_1_CountsTo_uVolts:
 1859              	.LFB18:
1088:.\Generated_Source\PSoC5/ADC_DelSig_1.c **** 
 1860              		.loc 1 1088 0
 1861              		.cfi_startproc
 1862              		@ args = 0, pretend = 0, frame = 0
 1863              		@ frame_needed = 0, uses_anonymous_args = 0
 1864              		@ link register save eliminated.
 1865              	.LVL124:
1097:.\Generated_Source\PSoC5/ADC_DelSig_1.c ****     {
 1866              		.loc 1 1097 0
 1867 0000 0C4B     		ldr	r3, .L110
 1868 0002 1A78     		ldrb	r2, [r3]	@ zero_extendqisi2
 1869 0004 012A     		cmp	r2, #1
 1870 0006 03D0     		beq	.L103
1104:.\Generated_Source\PSoC5/ADC_DelSig_1.c ****     {
 1871              		.loc 1 1104 0
 1872 0008 1A78     		ldrb	r2, [r3]	@ zero_extendqisi2
 1873 000a 022A     		cmp	r2, #2
1111:.\Generated_Source\PSoC5/ADC_DelSig_1.c ****     {
 1874              		.loc 1 1111 0
 1875 000c 18BF     		it	ne
 1876 000e 1B78     		ldrbne	r3, [r3]	@ zero_extendqisi2
 1877              	.L103:
 1878              	.LVL125:
1215:.\Generated_Source\PSoC5/ADC_DelSig_1.c ****     uVolts = ((coefA * adcCounts) / coefB) - ((coefA * ADC_DelSig_1_Offset) / coefB);
 1879              		.loc 1 1215 0
 1880 0010 094B     		ldr	r3, .L110+4
 1881 0012 2022     		movs	r2, #32
 1882 0014 1B68     		ldr	r3, [r3]
 1883 0016 93FBF2F2 		sdiv	r2, r3, r2
 1884              	.LVL126:
1216:.\Generated_Source\PSoC5/ADC_DelSig_1.c **** 
 1885              		.loc 1 1216 0
ARM GAS  C:\Users\IVYLIU~1\AppData\Local\Temp\cckaBvwB.s 			page 72


 1886 001a 084B     		ldr	r3, .L110+8
 1887 001c 1968     		ldr	r1, [r3]
 1888              	.LVL127:
 1889 001e 47F61223 		movw	r3, #31250
 1890 0022 5843     		muls	r0, r3, r0
 1891              	.LVL128:
 1892 0024 4B43     		muls	r3, r1, r3
 1893 0026 90FBF2F0 		sdiv	r0, r0, r2
 1894 002a 93FBF2F3 		sdiv	r3, r3, r2
1219:.\Generated_Source\PSoC5/ADC_DelSig_1.c **** 
 1895              		.loc 1 1219 0
 1896 002e C01A     		subs	r0, r0, r3
 1897              	.LVL129:
 1898 0030 7047     		bx	lr
 1899              	.L111:
 1900 0032 00BF     		.align	2
 1901              	.L110:
 1902 0034 00000000 		.word	.LANCHOR1
 1903 0038 00000000 		.word	ADC_DelSig_1_CountsPerVolt
 1904 003c 00000000 		.word	ADC_DelSig_1_Offset
 1905              		.cfi_endproc
 1906              	.LFE18:
 1907              		.size	ADC_DelSig_1_CountsTo_uVolts, .-ADC_DelSig_1_CountsTo_uVolts
 1908              		.section	.text.ADC_DelSig_1_SelectConfiguration,"ax",%progbits
 1909              		.align	1
 1910              		.global	ADC_DelSig_1_SelectConfiguration
 1911              		.thumb
 1912              		.thumb_func
 1913              		.type	ADC_DelSig_1_SelectConfiguration, %function
 1914              	ADC_DelSig_1_SelectConfiguration:
 1915              	.LFB20:
1554:.\Generated_Source\PSoC5/ADC_DelSig_1.c ****     /* Check whether the configuration number is valid or not */
 1916              		.loc 1 1554 0
 1917              		.cfi_startproc
 1918              		@ args = 0, pretend = 0, frame = 0
 1919              		@ frame_needed = 0, uses_anonymous_args = 0
 1920              	.LVL130:
 1921 0000 F8B5     		push	{r3, r4, r5, r6, r7, lr}
 1922              		.cfi_def_cfa_offset 24
 1923              		.cfi_offset 3, -24
 1924              		.cfi_offset 4, -20
 1925              		.cfi_offset 5, -16
 1926              		.cfi_offset 6, -12
 1927              		.cfi_offset 7, -8
 1928              		.cfi_offset 14, -4
1556:.\Generated_Source\PSoC5/ADC_DelSig_1.c ****     {
 1929              		.loc 1 1556 0
 1930 0002 461E     		subs	r6, r0, #1
 1931 0004 F3B2     		uxtb	r3, r6
 1932 0006 032B     		cmp	r3, #3
1554:.\Generated_Source\PSoC5/ADC_DelSig_1.c ****     /* Check whether the configuration number is valid or not */
 1933              		.loc 1 1554 0
 1934 0008 0546     		mov	r5, r0
 1935 000a 0F46     		mov	r7, r1
1556:.\Generated_Source\PSoC5/ADC_DelSig_1.c ****     {
 1936              		.loc 1 1556 0
 1937 000c 1BD8     		bhi	.L112
ARM GAS  C:\Users\IVYLIU~1\AppData\Local\Temp\cckaBvwB.s 			page 73


1561:.\Generated_Source\PSoC5/ADC_DelSig_1.c ****         {
 1938              		.loc 1 1561 0
 1939 000e 0E4C     		ldr	r4, .L117
 1940 0010 A37C     		ldrb	r3, [r4, #18]	@ zero_extendqisi2
 1941 0012 0BB9     		cbnz	r3, .L115
1563:.\Generated_Source\PSoC5/ADC_DelSig_1.c ****         }
 1942              		.loc 1 1563 0
 1943 0014 0123     		movs	r3, #1
 1944 0016 E374     		strb	r3, [r4, #19]
 1945              	.L115:
1567:.\Generated_Source\PSoC5/ADC_DelSig_1.c **** 
 1946              		.loc 1 1567 0
 1947 0018 0C4B     		ldr	r3, .L117+4
1576:.\Generated_Source\PSoC5/ADC_DelSig_1.c ****         CY_SET_REG16(ADC_DelSig_1_DEC_GCOR_16B_PTR, ADC_DelSig_1_gcor[config - 1u].gcor);
 1948              		.loc 1 1576 0
 1949 001a 04EB8604 		add	r4, r4, r6, lsl #2
1567:.\Generated_Source\PSoC5/ADC_DelSig_1.c **** 
 1950              		.loc 1 1567 0
 1951 001e 1D70     		strb	r5, [r3]
1570:.\Generated_Source\PSoC5/ADC_DelSig_1.c **** 
 1952              		.loc 1 1570 0
 1953 0020 FFF7FEFF 		bl	ADC_DelSig_1_Stop
 1954              	.LVL131:
1573:.\Generated_Source\PSoC5/ADC_DelSig_1.c **** 
 1955              		.loc 1 1573 0
 1956 0024 2846     		mov	r0, r5
 1957 0026 FFF7FEFF 		bl	ADC_DelSig_1_InitConfig
 1958              	.LVL132:
1576:.\Generated_Source\PSoC5/ADC_DelSig_1.c ****         CY_SET_REG16(ADC_DelSig_1_DEC_GCOR_16B_PTR, ADC_DelSig_1_gcor[config - 1u].gcor);
 1959              		.loc 1 1576 0
 1960 002a 2279     		ldrb	r2, [r4, #4]	@ zero_extendqisi2
 1961 002c 084B     		ldr	r3, .L117+8
1579:.\Generated_Source\PSoC5/ADC_DelSig_1.c ****         {
 1962              		.loc 1 1579 0
 1963 002e 012F     		cmp	r7, #1
1576:.\Generated_Source\PSoC5/ADC_DelSig_1.c ****         CY_SET_REG16(ADC_DelSig_1_DEC_GCOR_16B_PTR, ADC_DelSig_1_gcor[config - 1u].gcor);
 1964              		.loc 1 1576 0
 1965 0030 1A70     		strb	r2, [r3]
1577:.\Generated_Source\PSoC5/ADC_DelSig_1.c **** 
 1966              		.loc 1 1577 0
 1967 0032 6288     		ldrh	r2, [r4, #2]
 1968 0034 23F8022C 		strh	r2, [r3, #-2]	@ movhi
1579:.\Generated_Source\PSoC5/ADC_DelSig_1.c ****         {
 1969              		.loc 1 1579 0
 1970 0038 05D1     		bne	.L112
1582:.\Generated_Source\PSoC5/ADC_DelSig_1.c **** 
 1971              		.loc 1 1582 0
 1972 003a FFF7FEFF 		bl	ADC_DelSig_1_Start
 1973              	.LVL133:
1593:.\Generated_Source\PSoC5/ADC_DelSig_1.c **** 
 1974              		.loc 1 1593 0
 1975 003e BDE8F840 		pop	{r3, r4, r5, r6, r7, lr}
 1976              		.cfi_remember_state
 1977              		.cfi_restore 14
 1978              		.cfi_restore 7
 1979              		.cfi_restore 6
 1980              		.cfi_restore 5
ARM GAS  C:\Users\IVYLIU~1\AppData\Local\Temp\cckaBvwB.s 			page 74


 1981              		.cfi_restore 4
 1982              		.cfi_restore 3
 1983              		.cfi_def_cfa_offset 0
1585:.\Generated_Source\PSoC5/ADC_DelSig_1.c ****         }
 1984              		.loc 1 1585 0
 1985 0042 FFF7FEBF 		b	ADC_DelSig_1_StartConvert
 1986              	.LVL134:
 1987              	.L112:
 1988              		.cfi_restore_state
 1989 0046 F8BD     		pop	{r3, r4, r5, r6, r7, pc}
 1990              	.L118:
 1991              		.align	2
 1992              	.L117:
 1993 0048 00000000 		.word	.LANCHOR0
 1994 004c 00000000 		.word	.LANCHOR1
 1995 0050 0E4E0040 		.word	1073761806
 1996              		.cfi_endproc
 1997              	.LFE20:
 1998              		.size	ADC_DelSig_1_SelectConfiguration, .-ADC_DelSig_1_SelectConfiguration
 1999              		.section	.text.ADC_DelSig_1_Read8,"ax",%progbits
 2000              		.align	1
 2001              		.global	ADC_DelSig_1_Read8
 2002              		.thumb
 2003              		.thumb_func
 2004              		.type	ADC_DelSig_1_Read8, %function
 2005              	ADC_DelSig_1_Read8:
 2006              	.LFB23:
1742:.\Generated_Source\PSoC5/ADC_DelSig_1.c **** 
1743:.\Generated_Source\PSoC5/ADC_DelSig_1.c **** 
1744:.\Generated_Source\PSoC5/ADC_DelSig_1.c **** /*******************************************************************************
1745:.\Generated_Source\PSoC5/ADC_DelSig_1.c **** * Function Name: ADC_DelSig_1_Read8
1746:.\Generated_Source\PSoC5/ADC_DelSig_1.c **** ********************************************************************************
1747:.\Generated_Source\PSoC5/ADC_DelSig_1.c **** *
1748:.\Generated_Source\PSoC5/ADC_DelSig_1.c **** * Summary:
1749:.\Generated_Source\PSoC5/ADC_DelSig_1.c **** *  This function simplifies getting results from the ADC when only a
1750:.\Generated_Source\PSoC5/ADC_DelSig_1.c **** *  single reading is required. When called, it will start ADC
1751:.\Generated_Source\PSoC5/ADC_DelSig_1.c **** *  conversions, wait for the conversion to be complete, stop ADC
1752:.\Generated_Source\PSoC5/ADC_DelSig_1.c **** *  conversion and return the result. This is a blocking function and will
1753:.\Generated_Source\PSoC5/ADC_DelSig_1.c **** *  not return until the result is ready.
1754:.\Generated_Source\PSoC5/ADC_DelSig_1.c **** *
1755:.\Generated_Source\PSoC5/ADC_DelSig_1.c **** * Parameters:
1756:.\Generated_Source\PSoC5/ADC_DelSig_1.c **** *  None
1757:.\Generated_Source\PSoC5/ADC_DelSig_1.c **** *
1758:.\Generated_Source\PSoC5/ADC_DelSig_1.c **** * Return:
1759:.\Generated_Source\PSoC5/ADC_DelSig_1.c **** *  int8:  ADC result.
1760:.\Generated_Source\PSoC5/ADC_DelSig_1.c **** *
1761:.\Generated_Source\PSoC5/ADC_DelSig_1.c **** *******************************************************************************/
1762:.\Generated_Source\PSoC5/ADC_DelSig_1.c **** int8 ADC_DelSig_1_Read8(void) 
1763:.\Generated_Source\PSoC5/ADC_DelSig_1.c **** {
 2007              		.loc 1 1763 0
 2008              		.cfi_startproc
 2009              		@ args = 0, pretend = 0, frame = 0
 2010              		@ frame_needed = 0, uses_anonymous_args = 0
 2011 0000 10B5     		push	{r4, lr}
 2012              		.cfi_def_cfa_offset 8
 2013              		.cfi_offset 4, -8
 2014              		.cfi_offset 14, -4
ARM GAS  C:\Users\IVYLIU~1\AppData\Local\Temp\cckaBvwB.s 			page 75


1764:.\Generated_Source\PSoC5/ADC_DelSig_1.c ****     int8 result;
1765:.\Generated_Source\PSoC5/ADC_DelSig_1.c **** 
1766:.\Generated_Source\PSoC5/ADC_DelSig_1.c ****     /* Clear pending conversion done status */
1767:.\Generated_Source\PSoC5/ADC_DelSig_1.c ****     ADC_DelSig_1_DEC_SR_REG |= ADC_DelSig_1_DEC_INTR_CLEAR;
 2015              		.loc 1 1767 0
 2016 0002 084A     		ldr	r2, .L120
 2017 0004 1378     		ldrb	r3, [r2]	@ zero_extendqisi2
 2018 0006 43F00403 		orr	r3, r3, #4
 2019 000a 1370     		strb	r3, [r2]
1768:.\Generated_Source\PSoC5/ADC_DelSig_1.c ****     ADC_DelSig_1_StartConvert();
 2020              		.loc 1 1768 0
 2021 000c FFF7FEFF 		bl	ADC_DelSig_1_StartConvert
 2022              	.LVL135:
1769:.\Generated_Source\PSoC5/ADC_DelSig_1.c ****     (void)ADC_DelSig_1_IsEndConversion(ADC_DelSig_1_WAIT_FOR_RESULT);
 2023              		.loc 1 1769 0
 2024 0010 0020     		movs	r0, #0
 2025 0012 FFF7FEFF 		bl	ADC_DelSig_1_IsEndConversion
 2026              	.LVL136:
1770:.\Generated_Source\PSoC5/ADC_DelSig_1.c ****      result = ADC_DelSig_1_GetResult8();
 2027              		.loc 1 1770 0
 2028 0016 FFF7FEFF 		bl	ADC_DelSig_1_GetResult8
 2029              	.LVL137:
 2030 001a 0446     		mov	r4, r0
 2031              	.LVL138:
1771:.\Generated_Source\PSoC5/ADC_DelSig_1.c ****     ADC_DelSig_1_StopConvert();
 2032              		.loc 1 1771 0
 2033 001c FFF7FEFF 		bl	ADC_DelSig_1_StopConvert
 2034              	.LVL139:
1772:.\Generated_Source\PSoC5/ADC_DelSig_1.c ****     
1773:.\Generated_Source\PSoC5/ADC_DelSig_1.c ****      return(result);
1774:.\Generated_Source\PSoC5/ADC_DelSig_1.c **** }
 2035              		.loc 1 1774 0
 2036 0020 2046     		mov	r0, r4
 2037 0022 10BD     		pop	{r4, pc}
 2038              	.LVL140:
 2039              	.L121:
 2040              		.align	2
 2041              	.L120:
 2042 0024 014E0040 		.word	1073761793
 2043              		.cfi_endproc
 2044              	.LFE23:
 2045              		.size	ADC_DelSig_1_Read8, .-ADC_DelSig_1_Read8
 2046              		.section	.text.ADC_DelSig_1_Read16,"ax",%progbits
 2047              		.align	1
 2048              		.global	ADC_DelSig_1_Read16
 2049              		.thumb
 2050              		.thumb_func
 2051              		.type	ADC_DelSig_1_Read16, %function
 2052              	ADC_DelSig_1_Read16:
 2053              	.LFB24:
1775:.\Generated_Source\PSoC5/ADC_DelSig_1.c **** 
1776:.\Generated_Source\PSoC5/ADC_DelSig_1.c **** 
1777:.\Generated_Source\PSoC5/ADC_DelSig_1.c **** /*******************************************************************************
1778:.\Generated_Source\PSoC5/ADC_DelSig_1.c **** * Function Name: ADC_DelSig_1_Read16
1779:.\Generated_Source\PSoC5/ADC_DelSig_1.c **** ********************************************************************************
1780:.\Generated_Source\PSoC5/ADC_DelSig_1.c **** *
1781:.\Generated_Source\PSoC5/ADC_DelSig_1.c **** * Summary:
ARM GAS  C:\Users\IVYLIU~1\AppData\Local\Temp\cckaBvwB.s 			page 76


1782:.\Generated_Source\PSoC5/ADC_DelSig_1.c **** *  This function simplifies getting results from the ADC when only a
1783:.\Generated_Source\PSoC5/ADC_DelSig_1.c **** *  single reading is required. When called, it will start ADC
1784:.\Generated_Source\PSoC5/ADC_DelSig_1.c **** *  conversions, wait for the conversion to be complete, stop ADC
1785:.\Generated_Source\PSoC5/ADC_DelSig_1.c **** *  conversion and return the result. This is a blocking function and will
1786:.\Generated_Source\PSoC5/ADC_DelSig_1.c **** *  not return until the result is ready.
1787:.\Generated_Source\PSoC5/ADC_DelSig_1.c **** *
1788:.\Generated_Source\PSoC5/ADC_DelSig_1.c **** * Parameters:
1789:.\Generated_Source\PSoC5/ADC_DelSig_1.c **** *   void
1790:.\Generated_Source\PSoC5/ADC_DelSig_1.c **** *
1791:.\Generated_Source\PSoC5/ADC_DelSig_1.c **** * Return:
1792:.\Generated_Source\PSoC5/ADC_DelSig_1.c **** *  int16:  ADC result.
1793:.\Generated_Source\PSoC5/ADC_DelSig_1.c **** *
1794:.\Generated_Source\PSoC5/ADC_DelSig_1.c **** *******************************************************************************/
1795:.\Generated_Source\PSoC5/ADC_DelSig_1.c **** int16 ADC_DelSig_1_Read16(void) 
1796:.\Generated_Source\PSoC5/ADC_DelSig_1.c **** {
 2054              		.loc 1 1796 0
 2055              		.cfi_startproc
 2056              		@ args = 0, pretend = 0, frame = 0
 2057              		@ frame_needed = 0, uses_anonymous_args = 0
 2058 0000 10B5     		push	{r4, lr}
 2059              		.cfi_def_cfa_offset 8
 2060              		.cfi_offset 4, -8
 2061              		.cfi_offset 14, -4
1797:.\Generated_Source\PSoC5/ADC_DelSig_1.c ****     int16 result;
1798:.\Generated_Source\PSoC5/ADC_DelSig_1.c **** 
1799:.\Generated_Source\PSoC5/ADC_DelSig_1.c ****     /* Clear pending conversion done status */
1800:.\Generated_Source\PSoC5/ADC_DelSig_1.c ****     ADC_DelSig_1_DEC_SR_REG |= ADC_DelSig_1_DEC_INTR_CLEAR;
 2062              		.loc 1 1800 0
 2063 0002 084A     		ldr	r2, .L123
 2064 0004 1378     		ldrb	r3, [r2]	@ zero_extendqisi2
 2065 0006 43F00403 		orr	r3, r3, #4
 2066 000a 1370     		strb	r3, [r2]
1801:.\Generated_Source\PSoC5/ADC_DelSig_1.c ****     ADC_DelSig_1_StartConvert();
 2067              		.loc 1 1801 0
 2068 000c FFF7FEFF 		bl	ADC_DelSig_1_StartConvert
 2069              	.LVL141:
1802:.\Generated_Source\PSoC5/ADC_DelSig_1.c ****     (void)ADC_DelSig_1_IsEndConversion(ADC_DelSig_1_WAIT_FOR_RESULT);
 2070              		.loc 1 1802 0
 2071 0010 0020     		movs	r0, #0
 2072 0012 FFF7FEFF 		bl	ADC_DelSig_1_IsEndConversion
 2073              	.LVL142:
1803:.\Generated_Source\PSoC5/ADC_DelSig_1.c ****      result = ADC_DelSig_1_GetResult16();
 2074              		.loc 1 1803 0
 2075 0016 FFF7FEFF 		bl	ADC_DelSig_1_GetResult16
 2076              	.LVL143:
 2077 001a 0446     		mov	r4, r0
 2078              	.LVL144:
1804:.\Generated_Source\PSoC5/ADC_DelSig_1.c ****     ADC_DelSig_1_StopConvert();
 2079              		.loc 1 1804 0
 2080 001c FFF7FEFF 		bl	ADC_DelSig_1_StopConvert
 2081              	.LVL145:
1805:.\Generated_Source\PSoC5/ADC_DelSig_1.c ****     
1806:.\Generated_Source\PSoC5/ADC_DelSig_1.c ****      return(result);
1807:.\Generated_Source\PSoC5/ADC_DelSig_1.c **** }
 2082              		.loc 1 1807 0
 2083 0020 2046     		mov	r0, r4
 2084 0022 10BD     		pop	{r4, pc}
ARM GAS  C:\Users\IVYLIU~1\AppData\Local\Temp\cckaBvwB.s 			page 77


 2085              	.LVL146:
 2086              	.L124:
 2087              		.align	2
 2088              	.L123:
 2089 0024 014E0040 		.word	1073761793
 2090              		.cfi_endproc
 2091              	.LFE24:
 2092              		.size	ADC_DelSig_1_Read16, .-ADC_DelSig_1_Read16
 2093              		.section	.text.ADC_DelSig_1_Read32,"ax",%progbits
 2094              		.align	1
 2095              		.global	ADC_DelSig_1_Read32
 2096              		.thumb
 2097              		.thumb_func
 2098              		.type	ADC_DelSig_1_Read32, %function
 2099              	ADC_DelSig_1_Read32:
 2100              	.LFB25:
1808:.\Generated_Source\PSoC5/ADC_DelSig_1.c **** 
1809:.\Generated_Source\PSoC5/ADC_DelSig_1.c **** 
1810:.\Generated_Source\PSoC5/ADC_DelSig_1.c **** /*******************************************************************************
1811:.\Generated_Source\PSoC5/ADC_DelSig_1.c **** * Function Name: ADC_DelSig_1_Read32
1812:.\Generated_Source\PSoC5/ADC_DelSig_1.c **** ********************************************************************************
1813:.\Generated_Source\PSoC5/ADC_DelSig_1.c **** *
1814:.\Generated_Source\PSoC5/ADC_DelSig_1.c **** * Summary:
1815:.\Generated_Source\PSoC5/ADC_DelSig_1.c **** *  This function simplifies getting results from the ADC when only a
1816:.\Generated_Source\PSoC5/ADC_DelSig_1.c **** *  single reading is required. When called, it will start ADC
1817:.\Generated_Source\PSoC5/ADC_DelSig_1.c **** *  conversions, wait for the conversion to be complete, stop ADC
1818:.\Generated_Source\PSoC5/ADC_DelSig_1.c **** *  conversion and return the result. This is a blocking function and will
1819:.\Generated_Source\PSoC5/ADC_DelSig_1.c **** *  not return until the result is ready.
1820:.\Generated_Source\PSoC5/ADC_DelSig_1.c **** *
1821:.\Generated_Source\PSoC5/ADC_DelSig_1.c **** * Parameters:
1822:.\Generated_Source\PSoC5/ADC_DelSig_1.c **** *  None
1823:.\Generated_Source\PSoC5/ADC_DelSig_1.c **** *
1824:.\Generated_Source\PSoC5/ADC_DelSig_1.c **** * Return:
1825:.\Generated_Source\PSoC5/ADC_DelSig_1.c **** *  int32: ADC result.
1826:.\Generated_Source\PSoC5/ADC_DelSig_1.c **** *
1827:.\Generated_Source\PSoC5/ADC_DelSig_1.c **** *******************************************************************************/
1828:.\Generated_Source\PSoC5/ADC_DelSig_1.c **** int32 ADC_DelSig_1_Read32(void) 
1829:.\Generated_Source\PSoC5/ADC_DelSig_1.c **** {
 2101              		.loc 1 1829 0
 2102              		.cfi_startproc
 2103              		@ args = 0, pretend = 0, frame = 0
 2104              		@ frame_needed = 0, uses_anonymous_args = 0
 2105 0000 10B5     		push	{r4, lr}
 2106              		.cfi_def_cfa_offset 8
 2107              		.cfi_offset 4, -8
 2108              		.cfi_offset 14, -4
1830:.\Generated_Source\PSoC5/ADC_DelSig_1.c ****     int32 result;
1831:.\Generated_Source\PSoC5/ADC_DelSig_1.c ****     
1832:.\Generated_Source\PSoC5/ADC_DelSig_1.c ****     /* Clear pending conversion done status */
1833:.\Generated_Source\PSoC5/ADC_DelSig_1.c ****     ADC_DelSig_1_DEC_SR_REG |= ADC_DelSig_1_DEC_INTR_CLEAR;
 2109              		.loc 1 1833 0
 2110 0002 084A     		ldr	r2, .L126
 2111 0004 1378     		ldrb	r3, [r2]	@ zero_extendqisi2
 2112 0006 43F00403 		orr	r3, r3, #4
 2113 000a 1370     		strb	r3, [r2]
1834:.\Generated_Source\PSoC5/ADC_DelSig_1.c ****     ADC_DelSig_1_StartConvert();
 2114              		.loc 1 1834 0
ARM GAS  C:\Users\IVYLIU~1\AppData\Local\Temp\cckaBvwB.s 			page 78


 2115 000c FFF7FEFF 		bl	ADC_DelSig_1_StartConvert
 2116              	.LVL147:
1835:.\Generated_Source\PSoC5/ADC_DelSig_1.c ****     (void)ADC_DelSig_1_IsEndConversion(ADC_DelSig_1_WAIT_FOR_RESULT);
 2117              		.loc 1 1835 0
 2118 0010 0020     		movs	r0, #0
 2119 0012 FFF7FEFF 		bl	ADC_DelSig_1_IsEndConversion
 2120              	.LVL148:
1836:.\Generated_Source\PSoC5/ADC_DelSig_1.c ****      result = ADC_DelSig_1_GetResult32();
 2121              		.loc 1 1836 0
 2122 0016 FFF7FEFF 		bl	ADC_DelSig_1_GetResult32
 2123              	.LVL149:
 2124 001a 0446     		mov	r4, r0
 2125              	.LVL150:
1837:.\Generated_Source\PSoC5/ADC_DelSig_1.c ****     ADC_DelSig_1_StopConvert();
 2126              		.loc 1 1837 0
 2127 001c FFF7FEFF 		bl	ADC_DelSig_1_StopConvert
 2128              	.LVL151:
1838:.\Generated_Source\PSoC5/ADC_DelSig_1.c ****     
1839:.\Generated_Source\PSoC5/ADC_DelSig_1.c ****      return(result);
1840:.\Generated_Source\PSoC5/ADC_DelSig_1.c **** }
 2129              		.loc 1 1840 0
 2130 0020 2046     		mov	r0, r4
 2131 0022 10BD     		pop	{r4, pc}
 2132              	.LVL152:
 2133              	.L127:
 2134              		.align	2
 2135              	.L126:
 2136 0024 014E0040 		.word	1073761793
 2137              		.cfi_endproc
 2138              	.LFE25:
 2139              		.size	ADC_DelSig_1_Read32, .-ADC_DelSig_1_Read32
 2140              		.comm	ADC_DelSig_1_CountsPerVolt,4,4
 2141              		.comm	ADC_DelSig_1_Offset,4,4
 2142              		.global	ADC_DelSig_1_Config
 2143              		.global	ADC_DelSig_1_started
 2144              		.global	ADC_DelSig_1_initVar
 2145              		.global	ADC_DelSig_1_stopConversion
 2146              		.global	ADC_DelSig_1_convDone
 2147              		.data
 2148              		.set	.LANCHOR1,. + 0
 2149              		.type	ADC_DelSig_1_Config, %object
 2150              		.size	ADC_DelSig_1_Config, 1
 2151              	ADC_DelSig_1_Config:
 2152 0000 01       		.byte	1
 2153              		.bss
 2154              		.align	1
 2155              		.set	.LANCHOR0,. + 0
 2156              		.type	ADC_DelSig_1_stopConversion, %object
 2157              		.size	ADC_DelSig_1_stopConversion, 1
 2158              	ADC_DelSig_1_stopConversion:
 2159 0000 00       		.space	1
 2160              		.type	ADC_DelSig_1_convDone, %object
 2161              		.size	ADC_DelSig_1_convDone, 1
 2162              	ADC_DelSig_1_convDone:
 2163 0001 00       		.space	1
 2164              		.type	ADC_DelSig_1_gcor, %object
 2165              		.size	ADC_DelSig_1_gcor, 16
ARM GAS  C:\Users\IVYLIU~1\AppData\Local\Temp\cckaBvwB.s 			page 79


 2166              	ADC_DelSig_1_gcor:
 2167 0002 00000000 		.space	16
 2167      00000000 
 2167      00000000 
 2167      00000000 
 2168              		.type	ADC_DelSig_1_initVar, %object
 2169              		.size	ADC_DelSig_1_initVar, 1
 2170              	ADC_DelSig_1_initVar:
 2171 0012 00       		.space	1
 2172              		.type	ADC_DelSig_1_started, %object
 2173              		.size	ADC_DelSig_1_started, 1
 2174              	ADC_DelSig_1_started:
 2175 0013 00       		.space	1
 2176              		.text
 2177              	.Letext0:
 2178              		.file 2 ".\\Generated_Source\\PSoC5\\cytypes.h"
 2179              		.file 3 ".\\Generated_Source\\PSoC5\\ADC_DelSig_1.h"
 2180              		.file 4 ".\\Generated_Source\\PSoC5\\CyLib.h"
 2181              		.file 5 ".\\Generated_Source\\PSoC5\\ADC_DelSig_1_AMux.h"
 2182              		.file 6 ".\\Generated_Source\\PSoC5\\ADC_DelSig_1_Ext_CP_Clk.h"
 2183              		.file 7 ".\\Generated_Source\\PSoC5\\ADC_DelSig_1_theACLK.h"
 2184              		.section	.debug_info,"",%progbits
 2185              	.Ldebug_info0:
 2186 0000 510D0000 		.4byte	0xd51
 2187 0004 0400     		.2byte	0x4
 2188 0006 00000000 		.4byte	.Ldebug_abbrev0
 2189 000a 04       		.byte	0x4
 2190 000b 01       		.uleb128 0x1
 2191 000c 0F040000 		.4byte	.LASF96
 2192 0010 01       		.byte	0x1
 2193 0011 D3010000 		.4byte	.LASF97
 2194 0015 97000000 		.4byte	.LASF98
 2195 0019 68000000 		.4byte	.Ldebug_ranges0+0x68
 2196 001d 00000000 		.4byte	0
 2197 0021 00000000 		.4byte	.Ldebug_line0
 2198 0025 02       		.uleb128 0x2
 2199 0026 04       		.byte	0x4
 2200 0027 04       		.byte	0x4
 2201 0028 C2030000 		.4byte	.LASF0
 2202 002c 03       		.uleb128 0x3
 2203 002d 04       		.byte	0x4
 2204 002e 05       		.byte	0x5
 2205 002f 696E7400 		.ascii	"int\000"
 2206 0033 02       		.uleb128 0x2
 2207 0034 01       		.byte	0x1
 2208 0035 06       		.byte	0x6
 2209 0036 5D010000 		.4byte	.LASF1
 2210 003a 02       		.uleb128 0x2
 2211 003b 01       		.byte	0x1
 2212 003c 08       		.byte	0x8
 2213 003d A8040000 		.4byte	.LASF2
 2214 0041 02       		.uleb128 0x2
 2215 0042 02       		.byte	0x2
 2216 0043 05       		.byte	0x5
 2217 0044 CD040000 		.4byte	.LASF3
 2218 0048 02       		.uleb128 0x2
 2219 0049 02       		.byte	0x2
ARM GAS  C:\Users\IVYLIU~1\AppData\Local\Temp\cckaBvwB.s 			page 80


 2220 004a 07       		.byte	0x7
 2221 004b 62020000 		.4byte	.LASF4
 2222 004f 02       		.uleb128 0x2
 2223 0050 04       		.byte	0x4
 2224 0051 05       		.byte	0x5
 2225 0052 83010000 		.4byte	.LASF5
 2226 0056 02       		.uleb128 0x2
 2227 0057 04       		.byte	0x4
 2228 0058 07       		.byte	0x7
 2229 0059 24020000 		.4byte	.LASF6
 2230 005d 02       		.uleb128 0x2
 2231 005e 08       		.byte	0x8
 2232 005f 05       		.byte	0x5
 2233 0060 4F010000 		.4byte	.LASF7
 2234 0064 02       		.uleb128 0x2
 2235 0065 08       		.byte	0x8
 2236 0066 07       		.byte	0x7
 2237 0067 E6000000 		.4byte	.LASF8
 2238 006b 02       		.uleb128 0x2
 2239 006c 04       		.byte	0x4
 2240 006d 07       		.byte	0x7
 2241 006e FB010000 		.4byte	.LASF9
 2242 0072 04       		.uleb128 0x4
 2243 0073 92010000 		.4byte	.LASF10
 2244 0077 02       		.byte	0x2
 2245 0078 9201     		.2byte	0x192
 2246 007a 3A000000 		.4byte	0x3a
 2247 007e 04       		.uleb128 0x4
 2248 007f 00000000 		.4byte	.LASF11
 2249 0083 02       		.byte	0x2
 2250 0084 9301     		.2byte	0x193
 2251 0086 48000000 		.4byte	0x48
 2252 008a 04       		.uleb128 0x4
 2253 008b AF010000 		.4byte	.LASF12
 2254 008f 02       		.byte	0x2
 2255 0090 9401     		.2byte	0x194
 2256 0092 56000000 		.4byte	0x56
 2257 0096 04       		.uleb128 0x4
 2258 0097 75020000 		.4byte	.LASF13
 2259 009b 02       		.byte	0x2
 2260 009c 9501     		.2byte	0x195
 2261 009e 33000000 		.4byte	0x33
 2262 00a2 04       		.uleb128 0x4
 2263 00a3 50060000 		.4byte	.LASF14
 2264 00a7 02       		.byte	0x2
 2265 00a8 9601     		.2byte	0x196
 2266 00aa 41000000 		.4byte	0x41
 2267 00ae 04       		.uleb128 0x4
 2268 00af 69010000 		.4byte	.LASF15
 2269 00b3 02       		.byte	0x2
 2270 00b4 9701     		.2byte	0x197
 2271 00b6 4F000000 		.4byte	0x4f
 2272 00ba 04       		.uleb128 0x4
 2273 00bb DE020000 		.4byte	.LASF16
 2274 00bf 02       		.byte	0x2
 2275 00c0 9801     		.2byte	0x198
 2276 00c2 25000000 		.4byte	0x25
ARM GAS  C:\Users\IVYLIU~1\AppData\Local\Temp\cckaBvwB.s 			page 81


 2277 00c6 02       		.uleb128 0x2
 2278 00c7 08       		.byte	0x8
 2279 00c8 04       		.byte	0x4
 2280 00c9 A2010000 		.4byte	.LASF17
 2281 00cd 02       		.uleb128 0x2
 2282 00ce 01       		.byte	0x1
 2283 00cf 08       		.byte	0x8
 2284 00d0 29050000 		.4byte	.LASF18
 2285 00d4 04       		.uleb128 0x4
 2286 00d5 F2030000 		.4byte	.LASF19
 2287 00d9 02       		.byte	0x2
 2288 00da 3C02     		.2byte	0x23c
 2289 00dc E0000000 		.4byte	0xe0
 2290 00e0 05       		.uleb128 0x5
 2291 00e1 72000000 		.4byte	0x72
 2292 00e5 04       		.uleb128 0x4
 2293 00e6 8C010000 		.4byte	.LASF20
 2294 00ea 02       		.byte	0x2
 2295 00eb 3D02     		.2byte	0x23d
 2296 00ed F1000000 		.4byte	0xf1
 2297 00f1 05       		.uleb128 0x5
 2298 00f2 7E000000 		.4byte	0x7e
 2299 00f6 04       		.uleb128 0x4
 2300 00f7 BC020000 		.4byte	.LASF21
 2301 00fb 02       		.byte	0x2
 2302 00fc 3E02     		.2byte	0x23e
 2303 00fe 02010000 		.4byte	0x102
 2304 0102 05       		.uleb128 0x5
 2305 0103 8A000000 		.4byte	0x8a
 2306 0107 04       		.uleb128 0x4
 2307 0108 48050000 		.4byte	.LASF22
 2308 010c 02       		.byte	0x2
 2309 010d 4E02     		.2byte	0x24e
 2310 010f 13010000 		.4byte	0x113
 2311 0113 06       		.uleb128 0x6
 2312 0114 04       		.byte	0x4
 2313 0115 19010000 		.4byte	0x119
 2314 0119 07       		.uleb128 0x7
 2315 011a 02       		.uleb128 0x2
 2316 011b 04       		.byte	0x4
 2317 011c 07       		.byte	0x7
 2318 011d FF020000 		.4byte	.LASF23
 2319 0121 08       		.uleb128 0x8
 2320 0122 04       		.byte	0x4
 2321 0123 03       		.byte	0x3
 2322 0124 2F       		.byte	0x2f
 2323 0125 42010000 		.4byte	0x142
 2324 0129 09       		.uleb128 0x9
 2325 012a 92000000 		.4byte	.LASF24
 2326 012e 03       		.byte	0x3
 2327 012f 31       		.byte	0x31
 2328 0130 7E000000 		.4byte	0x7e
 2329 0134 00       		.byte	0
 2330 0135 09       		.uleb128 0x9
 2331 0136 5C050000 		.4byte	.LASF25
 2332 013a 03       		.byte	0x3
 2333 013b 32       		.byte	0x32
ARM GAS  C:\Users\IVYLIU~1\AppData\Local\Temp\cckaBvwB.s 			page 82


 2334 013c 72000000 		.4byte	0x72
 2335 0140 02       		.byte	0x2
 2336 0141 00       		.byte	0
 2337 0142 0A       		.uleb128 0xa
 2338 0143 A9030000 		.4byte	.LASF26
 2339 0147 03       		.byte	0x3
 2340 0148 33       		.byte	0x33
 2341 0149 21010000 		.4byte	0x121
 2342 014d 0B       		.uleb128 0xb
 2343 014e C3050000 		.4byte	.LASF99
 2344 0152 01       		.byte	0x1
 2345 0153 5106     		.2byte	0x651
 2346 0155 01       		.byte	0x1
 2347 0156 C7010000 		.4byte	0x1c7
 2348 015a 0C       		.uleb128 0xc
 2349 015b 23000000 		.4byte	.LASF27
 2350 015f 01       		.byte	0x1
 2351 0160 5106     		.2byte	0x651
 2352 0162 72000000 		.4byte	0x72
 2353 0166 0C       		.uleb128 0xc
 2354 0167 F7030000 		.4byte	.LASF28
 2355 016b 01       		.byte	0x1
 2356 016c 5106     		.2byte	0x651
 2357 016e 7E000000 		.4byte	0x7e
 2358 0172 0C       		.uleb128 0xc
 2359 0173 0F010000 		.4byte	.LASF29
 2360 0177 01       		.byte	0x1
 2361 0178 5106     		.2byte	0x651
 2362 017a 7E000000 		.4byte	0x7e
 2363 017e 0C       		.uleb128 0xc
 2364 017f F9040000 		.4byte	.LASF30
 2365 0183 01       		.byte	0x1
 2366 0184 5206     		.2byte	0x652
 2367 0186 72000000 		.4byte	0x72
 2368 018a 0C       		.uleb128 0xc
 2369 018b 55050000 		.4byte	.LASF31
 2370 018f 01       		.byte	0x1
 2371 0190 5206     		.2byte	0x652
 2372 0192 72000000 		.4byte	0x72
 2373 0196 0D       		.uleb128 0xd
 2374 0197 B6020000 		.4byte	.LASF32
 2375 019b 01       		.byte	0x1
 2376 019c 5406     		.2byte	0x654
 2377 019e 96000000 		.4byte	0x96
 2378 01a2 0D       		.uleb128 0xd
 2379 01a3 04040000 		.4byte	.LASF33
 2380 01a7 01       		.byte	0x1
 2381 01a8 5506     		.2byte	0x655
 2382 01aa AE000000 		.4byte	0xae
 2383 01ae 0D       		.uleb128 0xd
 2384 01af 7A020000 		.4byte	.LASF34
 2385 01b3 01       		.byte	0x1
 2386 01b4 5606     		.2byte	0x656
 2387 01b6 7E000000 		.4byte	0x7e
 2388 01ba 0D       		.uleb128 0xd
 2389 01bb D7040000 		.4byte	.LASF35
 2390 01bf 01       		.byte	0x1
ARM GAS  C:\Users\IVYLIU~1\AppData\Local\Temp\cckaBvwB.s 			page 83


 2391 01c0 5706     		.2byte	0x657
 2392 01c2 8A000000 		.4byte	0x8a
 2393 01c6 00       		.byte	0
 2394 01c7 0E       		.uleb128 0xe
 2395 01c8 72050000 		.4byte	.LASF36
 2396 01cc 01       		.byte	0x1
 2397 01cd BC06     		.2byte	0x6bc
 2398 01cf 00000000 		.4byte	.LFB22
 2399 01d3 50000000 		.4byte	.LFE22-.LFB22
 2400 01d7 01       		.uleb128 0x1
 2401 01d8 9C       		.byte	0x9c
 2402 01d9 23020000 		.4byte	0x223
 2403 01dd 0F       		.uleb128 0xf
 2404 01de C5010000 		.4byte	.LASF38
 2405 01e2 01       		.byte	0x1
 2406 01e3 BC06     		.2byte	0x6bc
 2407 01e5 72000000 		.4byte	0x72
 2408 01e9 00000000 		.4byte	.LLST0
 2409 01ed 10       		.uleb128 0x10
 2410 01ee E1050000 		.4byte	.LASF41
 2411 01f2 01       		.byte	0x1
 2412 01f3 BE06     		.2byte	0x6be
 2413 01f5 72000000 		.4byte	0x72
 2414 01f9 21000000 		.4byte	.LLST1
 2415 01fd 11       		.uleb128 0x11
 2416 01fe 08000000 		.4byte	.LVL1
 2417 0202 9C0C0000 		.4byte	0xc9c
 2418 0206 12       		.uleb128 0x12
 2419 0207 28000000 		.4byte	.LVL3
 2420 020b A70C0000 		.4byte	0xca7
 2421 020f 19020000 		.4byte	0x219
 2422 0213 13       		.uleb128 0x13
 2423 0214 01       		.uleb128 0x1
 2424 0215 50       		.byte	0x50
 2425 0216 01       		.uleb128 0x1
 2426 0217 33       		.byte	0x33
 2427 0218 00       		.byte	0
 2428 0219 14       		.uleb128 0x14
 2429 021a 42000000 		.4byte	.LVL5
 2430 021e B80C0000 		.4byte	0xcb8
 2431 0222 00       		.byte	0
 2432 0223 0E       		.uleb128 0xe
 2433 0224 1F010000 		.4byte	.LASF37
 2434 0228 01       		.byte	0x1
 2435 0229 DA04     		.2byte	0x4da
 2436 022b 00000000 		.4byte	.LFB19
 2437 022f AC020000 		.4byte	.LFE19-.LFB19
 2438 0233 01       		.uleb128 0x1
 2439 0234 9C       		.byte	0x9c
 2440 0235 BF030000 		.4byte	0x3bf
 2441 0239 0F       		.uleb128 0xf
 2442 023a 55050000 		.4byte	.LASF31
 2443 023e 01       		.byte	0x1
 2444 023f DA04     		.2byte	0x4da
 2445 0241 72000000 		.4byte	0x72
 2446 0245 34000000 		.4byte	.LLST2
 2447 0249 12       		.uleb128 0x12
ARM GAS  C:\Users\IVYLIU~1\AppData\Local\Temp\cckaBvwB.s 			page 84


 2448 024a 72000000 		.4byte	.LVL8
 2449 024e C7010000 		.4byte	0x1c7
 2450 0252 5D020000 		.4byte	0x25d
 2451 0256 13       		.uleb128 0x13
 2452 0257 01       		.uleb128 0x1
 2453 0258 50       		.byte	0x50
 2454 0259 02       		.uleb128 0x2
 2455 025a 08       		.byte	0x8
 2456 025b 52       		.byte	0x52
 2457 025c 00       		.byte	0
 2458 025d 12       		.uleb128 0x12
 2459 025e 8A000000 		.4byte	.LVL9
 2460 0262 C90C0000 		.4byte	0xcc9
 2461 0266 71020000 		.4byte	0x271
 2462 026a 13       		.uleb128 0x13
 2463 026b 01       		.uleb128 0x1
 2464 026c 50       		.byte	0x50
 2465 026d 02       		.uleb128 0x2
 2466 026e 74       		.byte	0x74
 2467 026f 00       		.sleb128 0
 2468 0270 00       		.byte	0
 2469 0271 12       		.uleb128 0x12
 2470 0272 9A000000 		.4byte	.LVL10
 2471 0276 DA0C0000 		.4byte	0xcda
 2472 027a 8B020000 		.4byte	0x28b
 2473 027e 13       		.uleb128 0x13
 2474 027f 01       		.uleb128 0x1
 2475 0280 51       		.byte	0x51
 2476 0281 02       		.uleb128 0x2
 2477 0282 75       		.byte	0x75
 2478 0283 00       		.sleb128 0
 2479 0284 13       		.uleb128 0x13
 2480 0285 01       		.uleb128 0x1
 2481 0286 50       		.byte	0x50
 2482 0287 02       		.uleb128 0x2
 2483 0288 76       		.byte	0x76
 2484 0289 00       		.sleb128 0
 2485 028a 00       		.byte	0
 2486 028b 12       		.uleb128 0x12
 2487 028c A2000000 		.4byte	.LVL11
 2488 0290 F00C0000 		.4byte	0xcf0
 2489 0294 A4020000 		.4byte	0x2a4
 2490 0298 13       		.uleb128 0x13
 2491 0299 01       		.uleb128 0x1
 2492 029a 51       		.byte	0x51
 2493 029b 02       		.uleb128 0x2
 2494 029c 75       		.byte	0x75
 2495 029d 00       		.sleb128 0
 2496 029e 13       		.uleb128 0x13
 2497 029f 01       		.uleb128 0x1
 2498 02a0 50       		.byte	0x50
 2499 02a1 01       		.uleb128 0x1
 2500 02a2 48       		.byte	0x48
 2501 02a3 00       		.byte	0
 2502 02a4 12       		.uleb128 0x12
 2503 02a5 12010000 		.4byte	.LVL14
 2504 02a9 C7010000 		.4byte	0x1c7
ARM GAS  C:\Users\IVYLIU~1\AppData\Local\Temp\cckaBvwB.s 			page 85


 2505 02ad B8020000 		.4byte	0x2b8
 2506 02b1 13       		.uleb128 0x13
 2507 02b2 01       		.uleb128 0x1
 2508 02b3 50       		.byte	0x50
 2509 02b4 02       		.uleb128 0x2
 2510 02b5 08       		.byte	0x8
 2511 02b6 44       		.byte	0x44
 2512 02b7 00       		.byte	0
 2513 02b8 12       		.uleb128 0x12
 2514 02b9 28010000 		.4byte	.LVL15
 2515 02bd C90C0000 		.4byte	0xcc9
 2516 02c1 CC020000 		.4byte	0x2cc
 2517 02c5 13       		.uleb128 0x13
 2518 02c6 01       		.uleb128 0x1
 2519 02c7 50       		.byte	0x50
 2520 02c8 02       		.uleb128 0x2
 2521 02c9 74       		.byte	0x74
 2522 02ca 00       		.sleb128 0
 2523 02cb 00       		.byte	0
 2524 02cc 12       		.uleb128 0x12
 2525 02cd 38010000 		.4byte	.LVL16
 2526 02d1 DA0C0000 		.4byte	0xcda
 2527 02d5 E5020000 		.4byte	0x2e5
 2528 02d9 13       		.uleb128 0x13
 2529 02da 01       		.uleb128 0x1
 2530 02db 51       		.byte	0x51
 2531 02dc 02       		.uleb128 0x2
 2532 02dd 76       		.byte	0x76
 2533 02de 00       		.sleb128 0
 2534 02df 13       		.uleb128 0x13
 2535 02e0 01       		.uleb128 0x1
 2536 02e1 50       		.byte	0x50
 2537 02e2 01       		.uleb128 0x1
 2538 02e3 38       		.byte	0x38
 2539 02e4 00       		.byte	0
 2540 02e5 12       		.uleb128 0x12
 2541 02e6 40010000 		.4byte	.LVL17
 2542 02ea F00C0000 		.4byte	0xcf0
 2543 02ee FF020000 		.4byte	0x2ff
 2544 02f2 13       		.uleb128 0x13
 2545 02f3 01       		.uleb128 0x1
 2546 02f4 51       		.byte	0x51
 2547 02f5 02       		.uleb128 0x2
 2548 02f6 76       		.byte	0x76
 2549 02f7 00       		.sleb128 0
 2550 02f8 13       		.uleb128 0x13
 2551 02f9 01       		.uleb128 0x1
 2552 02fa 50       		.byte	0x50
 2553 02fb 02       		.uleb128 0x2
 2554 02fc 08       		.byte	0x8
 2555 02fd 25       		.byte	0x25
 2556 02fe 00       		.byte	0
 2557 02ff 12       		.uleb128 0x12
 2558 0300 B0010000 		.4byte	.LVL20
 2559 0304 C7010000 		.4byte	0x1c7
 2560 0308 13030000 		.4byte	0x313
 2561 030c 13       		.uleb128 0x13
ARM GAS  C:\Users\IVYLIU~1\AppData\Local\Temp\cckaBvwB.s 			page 86


 2562 030d 01       		.uleb128 0x1
 2563 030e 50       		.byte	0x50
 2564 030f 02       		.uleb128 0x2
 2565 0310 08       		.byte	0x8
 2566 0311 44       		.byte	0x44
 2567 0312 00       		.byte	0
 2568 0313 12       		.uleb128 0x12
 2569 0314 C8010000 		.4byte	.LVL21
 2570 0318 C90C0000 		.4byte	0xcc9
 2571 031c 27030000 		.4byte	0x327
 2572 0320 13       		.uleb128 0x13
 2573 0321 01       		.uleb128 0x1
 2574 0322 50       		.byte	0x50
 2575 0323 02       		.uleb128 0x2
 2576 0324 74       		.byte	0x74
 2577 0325 00       		.sleb128 0
 2578 0326 00       		.byte	0
 2579 0327 12       		.uleb128 0x12
 2580 0328 D8010000 		.4byte	.LVL22
 2581 032c DA0C0000 		.4byte	0xcda
 2582 0330 40030000 		.4byte	0x340
 2583 0334 13       		.uleb128 0x13
 2584 0335 01       		.uleb128 0x1
 2585 0336 51       		.byte	0x51
 2586 0337 02       		.uleb128 0x2
 2587 0338 75       		.byte	0x75
 2588 0339 00       		.sleb128 0
 2589 033a 13       		.uleb128 0x13
 2590 033b 01       		.uleb128 0x1
 2591 033c 50       		.byte	0x50
 2592 033d 01       		.uleb128 0x1
 2593 033e 38       		.byte	0x38
 2594 033f 00       		.byte	0
 2595 0340 12       		.uleb128 0x12
 2596 0341 E0010000 		.4byte	.LVL23
 2597 0345 F00C0000 		.4byte	0xcf0
 2598 0349 5A030000 		.4byte	0x35a
 2599 034d 13       		.uleb128 0x13
 2600 034e 01       		.uleb128 0x1
 2601 034f 51       		.byte	0x51
 2602 0350 02       		.uleb128 0x2
 2603 0351 75       		.byte	0x75
 2604 0352 00       		.sleb128 0
 2605 0353 13       		.uleb128 0x13
 2606 0354 01       		.uleb128 0x1
 2607 0355 50       		.byte	0x50
 2608 0356 02       		.uleb128 0x2
 2609 0357 08       		.byte	0x8
 2610 0358 25       		.byte	0x25
 2611 0359 00       		.byte	0
 2612 035a 12       		.uleb128 0x12
 2613 035b 4E020000 		.4byte	.LVL26
 2614 035f C7010000 		.4byte	0x1c7
 2615 0363 6E030000 		.4byte	0x36e
 2616 0367 13       		.uleb128 0x13
 2617 0368 01       		.uleb128 0x1
 2618 0369 50       		.byte	0x50
ARM GAS  C:\Users\IVYLIU~1\AppData\Local\Temp\cckaBvwB.s 			page 87


 2619 036a 02       		.uleb128 0x2
 2620 036b 08       		.byte	0x8
 2621 036c 44       		.byte	0x44
 2622 036d 00       		.byte	0
 2623 036e 12       		.uleb128 0x12
 2624 036f 66020000 		.4byte	.LVL27
 2625 0373 C90C0000 		.4byte	0xcc9
 2626 0377 82030000 		.4byte	0x382
 2627 037b 13       		.uleb128 0x13
 2628 037c 01       		.uleb128 0x1
 2629 037d 50       		.byte	0x50
 2630 037e 02       		.uleb128 0x2
 2631 037f 74       		.byte	0x74
 2632 0380 00       		.sleb128 0
 2633 0381 00       		.byte	0
 2634 0382 12       		.uleb128 0x12
 2635 0383 76020000 		.4byte	.LVL28
 2636 0387 DA0C0000 		.4byte	0xcda
 2637 038b 9B030000 		.4byte	0x39b
 2638 038f 13       		.uleb128 0x13
 2639 0390 01       		.uleb128 0x1
 2640 0391 51       		.byte	0x51
 2641 0392 02       		.uleb128 0x2
 2642 0393 75       		.byte	0x75
 2643 0394 00       		.sleb128 0
 2644 0395 13       		.uleb128 0x13
 2645 0396 01       		.uleb128 0x1
 2646 0397 50       		.byte	0x50
 2647 0398 01       		.uleb128 0x1
 2648 0399 38       		.byte	0x38
 2649 039a 00       		.byte	0
 2650 039b 12       		.uleb128 0x12
 2651 039c 7E020000 		.4byte	.LVL29
 2652 03a0 F00C0000 		.4byte	0xcf0
 2653 03a4 B5030000 		.4byte	0x3b5
 2654 03a8 13       		.uleb128 0x13
 2655 03a9 01       		.uleb128 0x1
 2656 03aa 51       		.byte	0x51
 2657 03ab 02       		.uleb128 0x2
 2658 03ac 75       		.byte	0x75
 2659 03ad 00       		.sleb128 0
 2660 03ae 13       		.uleb128 0x13
 2661 03af 01       		.uleb128 0x1
 2662 03b0 50       		.byte	0x50
 2663 03b1 02       		.uleb128 0x2
 2664 03b2 08       		.byte	0x8
 2665 03b3 25       		.byte	0x25
 2666 03b4 00       		.byte	0
 2667 03b5 14       		.uleb128 0x14
 2668 03b6 8A020000 		.4byte	.LVL30
 2669 03ba 060D0000 		.4byte	0xd06
 2670 03be 00       		.byte	0
 2671 03bf 15       		.uleb128 0x15
 2672 03c0 1E030000 		.4byte	.LASF39
 2673 03c4 01       		.byte	0x1
 2674 03c5 5B       		.byte	0x5b
 2675 03c6 00000000 		.4byte	.LFB0
ARM GAS  C:\Users\IVYLIU~1\AppData\Local\Temp\cckaBvwB.s 			page 88


 2676 03ca B8000000 		.4byte	.LFE0-.LFB0
 2677 03ce 01       		.uleb128 0x1
 2678 03cf 9C       		.byte	0x9c
 2679 03d0 8C060000 		.4byte	0x68c
 2680 03d4 16       		.uleb128 0x16
 2681 03d5 4D010000 		.4byte	0x14d
 2682 03d9 5E000000 		.4byte	.LBB18
 2683 03dd 00000000 		.4byte	.Ldebug_ranges0+0
 2684 03e1 01       		.byte	0x1
 2685 03e2 85       		.byte	0x85
 2686 03e3 70040000 		.4byte	0x470
 2687 03e7 17       		.uleb128 0x17
 2688 03e8 72010000 		.4byte	0x172
 2689 03ec 80807E   		.sleb128 -32768
 2690 03ef 18       		.uleb128 0x18
 2691 03f0 7E010000 		.4byte	0x17e
 2692 03f4 10       		.byte	0x10
 2693 03f5 18       		.uleb128 0x18
 2694 03f6 8A010000 		.4byte	0x18a
 2695 03fa 01       		.byte	0x1
 2696 03fb 17       		.uleb128 0x17
 2697 03fc 66010000 		.4byte	0x166
 2698 0400 F09B7E   		.sleb128 -29200
 2699 0403 18       		.uleb128 0x18
 2700 0404 5A010000 		.4byte	0x15a
 2701 0408 02       		.byte	0x2
 2702 0409 19       		.uleb128 0x19
 2703 040a 00000000 		.4byte	.Ldebug_ranges0+0
 2704 040e 1A       		.uleb128 0x1a
 2705 040f 96010000 		.4byte	0x196
 2706 0413 1A       		.uleb128 0x1a
 2707 0414 A2010000 		.4byte	0x1a2
 2708 0418 1A       		.uleb128 0x1a
 2709 0419 AE010000 		.4byte	0x1ae
 2710 041d 1A       		.uleb128 0x1a
 2711 041e BA010000 		.4byte	0x1ba
 2712 0422 19       		.uleb128 0x19
 2713 0423 00000000 		.4byte	.Ldebug_ranges0+0
 2714 0427 17       		.uleb128 0x17
 2715 0428 72010000 		.4byte	0x172
 2716 042c 80807E   		.sleb128 -32768
 2717 042f 18       		.uleb128 0x18
 2718 0430 7E010000 		.4byte	0x17e
 2719 0434 10       		.byte	0x10
 2720 0435 18       		.uleb128 0x18
 2721 0436 8A010000 		.4byte	0x18a
 2722 043a 01       		.byte	0x1
 2723 043b 17       		.uleb128 0x17
 2724 043c 66010000 		.4byte	0x166
 2725 0440 F09B7E   		.sleb128 -29200
 2726 0443 18       		.uleb128 0x18
 2727 0444 5A010000 		.4byte	0x15a
 2728 0448 02       		.byte	0x2
 2729 0449 19       		.uleb128 0x19
 2730 044a 00000000 		.4byte	.Ldebug_ranges0+0
 2731 044e 1B       		.uleb128 0x1b
 2732 044f 96010000 		.4byte	0x196
ARM GAS  C:\Users\IVYLIU~1\AppData\Local\Temp\cckaBvwB.s 			page 89


 2733 0453 00       		.byte	0
 2734 0454 1C       		.uleb128 0x1c
 2735 0455 A2010000 		.4byte	0x1a2
 2736 0459 F08D     		.2byte	0x8df0
 2737 045b 1D       		.uleb128 0x1d
 2738 045c AE010000 		.4byte	0x1ae
 2739 0460 F09B7E   		.sleb128 -29200
 2740 0463 1E       		.uleb128 0x1e
 2741 0464 BA010000 		.4byte	0x1ba
 2742 0468 0000F846 		.4byte	0x46f80000
 2743 046c 00       		.byte	0
 2744 046d 00       		.byte	0
 2745 046e 00       		.byte	0
 2746 046f 00       		.byte	0
 2747 0470 16       		.uleb128 0x16
 2748 0471 4D010000 		.4byte	0x14d
 2749 0475 64000000 		.4byte	.LBB25
 2750 0479 18000000 		.4byte	.Ldebug_ranges0+0x18
 2751 047d 01       		.byte	0x1
 2752 047e 8B       		.byte	0x8b
 2753 047f 0C050000 		.4byte	0x50c
 2754 0483 17       		.uleb128 0x17
 2755 0484 72010000 		.4byte	0x172
 2756 0488 80807E   		.sleb128 -32768
 2757 048b 18       		.uleb128 0x18
 2758 048c 7E010000 		.4byte	0x17e
 2759 0490 10       		.byte	0x10
 2760 0491 18       		.uleb128 0x18
 2761 0492 8A010000 		.4byte	0x18a
 2762 0496 02       		.byte	0x2
 2763 0497 17       		.uleb128 0x17
 2764 0498 66010000 		.4byte	0x166
 2765 049c DAA17E   		.sleb128 -28454
 2766 049f 18       		.uleb128 0x18
 2767 04a0 5A010000 		.4byte	0x15a
 2768 04a4 00       		.byte	0
 2769 04a5 19       		.uleb128 0x19
 2770 04a6 18000000 		.4byte	.Ldebug_ranges0+0x18
 2771 04aa 1A       		.uleb128 0x1a
 2772 04ab 96010000 		.4byte	0x196
 2773 04af 1A       		.uleb128 0x1a
 2774 04b0 A2010000 		.4byte	0x1a2
 2775 04b4 1A       		.uleb128 0x1a
 2776 04b5 AE010000 		.4byte	0x1ae
 2777 04b9 1A       		.uleb128 0x1a
 2778 04ba BA010000 		.4byte	0x1ba
 2779 04be 19       		.uleb128 0x19
 2780 04bf 18000000 		.4byte	.Ldebug_ranges0+0x18
 2781 04c3 17       		.uleb128 0x17
 2782 04c4 72010000 		.4byte	0x172
 2783 04c8 80807E   		.sleb128 -32768
 2784 04cb 18       		.uleb128 0x18
 2785 04cc 7E010000 		.4byte	0x17e
 2786 04d0 10       		.byte	0x10
 2787 04d1 18       		.uleb128 0x18
 2788 04d2 8A010000 		.4byte	0x18a
 2789 04d6 02       		.byte	0x2
ARM GAS  C:\Users\IVYLIU~1\AppData\Local\Temp\cckaBvwB.s 			page 90


 2790 04d7 17       		.uleb128 0x17
 2791 04d8 66010000 		.4byte	0x166
 2792 04dc DAA17E   		.sleb128 -28454
 2793 04df 18       		.uleb128 0x18
 2794 04e0 5A010000 		.4byte	0x15a
 2795 04e4 00       		.byte	0
 2796 04e5 19       		.uleb128 0x19
 2797 04e6 18000000 		.4byte	.Ldebug_ranges0+0x18
 2798 04ea 1B       		.uleb128 0x1b
 2799 04eb 96010000 		.4byte	0x196
 2800 04ef 00       		.byte	0
 2801 04f0 1C       		.uleb128 0x1c
 2802 04f1 A2010000 		.4byte	0x1a2
 2803 04f5 DA90     		.2byte	0x90da
 2804 04f7 1D       		.uleb128 0x1d
 2805 04f8 AE010000 		.4byte	0x1ae
 2806 04fc DAA17E   		.sleb128 -28454
 2807 04ff 1E       		.uleb128 0x1e
 2808 0500 BA010000 		.4byte	0x1ba
 2809 0504 00006D48 		.4byte	0x486d0000
 2810 0508 00       		.byte	0
 2811 0509 00       		.byte	0
 2812 050a 00       		.byte	0
 2813 050b 00       		.byte	0
 2814 050c 16       		.uleb128 0x16
 2815 050d 4D010000 		.4byte	0x14d
 2816 0511 6E000000 		.4byte	.LBB37
 2817 0515 38000000 		.4byte	.Ldebug_ranges0+0x38
 2818 0519 01       		.byte	0x1
 2819 051a 92       		.byte	0x92
 2820 051b A8050000 		.4byte	0x5a8
 2821 051f 17       		.uleb128 0x17
 2822 0520 72010000 		.4byte	0x172
 2823 0524 80807E   		.sleb128 -32768
 2824 0527 18       		.uleb128 0x18
 2825 0528 7E010000 		.4byte	0x17e
 2826 052c 10       		.byte	0x10
 2827 052d 18       		.uleb128 0x18
 2828 052e 8A010000 		.4byte	0x18a
 2829 0532 03       		.byte	0x3
 2830 0533 17       		.uleb128 0x17
 2831 0534 66010000 		.4byte	0x166
 2832 0538 DAA17E   		.sleb128 -28454
 2833 053b 18       		.uleb128 0x18
 2834 053c 5A010000 		.4byte	0x15a
 2835 0540 00       		.byte	0
 2836 0541 19       		.uleb128 0x19
 2837 0542 38000000 		.4byte	.Ldebug_ranges0+0x38
 2838 0546 1A       		.uleb128 0x1a
 2839 0547 96010000 		.4byte	0x196
 2840 054b 1A       		.uleb128 0x1a
 2841 054c A2010000 		.4byte	0x1a2
 2842 0550 1A       		.uleb128 0x1a
 2843 0551 AE010000 		.4byte	0x1ae
 2844 0555 1A       		.uleb128 0x1a
 2845 0556 BA010000 		.4byte	0x1ba
 2846 055a 19       		.uleb128 0x19
ARM GAS  C:\Users\IVYLIU~1\AppData\Local\Temp\cckaBvwB.s 			page 91


 2847 055b 38000000 		.4byte	.Ldebug_ranges0+0x38
 2848 055f 17       		.uleb128 0x17
 2849 0560 72010000 		.4byte	0x172
 2850 0564 80807E   		.sleb128 -32768
 2851 0567 18       		.uleb128 0x18
 2852 0568 7E010000 		.4byte	0x17e
 2853 056c 10       		.byte	0x10
 2854 056d 18       		.uleb128 0x18
 2855 056e 8A010000 		.4byte	0x18a
 2856 0572 03       		.byte	0x3
 2857 0573 17       		.uleb128 0x17
 2858 0574 66010000 		.4byte	0x166
 2859 0578 DAA17E   		.sleb128 -28454
 2860 057b 18       		.uleb128 0x18
 2861 057c 5A010000 		.4byte	0x15a
 2862 0580 00       		.byte	0
 2863 0581 19       		.uleb128 0x19
 2864 0582 38000000 		.4byte	.Ldebug_ranges0+0x38
 2865 0586 1B       		.uleb128 0x1b
 2866 0587 96010000 		.4byte	0x196
 2867 058b 00       		.byte	0
 2868 058c 1C       		.uleb128 0x1c
 2869 058d A2010000 		.4byte	0x1a2
 2870 0591 DA90     		.2byte	0x90da
 2871 0593 1D       		.uleb128 0x1d
 2872 0594 AE010000 		.4byte	0x1ae
 2873 0598 DAA17E   		.sleb128 -28454
 2874 059b 1E       		.uleb128 0x1e
 2875 059c BA010000 		.4byte	0x1ba
 2876 05a0 00006D48 		.4byte	0x486d0000
 2877 05a4 00       		.byte	0
 2878 05a5 00       		.byte	0
 2879 05a6 00       		.byte	0
 2880 05a7 00       		.byte	0
 2881 05a8 16       		.uleb128 0x16
 2882 05a9 4D010000 		.4byte	0x14d
 2883 05ad 70000000 		.4byte	.LBB44
 2884 05b1 50000000 		.4byte	.Ldebug_ranges0+0x50
 2885 05b5 01       		.byte	0x1
 2886 05b6 99       		.byte	0x99
 2887 05b7 44060000 		.4byte	0x644
 2888 05bb 17       		.uleb128 0x17
 2889 05bc 72010000 		.4byte	0x172
 2890 05c0 80807E   		.sleb128 -32768
 2891 05c3 18       		.uleb128 0x18
 2892 05c4 7E010000 		.4byte	0x17e
 2893 05c8 10       		.byte	0x10
 2894 05c9 18       		.uleb128 0x18
 2895 05ca 8A010000 		.4byte	0x18a
 2896 05ce 04       		.byte	0x4
 2897 05cf 17       		.uleb128 0x17
 2898 05d0 66010000 		.4byte	0x166
 2899 05d4 DAA17E   		.sleb128 -28454
 2900 05d7 18       		.uleb128 0x18
 2901 05d8 5A010000 		.4byte	0x15a
 2902 05dc 00       		.byte	0
 2903 05dd 19       		.uleb128 0x19
ARM GAS  C:\Users\IVYLIU~1\AppData\Local\Temp\cckaBvwB.s 			page 92


 2904 05de 50000000 		.4byte	.Ldebug_ranges0+0x50
 2905 05e2 1A       		.uleb128 0x1a
 2906 05e3 96010000 		.4byte	0x196
 2907 05e7 1A       		.uleb128 0x1a
 2908 05e8 A2010000 		.4byte	0x1a2
 2909 05ec 1A       		.uleb128 0x1a
 2910 05ed AE010000 		.4byte	0x1ae
 2911 05f1 1A       		.uleb128 0x1a
 2912 05f2 BA010000 		.4byte	0x1ba
 2913 05f6 19       		.uleb128 0x19
 2914 05f7 50000000 		.4byte	.Ldebug_ranges0+0x50
 2915 05fb 17       		.uleb128 0x17
 2916 05fc 72010000 		.4byte	0x172
 2917 0600 80807E   		.sleb128 -32768
 2918 0603 18       		.uleb128 0x18
 2919 0604 7E010000 		.4byte	0x17e
 2920 0608 10       		.byte	0x10
 2921 0609 18       		.uleb128 0x18
 2922 060a 8A010000 		.4byte	0x18a
 2923 060e 04       		.byte	0x4
 2924 060f 17       		.uleb128 0x17
 2925 0610 66010000 		.4byte	0x166
 2926 0614 DAA17E   		.sleb128 -28454
 2927 0617 18       		.uleb128 0x18
 2928 0618 5A010000 		.4byte	0x15a
 2929 061c 00       		.byte	0
 2930 061d 19       		.uleb128 0x19
 2931 061e 50000000 		.4byte	.Ldebug_ranges0+0x50
 2932 0622 1B       		.uleb128 0x1b
 2933 0623 96010000 		.4byte	0x196
 2934 0627 00       		.byte	0
 2935 0628 1C       		.uleb128 0x1c
 2936 0629 A2010000 		.4byte	0x1a2
 2937 062d DA90     		.2byte	0x90da
 2938 062f 1D       		.uleb128 0x1d
 2939 0630 AE010000 		.4byte	0x1ae
 2940 0634 DAA17E   		.sleb128 -28454
 2941 0637 1E       		.uleb128 0x1e
 2942 0638 BA010000 		.4byte	0x1ba
 2943 063c 00006D48 		.4byte	0x486d0000
 2944 0640 00       		.byte	0
 2945 0641 00       		.byte	0
 2946 0642 00       		.byte	0
 2947 0643 00       		.byte	0
 2948 0644 12       		.uleb128 0x12
 2949 0645 14000000 		.4byte	.LVL31
 2950 0649 200D0000 		.4byte	0xd20
 2951 064d 57060000 		.4byte	0x657
 2952 0651 13       		.uleb128 0x13
 2953 0652 01       		.uleb128 0x1
 2954 0653 50       		.byte	0x50
 2955 0654 01       		.uleb128 0x1
 2956 0655 40       		.byte	0x40
 2957 0656 00       		.byte	0
 2958 0657 12       		.uleb128 0x12
 2959 0658 1A000000 		.4byte	.LVL32
 2960 065c 310D0000 		.4byte	0xd31
ARM GAS  C:\Users\IVYLIU~1\AppData\Local\Temp\cckaBvwB.s 			page 93


 2961 0660 6A060000 		.4byte	0x66a
 2962 0664 13       		.uleb128 0x13
 2963 0665 01       		.uleb128 0x1
 2964 0666 50       		.byte	0x50
 2965 0667 01       		.uleb128 0x1
 2966 0668 40       		.byte	0x40
 2967 0669 00       		.byte	0
 2968 066a 12       		.uleb128 0x12
 2969 066b 22000000 		.4byte	.LVL33
 2970 066f 420D0000 		.4byte	0xd42
 2971 0673 82060000 		.4byte	0x682
 2972 0677 13       		.uleb128 0x13
 2973 0678 01       		.uleb128 0x1
 2974 0679 51       		.byte	0x51
 2975 067a 01       		.uleb128 0x1
 2976 067b 37       		.byte	0x37
 2977 067c 13       		.uleb128 0x13
 2978 067d 01       		.uleb128 0x1
 2979 067e 50       		.byte	0x50
 2980 067f 01       		.uleb128 0x1
 2981 0680 4D       		.byte	0x4d
 2982 0681 00       		.byte	0
 2983 0682 14       		.uleb128 0x14
 2984 0683 9A000000 		.4byte	.LVL38
 2985 0687 23020000 		.4byte	0x223
 2986 068b 00       		.byte	0
 2987 068c 15       		.uleb128 0x15
 2988 068d 0F000000 		.4byte	.LASF40
 2989 0691 01       		.byte	0x1
 2990 0692 B8       		.byte	0xb8
 2991 0693 00000000 		.4byte	.LFB1
 2992 0697 D0000000 		.4byte	.LFE1-.LFB1
 2993 069b 01       		.uleb128 0x1
 2994 069c 9C       		.byte	0x9c
 2995 069d E1060000 		.4byte	0x6e1
 2996 06a1 1F       		.uleb128 0x1f
 2997 06a2 55050000 		.4byte	.LASF31
 2998 06a6 01       		.byte	0x1
 2999 06a7 BA       		.byte	0xba
 3000 06a8 72000000 		.4byte	0x72
 3001 06ac 20       		.uleb128 0x20
 3002 06ad E1050000 		.4byte	.LASF41
 3003 06b1 01       		.byte	0x1
 3004 06b2 BB       		.byte	0xbb
 3005 06b3 72000000 		.4byte	0x72
 3006 06b7 AB000000 		.4byte	.LLST3
 3007 06bb 11       		.uleb128 0x11
 3008 06bc 06000000 		.4byte	.LVL39
 3009 06c0 9C0C0000 		.4byte	0xc9c
 3010 06c4 12       		.uleb128 0x12
 3011 06c5 52000000 		.4byte	.LVL41
 3012 06c9 A70C0000 		.4byte	0xca7
 3013 06cd D7060000 		.4byte	0x6d7
 3014 06d1 13       		.uleb128 0x13
 3015 06d2 01       		.uleb128 0x1
 3016 06d3 50       		.byte	0x50
 3017 06d4 01       		.uleb128 0x1
ARM GAS  C:\Users\IVYLIU~1\AppData\Local\Temp\cckaBvwB.s 			page 94


 3018 06d5 33       		.byte	0x33
 3019 06d6 00       		.byte	0
 3020 06d7 14       		.uleb128 0x14
 3021 06d8 AC000000 		.4byte	.LVL43
 3022 06dc B80C0000 		.4byte	0xcb8
 3023 06e0 00       		.byte	0
 3024 06e1 21       		.uleb128 0x21
 3025 06e2 3D060000 		.4byte	.LASF42
 3026 06e6 01       		.byte	0x1
 3027 06e7 4901     		.2byte	0x149
 3028 06e9 00000000 		.4byte	.LFB2
 3029 06ed 20000000 		.4byte	.LFE2-.LFB2
 3030 06f1 01       		.uleb128 0x1
 3031 06f2 9C       		.byte	0x9c
 3032 06f3 0A070000 		.4byte	0x70a
 3033 06f7 11       		.uleb128 0x11
 3034 06f8 10000000 		.4byte	.LVL44
 3035 06fc BF030000 		.4byte	0x3bf
 3036 0700 14       		.uleb128 0x14
 3037 0701 1C000000 		.4byte	.LVL45
 3038 0705 8C060000 		.4byte	0x68c
 3039 0709 00       		.byte	0
 3040 070a 21       		.uleb128 0x21
 3041 070b FD000000 		.4byte	.LASF43
 3042 070f 01       		.byte	0x1
 3043 0710 6A01     		.2byte	0x16a
 3044 0712 00000000 		.4byte	.LFB3
 3045 0716 E0000000 		.4byte	.LFE3-.LFB3
 3046 071a 01       		.uleb128 0x1
 3047 071b 9C       		.byte	0x9c
 3048 071c 56070000 		.4byte	0x756
 3049 0720 10       		.uleb128 0x10
 3050 0721 E1050000 		.4byte	.LASF41
 3051 0725 01       		.byte	0x1
 3052 0726 6C01     		.2byte	0x16c
 3053 0728 72000000 		.4byte	0x72
 3054 072c BE000000 		.4byte	.LLST4
 3055 0730 11       		.uleb128 0x11
 3056 0731 06000000 		.4byte	.LVL46
 3057 0735 9C0C0000 		.4byte	0xc9c
 3058 0739 12       		.uleb128 0x12
 3059 073a 4C000000 		.4byte	.LVL48
 3060 073e A70C0000 		.4byte	0xca7
 3061 0742 4C070000 		.4byte	0x74c
 3062 0746 13       		.uleb128 0x13
 3063 0747 01       		.uleb128 0x1
 3064 0748 50       		.byte	0x50
 3065 0749 01       		.uleb128 0x1
 3066 074a 33       		.byte	0x33
 3067 074b 00       		.byte	0
 3068 074c 14       		.uleb128 0x14
 3069 074d CA000000 		.4byte	.LVL50
 3070 0751 B80C0000 		.4byte	0xcb8
 3071 0755 00       		.byte	0
 3072 0756 21       		.uleb128 0x21
 3073 0757 CE060000 		.4byte	.LASF44
 3074 075b 01       		.byte	0x1
ARM GAS  C:\Users\IVYLIU~1\AppData\Local\Temp\cckaBvwB.s 			page 95


 3075 075c AD01     		.2byte	0x1ad
 3076 075e 00000000 		.4byte	.LFB4
 3077 0762 18000000 		.4byte	.LFE4-.LFB4
 3078 0766 01       		.uleb128 0x1
 3079 0767 9C       		.byte	0x9c
 3080 0768 8D070000 		.4byte	0x78d
 3081 076c 0F       		.uleb128 0xf
 3082 076d 4D030000 		.4byte	.LASF45
 3083 0771 01       		.byte	0x1
 3084 0772 AD01     		.2byte	0x1ad
 3085 0774 72000000 		.4byte	0x72
 3086 0778 D1000000 		.4byte	.LLST5
 3087 077c 10       		.uleb128 0x10
 3088 077d E9060000 		.4byte	.LASF46
 3089 0781 01       		.byte	0x1
 3090 0782 AF01     		.2byte	0x1af
 3091 0784 72000000 		.4byte	0x72
 3092 0788 F2000000 		.4byte	.LLST6
 3093 078c 00       		.byte	0
 3094 078d 21       		.uleb128 0x21
 3095 078e 2E050000 		.4byte	.LASF47
 3096 0792 01       		.byte	0x1
 3097 0793 D101     		.2byte	0x1d1
 3098 0795 00000000 		.4byte	.LFB5
 3099 0799 18000000 		.4byte	.LFE5-.LFB5
 3100 079d 01       		.uleb128 0x1
 3101 079e 9C       		.byte	0x9c
 3102 079f C4070000 		.4byte	0x7c4
 3103 07a3 0F       		.uleb128 0xf
 3104 07a4 66030000 		.4byte	.LASF48
 3105 07a8 01       		.byte	0x1
 3106 07a9 D101     		.2byte	0x1d1
 3107 07ab 72000000 		.4byte	0x72
 3108 07af 10010000 		.4byte	.LLST7
 3109 07b3 10       		.uleb128 0x10
 3110 07b4 E9060000 		.4byte	.LASF46
 3111 07b8 01       		.byte	0x1
 3112 07b9 D301     		.2byte	0x1d3
 3113 07bb 72000000 		.4byte	0x72
 3114 07bf 31010000 		.4byte	.LLST8
 3115 07c3 00       		.byte	0
 3116 07c4 22       		.uleb128 0x22
 3117 07c5 0F060000 		.4byte	.LASF52
 3118 07c9 01       		.byte	0x1
 3119 07ca F901     		.2byte	0x1f9
 3120 07cc 72000000 		.4byte	0x72
 3121 07d0 00000000 		.4byte	.LFB6
 3122 07d4 74000000 		.4byte	.LFE6-.LFB6
 3123 07d8 01       		.uleb128 0x1
 3124 07d9 9C       		.byte	0x9c
 3125 07da 1F080000 		.4byte	0x81f
 3126 07de 0F       		.uleb128 0xf
 3127 07df 32060000 		.4byte	.LASF49
 3128 07e3 01       		.byte	0x1
 3129 07e4 F901     		.2byte	0x1f9
 3130 07e6 BA000000 		.4byte	0xba
 3131 07ea 4F010000 		.4byte	.LLST9
ARM GAS  C:\Users\IVYLIU~1\AppData\Local\Temp\cckaBvwB.s 			page 96


 3132 07ee 10       		.uleb128 0x10
 3133 07ef E9060000 		.4byte	.LASF46
 3134 07f3 01       		.byte	0x1
 3135 07f4 FB01     		.2byte	0x1fb
 3136 07f6 7E000000 		.4byte	0x7e
 3137 07fa 7D010000 		.4byte	.LLST10
 3138 07fe 10       		.uleb128 0x10
 3139 07ff 2B060000 		.4byte	.LASF50
 3140 0803 01       		.byte	0x1
 3141 0804 FC01     		.2byte	0x1fc
 3142 0806 72000000 		.4byte	0x72
 3143 080a B0010000 		.4byte	.LLST11
 3144 080e 10       		.uleb128 0x10
 3145 080f 69050000 		.4byte	.LASF51
 3146 0813 01       		.byte	0x1
 3147 0814 FD01     		.2byte	0x1fd
 3148 0816 BA000000 		.4byte	0xba
 3149 081a CF010000 		.4byte	.LLST12
 3150 081e 00       		.byte	0
 3151 081f 23       		.uleb128 0x23
 3152 0820 26070000 		.4byte	.LASF53
 3153 0824 01       		.byte	0x1
 3154 0825 2802     		.2byte	0x228
 3155 0827 7E000000 		.4byte	0x7e
 3156 082b 00000000 		.4byte	.LFB7
 3157 082f 24000000 		.4byte	.LFE7-.LFB7
 3158 0833 01       		.uleb128 0x1
 3159 0834 9C       		.byte	0x9c
 3160 0835 5A080000 		.4byte	0x85a
 3161 0839 10       		.uleb128 0x10
 3162 083a 24060000 		.4byte	.LASF54
 3163 083e 01       		.byte	0x1
 3164 083f 2A02     		.2byte	0x22a
 3165 0841 72000000 		.4byte	0x72
 3166 0845 19020000 		.4byte	.LLST13
 3167 0849 10       		.uleb128 0x10
 3168 084a 7A020000 		.4byte	.LASF34
 3169 084e 01       		.byte	0x1
 3170 084f 2B02     		.2byte	0x22b
 3171 0851 7E000000 		.4byte	0x7e
 3172 0855 2C020000 		.4byte	.LLST14
 3173 0859 00       		.byte	0
 3174 085a 24       		.uleb128 0x24
 3175 085b DF040000 		.4byte	.LASF55
 3176 085f 01       		.byte	0x1
 3177 0860 4A02     		.2byte	0x24a
 3178 0862 00000000 		.4byte	.LFB8
 3179 0866 10000000 		.4byte	.LFE8-.LFB8
 3180 086a 01       		.uleb128 0x1
 3181 086b 9C       		.byte	0x9c
 3182 086c 24       		.uleb128 0x24
 3183 086d 56060000 		.4byte	.LASF56
 3184 0871 01       		.byte	0x1
 3185 0872 6102     		.2byte	0x261
 3186 0874 00000000 		.4byte	.LFB9
 3187 0878 10000000 		.4byte	.LFE9-.LFB9
 3188 087c 01       		.uleb128 0x1
ARM GAS  C:\Users\IVYLIU~1\AppData\Local\Temp\cckaBvwB.s 			page 97


 3189 087d 9C       		.byte	0x9c
 3190 087e 23       		.uleb128 0x23
 3191 087f F2050000 		.4byte	.LASF57
 3192 0883 01       		.byte	0x1
 3193 0884 8402     		.2byte	0x284
 3194 0886 72000000 		.4byte	0x72
 3195 088a 00000000 		.4byte	.LFB10
 3196 088e 28000000 		.4byte	.LFE10-.LFB10
 3197 0892 01       		.uleb128 0x1
 3198 0893 9C       		.byte	0x9c
 3199 0894 B9080000 		.4byte	0x8b9
 3200 0898 0F       		.uleb128 0xf
 3201 0899 CB010000 		.4byte	.LASF58
 3202 089d 01       		.byte	0x1
 3203 089e 8402     		.2byte	0x284
 3204 08a0 72000000 		.4byte	0x72
 3205 08a4 4A020000 		.4byte	.LLST15
 3206 08a8 10       		.uleb128 0x10
 3207 08a9 2B060000 		.4byte	.LASF50
 3208 08ad 01       		.byte	0x1
 3209 08ae 8602     		.2byte	0x286
 3210 08b0 72000000 		.4byte	0x72
 3211 08b4 6B020000 		.4byte	.LLST16
 3212 08b8 00       		.byte	0
 3213 08b9 23       		.uleb128 0x23
 3214 08ba 37010000 		.4byte	.LASF59
 3215 08be 01       		.byte	0x1
 3216 08bf B302     		.2byte	0x2b3
 3217 08c1 96000000 		.4byte	0x96
 3218 08c5 00000000 		.4byte	.LFB11
 3219 08c9 40000000 		.4byte	.LFE11-.LFB11
 3220 08cd 01       		.uleb128 0x1
 3221 08ce 9C       		.byte	0x9c
 3222 08cf F2080000 		.4byte	0x8f2
 3223 08d3 25       		.uleb128 0x25
 3224 08d4 03070000 		.4byte	.LASF60
 3225 08d8 01       		.byte	0x1
 3226 08d9 B502     		.2byte	0x2b5
 3227 08db 96000000 		.4byte	0x96
 3228 08df 01       		.uleb128 0x1
 3229 08e0 50       		.byte	0x50
 3230 08e1 10       		.uleb128 0x10
 3231 08e2 66030000 		.4byte	.LASF48
 3232 08e6 01       		.byte	0x1
 3233 08e7 B602     		.2byte	0x2b6
 3234 08e9 72000000 		.4byte	0x72
 3235 08ed 89020000 		.4byte	.LLST17
 3236 08f1 00       		.byte	0
 3237 08f2 23       		.uleb128 0x23
 3238 08f3 E6020000 		.4byte	.LASF61
 3239 08f7 01       		.byte	0x1
 3240 08f8 E902     		.2byte	0x2e9
 3241 08fa A2000000 		.4byte	0xa2
 3242 08fe 00000000 		.4byte	.LFB12
 3243 0902 44000000 		.4byte	.LFE12-.LFB12
 3244 0906 01       		.uleb128 0x1
 3245 0907 9C       		.byte	0x9c
ARM GAS  C:\Users\IVYLIU~1\AppData\Local\Temp\cckaBvwB.s 			page 98


 3246 0908 2D090000 		.4byte	0x92d
 3247 090c 10       		.uleb128 0x10
 3248 090d 03070000 		.4byte	.LASF60
 3249 0911 01       		.byte	0x1
 3250 0912 EB02     		.2byte	0x2eb
 3251 0914 7E000000 		.4byte	0x7e
 3252 0918 A7020000 		.4byte	.LLST18
 3253 091c 10       		.uleb128 0x10
 3254 091d 66030000 		.4byte	.LASF48
 3255 0921 01       		.byte	0x1
 3256 0922 EC02     		.2byte	0x2ec
 3257 0924 72000000 		.4byte	0x72
 3258 0928 D0020000 		.4byte	.LLST19
 3259 092c 00       		.byte	0
 3260 092d 23       		.uleb128 0x23
 3261 092e 10050000 		.4byte	.LASF62
 3262 0932 01       		.byte	0x1
 3263 0933 2503     		.2byte	0x325
 3264 0935 AE000000 		.4byte	0xae
 3265 0939 00000000 		.4byte	.LFB13
 3266 093d 58000000 		.4byte	.LFE13-.LFB13
 3267 0941 01       		.uleb128 0x1
 3268 0942 9C       		.byte	0x9c
 3269 0943 68090000 		.4byte	0x968
 3270 0947 10       		.uleb128 0x10
 3271 0948 03070000 		.4byte	.LASF60
 3272 094c 01       		.byte	0x1
 3273 094d 2703     		.2byte	0x327
 3274 094f 8A000000 		.4byte	0x8a
 3275 0953 E3020000 		.4byte	.LLST20
 3276 0957 10       		.uleb128 0x10
 3277 0958 66030000 		.4byte	.LASF48
 3278 095c 01       		.byte	0x1
 3279 095d 2803     		.2byte	0x328
 3280 095f 72000000 		.4byte	0x72
 3281 0963 39030000 		.4byte	.LLST21
 3282 0967 00       		.byte	0
 3283 0968 21       		.uleb128 0x21
 3284 0969 B6040000 		.4byte	.LASF63
 3285 096d 01       		.byte	0x1
 3286 096e 8203     		.2byte	0x382
 3287 0970 00000000 		.4byte	.LFB14
 3288 0974 0C000000 		.4byte	.LFE14-.LFB14
 3289 0978 01       		.uleb128 0x1
 3290 0979 9C       		.byte	0x9c
 3291 097a 8D090000 		.4byte	0x98d
 3292 097e 26       		.uleb128 0x26
 3293 097f 8D050000 		.4byte	.LASF64
 3294 0983 01       		.byte	0x1
 3295 0984 8203     		.2byte	0x382
 3296 0986 AE000000 		.4byte	0xae
 3297 098a 01       		.uleb128 0x1
 3298 098b 50       		.byte	0x50
 3299 098c 00       		.byte	0
 3300 098d 21       		.uleb128 0x21
 3301 098e 88060000 		.4byte	.LASF65
 3302 0992 01       		.byte	0x1
ARM GAS  C:\Users\IVYLIU~1\AppData\Local\Temp\cckaBvwB.s 			page 99


 3303 0993 A503     		.2byte	0x3a5
 3304 0995 00000000 		.4byte	.LFB15
 3305 0999 0C000000 		.4byte	.LFE15-.LFB15
 3306 099d 01       		.uleb128 0x1
 3307 099e 9C       		.byte	0x9c
 3308 099f B2090000 		.4byte	0x9b2
 3309 09a3 26       		.uleb128 0x26
 3310 09a4 07000000 		.4byte	.LASF66
 3311 09a8 01       		.byte	0x1
 3312 09a9 A503     		.2byte	0x3a5
 3313 09ab AE000000 		.4byte	0xae
 3314 09af 01       		.uleb128 0x1
 3315 09b0 50       		.byte	0x50
 3316 09b1 00       		.byte	0
 3317 09b2 23       		.uleb128 0x23
 3318 09b3 B1060000 		.4byte	.LASF67
 3319 09b7 01       		.byte	0x1
 3320 09b8 C003     		.2byte	0x3c0
 3321 09ba A2000000 		.4byte	0xa2
 3322 09be 00000000 		.4byte	.LFB16
 3323 09c2 20000000 		.4byte	.LFE16-.LFB16
 3324 09c6 01       		.uleb128 0x1
 3325 09c7 9C       		.byte	0x9c
 3326 09c8 ED090000 		.4byte	0x9ed
 3327 09cc 0F       		.uleb128 0xf
 3328 09cd B9050000 		.4byte	.LASF68
 3329 09d1 01       		.byte	0x1
 3330 09d2 C003     		.2byte	0x3c0
 3331 09d4 AE000000 		.4byte	0xae
 3332 09d8 62030000 		.4byte	.LLST22
 3333 09dc 10       		.uleb128 0x10
 3334 09dd AF020000 		.4byte	.LASF69
 3335 09e1 01       		.byte	0x1
 3336 09e2 C303     		.2byte	0x3c3
 3337 09e4 A2000000 		.4byte	0xa2
 3338 09e8 90030000 		.4byte	.LLST23
 3339 09ec 00       		.byte	0
 3340 09ed 22       		.uleb128 0x22
 3341 09ee C2020000 		.4byte	.LASF70
 3342 09f2 01       		.byte	0x1
 3343 09f3 FD03     		.2byte	0x3fd
 3344 09f5 BA000000 		.4byte	0xba
 3345 09f9 00000000 		.4byte	.LFB17
 3346 09fd 2C000000 		.4byte	.LFE17-.LFB17
 3347 0a01 01       		.uleb128 0x1
 3348 0a02 9C       		.byte	0x9c
 3349 0a03 280A0000 		.4byte	0xa28
 3350 0a07 0F       		.uleb128 0xf
 3351 0a08 B9050000 		.4byte	.LASF68
 3352 0a0c 01       		.byte	0x1
 3353 0a0d FD03     		.2byte	0x3fd
 3354 0a0f AE000000 		.4byte	0xae
 3355 0a13 C7030000 		.4byte	.LLST24
 3356 0a17 10       		.uleb128 0x10
 3357 0a18 A9010000 		.4byte	.LASF71
 3358 0a1c 01       		.byte	0x1
 3359 0a1d 0004     		.2byte	0x400
ARM GAS  C:\Users\IVYLIU~1\AppData\Local\Temp\cckaBvwB.s 			page 100


 3360 0a1f BA000000 		.4byte	0xba
 3361 0a23 F5030000 		.4byte	.LLST25
 3362 0a27 00       		.byte	0
 3363 0a28 23       		.uleb128 0x23
 3364 0a29 30030000 		.4byte	.LASF72
 3365 0a2d 01       		.byte	0x1
 3366 0a2e 3F04     		.2byte	0x43f
 3367 0a30 AE000000 		.4byte	0xae
 3368 0a34 00000000 		.4byte	.LFB18
 3369 0a38 40000000 		.4byte	.LFE18-.LFB18
 3370 0a3c 01       		.uleb128 0x1
 3371 0a3d 9C       		.byte	0x9c
 3372 0a3e 8E0A0000 		.4byte	0xa8e
 3373 0a42 0F       		.uleb128 0xf
 3374 0a43 B9050000 		.4byte	.LASF68
 3375 0a47 01       		.byte	0x1
 3376 0a48 3F04     		.2byte	0x43f
 3377 0a4a AE000000 		.4byte	0xae
 3378 0a4e 34040000 		.4byte	.LLST26
 3379 0a52 10       		.uleb128 0x10
 3380 0a53 08020000 		.4byte	.LASF73
 3381 0a57 01       		.byte	0x1
 3382 0a58 4204     		.2byte	0x442
 3383 0a5a AE000000 		.4byte	0xae
 3384 0a5e 55040000 		.4byte	.LLST27
 3385 0a62 27       		.uleb128 0x27
 3386 0a63 04050000 		.4byte	.LASF74
 3387 0a67 01       		.byte	0x1
 3388 0a68 4304     		.2byte	0x443
 3389 0a6a AE000000 		.4byte	0xae
 3390 0a6e 127A     		.2byte	0x7a12
 3391 0a70 10       		.uleb128 0x10
 3392 0a71 0A050000 		.4byte	.LASF75
 3393 0a75 01       		.byte	0x1
 3394 0a76 4404     		.2byte	0x444
 3395 0a78 AE000000 		.4byte	0xae
 3396 0a7c A5040000 		.4byte	.LLST28
 3397 0a80 28       		.uleb128 0x28
 3398 0a81 F9040000 		.4byte	.LASF30
 3399 0a85 01       		.byte	0x1
 3400 0a86 4504     		.2byte	0x445
 3401 0a88 72000000 		.4byte	0x72
 3402 0a8c 10       		.byte	0x10
 3403 0a8d 00       		.byte	0
 3404 0a8e 21       		.uleb128 0x21
 3405 0a8f 71000000 		.4byte	.LASF76
 3406 0a93 01       		.byte	0x1
 3407 0a94 1006     		.2byte	0x610
 3408 0a96 00000000 		.4byte	.LFB20
 3409 0a9a 54000000 		.4byte	.LFE20-.LFB20
 3410 0a9e 01       		.uleb128 0x1
 3411 0a9f 9C       		.byte	0x9c
 3412 0aa0 F40A0000 		.4byte	0xaf4
 3413 0aa4 0F       		.uleb128 0xf
 3414 0aa5 55050000 		.4byte	.LASF31
 3415 0aa9 01       		.byte	0x1
 3416 0aaa 1006     		.2byte	0x610
ARM GAS  C:\Users\IVYLIU~1\AppData\Local\Temp\cckaBvwB.s 			page 101


 3417 0aac 72000000 		.4byte	0x72
 3418 0ab0 C5040000 		.4byte	.LLST29
 3419 0ab4 0F       		.uleb128 0xf
 3420 0ab5 61050000 		.4byte	.LASF77
 3421 0ab9 01       		.byte	0x1
 3422 0aba 1006     		.2byte	0x610
 3423 0abc 72000000 		.4byte	0x72
 3424 0ac0 E6040000 		.4byte	.LLST30
 3425 0ac4 11       		.uleb128 0x11
 3426 0ac5 24000000 		.4byte	.LVL131
 3427 0ac9 0A070000 		.4byte	0x70a
 3428 0acd 12       		.uleb128 0x12
 3429 0ace 2A000000 		.4byte	.LVL132
 3430 0ad2 23020000 		.4byte	0x223
 3431 0ad6 E10A0000 		.4byte	0xae1
 3432 0ada 13       		.uleb128 0x13
 3433 0adb 01       		.uleb128 0x1
 3434 0adc 50       		.byte	0x50
 3435 0add 02       		.uleb128 0x2
 3436 0ade 75       		.byte	0x75
 3437 0adf 00       		.sleb128 0
 3438 0ae0 00       		.byte	0
 3439 0ae1 11       		.uleb128 0x11
 3440 0ae2 3E000000 		.4byte	.LVL133
 3441 0ae6 E1060000 		.4byte	0x6e1
 3442 0aea 14       		.uleb128 0x14
 3443 0aeb 46000000 		.4byte	.LVL134
 3444 0aef 5A080000 		.4byte	0x85a
 3445 0af3 00       		.byte	0
 3446 0af4 23       		.uleb128 0x23
 3447 0af5 F0060000 		.4byte	.LASF78
 3448 0af9 01       		.byte	0x1
 3449 0afa E206     		.2byte	0x6e2
 3450 0afc 96000000 		.4byte	0x96
 3451 0b00 00000000 		.4byte	.LFB23
 3452 0b04 28000000 		.4byte	.LFE23-.LFB23
 3453 0b08 01       		.uleb128 0x1
 3454 0b09 9C       		.byte	0x9c
 3455 0b0a 4D0B0000 		.4byte	0xb4d
 3456 0b0e 10       		.uleb128 0x10
 3457 0b0f 03070000 		.4byte	.LASF60
 3458 0b13 01       		.byte	0x1
 3459 0b14 E406     		.2byte	0x6e4
 3460 0b16 96000000 		.4byte	0x96
 3461 0b1a 07050000 		.4byte	.LLST31
 3462 0b1e 11       		.uleb128 0x11
 3463 0b1f 10000000 		.4byte	.LVL135
 3464 0b23 5A080000 		.4byte	0x85a
 3465 0b27 12       		.uleb128 0x12
 3466 0b28 16000000 		.4byte	.LVL136
 3467 0b2c 7E080000 		.4byte	0x87e
 3468 0b30 3A0B0000 		.4byte	0xb3a
 3469 0b34 13       		.uleb128 0x13
 3470 0b35 01       		.uleb128 0x1
 3471 0b36 50       		.byte	0x50
 3472 0b37 01       		.uleb128 0x1
 3473 0b38 30       		.byte	0x30
ARM GAS  C:\Users\IVYLIU~1\AppData\Local\Temp\cckaBvwB.s 			page 102


 3474 0b39 00       		.byte	0
 3475 0b3a 11       		.uleb128 0x11
 3476 0b3b 1A000000 		.4byte	.LVL137
 3477 0b3f B9080000 		.4byte	0x8b9
 3478 0b43 11       		.uleb128 0x11
 3479 0b44 20000000 		.4byte	.LVL139
 3480 0b48 6C080000 		.4byte	0x86c
 3481 0b4c 00       		.byte	0
 3482 0b4d 23       		.uleb128 0x23
 3483 0b4e 9D060000 		.4byte	.LASF79
 3484 0b52 01       		.byte	0x1
 3485 0b53 0307     		.2byte	0x703
 3486 0b55 A2000000 		.4byte	0xa2
 3487 0b59 00000000 		.4byte	.LFB24
 3488 0b5d 28000000 		.4byte	.LFE24-.LFB24
 3489 0b61 01       		.uleb128 0x1
 3490 0b62 9C       		.byte	0x9c
 3491 0b63 A60B0000 		.4byte	0xba6
 3492 0b67 10       		.uleb128 0x10
 3493 0b68 03070000 		.4byte	.LASF60
 3494 0b6c 01       		.byte	0x1
 3495 0b6d 0507     		.2byte	0x705
 3496 0b6f A2000000 		.4byte	0xa2
 3497 0b73 1A050000 		.4byte	.LLST32
 3498 0b77 11       		.uleb128 0x11
 3499 0b78 10000000 		.4byte	.LVL141
 3500 0b7c 5A080000 		.4byte	0x85a
 3501 0b80 12       		.uleb128 0x12
 3502 0b81 16000000 		.4byte	.LVL142
 3503 0b85 7E080000 		.4byte	0x87e
 3504 0b89 930B0000 		.4byte	0xb93
 3505 0b8d 13       		.uleb128 0x13
 3506 0b8e 01       		.uleb128 0x1
 3507 0b8f 50       		.byte	0x50
 3508 0b90 01       		.uleb128 0x1
 3509 0b91 30       		.byte	0x30
 3510 0b92 00       		.byte	0
 3511 0b93 11       		.uleb128 0x11
 3512 0b94 1A000000 		.4byte	.LVL143
 3513 0b98 F2080000 		.4byte	0x8f2
 3514 0b9c 11       		.uleb128 0x11
 3515 0b9d 20000000 		.4byte	.LVL145
 3516 0ba1 6C080000 		.4byte	0x86c
 3517 0ba5 00       		.byte	0
 3518 0ba6 23       		.uleb128 0x23
 3519 0ba7 6F010000 		.4byte	.LASF80
 3520 0bab 01       		.byte	0x1
 3521 0bac 2407     		.2byte	0x724
 3522 0bae AE000000 		.4byte	0xae
 3523 0bb2 00000000 		.4byte	.LFB25
 3524 0bb6 28000000 		.4byte	.LFE25-.LFB25
 3525 0bba 01       		.uleb128 0x1
 3526 0bbb 9C       		.byte	0x9c
 3527 0bbc FF0B0000 		.4byte	0xbff
 3528 0bc0 10       		.uleb128 0x10
 3529 0bc1 03070000 		.4byte	.LASF60
 3530 0bc5 01       		.byte	0x1
ARM GAS  C:\Users\IVYLIU~1\AppData\Local\Temp\cckaBvwB.s 			page 103


 3531 0bc6 2607     		.2byte	0x726
 3532 0bc8 AE000000 		.4byte	0xae
 3533 0bcc 2D050000 		.4byte	.LLST33
 3534 0bd0 11       		.uleb128 0x11
 3535 0bd1 10000000 		.4byte	.LVL147
 3536 0bd5 5A080000 		.4byte	0x85a
 3537 0bd9 12       		.uleb128 0x12
 3538 0bda 16000000 		.4byte	.LVL148
 3539 0bde 7E080000 		.4byte	0x87e
 3540 0be2 EC0B0000 		.4byte	0xbec
 3541 0be6 13       		.uleb128 0x13
 3542 0be7 01       		.uleb128 0x1
 3543 0be8 50       		.byte	0x50
 3544 0be9 01       		.uleb128 0x1
 3545 0bea 30       		.byte	0x30
 3546 0beb 00       		.byte	0
 3547 0bec 11       		.uleb128 0x11
 3548 0bed 1A000000 		.4byte	.LVL149
 3549 0bf1 2D090000 		.4byte	0x92d
 3550 0bf5 11       		.uleb128 0x11
 3551 0bf6 20000000 		.4byte	.LVL151
 3552 0bfa 6C080000 		.4byte	0x86c
 3553 0bfe 00       		.byte	0
 3554 0bff 29       		.uleb128 0x29
 3555 0c00 42010000 		.4byte	0x142
 3556 0c04 0F0C0000 		.4byte	0xc0f
 3557 0c08 2A       		.uleb128 0x2a
 3558 0c09 1A010000 		.4byte	0x11a
 3559 0c0d 03       		.byte	0x3
 3560 0c0e 00       		.byte	0
 3561 0c0f 2B       		.uleb128 0x2b
 3562 0c10 3C070000 		.4byte	.LASF81
 3563 0c14 01       		.byte	0x1
 3564 0c15 3D       		.byte	0x3d
 3565 0c16 FF0B0000 		.4byte	0xbff
 3566 0c1a 05       		.uleb128 0x5
 3567 0c1b 03       		.byte	0x3
 3568 0c1c 02000000 		.4byte	ADC_DelSig_1_gcor
 3569 0c20 2C       		.uleb128 0x2c
 3570 0c21 0F020000 		.4byte	.LASF82
 3571 0c25 01       		.byte	0x1
 3572 0c26 2C       		.byte	0x2c
 3573 0c27 72000000 		.4byte	0x72
 3574 0c2b 05       		.uleb128 0x5
 3575 0c2c 03       		.byte	0x3
 3576 0c2d 00000000 		.4byte	ADC_DelSig_1_initVar
 3577 0c31 2C       		.uleb128 0x2c
 3578 0c32 08030000 		.4byte	.LASF83
 3579 0c36 01       		.byte	0x1
 3580 0c37 24       		.byte	0x24
 3581 0c38 E0000000 		.4byte	0xe0
 3582 0c3c 05       		.uleb128 0x5
 3583 0c3d 03       		.byte	0x3
 3584 0c3e 00000000 		.4byte	ADC_DelSig_1_convDone
 3585 0c42 2C       		.uleb128 0x2c
 3586 0c43 0A070000 		.4byte	.LASF84
 3587 0c47 01       		.byte	0x1
ARM GAS  C:\Users\IVYLIU~1\AppData\Local\Temp\cckaBvwB.s 			page 104


 3588 0c48 29       		.byte	0x29
 3589 0c49 E0000000 		.4byte	0xe0
 3590 0c4d 05       		.uleb128 0x5
 3591 0c4e 03       		.byte	0x3
 3592 0c4f 00000000 		.4byte	ADC_DelSig_1_stopConversion
 3593 0c53 2C       		.uleb128 0x2c
 3594 0c54 4D020000 		.4byte	.LASF85
 3595 0c58 01       		.byte	0x1
 3596 0c59 2F       		.byte	0x2f
 3597 0c5a E0000000 		.4byte	0xe0
 3598 0c5e 05       		.uleb128 0x5
 3599 0c5f 03       		.byte	0x3
 3600 0c60 00000000 		.4byte	ADC_DelSig_1_started
 3601 0c64 2C       		.uleb128 0x2c
 3602 0c65 52030000 		.4byte	.LASF86
 3603 0c69 01       		.byte	0x1
 3604 0c6a 32       		.byte	0x32
 3605 0c6b E0000000 		.4byte	0xe0
 3606 0c6f 05       		.uleb128 0x5
 3607 0c70 03       		.byte	0x3
 3608 0c71 00000000 		.4byte	ADC_DelSig_1_Config
 3609 0c75 2C       		.uleb128 0x2c
 3610 0c76 DE030000 		.4byte	.LASF87
 3611 0c7a 01       		.byte	0x1
 3612 0c7b 34       		.byte	0x34
 3613 0c7c 860C0000 		.4byte	0xc86
 3614 0c80 05       		.uleb128 0x5
 3615 0c81 03       		.byte	0x3
 3616 0c82 00000000 		.4byte	ADC_DelSig_1_Offset
 3617 0c86 05       		.uleb128 0x5
 3618 0c87 AE000000 		.4byte	0xae
 3619 0c8b 2C       		.uleb128 0x2c
 3620 0c8c 2E000000 		.4byte	.LASF88
 3621 0c90 01       		.byte	0x1
 3622 0c91 35       		.byte	0x35
 3623 0c92 860C0000 		.4byte	0xc86
 3624 0c96 05       		.uleb128 0x5
 3625 0c97 03       		.byte	0x3
 3626 0c98 00000000 		.4byte	ADC_DelSig_1_CountsPerVolt
 3627 0c9c 2D       		.uleb128 0x2d
 3628 0c9d 36020000 		.4byte	.LASF100
 3629 0ca1 04       		.byte	0x4
 3630 0ca2 7D       		.byte	0x7d
 3631 0ca3 72000000 		.4byte	0x72
 3632 0ca7 2E       		.uleb128 0x2e
 3633 0ca8 98010000 		.4byte	.LASF89
 3634 0cac 04       		.byte	0x4
 3635 0cad 77       		.byte	0x77
 3636 0cae B80C0000 		.4byte	0xcb8
 3637 0cb2 2F       		.uleb128 0x2f
 3638 0cb3 7E000000 		.4byte	0x7e
 3639 0cb7 00       		.byte	0
 3640 0cb8 2E       		.uleb128 0x2e
 3641 0cb9 C8030000 		.4byte	.LASF90
 3642 0cbd 04       		.byte	0x4
 3643 0cbe 7E       		.byte	0x7e
 3644 0cbf C90C0000 		.4byte	0xcc9
ARM GAS  C:\Users\IVYLIU~1\AppData\Local\Temp\cckaBvwB.s 			page 105


 3645 0cc3 2F       		.uleb128 0x2f
 3646 0cc4 72000000 		.4byte	0x72
 3647 0cc8 00       		.byte	0
 3648 0cc9 2E       		.uleb128 0x2e
 3649 0cca 6F060000 		.4byte	.LASF91
 3650 0cce 05       		.byte	0x5
 3651 0ccf 50       		.byte	0x50
 3652 0cd0 DA0C0000 		.4byte	0xcda
 3653 0cd4 2F       		.uleb128 0x2f
 3654 0cd5 72000000 		.4byte	0x72
 3655 0cd9 00       		.byte	0
 3656 0cda 2E       		.uleb128 0x2e
 3657 0cdb 84020000 		.4byte	.LASF92
 3658 0cdf 06       		.byte	0x6
 3659 0ce0 2F       		.byte	0x2f
 3660 0ce1 F00C0000 		.4byte	0xcf0
 3661 0ce5 2F       		.uleb128 0x2f
 3662 0ce6 7E000000 		.4byte	0x7e
 3663 0cea 2F       		.uleb128 0x2f
 3664 0ceb 72000000 		.4byte	0x72
 3665 0cef 00       		.byte	0
 3666 0cf0 2E       		.uleb128 0x2e
 3667 0cf1 49000000 		.4byte	.LASF93
 3668 0cf5 07       		.byte	0x7
 3669 0cf6 2F       		.byte	0x2f
 3670 0cf7 060D0000 		.4byte	0xd06
 3671 0cfb 2F       		.uleb128 0x2f
 3672 0cfc 7E000000 		.4byte	0x7e
 3673 0d00 2F       		.uleb128 0x2f
 3674 0d01 72000000 		.4byte	0x72
 3675 0d05 00       		.byte	0
 3676 0d06 30       		.uleb128 0x30
 3677 0d07 B6010000 		.4byte	.LASF101
 3678 0d0b 04       		.byte	0x4
 3679 0d0c 88       		.byte	0x88
 3680 0d0d 07010000 		.4byte	0x107
 3681 0d11 200D0000 		.4byte	0xd20
 3682 0d15 2F       		.uleb128 0x2f
 3683 0d16 72000000 		.4byte	0x72
 3684 0d1a 2F       		.uleb128 0x2f
 3685 0d1b 07010000 		.4byte	0x107
 3686 0d1f 00       		.byte	0
 3687 0d20 2E       		.uleb128 0x2e
 3688 0d21 81030000 		.4byte	.LASF94
 3689 0d25 06       		.byte	0x6
 3690 0d26 32       		.byte	0x32
 3691 0d27 310D0000 		.4byte	0xd31
 3692 0d2b 2F       		.uleb128 0x2f
 3693 0d2c 72000000 		.4byte	0x72
 3694 0d30 00       		.byte	0
 3695 0d31 2E       		.uleb128 0x2e
 3696 0d32 94050000 		.4byte	.LASF95
 3697 0d36 07       		.byte	0x7
 3698 0d37 32       		.byte	0x32
 3699 0d38 420D0000 		.4byte	0xd42
 3700 0d3c 2F       		.uleb128 0x2f
 3701 0d3d 72000000 		.4byte	0x72
ARM GAS  C:\Users\IVYLIU~1\AppData\Local\Temp\cckaBvwB.s 			page 106


 3702 0d41 00       		.byte	0
 3703 0d42 31       		.uleb128 0x31
 3704 0d43 70030000 		.4byte	.LASF102
 3705 0d47 04       		.byte	0x4
 3706 0d48 8B       		.byte	0x8b
 3707 0d49 2F       		.uleb128 0x2f
 3708 0d4a 72000000 		.4byte	0x72
 3709 0d4e 2F       		.uleb128 0x2f
 3710 0d4f 72000000 		.4byte	0x72
 3711 0d53 00       		.byte	0
 3712 0d54 00       		.byte	0
 3713              		.section	.debug_abbrev,"",%progbits
 3714              	.Ldebug_abbrev0:
 3715 0000 01       		.uleb128 0x1
 3716 0001 11       		.uleb128 0x11
 3717 0002 01       		.byte	0x1
 3718 0003 25       		.uleb128 0x25
 3719 0004 0E       		.uleb128 0xe
 3720 0005 13       		.uleb128 0x13
 3721 0006 0B       		.uleb128 0xb
 3722 0007 03       		.uleb128 0x3
 3723 0008 0E       		.uleb128 0xe
 3724 0009 1B       		.uleb128 0x1b
 3725 000a 0E       		.uleb128 0xe
 3726 000b 55       		.uleb128 0x55
 3727 000c 17       		.uleb128 0x17
 3728 000d 11       		.uleb128 0x11
 3729 000e 01       		.uleb128 0x1
 3730 000f 10       		.uleb128 0x10
 3731 0010 17       		.uleb128 0x17
 3732 0011 00       		.byte	0
 3733 0012 00       		.byte	0
 3734 0013 02       		.uleb128 0x2
 3735 0014 24       		.uleb128 0x24
 3736 0015 00       		.byte	0
 3737 0016 0B       		.uleb128 0xb
 3738 0017 0B       		.uleb128 0xb
 3739 0018 3E       		.uleb128 0x3e
 3740 0019 0B       		.uleb128 0xb
 3741 001a 03       		.uleb128 0x3
 3742 001b 0E       		.uleb128 0xe
 3743 001c 00       		.byte	0
 3744 001d 00       		.byte	0
 3745 001e 03       		.uleb128 0x3
 3746 001f 24       		.uleb128 0x24
 3747 0020 00       		.byte	0
 3748 0021 0B       		.uleb128 0xb
 3749 0022 0B       		.uleb128 0xb
 3750 0023 3E       		.uleb128 0x3e
 3751 0024 0B       		.uleb128 0xb
 3752 0025 03       		.uleb128 0x3
 3753 0026 08       		.uleb128 0x8
 3754 0027 00       		.byte	0
 3755 0028 00       		.byte	0
 3756 0029 04       		.uleb128 0x4
 3757 002a 16       		.uleb128 0x16
 3758 002b 00       		.byte	0
ARM GAS  C:\Users\IVYLIU~1\AppData\Local\Temp\cckaBvwB.s 			page 107


 3759 002c 03       		.uleb128 0x3
 3760 002d 0E       		.uleb128 0xe
 3761 002e 3A       		.uleb128 0x3a
 3762 002f 0B       		.uleb128 0xb
 3763 0030 3B       		.uleb128 0x3b
 3764 0031 05       		.uleb128 0x5
 3765 0032 49       		.uleb128 0x49
 3766 0033 13       		.uleb128 0x13
 3767 0034 00       		.byte	0
 3768 0035 00       		.byte	0
 3769 0036 05       		.uleb128 0x5
 3770 0037 35       		.uleb128 0x35
 3771 0038 00       		.byte	0
 3772 0039 49       		.uleb128 0x49
 3773 003a 13       		.uleb128 0x13
 3774 003b 00       		.byte	0
 3775 003c 00       		.byte	0
 3776 003d 06       		.uleb128 0x6
 3777 003e 0F       		.uleb128 0xf
 3778 003f 00       		.byte	0
 3779 0040 0B       		.uleb128 0xb
 3780 0041 0B       		.uleb128 0xb
 3781 0042 49       		.uleb128 0x49
 3782 0043 13       		.uleb128 0x13
 3783 0044 00       		.byte	0
 3784 0045 00       		.byte	0
 3785 0046 07       		.uleb128 0x7
 3786 0047 15       		.uleb128 0x15
 3787 0048 00       		.byte	0
 3788 0049 27       		.uleb128 0x27
 3789 004a 19       		.uleb128 0x19
 3790 004b 00       		.byte	0
 3791 004c 00       		.byte	0
 3792 004d 08       		.uleb128 0x8
 3793 004e 13       		.uleb128 0x13
 3794 004f 01       		.byte	0x1
 3795 0050 0B       		.uleb128 0xb
 3796 0051 0B       		.uleb128 0xb
 3797 0052 3A       		.uleb128 0x3a
 3798 0053 0B       		.uleb128 0xb
 3799 0054 3B       		.uleb128 0x3b
 3800 0055 0B       		.uleb128 0xb
 3801 0056 01       		.uleb128 0x1
 3802 0057 13       		.uleb128 0x13
 3803 0058 00       		.byte	0
 3804 0059 00       		.byte	0
 3805 005a 09       		.uleb128 0x9
 3806 005b 0D       		.uleb128 0xd
 3807 005c 00       		.byte	0
 3808 005d 03       		.uleb128 0x3
 3809 005e 0E       		.uleb128 0xe
 3810 005f 3A       		.uleb128 0x3a
 3811 0060 0B       		.uleb128 0xb
 3812 0061 3B       		.uleb128 0x3b
 3813 0062 0B       		.uleb128 0xb
 3814 0063 49       		.uleb128 0x49
 3815 0064 13       		.uleb128 0x13
ARM GAS  C:\Users\IVYLIU~1\AppData\Local\Temp\cckaBvwB.s 			page 108


 3816 0065 38       		.uleb128 0x38
 3817 0066 0B       		.uleb128 0xb
 3818 0067 00       		.byte	0
 3819 0068 00       		.byte	0
 3820 0069 0A       		.uleb128 0xa
 3821 006a 16       		.uleb128 0x16
 3822 006b 00       		.byte	0
 3823 006c 03       		.uleb128 0x3
 3824 006d 0E       		.uleb128 0xe
 3825 006e 3A       		.uleb128 0x3a
 3826 006f 0B       		.uleb128 0xb
 3827 0070 3B       		.uleb128 0x3b
 3828 0071 0B       		.uleb128 0xb
 3829 0072 49       		.uleb128 0x49
 3830 0073 13       		.uleb128 0x13
 3831 0074 00       		.byte	0
 3832 0075 00       		.byte	0
 3833 0076 0B       		.uleb128 0xb
 3834 0077 2E       		.uleb128 0x2e
 3835 0078 01       		.byte	0x1
 3836 0079 03       		.uleb128 0x3
 3837 007a 0E       		.uleb128 0xe
 3838 007b 3A       		.uleb128 0x3a
 3839 007c 0B       		.uleb128 0xb
 3840 007d 3B       		.uleb128 0x3b
 3841 007e 05       		.uleb128 0x5
 3842 007f 27       		.uleb128 0x27
 3843 0080 19       		.uleb128 0x19
 3844 0081 20       		.uleb128 0x20
 3845 0082 0B       		.uleb128 0xb
 3846 0083 01       		.uleb128 0x1
 3847 0084 13       		.uleb128 0x13
 3848 0085 00       		.byte	0
 3849 0086 00       		.byte	0
 3850 0087 0C       		.uleb128 0xc
 3851 0088 05       		.uleb128 0x5
 3852 0089 00       		.byte	0
 3853 008a 03       		.uleb128 0x3
 3854 008b 0E       		.uleb128 0xe
 3855 008c 3A       		.uleb128 0x3a
 3856 008d 0B       		.uleb128 0xb
 3857 008e 3B       		.uleb128 0x3b
 3858 008f 05       		.uleb128 0x5
 3859 0090 49       		.uleb128 0x49
 3860 0091 13       		.uleb128 0x13
 3861 0092 00       		.byte	0
 3862 0093 00       		.byte	0
 3863 0094 0D       		.uleb128 0xd
 3864 0095 34       		.uleb128 0x34
 3865 0096 00       		.byte	0
 3866 0097 03       		.uleb128 0x3
 3867 0098 0E       		.uleb128 0xe
 3868 0099 3A       		.uleb128 0x3a
 3869 009a 0B       		.uleb128 0xb
 3870 009b 3B       		.uleb128 0x3b
 3871 009c 05       		.uleb128 0x5
 3872 009d 49       		.uleb128 0x49
ARM GAS  C:\Users\IVYLIU~1\AppData\Local\Temp\cckaBvwB.s 			page 109


 3873 009e 13       		.uleb128 0x13
 3874 009f 00       		.byte	0
 3875 00a0 00       		.byte	0
 3876 00a1 0E       		.uleb128 0xe
 3877 00a2 2E       		.uleb128 0x2e
 3878 00a3 01       		.byte	0x1
 3879 00a4 03       		.uleb128 0x3
 3880 00a5 0E       		.uleb128 0xe
 3881 00a6 3A       		.uleb128 0x3a
 3882 00a7 0B       		.uleb128 0xb
 3883 00a8 3B       		.uleb128 0x3b
 3884 00a9 05       		.uleb128 0x5
 3885 00aa 27       		.uleb128 0x27
 3886 00ab 19       		.uleb128 0x19
 3887 00ac 11       		.uleb128 0x11
 3888 00ad 01       		.uleb128 0x1
 3889 00ae 12       		.uleb128 0x12
 3890 00af 06       		.uleb128 0x6
 3891 00b0 40       		.uleb128 0x40
 3892 00b1 18       		.uleb128 0x18
 3893 00b2 9742     		.uleb128 0x2117
 3894 00b4 19       		.uleb128 0x19
 3895 00b5 01       		.uleb128 0x1
 3896 00b6 13       		.uleb128 0x13
 3897 00b7 00       		.byte	0
 3898 00b8 00       		.byte	0
 3899 00b9 0F       		.uleb128 0xf
 3900 00ba 05       		.uleb128 0x5
 3901 00bb 00       		.byte	0
 3902 00bc 03       		.uleb128 0x3
 3903 00bd 0E       		.uleb128 0xe
 3904 00be 3A       		.uleb128 0x3a
 3905 00bf 0B       		.uleb128 0xb
 3906 00c0 3B       		.uleb128 0x3b
 3907 00c1 05       		.uleb128 0x5
 3908 00c2 49       		.uleb128 0x49
 3909 00c3 13       		.uleb128 0x13
 3910 00c4 02       		.uleb128 0x2
 3911 00c5 17       		.uleb128 0x17
 3912 00c6 00       		.byte	0
 3913 00c7 00       		.byte	0
 3914 00c8 10       		.uleb128 0x10
 3915 00c9 34       		.uleb128 0x34
 3916 00ca 00       		.byte	0
 3917 00cb 03       		.uleb128 0x3
 3918 00cc 0E       		.uleb128 0xe
 3919 00cd 3A       		.uleb128 0x3a
 3920 00ce 0B       		.uleb128 0xb
 3921 00cf 3B       		.uleb128 0x3b
 3922 00d0 05       		.uleb128 0x5
 3923 00d1 49       		.uleb128 0x49
 3924 00d2 13       		.uleb128 0x13
 3925 00d3 02       		.uleb128 0x2
 3926 00d4 17       		.uleb128 0x17
 3927 00d5 00       		.byte	0
 3928 00d6 00       		.byte	0
 3929 00d7 11       		.uleb128 0x11
ARM GAS  C:\Users\IVYLIU~1\AppData\Local\Temp\cckaBvwB.s 			page 110


 3930 00d8 898201   		.uleb128 0x4109
 3931 00db 00       		.byte	0
 3932 00dc 11       		.uleb128 0x11
 3933 00dd 01       		.uleb128 0x1
 3934 00de 31       		.uleb128 0x31
 3935 00df 13       		.uleb128 0x13
 3936 00e0 00       		.byte	0
 3937 00e1 00       		.byte	0
 3938 00e2 12       		.uleb128 0x12
 3939 00e3 898201   		.uleb128 0x4109
 3940 00e6 01       		.byte	0x1
 3941 00e7 11       		.uleb128 0x11
 3942 00e8 01       		.uleb128 0x1
 3943 00e9 31       		.uleb128 0x31
 3944 00ea 13       		.uleb128 0x13
 3945 00eb 01       		.uleb128 0x1
 3946 00ec 13       		.uleb128 0x13
 3947 00ed 00       		.byte	0
 3948 00ee 00       		.byte	0
 3949 00ef 13       		.uleb128 0x13
 3950 00f0 8A8201   		.uleb128 0x410a
 3951 00f3 00       		.byte	0
 3952 00f4 02       		.uleb128 0x2
 3953 00f5 18       		.uleb128 0x18
 3954 00f6 9142     		.uleb128 0x2111
 3955 00f8 18       		.uleb128 0x18
 3956 00f9 00       		.byte	0
 3957 00fa 00       		.byte	0
 3958 00fb 14       		.uleb128 0x14
 3959 00fc 898201   		.uleb128 0x4109
 3960 00ff 00       		.byte	0
 3961 0100 11       		.uleb128 0x11
 3962 0101 01       		.uleb128 0x1
 3963 0102 9542     		.uleb128 0x2115
 3964 0104 19       		.uleb128 0x19
 3965 0105 31       		.uleb128 0x31
 3966 0106 13       		.uleb128 0x13
 3967 0107 00       		.byte	0
 3968 0108 00       		.byte	0
 3969 0109 15       		.uleb128 0x15
 3970 010a 2E       		.uleb128 0x2e
 3971 010b 01       		.byte	0x1
 3972 010c 3F       		.uleb128 0x3f
 3973 010d 19       		.uleb128 0x19
 3974 010e 03       		.uleb128 0x3
 3975 010f 0E       		.uleb128 0xe
 3976 0110 3A       		.uleb128 0x3a
 3977 0111 0B       		.uleb128 0xb
 3978 0112 3B       		.uleb128 0x3b
 3979 0113 0B       		.uleb128 0xb
 3980 0114 27       		.uleb128 0x27
 3981 0115 19       		.uleb128 0x19
 3982 0116 11       		.uleb128 0x11
 3983 0117 01       		.uleb128 0x1
 3984 0118 12       		.uleb128 0x12
 3985 0119 06       		.uleb128 0x6
 3986 011a 40       		.uleb128 0x40
ARM GAS  C:\Users\IVYLIU~1\AppData\Local\Temp\cckaBvwB.s 			page 111


 3987 011b 18       		.uleb128 0x18
 3988 011c 9742     		.uleb128 0x2117
 3989 011e 19       		.uleb128 0x19
 3990 011f 01       		.uleb128 0x1
 3991 0120 13       		.uleb128 0x13
 3992 0121 00       		.byte	0
 3993 0122 00       		.byte	0
 3994 0123 16       		.uleb128 0x16
 3995 0124 1D       		.uleb128 0x1d
 3996 0125 01       		.byte	0x1
 3997 0126 31       		.uleb128 0x31
 3998 0127 13       		.uleb128 0x13
 3999 0128 52       		.uleb128 0x52
 4000 0129 01       		.uleb128 0x1
 4001 012a 55       		.uleb128 0x55
 4002 012b 17       		.uleb128 0x17
 4003 012c 58       		.uleb128 0x58
 4004 012d 0B       		.uleb128 0xb
 4005 012e 59       		.uleb128 0x59
 4006 012f 0B       		.uleb128 0xb
 4007 0130 01       		.uleb128 0x1
 4008 0131 13       		.uleb128 0x13
 4009 0132 00       		.byte	0
 4010 0133 00       		.byte	0
 4011 0134 17       		.uleb128 0x17
 4012 0135 05       		.uleb128 0x5
 4013 0136 00       		.byte	0
 4014 0137 31       		.uleb128 0x31
 4015 0138 13       		.uleb128 0x13
 4016 0139 1C       		.uleb128 0x1c
 4017 013a 0D       		.uleb128 0xd
 4018 013b 00       		.byte	0
 4019 013c 00       		.byte	0
 4020 013d 18       		.uleb128 0x18
 4021 013e 05       		.uleb128 0x5
 4022 013f 00       		.byte	0
 4023 0140 31       		.uleb128 0x31
 4024 0141 13       		.uleb128 0x13
 4025 0142 1C       		.uleb128 0x1c
 4026 0143 0B       		.uleb128 0xb
 4027 0144 00       		.byte	0
 4028 0145 00       		.byte	0
 4029 0146 19       		.uleb128 0x19
 4030 0147 0B       		.uleb128 0xb
 4031 0148 01       		.byte	0x1
 4032 0149 55       		.uleb128 0x55
 4033 014a 17       		.uleb128 0x17
 4034 014b 00       		.byte	0
 4035 014c 00       		.byte	0
 4036 014d 1A       		.uleb128 0x1a
 4037 014e 34       		.uleb128 0x34
 4038 014f 00       		.byte	0
 4039 0150 31       		.uleb128 0x31
 4040 0151 13       		.uleb128 0x13
 4041 0152 00       		.byte	0
 4042 0153 00       		.byte	0
 4043 0154 1B       		.uleb128 0x1b
ARM GAS  C:\Users\IVYLIU~1\AppData\Local\Temp\cckaBvwB.s 			page 112


 4044 0155 34       		.uleb128 0x34
 4045 0156 00       		.byte	0
 4046 0157 31       		.uleb128 0x31
 4047 0158 13       		.uleb128 0x13
 4048 0159 1C       		.uleb128 0x1c
 4049 015a 0B       		.uleb128 0xb
 4050 015b 00       		.byte	0
 4051 015c 00       		.byte	0
 4052 015d 1C       		.uleb128 0x1c
 4053 015e 34       		.uleb128 0x34
 4054 015f 00       		.byte	0
 4055 0160 31       		.uleb128 0x31
 4056 0161 13       		.uleb128 0x13
 4057 0162 1C       		.uleb128 0x1c
 4058 0163 05       		.uleb128 0x5
 4059 0164 00       		.byte	0
 4060 0165 00       		.byte	0
 4061 0166 1D       		.uleb128 0x1d
 4062 0167 34       		.uleb128 0x34
 4063 0168 00       		.byte	0
 4064 0169 31       		.uleb128 0x31
 4065 016a 13       		.uleb128 0x13
 4066 016b 1C       		.uleb128 0x1c
 4067 016c 0D       		.uleb128 0xd
 4068 016d 00       		.byte	0
 4069 016e 00       		.byte	0
 4070 016f 1E       		.uleb128 0x1e
 4071 0170 34       		.uleb128 0x34
 4072 0171 00       		.byte	0
 4073 0172 31       		.uleb128 0x31
 4074 0173 13       		.uleb128 0x13
 4075 0174 1C       		.uleb128 0x1c
 4076 0175 06       		.uleb128 0x6
 4077 0176 00       		.byte	0
 4078 0177 00       		.byte	0
 4079 0178 1F       		.uleb128 0x1f
 4080 0179 34       		.uleb128 0x34
 4081 017a 00       		.byte	0
 4082 017b 03       		.uleb128 0x3
 4083 017c 0E       		.uleb128 0xe
 4084 017d 3A       		.uleb128 0x3a
 4085 017e 0B       		.uleb128 0xb
 4086 017f 3B       		.uleb128 0x3b
 4087 0180 0B       		.uleb128 0xb
 4088 0181 49       		.uleb128 0x49
 4089 0182 13       		.uleb128 0x13
 4090 0183 00       		.byte	0
 4091 0184 00       		.byte	0
 4092 0185 20       		.uleb128 0x20
 4093 0186 34       		.uleb128 0x34
 4094 0187 00       		.byte	0
 4095 0188 03       		.uleb128 0x3
 4096 0189 0E       		.uleb128 0xe
 4097 018a 3A       		.uleb128 0x3a
 4098 018b 0B       		.uleb128 0xb
 4099 018c 3B       		.uleb128 0x3b
 4100 018d 0B       		.uleb128 0xb
ARM GAS  C:\Users\IVYLIU~1\AppData\Local\Temp\cckaBvwB.s 			page 113


 4101 018e 49       		.uleb128 0x49
 4102 018f 13       		.uleb128 0x13
 4103 0190 02       		.uleb128 0x2
 4104 0191 17       		.uleb128 0x17
 4105 0192 00       		.byte	0
 4106 0193 00       		.byte	0
 4107 0194 21       		.uleb128 0x21
 4108 0195 2E       		.uleb128 0x2e
 4109 0196 01       		.byte	0x1
 4110 0197 3F       		.uleb128 0x3f
 4111 0198 19       		.uleb128 0x19
 4112 0199 03       		.uleb128 0x3
 4113 019a 0E       		.uleb128 0xe
 4114 019b 3A       		.uleb128 0x3a
 4115 019c 0B       		.uleb128 0xb
 4116 019d 3B       		.uleb128 0x3b
 4117 019e 05       		.uleb128 0x5
 4118 019f 27       		.uleb128 0x27
 4119 01a0 19       		.uleb128 0x19
 4120 01a1 11       		.uleb128 0x11
 4121 01a2 01       		.uleb128 0x1
 4122 01a3 12       		.uleb128 0x12
 4123 01a4 06       		.uleb128 0x6
 4124 01a5 40       		.uleb128 0x40
 4125 01a6 18       		.uleb128 0x18
 4126 01a7 9742     		.uleb128 0x2117
 4127 01a9 19       		.uleb128 0x19
 4128 01aa 01       		.uleb128 0x1
 4129 01ab 13       		.uleb128 0x13
 4130 01ac 00       		.byte	0
 4131 01ad 00       		.byte	0
 4132 01ae 22       		.uleb128 0x22
 4133 01af 2E       		.uleb128 0x2e
 4134 01b0 01       		.byte	0x1
 4135 01b1 3F       		.uleb128 0x3f
 4136 01b2 19       		.uleb128 0x19
 4137 01b3 03       		.uleb128 0x3
 4138 01b4 0E       		.uleb128 0xe
 4139 01b5 3A       		.uleb128 0x3a
 4140 01b6 0B       		.uleb128 0xb
 4141 01b7 3B       		.uleb128 0x3b
 4142 01b8 05       		.uleb128 0x5
 4143 01b9 27       		.uleb128 0x27
 4144 01ba 19       		.uleb128 0x19
 4145 01bb 49       		.uleb128 0x49
 4146 01bc 13       		.uleb128 0x13
 4147 01bd 11       		.uleb128 0x11
 4148 01be 01       		.uleb128 0x1
 4149 01bf 12       		.uleb128 0x12
 4150 01c0 06       		.uleb128 0x6
 4151 01c1 40       		.uleb128 0x40
 4152 01c2 18       		.uleb128 0x18
 4153 01c3 9642     		.uleb128 0x2116
 4154 01c5 19       		.uleb128 0x19
 4155 01c6 01       		.uleb128 0x1
 4156 01c7 13       		.uleb128 0x13
 4157 01c8 00       		.byte	0
ARM GAS  C:\Users\IVYLIU~1\AppData\Local\Temp\cckaBvwB.s 			page 114


 4158 01c9 00       		.byte	0
 4159 01ca 23       		.uleb128 0x23
 4160 01cb 2E       		.uleb128 0x2e
 4161 01cc 01       		.byte	0x1
 4162 01cd 3F       		.uleb128 0x3f
 4163 01ce 19       		.uleb128 0x19
 4164 01cf 03       		.uleb128 0x3
 4165 01d0 0E       		.uleb128 0xe
 4166 01d1 3A       		.uleb128 0x3a
 4167 01d2 0B       		.uleb128 0xb
 4168 01d3 3B       		.uleb128 0x3b
 4169 01d4 05       		.uleb128 0x5
 4170 01d5 27       		.uleb128 0x27
 4171 01d6 19       		.uleb128 0x19
 4172 01d7 49       		.uleb128 0x49
 4173 01d8 13       		.uleb128 0x13
 4174 01d9 11       		.uleb128 0x11
 4175 01da 01       		.uleb128 0x1
 4176 01db 12       		.uleb128 0x12
 4177 01dc 06       		.uleb128 0x6
 4178 01dd 40       		.uleb128 0x40
 4179 01de 18       		.uleb128 0x18
 4180 01df 9742     		.uleb128 0x2117
 4181 01e1 19       		.uleb128 0x19
 4182 01e2 01       		.uleb128 0x1
 4183 01e3 13       		.uleb128 0x13
 4184 01e4 00       		.byte	0
 4185 01e5 00       		.byte	0
 4186 01e6 24       		.uleb128 0x24
 4187 01e7 2E       		.uleb128 0x2e
 4188 01e8 00       		.byte	0
 4189 01e9 3F       		.uleb128 0x3f
 4190 01ea 19       		.uleb128 0x19
 4191 01eb 03       		.uleb128 0x3
 4192 01ec 0E       		.uleb128 0xe
 4193 01ed 3A       		.uleb128 0x3a
 4194 01ee 0B       		.uleb128 0xb
 4195 01ef 3B       		.uleb128 0x3b
 4196 01f0 05       		.uleb128 0x5
 4197 01f1 27       		.uleb128 0x27
 4198 01f2 19       		.uleb128 0x19
 4199 01f3 11       		.uleb128 0x11
 4200 01f4 01       		.uleb128 0x1
 4201 01f5 12       		.uleb128 0x12
 4202 01f6 06       		.uleb128 0x6
 4203 01f7 40       		.uleb128 0x40
 4204 01f8 18       		.uleb128 0x18
 4205 01f9 9742     		.uleb128 0x2117
 4206 01fb 19       		.uleb128 0x19
 4207 01fc 00       		.byte	0
 4208 01fd 00       		.byte	0
 4209 01fe 25       		.uleb128 0x25
 4210 01ff 34       		.uleb128 0x34
 4211 0200 00       		.byte	0
 4212 0201 03       		.uleb128 0x3
 4213 0202 0E       		.uleb128 0xe
 4214 0203 3A       		.uleb128 0x3a
ARM GAS  C:\Users\IVYLIU~1\AppData\Local\Temp\cckaBvwB.s 			page 115


 4215 0204 0B       		.uleb128 0xb
 4216 0205 3B       		.uleb128 0x3b
 4217 0206 05       		.uleb128 0x5
 4218 0207 49       		.uleb128 0x49
 4219 0208 13       		.uleb128 0x13
 4220 0209 02       		.uleb128 0x2
 4221 020a 18       		.uleb128 0x18
 4222 020b 00       		.byte	0
 4223 020c 00       		.byte	0
 4224 020d 26       		.uleb128 0x26
 4225 020e 05       		.uleb128 0x5
 4226 020f 00       		.byte	0
 4227 0210 03       		.uleb128 0x3
 4228 0211 0E       		.uleb128 0xe
 4229 0212 3A       		.uleb128 0x3a
 4230 0213 0B       		.uleb128 0xb
 4231 0214 3B       		.uleb128 0x3b
 4232 0215 05       		.uleb128 0x5
 4233 0216 49       		.uleb128 0x49
 4234 0217 13       		.uleb128 0x13
 4235 0218 02       		.uleb128 0x2
 4236 0219 18       		.uleb128 0x18
 4237 021a 00       		.byte	0
 4238 021b 00       		.byte	0
 4239 021c 27       		.uleb128 0x27
 4240 021d 34       		.uleb128 0x34
 4241 021e 00       		.byte	0
 4242 021f 03       		.uleb128 0x3
 4243 0220 0E       		.uleb128 0xe
 4244 0221 3A       		.uleb128 0x3a
 4245 0222 0B       		.uleb128 0xb
 4246 0223 3B       		.uleb128 0x3b
 4247 0224 05       		.uleb128 0x5
 4248 0225 49       		.uleb128 0x49
 4249 0226 13       		.uleb128 0x13
 4250 0227 1C       		.uleb128 0x1c
 4251 0228 05       		.uleb128 0x5
 4252 0229 00       		.byte	0
 4253 022a 00       		.byte	0
 4254 022b 28       		.uleb128 0x28
 4255 022c 34       		.uleb128 0x34
 4256 022d 00       		.byte	0
 4257 022e 03       		.uleb128 0x3
 4258 022f 0E       		.uleb128 0xe
 4259 0230 3A       		.uleb128 0x3a
 4260 0231 0B       		.uleb128 0xb
 4261 0232 3B       		.uleb128 0x3b
 4262 0233 05       		.uleb128 0x5
 4263 0234 49       		.uleb128 0x49
 4264 0235 13       		.uleb128 0x13
 4265 0236 1C       		.uleb128 0x1c
 4266 0237 0B       		.uleb128 0xb
 4267 0238 00       		.byte	0
 4268 0239 00       		.byte	0
 4269 023a 29       		.uleb128 0x29
 4270 023b 01       		.uleb128 0x1
 4271 023c 01       		.byte	0x1
ARM GAS  C:\Users\IVYLIU~1\AppData\Local\Temp\cckaBvwB.s 			page 116


 4272 023d 49       		.uleb128 0x49
 4273 023e 13       		.uleb128 0x13
 4274 023f 01       		.uleb128 0x1
 4275 0240 13       		.uleb128 0x13
 4276 0241 00       		.byte	0
 4277 0242 00       		.byte	0
 4278 0243 2A       		.uleb128 0x2a
 4279 0244 21       		.uleb128 0x21
 4280 0245 00       		.byte	0
 4281 0246 49       		.uleb128 0x49
 4282 0247 13       		.uleb128 0x13
 4283 0248 2F       		.uleb128 0x2f
 4284 0249 0B       		.uleb128 0xb
 4285 024a 00       		.byte	0
 4286 024b 00       		.byte	0
 4287 024c 2B       		.uleb128 0x2b
 4288 024d 34       		.uleb128 0x34
 4289 024e 00       		.byte	0
 4290 024f 03       		.uleb128 0x3
 4291 0250 0E       		.uleb128 0xe
 4292 0251 3A       		.uleb128 0x3a
 4293 0252 0B       		.uleb128 0xb
 4294 0253 3B       		.uleb128 0x3b
 4295 0254 0B       		.uleb128 0xb
 4296 0255 49       		.uleb128 0x49
 4297 0256 13       		.uleb128 0x13
 4298 0257 02       		.uleb128 0x2
 4299 0258 18       		.uleb128 0x18
 4300 0259 00       		.byte	0
 4301 025a 00       		.byte	0
 4302 025b 2C       		.uleb128 0x2c
 4303 025c 34       		.uleb128 0x34
 4304 025d 00       		.byte	0
 4305 025e 03       		.uleb128 0x3
 4306 025f 0E       		.uleb128 0xe
 4307 0260 3A       		.uleb128 0x3a
 4308 0261 0B       		.uleb128 0xb
 4309 0262 3B       		.uleb128 0x3b
 4310 0263 0B       		.uleb128 0xb
 4311 0264 49       		.uleb128 0x49
 4312 0265 13       		.uleb128 0x13
 4313 0266 3F       		.uleb128 0x3f
 4314 0267 19       		.uleb128 0x19
 4315 0268 02       		.uleb128 0x2
 4316 0269 18       		.uleb128 0x18
 4317 026a 00       		.byte	0
 4318 026b 00       		.byte	0
 4319 026c 2D       		.uleb128 0x2d
 4320 026d 2E       		.uleb128 0x2e
 4321 026e 00       		.byte	0
 4322 026f 3F       		.uleb128 0x3f
 4323 0270 19       		.uleb128 0x19
 4324 0271 03       		.uleb128 0x3
 4325 0272 0E       		.uleb128 0xe
 4326 0273 3A       		.uleb128 0x3a
 4327 0274 0B       		.uleb128 0xb
 4328 0275 3B       		.uleb128 0x3b
ARM GAS  C:\Users\IVYLIU~1\AppData\Local\Temp\cckaBvwB.s 			page 117


 4329 0276 0B       		.uleb128 0xb
 4330 0277 27       		.uleb128 0x27
 4331 0278 19       		.uleb128 0x19
 4332 0279 49       		.uleb128 0x49
 4333 027a 13       		.uleb128 0x13
 4334 027b 3C       		.uleb128 0x3c
 4335 027c 19       		.uleb128 0x19
 4336 027d 00       		.byte	0
 4337 027e 00       		.byte	0
 4338 027f 2E       		.uleb128 0x2e
 4339 0280 2E       		.uleb128 0x2e
 4340 0281 01       		.byte	0x1
 4341 0282 3F       		.uleb128 0x3f
 4342 0283 19       		.uleb128 0x19
 4343 0284 03       		.uleb128 0x3
 4344 0285 0E       		.uleb128 0xe
 4345 0286 3A       		.uleb128 0x3a
 4346 0287 0B       		.uleb128 0xb
 4347 0288 3B       		.uleb128 0x3b
 4348 0289 0B       		.uleb128 0xb
 4349 028a 27       		.uleb128 0x27
 4350 028b 19       		.uleb128 0x19
 4351 028c 3C       		.uleb128 0x3c
 4352 028d 19       		.uleb128 0x19
 4353 028e 01       		.uleb128 0x1
 4354 028f 13       		.uleb128 0x13
 4355 0290 00       		.byte	0
 4356 0291 00       		.byte	0
 4357 0292 2F       		.uleb128 0x2f
 4358 0293 05       		.uleb128 0x5
 4359 0294 00       		.byte	0
 4360 0295 49       		.uleb128 0x49
 4361 0296 13       		.uleb128 0x13
 4362 0297 00       		.byte	0
 4363 0298 00       		.byte	0
 4364 0299 30       		.uleb128 0x30
 4365 029a 2E       		.uleb128 0x2e
 4366 029b 01       		.byte	0x1
 4367 029c 3F       		.uleb128 0x3f
 4368 029d 19       		.uleb128 0x19
 4369 029e 03       		.uleb128 0x3
 4370 029f 0E       		.uleb128 0xe
 4371 02a0 3A       		.uleb128 0x3a
 4372 02a1 0B       		.uleb128 0xb
 4373 02a2 3B       		.uleb128 0x3b
 4374 02a3 0B       		.uleb128 0xb
 4375 02a4 27       		.uleb128 0x27
 4376 02a5 19       		.uleb128 0x19
 4377 02a6 49       		.uleb128 0x49
 4378 02a7 13       		.uleb128 0x13
 4379 02a8 3C       		.uleb128 0x3c
 4380 02a9 19       		.uleb128 0x19
 4381 02aa 01       		.uleb128 0x1
 4382 02ab 13       		.uleb128 0x13
 4383 02ac 00       		.byte	0
 4384 02ad 00       		.byte	0
 4385 02ae 31       		.uleb128 0x31
ARM GAS  C:\Users\IVYLIU~1\AppData\Local\Temp\cckaBvwB.s 			page 118


 4386 02af 2E       		.uleb128 0x2e
 4387 02b0 01       		.byte	0x1
 4388 02b1 3F       		.uleb128 0x3f
 4389 02b2 19       		.uleb128 0x19
 4390 02b3 03       		.uleb128 0x3
 4391 02b4 0E       		.uleb128 0xe
 4392 02b5 3A       		.uleb128 0x3a
 4393 02b6 0B       		.uleb128 0xb
 4394 02b7 3B       		.uleb128 0x3b
 4395 02b8 0B       		.uleb128 0xb
 4396 02b9 27       		.uleb128 0x27
 4397 02ba 19       		.uleb128 0x19
 4398 02bb 3C       		.uleb128 0x3c
 4399 02bc 19       		.uleb128 0x19
 4400 02bd 00       		.byte	0
 4401 02be 00       		.byte	0
 4402 02bf 00       		.byte	0
 4403              		.section	.debug_loc,"",%progbits
 4404              	.Ldebug_loc0:
 4405              	.LLST0:
 4406 0000 00000000 		.4byte	.LVL0
 4407 0004 07000000 		.4byte	.LVL1-1
 4408 0008 0100     		.2byte	0x1
 4409 000a 50       		.byte	0x50
 4410 000b 07000000 		.4byte	.LVL1-1
 4411 000f 50000000 		.4byte	.LFE22
 4412 0013 0400     		.2byte	0x4
 4413 0015 F3       		.byte	0xf3
 4414 0016 01       		.uleb128 0x1
 4415 0017 50       		.byte	0x50
 4416 0018 9F       		.byte	0x9f
 4417 0019 00000000 		.4byte	0
 4418 001d 00000000 		.4byte	0
 4419              	.LLST1:
 4420 0021 0A000000 		.4byte	.LVL2
 4421 0025 3E000000 		.4byte	.LVL4
 4422 0029 0100     		.2byte	0x1
 4423 002b 56       		.byte	0x56
 4424 002c 00000000 		.4byte	0
 4425 0030 00000000 		.4byte	0
 4426              	.LLST2:
 4427 0034 00000000 		.4byte	.LVL6
 4428 0038 6E000000 		.4byte	.LVL7
 4429 003c 0100     		.2byte	0x1
 4430 003e 50       		.byte	0x50
 4431 003f 6E000000 		.4byte	.LVL7
 4432 0043 A8000000 		.4byte	.LVL12
 4433 0047 0400     		.2byte	0x4
 4434 0049 F3       		.byte	0xf3
 4435 004a 01       		.uleb128 0x1
 4436 004b 50       		.byte	0x50
 4437 004c 9F       		.byte	0x9f
 4438 004d A8000000 		.4byte	.LVL12
 4439 0051 0E010000 		.4byte	.LVL13
 4440 0055 0100     		.2byte	0x1
 4441 0057 50       		.byte	0x50
 4442 0058 0E010000 		.4byte	.LVL13
ARM GAS  C:\Users\IVYLIU~1\AppData\Local\Temp\cckaBvwB.s 			page 119


 4443 005c 46010000 		.4byte	.LVL18
 4444 0060 0400     		.2byte	0x4
 4445 0062 F3       		.byte	0xf3
 4446 0063 01       		.uleb128 0x1
 4447 0064 50       		.byte	0x50
 4448 0065 9F       		.byte	0x9f
 4449 0066 46010000 		.4byte	.LVL18
 4450 006a AC010000 		.4byte	.LVL19
 4451 006e 0100     		.2byte	0x1
 4452 0070 50       		.byte	0x50
 4453 0071 AC010000 		.4byte	.LVL19
 4454 0075 E6010000 		.4byte	.LVL24
 4455 0079 0400     		.2byte	0x4
 4456 007b F3       		.byte	0xf3
 4457 007c 01       		.uleb128 0x1
 4458 007d 50       		.byte	0x50
 4459 007e 9F       		.byte	0x9f
 4460 007f E6010000 		.4byte	.LVL24
 4461 0083 4A020000 		.4byte	.LVL25
 4462 0087 0100     		.2byte	0x1
 4463 0089 50       		.byte	0x50
 4464 008a 4A020000 		.4byte	.LVL25
 4465 008e 8A020000 		.4byte	.LVL30
 4466 0092 0400     		.2byte	0x4
 4467 0094 F3       		.byte	0xf3
 4468 0095 01       		.uleb128 0x1
 4469 0096 50       		.byte	0x50
 4470 0097 9F       		.byte	0x9f
 4471 0098 8A020000 		.4byte	.LVL30
 4472 009c AC020000 		.4byte	.LFE19
 4473 00a0 0100     		.2byte	0x1
 4474 00a2 50       		.byte	0x50
 4475 00a3 00000000 		.4byte	0
 4476 00a7 00000000 		.4byte	0
 4477              	.LLST3:
 4478 00ab 14000000 		.4byte	.LVL40
 4479 00af A8000000 		.4byte	.LVL42
 4480 00b3 0100     		.2byte	0x1
 4481 00b5 56       		.byte	0x56
 4482 00b6 00000000 		.4byte	0
 4483 00ba 00000000 		.4byte	0
 4484              	.LLST4:
 4485 00be 18000000 		.4byte	.LVL47
 4486 00c2 C6000000 		.4byte	.LVL49
 4487 00c6 0100     		.2byte	0x1
 4488 00c8 56       		.byte	0x56
 4489 00c9 00000000 		.4byte	0
 4490 00cd 00000000 		.4byte	0
 4491              	.LLST5:
 4492 00d1 00000000 		.4byte	.LVL51
 4493 00d5 04000000 		.4byte	.LVL52
 4494 00d9 0100     		.2byte	0x1
 4495 00db 50       		.byte	0x50
 4496 00dc 04000000 		.4byte	.LVL52
 4497 00e0 18000000 		.4byte	.LFE4
 4498 00e4 0400     		.2byte	0x4
 4499 00e6 F3       		.byte	0xf3
ARM GAS  C:\Users\IVYLIU~1\AppData\Local\Temp\cckaBvwB.s 			page 120


 4500 00e7 01       		.uleb128 0x1
 4501 00e8 50       		.byte	0x50
 4502 00e9 9F       		.byte	0x9f
 4503 00ea 00000000 		.4byte	0
 4504 00ee 00000000 		.4byte	0
 4505              	.LLST6:
 4506 00f2 0E000000 		.4byte	.LVL53
 4507 00f6 10000000 		.4byte	.LVL54
 4508 00fa 0100     		.2byte	0x1
 4509 00fc 53       		.byte	0x53
 4510 00fd 10000000 		.4byte	.LVL54
 4511 0101 18000000 		.4byte	.LFE4
 4512 0105 0100     		.2byte	0x1
 4513 0107 50       		.byte	0x50
 4514 0108 00000000 		.4byte	0
 4515 010c 00000000 		.4byte	0
 4516              	.LLST7:
 4517 0110 00000000 		.4byte	.LVL55
 4518 0114 06000000 		.4byte	.LVL56
 4519 0118 0100     		.2byte	0x1
 4520 011a 50       		.byte	0x50
 4521 011b 06000000 		.4byte	.LVL56
 4522 011f 18000000 		.4byte	.LFE5
 4523 0123 0400     		.2byte	0x4
 4524 0125 F3       		.byte	0xf3
 4525 0126 01       		.uleb128 0x1
 4526 0127 50       		.byte	0x50
 4527 0128 9F       		.byte	0x9f
 4528 0129 00000000 		.4byte	0
 4529 012d 00000000 		.4byte	0
 4530              	.LLST8:
 4531 0131 0C000000 		.4byte	.LVL57
 4532 0135 0E000000 		.4byte	.LVL58
 4533 0139 0100     		.2byte	0x1
 4534 013b 53       		.byte	0x53
 4535 013c 0E000000 		.4byte	.LVL58
 4536 0140 18000000 		.4byte	.LFE5
 4537 0144 0100     		.2byte	0x1
 4538 0146 50       		.byte	0x50
 4539 0147 00000000 		.4byte	0
 4540 014b 00000000 		.4byte	0
 4541              	.LLST9:
 4542 014f 00000000 		.4byte	.LVL59
 4543 0153 12000000 		.4byte	.LVL62
 4544 0157 0100     		.2byte	0x1
 4545 0159 50       		.byte	0x50
 4546 015a 12000000 		.4byte	.LVL62
 4547 015e 36000000 		.4byte	.LVL69
 4548 0162 0100     		.2byte	0x1
 4549 0164 54       		.byte	0x54
 4550 0165 36000000 		.4byte	.LVL69
 4551 0169 74000000 		.4byte	.LFE6
 4552 016d 0600     		.2byte	0x6
 4553 016f F3       		.byte	0xf3
 4554 0170 03       		.uleb128 0x3
 4555 0171 F5       		.byte	0xf5
 4556 0172 00       		.uleb128 0
ARM GAS  C:\Users\IVYLIU~1\AppData\Local\Temp\cckaBvwB.s 			page 121


 4557 0173 25       		.uleb128 0x25
 4558 0174 9F       		.byte	0x9f
 4559 0175 00000000 		.4byte	0
 4560 0179 00000000 		.4byte	0
 4561              	.LLST10:
 4562 017d 0A000000 		.4byte	.LVL60
 4563 0181 0E000000 		.4byte	.LVL61
 4564 0185 0A00     		.2byte	0xa
 4565 0187 73       		.byte	0x73
 4566 0188 7F       		.sleb128 -1
 4567 0189 32       		.byte	0x32
 4568 018a 24       		.byte	0x24
 4569 018b 03       		.byte	0x3
 4570 018c 02000000 		.4byte	ADC_DelSig_1_gcor
 4571 0190 22       		.byte	0x22
 4572 0191 4A000000 		.4byte	.LVL73
 4573 0195 58000000 		.4byte	.LVL75
 4574 0199 0100     		.2byte	0x1
 4575 019b 50       		.byte	0x50
 4576 019c 58000000 		.4byte	.LVL75
 4577 01a0 5A000000 		.4byte	.LVL76
 4578 01a4 0200     		.2byte	0x2
 4579 01a6 75       		.byte	0x75
 4580 01a7 7E       		.sleb128 -2
 4581 01a8 00000000 		.4byte	0
 4582 01ac 00000000 		.4byte	0
 4583              	.LLST11:
 4584 01b0 56000000 		.4byte	.LVL74
 4585 01b4 5A000000 		.4byte	.LVL76
 4586 01b8 0200     		.2byte	0x2
 4587 01ba 30       		.byte	0x30
 4588 01bb 9F       		.byte	0x9f
 4589 01bc 5C000000 		.4byte	.LVL77
 4590 01c0 74000000 		.4byte	.LFE6
 4591 01c4 0100     		.2byte	0x1
 4592 01c6 50       		.byte	0x50
 4593 01c7 00000000 		.4byte	0
 4594 01cb 00000000 		.4byte	0
 4595              	.LLST12:
 4596 01cf 1E000000 		.4byte	.LVL64
 4597 01d3 23000000 		.4byte	.LVL65-1
 4598 01d7 0100     		.2byte	0x1
 4599 01d9 50       		.byte	0x50
 4600 01da 26000000 		.4byte	.LVL66
 4601 01de 29000000 		.4byte	.LVL67-1
 4602 01e2 0100     		.2byte	0x1
 4603 01e4 50       		.byte	0x50
 4604 01e5 29000000 		.4byte	.LVL67-1
 4605 01e9 38000000 		.4byte	.LVL70
 4606 01ed 0100     		.2byte	0x1
 4607 01ef 57       		.byte	0x57
 4608 01f0 38000000 		.4byte	.LVL70
 4609 01f4 5A000000 		.4byte	.LVL76
 4610 01f8 0C00     		.2byte	0xc
 4611 01fa F5       		.byte	0xf5
 4612 01fb 07       		.uleb128 0x7
 4613 01fc 25       		.uleb128 0x25
ARM GAS  C:\Users\IVYLIU~1\AppData\Local\Temp\cckaBvwB.s 			page 122


 4614 01fd F4       		.byte	0xf4
 4615 01fe 25       		.uleb128 0x25
 4616 01ff 04       		.byte	0x4
 4617 0200 00000047 		.4byte	0x47000000
 4618 0204 1E       		.byte	0x1e
 4619 0205 9F       		.byte	0x9f
 4620 0206 5A000000 		.4byte	.LVL76
 4621 020a 5E000000 		.4byte	.LVL78
 4622 020e 0100     		.2byte	0x1
 4623 0210 57       		.byte	0x57
 4624 0211 00000000 		.4byte	0
 4625 0215 00000000 		.4byte	0
 4626              	.LLST13:
 4627 0219 0A000000 		.4byte	.LVL79
 4628 021d 14000000 		.4byte	.LVL81
 4629 0221 0100     		.2byte	0x1
 4630 0223 53       		.byte	0x53
 4631 0224 00000000 		.4byte	0
 4632 0228 00000000 		.4byte	0
 4633              	.LLST14:
 4634 022c 0E000000 		.4byte	.LVL80
 4635 0230 16000000 		.4byte	.LVL82
 4636 0234 0100     		.2byte	0x1
 4637 0236 50       		.byte	0x50
 4638 0237 18000000 		.4byte	.LVL83
 4639 023b 24000000 		.4byte	.LFE7
 4640 023f 0100     		.2byte	0x1
 4641 0241 50       		.byte	0x50
 4642 0242 00000000 		.4byte	0
 4643 0246 00000000 		.4byte	0
 4644              	.LLST15:
 4645 024a 00000000 		.4byte	.LVL84
 4646 024e 1E000000 		.4byte	.LVL88
 4647 0252 0100     		.2byte	0x1
 4648 0254 50       		.byte	0x50
 4649 0255 1E000000 		.4byte	.LVL88
 4650 0259 28000000 		.4byte	.LFE10
 4651 025d 0400     		.2byte	0x4
 4652 025f F3       		.byte	0xf3
 4653 0260 01       		.uleb128 0x1
 4654 0261 50       		.byte	0x50
 4655 0262 9F       		.byte	0x9f
 4656 0263 00000000 		.4byte	0
 4657 0267 00000000 		.4byte	0
 4658              	.LLST16:
 4659 026b 0A000000 		.4byte	.LVL85
 4660 026f 0C000000 		.4byte	.LVL86
 4661 0273 0100     		.2byte	0x1
 4662 0275 53       		.byte	0x53
 4663 0276 14000000 		.4byte	.LVL87
 4664 027a 28000000 		.4byte	.LFE10
 4665 027e 0100     		.2byte	0x1
 4666 0280 53       		.byte	0x53
 4667 0281 00000000 		.4byte	0
 4668 0285 00000000 		.4byte	0
 4669              	.LLST17:
 4670 0289 0C000000 		.4byte	.LVL89
ARM GAS  C:\Users\IVYLIU~1\AppData\Local\Temp\cckaBvwB.s 			page 123


 4671 028d 12000000 		.4byte	.LVL90
 4672 0291 0100     		.2byte	0x1
 4673 0293 53       		.byte	0x53
 4674 0294 14000000 		.4byte	.LVL91
 4675 0298 1A000000 		.4byte	.LVL92
 4676 029c 0100     		.2byte	0x1
 4677 029e 53       		.byte	0x53
 4678 029f 00000000 		.4byte	0
 4679 02a3 00000000 		.4byte	0
 4680              	.LLST18:
 4681 02a7 12000000 		.4byte	.LVL94
 4682 02ab 14000000 		.4byte	.LVL95
 4683 02af 0100     		.2byte	0x1
 4684 02b1 50       		.byte	0x50
 4685 02b2 18000000 		.4byte	.LVL96
 4686 02b6 20000000 		.4byte	.LVL97
 4687 02ba 0100     		.2byte	0x1
 4688 02bc 53       		.byte	0x53
 4689 02bd 20000000 		.4byte	.LVL97
 4690 02c1 44000000 		.4byte	.LFE12
 4691 02c5 0100     		.2byte	0x1
 4692 02c7 50       		.byte	0x50
 4693 02c8 00000000 		.4byte	0
 4694 02cc 00000000 		.4byte	0
 4695              	.LLST19:
 4696 02d0 0A000000 		.4byte	.LVL93
 4697 02d4 2A000000 		.4byte	.LVL98
 4698 02d8 0100     		.2byte	0x1
 4699 02da 52       		.byte	0x52
 4700 02db 00000000 		.4byte	0
 4701 02df 00000000 		.4byte	0
 4702              	.LLST20:
 4703 02e3 12000000 		.4byte	.LVL100
 4704 02e7 18000000 		.4byte	.LVL101
 4705 02eb 0700     		.2byte	0x7
 4706 02ed 73       		.byte	0x73
 4707 02ee 00       		.sleb128 0
 4708 02ef 0A       		.byte	0xa
 4709 02f0 FFFF     		.2byte	0xffff
 4710 02f2 1A       		.byte	0x1a
 4711 02f3 9F       		.byte	0x9f
 4712 02f4 1E000000 		.4byte	.LVL102
 4713 02f8 20000000 		.4byte	.LVL103
 4714 02fc 0700     		.2byte	0x7
 4715 02fe 72       		.byte	0x72
 4716 02ff 00       		.sleb128 0
 4717 0300 0A       		.byte	0xa
 4718 0301 FFFF     		.2byte	0xffff
 4719 0303 1A       		.byte	0x1a
 4720 0304 9F       		.byte	0x9f
 4721 0305 20000000 		.4byte	.LVL103
 4722 0309 2C000000 		.4byte	.LVL104
 4723 030d 0C00     		.2byte	0xc
 4724 030f 72       		.byte	0x72
 4725 0310 00       		.sleb128 0
 4726 0311 0A       		.byte	0xa
 4727 0312 FFFF     		.2byte	0xffff
ARM GAS  C:\Users\IVYLIU~1\AppData\Local\Temp\cckaBvwB.s 			page 124


 4728 0314 1A       		.byte	0x1a
 4729 0315 40       		.byte	0x40
 4730 0316 24       		.byte	0x24
 4731 0317 73       		.byte	0x73
 4732 0318 00       		.sleb128 0
 4733 0319 21       		.byte	0x21
 4734 031a 9F       		.byte	0x9f
 4735 031b 2C000000 		.4byte	.LVL104
 4736 031f 2E000000 		.4byte	.LVL105
 4737 0323 0100     		.2byte	0x1
 4738 0325 50       		.byte	0x50
 4739 0326 38000000 		.4byte	.LVL108
 4740 032a 58000000 		.4byte	.LFE13
 4741 032e 0100     		.2byte	0x1
 4742 0330 50       		.byte	0x50
 4743 0331 00000000 		.4byte	0
 4744 0335 00000000 		.4byte	0
 4745              	.LLST21:
 4746 0339 0C000000 		.4byte	.LVL99
 4747 033d 12000000 		.4byte	.LVL100
 4748 0341 0100     		.2byte	0x1
 4749 0343 53       		.byte	0x53
 4750 0344 18000000 		.4byte	.LVL101
 4751 0348 20000000 		.4byte	.LVL103
 4752 034c 0100     		.2byte	0x1
 4753 034e 53       		.byte	0x53
 4754 034f 2E000000 		.4byte	.LVL105
 4755 0353 32000000 		.4byte	.LVL106
 4756 0357 0100     		.2byte	0x1
 4757 0359 53       		.byte	0x53
 4758 035a 00000000 		.4byte	0
 4759 035e 00000000 		.4byte	0
 4760              	.LLST22:
 4761 0362 00000000 		.4byte	.LVL111
 4762 0366 06000000 		.4byte	.LVL112
 4763 036a 0100     		.2byte	0x1
 4764 036c 50       		.byte	0x50
 4765 036d 06000000 		.4byte	.LVL112
 4766 0371 0A000000 		.4byte	.LVL114
 4767 0375 0600     		.2byte	0x6
 4768 0377 70       		.byte	0x70
 4769 0378 00       		.sleb128 0
 4770 0379 73       		.byte	0x73
 4771 037a 00       		.sleb128 0
 4772 037b 1C       		.byte	0x1c
 4773 037c 9F       		.byte	0x9f
 4774 037d 0A000000 		.4byte	.LVL114
 4775 0381 10000000 		.4byte	.LVL116
 4776 0385 0100     		.2byte	0x1
 4777 0387 50       		.byte	0x50
 4778 0388 00000000 		.4byte	0
 4779 038c 00000000 		.4byte	0
 4780              	.LLST23:
 4781 0390 08000000 		.4byte	.LVL113
 4782 0394 0A000000 		.4byte	.LVL114
 4783 0398 0D00     		.2byte	0xd
 4784 039a 70       		.byte	0x70
ARM GAS  C:\Users\IVYLIU~1\AppData\Local\Temp\cckaBvwB.s 			page 125


 4785 039b 00       		.sleb128 0
 4786 039c 73       		.byte	0x73
 4787 039d 00       		.sleb128 0
 4788 039e 1C       		.byte	0x1c
 4789 039f 0A       		.byte	0xa
 4790 03a0 E803     		.2byte	0x3e8
 4791 03a2 1E       		.byte	0x1e
 4792 03a3 72       		.byte	0x72
 4793 03a4 00       		.sleb128 0
 4794 03a5 1B       		.byte	0x1b
 4795 03a6 9F       		.byte	0x9f
 4796 03a7 0A000000 		.4byte	.LVL114
 4797 03ab 0E000000 		.4byte	.LVL115
 4798 03af 0E00     		.2byte	0xe
 4799 03b1 F3       		.byte	0xf3
 4800 03b2 01       		.uleb128 0x1
 4801 03b3 50       		.byte	0x50
 4802 03b4 73       		.byte	0x73
 4803 03b5 00       		.sleb128 0
 4804 03b6 1C       		.byte	0x1c
 4805 03b7 0A       		.byte	0xa
 4806 03b8 E803     		.2byte	0x3e8
 4807 03ba 1E       		.byte	0x1e
 4808 03bb 72       		.byte	0x72
 4809 03bc 00       		.sleb128 0
 4810 03bd 1B       		.byte	0x1b
 4811 03be 9F       		.byte	0x9f
 4812 03bf 00000000 		.4byte	0
 4813 03c3 00000000 		.4byte	0
 4814              	.LLST24:
 4815 03c7 00000000 		.4byte	.LVL117
 4816 03cb 08000000 		.4byte	.LVL118
 4817 03cf 0100     		.2byte	0x1
 4818 03d1 50       		.byte	0x50
 4819 03d2 08000000 		.4byte	.LVL118
 4820 03d6 0C000000 		.4byte	.LVL120
 4821 03da 0600     		.2byte	0x6
 4822 03dc 70       		.byte	0x70
 4823 03dd 00       		.sleb128 0
 4824 03de 73       		.byte	0x73
 4825 03df 00       		.sleb128 0
 4826 03e0 1C       		.byte	0x1c
 4827 03e1 9F       		.byte	0x9f
 4828 03e2 0C000000 		.4byte	.LVL120
 4829 03e6 0F000000 		.4byte	.LVL121-1
 4830 03ea 0100     		.2byte	0x1
 4831 03ec 50       		.byte	0x50
 4832 03ed 00000000 		.4byte	0
 4833 03f1 00000000 		.4byte	0
 4834              	.LLST25:
 4835 03f5 0A000000 		.4byte	.LVL119
 4836 03f9 0C000000 		.4byte	.LVL120
 4837 03fd 1100     		.2byte	0x11
 4838 03ff 70       		.byte	0x70
 4839 0400 00       		.sleb128 0
 4840 0401 73       		.byte	0x73
 4841 0402 00       		.sleb128 0
ARM GAS  C:\Users\IVYLIU~1\AppData\Local\Temp\cckaBvwB.s 			page 126


 4842 0403 1C       		.byte	0x1c
 4843 0404 F7       		.byte	0xf7
 4844 0405 2C       		.uleb128 0x2c
 4845 0406 F7       		.byte	0xf7
 4846 0407 25       		.uleb128 0x25
 4847 0408 75       		.byte	0x75
 4848 0409 00       		.sleb128 0
 4849 040a F7       		.byte	0xf7
 4850 040b 2C       		.uleb128 0x2c
 4851 040c F7       		.byte	0xf7
 4852 040d 25       		.uleb128 0x25
 4853 040e 1B       		.byte	0x1b
 4854 040f 9F       		.byte	0x9f
 4855 0410 0C000000 		.4byte	.LVL120
 4856 0414 0F000000 		.4byte	.LVL121-1
 4857 0418 1200     		.2byte	0x12
 4858 041a F3       		.byte	0xf3
 4859 041b 01       		.uleb128 0x1
 4860 041c 50       		.byte	0x50
 4861 041d 73       		.byte	0x73
 4862 041e 00       		.sleb128 0
 4863 041f 1C       		.byte	0x1c
 4864 0420 F7       		.byte	0xf7
 4865 0421 2C       		.uleb128 0x2c
 4866 0422 F7       		.byte	0xf7
 4867 0423 25       		.uleb128 0x25
 4868 0424 75       		.byte	0x75
 4869 0425 00       		.sleb128 0
 4870 0426 F7       		.byte	0xf7
 4871 0427 2C       		.uleb128 0x2c
 4872 0428 F7       		.byte	0xf7
 4873 0429 25       		.uleb128 0x25
 4874 042a 1B       		.byte	0x1b
 4875 042b 9F       		.byte	0x9f
 4876 042c 00000000 		.4byte	0
 4877 0430 00000000 		.4byte	0
 4878              	.LLST26:
 4879 0434 00000000 		.4byte	.LVL124
 4880 0438 24000000 		.4byte	.LVL128
 4881 043c 0100     		.2byte	0x1
 4882 043e 50       		.byte	0x50
 4883 043f 24000000 		.4byte	.LVL128
 4884 0443 40000000 		.4byte	.LFE18
 4885 0447 0400     		.2byte	0x4
 4886 0449 F3       		.byte	0xf3
 4887 044a 01       		.uleb128 0x1
 4888 044b 50       		.byte	0x50
 4889 044c 9F       		.byte	0x9f
 4890 044d 00000000 		.4byte	0
 4891 0451 00000000 		.4byte	0
 4892              	.LLST27:
 4893 0455 1E000000 		.4byte	.LVL127
 4894 0459 24000000 		.4byte	.LVL128
 4895 045d 1400     		.2byte	0x14
 4896 045f 70       		.byte	0x70
 4897 0460 00       		.sleb128 0
 4898 0461 0A       		.byte	0xa
ARM GAS  C:\Users\IVYLIU~1\AppData\Local\Temp\cckaBvwB.s 			page 127


 4899 0462 127A     		.2byte	0x7a12
 4900 0464 1E       		.byte	0x1e
 4901 0465 72       		.byte	0x72
 4902 0466 00       		.sleb128 0
 4903 0467 1B       		.byte	0x1b
 4904 0468 71       		.byte	0x71
 4905 0469 00       		.sleb128 0
 4906 046a 0A       		.byte	0xa
 4907 046b 127A     		.2byte	0x7a12
 4908 046d 1E       		.byte	0x1e
 4909 046e 72       		.byte	0x72
 4910 046f 00       		.sleb128 0
 4911 0470 1B       		.byte	0x1b
 4912 0471 1C       		.byte	0x1c
 4913 0472 9F       		.byte	0x9f
 4914 0473 24000000 		.4byte	.LVL128
 4915 0477 30000000 		.4byte	.LVL129
 4916 047b 1500     		.2byte	0x15
 4917 047d F3       		.byte	0xf3
 4918 047e 01       		.uleb128 0x1
 4919 047f 50       		.byte	0x50
 4920 0480 0A       		.byte	0xa
 4921 0481 127A     		.2byte	0x7a12
 4922 0483 1E       		.byte	0x1e
 4923 0484 72       		.byte	0x72
 4924 0485 00       		.sleb128 0
 4925 0486 1B       		.byte	0x1b
 4926 0487 71       		.byte	0x71
 4927 0488 00       		.sleb128 0
 4928 0489 0A       		.byte	0xa
 4929 048a 127A     		.2byte	0x7a12
 4930 048c 1E       		.byte	0x1e
 4931 048d 72       		.byte	0x72
 4932 048e 00       		.sleb128 0
 4933 048f 1B       		.byte	0x1b
 4934 0490 1C       		.byte	0x1c
 4935 0491 9F       		.byte	0x9f
 4936 0492 30000000 		.4byte	.LVL129
 4937 0496 40000000 		.4byte	.LFE18
 4938 049a 0100     		.2byte	0x1
 4939 049c 50       		.byte	0x50
 4940 049d 00000000 		.4byte	0
 4941 04a1 00000000 		.4byte	0
 4942              	.LLST28:
 4943 04a5 10000000 		.4byte	.LVL125
 4944 04a9 1A000000 		.4byte	.LVL126
 4945 04ad 0300     		.2byte	0x3
 4946 04af 08       		.byte	0x8
 4947 04b0 20       		.byte	0x20
 4948 04b1 9F       		.byte	0x9f
 4949 04b2 1A000000 		.4byte	.LVL126
 4950 04b6 40000000 		.4byte	.LFE18
 4951 04ba 0100     		.2byte	0x1
 4952 04bc 52       		.byte	0x52
 4953 04bd 00000000 		.4byte	0
 4954 04c1 00000000 		.4byte	0
 4955              	.LLST29:
ARM GAS  C:\Users\IVYLIU~1\AppData\Local\Temp\cckaBvwB.s 			page 128


 4956 04c5 00000000 		.4byte	.LVL130
 4957 04c9 23000000 		.4byte	.LVL131-1
 4958 04cd 0100     		.2byte	0x1
 4959 04cf 50       		.byte	0x50
 4960 04d0 23000000 		.4byte	.LVL131-1
 4961 04d4 54000000 		.4byte	.LFE20
 4962 04d8 0400     		.2byte	0x4
 4963 04da F3       		.byte	0xf3
 4964 04db 01       		.uleb128 0x1
 4965 04dc 50       		.byte	0x50
 4966 04dd 9F       		.byte	0x9f
 4967 04de 00000000 		.4byte	0
 4968 04e2 00000000 		.4byte	0
 4969              	.LLST30:
 4970 04e6 00000000 		.4byte	.LVL130
 4971 04ea 23000000 		.4byte	.LVL131-1
 4972 04ee 0100     		.2byte	0x1
 4973 04f0 51       		.byte	0x51
 4974 04f1 23000000 		.4byte	.LVL131-1
 4975 04f5 54000000 		.4byte	.LFE20
 4976 04f9 0400     		.2byte	0x4
 4977 04fb F3       		.byte	0xf3
 4978 04fc 01       		.uleb128 0x1
 4979 04fd 51       		.byte	0x51
 4980 04fe 9F       		.byte	0x9f
 4981 04ff 00000000 		.4byte	0
 4982 0503 00000000 		.4byte	0
 4983              	.LLST31:
 4984 0507 1C000000 		.4byte	.LVL138
 4985 050b 24000000 		.4byte	.LVL140
 4986 050f 0100     		.2byte	0x1
 4987 0511 54       		.byte	0x54
 4988 0512 00000000 		.4byte	0
 4989 0516 00000000 		.4byte	0
 4990              	.LLST32:
 4991 051a 1C000000 		.4byte	.LVL144
 4992 051e 24000000 		.4byte	.LVL146
 4993 0522 0100     		.2byte	0x1
 4994 0524 54       		.byte	0x54
 4995 0525 00000000 		.4byte	0
 4996 0529 00000000 		.4byte	0
 4997              	.LLST33:
 4998 052d 1C000000 		.4byte	.LVL150
 4999 0531 1F000000 		.4byte	.LVL151-1
 5000 0535 0100     		.2byte	0x1
 5001 0537 50       		.byte	0x50
 5002 0538 1F000000 		.4byte	.LVL151-1
 5003 053c 24000000 		.4byte	.LVL152
 5004 0540 0100     		.2byte	0x1
 5005 0542 54       		.byte	0x54
 5006 0543 24000000 		.4byte	.LVL152
 5007 0547 28000000 		.4byte	.LFE25
 5008 054b 0100     		.2byte	0x1
 5009 054d 50       		.byte	0x50
 5010 054e 00000000 		.4byte	0
 5011 0552 00000000 		.4byte	0
 5012              		.section	.debug_aranges,"",%progbits
ARM GAS  C:\Users\IVYLIU~1\AppData\Local\Temp\cckaBvwB.s 			page 129


 5013 0000 DC000000 		.4byte	0xdc
 5014 0004 0200     		.2byte	0x2
 5015 0006 00000000 		.4byte	.Ldebug_info0
 5016 000a 04       		.byte	0x4
 5017 000b 00       		.byte	0
 5018 000c 0000     		.2byte	0
 5019 000e 0000     		.2byte	0
 5020 0010 00000000 		.4byte	.LFB22
 5021 0014 50000000 		.4byte	.LFE22-.LFB22
 5022 0018 00000000 		.4byte	.LFB19
 5023 001c AC020000 		.4byte	.LFE19-.LFB19
 5024 0020 00000000 		.4byte	.LFB0
 5025 0024 B8000000 		.4byte	.LFE0-.LFB0
 5026 0028 00000000 		.4byte	.LFB1
 5027 002c D0000000 		.4byte	.LFE1-.LFB1
 5028 0030 00000000 		.4byte	.LFB2
 5029 0034 20000000 		.4byte	.LFE2-.LFB2
 5030 0038 00000000 		.4byte	.LFB3
 5031 003c E0000000 		.4byte	.LFE3-.LFB3
 5032 0040 00000000 		.4byte	.LFB4
 5033 0044 18000000 		.4byte	.LFE4-.LFB4
 5034 0048 00000000 		.4byte	.LFB5
 5035 004c 18000000 		.4byte	.LFE5-.LFB5
 5036 0050 00000000 		.4byte	.LFB6
 5037 0054 74000000 		.4byte	.LFE6-.LFB6
 5038 0058 00000000 		.4byte	.LFB7
 5039 005c 24000000 		.4byte	.LFE7-.LFB7
 5040 0060 00000000 		.4byte	.LFB8
 5041 0064 10000000 		.4byte	.LFE8-.LFB8
 5042 0068 00000000 		.4byte	.LFB9
 5043 006c 10000000 		.4byte	.LFE9-.LFB9
 5044 0070 00000000 		.4byte	.LFB10
 5045 0074 28000000 		.4byte	.LFE10-.LFB10
 5046 0078 00000000 		.4byte	.LFB11
 5047 007c 40000000 		.4byte	.LFE11-.LFB11
 5048 0080 00000000 		.4byte	.LFB12
 5049 0084 44000000 		.4byte	.LFE12-.LFB12
 5050 0088 00000000 		.4byte	.LFB13
 5051 008c 58000000 		.4byte	.LFE13-.LFB13
 5052 0090 00000000 		.4byte	.LFB14
 5053 0094 0C000000 		.4byte	.LFE14-.LFB14
 5054 0098 00000000 		.4byte	.LFB15
 5055 009c 0C000000 		.4byte	.LFE15-.LFB15
 5056 00a0 00000000 		.4byte	.LFB16
 5057 00a4 20000000 		.4byte	.LFE16-.LFB16
 5058 00a8 00000000 		.4byte	.LFB17
 5059 00ac 2C000000 		.4byte	.LFE17-.LFB17
 5060 00b0 00000000 		.4byte	.LFB18
 5061 00b4 40000000 		.4byte	.LFE18-.LFB18
 5062 00b8 00000000 		.4byte	.LFB20
 5063 00bc 54000000 		.4byte	.LFE20-.LFB20
 5064 00c0 00000000 		.4byte	.LFB23
 5065 00c4 28000000 		.4byte	.LFE23-.LFB23
 5066 00c8 00000000 		.4byte	.LFB24
 5067 00cc 28000000 		.4byte	.LFE24-.LFB24
 5068 00d0 00000000 		.4byte	.LFB25
 5069 00d4 28000000 		.4byte	.LFE25-.LFB25
ARM GAS  C:\Users\IVYLIU~1\AppData\Local\Temp\cckaBvwB.s 			page 130


 5070 00d8 00000000 		.4byte	0
 5071 00dc 00000000 		.4byte	0
 5072              		.section	.debug_ranges,"",%progbits
 5073              	.Ldebug_ranges0:
 5074 0000 5E000000 		.4byte	.LBB18
 5075 0004 64000000 		.4byte	.LBE18
 5076 0008 68000000 		.4byte	.LBB35
 5077 000c 6C000000 		.4byte	.LBE35
 5078 0010 00000000 		.4byte	0
 5079 0014 00000000 		.4byte	0
 5080 0018 64000000 		.4byte	.LBB25
 5081 001c 68000000 		.4byte	.LBE25
 5082 0020 6C000000 		.4byte	.LBB36
 5083 0024 6E000000 		.4byte	.LBE36
 5084 0028 74000000 		.4byte	.LBB51
 5085 002c 76000000 		.4byte	.LBE51
 5086 0030 00000000 		.4byte	0
 5087 0034 00000000 		.4byte	0
 5088 0038 6E000000 		.4byte	.LBB37
 5089 003c 70000000 		.4byte	.LBE37
 5090 0040 76000000 		.4byte	.LBB52
 5091 0044 78000000 		.4byte	.LBE52
 5092 0048 00000000 		.4byte	0
 5093 004c 00000000 		.4byte	0
 5094 0050 70000000 		.4byte	.LBB44
 5095 0054 72000000 		.4byte	.LBE44
 5096 0058 78000000 		.4byte	.LBB53
 5097 005c 7A000000 		.4byte	.LBE53
 5098 0060 00000000 		.4byte	0
 5099 0064 00000000 		.4byte	0
 5100 0068 00000000 		.4byte	.LFB22
 5101 006c 50000000 		.4byte	.LFE22
 5102 0070 00000000 		.4byte	.LFB19
 5103 0074 AC020000 		.4byte	.LFE19
 5104 0078 00000000 		.4byte	.LFB0
 5105 007c B8000000 		.4byte	.LFE0
 5106 0080 00000000 		.4byte	.LFB1
 5107 0084 D0000000 		.4byte	.LFE1
 5108 0088 00000000 		.4byte	.LFB2
 5109 008c 20000000 		.4byte	.LFE2
 5110 0090 00000000 		.4byte	.LFB3
 5111 0094 E0000000 		.4byte	.LFE3
 5112 0098 00000000 		.4byte	.LFB4
 5113 009c 18000000 		.4byte	.LFE4
 5114 00a0 00000000 		.4byte	.LFB5
 5115 00a4 18000000 		.4byte	.LFE5
 5116 00a8 00000000 		.4byte	.LFB6
 5117 00ac 74000000 		.4byte	.LFE6
 5118 00b0 00000000 		.4byte	.LFB7
 5119 00b4 24000000 		.4byte	.LFE7
 5120 00b8 00000000 		.4byte	.LFB8
 5121 00bc 10000000 		.4byte	.LFE8
 5122 00c0 00000000 		.4byte	.LFB9
 5123 00c4 10000000 		.4byte	.LFE9
 5124 00c8 00000000 		.4byte	.LFB10
 5125 00cc 28000000 		.4byte	.LFE10
 5126 00d0 00000000 		.4byte	.LFB11
ARM GAS  C:\Users\IVYLIU~1\AppData\Local\Temp\cckaBvwB.s 			page 131


 5127 00d4 40000000 		.4byte	.LFE11
 5128 00d8 00000000 		.4byte	.LFB12
 5129 00dc 44000000 		.4byte	.LFE12
 5130 00e0 00000000 		.4byte	.LFB13
 5131 00e4 58000000 		.4byte	.LFE13
 5132 00e8 00000000 		.4byte	.LFB14
 5133 00ec 0C000000 		.4byte	.LFE14
 5134 00f0 00000000 		.4byte	.LFB15
 5135 00f4 0C000000 		.4byte	.LFE15
 5136 00f8 00000000 		.4byte	.LFB16
 5137 00fc 20000000 		.4byte	.LFE16
 5138 0100 00000000 		.4byte	.LFB17
 5139 0104 2C000000 		.4byte	.LFE17
 5140 0108 00000000 		.4byte	.LFB18
 5141 010c 40000000 		.4byte	.LFE18
 5142 0110 00000000 		.4byte	.LFB20
 5143 0114 54000000 		.4byte	.LFE20
 5144 0118 00000000 		.4byte	.LFB23
 5145 011c 28000000 		.4byte	.LFE23
 5146 0120 00000000 		.4byte	.LFB24
 5147 0124 28000000 		.4byte	.LFE24
 5148 0128 00000000 		.4byte	.LFB25
 5149 012c 28000000 		.4byte	.LFE25
 5150 0130 00000000 		.4byte	0
 5151 0134 00000000 		.4byte	0
 5152              		.section	.debug_line,"",%progbits
 5153              	.Ldebug_line0:
 5154 0000 7A040000 		.section	.debug_str,"MS",%progbits,1
 5154      0200B600 
 5154      00000201 
 5154      FB0E0D00 
 5154      01010101 
 5155              	.LASF11:
 5156 0000 75696E74 		.ascii	"uint16\000"
 5156      313600
 5157              	.LASF66:
 5158 0007 61646347 		.ascii	"adcGain\000"
 5158      61696E00 
 5159              	.LASF40:
 5160 000f 4144435F 		.ascii	"ADC_DelSig_1_Enable\000"
 5160      44656C53 
 5160      69675F31 
 5160      5F456E61 
 5160      626C6500 
 5161              	.LASF27:
 5162 0023 696E7075 		.ascii	"inputRange\000"
 5162      7452616E 
 5162      676500
 5163              	.LASF88:
 5164 002e 4144435F 		.ascii	"ADC_DelSig_1_CountsPerVolt\000"
 5164      44656C53 
 5164      69675F31 
 5164      5F436F75 
 5164      6E747350 
 5165              	.LASF93:
 5166 0049 4144435F 		.ascii	"ADC_DelSig_1_theACLK_SetDividerRegister\000"
 5166      44656C53 
ARM GAS  C:\Users\IVYLIU~1\AppData\Local\Temp\cckaBvwB.s 			page 132


 5166      69675F31 
 5166      5F746865 
 5166      41434C4B 
 5167              	.LASF76:
 5168 0071 4144435F 		.ascii	"ADC_DelSig_1_SelectConfiguration\000"
 5168      44656C53 
 5168      69675F31 
 5168      5F53656C 
 5168      65637443 
 5169              	.LASF24:
 5170 0092 67636F72 		.ascii	"gcor\000"
 5170      00
 5171              	.LASF98:
 5172 0097 5C5C766D 		.ascii	"\\\\vmware-host\\Shared Folders\\Documents\\PSoC Cr"
 5172      77617265 
 5172      2D686F73 
 5172      745C5368 
 5172      61726564 
 5173 00c5 6561746F 		.ascii	"eator\\FinalProject\\FinalV2.cydsn\000"
 5173      725C4669 
 5173      6E616C50 
 5173      726F6A65 
 5173      63745C46 
 5174              	.LASF8:
 5175 00e6 6C6F6E67 		.ascii	"long long unsigned int\000"
 5175      206C6F6E 
 5175      6720756E 
 5175      7369676E 
 5175      65642069 
 5176              	.LASF43:
 5177 00fd 4144435F 		.ascii	"ADC_DelSig_1_Stop\000"
 5177      44656C53 
 5177      69675F31 
 5177      5F53746F 
 5177      7000
 5178              	.LASF29:
 5179 010f 69646561 		.ascii	"idealOddDecGain\000"
 5179      6C4F6464 
 5179      44656347 
 5179      61696E00 
 5180              	.LASF37:
 5181 011f 4144435F 		.ascii	"ADC_DelSig_1_InitConfig\000"
 5181      44656C53 
 5181      69675F31 
 5181      5F496E69 
 5181      74436F6E 
 5182              	.LASF59:
 5183 0137 4144435F 		.ascii	"ADC_DelSig_1_GetResult8\000"
 5183      44656C53 
 5183      69675F31 
 5183      5F476574 
 5183      52657375 
 5184              	.LASF7:
 5185 014f 6C6F6E67 		.ascii	"long long int\000"
 5185      206C6F6E 
 5185      6720696E 
 5185      7400
ARM GAS  C:\Users\IVYLIU~1\AppData\Local\Temp\cckaBvwB.s 			page 133


 5186              	.LASF1:
 5187 015d 7369676E 		.ascii	"signed char\000"
 5187      65642063 
 5187      68617200 
 5188              	.LASF15:
 5189 0169 696E7433 		.ascii	"int32\000"
 5189      3200
 5190              	.LASF80:
 5191 016f 4144435F 		.ascii	"ADC_DelSig_1_Read32\000"
 5191      44656C53 
 5191      69675F31 
 5191      5F526561 
 5191      64333200 
 5192              	.LASF5:
 5193 0183 6C6F6E67 		.ascii	"long int\000"
 5193      20696E74 
 5193      00
 5194              	.LASF20:
 5195 018c 72656731 		.ascii	"reg16\000"
 5195      3600
 5196              	.LASF10:
 5197 0192 75696E74 		.ascii	"uint8\000"
 5197      3800
 5198              	.LASF89:
 5199 0198 43794465 		.ascii	"CyDelayUs\000"
 5199      6C617955 
 5199      7300
 5200              	.LASF17:
 5201 01a2 646F7562 		.ascii	"double\000"
 5201      6C6500
 5202              	.LASF71:
 5203 01a9 566F6C74 		.ascii	"Volts\000"
 5203      7300
 5204              	.LASF12:
 5205 01af 75696E74 		.ascii	"uint32\000"
 5205      333200
 5206              	.LASF101:
 5207 01b6 4379496E 		.ascii	"CyIntSetVector\000"
 5207      74536574 
 5207      56656374 
 5207      6F7200
 5208              	.LASF38:
 5209 01c5 76616C75 		.ascii	"value\000"
 5209      6500
 5210              	.LASF58:
 5211 01cb 7265744D 		.ascii	"retMode\000"
 5211      6F646500 
 5212              	.LASF97:
 5213 01d3 2E5C4765 		.ascii	".\\Generated_Source\\PSoC5\\ADC_DelSig_1.c\000"
 5213      6E657261 
 5213      7465645F 
 5213      536F7572 
 5213      63655C50 
 5214              	.LASF9:
 5215 01fb 756E7369 		.ascii	"unsigned int\000"
 5215      676E6564 
 5215      20696E74 
ARM GAS  C:\Users\IVYLIU~1\AppData\Local\Temp\cckaBvwB.s 			page 134


 5215      00
 5216              	.LASF73:
 5217 0208 75566F6C 		.ascii	"uVolts\000"
 5217      747300
 5218              	.LASF82:
 5219 020f 4144435F 		.ascii	"ADC_DelSig_1_initVar\000"
 5219      44656C53 
 5219      69675F31 
 5219      5F696E69 
 5219      74566172 
 5220              	.LASF6:
 5221 0224 6C6F6E67 		.ascii	"long unsigned int\000"
 5221      20756E73 
 5221      69676E65 
 5221      6420696E 
 5221      7400
 5222              	.LASF100:
 5223 0236 4379456E 		.ascii	"CyEnterCriticalSection\000"
 5223      74657243 
 5223      72697469 
 5223      63616C53 
 5223      65637469 
 5224              	.LASF85:
 5225 024d 4144435F 		.ascii	"ADC_DelSig_1_started\000"
 5225      44656C53 
 5225      69675F31 
 5225      5F737461 
 5225      72746564 
 5226              	.LASF4:
 5227 0262 73686F72 		.ascii	"short unsigned int\000"
 5227      7420756E 
 5227      7369676E 
 5227      65642069 
 5227      6E7400
 5228              	.LASF13:
 5229 0275 696E7438 		.ascii	"int8\000"
 5229      00
 5230              	.LASF34:
 5231 027a 67636F72 		.ascii	"gcorValue\000"
 5231      56616C75 
 5231      6500
 5232              	.LASF92:
 5233 0284 4144435F 		.ascii	"ADC_DelSig_1_Ext_CP_Clk_SetDividerRegister\000"
 5233      44656C53 
 5233      69675F31 
 5233      5F457874 
 5233      5F43505F 
 5234              	.LASF69:
 5235 02af 6D566F6C 		.ascii	"mVolts\000"
 5235      747300
 5236              	.LASF32:
 5237 02b6 666C6173 		.ascii	"flash\000"
 5237      6800
 5238              	.LASF21:
 5239 02bc 72656733 		.ascii	"reg32\000"
 5239      3200
 5240              	.LASF70:
ARM GAS  C:\Users\IVYLIU~1\AppData\Local\Temp\cckaBvwB.s 			page 135


 5241 02c2 4144435F 		.ascii	"ADC_DelSig_1_CountsTo_Volts\000"
 5241      44656C53 
 5241      69675F31 
 5241      5F436F75 
 5241      6E747354 
 5242              	.LASF16:
 5243 02de 666C6F61 		.ascii	"float32\000"
 5243      74333200 
 5244              	.LASF61:
 5245 02e6 4144435F 		.ascii	"ADC_DelSig_1_GetResult16\000"
 5245      44656C53 
 5245      69675F31 
 5245      5F476574 
 5245      52657375 
 5246              	.LASF23:
 5247 02ff 73697A65 		.ascii	"sizetype\000"
 5247      74797065 
 5247      00
 5248              	.LASF83:
 5249 0308 4144435F 		.ascii	"ADC_DelSig_1_convDone\000"
 5249      44656C53 
 5249      69675F31 
 5249      5F636F6E 
 5249      76446F6E 
 5250              	.LASF39:
 5251 031e 4144435F 		.ascii	"ADC_DelSig_1_Init\000"
 5251      44656C53 
 5251      69675F31 
 5251      5F496E69 
 5251      7400
 5252              	.LASF72:
 5253 0330 4144435F 		.ascii	"ADC_DelSig_1_CountsTo_uVolts\000"
 5253      44656C53 
 5253      69675F31 
 5253      5F436F75 
 5253      6E747354 
 5254              	.LASF45:
 5255 034d 6761696E 		.ascii	"gain\000"
 5255      00
 5256              	.LASF86:
 5257 0352 4144435F 		.ascii	"ADC_DelSig_1_Config\000"
 5257      44656C53 
 5257      69675F31 
 5257      5F436F6E 
 5257      66696700 
 5258              	.LASF48:
 5259 0366 636F6865 		.ascii	"coherency\000"
 5259      72656E63 
 5259      7900
 5260              	.LASF102:
 5261 0370 4379496E 		.ascii	"CyIntSetPriority\000"
 5261      74536574 
 5261      5072696F 
 5261      72697479 
 5261      00
 5262              	.LASF94:
 5263 0381 4144435F 		.ascii	"ADC_DelSig_1_Ext_CP_Clk_SetModeRegister\000"
ARM GAS  C:\Users\IVYLIU~1\AppData\Local\Temp\cckaBvwB.s 			page 136


 5263      44656C53 
 5263      69675F31 
 5263      5F457874 
 5263      5F43505F 
 5264              	.LASF26:
 5265 03a9 4144435F 		.ascii	"ADC_DelSig_1_GCOR_STRUCT\000"
 5265      44656C53 
 5265      69675F31 
 5265      5F47434F 
 5265      525F5354 
 5266              	.LASF0:
 5267 03c2 666C6F61 		.ascii	"float\000"
 5267      7400
 5268              	.LASF90:
 5269 03c8 43794578 		.ascii	"CyExitCriticalSection\000"
 5269      69744372 
 5269      69746963 
 5269      616C5365 
 5269      6374696F 
 5270              	.LASF87:
 5271 03de 4144435F 		.ascii	"ADC_DelSig_1_Offset\000"
 5271      44656C53 
 5271      69675F31 
 5271      5F4F6666 
 5271      73657400 
 5272              	.LASF19:
 5273 03f2 72656738 		.ascii	"reg8\000"
 5273      00
 5274              	.LASF28:
 5275 03f7 69646561 		.ascii	"idealDecGain\000"
 5275      6C446563 
 5275      4761696E 
 5275      00
 5276              	.LASF33:
 5277 0404 6E6F726D 		.ascii	"normalised\000"
 5277      616C6973 
 5277      656400
 5278              	.LASF96:
 5279 040f 474E5520 		.ascii	"GNU C 4.9.3 20150303 (release) [ARM/embedded-4_9-br"
 5279      4320342E 
 5279      392E3320 
 5279      32303135 
 5279      30333033 
 5280 0442 616E6368 		.ascii	"anch revision 221220] -mcpu=cortex-m3 -mthumb -g -O"
 5280      20726576 
 5280      6973696F 
 5280      6E203232 
 5280      31323230 
 5281 0475 73202D73 		.ascii	"s -std=gnu99 -ffunction-sections -ffat-lto-objects\000"
 5281      74643D67 
 5281      6E753939 
 5281      202D6666 
 5281      756E6374 
 5282              	.LASF2:
 5283 04a8 756E7369 		.ascii	"unsigned char\000"
 5283      676E6564 
 5283      20636861 
ARM GAS  C:\Users\IVYLIU~1\AppData\Local\Temp\cckaBvwB.s 			page 137


 5283      7200
 5284              	.LASF63:
 5285 04b6 4144435F 		.ascii	"ADC_DelSig_1_SetOffset\000"
 5285      44656C53 
 5285      69675F31 
 5285      5F536574 
 5285      4F666673 
 5286              	.LASF3:
 5287 04cd 73686F72 		.ascii	"short int\000"
 5287      7420696E 
 5287      7400
 5288              	.LASF35:
 5289 04d7 67636F72 		.ascii	"gcorTmp\000"
 5289      546D7000 
 5290              	.LASF55:
 5291 04df 4144435F 		.ascii	"ADC_DelSig_1_StartConvert\000"
 5291      44656C53 
 5291      69675F31 
 5291      5F537461 
 5291      7274436F 
 5292              	.LASF30:
 5293 04f9 7265736F 		.ascii	"resolution\000"
 5293      6C757469 
 5293      6F6E00
 5294              	.LASF74:
 5295 0504 636F6566 		.ascii	"coefA\000"
 5295      4100
 5296              	.LASF75:
 5297 050a 636F6566 		.ascii	"coefB\000"
 5297      4200
 5298              	.LASF62:
 5299 0510 4144435F 		.ascii	"ADC_DelSig_1_GetResult32\000"
 5299      44656C53 
 5299      69675F31 
 5299      5F476574 
 5299      52657375 
 5300              	.LASF18:
 5301 0529 63686172 		.ascii	"char\000"
 5301      00
 5302              	.LASF47:
 5303 052e 4144435F 		.ascii	"ADC_DelSig_1_SetCoherency\000"
 5303      44656C53 
 5303      69675F31 
 5303      5F536574 
 5303      436F6865 
 5304              	.LASF22:
 5305 0548 63796973 		.ascii	"cyisraddress\000"
 5305      72616464 
 5305      72657373 
 5305      00
 5306              	.LASF31:
 5307 0555 636F6E66 		.ascii	"config\000"
 5307      696700
 5308              	.LASF25:
 5309 055c 6776616C 		.ascii	"gval\000"
 5309      00
 5310              	.LASF77:
ARM GAS  C:\Users\IVYLIU~1\AppData\Local\Temp\cckaBvwB.s 			page 138


 5311 0561 72657374 		.ascii	"restart\000"
 5311      61727400 
 5312              	.LASF51:
 5313 0569 746D7056 		.ascii	"tmpValue\000"
 5313      616C7565 
 5313      00
 5314              	.LASF36:
 5315 0572 4144435F 		.ascii	"ADC_DelSig_1_SetDSMRef0Reg\000"
 5315      44656C53 
 5315      69675F31 
 5315      5F536574 
 5315      44534D52 
 5316              	.LASF64:
 5317 058d 6F666673 		.ascii	"offset\000"
 5317      657400
 5318              	.LASF95:
 5319 0594 4144435F 		.ascii	"ADC_DelSig_1_theACLK_SetModeRegister\000"
 5319      44656C53 
 5319      69675F31 
 5319      5F746865 
 5319      41434C4B 
 5320              	.LASF68:
 5321 05b9 61646343 		.ascii	"adcCounts\000"
 5321      6F756E74 
 5321      7300
 5322              	.LASF99:
 5323 05c3 4144435F 		.ascii	"ADC_DelSig_1_GainCompensation\000"
 5323      44656C53 
 5323      69675F31 
 5323      5F476169 
 5323      6E436F6D 
 5324              	.LASF41:
 5325 05e1 656E6162 		.ascii	"enableInterrupts\000"
 5325      6C65496E 
 5325      74657272 
 5325      75707473 
 5325      00
 5326              	.LASF57:
 5327 05f2 4144435F 		.ascii	"ADC_DelSig_1_IsEndConversion\000"
 5327      44656C53 
 5327      69675F31 
 5327      5F497345 
 5327      6E64436F 
 5328              	.LASF52:
 5329 060f 4144435F 		.ascii	"ADC_DelSig_1_SetGCOR\000"
 5329      44656C53 
 5329      69675F31 
 5329      5F536574 
 5329      47434F52 
 5330              	.LASF54:
 5331 0624 6756616C 		.ascii	"gValue\000"
 5331      756500
 5332              	.LASF50:
 5333 062b 73746174 		.ascii	"status\000"
 5333      757300
 5334              	.LASF49:
 5335 0632 6761696E 		.ascii	"gainAdjust\000"
ARM GAS  C:\Users\IVYLIU~1\AppData\Local\Temp\cckaBvwB.s 			page 139


 5335      41646A75 
 5335      737400
 5336              	.LASF42:
 5337 063d 4144435F 		.ascii	"ADC_DelSig_1_Start\000"
 5337      44656C53 
 5337      69675F31 
 5337      5F537461 
 5337      727400
 5338              	.LASF14:
 5339 0650 696E7431 		.ascii	"int16\000"
 5339      3600
 5340              	.LASF56:
 5341 0656 4144435F 		.ascii	"ADC_DelSig_1_StopConvert\000"
 5341      44656C53 
 5341      69675F31 
 5341      5F53746F 
 5341      70436F6E 
 5342              	.LASF91:
 5343 066f 4144435F 		.ascii	"ADC_DelSig_1_AMux_Select\000"
 5343      44656C53 
 5343      69675F31 
 5343      5F414D75 
 5343      785F5365 
 5344              	.LASF65:
 5345 0688 4144435F 		.ascii	"ADC_DelSig_1_SetGain\000"
 5345      44656C53 
 5345      69675F31 
 5345      5F536574 
 5345      4761696E 
 5346              	.LASF79:
 5347 069d 4144435F 		.ascii	"ADC_DelSig_1_Read16\000"
 5347      44656C53 
 5347      69675F31 
 5347      5F526561 
 5347      64313600 
 5348              	.LASF67:
 5349 06b1 4144435F 		.ascii	"ADC_DelSig_1_CountsTo_mVolts\000"
 5349      44656C53 
 5349      69675F31 
 5349      5F436F75 
 5349      6E747354 
 5350              	.LASF44:
 5351 06ce 4144435F 		.ascii	"ADC_DelSig_1_SetBufferGain\000"
 5351      44656C53 
 5351      69675F31 
 5351      5F536574 
 5351      42756666 
 5352              	.LASF46:
 5353 06e9 746D7052 		.ascii	"tmpReg\000"
 5353      656700
 5354              	.LASF78:
 5355 06f0 4144435F 		.ascii	"ADC_DelSig_1_Read8\000"
 5355      44656C53 
 5355      69675F31 
 5355      5F526561 
 5355      643800
 5356              	.LASF60:
ARM GAS  C:\Users\IVYLIU~1\AppData\Local\Temp\cckaBvwB.s 			page 140


 5357 0703 72657375 		.ascii	"result\000"
 5357      6C7400
 5358              	.LASF84:
 5359 070a 4144435F 		.ascii	"ADC_DelSig_1_stopConversion\000"
 5359      44656C53 
 5359      69675F31 
 5359      5F73746F 
 5359      70436F6E 
 5360              	.LASF53:
 5361 0726 4144435F 		.ascii	"ADC_DelSig_1_ReadGCOR\000"
 5361      44656C53 
 5361      69675F31 
 5361      5F526561 
 5361      6447434F 
 5362              	.LASF81:
 5363 073c 4144435F 		.ascii	"ADC_DelSig_1_gcor\000"
 5363      44656C53 
 5363      69675F31 
 5363      5F67636F 
 5363      7200
 5364              		.ident	"GCC: (GNU Tools for ARM Embedded Processors) 4.9.3 20150303 (release) [ARM/embedded-4_9-br
