ARM GAS  C:\Users\IVYLIU~1\AppData\Local\Temp\ccC4ND0P.s 			page 1


   1              		.syntax unified
   2              		.cpu cortex-m3
   3              		.fpu softvfp
   4              		.eabi_attribute 20, 1
   5              		.eabi_attribute 21, 1
   6              		.eabi_attribute 23, 3
   7              		.eabi_attribute 24, 1
   8              		.eabi_attribute 25, 1
   9              		.eabi_attribute 26, 1
  10              		.eabi_attribute 30, 4
  11              		.eabi_attribute 34, 1
  12              		.eabi_attribute 18, 4
  13              		.thumb
  14              		.file	"ADC_DelSig_1_IRQ.c"
  15              		.text
  16              	.Ltext0:
  17              		.cfi_sections	.debug_frame
  18              		.section	.text.ADC_DelSig_1_IRQ_Interrupt,"ax",%progbits
  19              		.align	1
  20              		.global	ADC_DelSig_1_IRQ_Interrupt
  21              		.thumb
  22              		.thumb_func
  23              		.type	ADC_DelSig_1_IRQ_Interrupt, %function
  24              	ADC_DelSig_1_IRQ_Interrupt:
  25              	.LFB3:
  26              		.file 1 ".\\Generated_Source\\PSoC5\\ADC_DelSig_1_IRQ.c"
   1:.\Generated_Source\PSoC5/ADC_DelSig_1_IRQ.c **** /*******************************************************************************
   2:.\Generated_Source\PSoC5/ADC_DelSig_1_IRQ.c **** * File Name: ADC_DelSig_1_IRQ.c  
   3:.\Generated_Source\PSoC5/ADC_DelSig_1_IRQ.c **** * Version 1.70
   4:.\Generated_Source\PSoC5/ADC_DelSig_1_IRQ.c **** *
   5:.\Generated_Source\PSoC5/ADC_DelSig_1_IRQ.c **** *  Description:
   6:.\Generated_Source\PSoC5/ADC_DelSig_1_IRQ.c **** *   API for controlling the state of an interrupt.
   7:.\Generated_Source\PSoC5/ADC_DelSig_1_IRQ.c **** *
   8:.\Generated_Source\PSoC5/ADC_DelSig_1_IRQ.c **** *
   9:.\Generated_Source\PSoC5/ADC_DelSig_1_IRQ.c **** *  Note:
  10:.\Generated_Source\PSoC5/ADC_DelSig_1_IRQ.c **** *
  11:.\Generated_Source\PSoC5/ADC_DelSig_1_IRQ.c **** ********************************************************************************
  12:.\Generated_Source\PSoC5/ADC_DelSig_1_IRQ.c **** * Copyright 2008-2015, Cypress Semiconductor Corporation.  All rights reserved.
  13:.\Generated_Source\PSoC5/ADC_DelSig_1_IRQ.c **** * You may use this file only in accordance with the license, terms, conditions, 
  14:.\Generated_Source\PSoC5/ADC_DelSig_1_IRQ.c **** * disclaimers, and limitations in the end user license agreement accompanying 
  15:.\Generated_Source\PSoC5/ADC_DelSig_1_IRQ.c **** * the software package with which this file was provided.
  16:.\Generated_Source\PSoC5/ADC_DelSig_1_IRQ.c **** *******************************************************************************/
  17:.\Generated_Source\PSoC5/ADC_DelSig_1_IRQ.c **** 
  18:.\Generated_Source\PSoC5/ADC_DelSig_1_IRQ.c **** 
  19:.\Generated_Source\PSoC5/ADC_DelSig_1_IRQ.c **** #include <cydevice_trm.h>
  20:.\Generated_Source\PSoC5/ADC_DelSig_1_IRQ.c **** #include <CyLib.h>
  21:.\Generated_Source\PSoC5/ADC_DelSig_1_IRQ.c **** #include <ADC_DelSig_1_IRQ.h>
  22:.\Generated_Source\PSoC5/ADC_DelSig_1_IRQ.c **** #include "cyapicallbacks.h"
  23:.\Generated_Source\PSoC5/ADC_DelSig_1_IRQ.c **** 
  24:.\Generated_Source\PSoC5/ADC_DelSig_1_IRQ.c **** #if !defined(ADC_DelSig_1_IRQ__REMOVED) /* Check for removal by optimization */
  25:.\Generated_Source\PSoC5/ADC_DelSig_1_IRQ.c **** 
  26:.\Generated_Source\PSoC5/ADC_DelSig_1_IRQ.c **** /*******************************************************************************
  27:.\Generated_Source\PSoC5/ADC_DelSig_1_IRQ.c **** *  Place your includes, defines and code here 
  28:.\Generated_Source\PSoC5/ADC_DelSig_1_IRQ.c **** ********************************************************************************/
  29:.\Generated_Source\PSoC5/ADC_DelSig_1_IRQ.c **** /* `#START ADC_DelSig_1_IRQ_intc` */
  30:.\Generated_Source\PSoC5/ADC_DelSig_1_IRQ.c **** 
  31:.\Generated_Source\PSoC5/ADC_DelSig_1_IRQ.c **** /* `#END` */
ARM GAS  C:\Users\IVYLIU~1\AppData\Local\Temp\ccC4ND0P.s 			page 2


  32:.\Generated_Source\PSoC5/ADC_DelSig_1_IRQ.c **** 
  33:.\Generated_Source\PSoC5/ADC_DelSig_1_IRQ.c **** #ifndef CYINT_IRQ_BASE
  34:.\Generated_Source\PSoC5/ADC_DelSig_1_IRQ.c **** #define CYINT_IRQ_BASE      16
  35:.\Generated_Source\PSoC5/ADC_DelSig_1_IRQ.c **** #endif /* CYINT_IRQ_BASE */
  36:.\Generated_Source\PSoC5/ADC_DelSig_1_IRQ.c **** #ifndef CYINT_VECT_TABLE
  37:.\Generated_Source\PSoC5/ADC_DelSig_1_IRQ.c **** #define CYINT_VECT_TABLE    ((cyisraddress **) CYREG_NVIC_VECT_OFFSET)
  38:.\Generated_Source\PSoC5/ADC_DelSig_1_IRQ.c **** #endif /* CYINT_VECT_TABLE */
  39:.\Generated_Source\PSoC5/ADC_DelSig_1_IRQ.c **** 
  40:.\Generated_Source\PSoC5/ADC_DelSig_1_IRQ.c **** /* Declared in startup, used to set unused interrupts to. */
  41:.\Generated_Source\PSoC5/ADC_DelSig_1_IRQ.c **** CY_ISR_PROTO(IntDefaultHandler);
  42:.\Generated_Source\PSoC5/ADC_DelSig_1_IRQ.c **** 
  43:.\Generated_Source\PSoC5/ADC_DelSig_1_IRQ.c **** 
  44:.\Generated_Source\PSoC5/ADC_DelSig_1_IRQ.c **** /*******************************************************************************
  45:.\Generated_Source\PSoC5/ADC_DelSig_1_IRQ.c **** * Function Name: ADC_DelSig_1_IRQ_Start
  46:.\Generated_Source\PSoC5/ADC_DelSig_1_IRQ.c **** ********************************************************************************
  47:.\Generated_Source\PSoC5/ADC_DelSig_1_IRQ.c **** *
  48:.\Generated_Source\PSoC5/ADC_DelSig_1_IRQ.c **** * Summary:
  49:.\Generated_Source\PSoC5/ADC_DelSig_1_IRQ.c **** *  Set up the interrupt and enable it. This function disables the interrupt, 
  50:.\Generated_Source\PSoC5/ADC_DelSig_1_IRQ.c **** *  sets the default interrupt vector, sets the priority from the value in the
  51:.\Generated_Source\PSoC5/ADC_DelSig_1_IRQ.c **** *  Design Wide Resources Interrupt Editor, then enables the interrupt to the 
  52:.\Generated_Source\PSoC5/ADC_DelSig_1_IRQ.c **** *  interrupt controller.
  53:.\Generated_Source\PSoC5/ADC_DelSig_1_IRQ.c **** *
  54:.\Generated_Source\PSoC5/ADC_DelSig_1_IRQ.c **** * Parameters:  
  55:.\Generated_Source\PSoC5/ADC_DelSig_1_IRQ.c **** *   None
  56:.\Generated_Source\PSoC5/ADC_DelSig_1_IRQ.c **** *
  57:.\Generated_Source\PSoC5/ADC_DelSig_1_IRQ.c **** * Return:
  58:.\Generated_Source\PSoC5/ADC_DelSig_1_IRQ.c **** *   None
  59:.\Generated_Source\PSoC5/ADC_DelSig_1_IRQ.c **** *
  60:.\Generated_Source\PSoC5/ADC_DelSig_1_IRQ.c **** *******************************************************************************/
  61:.\Generated_Source\PSoC5/ADC_DelSig_1_IRQ.c **** void ADC_DelSig_1_IRQ_Start(void)
  62:.\Generated_Source\PSoC5/ADC_DelSig_1_IRQ.c **** {
  63:.\Generated_Source\PSoC5/ADC_DelSig_1_IRQ.c ****     /* For all we know the interrupt is active. */
  64:.\Generated_Source\PSoC5/ADC_DelSig_1_IRQ.c ****     ADC_DelSig_1_IRQ_Disable();
  65:.\Generated_Source\PSoC5/ADC_DelSig_1_IRQ.c **** 
  66:.\Generated_Source\PSoC5/ADC_DelSig_1_IRQ.c ****     /* Set the ISR to point to the ADC_DelSig_1_IRQ Interrupt. */
  67:.\Generated_Source\PSoC5/ADC_DelSig_1_IRQ.c ****     ADC_DelSig_1_IRQ_SetVector(&ADC_DelSig_1_IRQ_Interrupt);
  68:.\Generated_Source\PSoC5/ADC_DelSig_1_IRQ.c **** 
  69:.\Generated_Source\PSoC5/ADC_DelSig_1_IRQ.c ****     /* Set the priority. */
  70:.\Generated_Source\PSoC5/ADC_DelSig_1_IRQ.c ****     ADC_DelSig_1_IRQ_SetPriority((uint8)ADC_DelSig_1_IRQ_INTC_PRIOR_NUMBER);
  71:.\Generated_Source\PSoC5/ADC_DelSig_1_IRQ.c **** 
  72:.\Generated_Source\PSoC5/ADC_DelSig_1_IRQ.c ****     /* Enable it. */
  73:.\Generated_Source\PSoC5/ADC_DelSig_1_IRQ.c ****     ADC_DelSig_1_IRQ_Enable();
  74:.\Generated_Source\PSoC5/ADC_DelSig_1_IRQ.c **** }
  75:.\Generated_Source\PSoC5/ADC_DelSig_1_IRQ.c **** 
  76:.\Generated_Source\PSoC5/ADC_DelSig_1_IRQ.c **** 
  77:.\Generated_Source\PSoC5/ADC_DelSig_1_IRQ.c **** /*******************************************************************************
  78:.\Generated_Source\PSoC5/ADC_DelSig_1_IRQ.c **** * Function Name: ADC_DelSig_1_IRQ_StartEx
  79:.\Generated_Source\PSoC5/ADC_DelSig_1_IRQ.c **** ********************************************************************************
  80:.\Generated_Source\PSoC5/ADC_DelSig_1_IRQ.c **** *
  81:.\Generated_Source\PSoC5/ADC_DelSig_1_IRQ.c **** * Summary:
  82:.\Generated_Source\PSoC5/ADC_DelSig_1_IRQ.c **** *  Sets up the interrupt and enables it. This function disables the interrupt,
  83:.\Generated_Source\PSoC5/ADC_DelSig_1_IRQ.c **** *  sets the interrupt vector based on the address passed in, sets the priority 
  84:.\Generated_Source\PSoC5/ADC_DelSig_1_IRQ.c **** *  from the value in the Design Wide Resources Interrupt Editor, then enables 
  85:.\Generated_Source\PSoC5/ADC_DelSig_1_IRQ.c **** *  the interrupt to the interrupt controller.
  86:.\Generated_Source\PSoC5/ADC_DelSig_1_IRQ.c **** *  
  87:.\Generated_Source\PSoC5/ADC_DelSig_1_IRQ.c **** *  When defining ISR functions, the CY_ISR and CY_ISR_PROTO macros should be 
  88:.\Generated_Source\PSoC5/ADC_DelSig_1_IRQ.c **** *  used to provide consistent definition across compilers:
ARM GAS  C:\Users\IVYLIU~1\AppData\Local\Temp\ccC4ND0P.s 			page 3


  89:.\Generated_Source\PSoC5/ADC_DelSig_1_IRQ.c **** *  
  90:.\Generated_Source\PSoC5/ADC_DelSig_1_IRQ.c **** *  Function definition example:
  91:.\Generated_Source\PSoC5/ADC_DelSig_1_IRQ.c **** *   CY_ISR(MyISR)
  92:.\Generated_Source\PSoC5/ADC_DelSig_1_IRQ.c **** *   {
  93:.\Generated_Source\PSoC5/ADC_DelSig_1_IRQ.c **** *   }
  94:.\Generated_Source\PSoC5/ADC_DelSig_1_IRQ.c **** *   Function prototype example:
  95:.\Generated_Source\PSoC5/ADC_DelSig_1_IRQ.c **** *   CY_ISR_PROTO(MyISR);
  96:.\Generated_Source\PSoC5/ADC_DelSig_1_IRQ.c **** *
  97:.\Generated_Source\PSoC5/ADC_DelSig_1_IRQ.c **** * Parameters:  
  98:.\Generated_Source\PSoC5/ADC_DelSig_1_IRQ.c **** *   address: Address of the ISR to set in the interrupt vector table.
  99:.\Generated_Source\PSoC5/ADC_DelSig_1_IRQ.c **** *
 100:.\Generated_Source\PSoC5/ADC_DelSig_1_IRQ.c **** * Return:
 101:.\Generated_Source\PSoC5/ADC_DelSig_1_IRQ.c **** *   None
 102:.\Generated_Source\PSoC5/ADC_DelSig_1_IRQ.c **** *
 103:.\Generated_Source\PSoC5/ADC_DelSig_1_IRQ.c **** *******************************************************************************/
 104:.\Generated_Source\PSoC5/ADC_DelSig_1_IRQ.c **** void ADC_DelSig_1_IRQ_StartEx(cyisraddress address)
 105:.\Generated_Source\PSoC5/ADC_DelSig_1_IRQ.c **** {
 106:.\Generated_Source\PSoC5/ADC_DelSig_1_IRQ.c ****     /* For all we know the interrupt is active. */
 107:.\Generated_Source\PSoC5/ADC_DelSig_1_IRQ.c ****     ADC_DelSig_1_IRQ_Disable();
 108:.\Generated_Source\PSoC5/ADC_DelSig_1_IRQ.c **** 
 109:.\Generated_Source\PSoC5/ADC_DelSig_1_IRQ.c ****     /* Set the ISR to point to the ADC_DelSig_1_IRQ Interrupt. */
 110:.\Generated_Source\PSoC5/ADC_DelSig_1_IRQ.c ****     ADC_DelSig_1_IRQ_SetVector(address);
 111:.\Generated_Source\PSoC5/ADC_DelSig_1_IRQ.c **** 
 112:.\Generated_Source\PSoC5/ADC_DelSig_1_IRQ.c ****     /* Set the priority. */
 113:.\Generated_Source\PSoC5/ADC_DelSig_1_IRQ.c ****     ADC_DelSig_1_IRQ_SetPriority((uint8)ADC_DelSig_1_IRQ_INTC_PRIOR_NUMBER);
 114:.\Generated_Source\PSoC5/ADC_DelSig_1_IRQ.c **** 
 115:.\Generated_Source\PSoC5/ADC_DelSig_1_IRQ.c ****     /* Enable it. */
 116:.\Generated_Source\PSoC5/ADC_DelSig_1_IRQ.c ****     ADC_DelSig_1_IRQ_Enable();
 117:.\Generated_Source\PSoC5/ADC_DelSig_1_IRQ.c **** }
 118:.\Generated_Source\PSoC5/ADC_DelSig_1_IRQ.c **** 
 119:.\Generated_Source\PSoC5/ADC_DelSig_1_IRQ.c **** 
 120:.\Generated_Source\PSoC5/ADC_DelSig_1_IRQ.c **** /*******************************************************************************
 121:.\Generated_Source\PSoC5/ADC_DelSig_1_IRQ.c **** * Function Name: ADC_DelSig_1_IRQ_Stop
 122:.\Generated_Source\PSoC5/ADC_DelSig_1_IRQ.c **** ********************************************************************************
 123:.\Generated_Source\PSoC5/ADC_DelSig_1_IRQ.c **** *
 124:.\Generated_Source\PSoC5/ADC_DelSig_1_IRQ.c **** * Summary:
 125:.\Generated_Source\PSoC5/ADC_DelSig_1_IRQ.c **** *   Disables and removes the interrupt.
 126:.\Generated_Source\PSoC5/ADC_DelSig_1_IRQ.c **** *
 127:.\Generated_Source\PSoC5/ADC_DelSig_1_IRQ.c **** * Parameters:  
 128:.\Generated_Source\PSoC5/ADC_DelSig_1_IRQ.c **** *   None
 129:.\Generated_Source\PSoC5/ADC_DelSig_1_IRQ.c **** *
 130:.\Generated_Source\PSoC5/ADC_DelSig_1_IRQ.c **** * Return:
 131:.\Generated_Source\PSoC5/ADC_DelSig_1_IRQ.c **** *   None
 132:.\Generated_Source\PSoC5/ADC_DelSig_1_IRQ.c **** *
 133:.\Generated_Source\PSoC5/ADC_DelSig_1_IRQ.c **** *******************************************************************************/
 134:.\Generated_Source\PSoC5/ADC_DelSig_1_IRQ.c **** void ADC_DelSig_1_IRQ_Stop(void)
 135:.\Generated_Source\PSoC5/ADC_DelSig_1_IRQ.c **** {
 136:.\Generated_Source\PSoC5/ADC_DelSig_1_IRQ.c ****     /* Disable this interrupt. */
 137:.\Generated_Source\PSoC5/ADC_DelSig_1_IRQ.c ****     ADC_DelSig_1_IRQ_Disable();
 138:.\Generated_Source\PSoC5/ADC_DelSig_1_IRQ.c **** 
 139:.\Generated_Source\PSoC5/ADC_DelSig_1_IRQ.c ****     /* Set the ISR to point to the passive one. */
 140:.\Generated_Source\PSoC5/ADC_DelSig_1_IRQ.c ****     ADC_DelSig_1_IRQ_SetVector(&IntDefaultHandler);
 141:.\Generated_Source\PSoC5/ADC_DelSig_1_IRQ.c **** }
 142:.\Generated_Source\PSoC5/ADC_DelSig_1_IRQ.c **** 
 143:.\Generated_Source\PSoC5/ADC_DelSig_1_IRQ.c **** 
 144:.\Generated_Source\PSoC5/ADC_DelSig_1_IRQ.c **** /*******************************************************************************
 145:.\Generated_Source\PSoC5/ADC_DelSig_1_IRQ.c **** * Function Name: ADC_DelSig_1_IRQ_Interrupt
ARM GAS  C:\Users\IVYLIU~1\AppData\Local\Temp\ccC4ND0P.s 			page 4


 146:.\Generated_Source\PSoC5/ADC_DelSig_1_IRQ.c **** ********************************************************************************
 147:.\Generated_Source\PSoC5/ADC_DelSig_1_IRQ.c **** *
 148:.\Generated_Source\PSoC5/ADC_DelSig_1_IRQ.c **** * Summary:
 149:.\Generated_Source\PSoC5/ADC_DelSig_1_IRQ.c **** *   The default Interrupt Service Routine for ADC_DelSig_1_IRQ.
 150:.\Generated_Source\PSoC5/ADC_DelSig_1_IRQ.c **** *
 151:.\Generated_Source\PSoC5/ADC_DelSig_1_IRQ.c **** *   Add custom code between the coments to keep the next version of this file
 152:.\Generated_Source\PSoC5/ADC_DelSig_1_IRQ.c **** *   from over writting your code.
 153:.\Generated_Source\PSoC5/ADC_DelSig_1_IRQ.c **** *
 154:.\Generated_Source\PSoC5/ADC_DelSig_1_IRQ.c **** * Parameters:  
 155:.\Generated_Source\PSoC5/ADC_DelSig_1_IRQ.c **** *
 156:.\Generated_Source\PSoC5/ADC_DelSig_1_IRQ.c **** * Return:
 157:.\Generated_Source\PSoC5/ADC_DelSig_1_IRQ.c **** *   None
 158:.\Generated_Source\PSoC5/ADC_DelSig_1_IRQ.c **** *
 159:.\Generated_Source\PSoC5/ADC_DelSig_1_IRQ.c **** *******************************************************************************/
 160:.\Generated_Source\PSoC5/ADC_DelSig_1_IRQ.c **** CY_ISR(ADC_DelSig_1_IRQ_Interrupt)
 161:.\Generated_Source\PSoC5/ADC_DelSig_1_IRQ.c **** {
  27              		.loc 1 161 0
  28              		.cfi_startproc
  29              		@ args = 0, pretend = 0, frame = 0
  30              		@ frame_needed = 0, uses_anonymous_args = 0
  31              		@ link register save eliminated.
  32 0000 7047     		bx	lr
  33              		.cfi_endproc
  34              	.LFE3:
  35              		.size	ADC_DelSig_1_IRQ_Interrupt, .-ADC_DelSig_1_IRQ_Interrupt
  36              		.section	.text.ADC_DelSig_1_IRQ_Start,"ax",%progbits
  37              		.align	1
  38              		.global	ADC_DelSig_1_IRQ_Start
  39              		.thumb
  40              		.thumb_func
  41              		.type	ADC_DelSig_1_IRQ_Start, %function
  42              	ADC_DelSig_1_IRQ_Start:
  43              	.LFB0:
  62:.\Generated_Source\PSoC5/ADC_DelSig_1_IRQ.c ****     /* For all we know the interrupt is active. */
  44              		.loc 1 62 0
  45              		.cfi_startproc
  46              		@ args = 0, pretend = 0, frame = 0
  47              		@ frame_needed = 0, uses_anonymous_args = 0
  48              		@ link register save eliminated.
  49              	.LBB22:
  50              	.LBB23:
 162:.\Generated_Source\PSoC5/ADC_DelSig_1_IRQ.c ****     #ifdef ADC_DelSig_1_IRQ_INTERRUPT_INTERRUPT_CALLBACK
 163:.\Generated_Source\PSoC5/ADC_DelSig_1_IRQ.c ****         ADC_DelSig_1_IRQ_Interrupt_InterruptCallback();
 164:.\Generated_Source\PSoC5/ADC_DelSig_1_IRQ.c ****     #endif /* ADC_DelSig_1_IRQ_INTERRUPT_INTERRUPT_CALLBACK */ 
 165:.\Generated_Source\PSoC5/ADC_DelSig_1_IRQ.c **** 
 166:.\Generated_Source\PSoC5/ADC_DelSig_1_IRQ.c ****     /*  Place your Interrupt code here. */
 167:.\Generated_Source\PSoC5/ADC_DelSig_1_IRQ.c ****     /* `#START ADC_DelSig_1_IRQ_Interrupt` */
 168:.\Generated_Source\PSoC5/ADC_DelSig_1_IRQ.c **** 
 169:.\Generated_Source\PSoC5/ADC_DelSig_1_IRQ.c ****     /* `#END` */
 170:.\Generated_Source\PSoC5/ADC_DelSig_1_IRQ.c **** }
 171:.\Generated_Source\PSoC5/ADC_DelSig_1_IRQ.c **** 
 172:.\Generated_Source\PSoC5/ADC_DelSig_1_IRQ.c **** 
 173:.\Generated_Source\PSoC5/ADC_DelSig_1_IRQ.c **** /*******************************************************************************
 174:.\Generated_Source\PSoC5/ADC_DelSig_1_IRQ.c **** * Function Name: ADC_DelSig_1_IRQ_SetVector
 175:.\Generated_Source\PSoC5/ADC_DelSig_1_IRQ.c **** ********************************************************************************
 176:.\Generated_Source\PSoC5/ADC_DelSig_1_IRQ.c **** *
 177:.\Generated_Source\PSoC5/ADC_DelSig_1_IRQ.c **** * Summary:
ARM GAS  C:\Users\IVYLIU~1\AppData\Local\Temp\ccC4ND0P.s 			page 5


 178:.\Generated_Source\PSoC5/ADC_DelSig_1_IRQ.c **** *   Change the ISR vector for the Interrupt. Note calling ADC_DelSig_1_IRQ_Start
 179:.\Generated_Source\PSoC5/ADC_DelSig_1_IRQ.c **** *   will override any effect this method would have had. To set the vector 
 180:.\Generated_Source\PSoC5/ADC_DelSig_1_IRQ.c **** *   before the component has been started use ADC_DelSig_1_IRQ_StartEx instead.
 181:.\Generated_Source\PSoC5/ADC_DelSig_1_IRQ.c **** * 
 182:.\Generated_Source\PSoC5/ADC_DelSig_1_IRQ.c **** *   When defining ISR functions, the CY_ISR and CY_ISR_PROTO macros should be 
 183:.\Generated_Source\PSoC5/ADC_DelSig_1_IRQ.c **** *   used to provide consistent definition across compilers:
 184:.\Generated_Source\PSoC5/ADC_DelSig_1_IRQ.c **** *
 185:.\Generated_Source\PSoC5/ADC_DelSig_1_IRQ.c **** *   Function definition example:
 186:.\Generated_Source\PSoC5/ADC_DelSig_1_IRQ.c **** *   CY_ISR(MyISR)
 187:.\Generated_Source\PSoC5/ADC_DelSig_1_IRQ.c **** *   {
 188:.\Generated_Source\PSoC5/ADC_DelSig_1_IRQ.c **** *   }
 189:.\Generated_Source\PSoC5/ADC_DelSig_1_IRQ.c **** *
 190:.\Generated_Source\PSoC5/ADC_DelSig_1_IRQ.c **** *   Function prototype example:
 191:.\Generated_Source\PSoC5/ADC_DelSig_1_IRQ.c **** *     CY_ISR_PROTO(MyISR);
 192:.\Generated_Source\PSoC5/ADC_DelSig_1_IRQ.c **** *
 193:.\Generated_Source\PSoC5/ADC_DelSig_1_IRQ.c **** * Parameters:
 194:.\Generated_Source\PSoC5/ADC_DelSig_1_IRQ.c **** *   address: Address of the ISR to set in the interrupt vector table.
 195:.\Generated_Source\PSoC5/ADC_DelSig_1_IRQ.c **** *
 196:.\Generated_Source\PSoC5/ADC_DelSig_1_IRQ.c **** * Return:
 197:.\Generated_Source\PSoC5/ADC_DelSig_1_IRQ.c **** *   None
 198:.\Generated_Source\PSoC5/ADC_DelSig_1_IRQ.c **** *
 199:.\Generated_Source\PSoC5/ADC_DelSig_1_IRQ.c **** *******************************************************************************/
 200:.\Generated_Source\PSoC5/ADC_DelSig_1_IRQ.c **** void ADC_DelSig_1_IRQ_SetVector(cyisraddress address)
 201:.\Generated_Source\PSoC5/ADC_DelSig_1_IRQ.c **** {
 202:.\Generated_Source\PSoC5/ADC_DelSig_1_IRQ.c ****     cyisraddress * ramVectorTable;
 203:.\Generated_Source\PSoC5/ADC_DelSig_1_IRQ.c **** 
 204:.\Generated_Source\PSoC5/ADC_DelSig_1_IRQ.c ****     ramVectorTable = (cyisraddress *) *CYINT_VECT_TABLE;
 205:.\Generated_Source\PSoC5/ADC_DelSig_1_IRQ.c **** 
 206:.\Generated_Source\PSoC5/ADC_DelSig_1_IRQ.c ****     ramVectorTable[CYINT_IRQ_BASE + (uint32)ADC_DelSig_1_IRQ__INTC_NUMBER] = address;
 207:.\Generated_Source\PSoC5/ADC_DelSig_1_IRQ.c **** }
 208:.\Generated_Source\PSoC5/ADC_DelSig_1_IRQ.c **** 
 209:.\Generated_Source\PSoC5/ADC_DelSig_1_IRQ.c **** 
 210:.\Generated_Source\PSoC5/ADC_DelSig_1_IRQ.c **** /*******************************************************************************
 211:.\Generated_Source\PSoC5/ADC_DelSig_1_IRQ.c **** * Function Name: ADC_DelSig_1_IRQ_GetVector
 212:.\Generated_Source\PSoC5/ADC_DelSig_1_IRQ.c **** ********************************************************************************
 213:.\Generated_Source\PSoC5/ADC_DelSig_1_IRQ.c **** *
 214:.\Generated_Source\PSoC5/ADC_DelSig_1_IRQ.c **** * Summary:
 215:.\Generated_Source\PSoC5/ADC_DelSig_1_IRQ.c **** *   Gets the "address" of the current ISR vector for the Interrupt.
 216:.\Generated_Source\PSoC5/ADC_DelSig_1_IRQ.c **** *
 217:.\Generated_Source\PSoC5/ADC_DelSig_1_IRQ.c **** * Parameters:
 218:.\Generated_Source\PSoC5/ADC_DelSig_1_IRQ.c **** *   None
 219:.\Generated_Source\PSoC5/ADC_DelSig_1_IRQ.c **** *
 220:.\Generated_Source\PSoC5/ADC_DelSig_1_IRQ.c **** * Return:
 221:.\Generated_Source\PSoC5/ADC_DelSig_1_IRQ.c **** *   Address of the ISR in the interrupt vector table.
 222:.\Generated_Source\PSoC5/ADC_DelSig_1_IRQ.c **** *
 223:.\Generated_Source\PSoC5/ADC_DelSig_1_IRQ.c **** *******************************************************************************/
 224:.\Generated_Source\PSoC5/ADC_DelSig_1_IRQ.c **** cyisraddress ADC_DelSig_1_IRQ_GetVector(void)
 225:.\Generated_Source\PSoC5/ADC_DelSig_1_IRQ.c **** {
 226:.\Generated_Source\PSoC5/ADC_DelSig_1_IRQ.c ****     cyisraddress * ramVectorTable;
 227:.\Generated_Source\PSoC5/ADC_DelSig_1_IRQ.c **** 
 228:.\Generated_Source\PSoC5/ADC_DelSig_1_IRQ.c ****     ramVectorTable = (cyisraddress *) *CYINT_VECT_TABLE;
 229:.\Generated_Source\PSoC5/ADC_DelSig_1_IRQ.c **** 
 230:.\Generated_Source\PSoC5/ADC_DelSig_1_IRQ.c ****     return ramVectorTable[CYINT_IRQ_BASE + (uint32)ADC_DelSig_1_IRQ__INTC_NUMBER];
 231:.\Generated_Source\PSoC5/ADC_DelSig_1_IRQ.c **** }
 232:.\Generated_Source\PSoC5/ADC_DelSig_1_IRQ.c **** 
 233:.\Generated_Source\PSoC5/ADC_DelSig_1_IRQ.c **** 
 234:.\Generated_Source\PSoC5/ADC_DelSig_1_IRQ.c **** /*******************************************************************************
ARM GAS  C:\Users\IVYLIU~1\AppData\Local\Temp\ccC4ND0P.s 			page 6


 235:.\Generated_Source\PSoC5/ADC_DelSig_1_IRQ.c **** * Function Name: ADC_DelSig_1_IRQ_SetPriority
 236:.\Generated_Source\PSoC5/ADC_DelSig_1_IRQ.c **** ********************************************************************************
 237:.\Generated_Source\PSoC5/ADC_DelSig_1_IRQ.c **** *
 238:.\Generated_Source\PSoC5/ADC_DelSig_1_IRQ.c **** * Summary:
 239:.\Generated_Source\PSoC5/ADC_DelSig_1_IRQ.c **** *   Sets the Priority of the Interrupt. 
 240:.\Generated_Source\PSoC5/ADC_DelSig_1_IRQ.c **** *
 241:.\Generated_Source\PSoC5/ADC_DelSig_1_IRQ.c **** *   Note calling ADC_DelSig_1_IRQ_Start or ADC_DelSig_1_IRQ_StartEx will 
 242:.\Generated_Source\PSoC5/ADC_DelSig_1_IRQ.c **** *   override any effect this API would have had. This API should only be called
 243:.\Generated_Source\PSoC5/ADC_DelSig_1_IRQ.c **** *   after ADC_DelSig_1_IRQ_Start or ADC_DelSig_1_IRQ_StartEx has been called. 
 244:.\Generated_Source\PSoC5/ADC_DelSig_1_IRQ.c **** *   To set the initial priority for the component, use the Design-Wide Resources
 245:.\Generated_Source\PSoC5/ADC_DelSig_1_IRQ.c **** *   Interrupt Editor.
 246:.\Generated_Source\PSoC5/ADC_DelSig_1_IRQ.c **** *
 247:.\Generated_Source\PSoC5/ADC_DelSig_1_IRQ.c **** *   Note This API has no effect on Non-maskable interrupt NMI).
 248:.\Generated_Source\PSoC5/ADC_DelSig_1_IRQ.c **** *
 249:.\Generated_Source\PSoC5/ADC_DelSig_1_IRQ.c **** * Parameters:
 250:.\Generated_Source\PSoC5/ADC_DelSig_1_IRQ.c **** *   priority: Priority of the interrupt, 0 being the highest priority
 251:.\Generated_Source\PSoC5/ADC_DelSig_1_IRQ.c **** *             PSoC 3 and PSoC 5LP: Priority is from 0 to 7.
 252:.\Generated_Source\PSoC5/ADC_DelSig_1_IRQ.c **** *             PSoC 4: Priority is from 0 to 3.
 253:.\Generated_Source\PSoC5/ADC_DelSig_1_IRQ.c **** *
 254:.\Generated_Source\PSoC5/ADC_DelSig_1_IRQ.c **** * Return:
 255:.\Generated_Source\PSoC5/ADC_DelSig_1_IRQ.c **** *   None
 256:.\Generated_Source\PSoC5/ADC_DelSig_1_IRQ.c **** *
 257:.\Generated_Source\PSoC5/ADC_DelSig_1_IRQ.c **** *******************************************************************************/
 258:.\Generated_Source\PSoC5/ADC_DelSig_1_IRQ.c **** void ADC_DelSig_1_IRQ_SetPriority(uint8 priority)
 259:.\Generated_Source\PSoC5/ADC_DelSig_1_IRQ.c **** {
 260:.\Generated_Source\PSoC5/ADC_DelSig_1_IRQ.c ****     *ADC_DelSig_1_IRQ_INTC_PRIOR = priority << 5;
 261:.\Generated_Source\PSoC5/ADC_DelSig_1_IRQ.c **** }
 262:.\Generated_Source\PSoC5/ADC_DelSig_1_IRQ.c **** 
 263:.\Generated_Source\PSoC5/ADC_DelSig_1_IRQ.c **** 
 264:.\Generated_Source\PSoC5/ADC_DelSig_1_IRQ.c **** /*******************************************************************************
 265:.\Generated_Source\PSoC5/ADC_DelSig_1_IRQ.c **** * Function Name: ADC_DelSig_1_IRQ_GetPriority
 266:.\Generated_Source\PSoC5/ADC_DelSig_1_IRQ.c **** ********************************************************************************
 267:.\Generated_Source\PSoC5/ADC_DelSig_1_IRQ.c **** *
 268:.\Generated_Source\PSoC5/ADC_DelSig_1_IRQ.c **** * Summary:
 269:.\Generated_Source\PSoC5/ADC_DelSig_1_IRQ.c **** *   Gets the Priority of the Interrupt.
 270:.\Generated_Source\PSoC5/ADC_DelSig_1_IRQ.c **** *
 271:.\Generated_Source\PSoC5/ADC_DelSig_1_IRQ.c **** * Parameters:
 272:.\Generated_Source\PSoC5/ADC_DelSig_1_IRQ.c **** *   None
 273:.\Generated_Source\PSoC5/ADC_DelSig_1_IRQ.c **** *
 274:.\Generated_Source\PSoC5/ADC_DelSig_1_IRQ.c **** * Return:
 275:.\Generated_Source\PSoC5/ADC_DelSig_1_IRQ.c **** *   Priority of the interrupt, 0 being the highest priority
 276:.\Generated_Source\PSoC5/ADC_DelSig_1_IRQ.c **** *    PSoC 3 and PSoC 5LP: Priority is from 0 to 7.
 277:.\Generated_Source\PSoC5/ADC_DelSig_1_IRQ.c **** *    PSoC 4: Priority is from 0 to 3.
 278:.\Generated_Source\PSoC5/ADC_DelSig_1_IRQ.c **** *
 279:.\Generated_Source\PSoC5/ADC_DelSig_1_IRQ.c **** *******************************************************************************/
 280:.\Generated_Source\PSoC5/ADC_DelSig_1_IRQ.c **** uint8 ADC_DelSig_1_IRQ_GetPriority(void)
 281:.\Generated_Source\PSoC5/ADC_DelSig_1_IRQ.c **** {
 282:.\Generated_Source\PSoC5/ADC_DelSig_1_IRQ.c ****     uint8 priority;
 283:.\Generated_Source\PSoC5/ADC_DelSig_1_IRQ.c **** 
 284:.\Generated_Source\PSoC5/ADC_DelSig_1_IRQ.c **** 
 285:.\Generated_Source\PSoC5/ADC_DelSig_1_IRQ.c ****     priority = *ADC_DelSig_1_IRQ_INTC_PRIOR >> 5;
 286:.\Generated_Source\PSoC5/ADC_DelSig_1_IRQ.c **** 
 287:.\Generated_Source\PSoC5/ADC_DelSig_1_IRQ.c ****     return priority;
 288:.\Generated_Source\PSoC5/ADC_DelSig_1_IRQ.c **** }
 289:.\Generated_Source\PSoC5/ADC_DelSig_1_IRQ.c **** 
 290:.\Generated_Source\PSoC5/ADC_DelSig_1_IRQ.c **** 
 291:.\Generated_Source\PSoC5/ADC_DelSig_1_IRQ.c **** /*******************************************************************************
ARM GAS  C:\Users\IVYLIU~1\AppData\Local\Temp\ccC4ND0P.s 			page 7


 292:.\Generated_Source\PSoC5/ADC_DelSig_1_IRQ.c **** * Function Name: ADC_DelSig_1_IRQ_Enable
 293:.\Generated_Source\PSoC5/ADC_DelSig_1_IRQ.c **** ********************************************************************************
 294:.\Generated_Source\PSoC5/ADC_DelSig_1_IRQ.c **** *
 295:.\Generated_Source\PSoC5/ADC_DelSig_1_IRQ.c **** * Summary:
 296:.\Generated_Source\PSoC5/ADC_DelSig_1_IRQ.c **** *   Enables the interrupt to the interrupt controller. Do not call this function
 297:.\Generated_Source\PSoC5/ADC_DelSig_1_IRQ.c **** *   unless ISR_Start() has been called or the functionality of the ISR_Start() 
 298:.\Generated_Source\PSoC5/ADC_DelSig_1_IRQ.c **** *   function, which sets the vector and the priority, has been called.
 299:.\Generated_Source\PSoC5/ADC_DelSig_1_IRQ.c **** *
 300:.\Generated_Source\PSoC5/ADC_DelSig_1_IRQ.c **** * Parameters:
 301:.\Generated_Source\PSoC5/ADC_DelSig_1_IRQ.c **** *   None
 302:.\Generated_Source\PSoC5/ADC_DelSig_1_IRQ.c **** *
 303:.\Generated_Source\PSoC5/ADC_DelSig_1_IRQ.c **** * Return:
 304:.\Generated_Source\PSoC5/ADC_DelSig_1_IRQ.c **** *   None
 305:.\Generated_Source\PSoC5/ADC_DelSig_1_IRQ.c **** *
 306:.\Generated_Source\PSoC5/ADC_DelSig_1_IRQ.c **** *******************************************************************************/
 307:.\Generated_Source\PSoC5/ADC_DelSig_1_IRQ.c **** void ADC_DelSig_1_IRQ_Enable(void)
 308:.\Generated_Source\PSoC5/ADC_DelSig_1_IRQ.c **** {
 309:.\Generated_Source\PSoC5/ADC_DelSig_1_IRQ.c ****     /* Enable the general interrupt. */
 310:.\Generated_Source\PSoC5/ADC_DelSig_1_IRQ.c ****     *ADC_DelSig_1_IRQ_INTC_SET_EN = ADC_DelSig_1_IRQ__INTC_MASK;
 311:.\Generated_Source\PSoC5/ADC_DelSig_1_IRQ.c **** }
 312:.\Generated_Source\PSoC5/ADC_DelSig_1_IRQ.c **** 
 313:.\Generated_Source\PSoC5/ADC_DelSig_1_IRQ.c **** 
 314:.\Generated_Source\PSoC5/ADC_DelSig_1_IRQ.c **** /*******************************************************************************
 315:.\Generated_Source\PSoC5/ADC_DelSig_1_IRQ.c **** * Function Name: ADC_DelSig_1_IRQ_GetState
 316:.\Generated_Source\PSoC5/ADC_DelSig_1_IRQ.c **** ********************************************************************************
 317:.\Generated_Source\PSoC5/ADC_DelSig_1_IRQ.c **** *
 318:.\Generated_Source\PSoC5/ADC_DelSig_1_IRQ.c **** * Summary:
 319:.\Generated_Source\PSoC5/ADC_DelSig_1_IRQ.c **** *   Gets the state (enabled, disabled) of the Interrupt.
 320:.\Generated_Source\PSoC5/ADC_DelSig_1_IRQ.c **** *
 321:.\Generated_Source\PSoC5/ADC_DelSig_1_IRQ.c **** * Parameters:
 322:.\Generated_Source\PSoC5/ADC_DelSig_1_IRQ.c **** *   None
 323:.\Generated_Source\PSoC5/ADC_DelSig_1_IRQ.c **** *
 324:.\Generated_Source\PSoC5/ADC_DelSig_1_IRQ.c **** * Return:
 325:.\Generated_Source\PSoC5/ADC_DelSig_1_IRQ.c **** *   1 if enabled, 0 if disabled.
 326:.\Generated_Source\PSoC5/ADC_DelSig_1_IRQ.c **** *
 327:.\Generated_Source\PSoC5/ADC_DelSig_1_IRQ.c **** *******************************************************************************/
 328:.\Generated_Source\PSoC5/ADC_DelSig_1_IRQ.c **** uint8 ADC_DelSig_1_IRQ_GetState(void)
 329:.\Generated_Source\PSoC5/ADC_DelSig_1_IRQ.c **** {
 330:.\Generated_Source\PSoC5/ADC_DelSig_1_IRQ.c ****     /* Get the state of the general interrupt. */
 331:.\Generated_Source\PSoC5/ADC_DelSig_1_IRQ.c ****     return ((*ADC_DelSig_1_IRQ_INTC_SET_EN & (uint32)ADC_DelSig_1_IRQ__INTC_MASK) != 0u) ? 1u:0u;
 332:.\Generated_Source\PSoC5/ADC_DelSig_1_IRQ.c **** }
 333:.\Generated_Source\PSoC5/ADC_DelSig_1_IRQ.c **** 
 334:.\Generated_Source\PSoC5/ADC_DelSig_1_IRQ.c **** 
 335:.\Generated_Source\PSoC5/ADC_DelSig_1_IRQ.c **** /*******************************************************************************
 336:.\Generated_Source\PSoC5/ADC_DelSig_1_IRQ.c **** * Function Name: ADC_DelSig_1_IRQ_Disable
 337:.\Generated_Source\PSoC5/ADC_DelSig_1_IRQ.c **** ********************************************************************************
 338:.\Generated_Source\PSoC5/ADC_DelSig_1_IRQ.c **** *
 339:.\Generated_Source\PSoC5/ADC_DelSig_1_IRQ.c **** * Summary:
 340:.\Generated_Source\PSoC5/ADC_DelSig_1_IRQ.c **** *   Disables the Interrupt in the interrupt controller.
 341:.\Generated_Source\PSoC5/ADC_DelSig_1_IRQ.c **** *
 342:.\Generated_Source\PSoC5/ADC_DelSig_1_IRQ.c **** * Parameters:
 343:.\Generated_Source\PSoC5/ADC_DelSig_1_IRQ.c **** *   None
 344:.\Generated_Source\PSoC5/ADC_DelSig_1_IRQ.c **** *
 345:.\Generated_Source\PSoC5/ADC_DelSig_1_IRQ.c **** * Return:
 346:.\Generated_Source\PSoC5/ADC_DelSig_1_IRQ.c **** *   None
 347:.\Generated_Source\PSoC5/ADC_DelSig_1_IRQ.c **** *
 348:.\Generated_Source\PSoC5/ADC_DelSig_1_IRQ.c **** *******************************************************************************/
ARM GAS  C:\Users\IVYLIU~1\AppData\Local\Temp\ccC4ND0P.s 			page 8


 349:.\Generated_Source\PSoC5/ADC_DelSig_1_IRQ.c **** void ADC_DelSig_1_IRQ_Disable(void)
 350:.\Generated_Source\PSoC5/ADC_DelSig_1_IRQ.c **** {
 351:.\Generated_Source\PSoC5/ADC_DelSig_1_IRQ.c ****     /* Disable the general interrupt. */
 352:.\Generated_Source\PSoC5/ADC_DelSig_1_IRQ.c ****     *ADC_DelSig_1_IRQ_INTC_CLR_EN = ADC_DelSig_1_IRQ__INTC_MASK;
  51              		.loc 1 352 0
  52 0000 084A     		ldr	r2, .L3
  53 0002 4FF00053 		mov	r3, #536870912
  54 0006 1360     		str	r3, [r2]
  55              	.LVL0:
  56              	.LBE23:
  57              	.LBE22:
  58              	.LBB24:
  59              	.LBB25:
 204:.\Generated_Source\PSoC5/ADC_DelSig_1_IRQ.c **** 
  60              		.loc 1 204 0
  61 0008 02F68832 		addw	r2, r2, #2952
  62 000c 1268     		ldr	r2, [r2]
  63              	.LVL1:
 206:.\Generated_Source\PSoC5/ADC_DelSig_1_IRQ.c **** }
  64              		.loc 1 206 0
  65 000e 0649     		ldr	r1, .L3+4
  66 0010 C2F8B410 		str	r1, [r2, #180]
  67              	.LVL2:
  68              	.LBE25:
  69              	.LBE24:
  70              	.LBB26:
  71              	.LBB27:
 260:.\Generated_Source\PSoC5/ADC_DelSig_1_IRQ.c **** }
  72              		.loc 1 260 0
  73 0014 054A     		ldr	r2, .L3+8
  74              	.LVL3:
  75 0016 E021     		movs	r1, #224
  76 0018 1170     		strb	r1, [r2]
  77              	.LBE27:
  78              	.LBE26:
  79              	.LBB28:
  80              	.LBB29:
 310:.\Generated_Source\PSoC5/ADC_DelSig_1_IRQ.c **** }
  81              		.loc 1 310 0
  82 001a 6FF44771 		mvn	r1, #796
  83 001e 0A44     		add	r2, r2, r1
  84 0020 1360     		str	r3, [r2]
  85 0022 7047     		bx	lr
  86              	.L4:
  87              		.align	2
  88              	.L3:
  89 0024 80E100E0 		.word	-536813184
  90 0028 00000000 		.word	ADC_DelSig_1_IRQ_Interrupt
  91 002c 1DE400E0 		.word	-536812515
  92              	.LBE29:
  93              	.LBE28:
  94              		.cfi_endproc
  95              	.LFE0:
  96              		.size	ADC_DelSig_1_IRQ_Start, .-ADC_DelSig_1_IRQ_Start
  97              		.section	.text.ADC_DelSig_1_IRQ_StartEx,"ax",%progbits
  98              		.align	1
  99              		.global	ADC_DelSig_1_IRQ_StartEx
ARM GAS  C:\Users\IVYLIU~1\AppData\Local\Temp\ccC4ND0P.s 			page 9


 100              		.thumb
 101              		.thumb_func
 102              		.type	ADC_DelSig_1_IRQ_StartEx, %function
 103              	ADC_DelSig_1_IRQ_StartEx:
 104              	.LFB1:
 105:.\Generated_Source\PSoC5/ADC_DelSig_1_IRQ.c ****     /* For all we know the interrupt is active. */
 105              		.loc 1 105 0
 106              		.cfi_startproc
 107              		@ args = 0, pretend = 0, frame = 0
 108              		@ frame_needed = 0, uses_anonymous_args = 0
 109              		@ link register save eliminated.
 110              	.LVL4:
 111              	.LBB30:
 112              	.LBB31:
 113              		.loc 1 352 0
 114 0000 084A     		ldr	r2, .L6
 115 0002 4FF00053 		mov	r3, #536870912
 116 0006 1360     		str	r3, [r2]
 117              	.LVL5:
 118              	.LBE31:
 119              	.LBE30:
 120              	.LBB32:
 121              	.LBB33:
 204:.\Generated_Source\PSoC5/ADC_DelSig_1_IRQ.c **** 
 122              		.loc 1 204 0
 123 0008 02F68832 		addw	r2, r2, #2952
 124 000c 1268     		ldr	r2, [r2]
 125              	.LVL6:
 126              	.LBE33:
 127              	.LBE32:
 128              	.LBB35:
 129              	.LBB36:
 260:.\Generated_Source\PSoC5/ADC_DelSig_1_IRQ.c **** }
 130              		.loc 1 260 0
 131 000e E021     		movs	r1, #224
 132              	.LBE36:
 133              	.LBE35:
 134              	.LBB38:
 135              	.LBB34:
 206:.\Generated_Source\PSoC5/ADC_DelSig_1_IRQ.c **** }
 136              		.loc 1 206 0
 137 0010 C2F8B400 		str	r0, [r2, #180]
 138              	.LVL7:
 139              	.LBE34:
 140              	.LBE38:
 141              	.LBB39:
 142              	.LBB37:
 260:.\Generated_Source\PSoC5/ADC_DelSig_1_IRQ.c **** }
 143              		.loc 1 260 0
 144 0014 044A     		ldr	r2, .L6+4
 145              	.LVL8:
 146 0016 1170     		strb	r1, [r2]
 147              	.LBE37:
 148              	.LBE39:
 149              	.LBB40:
 150              	.LBB41:
 310:.\Generated_Source\PSoC5/ADC_DelSig_1_IRQ.c **** }
ARM GAS  C:\Users\IVYLIU~1\AppData\Local\Temp\ccC4ND0P.s 			page 10


 151              		.loc 1 310 0
 152 0018 6FF44771 		mvn	r1, #796
 153 001c 0A44     		add	r2, r2, r1
 154 001e 1360     		str	r3, [r2]
 155 0020 7047     		bx	lr
 156              	.L7:
 157 0022 00BF     		.align	2
 158              	.L6:
 159 0024 80E100E0 		.word	-536813184
 160 0028 1DE400E0 		.word	-536812515
 161              	.LBE41:
 162              	.LBE40:
 163              		.cfi_endproc
 164              	.LFE1:
 165              		.size	ADC_DelSig_1_IRQ_StartEx, .-ADC_DelSig_1_IRQ_StartEx
 166              		.section	.text.ADC_DelSig_1_IRQ_Stop,"ax",%progbits
 167              		.align	1
 168              		.global	ADC_DelSig_1_IRQ_Stop
 169              		.thumb
 170              		.thumb_func
 171              		.type	ADC_DelSig_1_IRQ_Stop, %function
 172              	ADC_DelSig_1_IRQ_Stop:
 173              	.LFB2:
 135:.\Generated_Source\PSoC5/ADC_DelSig_1_IRQ.c ****     /* Disable this interrupt. */
 174              		.loc 1 135 0
 175              		.cfi_startproc
 176              		@ args = 0, pretend = 0, frame = 0
 177              		@ frame_needed = 0, uses_anonymous_args = 0
 178              		@ link register save eliminated.
 179              	.LBB42:
 180              	.LBB43:
 181              		.loc 1 352 0
 182 0000 054B     		ldr	r3, .L9
 183 0002 4FF00052 		mov	r2, #536870912
 184 0006 1A60     		str	r2, [r3]
 185              	.LVL9:
 186              	.LBE43:
 187              	.LBE42:
 188              	.LBB44:
 189              	.LBB45:
 204:.\Generated_Source\PSoC5/ADC_DelSig_1_IRQ.c **** 
 190              		.loc 1 204 0
 191 0008 03F68833 		addw	r3, r3, #2952
 192 000c 1B68     		ldr	r3, [r3]
 193              	.LVL10:
 206:.\Generated_Source\PSoC5/ADC_DelSig_1_IRQ.c **** }
 194              		.loc 1 206 0
 195 000e 034A     		ldr	r2, .L9+4
 196 0010 C3F8B420 		str	r2, [r3, #180]
 197 0014 7047     		bx	lr
 198              	.L10:
 199 0016 00BF     		.align	2
 200              	.L9:
 201 0018 80E100E0 		.word	-536813184
 202 001c 00000000 		.word	IntDefaultHandler
 203              	.LBE45:
 204              	.LBE44:
ARM GAS  C:\Users\IVYLIU~1\AppData\Local\Temp\ccC4ND0P.s 			page 11


 205              		.cfi_endproc
 206              	.LFE2:
 207              		.size	ADC_DelSig_1_IRQ_Stop, .-ADC_DelSig_1_IRQ_Stop
 208              		.section	.text.ADC_DelSig_1_IRQ_SetVector,"ax",%progbits
 209              		.align	1
 210              		.global	ADC_DelSig_1_IRQ_SetVector
 211              		.thumb
 212              		.thumb_func
 213              		.type	ADC_DelSig_1_IRQ_SetVector, %function
 214              	ADC_DelSig_1_IRQ_SetVector:
 215              	.LFB4:
 201:.\Generated_Source\PSoC5/ADC_DelSig_1_IRQ.c ****     cyisraddress * ramVectorTable;
 216              		.loc 1 201 0
 217              		.cfi_startproc
 218              		@ args = 0, pretend = 0, frame = 0
 219              		@ frame_needed = 0, uses_anonymous_args = 0
 220              		@ link register save eliminated.
 221              	.LVL11:
 204:.\Generated_Source\PSoC5/ADC_DelSig_1_IRQ.c **** 
 222              		.loc 1 204 0
 223 0000 024B     		ldr	r3, .L12
 224 0002 1B68     		ldr	r3, [r3]
 225              	.LVL12:
 206:.\Generated_Source\PSoC5/ADC_DelSig_1_IRQ.c **** }
 226              		.loc 1 206 0
 227 0004 C3F8B400 		str	r0, [r3, #180]
 228 0008 7047     		bx	lr
 229              	.L13:
 230 000a 00BF     		.align	2
 231              	.L12:
 232 000c 08ED00E0 		.word	-536810232
 233              		.cfi_endproc
 234              	.LFE4:
 235              		.size	ADC_DelSig_1_IRQ_SetVector, .-ADC_DelSig_1_IRQ_SetVector
 236              		.section	.text.ADC_DelSig_1_IRQ_GetVector,"ax",%progbits
 237              		.align	1
 238              		.global	ADC_DelSig_1_IRQ_GetVector
 239              		.thumb
 240              		.thumb_func
 241              		.type	ADC_DelSig_1_IRQ_GetVector, %function
 242              	ADC_DelSig_1_IRQ_GetVector:
 243              	.LFB5:
 225:.\Generated_Source\PSoC5/ADC_DelSig_1_IRQ.c ****     cyisraddress * ramVectorTable;
 244              		.loc 1 225 0
 245              		.cfi_startproc
 246              		@ args = 0, pretend = 0, frame = 0
 247              		@ frame_needed = 0, uses_anonymous_args = 0
 248              		@ link register save eliminated.
 249              	.LVL13:
 228:.\Generated_Source\PSoC5/ADC_DelSig_1_IRQ.c **** 
 250              		.loc 1 228 0
 251 0000 024B     		ldr	r3, .L15
 252              	.LVL14:
 230:.\Generated_Source\PSoC5/ADC_DelSig_1_IRQ.c **** }
 253              		.loc 1 230 0
 254 0002 1B68     		ldr	r3, [r3]
 255              	.LVL15:
ARM GAS  C:\Users\IVYLIU~1\AppData\Local\Temp\ccC4ND0P.s 			page 12


 231:.\Generated_Source\PSoC5/ADC_DelSig_1_IRQ.c **** 
 256              		.loc 1 231 0
 257 0004 D3F8B400 		ldr	r0, [r3, #180]
 258 0008 7047     		bx	lr
 259              	.L16:
 260 000a 00BF     		.align	2
 261              	.L15:
 262 000c 08ED00E0 		.word	-536810232
 263              		.cfi_endproc
 264              	.LFE5:
 265              		.size	ADC_DelSig_1_IRQ_GetVector, .-ADC_DelSig_1_IRQ_GetVector
 266              		.section	.text.ADC_DelSig_1_IRQ_SetPriority,"ax",%progbits
 267              		.align	1
 268              		.global	ADC_DelSig_1_IRQ_SetPriority
 269              		.thumb
 270              		.thumb_func
 271              		.type	ADC_DelSig_1_IRQ_SetPriority, %function
 272              	ADC_DelSig_1_IRQ_SetPriority:
 273              	.LFB6:
 259:.\Generated_Source\PSoC5/ADC_DelSig_1_IRQ.c ****     *ADC_DelSig_1_IRQ_INTC_PRIOR = priority << 5;
 274              		.loc 1 259 0
 275              		.cfi_startproc
 276              		@ args = 0, pretend = 0, frame = 0
 277              		@ frame_needed = 0, uses_anonymous_args = 0
 278              		@ link register save eliminated.
 279              	.LVL16:
 260:.\Generated_Source\PSoC5/ADC_DelSig_1_IRQ.c **** }
 280              		.loc 1 260 0
 281 0000 4001     		lsls	r0, r0, #5
 282              	.LVL17:
 283 0002 024B     		ldr	r3, .L18
 284 0004 C0B2     		uxtb	r0, r0
 285 0006 1870     		strb	r0, [r3]
 286 0008 7047     		bx	lr
 287              	.L19:
 288 000a 00BF     		.align	2
 289              	.L18:
 290 000c 1DE400E0 		.word	-536812515
 291              		.cfi_endproc
 292              	.LFE6:
 293              		.size	ADC_DelSig_1_IRQ_SetPriority, .-ADC_DelSig_1_IRQ_SetPriority
 294              		.section	.text.ADC_DelSig_1_IRQ_GetPriority,"ax",%progbits
 295              		.align	1
 296              		.global	ADC_DelSig_1_IRQ_GetPriority
 297              		.thumb
 298              		.thumb_func
 299              		.type	ADC_DelSig_1_IRQ_GetPriority, %function
 300              	ADC_DelSig_1_IRQ_GetPriority:
 301              	.LFB7:
 281:.\Generated_Source\PSoC5/ADC_DelSig_1_IRQ.c ****     uint8 priority;
 302              		.loc 1 281 0
 303              		.cfi_startproc
 304              		@ args = 0, pretend = 0, frame = 0
 305              		@ frame_needed = 0, uses_anonymous_args = 0
 306              		@ link register save eliminated.
 285:.\Generated_Source\PSoC5/ADC_DelSig_1_IRQ.c **** 
 307              		.loc 1 285 0
ARM GAS  C:\Users\IVYLIU~1\AppData\Local\Temp\ccC4ND0P.s 			page 13


 308 0000 014B     		ldr	r3, .L21
 309 0002 1878     		ldrb	r0, [r3]	@ zero_extendqisi2
 310              	.LVL18:
 288:.\Generated_Source\PSoC5/ADC_DelSig_1_IRQ.c **** 
 311              		.loc 1 288 0
 312 0004 4009     		lsrs	r0, r0, #5
 313              	.LVL19:
 314 0006 7047     		bx	lr
 315              	.L22:
 316              		.align	2
 317              	.L21:
 318 0008 1DE400E0 		.word	-536812515
 319              		.cfi_endproc
 320              	.LFE7:
 321              		.size	ADC_DelSig_1_IRQ_GetPriority, .-ADC_DelSig_1_IRQ_GetPriority
 322              		.section	.text.ADC_DelSig_1_IRQ_Enable,"ax",%progbits
 323              		.align	1
 324              		.global	ADC_DelSig_1_IRQ_Enable
 325              		.thumb
 326              		.thumb_func
 327              		.type	ADC_DelSig_1_IRQ_Enable, %function
 328              	ADC_DelSig_1_IRQ_Enable:
 329              	.LFB8:
 308:.\Generated_Source\PSoC5/ADC_DelSig_1_IRQ.c ****     /* Enable the general interrupt. */
 330              		.loc 1 308 0
 331              		.cfi_startproc
 332              		@ args = 0, pretend = 0, frame = 0
 333              		@ frame_needed = 0, uses_anonymous_args = 0
 334              		@ link register save eliminated.
 310:.\Generated_Source\PSoC5/ADC_DelSig_1_IRQ.c **** }
 335              		.loc 1 310 0
 336 0000 024B     		ldr	r3, .L24
 337 0002 4FF00052 		mov	r2, #536870912
 338 0006 1A60     		str	r2, [r3]
 339 0008 7047     		bx	lr
 340              	.L25:
 341 000a 00BF     		.align	2
 342              	.L24:
 343 000c 00E100E0 		.word	-536813312
 344              		.cfi_endproc
 345              	.LFE8:
 346              		.size	ADC_DelSig_1_IRQ_Enable, .-ADC_DelSig_1_IRQ_Enable
 347              		.section	.text.ADC_DelSig_1_IRQ_GetState,"ax",%progbits
 348              		.align	1
 349              		.global	ADC_DelSig_1_IRQ_GetState
 350              		.thumb
 351              		.thumb_func
 352              		.type	ADC_DelSig_1_IRQ_GetState, %function
 353              	ADC_DelSig_1_IRQ_GetState:
 354              	.LFB9:
 329:.\Generated_Source\PSoC5/ADC_DelSig_1_IRQ.c ****     /* Get the state of the general interrupt. */
 355              		.loc 1 329 0
 356              		.cfi_startproc
 357              		@ args = 0, pretend = 0, frame = 0
 358              		@ frame_needed = 0, uses_anonymous_args = 0
 359              		@ link register save eliminated.
 331:.\Generated_Source\PSoC5/ADC_DelSig_1_IRQ.c **** }
ARM GAS  C:\Users\IVYLIU~1\AppData\Local\Temp\ccC4ND0P.s 			page 14


 360              		.loc 1 331 0
 361 0000 024B     		ldr	r3, .L27
 362 0002 1868     		ldr	r0, [r3]
 332:.\Generated_Source\PSoC5/ADC_DelSig_1_IRQ.c **** 
 363              		.loc 1 332 0
 364 0004 C0F34070 		ubfx	r0, r0, #29, #1
 365 0008 7047     		bx	lr
 366              	.L28:
 367 000a 00BF     		.align	2
 368              	.L27:
 369 000c 00E100E0 		.word	-536813312
 370              		.cfi_endproc
 371              	.LFE9:
 372              		.size	ADC_DelSig_1_IRQ_GetState, .-ADC_DelSig_1_IRQ_GetState
 373              		.section	.text.ADC_DelSig_1_IRQ_Disable,"ax",%progbits
 374              		.align	1
 375              		.global	ADC_DelSig_1_IRQ_Disable
 376              		.thumb
 377              		.thumb_func
 378              		.type	ADC_DelSig_1_IRQ_Disable, %function
 379              	ADC_DelSig_1_IRQ_Disable:
 380              	.LFB10:
 350:.\Generated_Source\PSoC5/ADC_DelSig_1_IRQ.c ****     /* Disable the general interrupt. */
 381              		.loc 1 350 0
 382              		.cfi_startproc
 383              		@ args = 0, pretend = 0, frame = 0
 384              		@ frame_needed = 0, uses_anonymous_args = 0
 385              		@ link register save eliminated.
 386              		.loc 1 352 0
 387 0000 024B     		ldr	r3, .L30
 388 0002 4FF00052 		mov	r2, #536870912
 389 0006 1A60     		str	r2, [r3]
 390 0008 7047     		bx	lr
 391              	.L31:
 392 000a 00BF     		.align	2
 393              	.L30:
 394 000c 80E100E0 		.word	-536813184
 395              		.cfi_endproc
 396              	.LFE10:
 397              		.size	ADC_DelSig_1_IRQ_Disable, .-ADC_DelSig_1_IRQ_Disable
 398              		.section	.text.ADC_DelSig_1_IRQ_SetPending,"ax",%progbits
 399              		.align	1
 400              		.global	ADC_DelSig_1_IRQ_SetPending
 401              		.thumb
 402              		.thumb_func
 403              		.type	ADC_DelSig_1_IRQ_SetPending, %function
 404              	ADC_DelSig_1_IRQ_SetPending:
 405              	.LFB11:
 353:.\Generated_Source\PSoC5/ADC_DelSig_1_IRQ.c **** }
 354:.\Generated_Source\PSoC5/ADC_DelSig_1_IRQ.c **** 
 355:.\Generated_Source\PSoC5/ADC_DelSig_1_IRQ.c **** 
 356:.\Generated_Source\PSoC5/ADC_DelSig_1_IRQ.c **** /*******************************************************************************
 357:.\Generated_Source\PSoC5/ADC_DelSig_1_IRQ.c **** * Function Name: ADC_DelSig_1_IRQ_SetPending
 358:.\Generated_Source\PSoC5/ADC_DelSig_1_IRQ.c **** ********************************************************************************
 359:.\Generated_Source\PSoC5/ADC_DelSig_1_IRQ.c **** *
 360:.\Generated_Source\PSoC5/ADC_DelSig_1_IRQ.c **** * Summary:
 361:.\Generated_Source\PSoC5/ADC_DelSig_1_IRQ.c **** *   Causes the Interrupt to enter the pending state, a software method of
ARM GAS  C:\Users\IVYLIU~1\AppData\Local\Temp\ccC4ND0P.s 			page 15


 362:.\Generated_Source\PSoC5/ADC_DelSig_1_IRQ.c **** *   generating the interrupt.
 363:.\Generated_Source\PSoC5/ADC_DelSig_1_IRQ.c **** *
 364:.\Generated_Source\PSoC5/ADC_DelSig_1_IRQ.c **** * Parameters:
 365:.\Generated_Source\PSoC5/ADC_DelSig_1_IRQ.c **** *   None
 366:.\Generated_Source\PSoC5/ADC_DelSig_1_IRQ.c **** *
 367:.\Generated_Source\PSoC5/ADC_DelSig_1_IRQ.c **** * Return:
 368:.\Generated_Source\PSoC5/ADC_DelSig_1_IRQ.c **** *   None
 369:.\Generated_Source\PSoC5/ADC_DelSig_1_IRQ.c **** *
 370:.\Generated_Source\PSoC5/ADC_DelSig_1_IRQ.c **** * Side Effects:
 371:.\Generated_Source\PSoC5/ADC_DelSig_1_IRQ.c **** *   If interrupts are enabled and the interrupt is set up properly, the ISR is
 372:.\Generated_Source\PSoC5/ADC_DelSig_1_IRQ.c **** *   entered (depending on the priority of this interrupt and other pending 
 373:.\Generated_Source\PSoC5/ADC_DelSig_1_IRQ.c **** *   interrupts).
 374:.\Generated_Source\PSoC5/ADC_DelSig_1_IRQ.c **** *
 375:.\Generated_Source\PSoC5/ADC_DelSig_1_IRQ.c **** *******************************************************************************/
 376:.\Generated_Source\PSoC5/ADC_DelSig_1_IRQ.c **** void ADC_DelSig_1_IRQ_SetPending(void)
 377:.\Generated_Source\PSoC5/ADC_DelSig_1_IRQ.c **** {
 406              		.loc 1 377 0
 407              		.cfi_startproc
 408              		@ args = 0, pretend = 0, frame = 0
 409              		@ frame_needed = 0, uses_anonymous_args = 0
 410              		@ link register save eliminated.
 378:.\Generated_Source\PSoC5/ADC_DelSig_1_IRQ.c ****     *ADC_DelSig_1_IRQ_INTC_SET_PD = ADC_DelSig_1_IRQ__INTC_MASK;
 411              		.loc 1 378 0
 412 0000 024B     		ldr	r3, .L33
 413 0002 4FF00052 		mov	r2, #536870912
 414 0006 1A60     		str	r2, [r3]
 415 0008 7047     		bx	lr
 416              	.L34:
 417 000a 00BF     		.align	2
 418              	.L33:
 419 000c 00E200E0 		.word	-536813056
 420              		.cfi_endproc
 421              	.LFE11:
 422              		.size	ADC_DelSig_1_IRQ_SetPending, .-ADC_DelSig_1_IRQ_SetPending
 423              		.section	.text.ADC_DelSig_1_IRQ_ClearPending,"ax",%progbits
 424              		.align	1
 425              		.global	ADC_DelSig_1_IRQ_ClearPending
 426              		.thumb
 427              		.thumb_func
 428              		.type	ADC_DelSig_1_IRQ_ClearPending, %function
 429              	ADC_DelSig_1_IRQ_ClearPending:
 430              	.LFB12:
 379:.\Generated_Source\PSoC5/ADC_DelSig_1_IRQ.c **** }
 380:.\Generated_Source\PSoC5/ADC_DelSig_1_IRQ.c **** 
 381:.\Generated_Source\PSoC5/ADC_DelSig_1_IRQ.c **** 
 382:.\Generated_Source\PSoC5/ADC_DelSig_1_IRQ.c **** /*******************************************************************************
 383:.\Generated_Source\PSoC5/ADC_DelSig_1_IRQ.c **** * Function Name: ADC_DelSig_1_IRQ_ClearPending
 384:.\Generated_Source\PSoC5/ADC_DelSig_1_IRQ.c **** ********************************************************************************
 385:.\Generated_Source\PSoC5/ADC_DelSig_1_IRQ.c **** *
 386:.\Generated_Source\PSoC5/ADC_DelSig_1_IRQ.c **** * Summary:
 387:.\Generated_Source\PSoC5/ADC_DelSig_1_IRQ.c **** *   Clears a pending interrupt in the interrupt controller.
 388:.\Generated_Source\PSoC5/ADC_DelSig_1_IRQ.c **** *
 389:.\Generated_Source\PSoC5/ADC_DelSig_1_IRQ.c **** *   Note Some interrupt sources are clear-on-read and require the block 
 390:.\Generated_Source\PSoC5/ADC_DelSig_1_IRQ.c **** *   interrupt/status register to be read/cleared with the appropriate block API 
 391:.\Generated_Source\PSoC5/ADC_DelSig_1_IRQ.c **** *   (GPIO, UART, and so on). Otherwise the ISR will continue to remain in 
 392:.\Generated_Source\PSoC5/ADC_DelSig_1_IRQ.c **** *   pending state even though the interrupt itself is cleared using this API.
 393:.\Generated_Source\PSoC5/ADC_DelSig_1_IRQ.c **** *
ARM GAS  C:\Users\IVYLIU~1\AppData\Local\Temp\ccC4ND0P.s 			page 16


 394:.\Generated_Source\PSoC5/ADC_DelSig_1_IRQ.c **** * Parameters:
 395:.\Generated_Source\PSoC5/ADC_DelSig_1_IRQ.c **** *   None
 396:.\Generated_Source\PSoC5/ADC_DelSig_1_IRQ.c **** *
 397:.\Generated_Source\PSoC5/ADC_DelSig_1_IRQ.c **** * Return:
 398:.\Generated_Source\PSoC5/ADC_DelSig_1_IRQ.c **** *   None
 399:.\Generated_Source\PSoC5/ADC_DelSig_1_IRQ.c **** *
 400:.\Generated_Source\PSoC5/ADC_DelSig_1_IRQ.c **** *******************************************************************************/
 401:.\Generated_Source\PSoC5/ADC_DelSig_1_IRQ.c **** void ADC_DelSig_1_IRQ_ClearPending(void)
 402:.\Generated_Source\PSoC5/ADC_DelSig_1_IRQ.c **** {
 431              		.loc 1 402 0
 432              		.cfi_startproc
 433              		@ args = 0, pretend = 0, frame = 0
 434              		@ frame_needed = 0, uses_anonymous_args = 0
 435              		@ link register save eliminated.
 403:.\Generated_Source\PSoC5/ADC_DelSig_1_IRQ.c ****     *ADC_DelSig_1_IRQ_INTC_CLR_PD = ADC_DelSig_1_IRQ__INTC_MASK;
 436              		.loc 1 403 0
 437 0000 024B     		ldr	r3, .L36
 438 0002 4FF00052 		mov	r2, #536870912
 439 0006 1A60     		str	r2, [r3]
 440 0008 7047     		bx	lr
 441              	.L37:
 442 000a 00BF     		.align	2
 443              	.L36:
 444 000c 80E200E0 		.word	-536812928
 445              		.cfi_endproc
 446              	.LFE12:
 447              		.size	ADC_DelSig_1_IRQ_ClearPending, .-ADC_DelSig_1_IRQ_ClearPending
 448              		.text
 449              	.Letext0:
 450              		.file 2 "Generated_Source\\PSoC5/cytypes.h"