ARM GAS  C:\Users\IVYLIU~1\AppData\Local\Temp\ccJZ4Cfb.s 			page 1


   1              		.syntax unified
   2              		.cpu cortex-m3
   3              		.fpu softvfp
   4              		.eabi_attribute 20, 1
   5              		.eabi_attribute 21, 1
   6              		.eabi_attribute 23, 3
   7              		.eabi_attribute 24, 1
   8              		.eabi_attribute 25, 1
   9              		.eabi_attribute 26, 1
  10              		.eabi_attribute 30, 4
  11              		.eabi_attribute 34, 1
  12              		.eabi_attribute 18, 4
  13              		.thumb
  14              		.file	"arm_max_f32.c"
  15              		.text
  16              	.Ltext0:
  17              		.cfi_sections	.debug_frame
  18              		.global	__aeabi_fcmplt
  19              		.section	.text.arm_max_f32,"ax",%progbits
  20              		.align	1
  21              		.global	arm_max_f32
  22              		.thumb
  23              		.thumb_func
  24              		.type	arm_max_f32, %function
  25              	arm_max_f32:
  26              	.LFB84:
  27              		.file 1 ".\\DSP\\Source\\StatisticsFunctions\\arm_max_f32.c"
   1:.\DSP\Source\StatisticsFunctions/arm_max_f32.c **** /* ----------------------------------------------------------------------
   2:.\DSP\Source\StatisticsFunctions/arm_max_f32.c ****  * Project:      CMSIS DSP Library
   3:.\DSP\Source\StatisticsFunctions/arm_max_f32.c ****  * Title:        arm_max_f32.c
   4:.\DSP\Source\StatisticsFunctions/arm_max_f32.c ****  * Description:  Maximum value of a floating-point vector
   5:.\DSP\Source\StatisticsFunctions/arm_max_f32.c ****  *
   6:.\DSP\Source\StatisticsFunctions/arm_max_f32.c ****  * $Date:        23 April 2021
   7:.\DSP\Source\StatisticsFunctions/arm_max_f32.c ****  * $Revision:    V1.9.0
   8:.\DSP\Source\StatisticsFunctions/arm_max_f32.c ****  *
   9:.\DSP\Source\StatisticsFunctions/arm_max_f32.c ****  * Target Processor: Cortex-M and Cortex-A cores
  10:.\DSP\Source\StatisticsFunctions/arm_max_f32.c ****  * -------------------------------------------------------------------- */
  11:.\DSP\Source\StatisticsFunctions/arm_max_f32.c **** /*
  12:.\DSP\Source\StatisticsFunctions/arm_max_f32.c ****  * Copyright (C) 2010-2021 ARM Limited or its affiliates. All rights reserved.
  13:.\DSP\Source\StatisticsFunctions/arm_max_f32.c ****  *
  14:.\DSP\Source\StatisticsFunctions/arm_max_f32.c ****  * SPDX-License-Identifier: Apache-2.0
  15:.\DSP\Source\StatisticsFunctions/arm_max_f32.c ****  *
  16:.\DSP\Source\StatisticsFunctions/arm_max_f32.c ****  * Licensed under the Apache License, Version 2.0 (the License); you may
  17:.\DSP\Source\StatisticsFunctions/arm_max_f32.c ****  * not use this file except in compliance with the License.
  18:.\DSP\Source\StatisticsFunctions/arm_max_f32.c ****  * You may obtain a copy of the License at
  19:.\DSP\Source\StatisticsFunctions/arm_max_f32.c ****  *
  20:.\DSP\Source\StatisticsFunctions/arm_max_f32.c ****  * www.apache.org/licenses/LICENSE-2.0
  21:.\DSP\Source\StatisticsFunctions/arm_max_f32.c ****  *
  22:.\DSP\Source\StatisticsFunctions/arm_max_f32.c ****  * Unless required by applicable law or agreed to in writing, software
  23:.\DSP\Source\StatisticsFunctions/arm_max_f32.c ****  * distributed under the License is distributed on an AS IS BASIS, WITHOUT
  24:.\DSP\Source\StatisticsFunctions/arm_max_f32.c ****  * WARRANTIES OR CONDITIONS OF ANY KIND, either express or implied.
  25:.\DSP\Source\StatisticsFunctions/arm_max_f32.c ****  * See the License for the specific language governing permissions and
  26:.\DSP\Source\StatisticsFunctions/arm_max_f32.c ****  * limitations under the License.
  27:.\DSP\Source\StatisticsFunctions/arm_max_f32.c ****  */
  28:.\DSP\Source\StatisticsFunctions/arm_max_f32.c **** 
  29:.\DSP\Source\StatisticsFunctions/arm_max_f32.c **** #include "dsp/statistics_functions.h"
  30:.\DSP\Source\StatisticsFunctions/arm_max_f32.c **** #if (defined(ARM_MATH_NEON) || defined(ARM_MATH_MVEF)) && !defined(ARM_MATH_AUTOVECTORIZE)
ARM GAS  C:\Users\IVYLIU~1\AppData\Local\Temp\ccJZ4Cfb.s 			page 2


  31:.\DSP\Source\StatisticsFunctions/arm_max_f32.c **** #include <limits.h>
  32:.\DSP\Source\StatisticsFunctions/arm_max_f32.c **** #endif
  33:.\DSP\Source\StatisticsFunctions/arm_max_f32.c **** 
  34:.\DSP\Source\StatisticsFunctions/arm_max_f32.c **** /**
  35:.\DSP\Source\StatisticsFunctions/arm_max_f32.c ****   @ingroup groupStats
  36:.\DSP\Source\StatisticsFunctions/arm_max_f32.c ****  */
  37:.\DSP\Source\StatisticsFunctions/arm_max_f32.c **** 
  38:.\DSP\Source\StatisticsFunctions/arm_max_f32.c **** /**
  39:.\DSP\Source\StatisticsFunctions/arm_max_f32.c ****   @defgroup Max Maximum
  40:.\DSP\Source\StatisticsFunctions/arm_max_f32.c **** 
  41:.\DSP\Source\StatisticsFunctions/arm_max_f32.c ****   Computes the maximum value of an array of data.
  42:.\DSP\Source\StatisticsFunctions/arm_max_f32.c ****   The function returns both the maximum value and its position within the array.
  43:.\DSP\Source\StatisticsFunctions/arm_max_f32.c ****   There are separate functions for floating-point, Q31, Q15, and Q7 data types.
  44:.\DSP\Source\StatisticsFunctions/arm_max_f32.c ****  */
  45:.\DSP\Source\StatisticsFunctions/arm_max_f32.c **** 
  46:.\DSP\Source\StatisticsFunctions/arm_max_f32.c **** /**
  47:.\DSP\Source\StatisticsFunctions/arm_max_f32.c ****   @addtogroup Max
  48:.\DSP\Source\StatisticsFunctions/arm_max_f32.c ****   @{
  49:.\DSP\Source\StatisticsFunctions/arm_max_f32.c ****  */
  50:.\DSP\Source\StatisticsFunctions/arm_max_f32.c **** 
  51:.\DSP\Source\StatisticsFunctions/arm_max_f32.c **** /**
  52:.\DSP\Source\StatisticsFunctions/arm_max_f32.c ****   @brief         Maximum value of a floating-point vector.
  53:.\DSP\Source\StatisticsFunctions/arm_max_f32.c ****   @param[in]     pSrc       points to the input vector
  54:.\DSP\Source\StatisticsFunctions/arm_max_f32.c ****   @param[in]     blockSize  number of samples in input vector
  55:.\DSP\Source\StatisticsFunctions/arm_max_f32.c ****   @param[out]    pResult    maximum value returned here
  56:.\DSP\Source\StatisticsFunctions/arm_max_f32.c ****   @param[out]    pIndex     index of maximum value returned here
  57:.\DSP\Source\StatisticsFunctions/arm_max_f32.c ****   @return        none
  58:.\DSP\Source\StatisticsFunctions/arm_max_f32.c ****  */
  59:.\DSP\Source\StatisticsFunctions/arm_max_f32.c **** 
  60:.\DSP\Source\StatisticsFunctions/arm_max_f32.c **** #if defined(ARM_MATH_MVEF) && !defined(ARM_MATH_AUTOVECTORIZE)
  61:.\DSP\Source\StatisticsFunctions/arm_max_f32.c **** void arm_max_f32(
  62:.\DSP\Source\StatisticsFunctions/arm_max_f32.c ****   const float32_t * pSrc,
  63:.\DSP\Source\StatisticsFunctions/arm_max_f32.c ****   uint32_t blockSize,
  64:.\DSP\Source\StatisticsFunctions/arm_max_f32.c ****   float32_t * pResult,
  65:.\DSP\Source\StatisticsFunctions/arm_max_f32.c ****   uint32_t * pIndex)
  66:.\DSP\Source\StatisticsFunctions/arm_max_f32.c **** {
  67:.\DSP\Source\StatisticsFunctions/arm_max_f32.c ****     uint32_t blkCnt; 
  68:.\DSP\Source\StatisticsFunctions/arm_max_f32.c ****     f32x4_t vecSrc;
  69:.\DSP\Source\StatisticsFunctions/arm_max_f32.c ****     f32x4_t curExtremValVec = vdupq_n_f32(F32_MIN);
  70:.\DSP\Source\StatisticsFunctions/arm_max_f32.c ****     float32_t maxValue = F32_MIN;
  71:.\DSP\Source\StatisticsFunctions/arm_max_f32.c ****     uint32_t idx = blockSize;
  72:.\DSP\Source\StatisticsFunctions/arm_max_f32.c ****     uint32x4_t indexVec;
  73:.\DSP\Source\StatisticsFunctions/arm_max_f32.c ****     uint32x4_t curExtremIdxVec;
  74:.\DSP\Source\StatisticsFunctions/arm_max_f32.c ****     uint32_t curIdx = 0;
  75:.\DSP\Source\StatisticsFunctions/arm_max_f32.c ****     mve_pred16_t p0;
  76:.\DSP\Source\StatisticsFunctions/arm_max_f32.c ****     float32_t tmp;
  77:.\DSP\Source\StatisticsFunctions/arm_max_f32.c **** 
  78:.\DSP\Source\StatisticsFunctions/arm_max_f32.c **** 
  79:.\DSP\Source\StatisticsFunctions/arm_max_f32.c ****     indexVec = vidupq_wb_u32(&curIdx, 1);
  80:.\DSP\Source\StatisticsFunctions/arm_max_f32.c ****     curExtremIdxVec = vdupq_n_u32(0);
  81:.\DSP\Source\StatisticsFunctions/arm_max_f32.c **** 
  82:.\DSP\Source\StatisticsFunctions/arm_max_f32.c ****     /* Compute 4 outputs at a time */
  83:.\DSP\Source\StatisticsFunctions/arm_max_f32.c ****     blkCnt = blockSize >> 2U;
  84:.\DSP\Source\StatisticsFunctions/arm_max_f32.c ****     while (blkCnt > 0U)
  85:.\DSP\Source\StatisticsFunctions/arm_max_f32.c ****     {
  86:.\DSP\Source\StatisticsFunctions/arm_max_f32.c ****         vecSrc = vldrwq_f32(pSrc);
  87:.\DSP\Source\StatisticsFunctions/arm_max_f32.c ****         /*
ARM GAS  C:\Users\IVYLIU~1\AppData\Local\Temp\ccJZ4Cfb.s 			page 3


  88:.\DSP\Source\StatisticsFunctions/arm_max_f32.c ****          * Get current max per lane and current index per lane
  89:.\DSP\Source\StatisticsFunctions/arm_max_f32.c ****          * when a max is selected
  90:.\DSP\Source\StatisticsFunctions/arm_max_f32.c ****          */
  91:.\DSP\Source\StatisticsFunctions/arm_max_f32.c ****         p0 = vcmpgeq(vecSrc, curExtremValVec);
  92:.\DSP\Source\StatisticsFunctions/arm_max_f32.c ****         curExtremValVec = vpselq(vecSrc, curExtremValVec, p0);
  93:.\DSP\Source\StatisticsFunctions/arm_max_f32.c ****         curExtremIdxVec = vpselq(indexVec, curExtremIdxVec, p0);
  94:.\DSP\Source\StatisticsFunctions/arm_max_f32.c **** 
  95:.\DSP\Source\StatisticsFunctions/arm_max_f32.c ****         indexVec = vidupq_wb_u32(&curIdx, 1);
  96:.\DSP\Source\StatisticsFunctions/arm_max_f32.c **** 
  97:.\DSP\Source\StatisticsFunctions/arm_max_f32.c ****         pSrc += 4;
  98:.\DSP\Source\StatisticsFunctions/arm_max_f32.c ****         /* Decrement the loop counter */
  99:.\DSP\Source\StatisticsFunctions/arm_max_f32.c ****         blkCnt--;
 100:.\DSP\Source\StatisticsFunctions/arm_max_f32.c ****     }
 101:.\DSP\Source\StatisticsFunctions/arm_max_f32.c **** 
 102:.\DSP\Source\StatisticsFunctions/arm_max_f32.c **** 
 103:.\DSP\Source\StatisticsFunctions/arm_max_f32.c ****     /*
 104:.\DSP\Source\StatisticsFunctions/arm_max_f32.c ****      * Get max value across the vector
 105:.\DSP\Source\StatisticsFunctions/arm_max_f32.c ****      */
 106:.\DSP\Source\StatisticsFunctions/arm_max_f32.c ****     maxValue = vmaxnmvq(maxValue, curExtremValVec);
 107:.\DSP\Source\StatisticsFunctions/arm_max_f32.c ****     /*
 108:.\DSP\Source\StatisticsFunctions/arm_max_f32.c ****      * set index for lower values to max possible index
 109:.\DSP\Source\StatisticsFunctions/arm_max_f32.c ****      */
 110:.\DSP\Source\StatisticsFunctions/arm_max_f32.c ****     p0 = vcmpgeq(curExtremValVec, maxValue);
 111:.\DSP\Source\StatisticsFunctions/arm_max_f32.c ****     indexVec = vpselq(curExtremIdxVec, vdupq_n_u32(blockSize), p0);
 112:.\DSP\Source\StatisticsFunctions/arm_max_f32.c ****     /*
 113:.\DSP\Source\StatisticsFunctions/arm_max_f32.c ****      * Get min index which is thus for a max value
 114:.\DSP\Source\StatisticsFunctions/arm_max_f32.c ****      */
 115:.\DSP\Source\StatisticsFunctions/arm_max_f32.c ****     idx = vminvq(idx, indexVec);
 116:.\DSP\Source\StatisticsFunctions/arm_max_f32.c **** 
 117:.\DSP\Source\StatisticsFunctions/arm_max_f32.c ****     /* Tail */
 118:.\DSP\Source\StatisticsFunctions/arm_max_f32.c ****     blkCnt = blockSize & 0x3;
 119:.\DSP\Source\StatisticsFunctions/arm_max_f32.c **** 
 120:.\DSP\Source\StatisticsFunctions/arm_max_f32.c ****     while (blkCnt > 0U)
 121:.\DSP\Source\StatisticsFunctions/arm_max_f32.c ****     {
 122:.\DSP\Source\StatisticsFunctions/arm_max_f32.c ****       /* Initialize tmp to the next consecutive values one by one */
 123:.\DSP\Source\StatisticsFunctions/arm_max_f32.c ****       tmp = *pSrc++;
 124:.\DSP\Source\StatisticsFunctions/arm_max_f32.c **** 
 125:.\DSP\Source\StatisticsFunctions/arm_max_f32.c ****       /* compare for the maximum value */
 126:.\DSP\Source\StatisticsFunctions/arm_max_f32.c ****       if (maxValue < tmp)
 127:.\DSP\Source\StatisticsFunctions/arm_max_f32.c ****       {
 128:.\DSP\Source\StatisticsFunctions/arm_max_f32.c ****         /* Update the maximum value and it's index */
 129:.\DSP\Source\StatisticsFunctions/arm_max_f32.c ****         maxValue = tmp;
 130:.\DSP\Source\StatisticsFunctions/arm_max_f32.c ****         idx = blockSize - blkCnt;
 131:.\DSP\Source\StatisticsFunctions/arm_max_f32.c ****       }
 132:.\DSP\Source\StatisticsFunctions/arm_max_f32.c **** 
 133:.\DSP\Source\StatisticsFunctions/arm_max_f32.c ****       /* Decrement loop counter */
 134:.\DSP\Source\StatisticsFunctions/arm_max_f32.c ****       blkCnt--;
 135:.\DSP\Source\StatisticsFunctions/arm_max_f32.c ****     }
 136:.\DSP\Source\StatisticsFunctions/arm_max_f32.c **** 
 137:.\DSP\Source\StatisticsFunctions/arm_max_f32.c ****     /*
 138:.\DSP\Source\StatisticsFunctions/arm_max_f32.c ****      * Save result
 139:.\DSP\Source\StatisticsFunctions/arm_max_f32.c ****      */
 140:.\DSP\Source\StatisticsFunctions/arm_max_f32.c ****     *pIndex = idx;
 141:.\DSP\Source\StatisticsFunctions/arm_max_f32.c ****     *pResult = maxValue;
 142:.\DSP\Source\StatisticsFunctions/arm_max_f32.c **** }
 143:.\DSP\Source\StatisticsFunctions/arm_max_f32.c **** 
 144:.\DSP\Source\StatisticsFunctions/arm_max_f32.c **** #else
ARM GAS  C:\Users\IVYLIU~1\AppData\Local\Temp\ccJZ4Cfb.s 			page 4


 145:.\DSP\Source\StatisticsFunctions/arm_max_f32.c **** #if defined(ARM_MATH_NEON) && !defined(ARM_MATH_AUTOVECTORIZE)
 146:.\DSP\Source\StatisticsFunctions/arm_max_f32.c **** void arm_max_f32(
 147:.\DSP\Source\StatisticsFunctions/arm_max_f32.c ****   const float32_t * pSrc,
 148:.\DSP\Source\StatisticsFunctions/arm_max_f32.c ****   uint32_t blockSize,
 149:.\DSP\Source\StatisticsFunctions/arm_max_f32.c ****   float32_t * pResult,
 150:.\DSP\Source\StatisticsFunctions/arm_max_f32.c ****   uint32_t * pIndex)
 151:.\DSP\Source\StatisticsFunctions/arm_max_f32.c **** {
 152:.\DSP\Source\StatisticsFunctions/arm_max_f32.c ****   float32_t maxVal1, out;               /* Temporary variables to store the output value. */
 153:.\DSP\Source\StatisticsFunctions/arm_max_f32.c ****   uint32_t blkCnt, outIndex;              /* loop counter */
 154:.\DSP\Source\StatisticsFunctions/arm_max_f32.c **** 
 155:.\DSP\Source\StatisticsFunctions/arm_max_f32.c ****   float32x4_t outV, srcV;
 156:.\DSP\Source\StatisticsFunctions/arm_max_f32.c ****   float32x2_t outV2;
 157:.\DSP\Source\StatisticsFunctions/arm_max_f32.c **** 
 158:.\DSP\Source\StatisticsFunctions/arm_max_f32.c ****   uint32x4_t idxV;
 159:.\DSP\Source\StatisticsFunctions/arm_max_f32.c ****   uint32x4_t maxIdx;
 160:.\DSP\Source\StatisticsFunctions/arm_max_f32.c ****   static const uint32_t indexInit[4]={4,5,6,7};
 161:.\DSP\Source\StatisticsFunctions/arm_max_f32.c ****   static const uint32_t countVInit[4]={0,1,2,3};
 162:.\DSP\Source\StatisticsFunctions/arm_max_f32.c **** 
 163:.\DSP\Source\StatisticsFunctions/arm_max_f32.c ****   uint32x4_t index;
 164:.\DSP\Source\StatisticsFunctions/arm_max_f32.c ****   uint32x4_t delta;
 165:.\DSP\Source\StatisticsFunctions/arm_max_f32.c ****   uint32x4_t countV;
 166:.\DSP\Source\StatisticsFunctions/arm_max_f32.c ****   uint32x2_t countV2;
 167:.\DSP\Source\StatisticsFunctions/arm_max_f32.c **** 
 168:.\DSP\Source\StatisticsFunctions/arm_max_f32.c ****   maxIdx = vdupq_n_u32(ULONG_MAX);
 169:.\DSP\Source\StatisticsFunctions/arm_max_f32.c ****   delta = vdupq_n_u32(4);
 170:.\DSP\Source\StatisticsFunctions/arm_max_f32.c ****   index = vld1q_u32(indexInit);
 171:.\DSP\Source\StatisticsFunctions/arm_max_f32.c ****   countV = vld1q_u32(countVInit);
 172:.\DSP\Source\StatisticsFunctions/arm_max_f32.c **** 
 173:.\DSP\Source\StatisticsFunctions/arm_max_f32.c **** 
 174:.\DSP\Source\StatisticsFunctions/arm_max_f32.c ****   /* Initialise the index value to zero. */
 175:.\DSP\Source\StatisticsFunctions/arm_max_f32.c ****   outIndex = 0U;
 176:.\DSP\Source\StatisticsFunctions/arm_max_f32.c **** 
 177:.\DSP\Source\StatisticsFunctions/arm_max_f32.c ****   /* Load first input value that act as reference value for comparison */
 178:.\DSP\Source\StatisticsFunctions/arm_max_f32.c ****   if (blockSize <= 3)
 179:.\DSP\Source\StatisticsFunctions/arm_max_f32.c ****   {
 180:.\DSP\Source\StatisticsFunctions/arm_max_f32.c ****       out = *pSrc++;
 181:.\DSP\Source\StatisticsFunctions/arm_max_f32.c **** 
 182:.\DSP\Source\StatisticsFunctions/arm_max_f32.c ****       blkCnt = blockSize - 1;
 183:.\DSP\Source\StatisticsFunctions/arm_max_f32.c **** 
 184:.\DSP\Source\StatisticsFunctions/arm_max_f32.c ****       while (blkCnt > 0U)
 185:.\DSP\Source\StatisticsFunctions/arm_max_f32.c ****       {
 186:.\DSP\Source\StatisticsFunctions/arm_max_f32.c ****         /* Initialize maxVal to the next consecutive values one by one */
 187:.\DSP\Source\StatisticsFunctions/arm_max_f32.c ****         maxVal1 = *pSrc++;
 188:.\DSP\Source\StatisticsFunctions/arm_max_f32.c ****     
 189:.\DSP\Source\StatisticsFunctions/arm_max_f32.c ****         /* compare for the maximum value */
 190:.\DSP\Source\StatisticsFunctions/arm_max_f32.c ****         if (out < maxVal1)
 191:.\DSP\Source\StatisticsFunctions/arm_max_f32.c ****         {
 192:.\DSP\Source\StatisticsFunctions/arm_max_f32.c ****           /* Update the maximum value and it's index */
 193:.\DSP\Source\StatisticsFunctions/arm_max_f32.c ****           out = maxVal1;
 194:.\DSP\Source\StatisticsFunctions/arm_max_f32.c ****           outIndex = blockSize - blkCnt;
 195:.\DSP\Source\StatisticsFunctions/arm_max_f32.c ****         }
 196:.\DSP\Source\StatisticsFunctions/arm_max_f32.c ****     
 197:.\DSP\Source\StatisticsFunctions/arm_max_f32.c ****         /* Decrement the loop counter */
 198:.\DSP\Source\StatisticsFunctions/arm_max_f32.c ****         blkCnt--;
 199:.\DSP\Source\StatisticsFunctions/arm_max_f32.c ****       }
 200:.\DSP\Source\StatisticsFunctions/arm_max_f32.c ****   }
 201:.\DSP\Source\StatisticsFunctions/arm_max_f32.c ****   else
ARM GAS  C:\Users\IVYLIU~1\AppData\Local\Temp\ccJZ4Cfb.s 			page 5


 202:.\DSP\Source\StatisticsFunctions/arm_max_f32.c ****   {
 203:.\DSP\Source\StatisticsFunctions/arm_max_f32.c ****       outV = vld1q_f32(pSrc);
 204:.\DSP\Source\StatisticsFunctions/arm_max_f32.c ****       pSrc += 4;
 205:.\DSP\Source\StatisticsFunctions/arm_max_f32.c ****  
 206:.\DSP\Source\StatisticsFunctions/arm_max_f32.c ****       /* Compute 4 outputs at a time */
 207:.\DSP\Source\StatisticsFunctions/arm_max_f32.c ****       blkCnt = (blockSize - 4 ) >> 2U;
 208:.\DSP\Source\StatisticsFunctions/arm_max_f32.c ****     
 209:.\DSP\Source\StatisticsFunctions/arm_max_f32.c ****       while (blkCnt > 0U)
 210:.\DSP\Source\StatisticsFunctions/arm_max_f32.c ****       {
 211:.\DSP\Source\StatisticsFunctions/arm_max_f32.c ****         srcV = vld1q_f32(pSrc);
 212:.\DSP\Source\StatisticsFunctions/arm_max_f32.c ****         pSrc += 4;
 213:.\DSP\Source\StatisticsFunctions/arm_max_f32.c ****     
 214:.\DSP\Source\StatisticsFunctions/arm_max_f32.c ****         idxV = vcgtq_f32(srcV, outV);
 215:.\DSP\Source\StatisticsFunctions/arm_max_f32.c ****         outV = vbslq_f32(idxV, srcV, outV );
 216:.\DSP\Source\StatisticsFunctions/arm_max_f32.c ****         countV = vbslq_u32(idxV, index,countV );
 217:.\DSP\Source\StatisticsFunctions/arm_max_f32.c ****     
 218:.\DSP\Source\StatisticsFunctions/arm_max_f32.c ****         index = vaddq_u32(index,delta);
 219:.\DSP\Source\StatisticsFunctions/arm_max_f32.c ****     
 220:.\DSP\Source\StatisticsFunctions/arm_max_f32.c ****         /* Decrement the loop counter */
 221:.\DSP\Source\StatisticsFunctions/arm_max_f32.c ****         blkCnt--;
 222:.\DSP\Source\StatisticsFunctions/arm_max_f32.c ****       }
 223:.\DSP\Source\StatisticsFunctions/arm_max_f32.c ****     
 224:.\DSP\Source\StatisticsFunctions/arm_max_f32.c ****       outV2 = vpmax_f32(vget_low_f32(outV),vget_high_f32(outV));
 225:.\DSP\Source\StatisticsFunctions/arm_max_f32.c ****       outV2 = vpmax_f32(outV2,outV2);
 226:.\DSP\Source\StatisticsFunctions/arm_max_f32.c ****       out = vget_lane_f32(outV2, 0);
 227:.\DSP\Source\StatisticsFunctions/arm_max_f32.c ****     
 228:.\DSP\Source\StatisticsFunctions/arm_max_f32.c ****       idxV = vceqq_f32(outV, vdupq_n_f32(out));
 229:.\DSP\Source\StatisticsFunctions/arm_max_f32.c ****       countV = vbslq_u32(idxV, countV,maxIdx);
 230:.\DSP\Source\StatisticsFunctions/arm_max_f32.c ****       
 231:.\DSP\Source\StatisticsFunctions/arm_max_f32.c ****       countV2 = vpmin_u32(vget_low_u32(countV),vget_high_u32(countV));
 232:.\DSP\Source\StatisticsFunctions/arm_max_f32.c ****       countV2 = vpmin_u32(countV2,countV2);
 233:.\DSP\Source\StatisticsFunctions/arm_max_f32.c ****       outIndex = vget_lane_u32(countV2,0); 
 234:.\DSP\Source\StatisticsFunctions/arm_max_f32.c ****     
 235:.\DSP\Source\StatisticsFunctions/arm_max_f32.c ****       /* if (blockSize - 1U) is not multiple of 4 */
 236:.\DSP\Source\StatisticsFunctions/arm_max_f32.c ****       blkCnt = (blockSize - 4 ) % 4U;
 237:.\DSP\Source\StatisticsFunctions/arm_max_f32.c ****     
 238:.\DSP\Source\StatisticsFunctions/arm_max_f32.c ****       while (blkCnt > 0U)
 239:.\DSP\Source\StatisticsFunctions/arm_max_f32.c ****       {
 240:.\DSP\Source\StatisticsFunctions/arm_max_f32.c ****         /* Initialize maxVal to the next consecutive values one by one */
 241:.\DSP\Source\StatisticsFunctions/arm_max_f32.c ****         maxVal1 = *pSrc++;
 242:.\DSP\Source\StatisticsFunctions/arm_max_f32.c ****     
 243:.\DSP\Source\StatisticsFunctions/arm_max_f32.c ****         /* compare for the maximum value */
 244:.\DSP\Source\StatisticsFunctions/arm_max_f32.c ****         if (out < maxVal1)
 245:.\DSP\Source\StatisticsFunctions/arm_max_f32.c ****         {
 246:.\DSP\Source\StatisticsFunctions/arm_max_f32.c ****           /* Update the maximum value and it's index */
 247:.\DSP\Source\StatisticsFunctions/arm_max_f32.c ****           out = maxVal1;
 248:.\DSP\Source\StatisticsFunctions/arm_max_f32.c ****           outIndex = blockSize - blkCnt ;
 249:.\DSP\Source\StatisticsFunctions/arm_max_f32.c ****         }
 250:.\DSP\Source\StatisticsFunctions/arm_max_f32.c ****     
 251:.\DSP\Source\StatisticsFunctions/arm_max_f32.c ****         /* Decrement the loop counter */
 252:.\DSP\Source\StatisticsFunctions/arm_max_f32.c ****         blkCnt--;
 253:.\DSP\Source\StatisticsFunctions/arm_max_f32.c ****       }
 254:.\DSP\Source\StatisticsFunctions/arm_max_f32.c ****     
 255:.\DSP\Source\StatisticsFunctions/arm_max_f32.c ****       
 256:.\DSP\Source\StatisticsFunctions/arm_max_f32.c ****   }
 257:.\DSP\Source\StatisticsFunctions/arm_max_f32.c **** 
 258:.\DSP\Source\StatisticsFunctions/arm_max_f32.c ****   /* Store the maximum value and it's index into destination pointers */
ARM GAS  C:\Users\IVYLIU~1\AppData\Local\Temp\ccJZ4Cfb.s 			page 6


 259:.\DSP\Source\StatisticsFunctions/arm_max_f32.c ****   *pResult = out;
 260:.\DSP\Source\StatisticsFunctions/arm_max_f32.c ****   *pIndex = outIndex;
 261:.\DSP\Source\StatisticsFunctions/arm_max_f32.c **** }
 262:.\DSP\Source\StatisticsFunctions/arm_max_f32.c **** #else
 263:.\DSP\Source\StatisticsFunctions/arm_max_f32.c **** void arm_max_f32(
 264:.\DSP\Source\StatisticsFunctions/arm_max_f32.c ****   const float32_t * pSrc,
 265:.\DSP\Source\StatisticsFunctions/arm_max_f32.c ****         uint32_t blockSize,
 266:.\DSP\Source\StatisticsFunctions/arm_max_f32.c ****         float32_t * pResult,
 267:.\DSP\Source\StatisticsFunctions/arm_max_f32.c ****         uint32_t * pIndex)
 268:.\DSP\Source\StatisticsFunctions/arm_max_f32.c **** {
  28              		.loc 1 268 0
  29              		.cfi_startproc
  30              		@ args = 0, pretend = 0, frame = 0
  31              		@ frame_needed = 0, uses_anonymous_args = 0
  32              	.LVL0:
  33 0000 2DE9F84F 		push	{r3, r4, r5, r6, r7, r8, r9, r10, fp, lr}
  34              		.cfi_def_cfa_offset 40
  35              		.cfi_offset 3, -40
  36              		.cfi_offset 4, -36
  37              		.cfi_offset 5, -32
  38              		.cfi_offset 6, -28
  39              		.cfi_offset 7, -24
  40              		.cfi_offset 8, -20
  41              		.cfi_offset 9, -16
  42              		.cfi_offset 10, -12
  43              		.cfi_offset 11, -8
  44              		.cfi_offset 14, -4
  45              		.loc 1 268 0
  46 0004 8046     		mov	r8, r0
  47 0006 8B46     		mov	fp, r1
  48 0008 9246     		mov	r10, r2
  49 000a 9946     		mov	r9, r3
 269:.\DSP\Source\StatisticsFunctions/arm_max_f32.c ****         float32_t maxVal, out;                         /* Temporary variables to store the output v
 270:.\DSP\Source\StatisticsFunctions/arm_max_f32.c ****         uint32_t blkCnt, outIndex;                     /* Loop counter */
 271:.\DSP\Source\StatisticsFunctions/arm_max_f32.c **** 
 272:.\DSP\Source\StatisticsFunctions/arm_max_f32.c **** #if defined (ARM_MATH_LOOPUNROLL) && !defined(ARM_MATH_AUTOVECTORIZE)
 273:.\DSP\Source\StatisticsFunctions/arm_max_f32.c ****         uint32_t index;                                /* index of maximum value */
 274:.\DSP\Source\StatisticsFunctions/arm_max_f32.c **** #endif
 275:.\DSP\Source\StatisticsFunctions/arm_max_f32.c **** 
 276:.\DSP\Source\StatisticsFunctions/arm_max_f32.c ****   /* Initialise index value to zero. */
 277:.\DSP\Source\StatisticsFunctions/arm_max_f32.c ****   outIndex = 0U;
 278:.\DSP\Source\StatisticsFunctions/arm_max_f32.c **** 
 279:.\DSP\Source\StatisticsFunctions/arm_max_f32.c ****   /* Load first input value that act as reference value for comparision */
 280:.\DSP\Source\StatisticsFunctions/arm_max_f32.c ****   out = *pSrc++;
  50              		.loc 1 280 0
  51 000c 0568     		ldr	r5, [r0]	@ float
  52              	.LVL1:
 281:.\DSP\Source\StatisticsFunctions/arm_max_f32.c **** 
 282:.\DSP\Source\StatisticsFunctions/arm_max_f32.c **** #if defined (ARM_MATH_LOOPUNROLL) && !defined(ARM_MATH_AUTOVECTORIZE)
 283:.\DSP\Source\StatisticsFunctions/arm_max_f32.c ****   /* Initialise index of maximum value. */
 284:.\DSP\Source\StatisticsFunctions/arm_max_f32.c ****   index = 0U;
 285:.\DSP\Source\StatisticsFunctions/arm_max_f32.c **** 
 286:.\DSP\Source\StatisticsFunctions/arm_max_f32.c ****   /* Loop unrolling: Compute 4 outputs at a time */
 287:.\DSP\Source\StatisticsFunctions/arm_max_f32.c ****   blkCnt = (blockSize - 1U) >> 2U;
 288:.\DSP\Source\StatisticsFunctions/arm_max_f32.c **** 
 289:.\DSP\Source\StatisticsFunctions/arm_max_f32.c ****   while (blkCnt > 0U)
 290:.\DSP\Source\StatisticsFunctions/arm_max_f32.c ****   {
ARM GAS  C:\Users\IVYLIU~1\AppData\Local\Temp\ccJZ4Cfb.s 			page 7


 291:.\DSP\Source\StatisticsFunctions/arm_max_f32.c ****     /* Initialize maxVal to next consecutive values one by one */
 292:.\DSP\Source\StatisticsFunctions/arm_max_f32.c ****     maxVal = *pSrc++;
 293:.\DSP\Source\StatisticsFunctions/arm_max_f32.c **** 
 294:.\DSP\Source\StatisticsFunctions/arm_max_f32.c ****     /* compare for the maximum value */
 295:.\DSP\Source\StatisticsFunctions/arm_max_f32.c ****     if (out < maxVal)
 296:.\DSP\Source\StatisticsFunctions/arm_max_f32.c ****     {
 297:.\DSP\Source\StatisticsFunctions/arm_max_f32.c ****       /* Update the maximum value and it's index */
 298:.\DSP\Source\StatisticsFunctions/arm_max_f32.c ****       out = maxVal;
 299:.\DSP\Source\StatisticsFunctions/arm_max_f32.c ****       outIndex = index + 1U;
 300:.\DSP\Source\StatisticsFunctions/arm_max_f32.c ****     }
 301:.\DSP\Source\StatisticsFunctions/arm_max_f32.c **** 
 302:.\DSP\Source\StatisticsFunctions/arm_max_f32.c ****     maxVal = *pSrc++;
 303:.\DSP\Source\StatisticsFunctions/arm_max_f32.c ****     if (out < maxVal)
 304:.\DSP\Source\StatisticsFunctions/arm_max_f32.c ****     {
 305:.\DSP\Source\StatisticsFunctions/arm_max_f32.c ****       out = maxVal;
 306:.\DSP\Source\StatisticsFunctions/arm_max_f32.c ****       outIndex = index + 2U;
 307:.\DSP\Source\StatisticsFunctions/arm_max_f32.c ****     }
 308:.\DSP\Source\StatisticsFunctions/arm_max_f32.c **** 
 309:.\DSP\Source\StatisticsFunctions/arm_max_f32.c ****     maxVal = *pSrc++;
 310:.\DSP\Source\StatisticsFunctions/arm_max_f32.c ****     if (out < maxVal)
 311:.\DSP\Source\StatisticsFunctions/arm_max_f32.c ****     {
 312:.\DSP\Source\StatisticsFunctions/arm_max_f32.c ****       out = maxVal;
 313:.\DSP\Source\StatisticsFunctions/arm_max_f32.c ****       outIndex = index + 3U;
 314:.\DSP\Source\StatisticsFunctions/arm_max_f32.c ****     }
 315:.\DSP\Source\StatisticsFunctions/arm_max_f32.c **** 
 316:.\DSP\Source\StatisticsFunctions/arm_max_f32.c ****     maxVal = *pSrc++;
 317:.\DSP\Source\StatisticsFunctions/arm_max_f32.c ****     if (out < maxVal)
 318:.\DSP\Source\StatisticsFunctions/arm_max_f32.c ****     {
 319:.\DSP\Source\StatisticsFunctions/arm_max_f32.c ****       out = maxVal;
 320:.\DSP\Source\StatisticsFunctions/arm_max_f32.c ****       outIndex = index + 4U;
 321:.\DSP\Source\StatisticsFunctions/arm_max_f32.c ****     }
 322:.\DSP\Source\StatisticsFunctions/arm_max_f32.c **** 
 323:.\DSP\Source\StatisticsFunctions/arm_max_f32.c ****     index += 4U;
 324:.\DSP\Source\StatisticsFunctions/arm_max_f32.c **** 
 325:.\DSP\Source\StatisticsFunctions/arm_max_f32.c ****     /* Decrement loop counter */
 326:.\DSP\Source\StatisticsFunctions/arm_max_f32.c ****     blkCnt--;
 327:.\DSP\Source\StatisticsFunctions/arm_max_f32.c ****   }
 328:.\DSP\Source\StatisticsFunctions/arm_max_f32.c **** 
 329:.\DSP\Source\StatisticsFunctions/arm_max_f32.c ****   /* Loop unrolling: Compute remaining outputs */
 330:.\DSP\Source\StatisticsFunctions/arm_max_f32.c ****   blkCnt = (blockSize - 1U) % 4U;
 331:.\DSP\Source\StatisticsFunctions/arm_max_f32.c **** 
 332:.\DSP\Source\StatisticsFunctions/arm_max_f32.c **** #else
 333:.\DSP\Source\StatisticsFunctions/arm_max_f32.c **** 
 334:.\DSP\Source\StatisticsFunctions/arm_max_f32.c ****   /* Initialize blkCnt with number of samples */
 335:.\DSP\Source\StatisticsFunctions/arm_max_f32.c ****   blkCnt = (blockSize - 1U);
 336:.\DSP\Source\StatisticsFunctions/arm_max_f32.c **** 
 337:.\DSP\Source\StatisticsFunctions/arm_max_f32.c **** #endif /* #if defined (ARM_MATH_LOOPUNROLL) */
 338:.\DSP\Source\StatisticsFunctions/arm_max_f32.c **** 
 339:.\DSP\Source\StatisticsFunctions/arm_max_f32.c ****   while (blkCnt > 0U)
  53              		.loc 1 339 0
  54 000e 0124     		movs	r4, #1
 277:.\DSP\Source\StatisticsFunctions/arm_max_f32.c **** 
  55              		.loc 1 277 0
  56 0010 0027     		movs	r7, #0
  57              	.LVL2:
  58              	.L2:
  59              		.loc 1 339 0
ARM GAS  C:\Users\IVYLIU~1\AppData\Local\Temp\ccJZ4Cfb.s 			page 8


  60 0012 5C45     		cmp	r4, fp
  61 0014 0CD0     		beq	.L7
  62              	.LVL3:
 340:.\DSP\Source\StatisticsFunctions/arm_max_f32.c ****   {
 341:.\DSP\Source\StatisticsFunctions/arm_max_f32.c ****     /* Initialize maxVal to the next consecutive values one by one */
 342:.\DSP\Source\StatisticsFunctions/arm_max_f32.c ****     maxVal = *pSrc++;
  63              		.loc 1 342 0
  64 0016 58F82460 		ldr	r6, [r8, r4, lsl #2]	@ float
  65              	.LVL4:
 343:.\DSP\Source\StatisticsFunctions/arm_max_f32.c **** 
 344:.\DSP\Source\StatisticsFunctions/arm_max_f32.c ****     /* compare for the maximum value */
 345:.\DSP\Source\StatisticsFunctions/arm_max_f32.c ****     if (out < maxVal)
  66              		.loc 1 345 0
  67 001a 2846     		mov	r0, r5
  68 001c 3146     		mov	r1, r6
  69 001e FFF7FEFF 		bl	__aeabi_fcmplt
  70              	.LVL5:
  71 0022 08B9     		cbnz	r0, .L5
  72 0024 2E46     		mov	r6, r5
  73              	.LVL6:
  74 0026 00E0     		b	.L3
  75              	.LVL7:
  76              	.L5:
  77 0028 2746     		mov	r7, r4
  78              	.LVL8:
  79              	.L3:
  80 002a 0134     		adds	r4, r4, #1
  81              	.LVL9:
 277:.\DSP\Source\StatisticsFunctions/arm_max_f32.c **** 
  82              		.loc 1 277 0
  83 002c 3546     		mov	r5, r6
  84 002e F0E7     		b	.L2
  85              	.LVL10:
  86              	.L7:
 346:.\DSP\Source\StatisticsFunctions/arm_max_f32.c ****     {
 347:.\DSP\Source\StatisticsFunctions/arm_max_f32.c ****       /* Update the maximum value and it's index */
 348:.\DSP\Source\StatisticsFunctions/arm_max_f32.c ****       out = maxVal;
 349:.\DSP\Source\StatisticsFunctions/arm_max_f32.c ****       outIndex = blockSize - blkCnt;
 350:.\DSP\Source\StatisticsFunctions/arm_max_f32.c ****     }
 351:.\DSP\Source\StatisticsFunctions/arm_max_f32.c **** 
 352:.\DSP\Source\StatisticsFunctions/arm_max_f32.c ****     /* Decrement loop counter */
 353:.\DSP\Source\StatisticsFunctions/arm_max_f32.c ****     blkCnt--;
 354:.\DSP\Source\StatisticsFunctions/arm_max_f32.c ****   }
 355:.\DSP\Source\StatisticsFunctions/arm_max_f32.c **** 
 356:.\DSP\Source\StatisticsFunctions/arm_max_f32.c ****   /* Store the maximum value and it's index into destination pointers */
 357:.\DSP\Source\StatisticsFunctions/arm_max_f32.c ****   *pResult = out;
  87              		.loc 1 357 0
  88 0030 CAF80050 		str	r5, [r10]	@ float
 358:.\DSP\Source\StatisticsFunctions/arm_max_f32.c ****   *pIndex = outIndex;
  89              		.loc 1 358 0
  90 0034 C9F80070 		str	r7, [r9]
  91 0038 BDE8F88F 		pop	{r3, r4, r5, r6, r7, r8, r9, r10, fp, pc}
  92              		.cfi_endproc
  93              	.LFE84:
  94              		.size	arm_max_f32, .-arm_max_f32
  95              		.text
  96              	.Letext0:
ARM GAS  C:\Users\IVYLIU~1\AppData\Local\Temp\ccJZ4Cfb.s 			page 9


  97              		.file 2 "c:\\program files (x86)\\cypress\\psoc creator\\3.3\\psoc creator\\import\\gnu\\arm\\4.9.
  98              		.file 3 "c:\\program files (x86)\\cypress\\psoc creator\\3.3\\psoc creator\\import\\gnu\\arm\\4.9.
  99              		.file 4 ".\\DSP\\Include/arm_math_types.h"
 100              		.file 5 ".\\Core\\Include/cmsis_gcc.h"