ARM GAS  C:\Users\IVYLIU~1\AppData\Local\Temp\cc3ADQnL.s 			page 1


   1              		.syntax unified
   2              		.cpu cortex-m3
   3              		.fpu softvfp
   4              		.eabi_attribute 20, 1
   5              		.eabi_attribute 21, 1
   6              		.eabi_attribute 23, 3
   7              		.eabi_attribute 24, 1
   8              		.eabi_attribute 25, 1
   9              		.eabi_attribute 26, 1
  10              		.eabi_attribute 30, 4
  11              		.eabi_attribute 34, 1
  12              		.eabi_attribute 18, 4
  13              		.thumb
  14              		.file	"arm_cfft_radix8_f32.c"
  15              		.text
  16              	.Ltext0:
  17              		.cfi_sections	.debug_frame
  18              		.global	__aeabi_fadd
  19              		.global	__aeabi_fsub
  20              		.global	__aeabi_fmul
  21              		.section	.text.arm_radix8_butterfly_f32,"ax",%progbits
  22              		.align	1
  23              		.global	arm_radix8_butterfly_f32
  24              		.thumb
  25              		.thumb_func
  26              		.type	arm_radix8_butterfly_f32, %function
  27              	arm_radix8_butterfly_f32:
  28              	.LFB84:
  29              		.file 1 ".\\DSP\\Source\\TransformFunctions\\arm_cfft_radix8_f32.c"
   1:.\DSP\Source\TransformFunctions/arm_cfft_radix8_f32.c **** /* ----------------------------------------------------------------------
   2:.\DSP\Source\TransformFunctions/arm_cfft_radix8_f32.c ****  * Project:      CMSIS DSP Library
   3:.\DSP\Source\TransformFunctions/arm_cfft_radix8_f32.c ****  * Title:        arm_cfft_radix8_f32.c
   4:.\DSP\Source\TransformFunctions/arm_cfft_radix8_f32.c ****  * Description:  Radix-8 Decimation in Frequency CFFT & CIFFT Floating point processing function
   5:.\DSP\Source\TransformFunctions/arm_cfft_radix8_f32.c ****  *
   6:.\DSP\Source\TransformFunctions/arm_cfft_radix8_f32.c ****  * $Date:        23 April 2021
   7:.\DSP\Source\TransformFunctions/arm_cfft_radix8_f32.c ****  * $Revision:    V1.9.0
   8:.\DSP\Source\TransformFunctions/arm_cfft_radix8_f32.c ****  *
   9:.\DSP\Source\TransformFunctions/arm_cfft_radix8_f32.c ****  * Target Processor: Cortex-M and Cortex-A cores
  10:.\DSP\Source\TransformFunctions/arm_cfft_radix8_f32.c ****  * -------------------------------------------------------------------- */
  11:.\DSP\Source\TransformFunctions/arm_cfft_radix8_f32.c **** /*
  12:.\DSP\Source\TransformFunctions/arm_cfft_radix8_f32.c ****  * Copyright (C) 2010-2021 ARM Limited or its affiliates. All rights reserved.
  13:.\DSP\Source\TransformFunctions/arm_cfft_radix8_f32.c ****  *
  14:.\DSP\Source\TransformFunctions/arm_cfft_radix8_f32.c ****  * SPDX-License-Identifier: Apache-2.0
  15:.\DSP\Source\TransformFunctions/arm_cfft_radix8_f32.c ****  *
  16:.\DSP\Source\TransformFunctions/arm_cfft_radix8_f32.c ****  * Licensed under the Apache License, Version 2.0 (the License); you may
  17:.\DSP\Source\TransformFunctions/arm_cfft_radix8_f32.c ****  * not use this file except in compliance with the License.
  18:.\DSP\Source\TransformFunctions/arm_cfft_radix8_f32.c ****  * You may obtain a copy of the License at
  19:.\DSP\Source\TransformFunctions/arm_cfft_radix8_f32.c ****  *
  20:.\DSP\Source\TransformFunctions/arm_cfft_radix8_f32.c ****  * www.apache.org/licenses/LICENSE-2.0
  21:.\DSP\Source\TransformFunctions/arm_cfft_radix8_f32.c ****  *
  22:.\DSP\Source\TransformFunctions/arm_cfft_radix8_f32.c ****  * Unless required by applicable law or agreed to in writing, software
  23:.\DSP\Source\TransformFunctions/arm_cfft_radix8_f32.c ****  * distributed under the License is distributed on an AS IS BASIS, WITHOUT
  24:.\DSP\Source\TransformFunctions/arm_cfft_radix8_f32.c ****  * WARRANTIES OR CONDITIONS OF ANY KIND, either express or implied.
  25:.\DSP\Source\TransformFunctions/arm_cfft_radix8_f32.c ****  * See the License for the specific language governing permissions and
  26:.\DSP\Source\TransformFunctions/arm_cfft_radix8_f32.c ****  * limitations under the License.
  27:.\DSP\Source\TransformFunctions/arm_cfft_radix8_f32.c ****  */
  28:.\DSP\Source\TransformFunctions/arm_cfft_radix8_f32.c **** 
ARM GAS  C:\Users\IVYLIU~1\AppData\Local\Temp\cc3ADQnL.s 			page 2


  29:.\DSP\Source\TransformFunctions/arm_cfft_radix8_f32.c **** #include "dsp/transform_functions.h"
  30:.\DSP\Source\TransformFunctions/arm_cfft_radix8_f32.c **** 
  31:.\DSP\Source\TransformFunctions/arm_cfft_radix8_f32.c **** 
  32:.\DSP\Source\TransformFunctions/arm_cfft_radix8_f32.c **** /* ----------------------------------------------------------------------
  33:.\DSP\Source\TransformFunctions/arm_cfft_radix8_f32.c ****  * Internal helper function used by the FFTs
  34:.\DSP\Source\TransformFunctions/arm_cfft_radix8_f32.c ****  * -------------------------------------------------------------------- */
  35:.\DSP\Source\TransformFunctions/arm_cfft_radix8_f32.c **** 
  36:.\DSP\Source\TransformFunctions/arm_cfft_radix8_f32.c **** /**
  37:.\DSP\Source\TransformFunctions/arm_cfft_radix8_f32.c ****   brief         Core function for the floating-point CFFT butterfly process.
  38:.\DSP\Source\TransformFunctions/arm_cfft_radix8_f32.c ****   param[in,out] pSrc             points to the in-place buffer of floating-point data type.
  39:.\DSP\Source\TransformFunctions/arm_cfft_radix8_f32.c ****   param[in]     fftLen           length of the FFT.
  40:.\DSP\Source\TransformFunctions/arm_cfft_radix8_f32.c ****   param[in]     pCoef            points to the twiddle coefficient buffer.
  41:.\DSP\Source\TransformFunctions/arm_cfft_radix8_f32.c ****   param[in]     twidCoefModifier twiddle coefficient modifier that supports different size FFTs wit
  42:.\DSP\Source\TransformFunctions/arm_cfft_radix8_f32.c ****   return        none
  43:.\DSP\Source\TransformFunctions/arm_cfft_radix8_f32.c **** */
  44:.\DSP\Source\TransformFunctions/arm_cfft_radix8_f32.c **** 
  45:.\DSP\Source\TransformFunctions/arm_cfft_radix8_f32.c **** void arm_radix8_butterfly_f32(
  46:.\DSP\Source\TransformFunctions/arm_cfft_radix8_f32.c ****   float32_t * pSrc,
  47:.\DSP\Source\TransformFunctions/arm_cfft_radix8_f32.c ****   uint16_t fftLen,
  48:.\DSP\Source\TransformFunctions/arm_cfft_radix8_f32.c ****   const float32_t * pCoef,
  49:.\DSP\Source\TransformFunctions/arm_cfft_radix8_f32.c ****   uint16_t twidCoefModifier)
  50:.\DSP\Source\TransformFunctions/arm_cfft_radix8_f32.c **** {
  30              		.loc 1 50 0
  31              		.cfi_startproc
  32              		@ args = 0, pretend = 0, frame = 168
  33              		@ frame_needed = 0, uses_anonymous_args = 0
  34              	.LVL0:
  35 0000 2DE9F04F 		push	{r4, r5, r6, r7, r8, r9, r10, fp, lr}
  36              		.cfi_def_cfa_offset 36
  37              		.cfi_offset 4, -36
  38              		.cfi_offset 5, -32
  39              		.cfi_offset 6, -28
  40              		.cfi_offset 7, -24
  41              		.cfi_offset 8, -20
  42              		.cfi_offset 9, -16
  43              		.cfi_offset 10, -12
  44              		.cfi_offset 11, -8
  45              		.cfi_offset 14, -4
  46 0004 ABB0     		sub	sp, sp, #172
  47              		.cfi_def_cfa_offset 208
  48              	.LVL1:
  49              		.loc 1 50 0
  50 0006 0B93     		str	r3, [sp, #44]
  51 0008 9446     		mov	ip, r2
  51:.\DSP\Source\TransformFunctions/arm_cfft_radix8_f32.c ****    uint32_t ia1, ia2, ia3, ia4, ia5, ia6, ia7;
  52:.\DSP\Source\TransformFunctions/arm_cfft_radix8_f32.c ****    uint32_t i1, i2, i3, i4, i5, i6, i7, i8;
  53:.\DSP\Source\TransformFunctions/arm_cfft_radix8_f32.c ****    uint32_t id;
  54:.\DSP\Source\TransformFunctions/arm_cfft_radix8_f32.c ****    uint32_t n1, n2, j;
  55:.\DSP\Source\TransformFunctions/arm_cfft_radix8_f32.c **** 
  56:.\DSP\Source\TransformFunctions/arm_cfft_radix8_f32.c ****    float32_t r1, r2, r3, r4, r5, r6, r7, r8;
  57:.\DSP\Source\TransformFunctions/arm_cfft_radix8_f32.c ****    float32_t t1, t2;
  58:.\DSP\Source\TransformFunctions/arm_cfft_radix8_f32.c ****    float32_t s1, s2, s3, s4, s5, s6, s7, s8;
  59:.\DSP\Source\TransformFunctions/arm_cfft_radix8_f32.c ****    float32_t p1, p2, p3, p4;
  60:.\DSP\Source\TransformFunctions/arm_cfft_radix8_f32.c ****    float32_t co2, co3, co4, co5, co6, co7, co8;
  61:.\DSP\Source\TransformFunctions/arm_cfft_radix8_f32.c ****    float32_t si2, si3, si4, si5, si6, si7, si8;
  62:.\DSP\Source\TransformFunctions/arm_cfft_radix8_f32.c ****    const float32_t C81 = 0.70710678118f;
  63:.\DSP\Source\TransformFunctions/arm_cfft_radix8_f32.c **** 
ARM GAS  C:\Users\IVYLIU~1\AppData\Local\Temp\cc3ADQnL.s 			page 3


  64:.\DSP\Source\TransformFunctions/arm_cfft_radix8_f32.c ****    n2 = fftLen;
  52              		.loc 1 64 0
  53 000a 0B46     		mov	r3, r1
  54              	.LVL2:
  50:.\DSP\Source\TransformFunctions/arm_cfft_radix8_f32.c ****    uint32_t ia1, ia2, ia3, ia4, ia5, ia6, ia7;
  55              		.loc 1 50 0
  56 000c 0D90     		str	r0, [sp, #52]
  57 000e 0E91     		str	r1, [sp, #56]
  58              	.LVL3:
  59              	.L10:
  60              		.loc 1 64 0
  61 0010 0993     		str	r3, [sp, #36]
  62              	.LVL4:
  65:.\DSP\Source\TransformFunctions/arm_cfft_radix8_f32.c **** 
  66:.\DSP\Source\TransformFunctions/arm_cfft_radix8_f32.c ****    do
  67:.\DSP\Source\TransformFunctions/arm_cfft_radix8_f32.c ****    {
  68:.\DSP\Source\TransformFunctions/arm_cfft_radix8_f32.c ****       n1 = n2;
  69:.\DSP\Source\TransformFunctions/arm_cfft_radix8_f32.c ****       n2 = n2 >> 3;
  63              		.loc 1 69 0
  64 0012 099B     		ldr	r3, [sp, #36]
  65 0014 0D99     		ldr	r1, [sp, #52]
  66 0016 DB08     		lsrs	r3, r3, #3
  67              	.LVL5:
  68 0018 0193     		str	r3, [sp, #4]
  69              	.LVL6:
  70 001a 099B     		ldr	r3, [sp, #36]
  71              	.LVL7:
  72 001c 0198     		ldr	r0, [sp, #4]
  73 001e DB00     		lsls	r3, r3, #3
  74 0020 0A93     		str	r3, [sp, #40]
  75 0022 019B     		ldr	r3, [sp, #4]
  76 0024 0C1D     		adds	r4, r1, #4
  77 0026 DA00     		lsls	r2, r3, #3
  78 0028 0D9B     		ldr	r3, [sp, #52]
  79 002a 1821     		movs	r1, #24
  80 002c 1344     		add	r3, r3, r2
  81 002e 9A46     		mov	r10, r3
  82 0030 9A18     		adds	r2, r3, r2
  83 0032 0C92     		str	r2, [sp, #48]
  84 0034 2822     		movs	r2, #40
  85 0036 4243     		muls	r2, r0, r2
  86 0038 0392     		str	r2, [sp, #12]
  87 003a 3022     		movs	r2, #48
  88 003c 4243     		muls	r2, r0, r2
  89 003e 0692     		str	r2, [sp, #24]
  90 0040 3822     		movs	r2, #56
  91 0042 4243     		muls	r2, r0, r2
  92 0044 4143     		muls	r1, r0, r1
  93 0046 0892     		str	r2, [sp, #32]
  94 0048 0C9A     		ldr	r2, [sp, #48]
  95 004a 0291     		str	r1, [sp, #8]
  96 004c A2EBC002 		sub	r2, r2, r0, lsl #3
  97 0050 4101     		lsls	r1, r0, #5
  98 0052 0591     		str	r1, [sp, #20]
  99 0054 1892     		str	r2, [sp, #96]
 100 0056 0101     		lsls	r1, r0, #4
  70:.\DSP\Source\TransformFunctions/arm_cfft_radix8_f32.c ****       i1 = 0;
ARM GAS  C:\Users\IVYLIU~1\AppData\Local\Temp\cc3ADQnL.s 			page 4


 101              		.loc 1 70 0
 102 0058 0022     		movs	r2, #0
 103 005a 0491     		str	r1, [sp, #16]
 104 005c 0792     		str	r2, [sp, #28]
 105              	.LVL8:
 106              	.L2:
 107 005e 1093     		str	r3, [sp, #64]
 108              	.LVL9:
  71:.\DSP\Source\TransformFunctions/arm_cfft_radix8_f32.c **** 
  72:.\DSP\Source\TransformFunctions/arm_cfft_radix8_f32.c ****       do
  73:.\DSP\Source\TransformFunctions/arm_cfft_radix8_f32.c ****       {
  74:.\DSP\Source\TransformFunctions/arm_cfft_radix8_f32.c ****          i2 = i1 + n2;
  75:.\DSP\Source\TransformFunctions/arm_cfft_radix8_f32.c ****          i3 = i2 + n2;
  76:.\DSP\Source\TransformFunctions/arm_cfft_radix8_f32.c ****          i4 = i3 + n2;
  77:.\DSP\Source\TransformFunctions/arm_cfft_radix8_f32.c ****          i5 = i4 + n2;
  78:.\DSP\Source\TransformFunctions/arm_cfft_radix8_f32.c ****          i6 = i5 + n2;
  79:.\DSP\Source\TransformFunctions/arm_cfft_radix8_f32.c ****          i7 = i6 + n2;
  80:.\DSP\Source\TransformFunctions/arm_cfft_radix8_f32.c ****          i8 = i7 + n2;
  81:.\DSP\Source\TransformFunctions/arm_cfft_radix8_f32.c ****          r1 = pSrc[2 * i1] + pSrc[2 * i5];
 109              		.loc 1 81 0 discriminator 1
 110 0060 029B     		ldr	r3, [sp, #8]
 111 0062 54F8046C 		ldr	r6, [r4, #-4]	@ float
 112 0066 5AF80350 		ldr	r5, [r10, r3]	@ float
 113 006a 3046     		mov	r0, r6
 114 006c 2946     		mov	r1, r5
 115 006e CDF868C0 		str	ip, [sp, #104]
 116 0072 FFF7FEFF 		bl	__aeabi_fadd
 117              	.LVL10:
  82:.\DSP\Source\TransformFunctions/arm_cfft_radix8_f32.c ****          r5 = pSrc[2 * i1] - pSrc[2 * i5];
 118              		.loc 1 82 0 discriminator 1
 119 0076 2946     		mov	r1, r5
  81:.\DSP\Source\TransformFunctions/arm_cfft_radix8_f32.c ****          r5 = pSrc[2 * i1] - pSrc[2 * i5];
 120              		.loc 1 81 0 discriminator 1
 121 0078 8046     		mov	r8, r0
 122              	.LVL11:
 123              		.loc 1 82 0 discriminator 1
 124 007a 3046     		mov	r0, r6
 125              	.LVL12:
 126 007c FFF7FEFF 		bl	__aeabi_fsub
 127              	.LVL13:
  83:.\DSP\Source\TransformFunctions/arm_cfft_radix8_f32.c ****          r2 = pSrc[2 * i2] + pSrc[2 * i6];
 128              		.loc 1 83 0 discriminator 1
 129 0080 079B     		ldr	r3, [sp, #28]
  82:.\DSP\Source\TransformFunctions/arm_cfft_radix8_f32.c ****          r5 = pSrc[2 * i1] - pSrc[2 * i5];
 130              		.loc 1 82 0 discriminator 1
 131 0082 0F90     		str	r0, [sp, #60]	@ float
 132              	.LVL14:
 133              		.loc 1 83 0 discriminator 1
 134 0084 1A46     		mov	r2, r3
 135 0086 109B     		ldr	r3, [sp, #64]
 136 0088 53F83260 		ldr	r6, [r3, r2, lsl #3]	@ float
 137 008c 1993     		str	r3, [sp, #100]
 138 008e 059B     		ldr	r3, [sp, #20]
 139 0090 3046     		mov	r0, r6
 140              	.LVL15:
 141 0092 5AF80350 		ldr	r5, [r10, r3]	@ float
 142 0096 2946     		mov	r1, r5
ARM GAS  C:\Users\IVYLIU~1\AppData\Local\Temp\cc3ADQnL.s 			page 5


 143 0098 FFF7FEFF 		bl	__aeabi_fadd
 144              	.LVL16:
  84:.\DSP\Source\TransformFunctions/arm_cfft_radix8_f32.c ****          r6 = pSrc[2 * i2] - pSrc[2 * i6];
 145              		.loc 1 84 0 discriminator 1
 146 009c 2946     		mov	r1, r5
  83:.\DSP\Source\TransformFunctions/arm_cfft_radix8_f32.c ****          r2 = pSrc[2 * i2] + pSrc[2 * i6];
 147              		.loc 1 83 0 discriminator 1
 148 009e 0746     		mov	r7, r0
 149              	.LVL17:
 150              		.loc 1 84 0 discriminator 1
 151 00a0 3046     		mov	r0, r6
 152              	.LVL18:
 153 00a2 FFF7FEFF 		bl	__aeabi_fsub
 154              	.LVL19:
  85:.\DSP\Source\TransformFunctions/arm_cfft_radix8_f32.c ****          r3 = pSrc[2 * i3] + pSrc[2 * i7];
 155              		.loc 1 85 0 discriminator 1
 156 00a6 079A     		ldr	r2, [sp, #28]
 157 00a8 0C9B     		ldr	r3, [sp, #48]
  84:.\DSP\Source\TransformFunctions/arm_cfft_radix8_f32.c ****          r6 = pSrc[2 * i2] - pSrc[2 * i6];
 158              		.loc 1 84 0 discriminator 1
 159 00aa 1090     		str	r0, [sp, #64]	@ float
 160              	.LVL20:
 161              		.loc 1 85 0 discriminator 1
 162 00ac 53F83290 		ldr	r9, [r3, r2, lsl #3]	@ float
 163 00b0 039B     		ldr	r3, [sp, #12]
 164 00b2 4846     		mov	r0, r9
 165              	.LVL21:
 166 00b4 5AF80360 		ldr	r6, [r10, r3]	@ float
 167 00b8 3146     		mov	r1, r6
 168 00ba FFF7FEFF 		bl	__aeabi_fadd
 169              	.LVL22:
  86:.\DSP\Source\TransformFunctions/arm_cfft_radix8_f32.c ****          r7 = pSrc[2 * i3] - pSrc[2 * i7];
 170              		.loc 1 86 0 discriminator 1
 171 00be 3146     		mov	r1, r6
  85:.\DSP\Source\TransformFunctions/arm_cfft_radix8_f32.c ****          r3 = pSrc[2 * i3] + pSrc[2 * i7];
 172              		.loc 1 85 0 discriminator 1
 173 00c0 0546     		mov	r5, r0
 174              	.LVL23:
 175              		.loc 1 86 0 discriminator 1
 176 00c2 4846     		mov	r0, r9
 177              	.LVL24:
 178 00c4 FFF7FEFF 		bl	__aeabi_fsub
 179              	.LVL25:
  87:.\DSP\Source\TransformFunctions/arm_cfft_radix8_f32.c ****          r4 = pSrc[2 * i4] + pSrc[2 * i8];
 180              		.loc 1 87 0 discriminator 1
 181 00c8 049B     		ldr	r3, [sp, #16]
  86:.\DSP\Source\TransformFunctions/arm_cfft_radix8_f32.c ****          r7 = pSrc[2 * i3] - pSrc[2 * i7];
 182              		.loc 1 86 0 discriminator 1
 183 00ca 1190     		str	r0, [sp, #68]	@ float
 184              	.LVL26:
 185              		.loc 1 87 0 discriminator 1
 186 00cc 5AF803B0 		ldr	fp, [r10, r3]	@ float
 187 00d0 069B     		ldr	r3, [sp, #24]
 188 00d2 5846     		mov	r0, fp
 189              	.LVL27:
 190 00d4 5AF80390 		ldr	r9, [r10, r3]	@ float
 191 00d8 4946     		mov	r1, r9
ARM GAS  C:\Users\IVYLIU~1\AppData\Local\Temp\cc3ADQnL.s 			page 6


 192 00da FFF7FEFF 		bl	__aeabi_fadd
 193              	.LVL28:
  88:.\DSP\Source\TransformFunctions/arm_cfft_radix8_f32.c ****          r8 = pSrc[2 * i4] - pSrc[2 * i8];
 194              		.loc 1 88 0 discriminator 1
 195 00de 4946     		mov	r1, r9
  87:.\DSP\Source\TransformFunctions/arm_cfft_radix8_f32.c ****          r4 = pSrc[2 * i4] + pSrc[2 * i8];
 196              		.loc 1 87 0 discriminator 1
 197 00e0 0646     		mov	r6, r0
 198              	.LVL29:
 199              		.loc 1 88 0 discriminator 1
 200 00e2 5846     		mov	r0, fp
 201              	.LVL30:
 202 00e4 FFF7FEFF 		bl	__aeabi_fsub
 203              	.LVL31:
  89:.\DSP\Source\TransformFunctions/arm_cfft_radix8_f32.c ****          t1 = r1 - r3;
 204              		.loc 1 89 0 discriminator 1
 205 00e8 2946     		mov	r1, r5
  88:.\DSP\Source\TransformFunctions/arm_cfft_radix8_f32.c ****          r8 = pSrc[2 * i4] - pSrc[2 * i8];
 206              		.loc 1 88 0 discriminator 1
 207 00ea 1290     		str	r0, [sp, #72]	@ float
 208              	.LVL32:
 209              		.loc 1 89 0 discriminator 1
 210 00ec 4046     		mov	r0, r8
 211              	.LVL33:
 212 00ee FFF7FEFF 		bl	__aeabi_fsub
 213              	.LVL34:
  90:.\DSP\Source\TransformFunctions/arm_cfft_radix8_f32.c ****          r1 = r1 + r3;
 214              		.loc 1 90 0 discriminator 1
 215 00f2 2946     		mov	r1, r5
  89:.\DSP\Source\TransformFunctions/arm_cfft_radix8_f32.c ****          t1 = r1 - r3;
 216              		.loc 1 89 0 discriminator 1
 217 00f4 1390     		str	r0, [sp, #76]	@ float
 218              	.LVL35:
 219              		.loc 1 90 0 discriminator 1
 220 00f6 4046     		mov	r0, r8
 221              	.LVL36:
 222 00f8 FFF7FEFF 		bl	__aeabi_fadd
 223              	.LVL37:
  91:.\DSP\Source\TransformFunctions/arm_cfft_radix8_f32.c ****          r3 = r2 - r4;
 224              		.loc 1 91 0 discriminator 1
 225 00fc 3146     		mov	r1, r6
  90:.\DSP\Source\TransformFunctions/arm_cfft_radix8_f32.c ****          r1 = r1 + r3;
 226              		.loc 1 90 0 discriminator 1
 227 00fe 0546     		mov	r5, r0
 228              	.LVL38:
 229              		.loc 1 91 0 discriminator 1
 230 0100 3846     		mov	r0, r7
 231              	.LVL39:
 232 0102 FFF7FEFF 		bl	__aeabi_fsub
 233              	.LVL40:
  92:.\DSP\Source\TransformFunctions/arm_cfft_radix8_f32.c ****          r2 = r2 + r4;
 234              		.loc 1 92 0 discriminator 1
 235 0106 3146     		mov	r1, r6
  91:.\DSP\Source\TransformFunctions/arm_cfft_radix8_f32.c ****          r3 = r2 - r4;
 236              		.loc 1 91 0 discriminator 1
 237 0108 1490     		str	r0, [sp, #80]	@ float
 238              	.LVL41:
ARM GAS  C:\Users\IVYLIU~1\AppData\Local\Temp\cc3ADQnL.s 			page 7


 239              		.loc 1 92 0 discriminator 1
 240 010a 3846     		mov	r0, r7
 241              	.LVL42:
 242 010c FFF7FEFF 		bl	__aeabi_fadd
 243              	.LVL43:
 244 0110 0646     		mov	r6, r0
 245              	.LVL44:
  93:.\DSP\Source\TransformFunctions/arm_cfft_radix8_f32.c ****          pSrc[2 * i1] = r1 + r2;
 246              		.loc 1 93 0 discriminator 1
 247 0112 2846     		mov	r0, r5
 248              	.LVL45:
 249 0114 3146     		mov	r1, r6
 250 0116 FFF7FEFF 		bl	__aeabi_fadd
 251              	.LVL46:
  94:.\DSP\Source\TransformFunctions/arm_cfft_radix8_f32.c ****          pSrc[2 * i5] = r1 - r2;
 252              		.loc 1 94 0 discriminator 1
 253 011a 3146     		mov	r1, r6
  93:.\DSP\Source\TransformFunctions/arm_cfft_radix8_f32.c ****          pSrc[2 * i1] = r1 + r2;
 254              		.loc 1 93 0 discriminator 1
 255 011c 44F8040C 		str	r0, [r4, #-4]	@ float
 256              		.loc 1 94 0 discriminator 1
 257 0120 2846     		mov	r0, r5
 258 0122 FFF7FEFF 		bl	__aeabi_fsub
 259              	.LVL47:
 260 0126 029B     		ldr	r3, [sp, #8]
 261 0128 4AF80300 		str	r0, [r10, r3]	@ float
  95:.\DSP\Source\TransformFunctions/arm_cfft_radix8_f32.c ****          r1 = pSrc[2 * i1 + 1] + pSrc[2 * i5 + 1];
 262              		.loc 1 95 0 discriminator 1
 263 012c 2668     		ldr	r6, [r4]	@ float
 264              	.LVL48:
 265 012e 059B     		ldr	r3, [sp, #20]
 266 0130 3046     		mov	r0, r6
 267 0132 E558     		ldr	r5, [r4, r3]	@ float
 268              	.LVL49:
 269 0134 2946     		mov	r1, r5
 270 0136 FFF7FEFF 		bl	__aeabi_fadd
 271              	.LVL50:
  96:.\DSP\Source\TransformFunctions/arm_cfft_radix8_f32.c ****          s5 = pSrc[2 * i1 + 1] - pSrc[2 * i5 + 1];
 272              		.loc 1 96 0 discriminator 1
 273 013a 2946     		mov	r1, r5
  95:.\DSP\Source\TransformFunctions/arm_cfft_radix8_f32.c ****          r1 = pSrc[2 * i1 + 1] + pSrc[2 * i5 + 1];
 274              		.loc 1 95 0 discriminator 1
 275 013c 0746     		mov	r7, r0
 276              	.LVL51:
 277              		.loc 1 96 0 discriminator 1
 278 013e 3046     		mov	r0, r6
 279              	.LVL52:
 280 0140 FFF7FEFF 		bl	__aeabi_fsub
 281              	.LVL53:
  97:.\DSP\Source\TransformFunctions/arm_cfft_radix8_f32.c ****          r2 = pSrc[2 * i2 + 1] + pSrc[2 * i6 + 1];
 282              		.loc 1 97 0 discriminator 1
 283 0144 039B     		ldr	r3, [sp, #12]
 284 0146 DAF80460 		ldr	r6, [r10, #4]	@ float
 285 014a E558     		ldr	r5, [r4, r3]	@ float
  96:.\DSP\Source\TransformFunctions/arm_cfft_radix8_f32.c ****          s5 = pSrc[2 * i1 + 1] - pSrc[2 * i5 + 1];
 286              		.loc 1 96 0 discriminator 1
 287 014c 1590     		str	r0, [sp, #84]	@ float
ARM GAS  C:\Users\IVYLIU~1\AppData\Local\Temp\cc3ADQnL.s 			page 8


 288              	.LVL54:
 289              		.loc 1 97 0 discriminator 1
 290 014e 2946     		mov	r1, r5
 291 0150 3046     		mov	r0, r6
 292              	.LVL55:
 293 0152 FFF7FEFF 		bl	__aeabi_fadd
 294              	.LVL56:
  98:.\DSP\Source\TransformFunctions/arm_cfft_radix8_f32.c ****          s6 = pSrc[2 * i2 + 1] - pSrc[2 * i6 + 1];
 295              		.loc 1 98 0 discriminator 1
 296 0156 2946     		mov	r1, r5
  97:.\DSP\Source\TransformFunctions/arm_cfft_radix8_f32.c ****          r2 = pSrc[2 * i2 + 1] + pSrc[2 * i6 + 1];
 297              		.loc 1 97 0 discriminator 1
 298 0158 1690     		str	r0, [sp, #88]	@ float
 299              	.LVL57:
 300              		.loc 1 98 0 discriminator 1
 301 015a 3046     		mov	r0, r6
 302              	.LVL58:
 303 015c FFF7FEFF 		bl	__aeabi_fsub
 304              	.LVL59:
  99:.\DSP\Source\TransformFunctions/arm_cfft_radix8_f32.c ****          s3 = pSrc[2 * i3 + 1] + pSrc[2 * i7 + 1];
 305              		.loc 1 99 0 discriminator 1
 306 0160 049B     		ldr	r3, [sp, #16]
  98:.\DSP\Source\TransformFunctions/arm_cfft_radix8_f32.c ****          s6 = pSrc[2 * i2 + 1] - pSrc[2 * i6 + 1];
 307              		.loc 1 98 0 discriminator 1
 308 0162 8346     		mov	fp, r0
 309              	.LVL60:
 310              		.loc 1 99 0 discriminator 1
 311 0164 54F80380 		ldr	r8, [r4, r3]	@ float
 312 0168 069B     		ldr	r3, [sp, #24]
 313 016a 4046     		mov	r0, r8
 314              	.LVL61:
 315 016c E558     		ldr	r5, [r4, r3]	@ float
 316 016e 2946     		mov	r1, r5
 317 0170 FFF7FEFF 		bl	__aeabi_fadd
 318              	.LVL62:
 100:.\DSP\Source\TransformFunctions/arm_cfft_radix8_f32.c ****          s7 = pSrc[2 * i3 + 1] - pSrc[2 * i7 + 1];
 319              		.loc 1 100 0 discriminator 1
 320 0174 2946     		mov	r1, r5
  99:.\DSP\Source\TransformFunctions/arm_cfft_radix8_f32.c ****          s3 = pSrc[2 * i3 + 1] + pSrc[2 * i7 + 1];
 321              		.loc 1 99 0 discriminator 1
 322 0176 0646     		mov	r6, r0
 323              	.LVL63:
 324              		.loc 1 100 0 discriminator 1
 325 0178 4046     		mov	r0, r8
 326              	.LVL64:
 327 017a FFF7FEFF 		bl	__aeabi_fsub
 328              	.LVL65:
 101:.\DSP\Source\TransformFunctions/arm_cfft_radix8_f32.c ****          r4 = pSrc[2 * i4 + 1] + pSrc[2 * i8 + 1];
 329              		.loc 1 101 0 discriminator 1
 330 017e 029B     		ldr	r3, [sp, #8]
 100:.\DSP\Source\TransformFunctions/arm_cfft_radix8_f32.c ****          s7 = pSrc[2 * i3 + 1] - pSrc[2 * i7 + 1];
 331              		.loc 1 100 0 discriminator 1
 332 0180 1790     		str	r0, [sp, #92]	@ float
 333              	.LVL66:
 334              		.loc 1 101 0 discriminator 1
 335 0182 54F80380 		ldr	r8, [r4, r3]	@ float
 336 0186 089B     		ldr	r3, [sp, #32]
ARM GAS  C:\Users\IVYLIU~1\AppData\Local\Temp\cc3ADQnL.s 			page 9


 337 0188 4046     		mov	r0, r8
 338              	.LVL67:
 339 018a E558     		ldr	r5, [r4, r3]	@ float
 340 018c 2946     		mov	r1, r5
 341 018e FFF7FEFF 		bl	__aeabi_fadd
 342              	.LVL68:
 102:.\DSP\Source\TransformFunctions/arm_cfft_radix8_f32.c ****          s8 = pSrc[2 * i4 + 1] - pSrc[2 * i8 + 1];
 343              		.loc 1 102 0 discriminator 1
 344 0192 2946     		mov	r1, r5
 101:.\DSP\Source\TransformFunctions/arm_cfft_radix8_f32.c ****          r4 = pSrc[2 * i4 + 1] + pSrc[2 * i8 + 1];
 345              		.loc 1 101 0 discriminator 1
 346 0194 8146     		mov	r9, r0
 347              	.LVL69:
 348              		.loc 1 102 0 discriminator 1
 349 0196 4046     		mov	r0, r8
 350              	.LVL70:
 351 0198 FFF7FEFF 		bl	__aeabi_fsub
 352              	.LVL71:
 103:.\DSP\Source\TransformFunctions/arm_cfft_radix8_f32.c ****          t2 = r1 - s3;
 353              		.loc 1 103 0 discriminator 1
 354 019c 3146     		mov	r1, r6
 102:.\DSP\Source\TransformFunctions/arm_cfft_radix8_f32.c ****          s8 = pSrc[2 * i4 + 1] - pSrc[2 * i8 + 1];
 355              		.loc 1 102 0 discriminator 1
 356 019e 8046     		mov	r8, r0
 357              	.LVL72:
 358              		.loc 1 103 0 discriminator 1
 359 01a0 3846     		mov	r0, r7
 360              	.LVL73:
 361 01a2 FFF7FEFF 		bl	__aeabi_fsub
 362              	.LVL74:
 104:.\DSP\Source\TransformFunctions/arm_cfft_radix8_f32.c ****          r1 = r1 + s3;
 363              		.loc 1 104 0 discriminator 1
 364 01a6 3146     		mov	r1, r6
 103:.\DSP\Source\TransformFunctions/arm_cfft_radix8_f32.c ****          t2 = r1 - s3;
 365              		.loc 1 103 0 discriminator 1
 366 01a8 0546     		mov	r5, r0
 367              	.LVL75:
 368              		.loc 1 104 0 discriminator 1
 369 01aa 3846     		mov	r0, r7
 370              	.LVL76:
 371 01ac FFF7FEFF 		bl	__aeabi_fadd
 372              	.LVL77:
 105:.\DSP\Source\TransformFunctions/arm_cfft_radix8_f32.c ****          s3 = r2 - r4;
 373              		.loc 1 105 0 discriminator 1
 374 01b0 4946     		mov	r1, r9
 104:.\DSP\Source\TransformFunctions/arm_cfft_radix8_f32.c ****          r1 = r1 + s3;
 375              		.loc 1 104 0 discriminator 1
 376 01b2 0746     		mov	r7, r0
 377              	.LVL78:
 378              		.loc 1 105 0 discriminator 1
 379 01b4 1698     		ldr	r0, [sp, #88]	@ float
 380              	.LVL79:
 381 01b6 FFF7FEFF 		bl	__aeabi_fsub
 382              	.LVL80:
 106:.\DSP\Source\TransformFunctions/arm_cfft_radix8_f32.c ****          r2 = r2 + r4;
 383              		.loc 1 106 0 discriminator 1
 384 01ba 4946     		mov	r1, r9
ARM GAS  C:\Users\IVYLIU~1\AppData\Local\Temp\cc3ADQnL.s 			page 10


 105:.\DSP\Source\TransformFunctions/arm_cfft_radix8_f32.c ****          s3 = r2 - r4;
 385              		.loc 1 105 0 discriminator 1
 386 01bc 0646     		mov	r6, r0
 387              	.LVL81:
 388              		.loc 1 106 0 discriminator 1
 389 01be 1698     		ldr	r0, [sp, #88]	@ float
 390              	.LVL82:
 391 01c0 FFF7FEFF 		bl	__aeabi_fadd
 392              	.LVL83:
 393 01c4 8146     		mov	r9, r0
 394              	.LVL84:
 107:.\DSP\Source\TransformFunctions/arm_cfft_radix8_f32.c ****          pSrc[2 * i1 + 1] = r1 + r2;
 395              		.loc 1 107 0 discriminator 1
 396 01c6 3846     		mov	r0, r7
 397              	.LVL85:
 398 01c8 4946     		mov	r1, r9
 399 01ca FFF7FEFF 		bl	__aeabi_fadd
 400              	.LVL86:
 108:.\DSP\Source\TransformFunctions/arm_cfft_radix8_f32.c ****          pSrc[2 * i5 + 1] = r1 - r2;
 401              		.loc 1 108 0 discriminator 1
 402 01ce 4946     		mov	r1, r9
 107:.\DSP\Source\TransformFunctions/arm_cfft_radix8_f32.c ****          pSrc[2 * i1 + 1] = r1 + r2;
 403              		.loc 1 107 0 discriminator 1
 404 01d0 2060     		str	r0, [r4]	@ float
 405              		.loc 1 108 0 discriminator 1
 406 01d2 3846     		mov	r0, r7
 407 01d4 FFF7FEFF 		bl	__aeabi_fsub
 408              	.LVL87:
 409 01d8 059B     		ldr	r3, [sp, #20]
 109:.\DSP\Source\TransformFunctions/arm_cfft_radix8_f32.c ****          pSrc[2 * i3]     = t1 + s3;
 410              		.loc 1 109 0 discriminator 1
 411 01da 3146     		mov	r1, r6
 108:.\DSP\Source\TransformFunctions/arm_cfft_radix8_f32.c ****          pSrc[2 * i5 + 1] = r1 - r2;
 412              		.loc 1 108 0 discriminator 1
 413 01dc E050     		str	r0, [r4, r3]	@ float
 414              		.loc 1 109 0 discriminator 1
 415 01de 1398     		ldr	r0, [sp, #76]	@ float
 416 01e0 FFF7FEFF 		bl	__aeabi_fadd
 417              	.LVL88:
 418 01e4 079A     		ldr	r2, [sp, #28]
 419 01e6 0C9B     		ldr	r3, [sp, #48]
 110:.\DSP\Source\TransformFunctions/arm_cfft_radix8_f32.c ****          pSrc[2 * i7]     = t1 - s3;
 420              		.loc 1 110 0 discriminator 1
 421 01e8 3146     		mov	r1, r6
 109:.\DSP\Source\TransformFunctions/arm_cfft_radix8_f32.c ****          pSrc[2 * i3]     = t1 + s3;
 422              		.loc 1 109 0 discriminator 1
 423 01ea 43F83200 		str	r0, [r3, r2, lsl #3]	@ float
 424              		.loc 1 110 0 discriminator 1
 425 01ee 1398     		ldr	r0, [sp, #76]	@ float
 426 01f0 FFF7FEFF 		bl	__aeabi_fsub
 427              	.LVL89:
 428 01f4 039B     		ldr	r3, [sp, #12]
 111:.\DSP\Source\TransformFunctions/arm_cfft_radix8_f32.c ****          pSrc[2 * i3 + 1] = t2 - r3;
 429              		.loc 1 111 0 discriminator 1
 430 01f6 1499     		ldr	r1, [sp, #80]	@ float
 110:.\DSP\Source\TransformFunctions/arm_cfft_radix8_f32.c ****          pSrc[2 * i7]     = t1 - s3;
 431              		.loc 1 110 0 discriminator 1
ARM GAS  C:\Users\IVYLIU~1\AppData\Local\Temp\cc3ADQnL.s 			page 11


 432 01f8 4AF80300 		str	r0, [r10, r3]	@ float
 433              		.loc 1 111 0 discriminator 1
 434 01fc 2846     		mov	r0, r5
 435 01fe FFF7FEFF 		bl	__aeabi_fsub
 436              	.LVL90:
 437 0202 049B     		ldr	r3, [sp, #16]
 112:.\DSP\Source\TransformFunctions/arm_cfft_radix8_f32.c ****          pSrc[2 * i7 + 1] = t2 + r3;
 438              		.loc 1 112 0 discriminator 1
 439 0204 1499     		ldr	r1, [sp, #80]	@ float
 111:.\DSP\Source\TransformFunctions/arm_cfft_radix8_f32.c ****          pSrc[2 * i3 + 1] = t2 - r3;
 440              		.loc 1 111 0 discriminator 1
 441 0206 E050     		str	r0, [r4, r3]	@ float
 442              		.loc 1 112 0 discriminator 1
 443 0208 2846     		mov	r0, r5
 444 020a FFF7FEFF 		bl	__aeabi_fadd
 445              	.LVL91:
 446 020e 069B     		ldr	r3, [sp, #24]
 113:.\DSP\Source\TransformFunctions/arm_cfft_radix8_f32.c ****          r1 = (r6 - r8) * C81;
 447              		.loc 1 113 0 discriminator 1
 448 0210 1299     		ldr	r1, [sp, #72]	@ float
 112:.\DSP\Source\TransformFunctions/arm_cfft_radix8_f32.c ****          pSrc[2 * i7 + 1] = t2 + r3;
 449              		.loc 1 112 0 discriminator 1
 450 0212 E050     		str	r0, [r4, r3]	@ float
 451              		.loc 1 113 0 discriminator 1
 452 0214 1098     		ldr	r0, [sp, #64]	@ float
 453 0216 FFF7FEFF 		bl	__aeabi_fsub
 454              	.LVL92:
 455 021a 6749     		ldr	r1, .L12
 456 021c FFF7FEFF 		bl	__aeabi_fmul
 457              	.LVL93:
 114:.\DSP\Source\TransformFunctions/arm_cfft_radix8_f32.c ****          r6 = (r6 + r8) * C81;
 458              		.loc 1 114 0 discriminator 1
 459 0220 1299     		ldr	r1, [sp, #72]	@ float
 113:.\DSP\Source\TransformFunctions/arm_cfft_radix8_f32.c ****          r1 = (r6 - r8) * C81;
 460              		.loc 1 113 0 discriminator 1
 461 0222 0646     		mov	r6, r0
 462              	.LVL94:
 463              		.loc 1 114 0 discriminator 1
 464 0224 1098     		ldr	r0, [sp, #64]	@ float
 465              	.LVL95:
 466 0226 FFF7FEFF 		bl	__aeabi_fadd
 467              	.LVL96:
 468 022a 6349     		ldr	r1, .L12
 469 022c FFF7FEFF 		bl	__aeabi_fmul
 470              	.LVL97:
 115:.\DSP\Source\TransformFunctions/arm_cfft_radix8_f32.c ****          r2 = (s6 - s8) * C81;
 471              		.loc 1 115 0 discriminator 1
 472 0230 4146     		mov	r1, r8
 114:.\DSP\Source\TransformFunctions/arm_cfft_radix8_f32.c ****          r6 = (r6 + r8) * C81;
 473              		.loc 1 114 0 discriminator 1
 474 0232 0546     		mov	r5, r0
 475              	.LVL98:
 476              		.loc 1 115 0 discriminator 1
 477 0234 5846     		mov	r0, fp
 478              	.LVL99:
 479 0236 FFF7FEFF 		bl	__aeabi_fsub
 480              	.LVL100:
ARM GAS  C:\Users\IVYLIU~1\AppData\Local\Temp\cc3ADQnL.s 			page 12


 481 023a 5F49     		ldr	r1, .L12
 482 023c FFF7FEFF 		bl	__aeabi_fmul
 483              	.LVL101:
 116:.\DSP\Source\TransformFunctions/arm_cfft_radix8_f32.c ****          s6 = (s6 + s8) * C81;
 484              		.loc 1 116 0 discriminator 1
 485 0240 4146     		mov	r1, r8
 115:.\DSP\Source\TransformFunctions/arm_cfft_radix8_f32.c ****          r2 = (s6 - s8) * C81;
 486              		.loc 1 115 0 discriminator 1
 487 0242 0746     		mov	r7, r0
 488              	.LVL102:
 489              		.loc 1 116 0 discriminator 1
 490 0244 5846     		mov	r0, fp
 491              	.LVL103:
 492 0246 FFF7FEFF 		bl	__aeabi_fadd
 493              	.LVL104:
 494 024a 5B49     		ldr	r1, .L12
 495 024c FFF7FEFF 		bl	__aeabi_fmul
 496              	.LVL105:
 117:.\DSP\Source\TransformFunctions/arm_cfft_radix8_f32.c ****          t1 = r5 - r1;
 497              		.loc 1 117 0 discriminator 1
 498 0250 3146     		mov	r1, r6
 116:.\DSP\Source\TransformFunctions/arm_cfft_radix8_f32.c ****          s6 = (s6 + s8) * C81;
 499              		.loc 1 116 0 discriminator 1
 500 0252 8346     		mov	fp, r0
 501              	.LVL106:
 502              		.loc 1 117 0 discriminator 1
 503 0254 0F98     		ldr	r0, [sp, #60]	@ float
 504              	.LVL107:
 505 0256 FFF7FEFF 		bl	__aeabi_fsub
 506              	.LVL108:
 118:.\DSP\Source\TransformFunctions/arm_cfft_radix8_f32.c ****          r5 = r5 + r1;
 507              		.loc 1 118 0 discriminator 1
 508 025a 3146     		mov	r1, r6
 117:.\DSP\Source\TransformFunctions/arm_cfft_radix8_f32.c ****          t1 = r5 - r1;
 509              		.loc 1 117 0 discriminator 1
 510 025c 8146     		mov	r9, r0
 511              	.LVL109:
 512              		.loc 1 118 0 discriminator 1
 513 025e 0F98     		ldr	r0, [sp, #60]	@ float
 514              	.LVL110:
 515 0260 FFF7FEFF 		bl	__aeabi_fadd
 516              	.LVL111:
 119:.\DSP\Source\TransformFunctions/arm_cfft_radix8_f32.c ****          r8 = r7 - r6;
 517              		.loc 1 119 0 discriminator 1
 518 0264 2946     		mov	r1, r5
 118:.\DSP\Source\TransformFunctions/arm_cfft_radix8_f32.c ****          r5 = r5 + r1;
 519              		.loc 1 118 0 discriminator 1
 520 0266 0F90     		str	r0, [sp, #60]	@ float
 521              	.LVL112:
 522              		.loc 1 119 0 discriminator 1
 523 0268 1198     		ldr	r0, [sp, #68]	@ float
 524              	.LVL113:
 525 026a FFF7FEFF 		bl	__aeabi_fsub
 526              	.LVL114:
 120:.\DSP\Source\TransformFunctions/arm_cfft_radix8_f32.c ****          r7 = r7 + r6;
 527              		.loc 1 120 0 discriminator 1
 528 026e 2946     		mov	r1, r5
ARM GAS  C:\Users\IVYLIU~1\AppData\Local\Temp\cc3ADQnL.s 			page 13


 119:.\DSP\Source\TransformFunctions/arm_cfft_radix8_f32.c ****          r8 = r7 - r6;
 529              		.loc 1 119 0 discriminator 1
 530 0270 1090     		str	r0, [sp, #64]	@ float
 531              	.LVL115:
 532              		.loc 1 120 0 discriminator 1
 533 0272 1198     		ldr	r0, [sp, #68]	@ float
 534              	.LVL116:
 535 0274 FFF7FEFF 		bl	__aeabi_fadd
 536              	.LVL117:
 121:.\DSP\Source\TransformFunctions/arm_cfft_radix8_f32.c ****          t2 = s5 - r2;
 537              		.loc 1 121 0 discriminator 1
 538 0278 3946     		mov	r1, r7
 120:.\DSP\Source\TransformFunctions/arm_cfft_radix8_f32.c ****          r7 = r7 + r6;
 539              		.loc 1 120 0 discriminator 1
 540 027a 0646     		mov	r6, r0
 541              	.LVL118:
 542              		.loc 1 121 0 discriminator 1
 543 027c 1598     		ldr	r0, [sp, #84]	@ float
 544              	.LVL119:
 545 027e FFF7FEFF 		bl	__aeabi_fsub
 546              	.LVL120:
 122:.\DSP\Source\TransformFunctions/arm_cfft_radix8_f32.c ****          s5 = s5 + r2;
 547              		.loc 1 122 0 discriminator 1
 548 0282 3946     		mov	r1, r7
 121:.\DSP\Source\TransformFunctions/arm_cfft_radix8_f32.c ****          t2 = s5 - r2;
 549              		.loc 1 121 0 discriminator 1
 550 0284 0546     		mov	r5, r0
 551              	.LVL121:
 552              		.loc 1 122 0 discriminator 1
 553 0286 1598     		ldr	r0, [sp, #84]	@ float
 554              	.LVL122:
 555 0288 FFF7FEFF 		bl	__aeabi_fadd
 556              	.LVL123:
 123:.\DSP\Source\TransformFunctions/arm_cfft_radix8_f32.c ****          s8 = s7 - s6;
 557              		.loc 1 123 0 discriminator 1
 558 028c 5946     		mov	r1, fp
 122:.\DSP\Source\TransformFunctions/arm_cfft_radix8_f32.c ****          s5 = s5 + r2;
 559              		.loc 1 122 0 discriminator 1
 560 028e 0746     		mov	r7, r0
 561              	.LVL124:
 562              		.loc 1 123 0 discriminator 1
 563 0290 1798     		ldr	r0, [sp, #92]	@ float
 564              	.LVL125:
 565 0292 FFF7FEFF 		bl	__aeabi_fsub
 566              	.LVL126:
 124:.\DSP\Source\TransformFunctions/arm_cfft_radix8_f32.c ****          s7 = s7 + s6;
 567              		.loc 1 124 0 discriminator 1
 568 0296 5946     		mov	r1, fp
 123:.\DSP\Source\TransformFunctions/arm_cfft_radix8_f32.c ****          s8 = s7 - s6;
 569              		.loc 1 123 0 discriminator 1
 570 0298 8046     		mov	r8, r0
 571              	.LVL127:
 572              		.loc 1 124 0 discriminator 1
 573 029a 1798     		ldr	r0, [sp, #92]	@ float
 574              	.LVL128:
 575 029c FFF7FEFF 		bl	__aeabi_fadd
 576              	.LVL129:
ARM GAS  C:\Users\IVYLIU~1\AppData\Local\Temp\cc3ADQnL.s 			page 14


 577 02a0 8346     		mov	fp, r0
 578              	.LVL130:
 125:.\DSP\Source\TransformFunctions/arm_cfft_radix8_f32.c ****          pSrc[2 * i2]     = r5 + s7;
 579              		.loc 1 125 0 discriminator 1
 580 02a2 0F98     		ldr	r0, [sp, #60]	@ float
 581              	.LVL131:
 582 02a4 5946     		mov	r1, fp
 583 02a6 FFF7FEFF 		bl	__aeabi_fadd
 584              	.LVL132:
 585 02aa 079A     		ldr	r2, [sp, #28]
 586 02ac 189B     		ldr	r3, [sp, #96]
 126:.\DSP\Source\TransformFunctions/arm_cfft_radix8_f32.c ****          pSrc[2 * i8]     = r5 - s7;
 587              		.loc 1 126 0 discriminator 1
 588 02ae 5946     		mov	r1, fp
 125:.\DSP\Source\TransformFunctions/arm_cfft_radix8_f32.c ****          pSrc[2 * i2]     = r5 + s7;
 589              		.loc 1 125 0 discriminator 1
 590 02b0 43F83200 		str	r0, [r3, r2, lsl #3]	@ float
 591              		.loc 1 126 0 discriminator 1
 592 02b4 0F98     		ldr	r0, [sp, #60]	@ float
 593 02b6 FFF7FEFF 		bl	__aeabi_fsub
 594              	.LVL133:
 595 02ba 069B     		ldr	r3, [sp, #24]
 127:.\DSP\Source\TransformFunctions/arm_cfft_radix8_f32.c ****          pSrc[2 * i6]     = t1 + s8;
 596              		.loc 1 127 0 discriminator 1
 597 02bc 4146     		mov	r1, r8
 126:.\DSP\Source\TransformFunctions/arm_cfft_radix8_f32.c ****          pSrc[2 * i8]     = r5 - s7;
 598              		.loc 1 126 0 discriminator 1
 599 02be 4AF80300 		str	r0, [r10, r3]	@ float
 600              		.loc 1 127 0 discriminator 1
 601 02c2 4846     		mov	r0, r9
 602 02c4 FFF7FEFF 		bl	__aeabi_fadd
 603              	.LVL134:
 604 02c8 059B     		ldr	r3, [sp, #20]
 128:.\DSP\Source\TransformFunctions/arm_cfft_radix8_f32.c ****          pSrc[2 * i4]     = t1 - s8;
 605              		.loc 1 128 0 discriminator 1
 606 02ca 4146     		mov	r1, r8
 127:.\DSP\Source\TransformFunctions/arm_cfft_radix8_f32.c ****          pSrc[2 * i6]     = t1 + s8;
 607              		.loc 1 127 0 discriminator 1
 608 02cc 4AF80300 		str	r0, [r10, r3]	@ float
 609              		.loc 1 128 0 discriminator 1
 610 02d0 4846     		mov	r0, r9
 611 02d2 FFF7FEFF 		bl	__aeabi_fsub
 612              	.LVL135:
 613 02d6 049B     		ldr	r3, [sp, #16]
 129:.\DSP\Source\TransformFunctions/arm_cfft_radix8_f32.c ****          pSrc[2 * i2 + 1] = s5 - r7;
 614              		.loc 1 129 0 discriminator 1
 615 02d8 3146     		mov	r1, r6
 128:.\DSP\Source\TransformFunctions/arm_cfft_radix8_f32.c ****          pSrc[2 * i4]     = t1 - s8;
 616              		.loc 1 128 0 discriminator 1
 617 02da 4AF80300 		str	r0, [r10, r3]	@ float
 618              		.loc 1 129 0 discriminator 1
 619 02de 3846     		mov	r0, r7
 620 02e0 FFF7FEFF 		bl	__aeabi_fsub
 621              	.LVL136:
 130:.\DSP\Source\TransformFunctions/arm_cfft_radix8_f32.c ****          pSrc[2 * i8 + 1] = s5 + r7;
 622              		.loc 1 130 0 discriminator 1
 623 02e4 3146     		mov	r1, r6
ARM GAS  C:\Users\IVYLIU~1\AppData\Local\Temp\cc3ADQnL.s 			page 15


 129:.\DSP\Source\TransformFunctions/arm_cfft_radix8_f32.c ****          pSrc[2 * i2 + 1] = s5 - r7;
 624              		.loc 1 129 0 discriminator 1
 625 02e6 CAF80400 		str	r0, [r10, #4]	@ float
 626              		.loc 1 130 0 discriminator 1
 627 02ea 3846     		mov	r0, r7
 628 02ec FFF7FEFF 		bl	__aeabi_fadd
 629              	.LVL137:
 630 02f0 089B     		ldr	r3, [sp, #32]
 131:.\DSP\Source\TransformFunctions/arm_cfft_radix8_f32.c ****          pSrc[2 * i6 + 1] = t2 - r8;
 631              		.loc 1 131 0 discriminator 1
 632 02f2 1099     		ldr	r1, [sp, #64]	@ float
 130:.\DSP\Source\TransformFunctions/arm_cfft_radix8_f32.c ****          pSrc[2 * i8 + 1] = s5 + r7;
 633              		.loc 1 130 0 discriminator 1
 634 02f4 E050     		str	r0, [r4, r3]	@ float
 635              		.loc 1 131 0 discriminator 1
 636 02f6 2846     		mov	r0, r5
 637 02f8 FFF7FEFF 		bl	__aeabi_fsub
 638              	.LVL138:
 639 02fc 039B     		ldr	r3, [sp, #12]
 132:.\DSP\Source\TransformFunctions/arm_cfft_radix8_f32.c ****          pSrc[2 * i4 + 1] = t2 + r8;
 640              		.loc 1 132 0 discriminator 1
 641 02fe 1099     		ldr	r1, [sp, #64]	@ float
 131:.\DSP\Source\TransformFunctions/arm_cfft_radix8_f32.c ****          pSrc[2 * i6 + 1] = t2 - r8;
 642              		.loc 1 131 0 discriminator 1
 643 0300 E050     		str	r0, [r4, r3]	@ float
 644              		.loc 1 132 0 discriminator 1
 645 0302 2846     		mov	r0, r5
 646 0304 FFF7FEFF 		bl	__aeabi_fadd
 647              	.LVL139:
 648 0308 029B     		ldr	r3, [sp, #8]
 133:.\DSP\Source\TransformFunctions/arm_cfft_radix8_f32.c **** 
 134:.\DSP\Source\TransformFunctions/arm_cfft_radix8_f32.c ****          i1 += n1;
 649              		.loc 1 134 0 discriminator 1
 650 030a 099A     		ldr	r2, [sp, #36]
 132:.\DSP\Source\TransformFunctions/arm_cfft_radix8_f32.c ****          pSrc[2 * i4 + 1] = t2 + r8;
 651              		.loc 1 132 0 discriminator 1
 652 030c E050     		str	r0, [r4, r3]	@ float
 653              		.loc 1 134 0 discriminator 1
 654 030e 079B     		ldr	r3, [sp, #28]
 655 0310 1344     		add	r3, r3, r2
 656 0312 0793     		str	r3, [sp, #28]
 657              	.LVL140:
 658 0314 0A9B     		ldr	r3, [sp, #40]
 659              	.LVL141:
 660 0316 9A44     		add	r10, r10, r3
 661 0318 1C44     		add	r4, r4, r3
 135:.\DSP\Source\TransformFunctions/arm_cfft_radix8_f32.c ****       } while (i1 < fftLen);
 662              		.loc 1 135 0 discriminator 1
 663 031a 079B     		ldr	r3, [sp, #28]
 664 031c 0E9A     		ldr	r2, [sp, #56]
 665 031e DDF868C0 		ldr	ip, [sp, #104]
 666 0322 9342     		cmp	r3, r2
 667 0324 199B     		ldr	r3, [sp, #100]
 668 0326 FFF49AAE 		bcc	.L2
 669              	.LVL142:
 136:.\DSP\Source\TransformFunctions/arm_cfft_radix8_f32.c **** 
 137:.\DSP\Source\TransformFunctions/arm_cfft_radix8_f32.c ****       if (n2 < 8)
ARM GAS  C:\Users\IVYLIU~1\AppData\Local\Temp\cc3ADQnL.s 			page 16


 670              		.loc 1 137 0
 671 032a 019B     		ldr	r3, [sp, #4]
 672 032c 072B     		cmp	r3, #7
 673 032e 40F28D82 		bls	.L1
 674 0332 0122     		movs	r2, #1
 675 0334 0D98     		ldr	r0, [sp, #52]
 676 0336 0B9B     		ldr	r3, [sp, #44]
 677 0338 0792     		str	r2, [sp, #28]
 678              	.LVL143:
 679              	.L5:
 138:.\DSP\Source\TransformFunctions/arm_cfft_radix8_f32.c ****          break;
 139:.\DSP\Source\TransformFunctions/arm_cfft_radix8_f32.c **** 
 140:.\DSP\Source\TransformFunctions/arm_cfft_radix8_f32.c ****       ia1 = 0;
 141:.\DSP\Source\TransformFunctions/arm_cfft_radix8_f32.c ****       j = 1;
 142:.\DSP\Source\TransformFunctions/arm_cfft_radix8_f32.c **** 
 143:.\DSP\Source\TransformFunctions/arm_cfft_radix8_f32.c ****       do
 144:.\DSP\Source\TransformFunctions/arm_cfft_radix8_f32.c ****       {
 145:.\DSP\Source\TransformFunctions/arm_cfft_radix8_f32.c ****          /*  index calculation for the coefficients */
 146:.\DSP\Source\TransformFunctions/arm_cfft_radix8_f32.c ****          id  = ia1 + twidCoefModifier;
 147:.\DSP\Source\TransformFunctions/arm_cfft_radix8_f32.c ****          ia1 = id;
 148:.\DSP\Source\TransformFunctions/arm_cfft_radix8_f32.c ****          ia2 = ia1 + id;
 149:.\DSP\Source\TransformFunctions/arm_cfft_radix8_f32.c ****          ia3 = ia2 + id;
 150:.\DSP\Source\TransformFunctions/arm_cfft_radix8_f32.c ****          ia4 = ia3 + id;
 151:.\DSP\Source\TransformFunctions/arm_cfft_radix8_f32.c ****          ia5 = ia4 + id;
 152:.\DSP\Source\TransformFunctions/arm_cfft_radix8_f32.c ****          ia6 = ia5 + id;
 153:.\DSP\Source\TransformFunctions/arm_cfft_radix8_f32.c ****          ia7 = ia6 + id;
 154:.\DSP\Source\TransformFunctions/arm_cfft_radix8_f32.c **** 
 155:.\DSP\Source\TransformFunctions/arm_cfft_radix8_f32.c ****          co2 = pCoef[2 * ia1];
 680              		.loc 1 155 0
 681 033a 5CF83320 		ldr	r2, [ip, r3, lsl #3]	@ float
 682 033e D900     		lsls	r1, r3, #3
 683 0340 0F92     		str	r2, [sp, #60]	@ float
 684              	.LVL144:
 685 0342 1A01     		lsls	r2, r3, #4
 686              	.LVL145:
 156:.\DSP\Source\TransformFunctions/arm_cfft_radix8_f32.c ****          co3 = pCoef[2 * ia2];
 687              		.loc 1 156 0
 688 0344 5CF80220 		ldr	r2, [ip, r2]	@ float
 689 0348 00F10C0A 		add	r10, r0, #12
 690 034c 1092     		str	r2, [sp, #64]	@ float
 691              	.LVL146:
 692 034e 1822     		movs	r2, #24
 693              	.LVL147:
 694 0350 5A43     		muls	r2, r3, r2
 157:.\DSP\Source\TransformFunctions/arm_cfft_radix8_f32.c ****          co4 = pCoef[2 * ia3];
 695              		.loc 1 157 0
 696 0352 5CF80220 		ldr	r2, [ip, r2]	@ float
 697 0356 1192     		str	r2, [sp, #68]	@ float
 698              	.LVL148:
 699 0358 5A01     		lsls	r2, r3, #5
 700              	.LVL149:
 158:.\DSP\Source\TransformFunctions/arm_cfft_radix8_f32.c ****          co5 = pCoef[2 * ia4];
 701              		.loc 1 158 0
 702 035a 5CF80220 		ldr	r2, [ip, r2]	@ float
 703 035e 1292     		str	r2, [sp, #72]	@ float
 704              	.LVL150:
 705 0360 2822     		movs	r2, #40
ARM GAS  C:\Users\IVYLIU~1\AppData\Local\Temp\cc3ADQnL.s 			page 17


 706              	.LVL151:
 707 0362 5A43     		muls	r2, r3, r2
 159:.\DSP\Source\TransformFunctions/arm_cfft_radix8_f32.c ****          co6 = pCoef[2 * ia5];
 708              		.loc 1 159 0
 709 0364 5CF80220 		ldr	r2, [ip, r2]	@ float
 710 0368 1392     		str	r2, [sp, #76]	@ float
 711              	.LVL152:
 712 036a 3022     		movs	r2, #48
 713              	.LVL153:
 714 036c 5A43     		muls	r2, r3, r2
 160:.\DSP\Source\TransformFunctions/arm_cfft_radix8_f32.c ****          co7 = pCoef[2 * ia6];
 715              		.loc 1 160 0
 716 036e 5CF80220 		ldr	r2, [ip, r2]	@ float
 717 0372 1492     		str	r2, [sp, #80]	@ float
 718              	.LVL154:
 719 0374 3822     		movs	r2, #56
 720              	.LVL155:
 721 0376 5A43     		muls	r2, r3, r2
 161:.\DSP\Source\TransformFunctions/arm_cfft_radix8_f32.c ****          co8 = pCoef[2 * ia7];
 722              		.loc 1 161 0
 723 0378 5CF80220 		ldr	r2, [ip, r2]	@ float
 724 037c 1592     		str	r2, [sp, #84]	@ float
 725              	.LVL156:
 726 037e 0CEB0102 		add	r2, ip, r1
 727              	.LVL157:
 162:.\DSP\Source\TransformFunctions/arm_cfft_radix8_f32.c ****          si2 = pCoef[2 * ia1 + 1];
 728              		.loc 1 162 0
 729 0382 5468     		ldr	r4, [r2, #4]	@ float
 730 0384 0A44     		add	r2, r2, r1
 731 0386 1694     		str	r4, [sp, #88]	@ float
 732              	.LVL158:
 163:.\DSP\Source\TransformFunctions/arm_cfft_radix8_f32.c ****          si3 = pCoef[2 * ia2 + 1];
 733              		.loc 1 163 0
 734 0388 5468     		ldr	r4, [r2, #4]	@ float
 735              	.LVL159:
 736 038a 0A44     		add	r2, r2, r1
 737 038c 1794     		str	r4, [sp, #92]	@ float
 738              	.LVL160:
 164:.\DSP\Source\TransformFunctions/arm_cfft_radix8_f32.c ****          si4 = pCoef[2 * ia3 + 1];
 739              		.loc 1 164 0
 740 038e 5468     		ldr	r4, [r2, #4]	@ float
 741              	.LVL161:
 742 0390 0A44     		add	r2, r2, r1
 743 0392 1894     		str	r4, [sp, #96]	@ float
 744              	.LVL162:
 165:.\DSP\Source\TransformFunctions/arm_cfft_radix8_f32.c ****          si5 = pCoef[2 * ia4 + 1];
 745              		.loc 1 165 0
 746 0394 5468     		ldr	r4, [r2, #4]	@ float
 747              	.LVL163:
 748 0396 0A44     		add	r2, r2, r1
 749 0398 1994     		str	r4, [sp, #100]	@ float
 750              	.LVL164:
 166:.\DSP\Source\TransformFunctions/arm_cfft_radix8_f32.c ****          si6 = pCoef[2 * ia5 + 1];
 751              		.loc 1 166 0
 752 039a 5468     		ldr	r4, [r2, #4]	@ float
 753              	.LVL165:
 754 039c 0A44     		add	r2, r2, r1
ARM GAS  C:\Users\IVYLIU~1\AppData\Local\Temp\cc3ADQnL.s 			page 18


 755 039e 1A94     		str	r4, [sp, #104]	@ float
 756              	.LVL166:
 167:.\DSP\Source\TransformFunctions/arm_cfft_radix8_f32.c ****          si7 = pCoef[2 * ia6 + 1];
 757              		.loc 1 167 0
 758 03a0 5468     		ldr	r4, [r2, #4]	@ float
 759              	.LVL167:
 760 03a2 0A44     		add	r2, r2, r1
 168:.\DSP\Source\TransformFunctions/arm_cfft_radix8_f32.c ****          si8 = pCoef[2 * ia7 + 1];
 761              		.loc 1 168 0
 762 03a4 5268     		ldr	r2, [r2, #4]	@ float
 167:.\DSP\Source\TransformFunctions/arm_cfft_radix8_f32.c ****          si7 = pCoef[2 * ia6 + 1];
 763              		.loc 1 167 0
 764 03a6 1B94     		str	r4, [sp, #108]	@ float
 765              	.LVL168:
 766              		.loc 1 168 0
 767 03a8 1C92     		str	r2, [sp, #112]	@ float
 768              	.LVL169:
 769 03aa 00F10802 		add	r2, r0, #8
 770              	.LVL170:
 771 03ae 1D92     		str	r2, [sp, #116]
 772 03b0 9346     		mov	fp, r2
 169:.\DSP\Source\TransformFunctions/arm_cfft_radix8_f32.c **** 
 170:.\DSP\Source\TransformFunctions/arm_cfft_radix8_f32.c ****          i1 = j;
 773              		.loc 1 170 0
 774 03b2 079A     		ldr	r2, [sp, #28]
 775 03b4 0C92     		str	r2, [sp, #48]
 776 03b6 01E0     		b	.L13
 777              	.L14:
 778              		.align	2
 779              	.L12:
 780 03b8 F304353F 		.word	1060439283
 781              	.L13:
 782              	.LVL171:
 783              	.L4:
 784 03bc 2893     		str	r3, [sp, #160]
 785              	.LVL172:
 171:.\DSP\Source\TransformFunctions/arm_cfft_radix8_f32.c **** 
 172:.\DSP\Source\TransformFunctions/arm_cfft_radix8_f32.c ****          do
 173:.\DSP\Source\TransformFunctions/arm_cfft_radix8_f32.c ****          {
 174:.\DSP\Source\TransformFunctions/arm_cfft_radix8_f32.c ****             /*  index calculation for the input */
 175:.\DSP\Source\TransformFunctions/arm_cfft_radix8_f32.c ****             i2 = i1 + n2;
 176:.\DSP\Source\TransformFunctions/arm_cfft_radix8_f32.c ****             i3 = i2 + n2;
 177:.\DSP\Source\TransformFunctions/arm_cfft_radix8_f32.c ****             i4 = i3 + n2;
 178:.\DSP\Source\TransformFunctions/arm_cfft_radix8_f32.c ****             i5 = i4 + n2;
 179:.\DSP\Source\TransformFunctions/arm_cfft_radix8_f32.c ****             i6 = i5 + n2;
 180:.\DSP\Source\TransformFunctions/arm_cfft_radix8_f32.c ****             i7 = i6 + n2;
 181:.\DSP\Source\TransformFunctions/arm_cfft_radix8_f32.c ****             i8 = i7 + n2;
 182:.\DSP\Source\TransformFunctions/arm_cfft_radix8_f32.c ****             r1 = pSrc[2 * i1] + pSrc[2 * i5];
 786              		.loc 1 182 0 discriminator 1
 787 03be 059B     		ldr	r3, [sp, #20]
 788              	.LVL173:
 789 03c0 5AF8045C 		ldr	r5, [r10, #-4]	@ float
 790 03c4 5BF80340 		ldr	r4, [fp, r3]	@ float
 791 03c8 2846     		mov	r0, r5
 792 03ca 2146     		mov	r1, r4
 793 03cc CDF8A4C0 		str	ip, [sp, #164]
 794 03d0 FFF7FEFF 		bl	__aeabi_fadd
ARM GAS  C:\Users\IVYLIU~1\AppData\Local\Temp\cc3ADQnL.s 			page 19


 795              	.LVL174:
 183:.\DSP\Source\TransformFunctions/arm_cfft_radix8_f32.c ****             r5 = pSrc[2 * i1] - pSrc[2 * i5];
 796              		.loc 1 183 0 discriminator 1
 797 03d4 2146     		mov	r1, r4
 182:.\DSP\Source\TransformFunctions/arm_cfft_radix8_f32.c ****             r5 = pSrc[2 * i1] - pSrc[2 * i5];
 798              		.loc 1 182 0 discriminator 1
 799 03d6 0746     		mov	r7, r0
 800              	.LVL175:
 801              		.loc 1 183 0 discriminator 1
 802 03d8 2846     		mov	r0, r5
 803              	.LVL176:
 804 03da FFF7FEFF 		bl	__aeabi_fsub
 805              	.LVL177:
 184:.\DSP\Source\TransformFunctions/arm_cfft_radix8_f32.c ****             r2 = pSrc[2 * i2] + pSrc[2 * i6];
 806              		.loc 1 184 0 discriminator 1
 807 03de 019B     		ldr	r3, [sp, #4]
 183:.\DSP\Source\TransformFunctions/arm_cfft_radix8_f32.c ****             r5 = pSrc[2 * i1] - pSrc[2 * i5];
 808              		.loc 1 183 0 discriminator 1
 809 03e0 1E90     		str	r0, [sp, #120]	@ float
 810              	.LVL178:
 811              		.loc 1 184 0 discriminator 1
 812 03e2 5BF83350 		ldr	r5, [fp, r3, lsl #3]	@ float
 813 03e6 039B     		ldr	r3, [sp, #12]
 814 03e8 2846     		mov	r0, r5
 815              	.LVL179:
 816 03ea 5BF80340 		ldr	r4, [fp, r3]	@ float
 817 03ee 2146     		mov	r1, r4
 818 03f0 FFF7FEFF 		bl	__aeabi_fadd
 819              	.LVL180:
 185:.\DSP\Source\TransformFunctions/arm_cfft_radix8_f32.c ****             r6 = pSrc[2 * i2] - pSrc[2 * i6];
 820              		.loc 1 185 0 discriminator 1
 821 03f4 2146     		mov	r1, r4
 184:.\DSP\Source\TransformFunctions/arm_cfft_radix8_f32.c ****             r2 = pSrc[2 * i2] + pSrc[2 * i6];
 822              		.loc 1 184 0 discriminator 1
 823 03f6 0646     		mov	r6, r0
 824              	.LVL181:
 825              		.loc 1 185 0 discriminator 1
 826 03f8 2846     		mov	r0, r5
 827              	.LVL182:
 828 03fa FFF7FEFF 		bl	__aeabi_fsub
 829              	.LVL183:
 186:.\DSP\Source\TransformFunctions/arm_cfft_radix8_f32.c ****             r3 = pSrc[2 * i3] + pSrc[2 * i7];
 830              		.loc 1 186 0 discriminator 1
 831 03fe 049B     		ldr	r3, [sp, #16]
 185:.\DSP\Source\TransformFunctions/arm_cfft_radix8_f32.c ****             r6 = pSrc[2 * i2] - pSrc[2 * i6];
 832              		.loc 1 185 0 discriminator 1
 833 0400 1F90     		str	r0, [sp, #124]	@ float
 834              	.LVL184:
 835              		.loc 1 186 0 discriminator 1
 836 0402 5BF80380 		ldr	r8, [fp, r3]	@ float
 837 0406 069B     		ldr	r3, [sp, #24]
 838 0408 4046     		mov	r0, r8
 839              	.LVL185:
 840 040a 5BF80350 		ldr	r5, [fp, r3]	@ float
 841 040e 2946     		mov	r1, r5
 842 0410 FFF7FEFF 		bl	__aeabi_fadd
 843              	.LVL186:
ARM GAS  C:\Users\IVYLIU~1\AppData\Local\Temp\cc3ADQnL.s 			page 20


 187:.\DSP\Source\TransformFunctions/arm_cfft_radix8_f32.c ****             r7 = pSrc[2 * i3] - pSrc[2 * i7];
 844              		.loc 1 187 0 discriminator 1
 845 0414 2946     		mov	r1, r5
 186:.\DSP\Source\TransformFunctions/arm_cfft_radix8_f32.c ****             r3 = pSrc[2 * i3] + pSrc[2 * i7];
 846              		.loc 1 186 0 discriminator 1
 847 0416 0446     		mov	r4, r0
 848              	.LVL187:
 849              		.loc 1 187 0 discriminator 1
 850 0418 4046     		mov	r0, r8
 851              	.LVL188:
 852 041a FFF7FEFF 		bl	__aeabi_fsub
 853              	.LVL189:
 188:.\DSP\Source\TransformFunctions/arm_cfft_radix8_f32.c ****             r4 = pSrc[2 * i4] + pSrc[2 * i8];
 854              		.loc 1 188 0 discriminator 1
 855 041e 029B     		ldr	r3, [sp, #8]
 187:.\DSP\Source\TransformFunctions/arm_cfft_radix8_f32.c ****             r7 = pSrc[2 * i3] - pSrc[2 * i7];
 856              		.loc 1 187 0 discriminator 1
 857 0420 2090     		str	r0, [sp, #128]	@ float
 858              	.LVL190:
 859              		.loc 1 188 0 discriminator 1
 860 0422 5BF80390 		ldr	r9, [fp, r3]	@ float
 861 0426 089B     		ldr	r3, [sp, #32]
 862 0428 4846     		mov	r0, r9
 863              	.LVL191:
 864 042a 5BF80380 		ldr	r8, [fp, r3]	@ float
 865 042e 4146     		mov	r1, r8
 866 0430 FFF7FEFF 		bl	__aeabi_fadd
 867              	.LVL192:
 189:.\DSP\Source\TransformFunctions/arm_cfft_radix8_f32.c ****             r8 = pSrc[2 * i4] - pSrc[2 * i8];
 868              		.loc 1 189 0 discriminator 1
 869 0434 4146     		mov	r1, r8
 188:.\DSP\Source\TransformFunctions/arm_cfft_radix8_f32.c ****             r4 = pSrc[2 * i4] + pSrc[2 * i8];
 870              		.loc 1 188 0 discriminator 1
 871 0436 0546     		mov	r5, r0
 872              	.LVL193:
 873              		.loc 1 189 0 discriminator 1
 874 0438 4846     		mov	r0, r9
 875              	.LVL194:
 876 043a FFF7FEFF 		bl	__aeabi_fsub
 877              	.LVL195:
 190:.\DSP\Source\TransformFunctions/arm_cfft_radix8_f32.c ****             t1 = r1 - r3;
 878              		.loc 1 190 0 discriminator 1
 879 043e 2146     		mov	r1, r4
 189:.\DSP\Source\TransformFunctions/arm_cfft_radix8_f32.c ****             r8 = pSrc[2 * i4] - pSrc[2 * i8];
 880              		.loc 1 189 0 discriminator 1
 881 0440 2190     		str	r0, [sp, #132]	@ float
 882              	.LVL196:
 883              		.loc 1 190 0 discriminator 1
 884 0442 3846     		mov	r0, r7
 885              	.LVL197:
 886 0444 FFF7FEFF 		bl	__aeabi_fsub
 887              	.LVL198:
 191:.\DSP\Source\TransformFunctions/arm_cfft_radix8_f32.c ****             r1 = r1 + r3;
 888              		.loc 1 191 0 discriminator 1
 889 0448 2146     		mov	r1, r4
 190:.\DSP\Source\TransformFunctions/arm_cfft_radix8_f32.c ****             t1 = r1 - r3;
 890              		.loc 1 190 0 discriminator 1
ARM GAS  C:\Users\IVYLIU~1\AppData\Local\Temp\cc3ADQnL.s 			page 21


 891 044a 8146     		mov	r9, r0
 892              	.LVL199:
 893              		.loc 1 191 0 discriminator 1
 894 044c 3846     		mov	r0, r7
 895              	.LVL200:
 896 044e FFF7FEFF 		bl	__aeabi_fadd
 897              	.LVL201:
 192:.\DSP\Source\TransformFunctions/arm_cfft_radix8_f32.c ****             r3 = r2 - r4;
 898              		.loc 1 192 0 discriminator 1
 899 0452 2946     		mov	r1, r5
 191:.\DSP\Source\TransformFunctions/arm_cfft_radix8_f32.c ****             r1 = r1 + r3;
 900              		.loc 1 191 0 discriminator 1
 901 0454 0446     		mov	r4, r0
 902              	.LVL202:
 903              		.loc 1 192 0 discriminator 1
 904 0456 3046     		mov	r0, r6
 905              	.LVL203:
 906 0458 FFF7FEFF 		bl	__aeabi_fsub
 907              	.LVL204:
 193:.\DSP\Source\TransformFunctions/arm_cfft_radix8_f32.c ****             r2 = r2 + r4;
 908              		.loc 1 193 0 discriminator 1
 909 045c 2946     		mov	r1, r5
 192:.\DSP\Source\TransformFunctions/arm_cfft_radix8_f32.c ****             r3 = r2 - r4;
 910              		.loc 1 192 0 discriminator 1
 911 045e 2290     		str	r0, [sp, #136]	@ float
 912              	.LVL205:
 913              		.loc 1 193 0 discriminator 1
 914 0460 3046     		mov	r0, r6
 915              	.LVL206:
 916 0462 FFF7FEFF 		bl	__aeabi_fadd
 917              	.LVL207:
 918 0466 0546     		mov	r5, r0
 919              	.LVL208:
 194:.\DSP\Source\TransformFunctions/arm_cfft_radix8_f32.c ****             pSrc[2 * i1] = r1 + r2;
 920              		.loc 1 194 0 discriminator 1
 921 0468 2046     		mov	r0, r4
 922              	.LVL209:
 923 046a 2946     		mov	r1, r5
 924 046c FFF7FEFF 		bl	__aeabi_fadd
 925              	.LVL210:
 195:.\DSP\Source\TransformFunctions/arm_cfft_radix8_f32.c ****             r2 = r1 - r2;
 926              		.loc 1 195 0 discriminator 1
 927 0470 2946     		mov	r1, r5
 194:.\DSP\Source\TransformFunctions/arm_cfft_radix8_f32.c ****             pSrc[2 * i1] = r1 + r2;
 928              		.loc 1 194 0 discriminator 1
 929 0472 4AF8040C 		str	r0, [r10, #-4]	@ float
 930              		.loc 1 195 0 discriminator 1
 931 0476 2046     		mov	r0, r4
 932 0478 FFF7FEFF 		bl	__aeabi_fsub
 933              	.LVL211:
 196:.\DSP\Source\TransformFunctions/arm_cfft_radix8_f32.c ****             s1 = pSrc[2 * i1 + 1] + pSrc[2 * i5 + 1];
 934              		.loc 1 196 0 discriminator 1
 935 047c 059B     		ldr	r3, [sp, #20]
 936 047e DBF80450 		ldr	r5, [fp, #4]	@ float
 937              	.LVL212:
 938 0482 5AF80340 		ldr	r4, [r10, r3]	@ float
 939              	.LVL213:
ARM GAS  C:\Users\IVYLIU~1\AppData\Local\Temp\cc3ADQnL.s 			page 22


 195:.\DSP\Source\TransformFunctions/arm_cfft_radix8_f32.c ****             r2 = r1 - r2;
 940              		.loc 1 195 0 discriminator 1
 941 0486 2390     		str	r0, [sp, #140]	@ float
 942              	.LVL214:
 943              		.loc 1 196 0 discriminator 1
 944 0488 2146     		mov	r1, r4
 945 048a 2846     		mov	r0, r5
 946              	.LVL215:
 947 048c FFF7FEFF 		bl	__aeabi_fadd
 948              	.LVL216:
 197:.\DSP\Source\TransformFunctions/arm_cfft_radix8_f32.c ****             s5 = pSrc[2 * i1 + 1] - pSrc[2 * i5 + 1];
 949              		.loc 1 197 0 discriminator 1
 950 0490 2146     		mov	r1, r4
 196:.\DSP\Source\TransformFunctions/arm_cfft_radix8_f32.c ****             s1 = pSrc[2 * i1 + 1] + pSrc[2 * i5 + 1];
 951              		.loc 1 196 0 discriminator 1
 952 0492 8046     		mov	r8, r0
 953              	.LVL217:
 954              		.loc 1 197 0 discriminator 1
 955 0494 2846     		mov	r0, r5
 956              	.LVL218:
 957 0496 FFF7FEFF 		bl	__aeabi_fsub
 958              	.LVL219:
 198:.\DSP\Source\TransformFunctions/arm_cfft_radix8_f32.c ****             s2 = pSrc[2 * i2 + 1] + pSrc[2 * i6 + 1];
 959              		.loc 1 198 0 discriminator 1
 960 049a 019B     		ldr	r3, [sp, #4]
 197:.\DSP\Source\TransformFunctions/arm_cfft_radix8_f32.c ****             s5 = pSrc[2 * i1 + 1] - pSrc[2 * i5 + 1];
 961              		.loc 1 197 0 discriminator 1
 962 049c 2490     		str	r0, [sp, #144]	@ float
 963              	.LVL220:
 964              		.loc 1 198 0 discriminator 1
 965 049e 5AF83350 		ldr	r5, [r10, r3, lsl #3]	@ float
 966 04a2 039B     		ldr	r3, [sp, #12]
 967 04a4 2846     		mov	r0, r5
 968              	.LVL221:
 969 04a6 5AF80340 		ldr	r4, [r10, r3]	@ float
 970 04aa 2146     		mov	r1, r4
 971 04ac FFF7FEFF 		bl	__aeabi_fadd
 972              	.LVL222:
 199:.\DSP\Source\TransformFunctions/arm_cfft_radix8_f32.c ****             s6 = pSrc[2 * i2 + 1] - pSrc[2 * i6 + 1];
 973              		.loc 1 199 0 discriminator 1
 974 04b0 2146     		mov	r1, r4
 198:.\DSP\Source\TransformFunctions/arm_cfft_radix8_f32.c ****             s2 = pSrc[2 * i2 + 1] + pSrc[2 * i6 + 1];
 975              		.loc 1 198 0 discriminator 1
 976 04b2 0646     		mov	r6, r0
 977              	.LVL223:
 978              		.loc 1 199 0 discriminator 1
 979 04b4 2846     		mov	r0, r5
 980              	.LVL224:
 981 04b6 FFF7FEFF 		bl	__aeabi_fsub
 982              	.LVL225:
 200:.\DSP\Source\TransformFunctions/arm_cfft_radix8_f32.c ****             s3 = pSrc[2 * i3 + 1] + pSrc[2 * i7 + 1];
 983              		.loc 1 200 0 discriminator 1
 984 04ba 049B     		ldr	r3, [sp, #16]
 199:.\DSP\Source\TransformFunctions/arm_cfft_radix8_f32.c ****             s6 = pSrc[2 * i2 + 1] - pSrc[2 * i6 + 1];
 985              		.loc 1 199 0 discriminator 1
 986 04bc 2590     		str	r0, [sp, #148]	@ float
 987              	.LVL226:
ARM GAS  C:\Users\IVYLIU~1\AppData\Local\Temp\cc3ADQnL.s 			page 23


 988              		.loc 1 200 0 discriminator 1
 989 04be 5AF80350 		ldr	r5, [r10, r3]	@ float
 990 04c2 069B     		ldr	r3, [sp, #24]
 991 04c4 2846     		mov	r0, r5
 992              	.LVL227:
 993 04c6 5AF80340 		ldr	r4, [r10, r3]	@ float
 994 04ca 2146     		mov	r1, r4
 995 04cc FFF7FEFF 		bl	__aeabi_fadd
 996              	.LVL228:
 201:.\DSP\Source\TransformFunctions/arm_cfft_radix8_f32.c ****             s7 = pSrc[2 * i3 + 1] - pSrc[2 * i7 + 1];
 997              		.loc 1 201 0 discriminator 1
 998 04d0 2146     		mov	r1, r4
 200:.\DSP\Source\TransformFunctions/arm_cfft_radix8_f32.c ****             s3 = pSrc[2 * i3 + 1] + pSrc[2 * i7 + 1];
 999              		.loc 1 200 0 discriminator 1
 1000 04d2 0746     		mov	r7, r0
 1001              	.LVL229:
 1002              		.loc 1 201 0 discriminator 1
 1003 04d4 2846     		mov	r0, r5
 1004              	.LVL230:
 1005 04d6 FFF7FEFF 		bl	__aeabi_fsub
 1006              	.LVL231:
 202:.\DSP\Source\TransformFunctions/arm_cfft_radix8_f32.c ****             s4 = pSrc[2 * i4 + 1] + pSrc[2 * i8 + 1];
 1007              		.loc 1 202 0 discriminator 1
 1008 04da 029B     		ldr	r3, [sp, #8]
 201:.\DSP\Source\TransformFunctions/arm_cfft_radix8_f32.c ****             s7 = pSrc[2 * i3 + 1] - pSrc[2 * i7 + 1];
 1009              		.loc 1 201 0 discriminator 1
 1010 04dc 2690     		str	r0, [sp, #152]	@ float
 1011              	.LVL232:
 1012              		.loc 1 202 0 discriminator 1
 1013 04de 5AF80320 		ldr	r2, [r10, r3]	@ float
 1014 04e2 089B     		ldr	r3, [sp, #32]
 1015 04e4 1046     		mov	r0, r2
 1016              	.LVL233:
 1017 04e6 5AF80350 		ldr	r5, [r10, r3]	@ float
 1018 04ea 2792     		str	r2, [sp, #156]
 1019 04ec 2946     		mov	r1, r5
 1020 04ee FFF7FEFF 		bl	__aeabi_fadd
 1021              	.LVL234:
 203:.\DSP\Source\TransformFunctions/arm_cfft_radix8_f32.c ****             s8 = pSrc[2 * i4 + 1] - pSrc[2 * i8 + 1];
 1022              		.loc 1 203 0 discriminator 1
 1023 04f2 279A     		ldr	r2, [sp, #156]
 202:.\DSP\Source\TransformFunctions/arm_cfft_radix8_f32.c ****             s4 = pSrc[2 * i4 + 1] + pSrc[2 * i8 + 1];
 1024              		.loc 1 202 0 discriminator 1
 1025 04f4 0446     		mov	r4, r0
 1026              	.LVL235:
 1027              		.loc 1 203 0 discriminator 1
 1028 04f6 2946     		mov	r1, r5
 1029 04f8 1046     		mov	r0, r2
 1030              	.LVL236:
 1031 04fa FFF7FEFF 		bl	__aeabi_fsub
 1032              	.LVL237:
 204:.\DSP\Source\TransformFunctions/arm_cfft_radix8_f32.c ****             t2 = s1 - s3;
 1033              		.loc 1 204 0 discriminator 1
 1034 04fe 3946     		mov	r1, r7
 203:.\DSP\Source\TransformFunctions/arm_cfft_radix8_f32.c ****             s8 = pSrc[2 * i4 + 1] - pSrc[2 * i8 + 1];
 1035              		.loc 1 203 0 discriminator 1
 1036 0500 2790     		str	r0, [sp, #156]	@ float
ARM GAS  C:\Users\IVYLIU~1\AppData\Local\Temp\cc3ADQnL.s 			page 24


 1037              	.LVL238:
 1038              		.loc 1 204 0 discriminator 1
 1039 0502 4046     		mov	r0, r8
 1040              	.LVL239:
 1041 0504 FFF7FEFF 		bl	__aeabi_fsub
 1042              	.LVL240:
 205:.\DSP\Source\TransformFunctions/arm_cfft_radix8_f32.c ****             s1 = s1 + s3;
 1043              		.loc 1 205 0 discriminator 1
 1044 0508 3946     		mov	r1, r7
 204:.\DSP\Source\TransformFunctions/arm_cfft_radix8_f32.c ****             t2 = s1 - s3;
 1045              		.loc 1 204 0 discriminator 1
 1046 050a 0546     		mov	r5, r0
 1047              	.LVL241:
 1048              		.loc 1 205 0 discriminator 1
 1049 050c 4046     		mov	r0, r8
 1050              	.LVL242:
 1051 050e FFF7FEFF 		bl	__aeabi_fadd
 1052              	.LVL243:
 206:.\DSP\Source\TransformFunctions/arm_cfft_radix8_f32.c ****             s3 = s2 - s4;
 1053              		.loc 1 206 0 discriminator 1
 1054 0512 2146     		mov	r1, r4
 205:.\DSP\Source\TransformFunctions/arm_cfft_radix8_f32.c ****             s1 = s1 + s3;
 1055              		.loc 1 205 0 discriminator 1
 1056 0514 0746     		mov	r7, r0
 1057              	.LVL244:
 1058              		.loc 1 206 0 discriminator 1
 1059 0516 3046     		mov	r0, r6
 1060              	.LVL245:
 1061 0518 FFF7FEFF 		bl	__aeabi_fsub
 1062              	.LVL246:
 207:.\DSP\Source\TransformFunctions/arm_cfft_radix8_f32.c ****             s2 = s2 + s4;
 1063              		.loc 1 207 0 discriminator 1
 1064 051c 2146     		mov	r1, r4
 206:.\DSP\Source\TransformFunctions/arm_cfft_radix8_f32.c ****             s3 = s2 - s4;
 1065              		.loc 1 206 0 discriminator 1
 1066 051e 8046     		mov	r8, r0
 1067              	.LVL247:
 1068              		.loc 1 207 0 discriminator 1
 1069 0520 3046     		mov	r0, r6
 1070              	.LVL248:
 1071 0522 FFF7FEFF 		bl	__aeabi_fadd
 1072              	.LVL249:
 208:.\DSP\Source\TransformFunctions/arm_cfft_radix8_f32.c ****             r1 = t1 + s3;
 1073              		.loc 1 208 0 discriminator 1
 1074 0526 4146     		mov	r1, r8
 207:.\DSP\Source\TransformFunctions/arm_cfft_radix8_f32.c ****             s2 = s2 + s4;
 1075              		.loc 1 207 0 discriminator 1
 1076 0528 0646     		mov	r6, r0
 1077              	.LVL250:
 1078              		.loc 1 208 0 discriminator 1
 1079 052a 4846     		mov	r0, r9
 1080              	.LVL251:
 1081 052c FFF7FEFF 		bl	__aeabi_fadd
 1082              	.LVL252:
 209:.\DSP\Source\TransformFunctions/arm_cfft_radix8_f32.c ****             t1 = t1 - s3;
 1083              		.loc 1 209 0 discriminator 1
 1084 0530 4146     		mov	r1, r8
ARM GAS  C:\Users\IVYLIU~1\AppData\Local\Temp\cc3ADQnL.s 			page 25


 208:.\DSP\Source\TransformFunctions/arm_cfft_radix8_f32.c ****             r1 = t1 + s3;
 1085              		.loc 1 208 0 discriminator 1
 1086 0532 0446     		mov	r4, r0
 1087              	.LVL253:
 1088              		.loc 1 209 0 discriminator 1
 1089 0534 4846     		mov	r0, r9
 1090              	.LVL254:
 1091 0536 FFF7FEFF 		bl	__aeabi_fsub
 1092              	.LVL255:
 210:.\DSP\Source\TransformFunctions/arm_cfft_radix8_f32.c ****             pSrc[2 * i1 + 1] = s1 + s2;
 1093              		.loc 1 210 0 discriminator 1
 1094 053a 3146     		mov	r1, r6
 209:.\DSP\Source\TransformFunctions/arm_cfft_radix8_f32.c ****             t1 = t1 - s3;
 1095              		.loc 1 209 0 discriminator 1
 1096 053c 8046     		mov	r8, r0
 1097              	.LVL256:
 1098              		.loc 1 210 0 discriminator 1
 1099 053e 3846     		mov	r0, r7
 1100              	.LVL257:
 1101 0540 FFF7FEFF 		bl	__aeabi_fadd
 1102              	.LVL258:
 211:.\DSP\Source\TransformFunctions/arm_cfft_radix8_f32.c ****             s2 = s1 - s2;
 1103              		.loc 1 211 0 discriminator 1
 1104 0544 3146     		mov	r1, r6
 210:.\DSP\Source\TransformFunctions/arm_cfft_radix8_f32.c ****             pSrc[2 * i1 + 1] = s1 + s2;
 1105              		.loc 1 210 0 discriminator 1
 1106 0546 CBF80400 		str	r0, [fp, #4]	@ float
 1107              		.loc 1 211 0 discriminator 1
 1108 054a 3846     		mov	r0, r7
 1109 054c FFF7FEFF 		bl	__aeabi_fsub
 1110              	.LVL259:
 212:.\DSP\Source\TransformFunctions/arm_cfft_radix8_f32.c ****             s1 = t2 - r3;
 1111              		.loc 1 212 0 discriminator 1
 1112 0550 2299     		ldr	r1, [sp, #136]	@ float
 211:.\DSP\Source\TransformFunctions/arm_cfft_radix8_f32.c ****             s2 = s1 - s2;
 1113              		.loc 1 211 0 discriminator 1
 1114 0552 0746     		mov	r7, r0
 1115              	.LVL260:
 1116              		.loc 1 212 0 discriminator 1
 1117 0554 2846     		mov	r0, r5
 1118              	.LVL261:
 1119 0556 FFF7FEFF 		bl	__aeabi_fsub
 1120              	.LVL262:
 213:.\DSP\Source\TransformFunctions/arm_cfft_radix8_f32.c ****             t2 = t2 + r3;
 1121              		.loc 1 213 0 discriminator 1
 1122 055a 2299     		ldr	r1, [sp, #136]	@ float
 212:.\DSP\Source\TransformFunctions/arm_cfft_radix8_f32.c ****             s1 = t2 - r3;
 1123              		.loc 1 212 0 discriminator 1
 1124 055c 0646     		mov	r6, r0
 1125              	.LVL263:
 1126              		.loc 1 213 0 discriminator 1
 1127 055e 2846     		mov	r0, r5
 1128              	.LVL264:
 1129 0560 FFF7FEFF 		bl	__aeabi_fadd
 1130              	.LVL265:
 1131 0564 0546     		mov	r5, r0
 1132              	.LVL266:
ARM GAS  C:\Users\IVYLIU~1\AppData\Local\Temp\cc3ADQnL.s 			page 26


 214:.\DSP\Source\TransformFunctions/arm_cfft_radix8_f32.c ****             p1 = co5 * r2;
 1133              		.loc 1 214 0 discriminator 1
 1134 0566 1298     		ldr	r0, [sp, #72]	@ float
 1135              	.LVL267:
 1136 0568 2399     		ldr	r1, [sp, #140]	@ float
 1137 056a FFF7FEFF 		bl	__aeabi_fmul
 1138              	.LVL268:
 215:.\DSP\Source\TransformFunctions/arm_cfft_radix8_f32.c ****             p2 = si5 * s2;
 1139              		.loc 1 215 0 discriminator 1
 1140 056e 3946     		mov	r1, r7
 214:.\DSP\Source\TransformFunctions/arm_cfft_radix8_f32.c ****             p1 = co5 * r2;
 1141              		.loc 1 214 0 discriminator 1
 1142 0570 8146     		mov	r9, r0
 1143              		.loc 1 215 0 discriminator 1
 1144 0572 1998     		ldr	r0, [sp, #100]	@ float
 1145 0574 FFF7FEFF 		bl	__aeabi_fmul
 1146              	.LVL269:
 1147 0578 0146     		mov	r1, r0
 216:.\DSP\Source\TransformFunctions/arm_cfft_radix8_f32.c ****             p3 = co5 * s2;
 217:.\DSP\Source\TransformFunctions/arm_cfft_radix8_f32.c ****             p4 = si5 * r2;
 218:.\DSP\Source\TransformFunctions/arm_cfft_radix8_f32.c ****             pSrc[2 * i5]     = p1 + p2;
 1148              		.loc 1 218 0 discriminator 1
 1149 057a 4846     		mov	r0, r9
 1150 057c FFF7FEFF 		bl	__aeabi_fadd
 1151              	.LVL270:
 1152 0580 059B     		ldr	r3, [sp, #20]
 216:.\DSP\Source\TransformFunctions/arm_cfft_radix8_f32.c ****             p3 = co5 * s2;
 1153              		.loc 1 216 0 discriminator 1
 1154 0582 3946     		mov	r1, r7
 1155              		.loc 1 218 0 discriminator 1
 1156 0584 4BF80300 		str	r0, [fp, r3]	@ float
 216:.\DSP\Source\TransformFunctions/arm_cfft_radix8_f32.c ****             p3 = co5 * s2;
 1157              		.loc 1 216 0 discriminator 1
 1158 0588 1298     		ldr	r0, [sp, #72]	@ float
 1159 058a FFF7FEFF 		bl	__aeabi_fmul
 1160              	.LVL271:
 217:.\DSP\Source\TransformFunctions/arm_cfft_radix8_f32.c ****             pSrc[2 * i5]     = p1 + p2;
 1161              		.loc 1 217 0 discriminator 1
 1162 058e 2399     		ldr	r1, [sp, #140]	@ float
 216:.\DSP\Source\TransformFunctions/arm_cfft_radix8_f32.c ****             p3 = co5 * s2;
 1163              		.loc 1 216 0 discriminator 1
 1164 0590 0746     		mov	r7, r0
 1165              	.LVL272:
 217:.\DSP\Source\TransformFunctions/arm_cfft_radix8_f32.c ****             pSrc[2 * i5]     = p1 + p2;
 1166              		.loc 1 217 0 discriminator 1
 1167 0592 1998     		ldr	r0, [sp, #100]	@ float
 1168 0594 FFF7FEFF 		bl	__aeabi_fmul
 1169              	.LVL273:
 1170 0598 0146     		mov	r1, r0
 219:.\DSP\Source\TransformFunctions/arm_cfft_radix8_f32.c ****             pSrc[2 * i5 + 1] = p3 - p4;
 1171              		.loc 1 219 0 discriminator 1
 1172 059a 3846     		mov	r0, r7
 1173 059c FFF7FEFF 		bl	__aeabi_fsub
 1174              	.LVL274:
 1175 05a0 059B     		ldr	r3, [sp, #20]
 220:.\DSP\Source\TransformFunctions/arm_cfft_radix8_f32.c ****             p1 = co3 * r1;
 1176              		.loc 1 220 0 discriminator 1
ARM GAS  C:\Users\IVYLIU~1\AppData\Local\Temp\cc3ADQnL.s 			page 27


 1177 05a2 2146     		mov	r1, r4
 219:.\DSP\Source\TransformFunctions/arm_cfft_radix8_f32.c ****             pSrc[2 * i5 + 1] = p3 - p4;
 1178              		.loc 1 219 0 discriminator 1
 1179 05a4 4AF80300 		str	r0, [r10, r3]	@ float
 1180              	.LVL275:
 1181              		.loc 1 220 0 discriminator 1
 1182 05a8 1098     		ldr	r0, [sp, #64]	@ float
 1183 05aa FFF7FEFF 		bl	__aeabi_fmul
 1184              	.LVL276:
 221:.\DSP\Source\TransformFunctions/arm_cfft_radix8_f32.c ****             p2 = si3 * s1;
 1185              		.loc 1 221 0 discriminator 1
 1186 05ae 3146     		mov	r1, r6
 220:.\DSP\Source\TransformFunctions/arm_cfft_radix8_f32.c ****             p1 = co3 * r1;
 1187              		.loc 1 220 0 discriminator 1
 1188 05b0 0746     		mov	r7, r0
 1189              		.loc 1 221 0 discriminator 1
 1190 05b2 1798     		ldr	r0, [sp, #92]	@ float
 1191 05b4 FFF7FEFF 		bl	__aeabi_fmul
 1192              	.LVL277:
 1193 05b8 0146     		mov	r1, r0
 222:.\DSP\Source\TransformFunctions/arm_cfft_radix8_f32.c ****             p3 = co3 * s1;
 223:.\DSP\Source\TransformFunctions/arm_cfft_radix8_f32.c ****             p4 = si3 * r1;
 224:.\DSP\Source\TransformFunctions/arm_cfft_radix8_f32.c ****             pSrc[2 * i3]     = p1 + p2;
 1194              		.loc 1 224 0 discriminator 1
 1195 05ba 3846     		mov	r0, r7
 1196 05bc FFF7FEFF 		bl	__aeabi_fadd
 1197              	.LVL278:
 1198 05c0 049B     		ldr	r3, [sp, #16]
 222:.\DSP\Source\TransformFunctions/arm_cfft_radix8_f32.c ****             p3 = co3 * s1;
 1199              		.loc 1 222 0 discriminator 1
 1200 05c2 3146     		mov	r1, r6
 1201              		.loc 1 224 0 discriminator 1
 1202 05c4 4BF80300 		str	r0, [fp, r3]	@ float
 222:.\DSP\Source\TransformFunctions/arm_cfft_radix8_f32.c ****             p3 = co3 * s1;
 1203              		.loc 1 222 0 discriminator 1
 1204 05c8 1098     		ldr	r0, [sp, #64]	@ float
 1205 05ca FFF7FEFF 		bl	__aeabi_fmul
 1206              	.LVL279:
 223:.\DSP\Source\TransformFunctions/arm_cfft_radix8_f32.c ****             pSrc[2 * i3]     = p1 + p2;
 1207              		.loc 1 223 0 discriminator 1
 1208 05ce 2146     		mov	r1, r4
 222:.\DSP\Source\TransformFunctions/arm_cfft_radix8_f32.c ****             p3 = co3 * s1;
 1209              		.loc 1 222 0 discriminator 1
 1210 05d0 0646     		mov	r6, r0
 1211              	.LVL280:
 223:.\DSP\Source\TransformFunctions/arm_cfft_radix8_f32.c ****             pSrc[2 * i3]     = p1 + p2;
 1212              		.loc 1 223 0 discriminator 1
 1213 05d2 1798     		ldr	r0, [sp, #92]	@ float
 1214 05d4 FFF7FEFF 		bl	__aeabi_fmul
 1215              	.LVL281:
 1216 05d8 0146     		mov	r1, r0
 225:.\DSP\Source\TransformFunctions/arm_cfft_radix8_f32.c ****             pSrc[2 * i3 + 1] = p3 - p4;
 1217              		.loc 1 225 0 discriminator 1
 1218 05da 3046     		mov	r0, r6
 1219 05dc FFF7FEFF 		bl	__aeabi_fsub
 1220              	.LVL282:
 1221 05e0 049B     		ldr	r3, [sp, #16]
ARM GAS  C:\Users\IVYLIU~1\AppData\Local\Temp\cc3ADQnL.s 			page 28


 226:.\DSP\Source\TransformFunctions/arm_cfft_radix8_f32.c ****             p1 = co7 * t1;
 1222              		.loc 1 226 0 discriminator 1
 1223 05e2 4146     		mov	r1, r8
 225:.\DSP\Source\TransformFunctions/arm_cfft_radix8_f32.c ****             pSrc[2 * i3 + 1] = p3 - p4;
 1224              		.loc 1 225 0 discriminator 1
 1225 05e4 4AF80300 		str	r0, [r10, r3]	@ float
 1226              	.LVL283:
 1227              		.loc 1 226 0 discriminator 1
 1228 05e8 1498     		ldr	r0, [sp, #80]	@ float
 1229 05ea FFF7FEFF 		bl	__aeabi_fmul
 1230              	.LVL284:
 227:.\DSP\Source\TransformFunctions/arm_cfft_radix8_f32.c ****             p2 = si7 * t2;
 1231              		.loc 1 227 0 discriminator 1
 1232 05ee 2946     		mov	r1, r5
 226:.\DSP\Source\TransformFunctions/arm_cfft_radix8_f32.c ****             p1 = co7 * t1;
 1233              		.loc 1 226 0 discriminator 1
 1234 05f0 0446     		mov	r4, r0
 1235              	.LVL285:
 1236              		.loc 1 227 0 discriminator 1
 1237 05f2 1B98     		ldr	r0, [sp, #108]	@ float
 1238 05f4 FFF7FEFF 		bl	__aeabi_fmul
 1239              	.LVL286:
 1240 05f8 0146     		mov	r1, r0
 228:.\DSP\Source\TransformFunctions/arm_cfft_radix8_f32.c ****             p3 = co7 * t2;
 229:.\DSP\Source\TransformFunctions/arm_cfft_radix8_f32.c ****             p4 = si7 * t1;
 230:.\DSP\Source\TransformFunctions/arm_cfft_radix8_f32.c ****             pSrc[2 * i7]     = p1 + p2;
 1241              		.loc 1 230 0 discriminator 1
 1242 05fa 2046     		mov	r0, r4
 1243 05fc FFF7FEFF 		bl	__aeabi_fadd
 1244              	.LVL287:
 1245 0600 069B     		ldr	r3, [sp, #24]
 228:.\DSP\Source\TransformFunctions/arm_cfft_radix8_f32.c ****             p3 = co7 * t2;
 1246              		.loc 1 228 0 discriminator 1
 1247 0602 2946     		mov	r1, r5
 1248              		.loc 1 230 0 discriminator 1
 1249 0604 4BF80300 		str	r0, [fp, r3]	@ float
 228:.\DSP\Source\TransformFunctions/arm_cfft_radix8_f32.c ****             p3 = co7 * t2;
 1250              		.loc 1 228 0 discriminator 1
 1251 0608 1498     		ldr	r0, [sp, #80]	@ float
 1252 060a FFF7FEFF 		bl	__aeabi_fmul
 1253              	.LVL288:
 229:.\DSP\Source\TransformFunctions/arm_cfft_radix8_f32.c ****             pSrc[2 * i7]     = p1 + p2;
 1254              		.loc 1 229 0 discriminator 1
 1255 060e 4146     		mov	r1, r8
 228:.\DSP\Source\TransformFunctions/arm_cfft_radix8_f32.c ****             p3 = co7 * t2;
 1256              		.loc 1 228 0 discriminator 1
 1257 0610 0446     		mov	r4, r0
 229:.\DSP\Source\TransformFunctions/arm_cfft_radix8_f32.c ****             pSrc[2 * i7]     = p1 + p2;
 1258              		.loc 1 229 0 discriminator 1
 1259 0612 1B98     		ldr	r0, [sp, #108]	@ float
 1260 0614 FFF7FEFF 		bl	__aeabi_fmul
 1261              	.LVL289:
 1262 0618 0146     		mov	r1, r0
 231:.\DSP\Source\TransformFunctions/arm_cfft_radix8_f32.c ****             pSrc[2 * i7 + 1] = p3 - p4;
 1263              		.loc 1 231 0 discriminator 1
 1264 061a 2046     		mov	r0, r4
 1265 061c FFF7FEFF 		bl	__aeabi_fsub
ARM GAS  C:\Users\IVYLIU~1\AppData\Local\Temp\cc3ADQnL.s 			page 29


 1266              	.LVL290:
 1267 0620 069B     		ldr	r3, [sp, #24]
 232:.\DSP\Source\TransformFunctions/arm_cfft_radix8_f32.c ****             r1 = (r6 - r8) * C81;
 1268              		.loc 1 232 0 discriminator 1
 1269 0622 2199     		ldr	r1, [sp, #132]	@ float
 231:.\DSP\Source\TransformFunctions/arm_cfft_radix8_f32.c ****             pSrc[2 * i7 + 1] = p3 - p4;
 1270              		.loc 1 231 0 discriminator 1
 1271 0624 4AF80300 		str	r0, [r10, r3]	@ float
 1272              		.loc 1 232 0 discriminator 1
 1273 0628 1F98     		ldr	r0, [sp, #124]	@ float
 1274 062a FFF7FEFF 		bl	__aeabi_fsub
 1275              	.LVL291:
 1276 062e 8949     		ldr	r1, .L15
 1277 0630 FFF7FEFF 		bl	__aeabi_fmul
 1278              	.LVL292:
 233:.\DSP\Source\TransformFunctions/arm_cfft_radix8_f32.c ****             r6 = (r6 + r8) * C81;
 1279              		.loc 1 233 0 discriminator 1
 1280 0634 2199     		ldr	r1, [sp, #132]	@ float
 232:.\DSP\Source\TransformFunctions/arm_cfft_radix8_f32.c ****             r1 = (r6 - r8) * C81;
 1281              		.loc 1 232 0 discriminator 1
 1282 0636 0446     		mov	r4, r0
 1283              	.LVL293:
 1284              		.loc 1 233 0 discriminator 1
 1285 0638 1F98     		ldr	r0, [sp, #124]	@ float
 1286              	.LVL294:
 1287 063a FFF7FEFF 		bl	__aeabi_fadd
 1288              	.LVL295:
 1289 063e 8549     		ldr	r1, .L15
 1290 0640 FFF7FEFF 		bl	__aeabi_fmul
 1291              	.LVL296:
 234:.\DSP\Source\TransformFunctions/arm_cfft_radix8_f32.c ****             s1 = (s6 - s8) * C81;
 1292              		.loc 1 234 0 discriminator 1
 1293 0644 2799     		ldr	r1, [sp, #156]	@ float
 233:.\DSP\Source\TransformFunctions/arm_cfft_radix8_f32.c ****             r6 = (r6 + r8) * C81;
 1294              		.loc 1 233 0 discriminator 1
 1295 0646 0746     		mov	r7, r0
 1296              	.LVL297:
 1297              		.loc 1 234 0 discriminator 1
 1298 0648 2598     		ldr	r0, [sp, #148]	@ float
 1299              	.LVL298:
 1300 064a FFF7FEFF 		bl	__aeabi_fsub
 1301              	.LVL299:
 1302 064e 8149     		ldr	r1, .L15
 1303 0650 FFF7FEFF 		bl	__aeabi_fmul
 1304              	.LVL300:
 235:.\DSP\Source\TransformFunctions/arm_cfft_radix8_f32.c ****             s6 = (s6 + s8) * C81;
 1305              		.loc 1 235 0 discriminator 1
 1306 0654 2799     		ldr	r1, [sp, #156]	@ float
 234:.\DSP\Source\TransformFunctions/arm_cfft_radix8_f32.c ****             s1 = (s6 - s8) * C81;
 1307              		.loc 1 234 0 discriminator 1
 1308 0656 8146     		mov	r9, r0
 1309              	.LVL301:
 1310              		.loc 1 235 0 discriminator 1
 1311 0658 2598     		ldr	r0, [sp, #148]	@ float
 1312              	.LVL302:
 1313 065a FFF7FEFF 		bl	__aeabi_fadd
 1314              	.LVL303:
ARM GAS  C:\Users\IVYLIU~1\AppData\Local\Temp\cc3ADQnL.s 			page 30


 1315 065e 7D49     		ldr	r1, .L15
 1316 0660 FFF7FEFF 		bl	__aeabi_fmul
 1317              	.LVL304:
 236:.\DSP\Source\TransformFunctions/arm_cfft_radix8_f32.c ****             t1 = r5 - r1;
 1318              		.loc 1 236 0 discriminator 1
 1319 0664 2146     		mov	r1, r4
 235:.\DSP\Source\TransformFunctions/arm_cfft_radix8_f32.c ****             s6 = (s6 + s8) * C81;
 1320              		.loc 1 235 0 discriminator 1
 1321 0666 0546     		mov	r5, r0
 1322              	.LVL305:
 1323              		.loc 1 236 0 discriminator 1
 1324 0668 1E98     		ldr	r0, [sp, #120]	@ float
 1325              	.LVL306:
 1326 066a FFF7FEFF 		bl	__aeabi_fsub
 1327              	.LVL307:
 237:.\DSP\Source\TransformFunctions/arm_cfft_radix8_f32.c ****             r5 = r5 + r1;
 1328              		.loc 1 237 0 discriminator 1
 1329 066e 2146     		mov	r1, r4
 236:.\DSP\Source\TransformFunctions/arm_cfft_radix8_f32.c ****             t1 = r5 - r1;
 1330              		.loc 1 236 0 discriminator 1
 1331 0670 1F90     		str	r0, [sp, #124]	@ float
 1332              	.LVL308:
 1333              		.loc 1 237 0 discriminator 1
 1334 0672 1E98     		ldr	r0, [sp, #120]	@ float
 1335              	.LVL309:
 1336 0674 FFF7FEFF 		bl	__aeabi_fadd
 1337              	.LVL310:
 238:.\DSP\Source\TransformFunctions/arm_cfft_radix8_f32.c ****             r8 = r7 - r6;
 1338              		.loc 1 238 0 discriminator 1
 1339 0678 3946     		mov	r1, r7
 237:.\DSP\Source\TransformFunctions/arm_cfft_radix8_f32.c ****             r5 = r5 + r1;
 1340              		.loc 1 237 0 discriminator 1
 1341 067a 0446     		mov	r4, r0
 1342              	.LVL311:
 1343              		.loc 1 238 0 discriminator 1
 1344 067c 2098     		ldr	r0, [sp, #128]	@ float
 1345              	.LVL312:
 1346 067e FFF7FEFF 		bl	__aeabi_fsub
 1347              	.LVL313:
 239:.\DSP\Source\TransformFunctions/arm_cfft_radix8_f32.c ****             r7 = r7 + r6;
 1348              		.loc 1 239 0 discriminator 1
 1349 0682 3946     		mov	r1, r7
 238:.\DSP\Source\TransformFunctions/arm_cfft_radix8_f32.c ****             r8 = r7 - r6;
 1350              		.loc 1 238 0 discriminator 1
 1351 0684 0646     		mov	r6, r0
 1352              	.LVL314:
 1353              		.loc 1 239 0 discriminator 1
 1354 0686 2098     		ldr	r0, [sp, #128]	@ float
 1355              	.LVL315:
 1356 0688 FFF7FEFF 		bl	__aeabi_fadd
 1357              	.LVL316:
 240:.\DSP\Source\TransformFunctions/arm_cfft_radix8_f32.c ****             t2 = s5 - s1;
 1358              		.loc 1 240 0 discriminator 1
 1359 068c 4946     		mov	r1, r9
 239:.\DSP\Source\TransformFunctions/arm_cfft_radix8_f32.c ****             r7 = r7 + r6;
 1360              		.loc 1 239 0 discriminator 1
 1361 068e 8046     		mov	r8, r0
ARM GAS  C:\Users\IVYLIU~1\AppData\Local\Temp\cc3ADQnL.s 			page 31


 1362              	.LVL317:
 1363              		.loc 1 240 0 discriminator 1
 1364 0690 2498     		ldr	r0, [sp, #144]	@ float
 1365              	.LVL318:
 1366 0692 FFF7FEFF 		bl	__aeabi_fsub
 1367              	.LVL319:
 241:.\DSP\Source\TransformFunctions/arm_cfft_radix8_f32.c ****             s5 = s5 + s1;
 1368              		.loc 1 241 0 discriminator 1
 1369 0696 4946     		mov	r1, r9
 240:.\DSP\Source\TransformFunctions/arm_cfft_radix8_f32.c ****             t2 = s5 - s1;
 1370              		.loc 1 240 0 discriminator 1
 1371 0698 0746     		mov	r7, r0
 1372              	.LVL320:
 1373              		.loc 1 241 0 discriminator 1
 1374 069a 2498     		ldr	r0, [sp, #144]	@ float
 1375              	.LVL321:
 1376 069c FFF7FEFF 		bl	__aeabi_fadd
 1377              	.LVL322:
 242:.\DSP\Source\TransformFunctions/arm_cfft_radix8_f32.c ****             s8 = s7 - s6;
 1378              		.loc 1 242 0 discriminator 1
 1379 06a0 2946     		mov	r1, r5
 241:.\DSP\Source\TransformFunctions/arm_cfft_radix8_f32.c ****             s5 = s5 + s1;
 1380              		.loc 1 241 0 discriminator 1
 1381 06a2 8146     		mov	r9, r0
 1382              	.LVL323:
 1383              		.loc 1 242 0 discriminator 1
 1384 06a4 2698     		ldr	r0, [sp, #152]	@ float
 1385              	.LVL324:
 1386 06a6 FFF7FEFF 		bl	__aeabi_fsub
 1387              	.LVL325:
 243:.\DSP\Source\TransformFunctions/arm_cfft_radix8_f32.c ****             s7 = s7 + s6;
 1388              		.loc 1 243 0 discriminator 1
 1389 06aa 2946     		mov	r1, r5
 242:.\DSP\Source\TransformFunctions/arm_cfft_radix8_f32.c ****             s8 = s7 - s6;
 1390              		.loc 1 242 0 discriminator 1
 1391 06ac 1E90     		str	r0, [sp, #120]	@ float
 1392              	.LVL326:
 1393              		.loc 1 243 0 discriminator 1
 1394 06ae 2698     		ldr	r0, [sp, #152]	@ float
 1395              	.LVL327:
 1396 06b0 FFF7FEFF 		bl	__aeabi_fadd
 1397              	.LVL328:
 1398 06b4 0246     		mov	r2, r0
 1399              	.LVL329:
 244:.\DSP\Source\TransformFunctions/arm_cfft_radix8_f32.c ****             r1 = r5 + s7;
 1400              		.loc 1 244 0 discriminator 1
 1401 06b6 2046     		mov	r0, r4
 1402              	.LVL330:
 1403 06b8 1146     		mov	r1, r2
 1404 06ba 2092     		str	r2, [sp, #128]
 1405 06bc FFF7FEFF 		bl	__aeabi_fadd
 1406              	.LVL331:
 245:.\DSP\Source\TransformFunctions/arm_cfft_radix8_f32.c ****             r5 = r5 - s7;
 1407              		.loc 1 245 0 discriminator 1
 1408 06c0 209A     		ldr	r2, [sp, #128]
 244:.\DSP\Source\TransformFunctions/arm_cfft_radix8_f32.c ****             r1 = r5 + s7;
 1409              		.loc 1 244 0 discriminator 1
ARM GAS  C:\Users\IVYLIU~1\AppData\Local\Temp\cc3ADQnL.s 			page 32


 1410 06c2 0546     		mov	r5, r0
 1411              	.LVL332:
 1412              		.loc 1 245 0 discriminator 1
 1413 06c4 1146     		mov	r1, r2
 1414 06c6 2046     		mov	r0, r4
 1415              	.LVL333:
 1416 06c8 FFF7FEFF 		bl	__aeabi_fsub
 1417              	.LVL334:
 246:.\DSP\Source\TransformFunctions/arm_cfft_radix8_f32.c ****             r6 = t1 + s8;
 1418              		.loc 1 246 0 discriminator 1
 1419 06cc 1E99     		ldr	r1, [sp, #120]	@ float
 245:.\DSP\Source\TransformFunctions/arm_cfft_radix8_f32.c ****             r5 = r5 - s7;
 1420              		.loc 1 245 0 discriminator 1
 1421 06ce 0446     		mov	r4, r0
 1422              	.LVL335:
 1423              		.loc 1 246 0 discriminator 1
 1424 06d0 1F98     		ldr	r0, [sp, #124]	@ float
 1425              	.LVL336:
 1426 06d2 FFF7FEFF 		bl	__aeabi_fadd
 1427              	.LVL337:
 247:.\DSP\Source\TransformFunctions/arm_cfft_radix8_f32.c ****             t1 = t1 - s8;
 1428              		.loc 1 247 0 discriminator 1
 1429 06d6 1E99     		ldr	r1, [sp, #120]	@ float
 246:.\DSP\Source\TransformFunctions/arm_cfft_radix8_f32.c ****             r6 = t1 + s8;
 1430              		.loc 1 246 0 discriminator 1
 1431 06d8 2090     		str	r0, [sp, #128]	@ float
 1432              	.LVL338:
 1433              		.loc 1 247 0 discriminator 1
 1434 06da 1F98     		ldr	r0, [sp, #124]	@ float
 1435              	.LVL339:
 1436 06dc FFF7FEFF 		bl	__aeabi_fsub
 1437              	.LVL340:
 248:.\DSP\Source\TransformFunctions/arm_cfft_radix8_f32.c ****             s1 = s5 - r7;
 1438              		.loc 1 248 0 discriminator 1
 1439 06e0 4146     		mov	r1, r8
 247:.\DSP\Source\TransformFunctions/arm_cfft_radix8_f32.c ****             t1 = t1 - s8;
 1440              		.loc 1 247 0 discriminator 1
 1441 06e2 1E90     		str	r0, [sp, #120]	@ float
 1442              	.LVL341:
 1443              		.loc 1 248 0 discriminator 1
 1444 06e4 4846     		mov	r0, r9
 1445              	.LVL342:
 1446 06e6 FFF7FEFF 		bl	__aeabi_fsub
 1447              	.LVL343:
 249:.\DSP\Source\TransformFunctions/arm_cfft_radix8_f32.c ****             s5 = s5 + r7;
 1448              		.loc 1 249 0 discriminator 1
 1449 06ea 4146     		mov	r1, r8
 248:.\DSP\Source\TransformFunctions/arm_cfft_radix8_f32.c ****             s1 = s5 - r7;
 1450              		.loc 1 248 0 discriminator 1
 1451 06ec 1F90     		str	r0, [sp, #124]	@ float
 1452              	.LVL344:
 1453              		.loc 1 249 0 discriminator 1
 1454 06ee 4846     		mov	r0, r9
 1455              	.LVL345:
 1456 06f0 FFF7FEFF 		bl	__aeabi_fadd
 1457              	.LVL346:
 250:.\DSP\Source\TransformFunctions/arm_cfft_radix8_f32.c ****             s6 = t2 - r8;
ARM GAS  C:\Users\IVYLIU~1\AppData\Local\Temp\cc3ADQnL.s 			page 33


 1458              		.loc 1 250 0 discriminator 1
 1459 06f4 3146     		mov	r1, r6
 249:.\DSP\Source\TransformFunctions/arm_cfft_radix8_f32.c ****             s5 = s5 + r7;
 1460              		.loc 1 249 0 discriminator 1
 1461 06f6 8146     		mov	r9, r0
 1462              	.LVL347:
 1463              		.loc 1 250 0 discriminator 1
 1464 06f8 3846     		mov	r0, r7
 1465              	.LVL348:
 1466 06fa FFF7FEFF 		bl	__aeabi_fsub
 1467              	.LVL349:
 251:.\DSP\Source\TransformFunctions/arm_cfft_radix8_f32.c ****             t2 = t2 + r8;
 1468              		.loc 1 251 0 discriminator 1
 1469 06fe 3146     		mov	r1, r6
 250:.\DSP\Source\TransformFunctions/arm_cfft_radix8_f32.c ****             s6 = t2 - r8;
 1470              		.loc 1 250 0 discriminator 1
 1471 0700 8046     		mov	r8, r0
 1472              	.LVL350:
 1473              		.loc 1 251 0 discriminator 1
 1474 0702 3846     		mov	r0, r7
 1475              	.LVL351:
 1476 0704 FFF7FEFF 		bl	__aeabi_fadd
 1477              	.LVL352:
 252:.\DSP\Source\TransformFunctions/arm_cfft_radix8_f32.c ****             p1 = co2 * r1;
 1478              		.loc 1 252 0 discriminator 1
 1479 0708 2946     		mov	r1, r5
 251:.\DSP\Source\TransformFunctions/arm_cfft_radix8_f32.c ****             t2 = t2 + r8;
 1480              		.loc 1 251 0 discriminator 1
 1481 070a 0646     		mov	r6, r0
 1482              	.LVL353:
 1483              		.loc 1 252 0 discriminator 1
 1484 070c 0F98     		ldr	r0, [sp, #60]	@ float
 1485              	.LVL354:
 1486 070e FFF7FEFF 		bl	__aeabi_fmul
 1487              	.LVL355:
 253:.\DSP\Source\TransformFunctions/arm_cfft_radix8_f32.c ****             p2 = si2 * s1;
 1488              		.loc 1 253 0 discriminator 1
 1489 0712 1F99     		ldr	r1, [sp, #124]	@ float
 252:.\DSP\Source\TransformFunctions/arm_cfft_radix8_f32.c ****             p1 = co2 * r1;
 1490              		.loc 1 252 0 discriminator 1
 1491 0714 0746     		mov	r7, r0
 1492              		.loc 1 253 0 discriminator 1
 1493 0716 1698     		ldr	r0, [sp, #88]	@ float
 1494 0718 FFF7FEFF 		bl	__aeabi_fmul
 1495              	.LVL356:
 1496 071c 0146     		mov	r1, r0
 254:.\DSP\Source\TransformFunctions/arm_cfft_radix8_f32.c ****             p3 = co2 * s1;
 255:.\DSP\Source\TransformFunctions/arm_cfft_radix8_f32.c ****             p4 = si2 * r1;
 256:.\DSP\Source\TransformFunctions/arm_cfft_radix8_f32.c ****             pSrc[2 * i2]     = p1 + p2;
 1497              		.loc 1 256 0 discriminator 1
 1498 071e 3846     		mov	r0, r7
 1499 0720 FFF7FEFF 		bl	__aeabi_fadd
 1500              	.LVL357:
 1501 0724 019B     		ldr	r3, [sp, #4]
 254:.\DSP\Source\TransformFunctions/arm_cfft_radix8_f32.c ****             p3 = co2 * s1;
 1502              		.loc 1 254 0 discriminator 1
 1503 0726 1F99     		ldr	r1, [sp, #124]	@ float
ARM GAS  C:\Users\IVYLIU~1\AppData\Local\Temp\cc3ADQnL.s 			page 34


 1504              		.loc 1 256 0 discriminator 1
 1505 0728 4BF83300 		str	r0, [fp, r3, lsl #3]	@ float
 254:.\DSP\Source\TransformFunctions/arm_cfft_radix8_f32.c ****             p3 = co2 * s1;
 1506              		.loc 1 254 0 discriminator 1
 1507 072c 0F98     		ldr	r0, [sp, #60]	@ float
 1508 072e FFF7FEFF 		bl	__aeabi_fmul
 1509              	.LVL358:
 255:.\DSP\Source\TransformFunctions/arm_cfft_radix8_f32.c ****             pSrc[2 * i2]     = p1 + p2;
 1510              		.loc 1 255 0 discriminator 1
 1511 0732 2946     		mov	r1, r5
 254:.\DSP\Source\TransformFunctions/arm_cfft_radix8_f32.c ****             p3 = co2 * s1;
 1512              		.loc 1 254 0 discriminator 1
 1513 0734 0746     		mov	r7, r0
 255:.\DSP\Source\TransformFunctions/arm_cfft_radix8_f32.c ****             pSrc[2 * i2]     = p1 + p2;
 1514              		.loc 1 255 0 discriminator 1
 1515 0736 1698     		ldr	r0, [sp, #88]	@ float
 1516 0738 FFF7FEFF 		bl	__aeabi_fmul
 1517              	.LVL359:
 1518 073c 0146     		mov	r1, r0
 257:.\DSP\Source\TransformFunctions/arm_cfft_radix8_f32.c ****             pSrc[2 * i2 + 1] = p3 - p4;
 1519              		.loc 1 257 0 discriminator 1
 1520 073e 3846     		mov	r0, r7
 1521 0740 FFF7FEFF 		bl	__aeabi_fsub
 1522              	.LVL360:
 1523 0744 019B     		ldr	r3, [sp, #4]
 258:.\DSP\Source\TransformFunctions/arm_cfft_radix8_f32.c ****             p1 = co8 * r5;
 1524              		.loc 1 258 0 discriminator 1
 1525 0746 2146     		mov	r1, r4
 257:.\DSP\Source\TransformFunctions/arm_cfft_radix8_f32.c ****             pSrc[2 * i2 + 1] = p3 - p4;
 1526              		.loc 1 257 0 discriminator 1
 1527 0748 4AF83300 		str	r0, [r10, r3, lsl #3]	@ float
 1528              	.LVL361:
 1529              		.loc 1 258 0 discriminator 1
 1530 074c 1598     		ldr	r0, [sp, #84]	@ float
 1531 074e FFF7FEFF 		bl	__aeabi_fmul
 1532              	.LVL362:
 259:.\DSP\Source\TransformFunctions/arm_cfft_radix8_f32.c ****             p2 = si8 * s5;
 1533              		.loc 1 259 0 discriminator 1
 1534 0752 4946     		mov	r1, r9
 258:.\DSP\Source\TransformFunctions/arm_cfft_radix8_f32.c ****             p1 = co8 * r5;
 1535              		.loc 1 258 0 discriminator 1
 1536 0754 0546     		mov	r5, r0
 1537              	.LVL363:
 1538              		.loc 1 259 0 discriminator 1
 1539 0756 1C98     		ldr	r0, [sp, #112]	@ float
 1540 0758 FFF7FEFF 		bl	__aeabi_fmul
 1541              	.LVL364:
 1542 075c 0146     		mov	r1, r0
 260:.\DSP\Source\TransformFunctions/arm_cfft_radix8_f32.c ****             p3 = co8 * s5;
 261:.\DSP\Source\TransformFunctions/arm_cfft_radix8_f32.c ****             p4 = si8 * r5;
 262:.\DSP\Source\TransformFunctions/arm_cfft_radix8_f32.c ****             pSrc[2 * i8]     = p1 + p2;
 1543              		.loc 1 262 0 discriminator 1
 1544 075e 2846     		mov	r0, r5
 1545 0760 FFF7FEFF 		bl	__aeabi_fadd
 1546              	.LVL365:
 1547 0764 089B     		ldr	r3, [sp, #32]
 260:.\DSP\Source\TransformFunctions/arm_cfft_radix8_f32.c ****             p3 = co8 * s5;
ARM GAS  C:\Users\IVYLIU~1\AppData\Local\Temp\cc3ADQnL.s 			page 35


 1548              		.loc 1 260 0 discriminator 1
 1549 0766 4946     		mov	r1, r9
 1550              		.loc 1 262 0 discriminator 1
 1551 0768 4BF80300 		str	r0, [fp, r3]	@ float
 260:.\DSP\Source\TransformFunctions/arm_cfft_radix8_f32.c ****             p3 = co8 * s5;
 1552              		.loc 1 260 0 discriminator 1
 1553 076c 1598     		ldr	r0, [sp, #84]	@ float
 1554 076e FFF7FEFF 		bl	__aeabi_fmul
 1555              	.LVL366:
 261:.\DSP\Source\TransformFunctions/arm_cfft_radix8_f32.c ****             pSrc[2 * i8]     = p1 + p2;
 1556              		.loc 1 261 0 discriminator 1
 1557 0772 2146     		mov	r1, r4
 260:.\DSP\Source\TransformFunctions/arm_cfft_radix8_f32.c ****             p3 = co8 * s5;
 1558              		.loc 1 260 0 discriminator 1
 1559 0774 0546     		mov	r5, r0
 261:.\DSP\Source\TransformFunctions/arm_cfft_radix8_f32.c ****             pSrc[2 * i8]     = p1 + p2;
 1560              		.loc 1 261 0 discriminator 1
 1561 0776 1C98     		ldr	r0, [sp, #112]	@ float
 1562 0778 FFF7FEFF 		bl	__aeabi_fmul
 1563              	.LVL367:
 1564 077c 0146     		mov	r1, r0
 263:.\DSP\Source\TransformFunctions/arm_cfft_radix8_f32.c ****             pSrc[2 * i8 + 1] = p3 - p4;
 1565              		.loc 1 263 0 discriminator 1
 1566 077e 2846     		mov	r0, r5
 1567 0780 FFF7FEFF 		bl	__aeabi_fsub
 1568              	.LVL368:
 1569 0784 089B     		ldr	r3, [sp, #32]
 264:.\DSP\Source\TransformFunctions/arm_cfft_radix8_f32.c ****             p1 = co6 * r6;
 1570              		.loc 1 264 0 discriminator 1
 1571 0786 2099     		ldr	r1, [sp, #128]	@ float
 263:.\DSP\Source\TransformFunctions/arm_cfft_radix8_f32.c ****             pSrc[2 * i8 + 1] = p3 - p4;
 1572              		.loc 1 263 0 discriminator 1
 1573 0788 4AF80300 		str	r0, [r10, r3]	@ float
 1574              	.LVL369:
 1575              		.loc 1 264 0 discriminator 1
 1576 078c 1398     		ldr	r0, [sp, #76]	@ float
 1577 078e FFF7FEFF 		bl	__aeabi_fmul
 1578              	.LVL370:
 265:.\DSP\Source\TransformFunctions/arm_cfft_radix8_f32.c ****             p2 = si6 * s6;
 1579              		.loc 1 265 0 discriminator 1
 1580 0792 4146     		mov	r1, r8
 264:.\DSP\Source\TransformFunctions/arm_cfft_radix8_f32.c ****             p1 = co6 * r6;
 1581              		.loc 1 264 0 discriminator 1
 1582 0794 0446     		mov	r4, r0
 1583              	.LVL371:
 1584              		.loc 1 265 0 discriminator 1
 1585 0796 1A98     		ldr	r0, [sp, #104]	@ float
 1586 0798 FFF7FEFF 		bl	__aeabi_fmul
 1587              	.LVL372:
 1588 079c 0146     		mov	r1, r0
 266:.\DSP\Source\TransformFunctions/arm_cfft_radix8_f32.c ****             p3 = co6 * s6;
 267:.\DSP\Source\TransformFunctions/arm_cfft_radix8_f32.c ****             p4 = si6 * r6;
 268:.\DSP\Source\TransformFunctions/arm_cfft_radix8_f32.c ****             pSrc[2 * i6]     = p1 + p2;
 1589              		.loc 1 268 0 discriminator 1
 1590 079e 2046     		mov	r0, r4
 1591 07a0 FFF7FEFF 		bl	__aeabi_fadd
 1592              	.LVL373:
ARM GAS  C:\Users\IVYLIU~1\AppData\Local\Temp\cc3ADQnL.s 			page 36


 1593 07a4 039B     		ldr	r3, [sp, #12]
 266:.\DSP\Source\TransformFunctions/arm_cfft_radix8_f32.c ****             p3 = co6 * s6;
 1594              		.loc 1 266 0 discriminator 1
 1595 07a6 4146     		mov	r1, r8
 1596              		.loc 1 268 0 discriminator 1
 1597 07a8 4BF80300 		str	r0, [fp, r3]	@ float
 266:.\DSP\Source\TransformFunctions/arm_cfft_radix8_f32.c ****             p3 = co6 * s6;
 1598              		.loc 1 266 0 discriminator 1
 1599 07ac 1398     		ldr	r0, [sp, #76]	@ float
 1600 07ae FFF7FEFF 		bl	__aeabi_fmul
 1601              	.LVL374:
 267:.\DSP\Source\TransformFunctions/arm_cfft_radix8_f32.c ****             pSrc[2 * i6]     = p1 + p2;
 1602              		.loc 1 267 0 discriminator 1
 1603 07b2 2099     		ldr	r1, [sp, #128]	@ float
 266:.\DSP\Source\TransformFunctions/arm_cfft_radix8_f32.c ****             p3 = co6 * s6;
 1604              		.loc 1 266 0 discriminator 1
 1605 07b4 0446     		mov	r4, r0
 267:.\DSP\Source\TransformFunctions/arm_cfft_radix8_f32.c ****             pSrc[2 * i6]     = p1 + p2;
 1606              		.loc 1 267 0 discriminator 1
 1607 07b6 1A98     		ldr	r0, [sp, #104]	@ float
 1608 07b8 FFF7FEFF 		bl	__aeabi_fmul
 1609              	.LVL375:
 1610 07bc 0146     		mov	r1, r0
 269:.\DSP\Source\TransformFunctions/arm_cfft_radix8_f32.c ****             pSrc[2 * i6 + 1] = p3 - p4;
 1611              		.loc 1 269 0 discriminator 1
 1612 07be 2046     		mov	r0, r4
 1613 07c0 FFF7FEFF 		bl	__aeabi_fsub
 1614              	.LVL376:
 1615 07c4 039B     		ldr	r3, [sp, #12]
 270:.\DSP\Source\TransformFunctions/arm_cfft_radix8_f32.c ****             p1 = co4 * t1;
 1616              		.loc 1 270 0 discriminator 1
 1617 07c6 1E99     		ldr	r1, [sp, #120]	@ float
 269:.\DSP\Source\TransformFunctions/arm_cfft_radix8_f32.c ****             pSrc[2 * i6 + 1] = p3 - p4;
 1618              		.loc 1 269 0 discriminator 1
 1619 07c8 4AF80300 		str	r0, [r10, r3]	@ float
 1620              	.LVL377:
 1621              		.loc 1 270 0 discriminator 1
 1622 07cc 1198     		ldr	r0, [sp, #68]	@ float
 1623 07ce FFF7FEFF 		bl	__aeabi_fmul
 1624              	.LVL378:
 271:.\DSP\Source\TransformFunctions/arm_cfft_radix8_f32.c ****             p2 = si4 * t2;
 1625              		.loc 1 271 0 discriminator 1
 1626 07d2 3146     		mov	r1, r6
 270:.\DSP\Source\TransformFunctions/arm_cfft_radix8_f32.c ****             p1 = co4 * t1;
 1627              		.loc 1 270 0 discriminator 1
 1628 07d4 0446     		mov	r4, r0
 1629              		.loc 1 271 0 discriminator 1
 1630 07d6 1898     		ldr	r0, [sp, #96]	@ float
 1631 07d8 FFF7FEFF 		bl	__aeabi_fmul
 1632              	.LVL379:
 1633 07dc 0146     		mov	r1, r0
 272:.\DSP\Source\TransformFunctions/arm_cfft_radix8_f32.c ****             p3 = co4 * t2;
 273:.\DSP\Source\TransformFunctions/arm_cfft_radix8_f32.c ****             p4 = si4 * t1;
 274:.\DSP\Source\TransformFunctions/arm_cfft_radix8_f32.c ****             pSrc[2 * i4]     = p1 + p2;
 1634              		.loc 1 274 0 discriminator 1
 1635 07de 2046     		mov	r0, r4
 1636 07e0 FFF7FEFF 		bl	__aeabi_fadd
ARM GAS  C:\Users\IVYLIU~1\AppData\Local\Temp\cc3ADQnL.s 			page 37


 1637              	.LVL380:
 1638 07e4 029B     		ldr	r3, [sp, #8]
 272:.\DSP\Source\TransformFunctions/arm_cfft_radix8_f32.c ****             p3 = co4 * t2;
 1639              		.loc 1 272 0 discriminator 1
 1640 07e6 3146     		mov	r1, r6
 1641              		.loc 1 274 0 discriminator 1
 1642 07e8 4BF80300 		str	r0, [fp, r3]	@ float
 272:.\DSP\Source\TransformFunctions/arm_cfft_radix8_f32.c ****             p3 = co4 * t2;
 1643              		.loc 1 272 0 discriminator 1
 1644 07ec 1198     		ldr	r0, [sp, #68]	@ float
 1645 07ee FFF7FEFF 		bl	__aeabi_fmul
 1646              	.LVL381:
 273:.\DSP\Source\TransformFunctions/arm_cfft_radix8_f32.c ****             pSrc[2 * i4]     = p1 + p2;
 1647              		.loc 1 273 0 discriminator 1
 1648 07f2 1E99     		ldr	r1, [sp, #120]	@ float
 272:.\DSP\Source\TransformFunctions/arm_cfft_radix8_f32.c ****             p3 = co4 * t2;
 1649              		.loc 1 272 0 discriminator 1
 1650 07f4 0446     		mov	r4, r0
 273:.\DSP\Source\TransformFunctions/arm_cfft_radix8_f32.c ****             pSrc[2 * i4]     = p1 + p2;
 1651              		.loc 1 273 0 discriminator 1
 1652 07f6 1898     		ldr	r0, [sp, #96]	@ float
 1653 07f8 FFF7FEFF 		bl	__aeabi_fmul
 1654              	.LVL382:
 1655 07fc 0146     		mov	r1, r0
 275:.\DSP\Source\TransformFunctions/arm_cfft_radix8_f32.c ****             pSrc[2 * i4 + 1] = p3 - p4;
 1656              		.loc 1 275 0 discriminator 1
 1657 07fe 2046     		mov	r0, r4
 1658 0800 FFF7FEFF 		bl	__aeabi_fsub
 1659              	.LVL383:
 1660 0804 029B     		ldr	r3, [sp, #8]
 276:.\DSP\Source\TransformFunctions/arm_cfft_radix8_f32.c **** 
 277:.\DSP\Source\TransformFunctions/arm_cfft_radix8_f32.c ****             i1 += n1;
 1661              		.loc 1 277 0 discriminator 1
 1662 0806 099A     		ldr	r2, [sp, #36]
 275:.\DSP\Source\TransformFunctions/arm_cfft_radix8_f32.c ****             pSrc[2 * i4 + 1] = p3 - p4;
 1663              		.loc 1 275 0 discriminator 1
 1664 0808 4AF80300 		str	r0, [r10, r3]	@ float
 1665              		.loc 1 277 0 discriminator 1
 1666 080c 0C9B     		ldr	r3, [sp, #48]
 278:.\DSP\Source\TransformFunctions/arm_cfft_radix8_f32.c ****          } while (i1 < fftLen);
 1667              		.loc 1 278 0 discriminator 1
 1668 080e DDF8A4C0 		ldr	ip, [sp, #164]
 277:.\DSP\Source\TransformFunctions/arm_cfft_radix8_f32.c ****          } while (i1 < fftLen);
 1669              		.loc 1 277 0 discriminator 1
 1670 0812 1344     		add	r3, r3, r2
 1671 0814 0C93     		str	r3, [sp, #48]
 1672              	.LVL384:
 1673 0816 0A9B     		ldr	r3, [sp, #40]
 1674              	.LVL385:
 1675              		.loc 1 278 0 discriminator 1
 1676 0818 0E9A     		ldr	r2, [sp, #56]
 1677 081a 9B44     		add	fp, fp, r3
 1678 081c 9A44     		add	r10, r10, r3
 1679 081e 0C9B     		ldr	r3, [sp, #48]
 1680 0820 9342     		cmp	r3, r2
 1681 0822 289B     		ldr	r3, [sp, #160]
 1682 0824 FFF4CAAD 		bcc	.L4
ARM GAS  C:\Users\IVYLIU~1\AppData\Local\Temp\cc3ADQnL.s 			page 38


 1683              	.LVL386:
 279:.\DSP\Source\TransformFunctions/arm_cfft_radix8_f32.c **** 
 280:.\DSP\Source\TransformFunctions/arm_cfft_radix8_f32.c ****          j++;
 1684              		.loc 1 280 0
 1685 0828 079A     		ldr	r2, [sp, #28]
 281:.\DSP\Source\TransformFunctions/arm_cfft_radix8_f32.c ****       } while (j < n2);
 1686              		.loc 1 281 0
 1687 082a 0199     		ldr	r1, [sp, #4]
 280:.\DSP\Source\TransformFunctions/arm_cfft_radix8_f32.c ****       } while (j < n2);
 1688              		.loc 1 280 0
 1689 082c 0132     		adds	r2, r2, #1
 1690 082e 0792     		str	r2, [sp, #28]
 1691              	.LVL387:
 1692 0830 0B9A     		ldr	r2, [sp, #44]
 1693              	.LVL388:
 1694 0832 1D98     		ldr	r0, [sp, #116]
 1695 0834 1344     		add	r3, r3, r2
 1696              	.LVL389:
 1697              		.loc 1 281 0
 1698 0836 079A     		ldr	r2, [sp, #28]
 1699 0838 8A42     		cmp	r2, r1
 1700 083a 7FF47EAD 		bne	.L5
 282:.\DSP\Source\TransformFunctions/arm_cfft_radix8_f32.c **** 
 283:.\DSP\Source\TransformFunctions/arm_cfft_radix8_f32.c ****       twidCoefModifier <<= 3;
 1701              		.loc 1 283 0
 1702 083e 0B9B     		ldr	r3, [sp, #44]
 1703 0840 DB00     		lsls	r3, r3, #3
 1704 0842 9BB2     		uxth	r3, r3
 1705 0844 0B93     		str	r3, [sp, #44]
 1706              	.LVL390:
 1707 0846 1346     		mov	r3, r2
 1708 0848 FFF7E2BB 		b	.L10
 1709              	.LVL391:
 1710              	.L1:
 284:.\DSP\Source\TransformFunctions/arm_cfft_radix8_f32.c ****    } while (n2 > 7);
 285:.\DSP\Source\TransformFunctions/arm_cfft_radix8_f32.c **** }
 1711              		.loc 1 285 0
 1712 084c 2BB0     		add	sp, sp, #172
 1713              		.cfi_def_cfa_offset 36
 1714              		@ sp needed
 1715 084e BDE8F08F 		pop	{r4, r5, r6, r7, r8, r9, r10, fp, pc}
 1716              	.LVL392:
 1717              	.L16:
 1718 0852 00BF     		.align	2
 1719              	.L15:
 1720 0854 F304353F 		.word	1060439283
 1721              		.cfi_endproc
 1722              	.LFE84:
 1723              		.size	arm_radix8_butterfly_f32, .-arm_radix8_butterfly_f32
 1724              		.text
 1725              	.Letext0:
 1726              		.file 2 "c:\\program files (x86)\\cypress\\psoc creator\\3.3\\psoc creator\\import\\gnu\\arm\\4.9.
 1727              		.file 3 "c:\\program files (x86)\\cypress\\psoc creator\\3.3\\psoc creator\\import\\gnu\\arm\\4.9.
 1728              		.file 4 ".\\DSP\\Include/arm_math_types.h"
 1729              		.file 5 ".\\Core\\Include/cmsis_gcc.h"
 1730              		.section	.debug_info,"",%progbits
 1731              	.Ldebug_info0:
ARM GAS  C:\Users\IVYLIU~1\AppData\Local\Temp\cc3ADQnL.s 			page 39


 1732 0000 DB040000 		.4byte	0x4db
 1733 0004 0400     		.2byte	0x4
 1734 0006 00000000 		.4byte	.Ldebug_abbrev0
 1735 000a 04       		.byte	0x4
 1736 000b 01       		.uleb128 0x1
 1737 000c 67010000 		.4byte	.LASF31
 1738 0010 01       		.byte	0x1
 1739 0011 13020000 		.4byte	.LASF32
 1740 0015 1E000000 		.4byte	.LASF33
 1741 0019 00000000 		.4byte	.Ldebug_ranges0+0
 1742 001d 00000000 		.4byte	0
 1743 0021 00000000 		.4byte	.Ldebug_line0
 1744 0025 02       		.uleb128 0x2
 1745 0026 04       		.byte	0x4
 1746 0027 04       		.byte	0x4
 1747 0028 61010000 		.4byte	.LASF0
 1748 002c 02       		.uleb128 0x2
 1749 002d 01       		.byte	0x1
 1750 002e 06       		.byte	0x6
 1751 002f A5000000 		.4byte	.LASF1
 1752 0033 02       		.uleb128 0x2
 1753 0034 01       		.byte	0x1
 1754 0035 08       		.byte	0x8
 1755 0036 00020000 		.4byte	.LASF2
 1756 003a 02       		.uleb128 0x2
 1757 003b 02       		.byte	0x2
 1758 003c 05       		.byte	0x5
 1759 003d 3D010000 		.4byte	.LASF3
 1760 0041 03       		.uleb128 0x3
 1761 0042 57020000 		.4byte	.LASF6
 1762 0046 02       		.byte	0x2
 1763 0047 2B       		.byte	0x2b
 1764 0048 4C000000 		.4byte	0x4c
 1765 004c 02       		.uleb128 0x2
 1766 004d 02       		.byte	0x2
 1767 004e 07       		.byte	0x7
 1768 004f 2A010000 		.4byte	.LASF4
 1769 0053 02       		.uleb128 0x2
 1770 0054 04       		.byte	0x4
 1771 0055 05       		.byte	0x5
 1772 0056 C6000000 		.4byte	.LASF5
 1773 005a 03       		.uleb128 0x3
 1774 005b DF000000 		.4byte	.LASF7
 1775 005f 02       		.byte	0x2
 1776 0060 41       		.byte	0x41
 1777 0061 65000000 		.4byte	0x65
 1778 0065 02       		.uleb128 0x2
 1779 0066 04       		.byte	0x4
 1780 0067 07       		.byte	0x7
 1781 0068 18010000 		.4byte	.LASF8
 1782 006c 02       		.uleb128 0x2
 1783 006d 08       		.byte	0x8
 1784 006e 05       		.byte	0x5
 1785 006f 97000000 		.4byte	.LASF9
 1786 0073 02       		.uleb128 0x2
 1787 0074 08       		.byte	0x8
 1788 0075 07       		.byte	0x7
ARM GAS  C:\Users\IVYLIU~1\AppData\Local\Temp\cc3ADQnL.s 			page 40


 1789 0076 6D000000 		.4byte	.LASF10
 1790 007a 04       		.uleb128 0x4
 1791 007b 04       		.byte	0x4
 1792 007c 05       		.byte	0x5
 1793 007d 696E7400 		.ascii	"int\000"
 1794 0081 02       		.uleb128 0x2
 1795 0082 04       		.byte	0x4
 1796 0083 07       		.byte	0x7
 1797 0084 06010000 		.4byte	.LASF11
 1798 0088 03       		.uleb128 0x3
 1799 0089 CF000000 		.4byte	.LASF12
 1800 008d 03       		.byte	0x3
 1801 008e 21       		.byte	0x21
 1802 008f 41000000 		.4byte	0x41
 1803 0093 03       		.uleb128 0x3
 1804 0094 49020000 		.4byte	.LASF13
 1805 0098 03       		.byte	0x3
 1806 0099 2D       		.byte	0x2d
 1807 009a 5A000000 		.4byte	0x5a
 1808 009e 02       		.uleb128 0x2
 1809 009f 04       		.byte	0x4
 1810 00a0 07       		.byte	0x7
 1811 00a1 47010000 		.4byte	.LASF14
 1812 00a5 02       		.uleb128 0x2
 1813 00a6 01       		.byte	0x1
 1814 00a7 08       		.byte	0x8
 1815 00a8 52020000 		.4byte	.LASF15
 1816 00ac 02       		.uleb128 0x2
 1817 00ad 08       		.byte	0x8
 1818 00ae 04       		.byte	0x4
 1819 00af D8000000 		.4byte	.LASF16
 1820 00b3 02       		.uleb128 0x2
 1821 00b4 08       		.byte	0x8
 1822 00b5 04       		.byte	0x4
 1823 00b6 50010000 		.4byte	.LASF17
 1824 00ba 05       		.uleb128 0x5
 1825 00bb 7B020000 		.4byte	.LASF18
 1826 00bf 04       		.byte	0x4
 1827 00c0 2F01     		.2byte	0x12f
 1828 00c2 25000000 		.4byte	0x25
 1829 00c6 06       		.uleb128 0x6
 1830 00c7 04       		.byte	0x4
 1831 00c8 CC000000 		.4byte	0xcc
 1832 00cc 07       		.uleb128 0x7
 1833 00cd BA000000 		.4byte	0xba
 1834 00d1 06       		.uleb128 0x6
 1835 00d2 04       		.byte	0x4
 1836 00d3 D7000000 		.4byte	0xd7
 1837 00d7 07       		.uleb128 0x7
 1838 00d8 93000000 		.4byte	0x93
 1839 00dc 08       		.uleb128 0x8
 1840 00dd 62020000 		.4byte	.LASF34
 1841 00e1 01       		.byte	0x1
 1842 00e2 2D       		.byte	0x2d
 1843 00e3 00000000 		.4byte	.LFB84
 1844 00e7 58080000 		.4byte	.LFE84-.LFB84
 1845 00eb 01       		.uleb128 0x1
ARM GAS  C:\Users\IVYLIU~1\AppData\Local\Temp\cc3ADQnL.s 			page 41


 1846 00ec 9C       		.byte	0x9c
 1847 00ed 3C040000 		.4byte	0x43c
 1848 00f1 09       		.uleb128 0x9
 1849 00f2 13010000 		.4byte	.LASF19
 1850 00f6 01       		.byte	0x1
 1851 00f7 2E       		.byte	0x2e
 1852 00f8 3C040000 		.4byte	0x43c
 1853 00fc 00000000 		.4byte	.LLST0
 1854 0100 09       		.uleb128 0x9
 1855 0101 EA000000 		.4byte	.LASF20
 1856 0105 01       		.byte	0x1
 1857 0106 2F       		.byte	0x2f
 1858 0107 88000000 		.4byte	0x88
 1859 010b 2D000000 		.4byte	.LLST1
 1860 010f 09       		.uleb128 0x9
 1861 0110 98020000 		.4byte	.LASF21
 1862 0114 01       		.byte	0x1
 1863 0115 30       		.byte	0x30
 1864 0116 C6000000 		.4byte	0xc6
 1865 011a 4E000000 		.4byte	.LLST2
 1866 011e 09       		.uleb128 0x9
 1867 011f 9E020000 		.4byte	.LASF22
 1868 0123 01       		.byte	0x1
 1869 0124 31       		.byte	0x31
 1870 0125 88000000 		.4byte	0x88
 1871 0129 9B000000 		.4byte	.LLST3
 1872 012d 0A       		.uleb128 0xa
 1873 012e 69613100 		.ascii	"ia1\000"
 1874 0132 01       		.byte	0x1
 1875 0133 33       		.byte	0x33
 1876 0134 93000000 		.4byte	0x93
 1877 0138 D6000000 		.4byte	.LLST4
 1878 013c 0B       		.uleb128 0xb
 1879 013d 69613200 		.ascii	"ia2\000"
 1880 0141 01       		.byte	0x1
 1881 0142 33       		.byte	0x33
 1882 0143 93000000 		.4byte	0x93
 1883 0147 0B       		.uleb128 0xb
 1884 0148 69613300 		.ascii	"ia3\000"
 1885 014c 01       		.byte	0x1
 1886 014d 33       		.byte	0x33
 1887 014e 93000000 		.4byte	0x93
 1888 0152 0B       		.uleb128 0xb
 1889 0153 69613400 		.ascii	"ia4\000"
 1890 0157 01       		.byte	0x1
 1891 0158 33       		.byte	0x33
 1892 0159 93000000 		.4byte	0x93
 1893 015d 0B       		.uleb128 0xb
 1894 015e 69613500 		.ascii	"ia5\000"
 1895 0162 01       		.byte	0x1
 1896 0163 33       		.byte	0x33
 1897 0164 93000000 		.4byte	0x93
 1898 0168 0B       		.uleb128 0xb
 1899 0169 69613600 		.ascii	"ia6\000"
 1900 016d 01       		.byte	0x1
 1901 016e 33       		.byte	0x33
 1902 016f 93000000 		.4byte	0x93
ARM GAS  C:\Users\IVYLIU~1\AppData\Local\Temp\cc3ADQnL.s 			page 42


 1903 0173 0B       		.uleb128 0xb
 1904 0174 69613700 		.ascii	"ia7\000"
 1905 0178 01       		.byte	0x1
 1906 0179 33       		.byte	0x33
 1907 017a 93000000 		.4byte	0x93
 1908 017e 0A       		.uleb128 0xa
 1909 017f 693100   		.ascii	"i1\000"
 1910 0182 01       		.byte	0x1
 1911 0183 34       		.byte	0x34
 1912 0184 93000000 		.4byte	0x93
 1913 0188 0C010000 		.4byte	.LLST5
 1914 018c 0A       		.uleb128 0xa
 1915 018d 693200   		.ascii	"i2\000"
 1916 0190 01       		.byte	0x1
 1917 0191 34       		.byte	0x34
 1918 0192 93000000 		.4byte	0x93
 1919 0196 91010000 		.4byte	.LLST6
 1920 019a 0A       		.uleb128 0xa
 1921 019b 693300   		.ascii	"i3\000"
 1922 019e 01       		.byte	0x1
 1923 019f 34       		.byte	0x34
 1924 01a0 93000000 		.4byte	0x93
 1925 01a4 AD010000 		.4byte	.LLST7
 1926 01a8 0A       		.uleb128 0xa
 1927 01a9 693400   		.ascii	"i4\000"
 1928 01ac 01       		.byte	0x1
 1929 01ad 34       		.byte	0x34
 1930 01ae 93000000 		.4byte	0x93
 1931 01b2 CB010000 		.4byte	.LLST8
 1932 01b6 0A       		.uleb128 0xa
 1933 01b7 693500   		.ascii	"i5\000"
 1934 01ba 01       		.byte	0x1
 1935 01bb 34       		.byte	0x34
 1936 01bc 93000000 		.4byte	0x93
 1937 01c0 E9010000 		.4byte	.LLST9
 1938 01c4 0A       		.uleb128 0xa
 1939 01c5 693600   		.ascii	"i6\000"
 1940 01c8 01       		.byte	0x1
 1941 01c9 34       		.byte	0x34
 1942 01ca 93000000 		.4byte	0x93
 1943 01ce 07020000 		.4byte	.LLST10
 1944 01d2 0A       		.uleb128 0xa
 1945 01d3 693700   		.ascii	"i7\000"
 1946 01d6 01       		.byte	0x1
 1947 01d7 34       		.byte	0x34
 1948 01d8 93000000 		.4byte	0x93
 1949 01dc 25020000 		.4byte	.LLST11
 1950 01e0 0A       		.uleb128 0xa
 1951 01e1 693800   		.ascii	"i8\000"
 1952 01e4 01       		.byte	0x1
 1953 01e5 34       		.byte	0x34
 1954 01e6 93000000 		.4byte	0x93
 1955 01ea 43020000 		.4byte	.LLST12
 1956 01ee 0A       		.uleb128 0xa
 1957 01ef 696400   		.ascii	"id\000"
 1958 01f2 01       		.byte	0x1
 1959 01f3 35       		.byte	0x35
ARM GAS  C:\Users\IVYLIU~1\AppData\Local\Temp\cc3ADQnL.s 			page 43


 1960 01f4 93000000 		.4byte	0x93
 1961 01f8 D6000000 		.4byte	.LLST4
 1962 01fc 0A       		.uleb128 0xa
 1963 01fd 6E3100   		.ascii	"n1\000"
 1964 0200 01       		.byte	0x1
 1965 0201 36       		.byte	0x36
 1966 0202 93000000 		.4byte	0x93
 1967 0206 61020000 		.4byte	.LLST14
 1968 020a 0A       		.uleb128 0xa
 1969 020b 6E3200   		.ascii	"n2\000"
 1970 020e 01       		.byte	0x1
 1971 020f 36       		.byte	0x36
 1972 0210 93000000 		.4byte	0x93
 1973 0214 8E020000 		.4byte	.LLST15
 1974 0218 0A       		.uleb128 0xa
 1975 0219 6A00     		.ascii	"j\000"
 1976 021b 01       		.byte	0x1
 1977 021c 36       		.byte	0x36
 1978 021d 93000000 		.4byte	0x93
 1979 0221 E0020000 		.4byte	.LLST16
 1980 0225 0A       		.uleb128 0xa
 1981 0226 723100   		.ascii	"r1\000"
 1982 0229 01       		.byte	0x1
 1983 022a 38       		.byte	0x38
 1984 022b BA000000 		.4byte	0xba
 1985 022f 0D030000 		.4byte	.LLST17
 1986 0233 0A       		.uleb128 0xa
 1987 0234 723200   		.ascii	"r2\000"
 1988 0237 01       		.byte	0x1
 1989 0238 38       		.byte	0x38
 1990 0239 BA000000 		.4byte	0xba
 1991 023d F1030000 		.4byte	.LLST18
 1992 0241 0A       		.uleb128 0xa
 1993 0242 723300   		.ascii	"r3\000"
 1994 0245 01       		.byte	0x1
 1995 0246 38       		.byte	0x38
 1996 0247 BA000000 		.4byte	0xba
 1997 024b AD040000 		.4byte	.LLST19
 1998 024f 0A       		.uleb128 0xa
 1999 0250 723400   		.ascii	"r4\000"
 2000 0253 01       		.byte	0x1
 2001 0254 38       		.byte	0x38
 2002 0255 BA000000 		.4byte	0xba
 2003 0259 2B050000 		.4byte	.LLST20
 2004 025d 0A       		.uleb128 0xa
 2005 025e 723500   		.ascii	"r5\000"
 2006 0261 01       		.byte	0x1
 2007 0262 38       		.byte	0x38
 2008 0263 BA000000 		.4byte	0xba
 2009 0267 75050000 		.4byte	.LLST21
 2010 026b 0A       		.uleb128 0xa
 2011 026c 723600   		.ascii	"r6\000"
 2012 026f 01       		.byte	0x1
 2013 0270 38       		.byte	0x38
 2014 0271 BA000000 		.4byte	0xba
 2015 0275 0B060000 		.4byte	.LLST22
 2016 0279 0A       		.uleb128 0xa
ARM GAS  C:\Users\IVYLIU~1\AppData\Local\Temp\cc3ADQnL.s 			page 44


 2017 027a 723700   		.ascii	"r7\000"
 2018 027d 01       		.byte	0x1
 2019 027e 38       		.byte	0x38
 2020 027f BA000000 		.4byte	0xba
 2021 0283 87060000 		.4byte	.LLST23
 2022 0287 0A       		.uleb128 0xa
 2023 0288 723800   		.ascii	"r8\000"
 2024 028b 01       		.byte	0x1
 2025 028c 38       		.byte	0x38
 2026 028d BA000000 		.4byte	0xba
 2027 0291 F6060000 		.4byte	.LLST24
 2028 0295 0A       		.uleb128 0xa
 2029 0296 743100   		.ascii	"t1\000"
 2030 0299 01       		.byte	0x1
 2031 029a 39       		.byte	0x39
 2032 029b BA000000 		.4byte	0xba
 2033 029f 76070000 		.4byte	.LLST25
 2034 02a3 0A       		.uleb128 0xa
 2035 02a4 743200   		.ascii	"t2\000"
 2036 02a7 01       		.byte	0x1
 2037 02a8 39       		.byte	0x39
 2038 02a9 BA000000 		.4byte	0xba
 2039 02ad 13080000 		.4byte	.LLST26
 2040 02b1 0A       		.uleb128 0xa
 2041 02b2 733100   		.ascii	"s1\000"
 2042 02b5 01       		.byte	0x1
 2043 02b6 3A       		.byte	0x3a
 2044 02b7 BA000000 		.4byte	0xba
 2045 02bb AA080000 		.4byte	.LLST27
 2046 02bf 0A       		.uleb128 0xa
 2047 02c0 733200   		.ascii	"s2\000"
 2048 02c3 01       		.byte	0x1
 2049 02c4 3A       		.byte	0x3a
 2050 02c5 BA000000 		.4byte	0xba
 2051 02c9 22090000 		.4byte	.LLST28
 2052 02cd 0A       		.uleb128 0xa
 2053 02ce 733300   		.ascii	"s3\000"
 2054 02d1 01       		.byte	0x1
 2055 02d2 3A       		.byte	0x3a
 2056 02d3 BA000000 		.4byte	0xba
 2057 02d7 6C090000 		.4byte	.LLST29
 2058 02db 0A       		.uleb128 0xa
 2059 02dc 733400   		.ascii	"s4\000"
 2060 02df 01       		.byte	0x1
 2061 02e0 3A       		.byte	0x3a
 2062 02e1 BA000000 		.4byte	0xba
 2063 02e5 CC090000 		.4byte	.LLST30
 2064 02e9 0A       		.uleb128 0xa
 2065 02ea 733500   		.ascii	"s5\000"
 2066 02ed 01       		.byte	0x1
 2067 02ee 3A       		.byte	0x3a
 2068 02ef BA000000 		.4byte	0xba
 2069 02f3 EA090000 		.4byte	.LLST31
 2070 02f7 0A       		.uleb128 0xa
 2071 02f8 733600   		.ascii	"s6\000"
 2072 02fb 01       		.byte	0x1
 2073 02fc 3A       		.byte	0x3a
ARM GAS  C:\Users\IVYLIU~1\AppData\Local\Temp\cc3ADQnL.s 			page 45


 2074 02fd BA000000 		.4byte	0xba
 2075 0301 6E0A0000 		.4byte	.LLST32
 2076 0305 0A       		.uleb128 0xa
 2077 0306 733700   		.ascii	"s7\000"
 2078 0309 01       		.byte	0x1
 2079 030a 3A       		.byte	0x3a
 2080 030b BA000000 		.4byte	0xba
 2081 030f E50A0000 		.4byte	.LLST33
 2082 0313 0A       		.uleb128 0xa
 2083 0314 733800   		.ascii	"s8\000"
 2084 0317 01       		.byte	0x1
 2085 0318 3A       		.byte	0x3a
 2086 0319 BA000000 		.4byte	0xba
 2087 031d 530B0000 		.4byte	.LLST34
 2088 0321 0A       		.uleb128 0xa
 2089 0322 703100   		.ascii	"p1\000"
 2090 0325 01       		.byte	0x1
 2091 0326 3B       		.byte	0x3b
 2092 0327 BA000000 		.4byte	0xba
 2093 032b C10B0000 		.4byte	.LLST35
 2094 032f 0A       		.uleb128 0xa
 2095 0330 703200   		.ascii	"p2\000"
 2096 0333 01       		.byte	0x1
 2097 0334 3B       		.byte	0x3b
 2098 0335 BA000000 		.4byte	0xba
 2099 0339 650C0000 		.4byte	.LLST36
 2100 033d 0A       		.uleb128 0xa
 2101 033e 703300   		.ascii	"p3\000"
 2102 0341 01       		.byte	0x1
 2103 0342 3B       		.byte	0x3b
 2104 0343 BA000000 		.4byte	0xba
 2105 0347 030D0000 		.4byte	.LLST37
 2106 034b 0A       		.uleb128 0xa
 2107 034c 703400   		.ascii	"p4\000"
 2108 034f 01       		.byte	0x1
 2109 0350 3B       		.byte	0x3b
 2110 0351 BA000000 		.4byte	0xba
 2111 0355 A10D0000 		.4byte	.LLST38
 2112 0359 0A       		.uleb128 0xa
 2113 035a 636F3200 		.ascii	"co2\000"
 2114 035e 01       		.byte	0x1
 2115 035f 3C       		.byte	0x3c
 2116 0360 BA000000 		.4byte	0xba
 2117 0364 450E0000 		.4byte	.LLST39
 2118 0368 0A       		.uleb128 0xa
 2119 0369 636F3300 		.ascii	"co3\000"
 2120 036d 01       		.byte	0x1
 2121 036e 3C       		.byte	0x3c
 2122 036f BA000000 		.4byte	0xba
 2123 0373 650E0000 		.4byte	.LLST40
 2124 0377 0A       		.uleb128 0xa
 2125 0378 636F3400 		.ascii	"co4\000"
 2126 037c 01       		.byte	0x1
 2127 037d 3C       		.byte	0x3c
 2128 037e BA000000 		.4byte	0xba
 2129 0382 850E0000 		.4byte	.LLST41
 2130 0386 0A       		.uleb128 0xa
ARM GAS  C:\Users\IVYLIU~1\AppData\Local\Temp\cc3ADQnL.s 			page 46


 2131 0387 636F3500 		.ascii	"co5\000"
 2132 038b 01       		.byte	0x1
 2133 038c 3C       		.byte	0x3c
 2134 038d BA000000 		.4byte	0xba
 2135 0391 A50E0000 		.4byte	.LLST42
 2136 0395 0A       		.uleb128 0xa
 2137 0396 636F3600 		.ascii	"co6\000"
 2138 039a 01       		.byte	0x1
 2139 039b 3C       		.byte	0x3c
 2140 039c BA000000 		.4byte	0xba
 2141 03a0 C50E0000 		.4byte	.LLST43
 2142 03a4 0A       		.uleb128 0xa
 2143 03a5 636F3700 		.ascii	"co7\000"
 2144 03a9 01       		.byte	0x1
 2145 03aa 3C       		.byte	0x3c
 2146 03ab BA000000 		.4byte	0xba
 2147 03af E50E0000 		.4byte	.LLST44
 2148 03b3 0A       		.uleb128 0xa
 2149 03b4 636F3800 		.ascii	"co8\000"
 2150 03b8 01       		.byte	0x1
 2151 03b9 3C       		.byte	0x3c
 2152 03ba BA000000 		.4byte	0xba
 2153 03be 050F0000 		.4byte	.LLST45
 2154 03c2 0A       		.uleb128 0xa
 2155 03c3 73693200 		.ascii	"si2\000"
 2156 03c7 01       		.byte	0x1
 2157 03c8 3D       		.byte	0x3d
 2158 03c9 BA000000 		.4byte	0xba
 2159 03cd 250F0000 		.4byte	.LLST46
 2160 03d1 0A       		.uleb128 0xa
 2161 03d2 73693300 		.ascii	"si3\000"
 2162 03d6 01       		.byte	0x1
 2163 03d7 3D       		.byte	0x3d
 2164 03d8 BA000000 		.4byte	0xba
 2165 03dc 450F0000 		.4byte	.LLST47
 2166 03e0 0A       		.uleb128 0xa
 2167 03e1 73693400 		.ascii	"si4\000"
 2168 03e5 01       		.byte	0x1
 2169 03e6 3D       		.byte	0x3d
 2170 03e7 BA000000 		.4byte	0xba
 2171 03eb 650F0000 		.4byte	.LLST48
 2172 03ef 0A       		.uleb128 0xa
 2173 03f0 73693500 		.ascii	"si5\000"
 2174 03f4 01       		.byte	0x1
 2175 03f5 3D       		.byte	0x3d
 2176 03f6 BA000000 		.4byte	0xba
 2177 03fa 850F0000 		.4byte	.LLST49
 2178 03fe 0A       		.uleb128 0xa
 2179 03ff 73693600 		.ascii	"si6\000"
 2180 0403 01       		.byte	0x1
 2181 0404 3D       		.byte	0x3d
 2182 0405 BA000000 		.4byte	0xba
 2183 0409 A50F0000 		.4byte	.LLST50
 2184 040d 0A       		.uleb128 0xa
 2185 040e 73693700 		.ascii	"si7\000"
 2186 0412 01       		.byte	0x1
 2187 0413 3D       		.byte	0x3d
ARM GAS  C:\Users\IVYLIU~1\AppData\Local\Temp\cc3ADQnL.s 			page 47


 2188 0414 BA000000 		.4byte	0xba
 2189 0418 C50F0000 		.4byte	.LLST51
 2190 041c 0A       		.uleb128 0xa
 2191 041d 73693800 		.ascii	"si8\000"
 2192 0421 01       		.byte	0x1
 2193 0422 3D       		.byte	0x3d
 2194 0423 BA000000 		.4byte	0xba
 2195 0427 E50F0000 		.4byte	.LLST52
 2196 042b 0C       		.uleb128 0xc
 2197 042c 43383100 		.ascii	"C81\000"
 2198 0430 01       		.byte	0x1
 2199 0431 3E       		.byte	0x3e
 2200 0432 CC000000 		.4byte	0xcc
 2201 0436 04       		.byte	0x4
 2202 0437 F304353F 		.4byte	0x3f3504f3
 2203 043b 00       		.byte	0
 2204 043c 06       		.uleb128 0x6
 2205 043d 04       		.byte	0x4
 2206 043e BA000000 		.4byte	0xba
 2207 0442 03       		.uleb128 0x3
 2208 0443 00000000 		.4byte	.LASF23
 2209 0447 05       		.byte	0x5
 2210 0448 8B       		.byte	0x8b
 2211 0449 B5040000 		.4byte	0x4b5
 2212 044d 06       		.uleb128 0x6
 2213 044e 04       		.byte	0x4
 2214 044f 93000000 		.4byte	0x93
 2215 0453 0D       		.uleb128 0xd
 2216 0454 F1000000 		.4byte	.LASF24
 2217 0458 05       		.byte	0x5
 2218 0459 92       		.byte	0x92
 2219 045a 5E040000 		.4byte	0x45e
 2220 045e 07       		.uleb128 0x7
 2221 045f 42040000 		.4byte	0x442
 2222 0463 0D       		.uleb128 0xd
 2223 0464 84000000 		.4byte	.LASF25
 2224 0468 05       		.byte	0x5
 2225 0469 93       		.byte	0x93
 2226 046a 5E040000 		.4byte	0x45e
 2227 046e 03       		.uleb128 0x3
 2228 046f 0F000000 		.4byte	.LASF26
 2229 0473 05       		.byte	0x5
 2230 0474 90       		.byte	0x90
 2231 0475 94040000 		.4byte	0x494
 2232 0479 0D       		.uleb128 0xd
 2233 047a B1000000 		.4byte	.LASF27
 2234 047e 05       		.byte	0x5
 2235 047f 94       		.byte	0x94
 2236 0480 84040000 		.4byte	0x484
 2237 0484 07       		.uleb128 0x7
 2238 0485 6E040000 		.4byte	0x46e
 2239 0489 0D       		.uleb128 0xd
 2240 048a 85020000 		.4byte	.LASF28
 2241 048e 05       		.byte	0x5
 2242 048f 95       		.byte	0x95
 2243 0490 84040000 		.4byte	0x484
 2244 0494 0E       		.uleb128 0xe
ARM GAS  C:\Users\IVYLIU~1\AppData\Local\Temp\cc3ADQnL.s 			page 48


 2245 0495 08       		.byte	0x8
 2246 0496 05       		.byte	0x5
 2247 0497 8D       		.byte	0x8d
 2248 0498 B5040000 		.4byte	0x4b5
 2249 049c 0F       		.uleb128 0xf
 2250 049d 5C010000 		.4byte	.LASF29
 2251 04a1 05       		.byte	0x5
 2252 04a2 8E       		.byte	0x8e
 2253 04a3 4D040000 		.4byte	0x44d
 2254 04a7 00       		.byte	0
 2255 04a8 0F       		.uleb128 0xf
 2256 04a9 0E020000 		.4byte	.LASF30
 2257 04ad 05       		.byte	0x5
 2258 04ae 8F       		.byte	0x8f
 2259 04af 93000000 		.4byte	0x93
 2260 04b3 04       		.byte	0x4
 2261 04b4 00       		.byte	0
 2262 04b5 10       		.uleb128 0x10
 2263 04b6 0C       		.byte	0xc
 2264 04b7 05       		.byte	0x5
 2265 04b8 87       		.byte	0x87
 2266 04b9 11       		.uleb128 0x11
 2267 04ba 73726300 		.ascii	"src\000"
 2268 04be 05       		.byte	0x5
 2269 04bf 88       		.byte	0x88
 2270 04c0 D1000000 		.4byte	0xd1
 2271 04c4 00       		.byte	0
 2272 04c5 0F       		.uleb128 0xf
 2273 04c6 5C010000 		.4byte	.LASF29
 2274 04ca 05       		.byte	0x5
 2275 04cb 89       		.byte	0x89
 2276 04cc 4D040000 		.4byte	0x44d
 2277 04d0 04       		.byte	0x4
 2278 04d1 0F       		.uleb128 0xf
 2279 04d2 0E020000 		.4byte	.LASF30
 2280 04d6 05       		.byte	0x5
 2281 04d7 8A       		.byte	0x8a
 2282 04d8 93000000 		.4byte	0x93
 2283 04dc 08       		.byte	0x8
 2284 04dd 00       		.byte	0
 2285 04de 00       		.byte	0
 2286              		.section	.debug_abbrev,"",%progbits
 2287              	.Ldebug_abbrev0:
 2288 0000 01       		.uleb128 0x1
 2289 0001 11       		.uleb128 0x11
 2290 0002 01       		.byte	0x1
 2291 0003 25       		.uleb128 0x25
 2292 0004 0E       		.uleb128 0xe
 2293 0005 13       		.uleb128 0x13
 2294 0006 0B       		.uleb128 0xb
 2295 0007 03       		.uleb128 0x3
 2296 0008 0E       		.uleb128 0xe
 2297 0009 1B       		.uleb128 0x1b
 2298 000a 0E       		.uleb128 0xe
 2299 000b 55       		.uleb128 0x55
 2300 000c 17       		.uleb128 0x17
 2301 000d 11       		.uleb128 0x11
ARM GAS  C:\Users\IVYLIU~1\AppData\Local\Temp\cc3ADQnL.s 			page 49


 2302 000e 01       		.uleb128 0x1
 2303 000f 10       		.uleb128 0x10
 2304 0010 17       		.uleb128 0x17
 2305 0011 00       		.byte	0
 2306 0012 00       		.byte	0
 2307 0013 02       		.uleb128 0x2
 2308 0014 24       		.uleb128 0x24
 2309 0015 00       		.byte	0
 2310 0016 0B       		.uleb128 0xb
 2311 0017 0B       		.uleb128 0xb
 2312 0018 3E       		.uleb128 0x3e
 2313 0019 0B       		.uleb128 0xb
 2314 001a 03       		.uleb128 0x3
 2315 001b 0E       		.uleb128 0xe
 2316 001c 00       		.byte	0
 2317 001d 00       		.byte	0
 2318 001e 03       		.uleb128 0x3
 2319 001f 16       		.uleb128 0x16
 2320 0020 00       		.byte	0
 2321 0021 03       		.uleb128 0x3
 2322 0022 0E       		.uleb128 0xe
 2323 0023 3A       		.uleb128 0x3a
 2324 0024 0B       		.uleb128 0xb
 2325 0025 3B       		.uleb128 0x3b
 2326 0026 0B       		.uleb128 0xb
 2327 0027 49       		.uleb128 0x49
 2328 0028 13       		.uleb128 0x13
 2329 0029 00       		.byte	0
 2330 002a 00       		.byte	0
 2331 002b 04       		.uleb128 0x4
 2332 002c 24       		.uleb128 0x24
 2333 002d 00       		.byte	0
 2334 002e 0B       		.uleb128 0xb
 2335 002f 0B       		.uleb128 0xb
 2336 0030 3E       		.uleb128 0x3e
 2337 0031 0B       		.uleb128 0xb
 2338 0032 03       		.uleb128 0x3
 2339 0033 08       		.uleb128 0x8
 2340 0034 00       		.byte	0
 2341 0035 00       		.byte	0
 2342 0036 05       		.uleb128 0x5
 2343 0037 16       		.uleb128 0x16
 2344 0038 00       		.byte	0
 2345 0039 03       		.uleb128 0x3
 2346 003a 0E       		.uleb128 0xe
 2347 003b 3A       		.uleb128 0x3a
 2348 003c 0B       		.uleb128 0xb
 2349 003d 3B       		.uleb128 0x3b
 2350 003e 05       		.uleb128 0x5
 2351 003f 49       		.uleb128 0x49
 2352 0040 13       		.uleb128 0x13
 2353 0041 00       		.byte	0
 2354 0042 00       		.byte	0
 2355 0043 06       		.uleb128 0x6
 2356 0044 0F       		.uleb128 0xf
 2357 0045 00       		.byte	0
 2358 0046 0B       		.uleb128 0xb
ARM GAS  C:\Users\IVYLIU~1\AppData\Local\Temp\cc3ADQnL.s 			page 50


 2359 0047 0B       		.uleb128 0xb
 2360 0048 49       		.uleb128 0x49
 2361 0049 13       		.uleb128 0x13
 2362 004a 00       		.byte	0
 2363 004b 00       		.byte	0
 2364 004c 07       		.uleb128 0x7
 2365 004d 26       		.uleb128 0x26
 2366 004e 00       		.byte	0
 2367 004f 49       		.uleb128 0x49
 2368 0050 13       		.uleb128 0x13
 2369 0051 00       		.byte	0
 2370 0052 00       		.byte	0
 2371 0053 08       		.uleb128 0x8
 2372 0054 2E       		.uleb128 0x2e
 2373 0055 01       		.byte	0x1
 2374 0056 3F       		.uleb128 0x3f
 2375 0057 19       		.uleb128 0x19
 2376 0058 03       		.uleb128 0x3
 2377 0059 0E       		.uleb128 0xe
 2378 005a 3A       		.uleb128 0x3a
 2379 005b 0B       		.uleb128 0xb
 2380 005c 3B       		.uleb128 0x3b
 2381 005d 0B       		.uleb128 0xb
 2382 005e 27       		.uleb128 0x27
 2383 005f 19       		.uleb128 0x19
 2384 0060 11       		.uleb128 0x11
 2385 0061 01       		.uleb128 0x1
 2386 0062 12       		.uleb128 0x12
 2387 0063 06       		.uleb128 0x6
 2388 0064 40       		.uleb128 0x40
 2389 0065 18       		.uleb128 0x18
 2390 0066 9642     		.uleb128 0x2116
 2391 0068 19       		.uleb128 0x19
 2392 0069 01       		.uleb128 0x1
 2393 006a 13       		.uleb128 0x13
 2394 006b 00       		.byte	0
 2395 006c 00       		.byte	0
 2396 006d 09       		.uleb128 0x9
 2397 006e 05       		.uleb128 0x5
 2398 006f 00       		.byte	0
 2399 0070 03       		.uleb128 0x3
 2400 0071 0E       		.uleb128 0xe
 2401 0072 3A       		.uleb128 0x3a
 2402 0073 0B       		.uleb128 0xb
 2403 0074 3B       		.uleb128 0x3b
 2404 0075 0B       		.uleb128 0xb
 2405 0076 49       		.uleb128 0x49
 2406 0077 13       		.uleb128 0x13
 2407 0078 02       		.uleb128 0x2
 2408 0079 17       		.uleb128 0x17
 2409 007a 00       		.byte	0
 2410 007b 00       		.byte	0
 2411 007c 0A       		.uleb128 0xa
 2412 007d 34       		.uleb128 0x34
 2413 007e 00       		.byte	0
 2414 007f 03       		.uleb128 0x3
 2415 0080 08       		.uleb128 0x8
ARM GAS  C:\Users\IVYLIU~1\AppData\Local\Temp\cc3ADQnL.s 			page 51


 2416 0081 3A       		.uleb128 0x3a
 2417 0082 0B       		.uleb128 0xb
 2418 0083 3B       		.uleb128 0x3b
 2419 0084 0B       		.uleb128 0xb
 2420 0085 49       		.uleb128 0x49
 2421 0086 13       		.uleb128 0x13
 2422 0087 02       		.uleb128 0x2
 2423 0088 17       		.uleb128 0x17
 2424 0089 00       		.byte	0
 2425 008a 00       		.byte	0
 2426 008b 0B       		.uleb128 0xb
 2427 008c 34       		.uleb128 0x34
 2428 008d 00       		.byte	0
 2429 008e 03       		.uleb128 0x3
 2430 008f 08       		.uleb128 0x8
 2431 0090 3A       		.uleb128 0x3a
 2432 0091 0B       		.uleb128 0xb
 2433 0092 3B       		.uleb128 0x3b
 2434 0093 0B       		.uleb128 0xb
 2435 0094 49       		.uleb128 0x49
 2436 0095 13       		.uleb128 0x13
 2437 0096 00       		.byte	0
 2438 0097 00       		.byte	0
 2439 0098 0C       		.uleb128 0xc
 2440 0099 34       		.uleb128 0x34
 2441 009a 00       		.byte	0
 2442 009b 03       		.uleb128 0x3
 2443 009c 08       		.uleb128 0x8
 2444 009d 3A       		.uleb128 0x3a
 2445 009e 0B       		.uleb128 0xb
 2446 009f 3B       		.uleb128 0x3b
 2447 00a0 0B       		.uleb128 0xb
 2448 00a1 49       		.uleb128 0x49
 2449 00a2 13       		.uleb128 0x13
 2450 00a3 1C       		.uleb128 0x1c
 2451 00a4 0A       		.uleb128 0xa
 2452 00a5 00       		.byte	0
 2453 00a6 00       		.byte	0
 2454 00a7 0D       		.uleb128 0xd
 2455 00a8 34       		.uleb128 0x34
 2456 00a9 00       		.byte	0
 2457 00aa 03       		.uleb128 0x3
 2458 00ab 0E       		.uleb128 0xe
 2459 00ac 3A       		.uleb128 0x3a
 2460 00ad 0B       		.uleb128 0xb
 2461 00ae 3B       		.uleb128 0x3b
 2462 00af 0B       		.uleb128 0xb
 2463 00b0 49       		.uleb128 0x49
 2464 00b1 13       		.uleb128 0x13
 2465 00b2 3F       		.uleb128 0x3f
 2466 00b3 19       		.uleb128 0x19
 2467 00b4 3C       		.uleb128 0x3c
 2468 00b5 19       		.uleb128 0x19
 2469 00b6 00       		.byte	0
 2470 00b7 00       		.byte	0
 2471 00b8 0E       		.uleb128 0xe
 2472 00b9 13       		.uleb128 0x13
ARM GAS  C:\Users\IVYLIU~1\AppData\Local\Temp\cc3ADQnL.s 			page 52


 2473 00ba 01       		.byte	0x1
 2474 00bb 0B       		.uleb128 0xb
 2475 00bc 0B       		.uleb128 0xb
 2476 00bd 3A       		.uleb128 0x3a
 2477 00be 0B       		.uleb128 0xb
 2478 00bf 3B       		.uleb128 0x3b
 2479 00c0 0B       		.uleb128 0xb
 2480 00c1 01       		.uleb128 0x1
 2481 00c2 13       		.uleb128 0x13
 2482 00c3 00       		.byte	0
 2483 00c4 00       		.byte	0
 2484 00c5 0F       		.uleb128 0xf
 2485 00c6 0D       		.uleb128 0xd
 2486 00c7 00       		.byte	0
 2487 00c8 03       		.uleb128 0x3
 2488 00c9 0E       		.uleb128 0xe
 2489 00ca 3A       		.uleb128 0x3a
 2490 00cb 0B       		.uleb128 0xb
 2491 00cc 3B       		.uleb128 0x3b
 2492 00cd 0B       		.uleb128 0xb
 2493 00ce 49       		.uleb128 0x49
 2494 00cf 13       		.uleb128 0x13
 2495 00d0 38       		.uleb128 0x38
 2496 00d1 0B       		.uleb128 0xb
 2497 00d2 00       		.byte	0
 2498 00d3 00       		.byte	0
 2499 00d4 10       		.uleb128 0x10
 2500 00d5 13       		.uleb128 0x13
 2501 00d6 01       		.byte	0x1
 2502 00d7 0B       		.uleb128 0xb
 2503 00d8 0B       		.uleb128 0xb
 2504 00d9 3A       		.uleb128 0x3a
 2505 00da 0B       		.uleb128 0xb
 2506 00db 3B       		.uleb128 0x3b
 2507 00dc 0B       		.uleb128 0xb
 2508 00dd 00       		.byte	0
 2509 00de 00       		.byte	0
 2510 00df 11       		.uleb128 0x11
 2511 00e0 0D       		.uleb128 0xd
 2512 00e1 00       		.byte	0
 2513 00e2 03       		.uleb128 0x3
 2514 00e3 08       		.uleb128 0x8
 2515 00e4 3A       		.uleb128 0x3a
 2516 00e5 0B       		.uleb128 0xb
 2517 00e6 3B       		.uleb128 0x3b
 2518 00e7 0B       		.uleb128 0xb
 2519 00e8 49       		.uleb128 0x49
 2520 00e9 13       		.uleb128 0x13
 2521 00ea 38       		.uleb128 0x38
 2522 00eb 0B       		.uleb128 0xb
 2523 00ec 00       		.byte	0
 2524 00ed 00       		.byte	0
 2525 00ee 00       		.byte	0
 2526              		.section	.debug_loc,"",%progbits
 2527              	.Ldebug_loc0:
 2528              	.LLST0:
 2529 0000 00000000 		.4byte	.LVL0
ARM GAS  C:\Users\IVYLIU~1\AppData\Local\Temp\cc3ADQnL.s 			page 53


 2530 0004 10000000 		.4byte	.LVL3
 2531 0008 0100     		.2byte	0x1
 2532 000a 50       		.byte	0x50
 2533 000b 10000000 		.4byte	.LVL3
 2534 000f 52080000 		.4byte	.LVL392
 2535 0013 0300     		.2byte	0x3
 2536 0015 91       		.byte	0x91
 2537 0016 E47E     		.sleb128 -156
 2538 0018 52080000 		.4byte	.LVL392
 2539 001c 58080000 		.4byte	.LFE84
 2540 0020 0300     		.2byte	0x3
 2541 0022 7D       		.byte	0x7d
 2542 0023 E47E     		.sleb128 -156
 2543 0025 00000000 		.4byte	0
 2544 0029 00000000 		.4byte	0
 2545              	.LLST1:
 2546 002d 00000000 		.4byte	.LVL0
 2547 0031 10000000 		.4byte	.LVL3
 2548 0035 0100     		.2byte	0x1
 2549 0037 51       		.byte	0x51
 2550 0038 10000000 		.4byte	.LVL3
 2551 003c 58080000 		.4byte	.LFE84
 2552 0040 0400     		.2byte	0x4
 2553 0042 F3       		.byte	0xf3
 2554 0043 01       		.uleb128 0x1
 2555 0044 51       		.byte	0x51
 2556 0045 9F       		.byte	0x9f
 2557 0046 00000000 		.4byte	0
 2558 004a 00000000 		.4byte	0
 2559              	.LLST2:
 2560 004e 00000000 		.4byte	.LVL0
 2561 0052 10000000 		.4byte	.LVL3
 2562 0056 0100     		.2byte	0x1
 2563 0058 52       		.byte	0x52
 2564 0059 10000000 		.4byte	.LVL3
 2565 005d 75000000 		.4byte	.LVL10-1
 2566 0061 0100     		.2byte	0x1
 2567 0063 5C       		.byte	0x5c
 2568 0064 75000000 		.4byte	.LVL10-1
 2569 0068 2A030000 		.4byte	.LVL142
 2570 006c 0300     		.2byte	0x3
 2571 006e 91       		.byte	0x91
 2572 006f 987F     		.sleb128 -104
 2573 0071 2A030000 		.4byte	.LVL142
 2574 0075 D3030000 		.4byte	.LVL174-1
 2575 0079 0100     		.2byte	0x1
 2576 007b 5C       		.byte	0x5c
 2577 007c D3030000 		.4byte	.LVL174-1
 2578 0080 28080000 		.4byte	.LVL386
 2579 0084 0200     		.2byte	0x2
 2580 0086 91       		.byte	0x91
 2581 0087 54       		.sleb128 -44
 2582 0088 28080000 		.4byte	.LVL386
 2583 008c 58080000 		.4byte	.LFE84
 2584 0090 0100     		.2byte	0x1
 2585 0092 5C       		.byte	0x5c
 2586 0093 00000000 		.4byte	0
ARM GAS  C:\Users\IVYLIU~1\AppData\Local\Temp\cc3ADQnL.s 			page 54


 2587 0097 00000000 		.4byte	0
 2588              	.LLST3:
 2589 009b 00000000 		.4byte	.LVL0
 2590 009f 0C000000 		.4byte	.LVL2
 2591 00a3 0100     		.2byte	0x1
 2592 00a5 53       		.byte	0x53
 2593 00a6 0C000000 		.4byte	.LVL2
 2594 00aa 10000000 		.4byte	.LVL3
 2595 00ae 0400     		.2byte	0x4
 2596 00b0 F3       		.byte	0xf3
 2597 00b1 01       		.uleb128 0x1
 2598 00b2 53       		.byte	0x53
 2599 00b3 9F       		.byte	0x9f
 2600 00b4 12000000 		.4byte	.LVL4
 2601 00b8 52080000 		.4byte	.LVL392
 2602 00bc 0300     		.2byte	0x3
 2603 00be 91       		.byte	0x91
 2604 00bf DC7E     		.sleb128 -164
 2605 00c1 52080000 		.4byte	.LVL392
 2606 00c5 58080000 		.4byte	.LFE84
 2607 00c9 0300     		.2byte	0x3
 2608 00cb 7D       		.byte	0x7d
 2609 00cc DC7E     		.sleb128 -164
 2610 00ce 00000000 		.4byte	0
 2611 00d2 00000000 		.4byte	0
 2612              	.LLST4:
 2613 00d6 3A030000 		.4byte	.LVL143
 2614 00da C0030000 		.4byte	.LVL173
 2615 00de 0100     		.2byte	0x1
 2616 00e0 53       		.byte	0x53
 2617 00e1 C0030000 		.4byte	.LVL173
 2618 00e5 28080000 		.4byte	.LVL386
 2619 00e9 0200     		.2byte	0x2
 2620 00eb 91       		.byte	0x91
 2621 00ec 50       		.sleb128 -48
 2622 00ed 28080000 		.4byte	.LVL386
 2623 00f1 36080000 		.4byte	.LVL389
 2624 00f5 0100     		.2byte	0x1
 2625 00f7 53       		.byte	0x53
 2626 00f8 36080000 		.4byte	.LVL389
 2627 00fc 4C080000 		.4byte	.LVL391
 2628 0100 0200     		.2byte	0x2
 2629 0102 91       		.byte	0x91
 2630 0103 50       		.sleb128 -48
 2631 0104 00000000 		.4byte	0
 2632 0108 00000000 		.4byte	0
 2633              	.LLST5:
 2634 010c 1A000000 		.4byte	.LVL6
 2635 0110 5E000000 		.4byte	.LVL8
 2636 0114 0200     		.2byte	0x2
 2637 0116 30       		.byte	0x30
 2638 0117 9F       		.byte	0x9f
 2639 0118 60000000 		.4byte	.LVL9
 2640 011c 14030000 		.4byte	.LVL140
 2641 0120 0300     		.2byte	0x3
 2642 0122 91       		.byte	0x91
 2643 0123 CC7E     		.sleb128 -180
ARM GAS  C:\Users\IVYLIU~1\AppData\Local\Temp\cc3ADQnL.s 			page 55


 2644 0125 14030000 		.4byte	.LVL140
 2645 0129 16030000 		.4byte	.LVL141
 2646 012d 0100     		.2byte	0x1
 2647 012f 53       		.byte	0x53
 2648 0130 16030000 		.4byte	.LVL141
 2649 0134 3A030000 		.4byte	.LVL143
 2650 0138 0300     		.2byte	0x3
 2651 013a 91       		.byte	0x91
 2652 013b CC7E     		.sleb128 -180
 2653 013d AA030000 		.4byte	.LVL169
 2654 0141 BC030000 		.4byte	.LVL171
 2655 0145 0300     		.2byte	0x3
 2656 0147 91       		.byte	0x91
 2657 0148 CC7E     		.sleb128 -180
 2658 014a BC030000 		.4byte	.LVL171
 2659 014e 16080000 		.4byte	.LVL384
 2660 0152 0300     		.2byte	0x3
 2661 0154 91       		.byte	0x91
 2662 0155 E07E     		.sleb128 -160
 2663 0157 16080000 		.4byte	.LVL384
 2664 015b 18080000 		.4byte	.LVL385
 2665 015f 0100     		.2byte	0x1
 2666 0161 53       		.byte	0x53
 2667 0162 18080000 		.4byte	.LVL385
 2668 0166 4C080000 		.4byte	.LVL391
 2669 016a 0300     		.2byte	0x3
 2670 016c 91       		.byte	0x91
 2671 016d E07E     		.sleb128 -160
 2672 016f 4C080000 		.4byte	.LVL391
 2673 0173 52080000 		.4byte	.LVL392
 2674 0177 0300     		.2byte	0x3
 2675 0179 91       		.byte	0x91
 2676 017a CC7E     		.sleb128 -180
 2677 017c 52080000 		.4byte	.LVL392
 2678 0180 58080000 		.4byte	.LFE84
 2679 0184 0300     		.2byte	0x3
 2680 0186 7D       		.byte	0x7d
 2681 0187 CC7E     		.sleb128 -180
 2682 0189 00000000 		.4byte	0
 2683 018d 00000000 		.4byte	0
 2684              	.LLST6:
 2685 0191 BE030000 		.4byte	.LVL172
 2686 0195 16080000 		.4byte	.LVL384
 2687 0199 0A00     		.2byte	0xa
 2688 019b 91       		.byte	0x91
 2689 019c B47E     		.sleb128 -204
 2690 019e 06       		.byte	0x6
 2691 019f 91       		.byte	0x91
 2692 01a0 E07E     		.sleb128 -160
 2693 01a2 06       		.byte	0x6
 2694 01a3 22       		.byte	0x22
 2695 01a4 9F       		.byte	0x9f
 2696 01a5 00000000 		.4byte	0
 2697 01a9 00000000 		.4byte	0
 2698              	.LLST7:
 2699 01ad BE030000 		.4byte	.LVL172
 2700 01b1 16080000 		.4byte	.LVL384
ARM GAS  C:\Users\IVYLIU~1\AppData\Local\Temp\cc3ADQnL.s 			page 56


 2701 01b5 0C00     		.2byte	0xc
 2702 01b7 91       		.byte	0x91
 2703 01b8 B47E     		.sleb128 -204
 2704 01ba 06       		.byte	0x6
 2705 01bb 31       		.byte	0x31
 2706 01bc 24       		.byte	0x24
 2707 01bd 91       		.byte	0x91
 2708 01be E07E     		.sleb128 -160
 2709 01c0 06       		.byte	0x6
 2710 01c1 22       		.byte	0x22
 2711 01c2 9F       		.byte	0x9f
 2712 01c3 00000000 		.4byte	0
 2713 01c7 00000000 		.4byte	0
 2714              	.LLST8:
 2715 01cb BE030000 		.4byte	.LVL172
 2716 01cf 16080000 		.4byte	.LVL384
 2717 01d3 0C00     		.2byte	0xc
 2718 01d5 91       		.byte	0x91
 2719 01d6 B47E     		.sleb128 -204
 2720 01d8 06       		.byte	0x6
 2721 01d9 33       		.byte	0x33
 2722 01da 1E       		.byte	0x1e
 2723 01db 91       		.byte	0x91
 2724 01dc E07E     		.sleb128 -160
 2725 01de 06       		.byte	0x6
 2726 01df 22       		.byte	0x22
 2727 01e0 9F       		.byte	0x9f
 2728 01e1 00000000 		.4byte	0
 2729 01e5 00000000 		.4byte	0
 2730              	.LLST9:
 2731 01e9 BE030000 		.4byte	.LVL172
 2732 01ed 16080000 		.4byte	.LVL384
 2733 01f1 0C00     		.2byte	0xc
 2734 01f3 91       		.byte	0x91
 2735 01f4 B47E     		.sleb128 -204
 2736 01f6 06       		.byte	0x6
 2737 01f7 32       		.byte	0x32
 2738 01f8 24       		.byte	0x24
 2739 01f9 91       		.byte	0x91
 2740 01fa E07E     		.sleb128 -160
 2741 01fc 06       		.byte	0x6
 2742 01fd 22       		.byte	0x22
 2743 01fe 9F       		.byte	0x9f
 2744 01ff 00000000 		.4byte	0
 2745 0203 00000000 		.4byte	0
 2746              	.LLST10:
 2747 0207 BE030000 		.4byte	.LVL172
 2748 020b 16080000 		.4byte	.LVL384
 2749 020f 0C00     		.2byte	0xc
 2750 0211 91       		.byte	0x91
 2751 0212 B47E     		.sleb128 -204
 2752 0214 06       		.byte	0x6
 2753 0215 35       		.byte	0x35
 2754 0216 1E       		.byte	0x1e
 2755 0217 91       		.byte	0x91
 2756 0218 E07E     		.sleb128 -160
 2757 021a 06       		.byte	0x6
ARM GAS  C:\Users\IVYLIU~1\AppData\Local\Temp\cc3ADQnL.s 			page 57


 2758 021b 22       		.byte	0x22
 2759 021c 9F       		.byte	0x9f
 2760 021d 00000000 		.4byte	0
 2761 0221 00000000 		.4byte	0
 2762              	.LLST11:
 2763 0225 BE030000 		.4byte	.LVL172
 2764 0229 16080000 		.4byte	.LVL384
 2765 022d 0C00     		.2byte	0xc
 2766 022f 91       		.byte	0x91
 2767 0230 B47E     		.sleb128 -204
 2768 0232 06       		.byte	0x6
 2769 0233 36       		.byte	0x36
 2770 0234 1E       		.byte	0x1e
 2771 0235 91       		.byte	0x91
 2772 0236 E07E     		.sleb128 -160
 2773 0238 06       		.byte	0x6
 2774 0239 22       		.byte	0x22
 2775 023a 9F       		.byte	0x9f
 2776 023b 00000000 		.4byte	0
 2777 023f 00000000 		.4byte	0
 2778              	.LLST12:
 2779 0243 BE030000 		.4byte	.LVL172
 2780 0247 16080000 		.4byte	.LVL384
 2781 024b 0C00     		.2byte	0xc
 2782 024d 91       		.byte	0x91
 2783 024e B47E     		.sleb128 -204
 2784 0250 06       		.byte	0x6
 2785 0251 37       		.byte	0x37
 2786 0252 1E       		.byte	0x1e
 2787 0253 91       		.byte	0x91
 2788 0254 E07E     		.sleb128 -160
 2789 0256 06       		.byte	0x6
 2790 0257 22       		.byte	0x22
 2791 0258 9F       		.byte	0x9f
 2792 0259 00000000 		.4byte	0
 2793 025d 00000000 		.4byte	0
 2794              	.LLST14:
 2795 0261 12000000 		.4byte	.LVL4
 2796 0265 18000000 		.4byte	.LVL5
 2797 0269 0100     		.2byte	0x1
 2798 026b 53       		.byte	0x53
 2799 026c 18000000 		.4byte	.LVL5
 2800 0270 52080000 		.4byte	.LVL392
 2801 0274 0300     		.2byte	0x3
 2802 0276 91       		.byte	0x91
 2803 0277 D47E     		.sleb128 -172
 2804 0279 52080000 		.4byte	.LVL392
 2805 027d 58080000 		.4byte	.LFE84
 2806 0281 0300     		.2byte	0x3
 2807 0283 7D       		.byte	0x7d
 2808 0284 D47E     		.sleb128 -172
 2809 0286 00000000 		.4byte	0
 2810 028a 00000000 		.4byte	0
 2811              	.LLST15:
 2812 028e 06000000 		.4byte	.LVL1
 2813 0292 10000000 		.4byte	.LVL3
 2814 0296 0300     		.2byte	0x3
ARM GAS  C:\Users\IVYLIU~1\AppData\Local\Temp\cc3ADQnL.s 			page 58


 2815 0298 91       		.byte	0x91
 2816 0299 E87E     		.sleb128 -152
 2817 029b 12000000 		.4byte	.LVL4
 2818 029f 18000000 		.4byte	.LVL5
 2819 02a3 0100     		.2byte	0x1
 2820 02a5 53       		.byte	0x53
 2821 02a6 18000000 		.4byte	.LVL5
 2822 02aa 1A000000 		.4byte	.LVL6
 2823 02ae 0300     		.2byte	0x3
 2824 02b0 91       		.byte	0x91
 2825 02b1 D47E     		.sleb128 -172
 2826 02b3 1A000000 		.4byte	.LVL6
 2827 02b7 1C000000 		.4byte	.LVL7
 2828 02bb 0100     		.2byte	0x1
 2829 02bd 53       		.byte	0x53
 2830 02be 1C000000 		.4byte	.LVL7
 2831 02c2 52080000 		.4byte	.LVL392
 2832 02c6 0300     		.2byte	0x3
 2833 02c8 91       		.byte	0x91
 2834 02c9 B47E     		.sleb128 -204
 2835 02cb 52080000 		.4byte	.LVL392
 2836 02cf 58080000 		.4byte	.LFE84
 2837 02d3 0300     		.2byte	0x3
 2838 02d5 7D       		.byte	0x7d
 2839 02d6 B47E     		.sleb128 -204
 2840 02d8 00000000 		.4byte	0
 2841 02dc 00000000 		.4byte	0
 2842              	.LLST16:
 2843 02e0 3A030000 		.4byte	.LVL143
 2844 02e4 30080000 		.4byte	.LVL387
 2845 02e8 0300     		.2byte	0x3
 2846 02ea 91       		.byte	0x91
 2847 02eb CC7E     		.sleb128 -180
 2848 02ed 30080000 		.4byte	.LVL387
 2849 02f1 32080000 		.4byte	.LVL388
 2850 02f5 0100     		.2byte	0x1
 2851 02f7 52       		.byte	0x52
 2852 02f8 32080000 		.4byte	.LVL388
 2853 02fc 4C080000 		.4byte	.LVL391
 2854 0300 0300     		.2byte	0x3
 2855 0302 91       		.byte	0x91
 2856 0303 CC7E     		.sleb128 -180
 2857 0305 00000000 		.4byte	0
 2858 0309 00000000 		.4byte	0
 2859              	.LLST17:
 2860 030d 7A000000 		.4byte	.LVL11
 2861 0311 7C000000 		.4byte	.LVL12
 2862 0315 0100     		.2byte	0x1
 2863 0317 50       		.byte	0x50
 2864 0318 7C000000 		.4byte	.LVL12
 2865 031c 00010000 		.4byte	.LVL38
 2866 0320 0100     		.2byte	0x1
 2867 0322 58       		.byte	0x58
 2868 0323 00010000 		.4byte	.LVL38
 2869 0327 02010000 		.4byte	.LVL39
 2870 032b 0100     		.2byte	0x1
 2871 032d 50       		.byte	0x50
ARM GAS  C:\Users\IVYLIU~1\AppData\Local\Temp\cc3ADQnL.s 			page 59


 2872 032e 02010000 		.4byte	.LVL39
 2873 0332 34010000 		.4byte	.LVL49
 2874 0336 0100     		.2byte	0x1
 2875 0338 55       		.byte	0x55
 2876 0339 3E010000 		.4byte	.LVL51
 2877 033d 40010000 		.4byte	.LVL52
 2878 0341 0100     		.2byte	0x1
 2879 0343 50       		.byte	0x50
 2880 0344 40010000 		.4byte	.LVL52
 2881 0348 B4010000 		.4byte	.LVL78
 2882 034c 0100     		.2byte	0x1
 2883 034e 57       		.byte	0x57
 2884 034f B4010000 		.4byte	.LVL78
 2885 0353 B6010000 		.4byte	.LVL79
 2886 0357 0100     		.2byte	0x1
 2887 0359 50       		.byte	0x50
 2888 035a B6010000 		.4byte	.LVL79
 2889 035e 24020000 		.4byte	.LVL94
 2890 0362 0100     		.2byte	0x1
 2891 0364 57       		.byte	0x57
 2892 0365 24020000 		.4byte	.LVL94
 2893 0369 26020000 		.4byte	.LVL95
 2894 036d 0100     		.2byte	0x1
 2895 036f 50       		.byte	0x50
 2896 0370 26020000 		.4byte	.LVL95
 2897 0374 7C020000 		.4byte	.LVL118
 2898 0378 0100     		.2byte	0x1
 2899 037a 56       		.byte	0x56
 2900 037b D8030000 		.4byte	.LVL175
 2901 037f DA030000 		.4byte	.LVL176
 2902 0383 0100     		.2byte	0x1
 2903 0385 50       		.byte	0x50
 2904 0386 DA030000 		.4byte	.LVL176
 2905 038a 56040000 		.4byte	.LVL202
 2906 038e 0100     		.2byte	0x1
 2907 0390 57       		.byte	0x57
 2908 0391 56040000 		.4byte	.LVL202
 2909 0395 58040000 		.4byte	.LVL203
 2910 0399 0100     		.2byte	0x1
 2911 039b 50       		.byte	0x50
 2912 039c 58040000 		.4byte	.LVL203
 2913 03a0 86040000 		.4byte	.LVL213
 2914 03a4 0100     		.2byte	0x1
 2915 03a6 54       		.byte	0x54
 2916 03a7 34050000 		.4byte	.LVL253
 2917 03ab 36050000 		.4byte	.LVL254
 2918 03af 0100     		.2byte	0x1
 2919 03b1 50       		.byte	0x50
 2920 03b2 36050000 		.4byte	.LVL254
 2921 03b6 F2050000 		.4byte	.LVL285
 2922 03ba 0100     		.2byte	0x1
 2923 03bc 54       		.byte	0x54
 2924 03bd 38060000 		.4byte	.LVL293
 2925 03c1 3A060000 		.4byte	.LVL294
 2926 03c5 0100     		.2byte	0x1
 2927 03c7 50       		.byte	0x50
 2928 03c8 3A060000 		.4byte	.LVL294
ARM GAS  C:\Users\IVYLIU~1\AppData\Local\Temp\cc3ADQnL.s 			page 60


 2929 03cc 7C060000 		.4byte	.LVL311
 2930 03d0 0100     		.2byte	0x1
 2931 03d2 54       		.byte	0x54
 2932 03d3 C4060000 		.4byte	.LVL332
 2933 03d7 C8060000 		.4byte	.LVL333
 2934 03db 0100     		.2byte	0x1
 2935 03dd 50       		.byte	0x50
 2936 03de C8060000 		.4byte	.LVL333
 2937 03e2 56070000 		.4byte	.LVL363
 2938 03e6 0100     		.2byte	0x1
 2939 03e8 55       		.byte	0x55
 2940 03e9 00000000 		.4byte	0
 2941 03ed 00000000 		.4byte	0
 2942              	.LLST18:
 2943 03f1 A0000000 		.4byte	.LVL17
 2944 03f5 A2000000 		.4byte	.LVL18
 2945 03f9 0100     		.2byte	0x1
 2946 03fb 50       		.byte	0x50
 2947 03fc A2000000 		.4byte	.LVL18
 2948 0400 12010000 		.4byte	.LVL44
 2949 0404 0100     		.2byte	0x1
 2950 0406 57       		.byte	0x57
 2951 0407 12010000 		.4byte	.LVL44
 2952 040b 14010000 		.4byte	.LVL45
 2953 040f 0100     		.2byte	0x1
 2954 0411 50       		.byte	0x50
 2955 0412 14010000 		.4byte	.LVL45
 2956 0416 2E010000 		.4byte	.LVL48
 2957 041a 0100     		.2byte	0x1
 2958 041c 56       		.byte	0x56
 2959 041d 5A010000 		.4byte	.LVL57
 2960 0421 5C010000 		.4byte	.LVL58
 2961 0425 0100     		.2byte	0x1
 2962 0427 50       		.byte	0x50
 2963 0428 5C010000 		.4byte	.LVL58
 2964 042c C6010000 		.4byte	.LVL84
 2965 0430 0300     		.2byte	0x3
 2966 0432 91       		.byte	0x91
 2967 0433 887F     		.sleb128 -120
 2968 0435 C6010000 		.4byte	.LVL84
 2969 0439 C8010000 		.4byte	.LVL85
 2970 043d 0100     		.2byte	0x1
 2971 043f 50       		.byte	0x50
 2972 0440 C8010000 		.4byte	.LVL85
 2973 0444 44020000 		.4byte	.LVL102
 2974 0448 0100     		.2byte	0x1
 2975 044a 59       		.byte	0x59
 2976 044b 44020000 		.4byte	.LVL102
 2977 044f 46020000 		.4byte	.LVL103
 2978 0453 0100     		.2byte	0x1
 2979 0455 50       		.byte	0x50
 2980 0456 46020000 		.4byte	.LVL103
 2981 045a 90020000 		.4byte	.LVL124
 2982 045e 0100     		.2byte	0x1
 2983 0460 57       		.byte	0x57
 2984 0461 F8030000 		.4byte	.LVL181
 2985 0465 FA030000 		.4byte	.LVL182
ARM GAS  C:\Users\IVYLIU~1\AppData\Local\Temp\cc3ADQnL.s 			page 61


 2986 0469 0100     		.2byte	0x1
 2987 046b 50       		.byte	0x50
 2988 046c FA030000 		.4byte	.LVL182
 2989 0470 68040000 		.4byte	.LVL208
 2990 0474 0100     		.2byte	0x1
 2991 0476 56       		.byte	0x56
 2992 0477 68040000 		.4byte	.LVL208
 2993 047b 6A040000 		.4byte	.LVL209
 2994 047f 0100     		.2byte	0x1
 2995 0481 50       		.byte	0x50
 2996 0482 6A040000 		.4byte	.LVL209
 2997 0486 82040000 		.4byte	.LVL212
 2998 048a 0100     		.2byte	0x1
 2999 048c 55       		.byte	0x55
 3000 048d 88040000 		.4byte	.LVL214
 3001 0491 8C040000 		.4byte	.LVL215
 3002 0495 0100     		.2byte	0x1
 3003 0497 50       		.byte	0x50
 3004 0498 8C040000 		.4byte	.LVL215
 3005 049c 4C080000 		.4byte	.LVL391
 3006 04a0 0300     		.2byte	0x3
 3007 04a2 91       		.byte	0x91
 3008 04a3 BC7F     		.sleb128 -68
 3009 04a5 00000000 		.4byte	0
 3010 04a9 00000000 		.4byte	0
 3011              	.LLST19:
 3012 04ad C2000000 		.4byte	.LVL23
 3013 04b1 C4000000 		.4byte	.LVL24
 3014 04b5 0100     		.2byte	0x1
 3015 04b7 50       		.byte	0x50
 3016 04b8 C4000000 		.4byte	.LVL24
 3017 04bc 00010000 		.4byte	.LVL38
 3018 04c0 0100     		.2byte	0x1
 3019 04c2 55       		.byte	0x55
 3020 04c3 0A010000 		.4byte	.LVL41
 3021 04c7 0C010000 		.4byte	.LVL42
 3022 04cb 0100     		.2byte	0x1
 3023 04cd 50       		.byte	0x50
 3024 04ce 0C010000 		.4byte	.LVL42
 3025 04d2 3A030000 		.4byte	.LVL143
 3026 04d6 0300     		.2byte	0x3
 3027 04d8 91       		.byte	0x91
 3028 04d9 807F     		.sleb128 -128
 3029 04db 18040000 		.4byte	.LVL187
 3030 04df 1A040000 		.4byte	.LVL188
 3031 04e3 0100     		.2byte	0x1
 3032 04e5 50       		.byte	0x50
 3033 04e6 1A040000 		.4byte	.LVL188
 3034 04ea 56040000 		.4byte	.LVL202
 3035 04ee 0100     		.2byte	0x1
 3036 04f0 54       		.byte	0x54
 3037 04f1 60040000 		.4byte	.LVL205
 3038 04f5 62040000 		.4byte	.LVL206
 3039 04f9 0100     		.2byte	0x1
 3040 04fb 50       		.byte	0x50
 3041 04fc 62040000 		.4byte	.LVL206
 3042 0500 4C080000 		.4byte	.LVL391
ARM GAS  C:\Users\IVYLIU~1\AppData\Local\Temp\cc3ADQnL.s 			page 62


 3043 0504 0300     		.2byte	0x3
 3044 0506 91       		.byte	0x91
 3045 0507 B87F     		.sleb128 -72
 3046 0509 4C080000 		.4byte	.LVL391
 3047 050d 52080000 		.4byte	.LVL392
 3048 0511 0300     		.2byte	0x3
 3049 0513 91       		.byte	0x91
 3050 0514 807F     		.sleb128 -128
 3051 0516 52080000 		.4byte	.LVL392
 3052 051a 58080000 		.4byte	.LFE84
 3053 051e 0300     		.2byte	0x3
 3054 0520 7D       		.byte	0x7d
 3055 0521 807F     		.sleb128 -128
 3056 0523 00000000 		.4byte	0
 3057 0527 00000000 		.4byte	0
 3058              	.LLST20:
 3059 052b E2000000 		.4byte	.LVL29
 3060 052f E4000000 		.4byte	.LVL30
 3061 0533 0100     		.2byte	0x1
 3062 0535 50       		.byte	0x50
 3063 0536 E4000000 		.4byte	.LVL30
 3064 053a 12010000 		.4byte	.LVL44
 3065 053e 0100     		.2byte	0x1
 3066 0540 56       		.byte	0x56
 3067 0541 96010000 		.4byte	.LVL69
 3068 0545 98010000 		.4byte	.LVL70
 3069 0549 0100     		.2byte	0x1
 3070 054b 50       		.byte	0x50
 3071 054c 98010000 		.4byte	.LVL70
 3072 0550 C6010000 		.4byte	.LVL84
 3073 0554 0100     		.2byte	0x1
 3074 0556 59       		.byte	0x59
 3075 0557 38040000 		.4byte	.LVL193
 3076 055b 3A040000 		.4byte	.LVL194
 3077 055f 0100     		.2byte	0x1
 3078 0561 50       		.byte	0x50
 3079 0562 3A040000 		.4byte	.LVL194
 3080 0566 68040000 		.4byte	.LVL208
 3081 056a 0100     		.2byte	0x1
 3082 056c 55       		.byte	0x55
 3083 056d 00000000 		.4byte	0
 3084 0571 00000000 		.4byte	0
 3085              	.LLST21:
 3086 0575 84000000 		.4byte	.LVL14
 3087 0579 92000000 		.4byte	.LVL15
 3088 057d 0100     		.2byte	0x1
 3089 057f 50       		.byte	0x50
 3090 0580 92000000 		.4byte	.LVL15
 3091 0584 68020000 		.4byte	.LVL112
 3092 0588 0300     		.2byte	0x3
 3093 058a 91       		.byte	0x91
 3094 058b EC7E     		.sleb128 -148
 3095 058d 68020000 		.4byte	.LVL112
 3096 0591 6A020000 		.4byte	.LVL113
 3097 0595 0100     		.2byte	0x1
 3098 0597 50       		.byte	0x50
 3099 0598 6A020000 		.4byte	.LVL113
ARM GAS  C:\Users\IVYLIU~1\AppData\Local\Temp\cc3ADQnL.s 			page 63


 3100 059c 3A030000 		.4byte	.LVL143
 3101 05a0 0300     		.2byte	0x3
 3102 05a2 91       		.byte	0x91
 3103 05a3 EC7E     		.sleb128 -148
 3104 05a5 E2030000 		.4byte	.LVL178
 3105 05a9 EA030000 		.4byte	.LVL179
 3106 05ad 0100     		.2byte	0x1
 3107 05af 50       		.byte	0x50
 3108 05b0 EA030000 		.4byte	.LVL179
 3109 05b4 7C060000 		.4byte	.LVL311
 3110 05b8 0300     		.2byte	0x3
 3111 05ba 91       		.byte	0x91
 3112 05bb A87F     		.sleb128 -88
 3113 05bd 7C060000 		.4byte	.LVL311
 3114 05c1 7E060000 		.4byte	.LVL312
 3115 05c5 0100     		.2byte	0x1
 3116 05c7 50       		.byte	0x50
 3117 05c8 7E060000 		.4byte	.LVL312
 3118 05cc D0060000 		.4byte	.LVL335
 3119 05d0 0100     		.2byte	0x1
 3120 05d2 54       		.byte	0x54
 3121 05d3 D0060000 		.4byte	.LVL335
 3122 05d7 D2060000 		.4byte	.LVL336
 3123 05db 0100     		.2byte	0x1
 3124 05dd 50       		.byte	0x50
 3125 05de D2060000 		.4byte	.LVL336
 3126 05e2 96070000 		.4byte	.LVL371
 3127 05e6 0100     		.2byte	0x1
 3128 05e8 54       		.byte	0x54
 3129 05e9 4C080000 		.4byte	.LVL391
 3130 05ed 52080000 		.4byte	.LVL392
 3131 05f1 0300     		.2byte	0x3
 3132 05f3 91       		.byte	0x91
 3133 05f4 EC7E     		.sleb128 -148
 3134 05f6 52080000 		.4byte	.LVL392
 3135 05fa 58080000 		.4byte	.LFE84
 3136 05fe 0300     		.2byte	0x3
 3137 0600 7D       		.byte	0x7d
 3138 0601 EC7E     		.sleb128 -148
 3139 0603 00000000 		.4byte	0
 3140 0607 00000000 		.4byte	0
 3141              	.LLST22:
 3142 060b AC000000 		.4byte	.LVL20
 3143 060f B4000000 		.4byte	.LVL21
 3144 0613 0100     		.2byte	0x1
 3145 0615 50       		.byte	0x50
 3146 0616 B4000000 		.4byte	.LVL21
 3147 061a 34020000 		.4byte	.LVL98
 3148 061e 0300     		.2byte	0x3
 3149 0620 91       		.byte	0x91
 3150 0621 F07E     		.sleb128 -144
 3151 0623 34020000 		.4byte	.LVL98
 3152 0627 36020000 		.4byte	.LVL99
 3153 062b 0100     		.2byte	0x1
 3154 062d 50       		.byte	0x50
 3155 062e 36020000 		.4byte	.LVL99
 3156 0632 86020000 		.4byte	.LVL121
ARM GAS  C:\Users\IVYLIU~1\AppData\Local\Temp\cc3ADQnL.s 			page 64


 3157 0636 0100     		.2byte	0x1
 3158 0638 55       		.byte	0x55
 3159 0639 02040000 		.4byte	.LVL184
 3160 063d 0A040000 		.4byte	.LVL185
 3161 0641 0100     		.2byte	0x1
 3162 0643 50       		.byte	0x50
 3163 0644 0A040000 		.4byte	.LVL185
 3164 0648 48060000 		.4byte	.LVL297
 3165 064c 0300     		.2byte	0x3
 3166 064e 91       		.byte	0x91
 3167 064f AC7F     		.sleb128 -84
 3168 0651 48060000 		.4byte	.LVL297
 3169 0655 4A060000 		.4byte	.LVL298
 3170 0659 0100     		.2byte	0x1
 3171 065b 50       		.byte	0x50
 3172 065c 4A060000 		.4byte	.LVL298
 3173 0660 9A060000 		.4byte	.LVL320
 3174 0664 0100     		.2byte	0x1
 3175 0666 57       		.byte	0x57
 3176 0667 DA060000 		.4byte	.LVL338
 3177 066b DC060000 		.4byte	.LVL339
 3178 066f 0100     		.2byte	0x1
 3179 0671 50       		.byte	0x50
 3180 0672 DC060000 		.4byte	.LVL339
 3181 0676 4C080000 		.4byte	.LVL391
 3182 067a 0300     		.2byte	0x3
 3183 067c 91       		.byte	0x91
 3184 067d B07F     		.sleb128 -80
 3185 067f 00000000 		.4byte	0
 3186 0683 00000000 		.4byte	0
 3187              	.LLST23:
 3188 0687 CC000000 		.4byte	.LVL26
 3189 068b D4000000 		.4byte	.LVL27
 3190 068f 0100     		.2byte	0x1
 3191 0691 50       		.byte	0x50
 3192 0692 D4000000 		.4byte	.LVL27
 3193 0696 7C020000 		.4byte	.LVL118
 3194 069a 0300     		.2byte	0x3
 3195 069c 91       		.byte	0x91
 3196 069d F47E     		.sleb128 -140
 3197 069f 7C020000 		.4byte	.LVL118
 3198 06a3 7E020000 		.4byte	.LVL119
 3199 06a7 0100     		.2byte	0x1
 3200 06a9 50       		.byte	0x50
 3201 06aa 7E020000 		.4byte	.LVL119
 3202 06ae 3A030000 		.4byte	.LVL143
 3203 06b2 0100     		.2byte	0x1
 3204 06b4 56       		.byte	0x56
 3205 06b5 22040000 		.4byte	.LVL190
 3206 06b9 2A040000 		.4byte	.LVL191
 3207 06bd 0100     		.2byte	0x1
 3208 06bf 50       		.byte	0x50
 3209 06c0 2A040000 		.4byte	.LVL191
 3210 06c4 90060000 		.4byte	.LVL317
 3211 06c8 0300     		.2byte	0x3
 3212 06ca 91       		.byte	0x91
 3213 06cb B07F     		.sleb128 -80
ARM GAS  C:\Users\IVYLIU~1\AppData\Local\Temp\cc3ADQnL.s 			page 65


 3214 06cd 90060000 		.4byte	.LVL317
 3215 06d1 92060000 		.4byte	.LVL318
 3216 06d5 0100     		.2byte	0x1
 3217 06d7 50       		.byte	0x50
 3218 06d8 92060000 		.4byte	.LVL318
 3219 06dc 02070000 		.4byte	.LVL350
 3220 06e0 0100     		.2byte	0x1
 3221 06e2 58       		.byte	0x58
 3222 06e3 4C080000 		.4byte	.LVL391
 3223 06e7 52080000 		.4byte	.LVL392
 3224 06eb 0100     		.2byte	0x1
 3225 06ed 56       		.byte	0x56
 3226 06ee 00000000 		.4byte	0
 3227 06f2 00000000 		.4byte	0
 3228              	.LLST24:
 3229 06f6 EC000000 		.4byte	.LVL32
 3230 06fa EE000000 		.4byte	.LVL33
 3231 06fe 0100     		.2byte	0x1
 3232 0700 50       		.byte	0x50
 3233 0701 EE000000 		.4byte	.LVL33
 3234 0705 72020000 		.4byte	.LVL115
 3235 0709 0300     		.2byte	0x3
 3236 070b 91       		.byte	0x91
 3237 070c F87E     		.sleb128 -136
 3238 070e 72020000 		.4byte	.LVL115
 3239 0712 74020000 		.4byte	.LVL116
 3240 0716 0100     		.2byte	0x1
 3241 0718 50       		.byte	0x50
 3242 0719 74020000 		.4byte	.LVL116
 3243 071d 3A030000 		.4byte	.LVL143
 3244 0721 0300     		.2byte	0x3
 3245 0723 91       		.byte	0x91
 3246 0724 F07E     		.sleb128 -144
 3247 0726 42040000 		.4byte	.LVL196
 3248 072a 44040000 		.4byte	.LVL197
 3249 072e 0100     		.2byte	0x1
 3250 0730 50       		.byte	0x50
 3251 0731 44040000 		.4byte	.LVL197
 3252 0735 86060000 		.4byte	.LVL314
 3253 0739 0300     		.2byte	0x3
 3254 073b 91       		.byte	0x91
 3255 073c B47F     		.sleb128 -76
 3256 073e 86060000 		.4byte	.LVL314
 3257 0742 88060000 		.4byte	.LVL315
 3258 0746 0100     		.2byte	0x1
 3259 0748 50       		.byte	0x50
 3260 0749 88060000 		.4byte	.LVL315
 3261 074d 0C070000 		.4byte	.LVL353
 3262 0751 0100     		.2byte	0x1
 3263 0753 56       		.byte	0x56
 3264 0754 4C080000 		.4byte	.LVL391
 3265 0758 52080000 		.4byte	.LVL392
 3266 075c 0300     		.2byte	0x3
 3267 075e 91       		.byte	0x91
 3268 075f F07E     		.sleb128 -144
 3269 0761 52080000 		.4byte	.LVL392
 3270 0765 58080000 		.4byte	.LFE84
ARM GAS  C:\Users\IVYLIU~1\AppData\Local\Temp\cc3ADQnL.s 			page 66


 3271 0769 0300     		.2byte	0x3
 3272 076b 7D       		.byte	0x7d
 3273 076c F07E     		.sleb128 -144
 3274 076e 00000000 		.4byte	0
 3275 0772 00000000 		.4byte	0
 3276              	.LLST25:
 3277 0776 F6000000 		.4byte	.LVL35
 3278 077a F8000000 		.4byte	.LVL36
 3279 077e 0100     		.2byte	0x1
 3280 0780 50       		.byte	0x50
 3281 0781 F8000000 		.4byte	.LVL36
 3282 0785 5E020000 		.4byte	.LVL109
 3283 0789 0300     		.2byte	0x3
 3284 078b 91       		.byte	0x91
 3285 078c FC7E     		.sleb128 -132
 3286 078e 5E020000 		.4byte	.LVL109
 3287 0792 60020000 		.4byte	.LVL110
 3288 0796 0100     		.2byte	0x1
 3289 0798 50       		.byte	0x50
 3290 0799 60020000 		.4byte	.LVL110
 3291 079d 3A030000 		.4byte	.LVL143
 3292 07a1 0100     		.2byte	0x1
 3293 07a3 59       		.byte	0x59
 3294 07a4 4C040000 		.4byte	.LVL199
 3295 07a8 4E040000 		.4byte	.LVL200
 3296 07ac 0100     		.2byte	0x1
 3297 07ae 50       		.byte	0x50
 3298 07af 4E040000 		.4byte	.LVL200
 3299 07b3 3E050000 		.4byte	.LVL256
 3300 07b7 0100     		.2byte	0x1
 3301 07b9 59       		.byte	0x59
 3302 07ba 3E050000 		.4byte	.LVL256
 3303 07be 40050000 		.4byte	.LVL257
 3304 07c2 0100     		.2byte	0x1
 3305 07c4 50       		.byte	0x50
 3306 07c5 40050000 		.4byte	.LVL257
 3307 07c9 72060000 		.4byte	.LVL308
 3308 07cd 0100     		.2byte	0x1
 3309 07cf 58       		.byte	0x58
 3310 07d0 72060000 		.4byte	.LVL308
 3311 07d4 74060000 		.4byte	.LVL309
 3312 07d8 0100     		.2byte	0x1
 3313 07da 50       		.byte	0x50
 3314 07db 74060000 		.4byte	.LVL309
 3315 07df E4060000 		.4byte	.LVL341
 3316 07e3 0300     		.2byte	0x3
 3317 07e5 91       		.byte	0x91
 3318 07e6 AC7F     		.sleb128 -84
 3319 07e8 E4060000 		.4byte	.LVL341
 3320 07ec E6060000 		.4byte	.LVL342
 3321 07f0 0100     		.2byte	0x1
 3322 07f2 50       		.byte	0x50
 3323 07f3 E6060000 		.4byte	.LVL342
 3324 07f7 4C080000 		.4byte	.LVL391
 3325 07fb 0300     		.2byte	0x3
 3326 07fd 91       		.byte	0x91
 3327 07fe A87F     		.sleb128 -88
ARM GAS  C:\Users\IVYLIU~1\AppData\Local\Temp\cc3ADQnL.s 			page 67


 3328 0800 4C080000 		.4byte	.LVL391
 3329 0804 52080000 		.4byte	.LVL392
 3330 0808 0100     		.2byte	0x1
 3331 080a 59       		.byte	0x59
 3332 080b 00000000 		.4byte	0
 3333 080f 00000000 		.4byte	0
 3334              	.LLST26:
 3335 0813 AA010000 		.4byte	.LVL75
 3336 0817 AC010000 		.4byte	.LVL76
 3337 081b 0100     		.2byte	0x1
 3338 081d 50       		.byte	0x50
 3339 081e AC010000 		.4byte	.LVL76
 3340 0822 34020000 		.4byte	.LVL98
 3341 0826 0100     		.2byte	0x1
 3342 0828 55       		.byte	0x55
 3343 0829 86020000 		.4byte	.LVL121
 3344 082d 88020000 		.4byte	.LVL122
 3345 0831 0100     		.2byte	0x1
 3346 0833 50       		.byte	0x50
 3347 0834 88020000 		.4byte	.LVL122
 3348 0838 3A030000 		.4byte	.LVL143
 3349 083c 0100     		.2byte	0x1
 3350 083e 55       		.byte	0x55
 3351 083f 0C050000 		.4byte	.LVL241
 3352 0843 0E050000 		.4byte	.LVL242
 3353 0847 0100     		.2byte	0x1
 3354 0849 50       		.byte	0x50
 3355 084a 0E050000 		.4byte	.LVL242
 3356 084e 66050000 		.4byte	.LVL266
 3357 0852 0100     		.2byte	0x1
 3358 0854 55       		.byte	0x55
 3359 0855 66050000 		.4byte	.LVL266
 3360 0859 68050000 		.4byte	.LVL267
 3361 085d 0100     		.2byte	0x1
 3362 085f 50       		.byte	0x50
 3363 0860 68050000 		.4byte	.LVL267
 3364 0864 68060000 		.4byte	.LVL305
 3365 0868 0100     		.2byte	0x1
 3366 086a 55       		.byte	0x55
 3367 086b 9A060000 		.4byte	.LVL320
 3368 086f 9C060000 		.4byte	.LVL321
 3369 0873 0100     		.2byte	0x1
 3370 0875 50       		.byte	0x50
 3371 0876 9C060000 		.4byte	.LVL321
 3372 087a 0C070000 		.4byte	.LVL353
 3373 087e 0100     		.2byte	0x1
 3374 0880 57       		.byte	0x57
 3375 0881 0C070000 		.4byte	.LVL353
 3376 0885 0E070000 		.4byte	.LVL354
 3377 0889 0100     		.2byte	0x1
 3378 088b 50       		.byte	0x50
 3379 088c 0E070000 		.4byte	.LVL354
 3380 0890 4C080000 		.4byte	.LVL391
 3381 0894 0100     		.2byte	0x1
 3382 0896 56       		.byte	0x56
 3383 0897 4C080000 		.4byte	.LVL391
 3384 089b 52080000 		.4byte	.LVL392
ARM GAS  C:\Users\IVYLIU~1\AppData\Local\Temp\cc3ADQnL.s 			page 68


 3385 089f 0100     		.2byte	0x1
 3386 08a1 55       		.byte	0x55
 3387 08a2 00000000 		.4byte	0
 3388 08a6 00000000 		.4byte	0
 3389              	.LLST27:
 3390 08aa 94040000 		.4byte	.LVL217
 3391 08ae 96040000 		.4byte	.LVL218
 3392 08b2 0100     		.2byte	0x1
 3393 08b4 50       		.byte	0x50
 3394 08b5 96040000 		.4byte	.LVL218
 3395 08b9 16050000 		.4byte	.LVL244
 3396 08bd 0100     		.2byte	0x1
 3397 08bf 58       		.byte	0x58
 3398 08c0 16050000 		.4byte	.LVL244
 3399 08c4 18050000 		.4byte	.LVL245
 3400 08c8 0100     		.2byte	0x1
 3401 08ca 50       		.byte	0x50
 3402 08cb 18050000 		.4byte	.LVL245
 3403 08cf 54050000 		.4byte	.LVL260
 3404 08d3 0100     		.2byte	0x1
 3405 08d5 57       		.byte	0x57
 3406 08d6 5E050000 		.4byte	.LVL263
 3407 08da 60050000 		.4byte	.LVL264
 3408 08de 0100     		.2byte	0x1
 3409 08e0 50       		.byte	0x50
 3410 08e1 60050000 		.4byte	.LVL264
 3411 08e5 D2050000 		.4byte	.LVL280
 3412 08e9 0100     		.2byte	0x1
 3413 08eb 56       		.byte	0x56
 3414 08ec 58060000 		.4byte	.LVL301
 3415 08f0 5A060000 		.4byte	.LVL302
 3416 08f4 0100     		.2byte	0x1
 3417 08f6 50       		.byte	0x50
 3418 08f7 5A060000 		.4byte	.LVL302
 3419 08fb A4060000 		.4byte	.LVL323
 3420 08ff 0100     		.2byte	0x1
 3421 0901 59       		.byte	0x59
 3422 0902 EE060000 		.4byte	.LVL344
 3423 0906 F0060000 		.4byte	.LVL345
 3424 090a 0100     		.2byte	0x1
 3425 090c 50       		.byte	0x50
 3426 090d F0060000 		.4byte	.LVL345
 3427 0911 4C080000 		.4byte	.LVL391
 3428 0915 0300     		.2byte	0x3
 3429 0917 91       		.byte	0x91
 3430 0918 AC7F     		.sleb128 -84
 3431 091a 00000000 		.4byte	0
 3432 091e 00000000 		.4byte	0
 3433              	.LLST28:
 3434 0922 B4040000 		.4byte	.LVL223
 3435 0926 B6040000 		.4byte	.LVL224
 3436 092a 0100     		.2byte	0x1
 3437 092c 50       		.byte	0x50
 3438 092d B6040000 		.4byte	.LVL224
 3439 0931 2A050000 		.4byte	.LVL250
 3440 0935 0100     		.2byte	0x1
 3441 0937 56       		.byte	0x56
ARM GAS  C:\Users\IVYLIU~1\AppData\Local\Temp\cc3ADQnL.s 			page 69


 3442 0938 2A050000 		.4byte	.LVL250
 3443 093c 2C050000 		.4byte	.LVL251
 3444 0940 0100     		.2byte	0x1
 3445 0942 50       		.byte	0x50
 3446 0943 2C050000 		.4byte	.LVL251
 3447 0947 54050000 		.4byte	.LVL260
 3448 094b 0100     		.2byte	0x1
 3449 094d 56       		.byte	0x56
 3450 094e 54050000 		.4byte	.LVL260
 3451 0952 56050000 		.4byte	.LVL261
 3452 0956 0100     		.2byte	0x1
 3453 0958 50       		.byte	0x50
 3454 0959 56050000 		.4byte	.LVL261
 3455 095d 92050000 		.4byte	.LVL272
 3456 0961 0100     		.2byte	0x1
 3457 0963 57       		.byte	0x57
 3458 0964 00000000 		.4byte	0
 3459 0968 00000000 		.4byte	0
 3460              	.LLST29:
 3461 096c 78010000 		.4byte	.LVL63
 3462 0970 7A010000 		.4byte	.LVL64
 3463 0974 0100     		.2byte	0x1
 3464 0976 50       		.byte	0x50
 3465 0977 7A010000 		.4byte	.LVL64
 3466 097b BE010000 		.4byte	.LVL81
 3467 097f 0100     		.2byte	0x1
 3468 0981 56       		.byte	0x56
 3469 0982 BE010000 		.4byte	.LVL81
 3470 0986 C0010000 		.4byte	.LVL82
 3471 098a 0100     		.2byte	0x1
 3472 098c 50       		.byte	0x50
 3473 098d C0010000 		.4byte	.LVL82
 3474 0991 24020000 		.4byte	.LVL94
 3475 0995 0100     		.2byte	0x1
 3476 0997 56       		.byte	0x56
 3477 0998 D4040000 		.4byte	.LVL229
 3478 099c D6040000 		.4byte	.LVL230
 3479 09a0 0100     		.2byte	0x1
 3480 09a2 50       		.byte	0x50
 3481 09a3 D6040000 		.4byte	.LVL230
 3482 09a7 16050000 		.4byte	.LVL244
 3483 09ab 0100     		.2byte	0x1
 3484 09ad 57       		.byte	0x57
 3485 09ae 20050000 		.4byte	.LVL247
 3486 09b2 22050000 		.4byte	.LVL248
 3487 09b6 0100     		.2byte	0x1
 3488 09b8 50       		.byte	0x50
 3489 09b9 22050000 		.4byte	.LVL248
 3490 09bd 3E050000 		.4byte	.LVL256
 3491 09c1 0100     		.2byte	0x1
 3492 09c3 58       		.byte	0x58
 3493 09c4 00000000 		.4byte	0
 3494 09c8 00000000 		.4byte	0
 3495              	.LLST30:
 3496 09cc F6040000 		.4byte	.LVL235
 3497 09d0 FA040000 		.4byte	.LVL236
 3498 09d4 0100     		.2byte	0x1
ARM GAS  C:\Users\IVYLIU~1\AppData\Local\Temp\cc3ADQnL.s 			page 70


 3499 09d6 50       		.byte	0x50
 3500 09d7 FA040000 		.4byte	.LVL236
 3501 09db 34050000 		.4byte	.LVL253
 3502 09df 0100     		.2byte	0x1
 3503 09e1 54       		.byte	0x54
 3504 09e2 00000000 		.4byte	0
 3505 09e6 00000000 		.4byte	0
 3506              	.LLST31:
 3507 09ea 4E010000 		.4byte	.LVL54
 3508 09ee 52010000 		.4byte	.LVL55
 3509 09f2 0100     		.2byte	0x1
 3510 09f4 50       		.byte	0x50
 3511 09f5 52010000 		.4byte	.LVL55
 3512 09f9 90020000 		.4byte	.LVL124
 3513 09fd 0300     		.2byte	0x3
 3514 09ff 91       		.byte	0x91
 3515 0a00 847F     		.sleb128 -124
 3516 0a02 90020000 		.4byte	.LVL124
 3517 0a06 92020000 		.4byte	.LVL125
 3518 0a0a 0100     		.2byte	0x1
 3519 0a0c 50       		.byte	0x50
 3520 0a0d 92020000 		.4byte	.LVL125
 3521 0a11 3A030000 		.4byte	.LVL143
 3522 0a15 0100     		.2byte	0x1
 3523 0a17 57       		.byte	0x57
 3524 0a18 9E040000 		.4byte	.LVL220
 3525 0a1c A6040000 		.4byte	.LVL221
 3526 0a20 0100     		.2byte	0x1
 3527 0a22 50       		.byte	0x50
 3528 0a23 A6040000 		.4byte	.LVL221
 3529 0a27 A4060000 		.4byte	.LVL323
 3530 0a2b 0200     		.2byte	0x2
 3531 0a2d 91       		.byte	0x91
 3532 0a2e 40       		.sleb128 -64
 3533 0a2f A4060000 		.4byte	.LVL323
 3534 0a33 A6060000 		.4byte	.LVL324
 3535 0a37 0100     		.2byte	0x1
 3536 0a39 50       		.byte	0x50
 3537 0a3a A6060000 		.4byte	.LVL324
 3538 0a3e F8060000 		.4byte	.LVL347
 3539 0a42 0100     		.2byte	0x1
 3540 0a44 59       		.byte	0x59
 3541 0a45 F8060000 		.4byte	.LVL347
 3542 0a49 FA060000 		.4byte	.LVL348
 3543 0a4d 0100     		.2byte	0x1
 3544 0a4f 50       		.byte	0x50
 3545 0a50 FA060000 		.4byte	.LVL348
 3546 0a54 4C080000 		.4byte	.LVL391
 3547 0a58 0100     		.2byte	0x1
 3548 0a5a 59       		.byte	0x59
 3549 0a5b 4C080000 		.4byte	.LVL391
 3550 0a5f 52080000 		.4byte	.LVL392
 3551 0a63 0100     		.2byte	0x1
 3552 0a65 57       		.byte	0x57
 3553 0a66 00000000 		.4byte	0
 3554 0a6a 00000000 		.4byte	0
 3555              	.LLST32:
ARM GAS  C:\Users\IVYLIU~1\AppData\Local\Temp\cc3ADQnL.s 			page 71


 3556 0a6e 64010000 		.4byte	.LVL60
 3557 0a72 6C010000 		.4byte	.LVL61
 3558 0a76 0100     		.2byte	0x1
 3559 0a78 50       		.byte	0x50
 3560 0a79 6C010000 		.4byte	.LVL61
 3561 0a7d 54020000 		.4byte	.LVL106
 3562 0a81 0100     		.2byte	0x1
 3563 0a83 5B       		.byte	0x5b
 3564 0a84 54020000 		.4byte	.LVL106
 3565 0a88 56020000 		.4byte	.LVL107
 3566 0a8c 0100     		.2byte	0x1
 3567 0a8e 50       		.byte	0x50
 3568 0a8f 56020000 		.4byte	.LVL107
 3569 0a93 A2020000 		.4byte	.LVL130
 3570 0a97 0100     		.2byte	0x1
 3571 0a99 5B       		.byte	0x5b
 3572 0a9a BE040000 		.4byte	.LVL226
 3573 0a9e C6040000 		.4byte	.LVL227
 3574 0aa2 0100     		.2byte	0x1
 3575 0aa4 50       		.byte	0x50
 3576 0aa5 C6040000 		.4byte	.LVL227
 3577 0aa9 68060000 		.4byte	.LVL305
 3578 0aad 0200     		.2byte	0x2
 3579 0aaf 91       		.byte	0x91
 3580 0ab0 44       		.sleb128 -60
 3581 0ab1 68060000 		.4byte	.LVL305
 3582 0ab5 6A060000 		.4byte	.LVL306
 3583 0ab9 0100     		.2byte	0x1
 3584 0abb 50       		.byte	0x50
 3585 0abc 6A060000 		.4byte	.LVL306
 3586 0ac0 C4060000 		.4byte	.LVL332
 3587 0ac4 0100     		.2byte	0x1
 3588 0ac6 55       		.byte	0x55
 3589 0ac7 02070000 		.4byte	.LVL350
 3590 0acb 04070000 		.4byte	.LVL351
 3591 0acf 0100     		.2byte	0x1
 3592 0ad1 50       		.byte	0x50
 3593 0ad2 04070000 		.4byte	.LVL351
 3594 0ad6 4C080000 		.4byte	.LVL391
 3595 0ada 0100     		.2byte	0x1
 3596 0adc 58       		.byte	0x58
 3597 0add 00000000 		.4byte	0
 3598 0ae1 00000000 		.4byte	0
 3599              	.LLST33:
 3600 0ae5 82010000 		.4byte	.LVL66
 3601 0ae9 8A010000 		.4byte	.LVL67
 3602 0aed 0100     		.2byte	0x1
 3603 0aef 50       		.byte	0x50
 3604 0af0 8A010000 		.4byte	.LVL67
 3605 0af4 A2020000 		.4byte	.LVL130
 3606 0af8 0300     		.2byte	0x3
 3607 0afa 91       		.byte	0x91
 3608 0afb 8C7F     		.sleb128 -116
 3609 0afd A2020000 		.4byte	.LVL130
 3610 0b01 A4020000 		.4byte	.LVL131
 3611 0b05 0100     		.2byte	0x1
 3612 0b07 50       		.byte	0x50
ARM GAS  C:\Users\IVYLIU~1\AppData\Local\Temp\cc3ADQnL.s 			page 72


 3613 0b08 A4020000 		.4byte	.LVL131
 3614 0b0c 3A030000 		.4byte	.LVL143
 3615 0b10 0100     		.2byte	0x1
 3616 0b12 5B       		.byte	0x5b
 3617 0b13 DE040000 		.4byte	.LVL232
 3618 0b17 E6040000 		.4byte	.LVL233
 3619 0b1b 0100     		.2byte	0x1
 3620 0b1d 50       		.byte	0x50
 3621 0b1e E6040000 		.4byte	.LVL233
 3622 0b22 B6060000 		.4byte	.LVL329
 3623 0b26 0200     		.2byte	0x2
 3624 0b28 91       		.byte	0x91
 3625 0b29 48       		.sleb128 -56
 3626 0b2a B6060000 		.4byte	.LVL329
 3627 0b2e B8060000 		.4byte	.LVL330
 3628 0b32 0100     		.2byte	0x1
 3629 0b34 50       		.byte	0x50
 3630 0b35 B8060000 		.4byte	.LVL330
 3631 0b39 BF060000 		.4byte	.LVL331-1
 3632 0b3d 0100     		.2byte	0x1
 3633 0b3f 52       		.byte	0x52
 3634 0b40 4C080000 		.4byte	.LVL391
 3635 0b44 52080000 		.4byte	.LVL392
 3636 0b48 0100     		.2byte	0x1
 3637 0b4a 5B       		.byte	0x5b
 3638 0b4b 00000000 		.4byte	0
 3639 0b4f 00000000 		.4byte	0
 3640              	.LLST34:
 3641 0b53 A0010000 		.4byte	.LVL72
 3642 0b57 A2010000 		.4byte	.LVL73
 3643 0b5b 0100     		.2byte	0x1
 3644 0b5d 50       		.byte	0x50
 3645 0b5e A2010000 		.4byte	.LVL73
 3646 0b62 9A020000 		.4byte	.LVL127
 3647 0b66 0100     		.2byte	0x1
 3648 0b68 58       		.byte	0x58
 3649 0b69 9A020000 		.4byte	.LVL127
 3650 0b6d 9C020000 		.4byte	.LVL128
 3651 0b71 0100     		.2byte	0x1
 3652 0b73 50       		.byte	0x50
 3653 0b74 9C020000 		.4byte	.LVL128
 3654 0b78 3A030000 		.4byte	.LVL143
 3655 0b7c 0100     		.2byte	0x1
 3656 0b7e 58       		.byte	0x58
 3657 0b7f 02050000 		.4byte	.LVL238
 3658 0b83 04050000 		.4byte	.LVL239
 3659 0b87 0100     		.2byte	0x1
 3660 0b89 50       		.byte	0x50
 3661 0b8a 04050000 		.4byte	.LVL239
 3662 0b8e AE060000 		.4byte	.LVL326
 3663 0b92 0200     		.2byte	0x2
 3664 0b94 91       		.byte	0x91
 3665 0b95 4C       		.sleb128 -52
 3666 0b96 AE060000 		.4byte	.LVL326
 3667 0b9a B0060000 		.4byte	.LVL327
 3668 0b9e 0100     		.2byte	0x1
 3669 0ba0 50       		.byte	0x50
ARM GAS  C:\Users\IVYLIU~1\AppData\Local\Temp\cc3ADQnL.s 			page 73


 3670 0ba1 B0060000 		.4byte	.LVL327
 3671 0ba5 E4060000 		.4byte	.LVL341
 3672 0ba9 0300     		.2byte	0x3
 3673 0bab 91       		.byte	0x91
 3674 0bac A87F     		.sleb128 -88
 3675 0bae 4C080000 		.4byte	.LVL391
 3676 0bb2 52080000 		.4byte	.LVL392
 3677 0bb6 0100     		.2byte	0x1
 3678 0bb8 58       		.byte	0x58
 3679 0bb9 00000000 		.4byte	0
 3680 0bbd 00000000 		.4byte	0
 3681              	.LLST35:
 3682 0bc1 66050000 		.4byte	.LVL266
 3683 0bc5 A8050000 		.4byte	.LVL275
 3684 0bc9 0E00     		.2byte	0xe
 3685 0bcb 91       		.byte	0x91
 3686 0bcc F87E     		.sleb128 -136
 3687 0bce F6       		.byte	0xf6
 3688 0bcf 04       		.byte	0x4
 3689 0bd0 25       		.uleb128 0x25
 3690 0bd1 91       		.byte	0x91
 3691 0bd2 BC7F     		.sleb128 -68
 3692 0bd4 F6       		.byte	0xf6
 3693 0bd5 04       		.byte	0x4
 3694 0bd6 25       		.uleb128 0x25
 3695 0bd7 1E       		.byte	0x1e
 3696 0bd8 9F       		.byte	0x9f
 3697 0bd9 A8050000 		.4byte	.LVL275
 3698 0bdd E8050000 		.4byte	.LVL283
 3699 0be1 0B00     		.2byte	0xb
 3700 0be3 91       		.byte	0x91
 3701 0be4 F07E     		.sleb128 -144
 3702 0be6 F6       		.byte	0xf6
 3703 0be7 04       		.byte	0x4
 3704 0be8 25       		.uleb128 0x25
 3705 0be9 F5       		.byte	0xf5
 3706 0bea 04       		.uleb128 0x4
 3707 0beb 25       		.uleb128 0x25
 3708 0bec 1E       		.byte	0x1e
 3709 0bed 9F       		.byte	0x9f
 3710 0bee E8050000 		.4byte	.LVL283
 3711 0bf2 90060000 		.4byte	.LVL317
 3712 0bf6 0B00     		.2byte	0xb
 3713 0bf8 91       		.byte	0x91
 3714 0bf9 807F     		.sleb128 -128
 3715 0bfb F6       		.byte	0xf6
 3716 0bfc 04       		.byte	0x4
 3717 0bfd 25       		.uleb128 0x25
 3718 0bfe F5       		.byte	0xf5
 3719 0bff 08       		.uleb128 0x8
 3720 0c00 25       		.uleb128 0x25
 3721 0c01 1E       		.byte	0x1e
 3722 0c02 9F       		.byte	0x9f
 3723 0c03 0C070000 		.4byte	.LVL353
 3724 0c07 4C070000 		.4byte	.LVL361
 3725 0c0b 0B00     		.2byte	0xb
 3726 0c0d 91       		.byte	0x91
ARM GAS  C:\Users\IVYLIU~1\AppData\Local\Temp\cc3ADQnL.s 			page 74


 3727 0c0e EC7E     		.sleb128 -148
 3728 0c10 F6       		.byte	0xf6
 3729 0c11 04       		.byte	0x4
 3730 0c12 25       		.uleb128 0x25
 3731 0c13 F5       		.byte	0xf5
 3732 0c14 05       		.uleb128 0x5
 3733 0c15 25       		.uleb128 0x25
 3734 0c16 1E       		.byte	0x1e
 3735 0c17 9F       		.byte	0x9f
 3736 0c18 4C070000 		.4byte	.LVL361
 3737 0c1c 8C070000 		.4byte	.LVL369
 3738 0c20 0B00     		.2byte	0xb
 3739 0c22 91       		.byte	0x91
 3740 0c23 847F     		.sleb128 -124
 3741 0c25 F6       		.byte	0xf6
 3742 0c26 04       		.byte	0x4
 3743 0c27 25       		.uleb128 0x25
 3744 0c28 F5       		.byte	0xf5
 3745 0c29 04       		.uleb128 0x4
 3746 0c2a 25       		.uleb128 0x25
 3747 0c2b 1E       		.byte	0x1e
 3748 0c2c 9F       		.byte	0x9f
 3749 0c2d 8C070000 		.4byte	.LVL369
 3750 0c31 CC070000 		.4byte	.LVL377
 3751 0c35 0E00     		.2byte	0xe
 3752 0c37 91       		.byte	0x91
 3753 0c38 FC7E     		.sleb128 -132
 3754 0c3a F6       		.byte	0xf6
 3755 0c3b 04       		.byte	0x4
 3756 0c3c 25       		.uleb128 0x25
 3757 0c3d 91       		.byte	0x91
 3758 0c3e B07F     		.sleb128 -80
 3759 0c40 F6       		.byte	0xf6
 3760 0c41 04       		.byte	0x4
 3761 0c42 25       		.uleb128 0x25
 3762 0c43 1E       		.byte	0x1e
 3763 0c44 9F       		.byte	0x9f
 3764 0c45 CC070000 		.4byte	.LVL377
 3765 0c49 4C080000 		.4byte	.LVL391
 3766 0c4d 0E00     		.2byte	0xe
 3767 0c4f 91       		.byte	0x91
 3768 0c50 F47E     		.sleb128 -140
 3769 0c52 F6       		.byte	0xf6
 3770 0c53 04       		.byte	0x4
 3771 0c54 25       		.uleb128 0x25
 3772 0c55 91       		.byte	0x91
 3773 0c56 A87F     		.sleb128 -88
 3774 0c58 F6       		.byte	0xf6
 3775 0c59 04       		.byte	0x4
 3776 0c5a 25       		.uleb128 0x25
 3777 0c5b 1E       		.byte	0x1e
 3778 0c5c 9F       		.byte	0x9f
 3779 0c5d 00000000 		.4byte	0
 3780 0c61 00000000 		.4byte	0
 3781              	.LLST36:
 3782 0c65 66050000 		.4byte	.LVL266
 3783 0c69 92050000 		.4byte	.LVL272
ARM GAS  C:\Users\IVYLIU~1\AppData\Local\Temp\cc3ADQnL.s 			page 75


 3784 0c6d 0B00     		.2byte	0xb
 3785 0c6f 91       		.byte	0x91
 3786 0c70 947F     		.sleb128 -108
 3787 0c72 F6       		.byte	0xf6
 3788 0c73 04       		.byte	0x4
 3789 0c74 25       		.uleb128 0x25
 3790 0c75 F5       		.byte	0xf5
 3791 0c76 07       		.uleb128 0x7
 3792 0c77 25       		.uleb128 0x25
 3793 0c78 1E       		.byte	0x1e
 3794 0c79 9F       		.byte	0x9f
 3795 0c7a A8050000 		.4byte	.LVL275
 3796 0c7e D2050000 		.4byte	.LVL280
 3797 0c82 0B00     		.2byte	0xb
 3798 0c84 91       		.byte	0x91
 3799 0c85 8C7F     		.sleb128 -116
 3800 0c87 F6       		.byte	0xf6
 3801 0c88 04       		.byte	0x4
 3802 0c89 25       		.uleb128 0x25
 3803 0c8a F5       		.byte	0xf5
 3804 0c8b 06       		.uleb128 0x6
 3805 0c8c 25       		.uleb128 0x25
 3806 0c8d 1E       		.byte	0x1e
 3807 0c8e 9F       		.byte	0x9f
 3808 0c8f E8050000 		.4byte	.LVL283
 3809 0c93 68060000 		.4byte	.LVL305
 3810 0c97 0B00     		.2byte	0xb
 3811 0c99 91       		.byte	0x91
 3812 0c9a 9C7F     		.sleb128 -100
 3813 0c9c F6       		.byte	0xf6
 3814 0c9d 04       		.byte	0x4
 3815 0c9e 25       		.uleb128 0x25
 3816 0c9f F5       		.byte	0xf5
 3817 0ca0 05       		.uleb128 0x5
 3818 0ca1 25       		.uleb128 0x25
 3819 0ca2 1E       		.byte	0x1e
 3820 0ca3 9F       		.byte	0x9f
 3821 0ca4 0C070000 		.4byte	.LVL353
 3822 0ca8 4C070000 		.4byte	.LVL361
 3823 0cac 0E00     		.2byte	0xe
 3824 0cae 91       		.byte	0x91
 3825 0caf 887F     		.sleb128 -120
 3826 0cb1 F6       		.byte	0xf6
 3827 0cb2 04       		.byte	0x4
 3828 0cb3 25       		.uleb128 0x25
 3829 0cb4 91       		.byte	0x91
 3830 0cb5 AC7F     		.sleb128 -84
 3831 0cb7 F6       		.byte	0xf6
 3832 0cb8 04       		.byte	0x4
 3833 0cb9 25       		.uleb128 0x25
 3834 0cba 1E       		.byte	0x1e
 3835 0cbb 9F       		.byte	0x9f
 3836 0cbc 4C070000 		.4byte	.LVL361
 3837 0cc0 8C070000 		.4byte	.LVL369
 3838 0cc4 0B00     		.2byte	0xb
 3839 0cc6 91       		.byte	0x91
 3840 0cc7 A07F     		.sleb128 -96
ARM GAS  C:\Users\IVYLIU~1\AppData\Local\Temp\cc3ADQnL.s 			page 76


 3841 0cc9 F6       		.byte	0xf6
 3842 0cca 04       		.byte	0x4
 3843 0ccb 25       		.uleb128 0x25
 3844 0ccc F5       		.byte	0xf5
 3845 0ccd 09       		.uleb128 0x9
 3846 0cce 25       		.uleb128 0x25
 3847 0ccf 1E       		.byte	0x1e
 3848 0cd0 9F       		.byte	0x9f
 3849 0cd1 8C070000 		.4byte	.LVL369
 3850 0cd5 CC070000 		.4byte	.LVL377
 3851 0cd9 0B00     		.2byte	0xb
 3852 0cdb 91       		.byte	0x91
 3853 0cdc 987F     		.sleb128 -104
 3854 0cde F6       		.byte	0xf6
 3855 0cdf 04       		.byte	0x4
 3856 0ce0 25       		.uleb128 0x25
 3857 0ce1 F5       		.byte	0xf5
 3858 0ce2 08       		.uleb128 0x8
 3859 0ce3 25       		.uleb128 0x25
 3860 0ce4 1E       		.byte	0x1e
 3861 0ce5 9F       		.byte	0x9f
 3862 0ce6 CC070000 		.4byte	.LVL377
 3863 0cea 4C080000 		.4byte	.LVL391
 3864 0cee 0B00     		.2byte	0xb
 3865 0cf0 91       		.byte	0x91
 3866 0cf1 907F     		.sleb128 -112
 3867 0cf3 F6       		.byte	0xf6
 3868 0cf4 04       		.byte	0x4
 3869 0cf5 25       		.uleb128 0x25
 3870 0cf6 F5       		.byte	0xf5
 3871 0cf7 06       		.uleb128 0x6
 3872 0cf8 25       		.uleb128 0x25
 3873 0cf9 1E       		.byte	0x1e
 3874 0cfa 9F       		.byte	0x9f
 3875 0cfb 00000000 		.4byte	0
 3876 0cff 00000000 		.4byte	0
 3877              	.LLST37:
 3878 0d03 66050000 		.4byte	.LVL266
 3879 0d07 92050000 		.4byte	.LVL272
 3880 0d0b 0B00     		.2byte	0xb
 3881 0d0d 91       		.byte	0x91
 3882 0d0e F87E     		.sleb128 -136
 3883 0d10 F6       		.byte	0xf6
 3884 0d11 04       		.byte	0x4
 3885 0d12 25       		.uleb128 0x25
 3886 0d13 F5       		.byte	0xf5
 3887 0d14 07       		.uleb128 0x7
 3888 0d15 25       		.uleb128 0x25
 3889 0d16 1E       		.byte	0x1e
 3890 0d17 9F       		.byte	0x9f
 3891 0d18 A8050000 		.4byte	.LVL275
 3892 0d1c D2050000 		.4byte	.LVL280
 3893 0d20 0B00     		.2byte	0xb
 3894 0d22 91       		.byte	0x91
 3895 0d23 F07E     		.sleb128 -144
 3896 0d25 F6       		.byte	0xf6
 3897 0d26 04       		.byte	0x4
ARM GAS  C:\Users\IVYLIU~1\AppData\Local\Temp\cc3ADQnL.s 			page 77


 3898 0d27 25       		.uleb128 0x25
 3899 0d28 F5       		.byte	0xf5
 3900 0d29 06       		.uleb128 0x6
 3901 0d2a 25       		.uleb128 0x25
 3902 0d2b 1E       		.byte	0x1e
 3903 0d2c 9F       		.byte	0x9f
 3904 0d2d E8050000 		.4byte	.LVL283
 3905 0d31 68060000 		.4byte	.LVL305
 3906 0d35 0B00     		.2byte	0xb
 3907 0d37 91       		.byte	0x91
 3908 0d38 807F     		.sleb128 -128
 3909 0d3a F6       		.byte	0xf6
 3910 0d3b 04       		.byte	0x4
 3911 0d3c 25       		.uleb128 0x25
 3912 0d3d F5       		.byte	0xf5
 3913 0d3e 05       		.uleb128 0x5
 3914 0d3f 25       		.uleb128 0x25
 3915 0d40 1E       		.byte	0x1e
 3916 0d41 9F       		.byte	0x9f
 3917 0d42 0C070000 		.4byte	.LVL353
 3918 0d46 4C070000 		.4byte	.LVL361
 3919 0d4a 0E00     		.2byte	0xe
 3920 0d4c 91       		.byte	0x91
 3921 0d4d EC7E     		.sleb128 -148
 3922 0d4f F6       		.byte	0xf6
 3923 0d50 04       		.byte	0x4
 3924 0d51 25       		.uleb128 0x25
 3925 0d52 91       		.byte	0x91
 3926 0d53 AC7F     		.sleb128 -84
 3927 0d55 F6       		.byte	0xf6
 3928 0d56 04       		.byte	0x4
 3929 0d57 25       		.uleb128 0x25
 3930 0d58 1E       		.byte	0x1e
 3931 0d59 9F       		.byte	0x9f
 3932 0d5a 4C070000 		.4byte	.LVL361
 3933 0d5e 8C070000 		.4byte	.LVL369
 3934 0d62 0B00     		.2byte	0xb
 3935 0d64 91       		.byte	0x91
 3936 0d65 847F     		.sleb128 -124
 3937 0d67 F6       		.byte	0xf6
 3938 0d68 04       		.byte	0x4
 3939 0d69 25       		.uleb128 0x25
 3940 0d6a F5       		.byte	0xf5
 3941 0d6b 09       		.uleb128 0x9
 3942 0d6c 25       		.uleb128 0x25
 3943 0d6d 1E       		.byte	0x1e
 3944 0d6e 9F       		.byte	0x9f
 3945 0d6f 8C070000 		.4byte	.LVL369
 3946 0d73 CC070000 		.4byte	.LVL377
 3947 0d77 0B00     		.2byte	0xb
 3948 0d79 91       		.byte	0x91
 3949 0d7a FC7E     		.sleb128 -132
 3950 0d7c F6       		.byte	0xf6
 3951 0d7d 04       		.byte	0x4
 3952 0d7e 25       		.uleb128 0x25
 3953 0d7f F5       		.byte	0xf5
 3954 0d80 08       		.uleb128 0x8
ARM GAS  C:\Users\IVYLIU~1\AppData\Local\Temp\cc3ADQnL.s 			page 78


 3955 0d81 25       		.uleb128 0x25
 3956 0d82 1E       		.byte	0x1e
 3957 0d83 9F       		.byte	0x9f
 3958 0d84 CC070000 		.4byte	.LVL377
 3959 0d88 4C080000 		.4byte	.LVL391
 3960 0d8c 0B00     		.2byte	0xb
 3961 0d8e 91       		.byte	0x91
 3962 0d8f F47E     		.sleb128 -140
 3963 0d91 F6       		.byte	0xf6
 3964 0d92 04       		.byte	0x4
 3965 0d93 25       		.uleb128 0x25
 3966 0d94 F5       		.byte	0xf5
 3967 0d95 06       		.uleb128 0x6
 3968 0d96 25       		.uleb128 0x25
 3969 0d97 1E       		.byte	0x1e
 3970 0d98 9F       		.byte	0x9f
 3971 0d99 00000000 		.4byte	0
 3972 0d9d 00000000 		.4byte	0
 3973              	.LLST38:
 3974 0da1 66050000 		.4byte	.LVL266
 3975 0da5 A8050000 		.4byte	.LVL275
 3976 0da9 0E00     		.2byte	0xe
 3977 0dab 91       		.byte	0x91
 3978 0dac 947F     		.sleb128 -108
 3979 0dae F6       		.byte	0xf6
 3980 0daf 04       		.byte	0x4
 3981 0db0 25       		.uleb128 0x25
 3982 0db1 91       		.byte	0x91
 3983 0db2 BC7F     		.sleb128 -68
 3984 0db4 F6       		.byte	0xf6
 3985 0db5 04       		.byte	0x4
 3986 0db6 25       		.uleb128 0x25
 3987 0db7 1E       		.byte	0x1e
 3988 0db8 9F       		.byte	0x9f
 3989 0db9 A8050000 		.4byte	.LVL275
 3990 0dbd E8050000 		.4byte	.LVL283
 3991 0dc1 0B00     		.2byte	0xb
 3992 0dc3 91       		.byte	0x91
 3993 0dc4 8C7F     		.sleb128 -116
 3994 0dc6 F6       		.byte	0xf6
 3995 0dc7 04       		.byte	0x4
 3996 0dc8 25       		.uleb128 0x25
 3997 0dc9 F5       		.byte	0xf5
 3998 0dca 04       		.uleb128 0x4
 3999 0dcb 25       		.uleb128 0x25
 4000 0dcc 1E       		.byte	0x1e
 4001 0dcd 9F       		.byte	0x9f
 4002 0dce E8050000 		.4byte	.LVL283
 4003 0dd2 90060000 		.4byte	.LVL317
 4004 0dd6 0B00     		.2byte	0xb
 4005 0dd8 91       		.byte	0x91
 4006 0dd9 9C7F     		.sleb128 -100
 4007 0ddb F6       		.byte	0xf6
 4008 0ddc 04       		.byte	0x4
 4009 0ddd 25       		.uleb128 0x25
 4010 0dde F5       		.byte	0xf5
 4011 0ddf 08       		.uleb128 0x8
ARM GAS  C:\Users\IVYLIU~1\AppData\Local\Temp\cc3ADQnL.s 			page 79


 4012 0de0 25       		.uleb128 0x25
 4013 0de1 1E       		.byte	0x1e
 4014 0de2 9F       		.byte	0x9f
 4015 0de3 0C070000 		.4byte	.LVL353
 4016 0de7 4C070000 		.4byte	.LVL361
 4017 0deb 0B00     		.2byte	0xb
 4018 0ded 91       		.byte	0x91
 4019 0dee 887F     		.sleb128 -120
 4020 0df0 F6       		.byte	0xf6
 4021 0df1 04       		.byte	0x4
 4022 0df2 25       		.uleb128 0x25
 4023 0df3 F5       		.byte	0xf5
 4024 0df4 05       		.uleb128 0x5
 4025 0df5 25       		.uleb128 0x25
 4026 0df6 1E       		.byte	0x1e
 4027 0df7 9F       		.byte	0x9f
 4028 0df8 4C070000 		.4byte	.LVL361
 4029 0dfc 8C070000 		.4byte	.LVL369
 4030 0e00 0B00     		.2byte	0xb
 4031 0e02 91       		.byte	0x91
 4032 0e03 A07F     		.sleb128 -96
 4033 0e05 F6       		.byte	0xf6
 4034 0e06 04       		.byte	0x4
 4035 0e07 25       		.uleb128 0x25
 4036 0e08 F5       		.byte	0xf5
 4037 0e09 04       		.uleb128 0x4
 4038 0e0a 25       		.uleb128 0x25
 4039 0e0b 1E       		.byte	0x1e
 4040 0e0c 9F       		.byte	0x9f
 4041 0e0d 8C070000 		.4byte	.LVL369
 4042 0e11 CC070000 		.4byte	.LVL377
 4043 0e15 0E00     		.2byte	0xe
 4044 0e17 91       		.byte	0x91
 4045 0e18 987F     		.sleb128 -104
 4046 0e1a F6       		.byte	0xf6
 4047 0e1b 04       		.byte	0x4
 4048 0e1c 25       		.uleb128 0x25
 4049 0e1d 91       		.byte	0x91
 4050 0e1e B07F     		.sleb128 -80
 4051 0e20 F6       		.byte	0xf6
 4052 0e21 04       		.byte	0x4
 4053 0e22 25       		.uleb128 0x25
 4054 0e23 1E       		.byte	0x1e
 4055 0e24 9F       		.byte	0x9f
 4056 0e25 CC070000 		.4byte	.LVL377
 4057 0e29 4C080000 		.4byte	.LVL391
 4058 0e2d 0E00     		.2byte	0xe
 4059 0e2f 91       		.byte	0x91
 4060 0e30 907F     		.sleb128 -112
 4061 0e32 F6       		.byte	0xf6
 4062 0e33 04       		.byte	0x4
 4063 0e34 25       		.uleb128 0x25
 4064 0e35 91       		.byte	0x91
 4065 0e36 A87F     		.sleb128 -88
 4066 0e38 F6       		.byte	0xf6
 4067 0e39 04       		.byte	0x4
 4068 0e3a 25       		.uleb128 0x25
ARM GAS  C:\Users\IVYLIU~1\AppData\Local\Temp\cc3ADQnL.s 			page 80


 4069 0e3b 1E       		.byte	0x1e
 4070 0e3c 9F       		.byte	0x9f
 4071 0e3d 00000000 		.4byte	0
 4072 0e41 00000000 		.4byte	0
 4073              	.LLST39:
 4074 0e45 42030000 		.4byte	.LVL144
 4075 0e49 44030000 		.4byte	.LVL145
 4076 0e4d 0100     		.2byte	0x1
 4077 0e4f 52       		.byte	0x52
 4078 0e50 44030000 		.4byte	.LVL145
 4079 0e54 4C080000 		.4byte	.LVL391
 4080 0e58 0300     		.2byte	0x3
 4081 0e5a 91       		.byte	0x91
 4082 0e5b EC7E     		.sleb128 -148
 4083 0e5d 00000000 		.4byte	0
 4084 0e61 00000000 		.4byte	0
 4085              	.LLST40:
 4086 0e65 4E030000 		.4byte	.LVL146
 4087 0e69 50030000 		.4byte	.LVL147
 4088 0e6d 0100     		.2byte	0x1
 4089 0e6f 52       		.byte	0x52
 4090 0e70 50030000 		.4byte	.LVL147
 4091 0e74 4C080000 		.4byte	.LVL391
 4092 0e78 0300     		.2byte	0x3
 4093 0e7a 91       		.byte	0x91
 4094 0e7b F07E     		.sleb128 -144
 4095 0e7d 00000000 		.4byte	0
 4096 0e81 00000000 		.4byte	0
 4097              	.LLST41:
 4098 0e85 58030000 		.4byte	.LVL148
 4099 0e89 5A030000 		.4byte	.LVL149
 4100 0e8d 0100     		.2byte	0x1
 4101 0e8f 52       		.byte	0x52
 4102 0e90 5A030000 		.4byte	.LVL149
 4103 0e94 4C080000 		.4byte	.LVL391
 4104 0e98 0300     		.2byte	0x3
 4105 0e9a 91       		.byte	0x91
 4106 0e9b F47E     		.sleb128 -140
 4107 0e9d 00000000 		.4byte	0
 4108 0ea1 00000000 		.4byte	0
 4109              	.LLST42:
 4110 0ea5 60030000 		.4byte	.LVL150
 4111 0ea9 62030000 		.4byte	.LVL151
 4112 0ead 0100     		.2byte	0x1
 4113 0eaf 52       		.byte	0x52
 4114 0eb0 62030000 		.4byte	.LVL151
 4115 0eb4 4C080000 		.4byte	.LVL391
 4116 0eb8 0300     		.2byte	0x3
 4117 0eba 91       		.byte	0x91
 4118 0ebb F87E     		.sleb128 -136
 4119 0ebd 00000000 		.4byte	0
 4120 0ec1 00000000 		.4byte	0
 4121              	.LLST43:
 4122 0ec5 6A030000 		.4byte	.LVL152
 4123 0ec9 6C030000 		.4byte	.LVL153
 4124 0ecd 0100     		.2byte	0x1
 4125 0ecf 52       		.byte	0x52
ARM GAS  C:\Users\IVYLIU~1\AppData\Local\Temp\cc3ADQnL.s 			page 81


 4126 0ed0 6C030000 		.4byte	.LVL153
 4127 0ed4 4C080000 		.4byte	.LVL391
 4128 0ed8 0300     		.2byte	0x3
 4129 0eda 91       		.byte	0x91
 4130 0edb FC7E     		.sleb128 -132
 4131 0edd 00000000 		.4byte	0
 4132 0ee1 00000000 		.4byte	0
 4133              	.LLST44:
 4134 0ee5 74030000 		.4byte	.LVL154
 4135 0ee9 76030000 		.4byte	.LVL155
 4136 0eed 0100     		.2byte	0x1
 4137 0eef 52       		.byte	0x52
 4138 0ef0 76030000 		.4byte	.LVL155
 4139 0ef4 4C080000 		.4byte	.LVL391
 4140 0ef8 0300     		.2byte	0x3
 4141 0efa 91       		.byte	0x91
 4142 0efb 807F     		.sleb128 -128
 4143 0efd 00000000 		.4byte	0
 4144 0f01 00000000 		.4byte	0
 4145              	.LLST45:
 4146 0f05 7E030000 		.4byte	.LVL156
 4147 0f09 82030000 		.4byte	.LVL157
 4148 0f0d 0100     		.2byte	0x1
 4149 0f0f 52       		.byte	0x52
 4150 0f10 82030000 		.4byte	.LVL157
 4151 0f14 4C080000 		.4byte	.LVL391
 4152 0f18 0300     		.2byte	0x3
 4153 0f1a 91       		.byte	0x91
 4154 0f1b 847F     		.sleb128 -124
 4155 0f1d 00000000 		.4byte	0
 4156 0f21 00000000 		.4byte	0
 4157              	.LLST46:
 4158 0f25 88030000 		.4byte	.LVL158
 4159 0f29 8A030000 		.4byte	.LVL159
 4160 0f2d 0100     		.2byte	0x1
 4161 0f2f 54       		.byte	0x54
 4162 0f30 8A030000 		.4byte	.LVL159
 4163 0f34 4C080000 		.4byte	.LVL391
 4164 0f38 0300     		.2byte	0x3
 4165 0f3a 91       		.byte	0x91
 4166 0f3b 887F     		.sleb128 -120
 4167 0f3d 00000000 		.4byte	0
 4168 0f41 00000000 		.4byte	0
 4169              	.LLST47:
 4170 0f45 8E030000 		.4byte	.LVL160
 4171 0f49 90030000 		.4byte	.LVL161
 4172 0f4d 0100     		.2byte	0x1
 4173 0f4f 54       		.byte	0x54
 4174 0f50 90030000 		.4byte	.LVL161
 4175 0f54 4C080000 		.4byte	.LVL391
 4176 0f58 0300     		.2byte	0x3
 4177 0f5a 91       		.byte	0x91
 4178 0f5b 8C7F     		.sleb128 -116
 4179 0f5d 00000000 		.4byte	0
 4180 0f61 00000000 		.4byte	0
 4181              	.LLST48:
 4182 0f65 94030000 		.4byte	.LVL162
ARM GAS  C:\Users\IVYLIU~1\AppData\Local\Temp\cc3ADQnL.s 			page 82


 4183 0f69 96030000 		.4byte	.LVL163
 4184 0f6d 0100     		.2byte	0x1
 4185 0f6f 54       		.byte	0x54
 4186 0f70 96030000 		.4byte	.LVL163
 4187 0f74 4C080000 		.4byte	.LVL391
 4188 0f78 0300     		.2byte	0x3
 4189 0f7a 91       		.byte	0x91
 4190 0f7b 907F     		.sleb128 -112
 4191 0f7d 00000000 		.4byte	0
 4192 0f81 00000000 		.4byte	0
 4193              	.LLST49:
 4194 0f85 9A030000 		.4byte	.LVL164
 4195 0f89 9C030000 		.4byte	.LVL165
 4196 0f8d 0100     		.2byte	0x1
 4197 0f8f 54       		.byte	0x54
 4198 0f90 9C030000 		.4byte	.LVL165
 4199 0f94 4C080000 		.4byte	.LVL391
 4200 0f98 0300     		.2byte	0x3
 4201 0f9a 91       		.byte	0x91
 4202 0f9b 947F     		.sleb128 -108
 4203 0f9d 00000000 		.4byte	0
 4204 0fa1 00000000 		.4byte	0
 4205              	.LLST50:
 4206 0fa5 A0030000 		.4byte	.LVL166
 4207 0fa9 A2030000 		.4byte	.LVL167
 4208 0fad 0100     		.2byte	0x1
 4209 0faf 54       		.byte	0x54
 4210 0fb0 A2030000 		.4byte	.LVL167
 4211 0fb4 4C080000 		.4byte	.LVL391
 4212 0fb8 0300     		.2byte	0x3
 4213 0fba 91       		.byte	0x91
 4214 0fbb 987F     		.sleb128 -104
 4215 0fbd 00000000 		.4byte	0
 4216 0fc1 00000000 		.4byte	0
 4217              	.LLST51:
 4218 0fc5 A8030000 		.4byte	.LVL168
 4219 0fc9 BC030000 		.4byte	.LVL171
 4220 0fcd 0100     		.2byte	0x1
 4221 0fcf 54       		.byte	0x54
 4222 0fd0 BC030000 		.4byte	.LVL171
 4223 0fd4 4C080000 		.4byte	.LVL391
 4224 0fd8 0300     		.2byte	0x3
 4225 0fda 91       		.byte	0x91
 4226 0fdb 9C7F     		.sleb128 -100
 4227 0fdd 00000000 		.4byte	0
 4228 0fe1 00000000 		.4byte	0
 4229              	.LLST52:
 4230 0fe5 AA030000 		.4byte	.LVL169
 4231 0fe9 AE030000 		.4byte	.LVL170
 4232 0fed 0100     		.2byte	0x1
 4233 0fef 52       		.byte	0x52
 4234 0ff0 AE030000 		.4byte	.LVL170
 4235 0ff4 BC030000 		.4byte	.LVL171
 4236 0ff8 0900     		.2byte	0x9
 4237 0ffa 71       		.byte	0x71
 4238 0ffb 00       		.sleb128 0
 4239 0ffc 37       		.byte	0x37
ARM GAS  C:\Users\IVYLIU~1\AppData\Local\Temp\cc3ADQnL.s 			page 83


 4240 0ffd 1E       		.byte	0x1e
 4241 0ffe 7C       		.byte	0x7c
 4242 0fff 00       		.sleb128 0
 4243 1000 22       		.byte	0x22
 4244 1001 23       		.byte	0x23
 4245 1002 04       		.uleb128 0x4
 4246 1003 BC030000 		.4byte	.LVL171
 4247 1007 4C080000 		.4byte	.LVL391
 4248 100b 0300     		.2byte	0x3
 4249 100d 91       		.byte	0x91
 4250 100e A07F     		.sleb128 -96
 4251 1010 00000000 		.4byte	0
 4252 1014 00000000 		.4byte	0
 4253              		.section	.debug_aranges,"",%progbits
 4254 0000 1C000000 		.4byte	0x1c
 4255 0004 0200     		.2byte	0x2
 4256 0006 00000000 		.4byte	.Ldebug_info0
 4257 000a 04       		.byte	0x4
 4258 000b 00       		.byte	0
 4259 000c 0000     		.2byte	0
 4260 000e 0000     		.2byte	0
 4261 0010 00000000 		.4byte	.LFB84
 4262 0014 58080000 		.4byte	.LFE84-.LFB84
 4263 0018 00000000 		.4byte	0
 4264 001c 00000000 		.4byte	0
 4265              		.section	.debug_ranges,"",%progbits
 4266              	.Ldebug_ranges0:
 4267 0000 00000000 		.4byte	.LFB84
 4268 0004 58080000 		.4byte	.LFE84
 4269 0008 00000000 		.4byte	0
 4270 000c 00000000 		.4byte	0
 4271              		.section	.debug_line,"",%progbits
 4272              	.Ldebug_line0:
 4273 0000 9F090000 		.section	.debug_str,"MS",%progbits,1
 4273      02008401 
 4273      00000201 
 4273      FB0E0D00 
 4273      01010101 
 4274              	.LASF23:
 4275 0000 5F5F636F 		.ascii	"__copy_table_t\000"
 4275      70795F74 
 4275      61626C65 
 4275      5F7400
 4276              	.LASF26:
 4277 000f 5F5F7A65 		.ascii	"__zero_table_t\000"
 4277      726F5F74 
 4277      61626C65 
 4277      5F7400
 4278              	.LASF33:
 4279 001e 5C5C766D 		.ascii	"\\\\vmware-host\\Shared Folders\\Documents\\PSoC Cr"
 4279      77617265 
 4279      2D686F73 
 4279      745C5368 
 4279      61726564 
 4280 004c 6561746F 		.ascii	"eator\\FinalProject\\FinalV2.cydsn\000"
 4280      725C4669 
 4280      6E616C50 
ARM GAS  C:\Users\IVYLIU~1\AppData\Local\Temp\cc3ADQnL.s 			page 84


 4280      726F6A65 
 4280      63745C46 
 4281              	.LASF10:
 4282 006d 6C6F6E67 		.ascii	"long long unsigned int\000"
 4282      206C6F6E 
 4282      6720756E 
 4282      7369676E 
 4282      65642069 
 4283              	.LASF25:
 4284 0084 5F5F636F 		.ascii	"__copy_table_end__\000"
 4284      70795F74 
 4284      61626C65 
 4284      5F656E64 
 4284      5F5F00
 4285              	.LASF9:
 4286 0097 6C6F6E67 		.ascii	"long long int\000"
 4286      206C6F6E 
 4286      6720696E 
 4286      7400
 4287              	.LASF1:
 4288 00a5 7369676E 		.ascii	"signed char\000"
 4288      65642063 
 4288      68617200 
 4289              	.LASF27:
 4290 00b1 5F5F7A65 		.ascii	"__zero_table_start__\000"
 4290      726F5F74 
 4290      61626C65 
 4290      5F737461 
 4290      72745F5F 
 4291              	.LASF5:
 4292 00c6 6C6F6E67 		.ascii	"long int\000"
 4292      20696E74 
 4292      00
 4293              	.LASF12:
 4294 00cf 75696E74 		.ascii	"uint16_t\000"
 4294      31365F74 
 4294      00
 4295              	.LASF16:
 4296 00d8 646F7562 		.ascii	"double\000"
 4296      6C6500
 4297              	.LASF7:
 4298 00df 5F5F7569 		.ascii	"__uint32_t\000"
 4298      6E743332 
 4298      5F7400
 4299              	.LASF20:
 4300 00ea 6666744C 		.ascii	"fftLen\000"
 4300      656E00
 4301              	.LASF24:
 4302 00f1 5F5F636F 		.ascii	"__copy_table_start__\000"
 4302      70795F74 
 4302      61626C65 
 4302      5F737461 
 4302      72745F5F 
 4303              	.LASF11:
 4304 0106 756E7369 		.ascii	"unsigned int\000"
 4304      676E6564 
 4304      20696E74 
ARM GAS  C:\Users\IVYLIU~1\AppData\Local\Temp\cc3ADQnL.s 			page 85


 4304      00
 4305              	.LASF19:
 4306 0113 70537263 		.ascii	"pSrc\000"
 4306      00
 4307              	.LASF8:
 4308 0118 6C6F6E67 		.ascii	"long unsigned int\000"
 4308      20756E73 
 4308      69676E65 
 4308      6420696E 
 4308      7400
 4309              	.LASF4:
 4310 012a 73686F72 		.ascii	"short unsigned int\000"
 4310      7420756E 
 4310      7369676E 
 4310      65642069 
 4310      6E7400
 4311              	.LASF3:
 4312 013d 73686F72 		.ascii	"short int\000"
 4312      7420696E 
 4312      7400
 4313              	.LASF14:
 4314 0147 73697A65 		.ascii	"sizetype\000"
 4314      74797065 
 4314      00
 4315              	.LASF17:
 4316 0150 6C6F6E67 		.ascii	"long double\000"
 4316      20646F75 
 4316      626C6500 
 4317              	.LASF29:
 4318 015c 64657374 		.ascii	"dest\000"
 4318      00
 4319              	.LASF0:
 4320 0161 666C6F61 		.ascii	"float\000"
 4320      7400
 4321              	.LASF31:
 4322 0167 474E5520 		.ascii	"GNU C 4.9.3 20150303 (release) [ARM/embedded-4_9-br"
 4322      4320342E 
 4322      392E3320 
 4322      32303135 
 4322      30333033 
 4323 019a 616E6368 		.ascii	"anch revision 221220] -mcpu=cortex-m3 -mthumb -g -O"
 4323      20726576 
 4323      6973696F 
 4323      6E203232 
 4323      31323230 
 4324 01cd 73202D73 		.ascii	"s -std=gnu99 -ffunction-sections -ffat-lto-objects\000"
 4324      74643D67 
 4324      6E753939 
 4324      202D6666 
 4324      756E6374 
 4325              	.LASF2:
 4326 0200 756E7369 		.ascii	"unsigned char\000"
 4326      676E6564 
 4326      20636861 
 4326      7200
 4327              	.LASF30:
 4328 020e 776C656E 		.ascii	"wlen\000"
ARM GAS  C:\Users\IVYLIU~1\AppData\Local\Temp\cc3ADQnL.s 			page 86


 4328      00
 4329              	.LASF32:
 4330 0213 2E5C4453 		.ascii	".\\DSP\\Source\\TransformFunctions\\arm_cfft_radix8"
 4330      505C536F 
 4330      75726365 
 4330      5C547261 
 4330      6E73666F 
 4331 0242 5F663332 		.ascii	"_f32.c\000"
 4331      2E6300
 4332              	.LASF13:
 4333 0249 75696E74 		.ascii	"uint32_t\000"
 4333      33325F74 
 4333      00
 4334              	.LASF15:
 4335 0252 63686172 		.ascii	"char\000"
 4335      00
 4336              	.LASF6:
 4337 0257 5F5F7569 		.ascii	"__uint16_t\000"
 4337      6E743136 
 4337      5F7400
 4338              	.LASF34:
 4339 0262 61726D5F 		.ascii	"arm_radix8_butterfly_f32\000"
 4339      72616469 
 4339      78385F62 
 4339      75747465 
 4339      72666C79 
 4340              	.LASF18:
 4341 027b 666C6F61 		.ascii	"float32_t\000"
 4341      7433325F 
 4341      7400
 4342              	.LASF28:
 4343 0285 5F5F7A65 		.ascii	"__zero_table_end__\000"
 4343      726F5F74 
 4343      61626C65 
 4343      5F656E64 
 4343      5F5F00
 4344              	.LASF21:
 4345 0298 70436F65 		.ascii	"pCoef\000"
 4345      6600
 4346              	.LASF22:
 4347 029e 74776964 		.ascii	"twidCoefModifier\000"
 4347      436F6566 
 4347      4D6F6469 
 4347      66696572 
 4347      00
 4348              		.ident	"GCC: (GNU Tools for ARM Embedded Processors) 4.9.3 20150303 (release) [ARM/embedded-4_9-br
