ARM GAS  C:\Users\IVYLIU~1\AppData\Local\Temp\cc3ADQnL.s 			page 1


   1              		.syntax unified
   2              		.cpu cortex-m3
   3              		.fpu softvfp
   4              		.eabi_attribute 20, 1
   5              		.eabi_attribute 21, 1
   6              		.eabi_attribute 23, 3
   7              		.eabi_attribute 24, 1
   8              		.eabi_attribute 25, 1
   9              		.eabi_attribute 26, 1
  10              		.eabi_attribute 30, 4
  11              		.eabi_attribute 34, 1
  12              		.eabi_attribute 18, 4
  13              		.thumb
  14              		.file	"arm_cfft_radix8_f32.c"
  15              		.text
  16              	.Ltext0:
  17              		.cfi_sections	.debug_frame
  18              		.global	__aeabi_fadd
  19              		.global	__aeabi_fsub
  20              		.global	__aeabi_fmul
  21              		.section	.text.arm_radix8_butterfly_f32,"ax",%progbits
  22              		.align	1
  23              		.global	arm_radix8_butterfly_f32
  24              		.thumb
  25              		.thumb_func
  26              		.type	arm_radix8_butterfly_f32, %function
  27              	arm_radix8_butterfly_f32:
  28              	.LFB84:
  29              		.file 1 ".\\DSP\\Source\\TransformFunctions\\arm_cfft_radix8_f32.c"
   1:.\DSP\Source\TransformFunctions/arm_cfft_radix8_f32.c **** /* ----------------------------------------------------------------------
   2:.\DSP\Source\TransformFunctions/arm_cfft_radix8_f32.c ****  * Project:      CMSIS DSP Library
   3:.\DSP\Source\TransformFunctions/arm_cfft_radix8_f32.c ****  * Title:        arm_cfft_radix8_f32.c
   4:.\DSP\Source\TransformFunctions/arm_cfft_radix8_f32.c ****  * Description:  Radix-8 Decimation in Frequency CFFT & CIFFT Floating point processing function
   5:.\DSP\Source\TransformFunctions/arm_cfft_radix8_f32.c ****  *
   6:.\DSP\Source\TransformFunctions/arm_cfft_radix8_f32.c ****  * $Date:        23 April 2021
   7:.\DSP\Source\TransformFunctions/arm_cfft_radix8_f32.c ****  * $Revision:    V1.9.0
   8:.\DSP\Source\TransformFunctions/arm_cfft_radix8_f32.c ****  *
   9:.\DSP\Source\TransformFunctions/arm_cfft_radix8_f32.c ****  * Target Processor: Cortex-M and Cortex-A cores
  10:.\DSP\Source\TransformFunctions/arm_cfft_radix8_f32.c ****  * -------------------------------------------------------------------- */
  11:.\DSP\Source\TransformFunctions/arm_cfft_radix8_f32.c **** /*
  12:.\DSP\Source\TransformFunctions/arm_cfft_radix8_f32.c ****  * Copyright (C) 2010-2021 ARM Limited or its affiliates. All rights reserved.
  13:.\DSP\Source\TransformFunctions/arm_cfft_radix8_f32.c ****  *
  14:.\DSP\Source\TransformFunctions/arm_cfft_radix8_f32.c ****  * SPDX-License-Identifier: Apache-2.0
  15:.\DSP\Source\TransformFunctions/arm_cfft_radix8_f32.c ****  *
  16:.\DSP\Source\TransformFunctions/arm_cfft_radix8_f32.c ****  * Licensed under the Apache License, Version 2.0 (the License); you may
  17:.\DSP\Source\TransformFunctions/arm_cfft_radix8_f32.c ****  * not use this file except in compliance with the License.
  18:.\DSP\Source\TransformFunctions/arm_cfft_radix8_f32.c ****  * You may obtain a copy of the License at
  19:.\DSP\Source\TransformFunctions/arm_cfft_radix8_f32.c ****  *
  20:.\DSP\Source\TransformFunctions/arm_cfft_radix8_f32.c ****  * www.apache.org/licenses/LICENSE-2.0
  21:.\DSP\Source\TransformFunctions/arm_cfft_radix8_f32.c ****  *
  22:.\DSP\Source\TransformFunctions/arm_cfft_radix8_f32.c ****  * Unless required by applicable law or agreed to in writing, software
  23:.\DSP\Source\TransformFunctions/arm_cfft_radix8_f32.c ****  * distributed under the License is distributed on an AS IS BASIS, WITHOUT
  24:.\DSP\Source\TransformFunctions/arm_cfft_radix8_f32.c ****  * WARRANTIES OR CONDITIONS OF ANY KIND, either express or implied.
  25:.\DSP\Source\TransformFunctions/arm_cfft_radix8_f32.c ****  * See the License for the specific language governing permissions and
  26:.\DSP\Source\TransformFunctions/arm_cfft_radix8_f32.c ****  * limitations under the License.
  27:.\DSP\Source\TransformFunctions/arm_cfft_radix8_f32.c ****  */
  28:.\DSP\Source\TransformFunctions/arm_cfft_radix8_f32.c **** 
ARM GAS  C:\Users\IVYLIU~1\AppData\Local\Temp\cc3ADQnL.s 			page 2


  29:.\DSP\Source\TransformFunctions/arm_cfft_radix8_f32.c **** #include "dsp/transform_functions.h"
  30:.\DSP\Source\TransformFunctions/arm_cfft_radix8_f32.c **** 
  31:.\DSP\Source\TransformFunctions/arm_cfft_radix8_f32.c **** 
  32:.\DSP\Source\TransformFunctions/arm_cfft_radix8_f32.c **** /* ----------------------------------------------------------------------
  33:.\DSP\Source\TransformFunctions/arm_cfft_radix8_f32.c ****  * Internal helper function used by the FFTs
  34:.\DSP\Source\TransformFunctions/arm_cfft_radix8_f32.c ****  * -------------------------------------------------------------------- */
  35:.\DSP\Source\TransformFunctions/arm_cfft_radix8_f32.c **** 
  36:.\DSP\Source\TransformFunctions/arm_cfft_radix8_f32.c **** /**
  37:.\DSP\Source\TransformFunctions/arm_cfft_radix8_f32.c ****   brief         Core function for the floating-point CFFT butterfly process.
  38:.\DSP\Source\TransformFunctions/arm_cfft_radix8_f32.c ****   param[in,out] pSrc             points to the in-place buffer of floating-point data type.
  39:.\DSP\Source\TransformFunctions/arm_cfft_radix8_f32.c ****   param[in]     fftLen           length of the FFT.
  40:.\DSP\Source\TransformFunctions/arm_cfft_radix8_f32.c ****   param[in]     pCoef            points to the twiddle coefficient buffer.
  41:.\DSP\Source\TransformFunctions/arm_cfft_radix8_f32.c ****   param[in]     twidCoefModifier twiddle coefficient modifier that supports different size FFTs wit
  42:.\DSP\Source\TransformFunctions/arm_cfft_radix8_f32.c ****   return        none
  43:.\DSP\Source\TransformFunctions/arm_cfft_radix8_f32.c **** */
  44:.\DSP\Source\TransformFunctions/arm_cfft_radix8_f32.c **** 
  45:.\DSP\Source\TransformFunctions/arm_cfft_radix8_f32.c **** void arm_radix8_butterfly_f32(
  46:.\DSP\Source\TransformFunctions/arm_cfft_radix8_f32.c ****   float32_t * pSrc,
  47:.\DSP\Source\TransformFunctions/arm_cfft_radix8_f32.c ****   uint16_t fftLen,
  48:.\DSP\Source\TransformFunctions/arm_cfft_radix8_f32.c ****   const float32_t * pCoef,
  49:.\DSP\Source\TransformFunctions/arm_cfft_radix8_f32.c ****   uint16_t twidCoefModifier)
  50:.\DSP\Source\TransformFunctions/arm_cfft_radix8_f32.c **** {
  30              		.loc 1 50 0
  31              		.cfi_startproc
  32              		@ args = 0, pretend = 0, frame = 168
  33              		@ frame_needed = 0, uses_anonymous_args = 0
  34              	.LVL0:
  35 0000 2DE9F04F 		push	{r4, r5, r6, r7, r8, r9, r10, fp, lr}
  36              		.cfi_def_cfa_offset 36
  37              		.cfi_offset 4, -36
  38              		.cfi_offset 5, -32
  39              		.cfi_offset 6, -28
  40              		.cfi_offset 7, -24
  41              		.cfi_offset 8, -20
  42              		.cfi_offset 9, -16
  43              		.cfi_offset 10, -12
  44              		.cfi_offset 11, -8
  45              		.cfi_offset 14, -4
  46 0004 ABB0     		sub	sp, sp, #172
  47              		.cfi_def_cfa_offset 208
  48              	.LVL1:
  49              		.loc 1 50 0
  50 0006 0B93     		str	r3, [sp, #44]
  51 0008 9446     		mov	ip, r2
  51:.\DSP\Source\TransformFunctions/arm_cfft_radix8_f32.c ****    uint32_t ia1, ia2, ia3, ia4, ia5, ia6, ia7;
  52:.\DSP\Source\TransformFunctions/arm_cfft_radix8_f32.c ****    uint32_t i1, i2, i3, i4, i5, i6, i7, i8;
  53:.\DSP\Source\TransformFunctions/arm_cfft_radix8_f32.c ****    uint32_t id;
  54:.\DSP\Source\TransformFunctions/arm_cfft_radix8_f32.c ****    uint32_t n1, n2, j;
  55:.\DSP\Source\TransformFunctions/arm_cfft_radix8_f32.c **** 
  56:.\DSP\Source\TransformFunctions/arm_cfft_radix8_f32.c ****    float32_t r1, r2, r3, r4, r5, r6, r7, r8;
  57:.\DSP\Source\TransformFunctions/arm_cfft_radix8_f32.c ****    float32_t t1, t2;
  58:.\DSP\Source\TransformFunctions/arm_cfft_radix8_f32.c ****    float32_t s1, s2, s3, s4, s5, s6, s7, s8;
  59:.\DSP\Source\TransformFunctions/arm_cfft_radix8_f32.c ****    float32_t p1, p2, p3, p4;
  60:.\DSP\Source\TransformFunctions/arm_cfft_radix8_f32.c ****    float32_t co2, co3, co4, co5, co6, co7, co8;
  61:.\DSP\Source\TransformFunctions/arm_cfft_radix8_f32.c ****    float32_t si2, si3, si4, si5, si6, si7, si8;
  62:.\DSP\Source\TransformFunctions/arm_cfft_radix8_f32.c ****    const float32_t C81 = 0.70710678118f;
  63:.\DSP\Source\TransformFunctions/arm_cfft_radix8_f32.c **** 
ARM GAS  C:\Users\IVYLIU~1\AppData\Local\Temp\cc3ADQnL.s 			page 3


  64:.\DSP\Source\TransformFunctions/arm_cfft_radix8_f32.c ****    n2 = fftLen;
  52              		.loc 1 64 0
  53 000a 0B46     		mov	r3, r1
  54              	.LVL2:
  50:.\DSP\Source\TransformFunctions/arm_cfft_radix8_f32.c ****    uint32_t ia1, ia2, ia3, ia4, ia5, ia6, ia7;
  55              		.loc 1 50 0
  56 000c 0D90     		str	r0, [sp, #52]
  57 000e 0E91     		str	r1, [sp, #56]
  58              	.LVL3:
  59              	.L10:
  60              		.loc 1 64 0
  61 0010 0993     		str	r3, [sp, #36]
  62              	.LVL4:
  65:.\DSP\Source\TransformFunctions/arm_cfft_radix8_f32.c **** 
  66:.\DSP\Source\TransformFunctions/arm_cfft_radix8_f32.c ****    do
  67:.\DSP\Source\TransformFunctions/arm_cfft_radix8_f32.c ****    {
  68:.\DSP\Source\TransformFunctions/arm_cfft_radix8_f32.c ****       n1 = n2;
  69:.\DSP\Source\TransformFunctions/arm_cfft_radix8_f32.c ****       n2 = n2 >> 3;
  63              		.loc 1 69 0
  64 0012 099B     		ldr	r3, [sp, #36]
  65 0014 0D99     		ldr	r1, [sp, #52]
  66 0016 DB08     		lsrs	r3, r3, #3
  67              	.LVL5:
  68 0018 0193     		str	r3, [sp, #4]
  69              	.LVL6:
  70 001a 099B     		ldr	r3, [sp, #36]
  71              	.LVL7:
  72 001c 0198     		ldr	r0, [sp, #4]
  73 001e DB00     		lsls	r3, r3, #3
  74 0020 0A93     		str	r3, [sp, #40]
  75 0022 019B     		ldr	r3, [sp, #4]
  76 0024 0C1D     		adds	r4, r1, #4
  77 0026 DA00     		lsls	r2, r3, #3
  78 0028 0D9B     		ldr	r3, [sp, #52]
  79 002a 1821     		movs	r1, #24
  80 002c 1344     		add	r3, r3, r2
  81 002e 9A46     		mov	r10, r3
  82 0030 9A18     		adds	r2, r3, r2
  83 0032 0C92     		str	r2, [sp, #48]
  84 0034 2822     		movs	r2, #40
  85 0036 4243     		muls	r2, r0, r2
  86 0038 0392     		str	r2, [sp, #12]
  87 003a 3022     		movs	r2, #48
  88 003c 4243     		muls	r2, r0, r2
  89 003e 0692     		str	r2, [sp, #24]
  90 0040 3822     		movs	r2, #56
  91 0042 4243     		muls	r2, r0, r2
  92 0044 4143     		muls	r1, r0, r1
  93 0046 0892     		str	r2, [sp, #32]
  94 0048 0C9A     		ldr	r2, [sp, #48]
  95 004a 0291     		str	r1, [sp, #8]
  96 004c A2EBC002 		sub	r2, r2, r0, lsl #3
  97 0050 4101     		lsls	r1, r0, #5
  98 0052 0591     		str	r1, [sp, #20]
  99 0054 1892     		str	r2, [sp, #96]
 100 0056 0101     		lsls	r1, r0, #4
  70:.\DSP\Source\TransformFunctions/arm_cfft_radix8_f32.c ****       i1 = 0;
ARM GAS  C:\Users\IVYLIU~1\AppData\Local\Temp\cc3ADQnL.s 			page 4


 101              		.loc 1 70 0
 102 0058 0022     		movs	r2, #0
 103 005a 0491     		str	r1, [sp, #16]
 104 005c 0792     		str	r2, [sp, #28]
 105              	.LVL8:
 106              	.L2:
 107 005e 1093     		str	r3, [sp, #64]
 108              	.LVL9:
  71:.\DSP\Source\TransformFunctions/arm_cfft_radix8_f32.c **** 
  72:.\DSP\Source\TransformFunctions/arm_cfft_radix8_f32.c ****       do
  73:.\DSP\Source\TransformFunctions/arm_cfft_radix8_f32.c ****       {
  74:.\DSP\Source\TransformFunctions/arm_cfft_radix8_f32.c ****          i2 = i1 + n2;
  75:.\DSP\Source\TransformFunctions/arm_cfft_radix8_f32.c ****          i3 = i2 + n2;
  76:.\DSP\Source\TransformFunctions/arm_cfft_radix8_f32.c ****          i4 = i3 + n2;
  77:.\DSP\Source\TransformFunctions/arm_cfft_radix8_f32.c ****          i5 = i4 + n2;
  78:.\DSP\Source\TransformFunctions/arm_cfft_radix8_f32.c ****          i6 = i5 + n2;
  79:.\DSP\Source\TransformFunctions/arm_cfft_radix8_f32.c ****          i7 = i6 + n2;
  80:.\DSP\Source\TransformFunctions/arm_cfft_radix8_f32.c ****          i8 = i7 + n2;
  81:.\DSP\Source\TransformFunctions/arm_cfft_radix8_f32.c ****          r1 = pSrc[2 * i1] + pSrc[2 * i5];
 109              		.loc 1 81 0 discriminator 1
 110 0060 029B     		ldr	r3, [sp, #8]
 111 0062 54F8046C 		ldr	r6, [r4, #-4]	@ float
 112 0066 5AF80350 		ldr	r5, [r10, r3]	@ float
 113 006a 3046     		mov	r0, r6
 114 006c 2946     		mov	r1, r5
 115 006e CDF868C0 		str	ip, [sp, #104]
 116 0072 FFF7FEFF 		bl	__aeabi_fadd
 117              	.LVL10:
  82:.\DSP\Source\TransformFunctions/arm_cfft_radix8_f32.c ****          r5 = pSrc[2 * i1] - pSrc[2 * i5];
 118              		.loc 1 82 0 discriminator 1
 119 0076 2946     		mov	r1, r5
  81:.\DSP\Source\TransformFunctions/arm_cfft_radix8_f32.c ****          r5 = pSrc[2 * i1] - pSrc[2 * i5];
 120              		.loc 1 81 0 discriminator 1
 121 0078 8046     		mov	r8, r0
 122              	.LVL11:
 123              		.loc 1 82 0 discriminator 1
 124 007a 3046     		mov	r0, r6
 125              	.LVL12:
 126 007c FFF7FEFF 		bl	__aeabi_fsub
 127              	.LVL13:
  83:.\DSP\Source\TransformFunctions/arm_cfft_radix8_f32.c ****          r2 = pSrc[2 * i2] + pSrc[2 * i6];
 128              		.loc 1 83 0 discriminator 1
 129 0080 079B     		ldr	r3, [sp, #28]
  82:.\DSP\Source\TransformFunctions/arm_cfft_radix8_f32.c ****          r5 = pSrc[2 * i1] - pSrc[2 * i5];
 130              		.loc 1 82 0 discriminator 1
 131 0082 0F90     		str	r0, [sp, #60]	@ float
 132              	.LVL14:
 133              		.loc 1 83 0 discriminator 1
 134 0084 1A46     		mov	r2, r3
 135 0086 109B     		ldr	r3, [sp, #64]
 136 0088 53F83260 		ldr	r6, [r3, r2, lsl #3]	@ float
 137 008c 1993     		str	r3, [sp, #100]
 138 008e 059B     		ldr	r3, [sp, #20]
 139 0090 3046     		mov	r0, r6
 140              	.LVL15:
 141 0092 5AF80350 		ldr	r5, [r10, r3]	@ float
 142 0096 2946     		mov	r1, r5
ARM GAS  C:\Users\IVYLIU~1\AppData\Local\Temp\cc3ADQnL.s 			page 5


 143 0098 FFF7FEFF 		bl	__aeabi_fadd
 144              	.LVL16:
  84:.\DSP\Source\TransformFunctions/arm_cfft_radix8_f32.c ****          r6 = pSrc[2 * i2] - pSrc[2 * i6];
 145              		.loc 1 84 0 discriminator 1
 146 009c 2946     		mov	r1, r5
  83:.\DSP\Source\TransformFunctions/arm_cfft_radix8_f32.c ****          r2 = pSrc[2 * i2] + pSrc[2 * i6];
 147              		.loc 1 83 0 discriminator 1
 148 009e 0746     		mov	r7, r0
 149              	.LVL17:
 150              		.loc 1 84 0 discriminator 1
 151 00a0 3046     		mov	r0, r6
 152              	.LVL18:
 153 00a2 FFF7FEFF 		bl	__aeabi_fsub
 154              	.LVL19:
  85:.\DSP\Source\TransformFunctions/arm_cfft_radix8_f32.c ****          r3 = pSrc[2 * i3] + pSrc[2 * i7];
 155              		.loc 1 85 0 discriminator 1
 156 00a6 079A     		ldr	r2, [sp, #28]
 157 00a8 0C9B     		ldr	r3, [sp, #48]
  84:.\DSP\Source\TransformFunctions/arm_cfft_radix8_f32.c ****          r6 = pSrc[2 * i2] - pSrc[2 * i6];
 158              		.loc 1 84 0 discriminator 1
 159 00aa 1090     		str	r0, [sp, #64]	@ float
 160              	.LVL20:
 161              		.loc 1 85 0 discriminator 1
 162 00ac 53F83290 		ldr	r9, [r3, r2, lsl #3]	@ float
 163 00b0 039B     		ldr	r3, [sp, #12]
 164 00b2 4846     		mov	r0, r9
 165              	.LVL21:
 166 00b4 5AF80360 		ldr	r6, [r10, r3]	@ float
 167 00b8 3146     		mov	r1, r6
 168 00ba FFF7FEFF 		bl	__aeabi_fadd
 169              	.LVL22:
  86:.\DSP\Source\TransformFunctions/arm_cfft_radix8_f32.c ****          r7 = pSrc[2 * i3] - pSrc[2 * i7];
 170              		.loc 1 86 0 discriminator 1
 171 00be 3146     		mov	r1, r6
  85:.\DSP\Source\TransformFunctions/arm_cfft_radix8_f32.c ****          r3 = pSrc[2 * i3] + pSrc[2 * i7];
 172              		.loc 1 85 0 discriminator 1
 173 00c0 0546     		mov	r5, r0
 174              	.LVL23:
 175              		.loc 1 86 0 discriminator 1
 176 00c2 4846     		mov	r0, r9
 177              	.LVL24:
 178 00c4 FFF7FEFF 		bl	__aeabi_fsub
 179              	.LVL25:
  87:.\DSP\Source\TransformFunctions/arm_cfft_radix8_f32.c ****          r4 = pSrc[2 * i4] + pSrc[2 * i8];
 180              		.loc 1 87 0 discriminator 1
 181 00c8 049B     		ldr	r3, [sp, #16]
  86:.\DSP\Source\TransformFunctions/arm_cfft_radix8_f32.c ****          r7 = pSrc[2 * i3] - pSrc[2 * i7];
 182              		.loc 1 86 0 discriminator 1
 183 00ca 1190     		str	r0, [sp, #68]	@ float
 184              	.LVL26:
 185              		.loc 1 87 0 discriminator 1
 186 00cc 5AF803B0 		ldr	fp, [r10, r3]	@ float
 187 00d0 069B     		ldr	r3, [sp, #24]
 188 00d2 5846     		mov	r0, fp
 189              	.LVL27:
 190 00d4 5AF80390 		ldr	r9, [r10, r3]	@ float
 191 00d8 4946     		mov	r1, r9
ARM GAS  C:\Users\IVYLIU~1\AppData\Local\Temp\cc3ADQnL.s 			page 6


 192 00da FFF7FEFF 		bl	__aeabi_fadd
 193              	.LVL28:
  88:.\DSP\Source\TransformFunctions/arm_cfft_radix8_f32.c ****          r8 = pSrc[2 * i4] - pSrc[2 * i8];
 194              		.loc 1 88 0 discriminator 1
 195 00de 4946     		mov	r1, r9
  87:.\DSP\Source\TransformFunctions/arm_cfft_radix8_f32.c ****          r4 = pSrc[2 * i4] + pSrc[2 * i8];
 196              		.loc 1 87 0 discriminator 1
 197 00e0 0646     		mov	r6, r0
 198              	.LVL29:
 199              		.loc 1 88 0 discriminator 1
 200 00e2 5846     		mov	r0, fp
 201              	.LVL30:
 202 00e4 FFF7FEFF 		bl	__aeabi_fsub
 203              	.LVL31:
  89:.\DSP\Source\TransformFunctions/arm_cfft_radix8_f32.c ****          t1 = r1 - r3;
 204              		.loc 1 89 0 discriminator 1
 205 00e8 2946     		mov	r1, r5
  88:.\DSP\Source\TransformFunctions/arm_cfft_radix8_f32.c ****          r8 = pSrc[2 * i4] - pSrc[2 * i8];
 206              		.loc 1 88 0 discriminator 1
 207 00ea 1290     		str	r0, [sp, #72]	@ float
 208              	.LVL32:
 209              		.loc 1 89 0 discriminator 1
 210 00ec 4046     		mov	r0, r8
 211              	.LVL33:
 212 00ee FFF7FEFF 		bl	__aeabi_fsub
 213              	.LVL34:
  90:.\DSP\Source\TransformFunctions/arm_cfft_radix8_f32.c ****          r1 = r1 + r3;
 214              		.loc 1 90 0 discriminator 1
 215 00f2 2946     		mov	r1, r5
  89:.\DSP\Source\TransformFunctions/arm_cfft_radix8_f32.c ****          t1 = r1 - r3;
 216              		.loc 1 89 0 discriminator 1
 217 00f4 1390     		str	r0, [sp, #76]	@ float
 218              	.LVL35:
 219              		.loc 1 90 0 discriminator 1
 220 00f6 4046     		mov	r0, r8
 221              	.LVL36:
 222 00f8 FFF7FEFF 		bl	__aeabi_fadd
 223              	.LVL37:
  91:.\DSP\Source\TransformFunctions/arm_cfft_radix8_f32.c ****          r3 = r2 - r4;
 224              		.loc 1 91 0 discriminator 1
 225 00fc 3146     		mov	r1, r6
  90:.\DSP\Source\TransformFunctions/arm_cfft_radix8_f32.c ****          r1 = r1 + r3;
 226              		.loc 1 90 0 discriminator 1
 227 00fe 0546     		mov	r5, r0
 228              	.LVL38:
 229              		.loc 1 91 0 discriminator 1
 230 0100 3846     		mov	r0, r7
 231              	.LVL39:
 232 0102 FFF7FEFF 		bl	__aeabi_fsub
 233              	.LVL40:
  92:.\DSP\Source\TransformFunctions/arm_cfft_radix8_f32.c ****          r2 = r2 + r4;
 234              		.loc 1 92 0 discriminator 1
 235 0106 3146     		mov	r1, r6
  91:.\DSP\Source\TransformFunctions/arm_cfft_radix8_f32.c ****          r3 = r2 - r4;
 236              		.loc 1 91 0 discriminator 1
 237 0108 1490     		str	r0, [sp, #80]	@ float
 238              	.LVL41:
ARM GAS  C:\Users\IVYLIU~1\AppData\Local\Temp\cc3ADQnL.s 			page 7


 239              		.loc 1 92 0 discriminator 1
 240 010a 3846     		mov	r0, r7
 241              	.LVL42:
 242 010c FFF7FEFF 		bl	__aeabi_fadd
 243              	.LVL43:
 244 0110 0646     		mov	r6, r0
 245              	.LVL44:
  93:.\DSP\Source\TransformFunctions/arm_cfft_radix8_f32.c ****          pSrc[2 * i1] = r1 + r2;
 246              		.loc 1 93 0 discriminator 1
 247 0112 2846     		mov	r0, r5
 248              	.LVL45:
 249 0114 3146     		mov	r1, r6
 250 0116 FFF7FEFF 		bl	__aeabi_fadd
 251              	.LVL46:
  94:.\DSP\Source\TransformFunctions/arm_cfft_radix8_f32.c ****          pSrc[2 * i5] = r1 - r2;
 252              		.loc 1 94 0 discriminator 1
 253 011a 3146     		mov	r1, r6
  93:.\DSP\Source\TransformFunctions/arm_cfft_radix8_f32.c ****          pSrc[2 * i1] = r1 + r2;
 254              		.loc 1 93 0 discriminator 1
 255 011c 44F8040C 		str	r0, [r4, #-4]	@ float
 256              		.loc 1 94 0 discriminator 1
 257 0120 2846     		mov	r0, r5
 258 0122 FFF7FEFF 		bl	__aeabi_fsub
 259              	.LVL47:
 260 0126 029B     		ldr	r3, [sp, #8]
 261 0128 4AF80300 		str	r0, [r10, r3]	@ float
  95:.\DSP\Source\TransformFunctions/arm_cfft_radix8_f32.c ****          r1 = pSrc[2 * i1 + 1] + pSrc[2 * i5 + 1];
 262              		.loc 1 95 0 discriminator 1
 263 012c 2668     		ldr	r6, [r4]	@ float
 264              	.LVL48:
 265 012e 059B     		ldr	r3, [sp, #20]
 266 0130 3046     		mov	r0, r6
 267 0132 E558     		ldr	r5, [r4, r3]	@ float
 268              	.LVL49:
 269 0134 2946     		mov	r1, r5
 270 0136 FFF7FEFF 		bl	__aeabi_fadd
 271              	.LVL50:
  96:.\DSP\Source\TransformFunctions/arm_cfft_radix8_f32.c ****          s5 = pSrc[2 * i1 + 1] - pSrc[2 * i5 + 1];
 272              		.loc 1 96 0 discriminator 1
 273 013a 2946     		mov	r1, r5
  95:.\DSP\Source\TransformFunctions/arm_cfft_radix8_f32.c ****          r1 = pSrc[2 * i1 + 1] + pSrc[2 * i5 + 1];
 274              		.loc 1 95 0 discriminator 1
 275 013c 0746     		mov	r7, r0
 276              	.LVL51:
 277              		.loc 1 96 0 discriminator 1
 278 013e 3046     		mov	r0, r6
 279              	.LVL52:
 280 0140 FFF7FEFF 		bl	__aeabi_fsub
 281              	.LVL53:
  97:.\DSP\Source\TransformFunctions/arm_cfft_radix8_f32.c ****          r2 = pSrc[2 * i2 + 1] + pSrc[2 * i6 + 1];
 282              		.loc 1 97 0 discriminator 1
 283 0144 039B     		ldr	r3, [sp, #12]
 284 0146 DAF80460 		ldr	r6, [r10, #4]	@ float
 285 014a E558     		ldr	r5, [r4, r3]	@ float
  96:.\DSP\Source\TransformFunctions/arm_cfft_radix8_f32.c ****          s5 = pSrc[2 * i1 + 1] - pSrc[2 * i5 + 1];
 286              		.loc 1 96 0 discriminator 1
 287 014c 1590     		str	r0, [sp, #84]	@ float
ARM GAS  C:\Users\IVYLIU~1\AppData\Local\Temp\cc3ADQnL.s 			page 8


 288              	.LVL54:
 289              		.loc 1 97 0 discriminator 1
 290 014e 2946     		mov	r1, r5
 291 0150 3046     		mov	r0, r6
 292              	.LVL55:
 293 0152 FFF7FEFF 		bl	__aeabi_fadd
 294              	.LVL56:
  98:.\DSP\Source\TransformFunctions/arm_cfft_radix8_f32.c ****          s6 = pSrc[2 * i2 + 1] - pSrc[2 * i6 + 1];
 295              		.loc 1 98 0 discriminator 1
 296 0156 2946     		mov	r1, r5
  97:.\DSP\Source\TransformFunctions/arm_cfft_radix8_f32.c ****          r2 = pSrc[2 * i2 + 1] + pSrc[2 * i6 + 1];
 297              		.loc 1 97 0 discriminator 1
 298 0158 1690     		str	r0, [sp, #88]	@ float
 299              	.LVL57:
 300              		.loc 1 98 0 discriminator 1
 301 015a 3046     		mov	r0, r6
 302              	.LVL58:
 303 015c FFF7FEFF 		bl	__aeabi_fsub
 304              	.LVL59:
  99:.\DSP\Source\TransformFunctions/arm_cfft_radix8_f32.c ****          s3 = pSrc[2 * i3 + 1] + pSrc[2 * i7 + 1];
 305              		.loc 1 99 0 discriminator 1
 306 0160 049B     		ldr	r3, [sp, #16]
  98:.\DSP\Source\TransformFunctions/arm_cfft_radix8_f32.c ****          s6 = pSrc[2 * i2 + 1] - pSrc[2 * i6 + 1];
 307              		.loc 1 98 0 discriminator 1
 308 0162 8346     		mov	fp, r0
 309              	.LVL60:
 310              		.loc 1 99 0 discriminator 1
 311 0164 54F80380 		ldr	r8, [r4, r3]	@ float
 312 0168 069B     		ldr	r3, [sp, #24]
 313 016a 4046     		mov	r0, r8
 314              	.LVL61:
 315 016c E558     		ldr	r5, [r4, r3]	@ float
 316 016e 2946     		mov	r1, r5
 317 0170 FFF7FEFF 		bl	__aeabi_fadd
 318              	.LVL62:
 100:.\DSP\Source\TransformFunctions/arm_cfft_radix8_f32.c ****          s7 = pSrc[2 * i3 + 1] - pSrc[2 * i7 + 1];
 319              		.loc 1 100 0 discriminator 1
 320 0174 2946     		mov	r1, r5
  99:.\DSP\Source\TransformFunctions/arm_cfft_radix8_f32.c ****          s3 = pSrc[2 * i3 + 1] + pSrc[2 * i7 + 1];
 321              		.loc 1 99 0 discriminator 1
 322 0176 0646     		mov	r6, r0
 323              	.LVL63:
 324              		.loc 1 100 0 discriminator 1
 325 0178 4046     		mov	r0, r8
 326              	.LVL64:
 327 017a FFF7FEFF 		bl	__aeabi_fsub
 328              	.LVL65:
 101:.\DSP\Source\TransformFunctions/arm_cfft_radix8_f32.c ****          r4 = pSrc[2 * i4 + 1] + pSrc[2 * i8 + 1];
 329              		.loc 1 101 0 discriminator 1
 330 017e 029B     		ldr	r3, [sp, #8]
 100:.\DSP\Source\TransformFunctions/arm_cfft_radix8_f32.c ****          s7 = pSrc[2 * i3 + 1] - pSrc[2 * i7 + 1];
 331              		.loc 1 100 0 discriminator 1
 332 0180 1790     		str	r0, [sp, #92]	@ float
 333              	.LVL66:
 334              		.loc 1 101 0 discriminator 1
 335 0182 54F80380 		ldr	r8, [r4, r3]	@ float
 336 0186 089B     		ldr	r3, [sp, #32]
ARM GAS  C:\Users\IVYLIU~1\AppData\Local\Temp\cc3ADQnL.s 			page 9


 337 0188 4046     		mov	r0, r8
 338              	.LVL67:
 339 018a E558     		ldr	r5, [r4, r3]	@ float
 340 018c 2946     		mov	r1, r5
 341 018e FFF7FEFF 		bl	__aeabi_fadd
 342              	.LVL68:
 102:.\DSP\Source\TransformFunctions/arm_cfft_radix8_f32.c ****          s8 = pSrc[2 * i4 + 1] - pSrc[2 * i8 + 1];
 343              		.loc 1 102 0 discriminator 1
 344 0192 2946     		mov	r1, r5
 101:.\DSP\Source\TransformFunctions/arm_cfft_radix8_f32.c ****          r4 = pSrc[2 * i4 + 1] + pSrc[2 * i8 + 1];
 345              		.loc 1 101 0 discriminator 1
 346 0194 8146     		mov	r9, r0
 347              	.LVL69:
 348              		.loc 1 102 0 discriminator 1
 349 0196 4046     		mov	r0, r8
 350              	.LVL70:
 351 0198 FFF7FEFF 		bl	__aeabi_fsub
 352              	.LVL71:
 103:.\DSP\Source\TransformFunctions/arm_cfft_radix8_f32.c ****          t2 = r1 - s3;
 353              		.loc 1 103 0 discriminator 1
 354 019c 3146     		mov	r1, r6
 102:.\DSP\Source\TransformFunctions/arm_cfft_radix8_f32.c ****          s8 = pSrc[2 * i4 + 1] - pSrc[2 * i8 + 1];
 355              		.loc 1 102 0 discriminator 1
 356 019e 8046     		mov	r8, r0
 357              	.LVL72:
 358              		.loc 1 103 0 discriminator 1
 359 01a0 3846     		mov	r0, r7
 360              	.LVL73:
 361 01a2 FFF7FEFF 		bl	__aeabi_fsub
 362              	.LVL74:
 104:.\DSP\Source\TransformFunctions/arm_cfft_radix8_f32.c ****          r1 = r1 + s3;
 363              		.loc 1 104 0 discriminator 1
 364 01a6 3146     		mov	r1, r6
 103:.\DSP\Source\TransformFunctions/arm_cfft_radix8_f32.c ****          t2 = r1 - s3;
 365              		.loc 1 103 0 discriminator 1
 366 01a8 0546     		mov	r5, r0
 367              	.LVL75:
 368              		.loc 1 104 0 discriminator 1
 369 01aa 3846     		mov	r0, r7
 370              	.LVL76:
 371 01ac FFF7FEFF 		bl	__aeabi_fadd
 372              	.LVL77:
 105:.\DSP\Source\TransformFunctions/arm_cfft_radix8_f32.c ****          s3 = r2 - r4;
 373              		.loc 1 105 0 discriminator 1
 374 01b0 4946     		mov	r1, r9
 104:.\DSP\Source\TransformFunctions/arm_cfft_radix8_f32.c ****          r1 = r1 + s3;
 375              		.loc 1 104 0 discriminator 1
 376 01b2 0746     		mov	r7, r0
 377              	.LVL78:
 378              		.loc 1 105 0 discriminator 1
 379 01b4 1698     		ldr	r0, [sp, #88]	@ float
 380              	.LVL79:
 381 01b6 FFF7FEFF 		bl	__aeabi_fsub
 382              	.LVL80:
 106:.\DSP\Source\TransformFunctions/arm_cfft_radix8_f32.c ****          r2 = r2 + r4;
 383              		.loc 1 106 0 discriminator 1
 384 01ba 4946     		mov	r1, r9
ARM GAS  C:\Users\IVYLIU~1\AppData\Local\Temp\cc3ADQnL.s 			page 10


 105:.\DSP\Source\TransformFunctions/arm_cfft_radix8_f32.c ****          s3 = r2 - r4;
 385              		.loc 1 105 0 discriminator 1
 386 01bc 0646     		mov	r6, r0
 387              	.LVL81:
 388              		.loc 1 106 0 discriminator 1
 389 01be 1698     		ldr	r0, [sp, #88]	@ float
 390              	.LVL82:
 391 01c0 FFF7FEFF 		bl	__aeabi_fadd
 392              	.LVL83:
 393 01c4 8146     		mov	r9, r0
 394              	.LVL84:
 107:.\DSP\Source\TransformFunctions/arm_cfft_radix8_f32.c ****          pSrc[2 * i1 + 1] = r1 + r2;
 395              		.loc 1 107 0 discriminator 1
 396 01c6 3846     		mov	r0, r7
 397              	.LVL85:
 398 01c8 4946     		mov	r1, r9
 399 01ca FFF7FEFF 		bl	__aeabi_fadd
 400              	.LVL86:
 108:.\DSP\Source\TransformFunctions/arm_cfft_radix8_f32.c ****          pSrc[2 * i5 + 1] = r1 - r2;
 401              		.loc 1 108 0 discriminator 1
 402 01ce 4946     		mov	r1, r9
 107:.\DSP\Source\TransformFunctions/arm_cfft_radix8_f32.c ****          pSrc[2 * i1 + 1] = r1 + r2;
 403              		.loc 1 107 0 discriminator 1
 404 01d0 2060     		str	r0, [r4]	@ float
 405              		.loc 1 108 0 discriminator 1
 406 01d2 3846     		mov	r0, r7
 407 01d4 FFF7FEFF 		bl	__aeabi_fsub
 408              	.LVL87:
 409 01d8 059B     		ldr	r3, [sp, #20]
 109:.\DSP\Source\TransformFunctions/arm_cfft_radix8_f32.c ****          pSrc[2 * i3]     = t1 + s3;
 410              		.loc 1 109 0 discriminator 1
 411 01da 3146     		mov	r1, r6
 108:.\DSP\Source\TransformFunctions/arm_cfft_radix8_f32.c ****          pSrc[2 * i5 + 1] = r1 - r2;
 412              		.loc 1 108 0 discriminator 1
 413 01dc E050     		str	r0, [r4, r3]	@ float
 414              		.loc 1 109 0 discriminator 1
 415 01de 1398     		ldr	r0, [sp, #76]	@ float
 416 01e0 FFF7FEFF 		bl	__aeabi_fadd
 417              	.LVL88:
 418 01e4 079A     		ldr	r2, [sp, #28]
 419 01e6 0C9B     		ldr	r3, [sp, #48]
 110:.\DSP\Source\TransformFunctions/arm_cfft_radix8_f32.c ****          pSrc[2 * i7]     = t1 - s3;
 420              		.loc 1 110 0 discriminator 1
 421 01e8 3146     		mov	r1, r6
 109:.\DSP\Source\TransformFunctions/arm_cfft_radix8_f32.c ****          pSrc[2 * i3]     = t1 + s3;
 422              		.loc 1 109 0 discriminator 1
 423 01ea 43F83200 		str	r0, [r3, r2, lsl #3]	@ float
 424              		.loc 1 110 0 discriminator 1
 425 01ee 1398     		ldr	r0, [sp, #76]	@ float
 426 01f0 FFF7FEFF 		bl	__aeabi_fsub
 427              	.LVL89:
 428 01f4 039B     		ldr	r3, [sp, #12]
 111:.\DSP\Source\TransformFunctions/arm_cfft_radix8_f32.c ****          pSrc[2 * i3 + 1] = t2 - r3;
 429              		.loc 1 111 0 discriminator 1
 430 01f6 1499     		ldr	r1, [sp, #80]	@ float
 110:.\DSP\Source\TransformFunctions/arm_cfft_radix8_f32.c ****          pSrc[2 * i7]     = t1 - s3;
 431              		.loc 1 110 0 discriminator 1
ARM GAS  C:\Users\IVYLIU~1\AppData\Local\Temp\cc3ADQnL.s 			page 11


 432 01f8 4AF80300 		str	r0, [r10, r3]	@ float
 433              		.loc 1 111 0 discriminator 1
 434 01fc 2846     		mov	r0, r5
 435 01fe FFF7FEFF 		bl	__aeabi_fsub
 436              	.LVL90:
 437 0202 049B     		ldr	r3, [sp, #16]
 112:.\DSP\Source\TransformFunctions/arm_cfft_radix8_f32.c ****          pSrc[2 * i7 + 1] = t2 + r3;
 438              		.loc 1 112 0 discriminator 1
 439 0204 1499     		ldr	r1, [sp, #80]	@ float
 111:.\DSP\Source\TransformFunctions/arm_cfft_radix8_f32.c ****          pSrc[2 * i3 + 1] = t2 - r3;
 440              		.loc 1 111 0 discriminator 1
 441 0206 E050     		str	r0, [r4, r3]	@ float
 442              		.loc 1 112 0 discriminator 1
 443 0208 2846     		mov	r0, r5
 444 020a FFF7FEFF 		bl	__aeabi_fadd
 445              	.LVL91:
 446 020e 069B     		ldr	r3, [sp, #24]
 113:.\DSP\Source\TransformFunctions/arm_cfft_radix8_f32.c ****          r1 = (r6 - r8) * C81;
 447              		.loc 1 113 0 discriminator 1
 448 0210 1299     		ldr	r1, [sp, #72]	@ float
 112:.\DSP\Source\TransformFunctions/arm_cfft_radix8_f32.c ****          pSrc[2 * i7 + 1] = t2 + r3;
 449              		.loc 1 112 0 discriminator 1
 450 0212 E050     		str	r0, [r4, r3]	@ float
 451              		.loc 1 113 0 discriminator 1
 452 0214 1098     		ldr	r0, [sp, #64]	@ float
 453 0216 FFF7FEFF 		bl	__aeabi_fsub
 454              	.LVL92:
 455 021a 6749     		ldr	r1, .L12
 456 021c FFF7FEFF 		bl	__aeabi_fmul
 457              	.LVL93:
 114:.\DSP\Source\TransformFunctions/arm_cfft_radix8_f32.c ****          r6 = (r6 + r8) * C81;
 458              		.loc 1 114 0 discriminator 1
 459 0220 1299     		ldr	r1, [sp, #72]	@ float
 113:.\DSP\Source\TransformFunctions/arm_cfft_radix8_f32.c ****          r1 = (r6 - r8) * C81;
 460              		.loc 1 113 0 discriminator 1
 461 0222 0646     		mov	r6, r0
 462              	.LVL94:
 463              		.loc 1 114 0 discriminator 1
 464 0224 1098     		ldr	r0, [sp, #64]	@ float
 465              	.LVL95:
 466 0226 FFF7FEFF 		bl	__aeabi_fadd
 467              	.LVL96:
 468 022a 6349     		ldr	r1, .L12
 469 022c FFF7FEFF 		bl	__aeabi_fmul
 470              	.LVL97:
 115:.\DSP\Source\TransformFunctions/arm_cfft_radix8_f32.c ****          r2 = (s6 - s8) * C81;
 471              		.loc 1 115 0 discriminator 1
 472 0230 4146     		mov	r1, r8
 114:.\DSP\Source\TransformFunctions/arm_cfft_radix8_f32.c ****          r6 = (r6 + r8) * C81;
 473              		.loc 1 114 0 discriminator 1
 474 0232 0546     		mov	r5, r0
 475              	.LVL98:
 476              		.loc 1 115 0 discriminator 1
 477 0234 5846     		mov	r0, fp
 478              	.LVL99:
 479 0236 FFF7FEFF 		bl	__aeabi_fsub
 480              	.LVL100:
ARM GAS  C:\Users\IVYLIU~1\AppData\Local\Temp\cc3ADQnL.s 			page 12


 481 023a 5F49     		ldr	r1, .L12
 482 023c FFF7FEFF 		bl	__aeabi_fmul
 483              	.LVL101:
 116:.\DSP\Source\TransformFunctions/arm_cfft_radix8_f32.c ****          s6 = (s6 + s8) * C81;
 484              		.loc 1 116 0 discriminator 1
 485 0240 4146     		mov	r1, r8
 115:.\DSP\Source\TransformFunctions/arm_cfft_radix8_f32.c ****          r2 = (s6 - s8) * C81;
 486              		.loc 1 115 0 discriminator 1
 487 0242 0746     		mov	r7, r0
 488              	.LVL102:
 489              		.loc 1 116 0 discriminator 1
 490 0244 5846     		mov	r0, fp
 491              	.LVL103:
 492 0246 FFF7FEFF 		bl	__aeabi_fadd
 493              	.LVL104:
 494 024a 5B49     		ldr	r1, .L12
 495 024c FFF7FEFF 		bl	__aeabi_fmul
 496              	.LVL105:
 117:.\DSP\Source\TransformFunctions/arm_cfft_radix8_f32.c ****          t1 = r5 - r1;
 497              		.loc 1 117 0 discriminator 1
 498 0250 3146     		mov	r1, r6
 116:.\DSP\Source\TransformFunctions/arm_cfft_radix8_f32.c ****          s6 = (s6 + s8) * C81;
 499              		.loc 1 116 0 discriminator 1
 500 0252 8346     		mov	fp, r0
 501              	.LVL106:
 502              		.loc 1 117 0 discriminator 1
 503 0254 0F98     		ldr	r0, [sp, #60]	@ float
 504              	.LVL107:
 505 0256 FFF7FEFF 		bl	__aeabi_fsub
 506              	.LVL108:
 118:.\DSP\Source\TransformFunctions/arm_cfft_radix8_f32.c ****          r5 = r5 + r1;
 507              		.loc 1 118 0 discriminator 1
 508 025a 3146     		mov	r1, r6
 117:.\DSP\Source\TransformFunctions/arm_cfft_radix8_f32.c ****          t1 = r5 - r1;
 509              		.loc 1 117 0 discriminator 1
 510 025c 8146     		mov	r9, r0
 511              	.LVL109:
 512              		.loc 1 118 0 discriminator 1
 513 025e 0F98     		ldr	r0, [sp, #60]	@ float
 514              	.LVL110:
 515 0260 FFF7FEFF 		bl	__aeabi_fadd
 516              	.LVL111:
 119:.\DSP\Source\TransformFunctions/arm_cfft_radix8_f32.c ****          r8 = r7 - r6;
 517              		.loc 1 119 0 discriminator 1
 518 0264 2946     		mov	r1, r5
 118:.\DSP\Source\TransformFunctions/arm_cfft_radix8_f32.c ****          r5 = r5 + r1;
 519              		.loc 1 118 0 discriminator 1
 520 0266 0F90     		str	r0, [sp, #60]	@ float
 521              	.LVL112:
 522              		.loc 1 119 0 discriminator 1
 523 0268 1198     		ldr	r0, [sp, #68]	@ float
 524              	.LVL113:
 525 026a FFF7FEFF 		bl	__aeabi_fsub
 526              	.LVL114:
 120:.\DSP\Source\TransformFunctions/arm_cfft_radix8_f32.c ****          r7 = r7 + r6;
 527              		.loc 1 120 0 discriminator 1
 528 026e 2946     		mov	r1, r5
ARM GAS  C:\Users\IVYLIU~1\AppData\Local\Temp\cc3ADQnL.s 			page 13


 119:.\DSP\Source\TransformFunctions/arm_cfft_radix8_f32.c ****          r8 = r7 - r6;
 529              		.loc 1 119 0 discriminator 1
 530 0270 1090     		str	r0, [sp, #64]	@ float
 531              	.LVL115:
 532              		.loc 1 120 0 discriminator 1
 533 0272 1198     		ldr	r0, [sp, #68]	@ float
 534              	.LVL116:
 535 0274 FFF7FEFF 		bl	__aeabi_fadd
 536              	.LVL117:
 121:.\DSP\Source\TransformFunctions/arm_cfft_radix8_f32.c ****          t2 = s5 - r2;
 537              		.loc 1 121 0 discriminator 1
 538 0278 3946     		mov	r1, r7
 120:.\DSP\Source\TransformFunctions/arm_cfft_radix8_f32.c ****          r7 = r7 + r6;
 539              		.loc 1 120 0 discriminator 1
 540 027a 0646     		mov	r6, r0
 541              	.LVL118:
 542              		.loc 1 121 0 discriminator 1
 543 027c 1598     		ldr	r0, [sp, #84]	@ float
 544              	.LVL119:
 545 027e FFF7FEFF 		bl	__aeabi_fsub
 546              	.LVL120:
 122:.\DSP\Source\TransformFunctions/arm_cfft_radix8_f32.c ****          s5 = s5 + r2;
 547              		.loc 1 122 0 discriminator 1
 548 0282 3946     		mov	r1, r7
 121:.\DSP\Source\TransformFunctions/arm_cfft_radix8_f32.c ****          t2 = s5 - r2;
 549              		.loc 1 121 0 discriminator 1
 550 0284 0546     		mov	r5, r0
 551              	.LVL121:
 552              		.loc 1 122 0 discriminator 1
 553 0286 1598     		ldr	r0, [sp, #84]	@ float
 554              	.LVL122:
 555 0288 FFF7FEFF 		bl	__aeabi_fadd
 556              	.LVL123:
 123:.\DSP\Source\TransformFunctions/arm_cfft_radix8_f32.c ****          s8 = s7 - s6;
 557              		.loc 1 123 0 discriminator 1
 558 028c 5946     		mov	r1, fp
 122:.\DSP\Source\TransformFunctions/arm_cfft_radix8_f32.c ****          s5 = s5 + r2;
 559              		.loc 1 122 0 discriminator 1
 560 028e 0746     		mov	r7, r0
 561              	.LVL124:
 562              		.loc 1 123 0 discriminator 1
 563 0290 1798     		ldr	r0, [sp, #92]	@ float
 564              	.LVL125:
 565 0292 FFF7FEFF 		bl	__aeabi_fsub
 566              	.LVL126:
 124:.\DSP\Source\TransformFunctions/arm_cfft_radix8_f32.c ****          s7 = s7 + s6;
 567              		.loc 1 124 0 discriminator 1
 568 0296 5946     		mov	r1, fp
 123:.\DSP\Source\TransformFunctions/arm_cfft_radix8_f32.c ****          s8 = s7 - s6;
 569              		.loc 1 123 0 discriminator 1
 570 0298 8046     		mov	r8, r0
 571              	.LVL127:
 572              		.loc 1 124 0 discriminator 1
 573 029a 1798     		ldr	r0, [sp, #92]	@ float
 574              	.LVL128:
 575 029c FFF7FEFF 		bl	__aeabi_fadd
 576              	.LVL129:
ARM GAS  C:\Users\IVYLIU~1\AppData\Local\Temp\cc3ADQnL.s 			page 14


 577 02a0 8346     		mov	fp, r0
 578              	.LVL130:
 125:.\DSP\Source\TransformFunctions/arm_cfft_radix8_f32.c ****          pSrc[2 * i2]     = r5 + s7;
 579              		.loc 1 125 0 discriminator 1
 580 02a2 0F98     		ldr	r0, [sp, #60]	@ float
 581              	.LVL131:
 582 02a4 5946     		mov	r1, fp
 583 02a6 FFF7FEFF 		bl	__aeabi_fadd
 584              	.LVL132:
 585 02aa 079A     		ldr	r2, [sp, #28]
 586 02ac 189B     		ldr	r3, [sp, #96]
 126:.\DSP\Source\TransformFunctions/arm_cfft_radix8_f32.c ****          pSrc[2 * i8]     = r5 - s7;
 587              		.loc 1 126 0 discriminator 1
 588 02ae 5946     		mov	r1, fp
 125:.\DSP\Source\TransformFunctions/arm_cfft_radix8_f32.c ****          pSrc[2 * i2]     = r5 + s7;
 589              		.loc 1 125 0 discriminator 1
 590 02b0 43F83200 		str	r0, [r3, r2, lsl #3]	@ float
 591              		.loc 1 126 0 discriminator 1
 592 02b4 0F98     		ldr	r0, [sp, #60]	@ float
 593 02b6 FFF7FEFF 		bl	__aeabi_fsub
 594              	.LVL133:
 595 02ba 069B     		ldr	r3, [sp, #24]
 127:.\DSP\Source\TransformFunctions/arm_cfft_radix8_f32.c ****          pSrc[2 * i6]     = t1 + s8;
 596              		.loc 1 127 0 discriminator 1
 597 02bc 4146     		mov	r1, r8
 126:.\DSP\Source\TransformFunctions/arm_cfft_radix8_f32.c ****          pSrc[2 * i8]     = r5 - s7;
 598              		.loc 1 126 0 discriminator 1
 599 02be 4AF80300 		str	r0, [r10, r3]	@ float
 600              		.loc 1 127 0 discriminator 1
 601 02c2 4846     		mov	r0, r9
 602 02c4 FFF7FEFF 		bl	__aeabi_fadd
 603              	.LVL134:
 604 02c8 059B     		ldr	r3, [sp, #20]
 128:.\DSP\Source\TransformFunctions/arm_cfft_radix8_f32.c ****          pSrc[2 * i4]     = t1 - s8;
 605              		.loc 1 128 0 discriminator 1
 606 02ca 4146     		mov	r1, r8
 127:.\DSP\Source\TransformFunctions/arm_cfft_radix8_f32.c ****          pSrc[2 * i6]     = t1 + s8;
 607              		.loc 1 127 0 discriminator 1
 608 02cc 4AF80300 		str	r0, [r10, r3]	@ float
 609              		.loc 1 128 0 discriminator 1
 610 02d0 4846     		mov	r0, r9
 611 02d2 FFF7FEFF 		bl	__aeabi_fsub
 612              	.LVL135:
 613 02d6 049B     		ldr	r3, [sp, #16]
 129:.\DSP\Source\TransformFunctions/arm_cfft_radix8_f32.c ****          pSrc[2 * i2 + 1] = s5 - r7;
 614              		.loc 1 129 0 discriminator 1
 615 02d8 3146     		mov	r1, r6
 128:.\DSP\Source\TransformFunctions/arm_cfft_radix8_f32.c ****          pSrc[2 * i4]     = t1 - s8;
 616              		.loc 1 128 0 discriminator 1
 617 02da 4AF80300 		str	r0, [r10, r3]	@ float
 618              		.loc 1 129 0 discriminator 1
 619 02de 3846     		mov	r0, r7
 620 02e0 FFF7FEFF 		bl	__aeabi_fsub
 621              	.LVL136:
 130:.\DSP\Source\TransformFunctions/arm_cfft_radix8_f32.c ****          pSrc[2 * i8 + 1] = s5 + r7;
 622              		.loc 1 130 0 discriminator 1
 623 02e4 3146     		mov	r1, r6
ARM GAS  C:\Users\IVYLIU~1\AppData\Local\Temp\cc3ADQnL.s 			page 15


 129:.\DSP\Source\TransformFunctions/arm_cfft_radix8_f32.c ****          pSrc[2 * i2 + 1] = s5 - r7;
 624              		.loc 1 129 0 discriminator 1
 625 02e6 CAF80400 		str	r0, [r10, #4]	@ float
 626              		.loc 1 130 0 discriminator 1
 627 02ea 3846     		mov	r0, r7
 628 02ec FFF7FEFF 		bl	__aeabi_fadd
 629              	.LVL137:
 630 02f0 089B     		ldr	r3, [sp, #32]
 131:.\DSP\Source\TransformFunctions/arm_cfft_radix8_f32.c ****          pSrc[2 * i6 + 1] = t2 - r8;
 631              		.loc 1 131 0 discriminator 1
 632 02f2 1099     		ldr	r1, [sp, #64]	@ float
 130:.\DSP\Source\TransformFunctions/arm_cfft_radix8_f32.c ****          pSrc[2 * i8 + 1] = s5 + r7;
 633              		.loc 1 130 0 discriminator 1
 634 02f4 E050     		str	r0, [r4, r3]	@ float
 635              		.loc 1 131 0 discriminator 1
 636 02f6 2846     		mov	r0, r5
 637 02f8 FFF7FEFF 		bl	__aeabi_fsub
 638              	.LVL138:
 639 02fc 039B     		ldr	r3, [sp, #12]
 132:.\DSP\Source\TransformFunctions/arm_cfft_radix8_f32.c ****          pSrc[2 * i4 + 1] = t2 + r8;
 640              		.loc 1 132 0 discriminator 1
 641 02fe 1099     		ldr	r1, [sp, #64]	@ float
 131:.\DSP\Source\TransformFunctions/arm_cfft_radix8_f32.c ****          pSrc[2 * i6 + 1] = t2 - r8;
 642              		.loc 1 131 0 discriminator 1
 643 0300 E050     		str	r0, [r4, r3]	@ float
 644              		.loc 1 132 0 discriminator 1
 645 0302 2846     		mov	r0, r5
 646 0304 FFF7FEFF 		bl	__aeabi_fadd
 647              	.LVL139:
 648 0308 029B     		ldr	r3, [sp, #8]
 133:.\DSP\Source\TransformFunctions/arm_cfft_radix8_f32.c **** 
 134:.\DSP\Source\TransformFunctions/arm_cfft_radix8_f32.c ****          i1 += n1;
 649              		.loc 1 134 0 discriminator 1
 650 030a 099A     		ldr	r2, [sp, #36]
 132:.\DSP\Source\TransformFunctions/arm_cfft_radix8_f32.c ****          pSrc[2 * i4 + 1] = t2 + r8;
 651              		.loc 1 132 0 discriminator 1
 652 030c E050     		str	r0, [r4, r3]	@ float
 653              		.loc 1 134 0 discriminator 1
 654 030e 079B     		ldr	r3, [sp, #28]
 655 0310 1344     		add	r3, r3, r2
 656 0312 0793     		str	r3, [sp, #28]
 657              	.LVL140:
 658 0314 0A9B     		ldr	r3, [sp, #40]
 659              	.LVL141:
 660 0316 9A44     		add	r10, r10, r3
 661 0318 1C44     		add	r4, r4, r3
 135:.\DSP\Source\TransformFunctions/arm_cfft_radix8_f32.c ****       } while (i1 < fftLen);
 662              		.loc 1 135 0 discriminator 1
 663 031a 079B     		ldr	r3, [sp, #28]
 664 031c 0E9A     		ldr	r2, [sp, #56]
 665 031e DDF868C0 		ldr	ip, [sp, #104]
 666 0322 9342     		cmp	r3, r2
 667 0324 199B     		ldr	r3, [sp, #100]
 668 0326 FFF49AAE 		bcc	.L2
 669              	.LVL142:
 136:.\DSP\Source\TransformFunctions/arm_cfft_radix8_f32.c **** 
 137:.\DSP\Source\TransformFunctions/arm_cfft_radix8_f32.c ****       if (n2 < 8)
ARM GAS  C:\Users\IVYLIU~1\AppData\Local\Temp\cc3ADQnL.s 			page 16


 670              		.loc 1 137 0
 671 032a 019B     		ldr	r3, [sp, #4]
 672 032c 072B     		cmp	r3, #7
 673 032e 40F28D82 		bls	.L1
 674 0332 0122     		movs	r2, #1
 675 0334 0D98     		ldr	r0, [sp, #52]
 676 0336 0B9B     		ldr	r3, [sp, #44]
 677 0338 0792     		str	r2, [sp, #28]
 678              	.LVL143:
 679              	.L5:
 138:.\DSP\Source\TransformFunctions/arm_cfft_radix8_f32.c ****          break;
 139:.\DSP\Source\TransformFunctions/arm_cfft_radix8_f32.c **** 
 140:.\DSP\Source\TransformFunctions/arm_cfft_radix8_f32.c ****       ia1 = 0;
 141:.\DSP\Source\TransformFunctions/arm_cfft_radix8_f32.c ****       j = 1;
 142:.\DSP\Source\TransformFunctions/arm_cfft_radix8_f32.c **** 
 143:.\DSP\Source\TransformFunctions/arm_cfft_radix8_f32.c ****       do
 144:.\DSP\Source\TransformFunctions/arm_cfft_radix8_f32.c ****       {
 145:.\DSP\Source\TransformFunctions/arm_cfft_radix8_f32.c ****          /*  index calculation for the coefficients */
 146:.\DSP\Source\TransformFunctions/arm_cfft_radix8_f32.c ****          id  = ia1 + twidCoefModifier;
 147:.\DSP\Source\TransformFunctions/arm_cfft_radix8_f32.c ****          ia1 = id;
 148:.\DSP\Source\TransformFunctions/arm_cfft_radix8_f32.c ****          ia2 = ia1 + id;
 149:.\DSP\Source\TransformFunctions/arm_cfft_radix8_f32.c ****          ia3 = ia2 + id;
 150:.\DSP\Source\TransformFunctions/arm_cfft_radix8_f32.c ****          ia4 = ia3 + id;
 151:.\DSP\Source\TransformFunctions/arm_cfft_radix8_f32.c ****          ia5 = ia4 + id;
 152:.\DSP\Source\TransformFunctions/arm_cfft_radix8_f32.c ****          ia6 = ia5 + id;
 153:.\DSP\Source\TransformFunctions/arm_cfft_radix8_f32.c ****          ia7 = ia6 + id;
 154:.\DSP\Source\TransformFunctions/arm_cfft_radix8_f32.c **** 
 155:.\DSP\Source\TransformFunctions/arm_cfft_radix8_f32.c ****          co2 = pCoef[2 * ia1];
 680              		.loc 1 155 0
 681 033a 5CF83320 		ldr	r2, [ip, r3, lsl #3]	@ float
 682 033e D900     		lsls	r1, r3, #3
 683 0340 0F92     		str	r2, [sp, #60]	@ float
 684              	.LVL144:
 685 0342 1A01     		lsls	r2, r3, #4
 686              	.LVL145:
 156:.\DSP\Source\TransformFunctions/arm_cfft_radix8_f32.c ****          co3 = pCoef[2 * ia2];
 687              		.loc 1 156 0
 688 0344 5CF80220 		ldr	r2, [ip, r2]	@ float
 689 0348 00F10C0A 		add	r10, r0, #12
 690 034c 1092     		str	r2, [sp, #64]	@ float
 691              	.LVL146:
 692 034e 1822     		movs	r2, #24
 693              	.LVL147:
 694 0350 5A43     		muls	r2, r3, r2
 157:.\DSP\Source\TransformFunctions/arm_cfft_radix8_f32.c ****          co4 = pCoef[2 * ia3];
 695              		.loc 1 157 0
 696 0352 5CF80220 		ldr	r2, [ip, r2]	@ float
 697 0356 1192     		str	r2, [sp, #68]	@ float
 698              	.LVL148:
 699 0358 5A01     		lsls	r2, r3, #5
 700              	.LVL149:
 158:.\DSP\Source\TransformFunctions/arm_cfft_radix8_f32.c ****          co5 = pCoef[2 * ia4];
 701              		.loc 1 158 0
 702 035a 5CF80220 		ldr	r2, [ip, r2]	@ float
 703 035e 1292     		str	r2, [sp, #72]	@ float
 704              	.LVL150:
 705 0360 2822     		movs	r2, #40
ARM GAS  C:\Users\IVYLIU~1\AppData\Local\Temp\cc3ADQnL.s 			page 17


 706              	.LVL151:
 707 0362 5A43     		muls	r2, r3, r2
 159:.\DSP\Source\TransformFunctions/arm_cfft_radix8_f32.c ****          co6 = pCoef[2 * ia5];
 708              		.loc 1 159 0
 709 0364 5CF80220 		ldr	r2, [ip, r2]	@ float
 710 0368 1392     		str	r2, [sp, #76]	@ float
 711              	.LVL152:
 712 036a 3022     		movs	r2, #48
 713              	.LVL153:
 714 036c 5A43     		muls	r2, r3, r2
 160:.\DSP\Source\TransformFunctions/arm_cfft_radix8_f32.c ****          co7 = pCoef[2 * ia6];
 715              		.loc 1 160 0
 716 036e 5CF80220 		ldr	r2, [ip, r2]	@ float
 717 0372 1492     		str	r2, [sp, #80]	@ float
 718              	.LVL154:
 719 0374 3822     		movs	r2, #56
 720              	.LVL155:
 721 0376 5A43     		muls	r2, r3, r2
 161:.\DSP\Source\TransformFunctions/arm_cfft_radix8_f32.c ****          co8 = pCoef[2 * ia7];
 722              		.loc 1 161 0
 723 0378 5CF80220 		ldr	r2, [ip, r2]	@ float
 724 037c 1592     		str	r2, [sp, #84]	@ float
 725              	.LVL156:
 726 037e 0CEB0102 		add	r2, ip, r1
 727              	.LVL157:
 162:.\DSP\Source\TransformFunctions/arm_cfft_radix8_f32.c ****          si2 = pCoef[2 * ia1 + 1];
 728              		.loc 1 162 0
 729 0382 5468     		ldr	r4, [r2, #4]	@ float
 730 0384 0A44     		add	r2, r2, r1
 731 0386 1694     		str	r4, [sp, #88]	@ float
 732              	.LVL158:
 163:.\DSP\Source\TransformFunctions/arm_cfft_radix8_f32.c ****          si3 = pCoef[2 * ia2 + 1];
 733              		.loc 1 163 0
 734 0388 5468     		ldr	r4, [r2, #4]	@ float
 735              	.LVL159:
 736 038a 0A44     		add	r2, r2, r1
 737 038c 1794     		str	r4, [sp, #92]	@ float
 738              	.LVL160:
 164:.\DSP\Source\TransformFunctions/arm_cfft_radix8_f32.c ****          si4 = pCoef[2 * ia3 + 1];
 739              		.loc 1 164 0
 740 038e 5468     		ldr	r4, [r2, #4]	@ float
 741              	.LVL161:
 742 0390 0A44     		add	r2, r2, r1
 743 0392 1894     		str	r4, [sp, #96]	@ float
 744              	.LVL162:
 165:.\DSP\Source\TransformFunctions/arm_cfft_radix8_f32.c ****          si5 = pCoef[2 * ia4 + 1];
 745              		.loc 1 165 0
 746 0394 5468     		ldr	r4, [r2, #4]	@ float
 747              	.LVL163:
 748 0396 0A44     		add	r2, r2, r1
 749 0398 1994     		str	r4, [sp, #100]	@ float
 750              	.LVL164:
 166:.\DSP\Source\TransformFunctions/arm_cfft_radix8_f32.c ****          si6 = pCoef[2 * ia5 + 1];
 751              		.loc 1 166 0
 752 039a 5468     		ldr	r4, [r2, #4]	@ float
 753              	.LVL165:
 754 039c 0A44     		add	r2, r2, r1
ARM GAS  C:\Users\IVYLIU~1\AppData\Local\Temp\cc3ADQnL.s 			page 18


 755 039e 1A94     		str	r4, [sp, #104]	@ float
 756              	.LVL166:
 167:.\DSP\Source\TransformFunctions/arm_cfft_radix8_f32.c ****          si7 = pCoef[2 * ia6 + 1];
 757              		.loc 1 167 0
 758 03a0 5468     		ldr	r4, [r2, #4]	@ float
 759              	.LVL167:
 760 03a2 0A44     		add	r2, r2, r1
 168:.\DSP\Source\TransformFunctions/arm_cfft_radix8_f32.c ****          si8 = pCoef[2 * ia7 + 1];
 761              		.loc 1 168 0
 762 03a4 5268     		ldr	r2, [r2, #4]	@ float
 167:.\DSP\Source\TransformFunctions/arm_cfft_radix8_f32.c ****          si7 = pCoef[2 * ia6 + 1];
 763              		.loc 1 167 0
 764 03a6 1B94     		str	r4, [sp, #108]	@ float
 765              	.LVL168:
 766              		.loc 1 168 0
 767 03a8 1C92     		str	r2, [sp, #112]	@ float
 768              	.LVL169:
 769 03aa 00F10802 		add	r2, r0, #8
 770              	.LVL170:
 771 03ae 1D92     		str	r2, [sp, #116]
 772 03b0 9346     		mov	fp, r2
 169:.\DSP\Source\TransformFunctions/arm_cfft_radix8_f32.c **** 
 170:.\DSP\Source\TransformFunctions/arm_cfft_radix8_f32.c ****          i1 = j;
 773              		.loc 1 170 0
 774 03b2 079A     		ldr	r2, [sp, #28]
 775 03b4 0C92     		str	r2, [sp, #48]
 776 03b6 01E0     		b	.L13
 777              	.L14:
 778              		.align	2
 779              	.L12:
 780 03b8 F304353F 		.word	1060439283
 781              	.L13:
 782              	.LVL171:
 783              	.L4:
 784 03bc 2893     		str	r3, [sp, #160]
 785              	.LVL172:
 171:.\DSP\Source\TransformFunctions/arm_cfft_radix8_f32.c **** 
 172:.\DSP\Source\TransformFunctions/arm_cfft_radix8_f32.c ****          do
 173:.\DSP\Source\TransformFunctions/arm_cfft_radix8_f32.c ****          {
 174:.\DSP\Source\TransformFunctions/arm_cfft_radix8_f32.c ****             /*  index calculation for the input */
 175:.\DSP\Source\TransformFunctions/arm_cfft_radix8_f32.c ****             i2 = i1 + n2;
 176:.\DSP\Source\TransformFunctions/arm_cfft_radix8_f32.c ****             i3 = i2 + n2;
 177:.\DSP\Source\TransformFunctions/arm_cfft_radix8_f32.c ****             i4 = i3 + n2;
 178:.\DSP\Source\TransformFunctions/arm_cfft_radix8_f32.c ****             i5 = i4 + n2;
 179:.\DSP\Source\TransformFunctions/arm_cfft_radix8_f32.c ****             i6 = i5 + n2;
 180:.\DSP\Source\TransformFunctions/arm_cfft_radix8_f32.c ****             i7 = i6 + n2;
 181:.\DSP\Source\TransformFunctions/arm_cfft_radix8_f32.c ****             i8 = i7 + n2;
 182:.\DSP\Source\TransformFunctions/arm_cfft_radix8_f32.c ****             r1 = pSrc[2 * i1] + pSrc[2 * i5];
 786              		.loc 1 182 0 discriminator 1
 787 03be 059B     		ldr	r3, [sp, #20]
 788              	.LVL173:
 789 03c0 5AF8045C 		ldr	r5, [r10, #-4]	@ float
 790 03c4 5BF80340 		ldr	r4, [fp, r3]	@ float
 791 03c8 2846     		mov	r0, r5
 792 03ca 2146     		mov	r1, r4
 793 03cc CDF8A4C0 		str	ip, [sp, #164]
 794 03d0 FFF7FEFF 		bl	__aeabi_fadd
ARM GAS  C:\Users\IVYLIU~1\AppData\Local\Temp\cc3ADQnL.s 			page 19


 795              	.LVL174:
 183:.\DSP\Source\TransformFunctions/arm_cfft_radix8_f32.c ****             r5 = pSrc[2 * i1] - pSrc[2 * i5];
 796              		.loc 1 183 0 discriminator 1
 797 03d4 2146     		mov	r1, r4
 182:.\DSP\Source\TransformFunctions/arm_cfft_radix8_f32.c ****             r5 = pSrc[2 * i1] - pSrc[2 * i5];
 798              		.loc 1 182 0 discriminator 1
 799 03d6 0746     		mov	r7, r0
 800              	.LVL175:
 801              		.loc 1 183 0 discriminator 1
 802 03d8 2846     		mov	r0, r5
 803              	.LVL176:
 804 03da FFF7FEFF 		bl	__aeabi_fsub
 805              	.LVL177:
 184:.\DSP\Source\TransformFunctions/arm_cfft_radix8_f32.c ****             r2 = pSrc[2 * i2] + pSrc[2 * i6];
 806              		.loc 1 184 0 discriminator 1
 807 03de 019B     		ldr	r3, [sp, #4]
 183:.\DSP\Source\TransformFunctions/arm_cfft_radix8_f32.c ****             r5 = pSrc[2 * i1] - pSrc[2 * i5];
 808              		.loc 1 183 0 discriminator 1
 809 03e0 1E90     		str	r0, [sp, #120]	@ float
 810              	.LVL178:
 811              		.loc 1 184 0 discriminator 1
 812 03e2 5BF83350 		ldr	r5, [fp, r3, lsl #3]	@ float
 813 03e6 039B     		ldr	r3, [sp, #12]
 814 03e8 2846     		mov	r0, r5
 815              	.LVL179:
 816 03ea 5BF80340 		ldr	r4, [fp, r3]	@ float
 817 03ee 2146     		mov	r1, r4
 818 03f0 FFF7FEFF 		bl	__aeabi_fadd
 819              	.LVL180:
 185:.\DSP\Source\TransformFunctions/arm_cfft_radix8_f32.c ****             r6 = pSrc[2 * i2] - pSrc[2 * i6];
 820              		.loc 1 185 0 discriminator 1
 821 03f4 2146     		mov	r1, r4
 184:.\DSP\Source\TransformFunctions/arm_cfft_radix8_f32.c ****             r2 = pSrc[2 * i2] + pSrc[2 * i6];
 822              		.loc 1 184 0 discriminator 1
 823 03f6 0646     		mov	r6, r0
 824              	.LVL181:
 825              		.loc 1 185 0 discriminator 1
 826 03f8 2846     		mov	r0, r5
 827              	.LVL182:
 828 03fa FFF7FEFF 		bl	__aeabi_fsub
 829              	.LVL183:
 186:.\DSP\Source\TransformFunctions/arm_cfft_radix8_f32.c ****             r3 = pSrc[2 * i3] + pSrc[2 * i7];
 830              		.loc 1 186 0 discriminator 1
 831 03fe 049B     		ldr	r3, [sp, #16]
 185:.\DSP\Source\TransformFunctions/arm_cfft_radix8_f32.c ****             r6 = pSrc[2 * i2] - pSrc[2 * i6];
 832              		.loc 1 185 0 discriminator 1
 833 0400 1F90     		str	r0, [sp, #124]	@ float
 834              	.LVL184:
 835              		.loc 1 186 0 discriminator 1
 836 0402 5BF80380 		ldr	r8, [fp, r3]	@ float
 837 0406 069B     		ldr	r3, [sp, #24]
 838 0408 4046     		mov	r0, r8
 839              	.LVL185:
 840 040a 5BF80350 		ldr	r5, [fp, r3]	@ float
 841 040e 2946     		mov	r1, r5
 842 0410 FFF7FEFF 		bl	__aeabi_fadd
 843              	.LVL186:
ARM GAS  C:\Users\IVYLIU~1\AppData\Local\Temp\cc3ADQnL.s 			page 20


 187:.\DSP\Source\TransformFunctions/arm_cfft_radix8_f32.c ****             r7 = pSrc[2 * i3] - pSrc[2 * i7];
 844              		.loc 1 187 0 discriminator 1
 845 0414 2946     		mov	r1, r5
 186:.\DSP\Source\TransformFunctions/arm_cfft_radix8_f32.c ****             r3 = pSrc[2 * i3] + pSrc[2 * i7];
 846              		.loc 1 186 0 discriminator 1
 847 0416 0446     		mov	r4, r0
 848              	.LVL187:
 849              		.loc 1 187 0 discriminator 1
 850 0418 4046     		mov	r0, r8
 851              	.LVL188:
 852 041a FFF7FEFF 		bl	__aeabi_fsub
 853              	.LVL189:
 188:.\DSP\Source\TransformFunctions/arm_cfft_radix8_f32.c ****             r4 = pSrc[2 * i4] + pSrc[2 * i8];
 854              		.loc 1 188 0 discriminator 1
 855 041e 029B     		ldr	r3, [sp, #8]
 187:.\DSP\Source\TransformFunctions/arm_cfft_radix8_f32.c ****             r7 = pSrc[2 * i3] - pSrc[2 * i7];
 856              		.loc 1 187 0 discriminator 1
 857 0420 2090     		str	r0, [sp, #128]	@ float
 858              	.LVL190:
 859              		.loc 1 188 0 discriminator 1
 860 0422 5BF80390 		ldr	r9, [fp, r3]	@ float
 861 0426 089B     		ldr	r3, [sp, #32]
 862 0428 4846     		mov	r0, r9
 863              	.LVL191:
 864 042a 5BF80380 		ldr	r8, [fp, r3]	@ float
 865 042e 4146     		mov	r1, r8
 866 0430 FFF7FEFF 		bl	__aeabi_fadd
 867              	.LVL192:
 189:.\DSP\Source\TransformFunctions/arm_cfft_radix8_f32.c ****             r8 = pSrc[2 * i4] - pSrc[2 * i8];
 868              		.loc 1 189 0 discriminator 1
 869 0434 4146     		mov	r1, r8
 188:.\DSP\Source\TransformFunctions/arm_cfft_radix8_f32.c ****             r4 = pSrc[2 * i4] + pSrc[2 * i8];
 870              		.loc 1 188 0 discriminator 1
 871 0436 0546     		mov	r5, r0
 872              	.LVL193:
 873              		.loc 1 189 0 discriminator 1
 874 0438 4846     		mov	r0, r9
 875              	.LVL194:
 876 043a FFF7FEFF 		bl	__aeabi_fsub
 877              	.LVL195:
 190:.\DSP\Source\TransformFunctions/arm_cfft_radix8_f32.c ****             t1 = r1 - r3;
 878              		.loc 1 190 0 discriminator 1
 879 043e 2146     		mov	r1, r4
 189:.\DSP\Source\TransformFunctions/arm_cfft_radix8_f32.c ****             r8 = pSrc[2 * i4] - pSrc[2 * i8];
 880              		.loc 1 189 0 discriminator 1
 881 0440 2190     		str	r0, [sp, #132]	@ float
 882              	.LVL196:
 883              		.loc 1 190 0 discriminator 1
 884 0442 3846     		mov	r0, r7
 885              	.LVL197:
 886 0444 FFF7FEFF 		bl	__aeabi_fsub
 887              	.LVL198:
 191:.\DSP\Source\TransformFunctions/arm_cfft_radix8_f32.c ****             r1 = r1 + r3;
 888              		.loc 1 191 0 discriminator 1
 889 0448 2146     		mov	r1, r4
 190:.\DSP\Source\TransformFunctions/arm_cfft_radix8_f32.c ****             t1 = r1 - r3;
 890              		.loc 1 190 0 discriminator 1
ARM GAS  C:\Users\IVYLIU~1\AppData\Local\Temp\cc3ADQnL.s 			page 21


 891 044a 8146     		mov	r9, r0
 892              	.LVL199:
 893              		.loc 1 191 0 discriminator 1
 894 044c 3846     		mov	r0, r7
 895              	.LVL200:
 896 044e FFF7FEFF 		bl	__aeabi_fadd
 897              	.LVL201:
 192:.\DSP\Source\TransformFunctions/arm_cfft_radix8_f32.c ****             r3 = r2 - r4;
 898              		.loc 1 192 0 discriminator 1
 899 0452 2946     		mov	r1, r5
 191:.\DSP\Source\TransformFunctions/arm_cfft_radix8_f32.c ****             r1 = r1 + r3;
 900              		.loc 1 191 0 discriminator 1
 901 0454 0446     		mov	r4, r0
 902              	.LVL202:
 903              		.loc 1 192 0 discriminator 1
 904 0456 3046     		mov	r0, r6
 905              	.LVL203:
 906 0458 FFF7FEFF 		bl	__aeabi_fsub
 907              	.LVL204:
 193:.\DSP\Source\TransformFunctions/arm_cfft_radix8_f32.c ****             r2 = r2 + r4;
 908              		.loc 1 193 0 discriminator 1
 909 045c 2946     		mov	r1, r5
 192:.\DSP\Source\TransformFunctions/arm_cfft_radix8_f32.c ****             r3 = r2 - r4;
 910              		.loc 1 192 0 discriminator 1
 911 045e 2290     		str	r0, [sp, #136]	@ float
 912              	.LVL205:
 913              		.loc 1 193 0 discriminator 1
 914 0460 3046     		mov	r0, r6
 915              	.LVL206:
 916 0462 FFF7FEFF 		bl	__aeabi_fadd
 917              	.LVL207:
 918 0466 0546     		mov	r5, r0
 919              	.LVL208:
 194:.\DSP\Source\TransformFunctions/arm_cfft_radix8_f32.c ****             pSrc[2 * i1] = r1 + r2;
 920              		.loc 1 194 0 discriminator 1
 921 0468 2046     		mov	r0, r4
 922              	.LVL209:
 923 046a 2946     		mov	r1, r5
 924 046c FFF7FEFF 		bl	__aeabi_fadd
 925              	.LVL210:
 195:.\DSP\Source\TransformFunctions/arm_cfft_radix8_f32.c ****             r2 = r1 - r2;
 926              		.loc 1 195 0 discriminator 1
 927 0470 2946     		mov	r1, r5
 194:.\DSP\Source\TransformFunctions/arm_cfft_radix8_f32.c ****             pSrc[2 * i1] = r1 + r2;
 928              		.loc 1 194 0 discriminator 1
 929 0472 4AF8040C 		str	r0, [r10, #-4]	@ float
 930              		.loc 1 195 0 discriminator 1
 931 0476 2046     		mov	r0, r4
 932 0478 FFF7FEFF 		bl	__aeabi_fsub
 933              	.LVL211:
 196:.\DSP\Source\TransformFunctions/arm_cfft_radix8_f32.c ****             s1 = pSrc[2 * i1 + 1] + pSrc[2 * i5 + 1];
 934              		.loc 1 196 0 discriminator 1
 935 047c 059B     		ldr	r3, [sp, #20]
 936 047e DBF80450 		ldr	r5, [fp, #4]	@ float
 937              	.LVL212:
 938 0482 5AF80340 		ldr	r4, [r10, r3]	@ float
 939              	.LVL213:
ARM GAS  C:\Users\IVYLIU~1\AppData\Local\Temp\cc3ADQnL.s 			page 22


 195:.\DSP\Source\TransformFunctions/arm_cfft_radix8_f32.c ****             r2 = r1 - r2;
 940              		.loc 1 195 0 discriminator 1
 941 0486 2390     		str	r0, [sp, #140]	@ float
 942              	.LVL214:
 943              		.loc 1 196 0 discriminator 1
 944 0488 2146     		mov	r1, r4
 945 048a 2846     		mov	r0, r5
 946              	.LVL215:
 947 048c FFF7FEFF 		bl	__aeabi_fadd
 948              	.LVL216:
 197:.\DSP\Source\TransformFunctions/arm_cfft_radix8_f32.c ****             s5 = pSrc[2 * i1 + 1] - pSrc[2 * i5 + 1];
 949              		.loc 1 197 0 discriminator 1
 950 0490 2146     		mov	r1, r4
 196:.\DSP\Source\TransformFunctions/arm_cfft_radix8_f32.c ****             s1 = pSrc[2 * i1 + 1] + pSrc[2 * i5 + 1];
 951              		.loc 1 196 0 discriminator 1
 952 0492 8046     		mov	r8, r0
 953              	.LVL217:
 954              		.loc 1 197 0 discriminator 1
 955 0494 2846     		mov	r0, r5
 956              	.LVL218:
 957 0496 FFF7FEFF 		bl	__aeabi_fsub
 958              	.LVL219:
 198:.\DSP\Source\TransformFunctions/arm_cfft_radix8_f32.c ****             s2 = pSrc[2 * i2 + 1] + pSrc[2 * i6 + 1];
 959              		.loc 1 198 0 discriminator 1
 960 049a 019B     		ldr	r3, [sp, #4]
 197:.\DSP\Source\TransformFunctions/arm_cfft_radix8_f32.c ****             s5 = pSrc[2 * i1 + 1] - pSrc[2 * i5 + 1];
 961              		.loc 1 197 0 discriminator 1
 962 049c 2490     		str	r0, [sp, #144]	@ float
 963              	.LVL220:
 964              		.loc 1 198 0 discriminator 1
 965 049e 5AF83350 		ldr	r5, [r10, r3, lsl #3]	@ float
 966 04a2 039B     		ldr	r3, [sp, #12]
 967 04a4 2846     		mov	r0, r5
 968              	.LVL221:
 969 04a6 5AF80340 		ldr	r4, [r10, r3]	@ float
 970 04aa 2146     		mov	r1, r4
 971 04ac FFF7FEFF 		bl	__aeabi_fadd
 972              	.LVL222:
 199:.\DSP\Source\TransformFunctions/arm_cfft_radix8_f32.c ****             s6 = pSrc[2 * i2 + 1] - pSrc[2 * i6 + 1];
 973              		.loc 1 199 0 discriminator 1
 974 04b0 2146     		mov	r1, r4
 198:.\DSP\Source\TransformFunctions/arm_cfft_radix8_f32.c ****             s2 = pSrc[2 * i2 + 1] + pSrc[2 * i6 + 1];
 975              		.loc 1 198 0 discriminator 1
 976 04b2 0646     		mov	r6, r0
 977              	.LVL223:
 978              		.loc 1 199 0 discriminator 1
 979 04b4 2846     		mov	r0, r5
 980              	.LVL224:
 981 04b6 FFF7FEFF 		bl	__aeabi_fsub
 982              	.LVL225:
 200:.\DSP\Source\TransformFunctions/arm_cfft_radix8_f32.c ****             s3 = pSrc[2 * i3 + 1] + pSrc[2 * i7 + 1];
 983              		.loc 1 200 0 discriminator 1
 984 04ba 049B     		ldr	r3, [sp, #16]
 199:.\DSP\Source\TransformFunctions/arm_cfft_radix8_f32.c ****             s6 = pSrc[2 * i2 + 1] - pSrc[2 * i6 + 1];
 985              		.loc 1 199 0 discriminator 1
 986 04bc 2590     		str	r0, [sp, #148]	@ float
 987              	.LVL226:
ARM GAS  C:\Users\IVYLIU~1\AppData\Local\Temp\cc3ADQnL.s 			page 23


 988              		.loc 1 200 0 discriminator 1
 989 04be 5AF80350 		ldr	r5, [r10, r3]	@ float
 990 04c2 069B     		ldr	r3, [sp, #24]
 991 04c4 2846     		mov	r0, r5
 992              	.LVL227:
 993 04c6 5AF80340 		ldr	r4, [r10, r3]	@ float
 994 04ca 2146     		mov	r1, r4
 995 04cc FFF7FEFF 		bl	__aeabi_fadd
 996              	.LVL228:
 201:.\DSP\Source\TransformFunctions/arm_cfft_radix8_f32.c ****             s7 = pSrc[2 * i3 + 1] - pSrc[2 * i7 + 1];
 997              		.loc 1 201 0 discriminator 1
 998 04d0 2146     		mov	r1, r4
 200:.\DSP\Source\TransformFunctions/arm_cfft_radix8_f32.c ****             s3 = pSrc[2 * i3 + 1] + pSrc[2 * i7 + 1];
 999              		.loc 1 200 0 discriminator 1
 1000 04d2 0746     		mov	r7, r0
 1001              	.LVL229:
 1002              		.loc 1 201 0 discriminator 1
 1003 04d4 2846     		mov	r0, r5
 1004              	.LVL230:
 1005 04d6 FFF7FEFF 		bl	__aeabi_fsub
 1006              	.LVL231:
 202:.\DSP\Source\TransformFunctions/arm_cfft_radix8_f32.c ****             s4 = pSrc[2 * i4 + 1] + pSrc[2 * i8 + 1];
 1007              		.loc 1 202 0 discriminator 1
 1008 04da 029B     		ldr	r3, [sp, #8]
 201:.\DSP\Source\TransformFunctions/arm_cfft_radix8_f32.c ****             s7 = pSrc[2 * i3 + 1] - pSrc[2 * i7 + 1];
 1009              		.loc 1 201 0 discriminator 1
 1010 04dc 2690     		str	r0, [sp, #152]	@ float
 1011              	.LVL232:
 1012              		.loc 1 202 0 discriminator 1
 1013 04de 5AF80320 		ldr	r2, [r10, r3]	@ float
 1014 04e2 089B     		ldr	r3, [sp, #32]
 1015 04e4 1046     		mov	r0, r2
 1016              	.LVL233:
 1017 04e6 5AF80350 		ldr	r5, [r10, r3]	@ float
 1018 04ea 2792     		str	r2, [sp, #156]
 1019 04ec 2946     		mov	r1, r5
 1020 04ee FFF7FEFF 		bl	__aeabi_fadd
 1021              	.LVL234:
 203:.\DSP\Source\TransformFunctions/arm_cfft_radix8_f32.c ****             s8 = pSrc[2 * i4 + 1] - pSrc[2 * i8 + 1];
 1022              		.loc 1 203 0 discriminator 1
 1023 04f2 279A     		ldr	r2, [sp, #156]
 202:.\DSP\Source\TransformFunctions/arm_cfft_radix8_f32.c ****             s4 = pSrc[2 * i4 + 1] + pSrc[2 * i8 + 1];
 1024              		.loc 1 202 0 discriminator 1
 1025 04f4 0446     		mov	r4, r0
 1026              	.LVL235:
 1027              		.loc 1 203 0 discriminator 1
 1028 04f6 2946     		mov	r1, r5
 1029 04f8 1046     		mov	r0, r2
 1030              	.LVL236:
 1031 04fa FFF7FEFF 		bl	__aeabi_fsub
 1032              	.LVL237:
 204:.\DSP\Source\TransformFunctions/arm_cfft_radix8_f32.c ****             t2 = s1 - s3;
 1033              		.loc 1 204 0 discriminator 1
 1034 04fe 3946     		mov	r1, r7
 203:.\DSP\Source\TransformFunctions/arm_cfft_radix8_f32.c ****             s8 = pSrc[2 * i4 + 1] - pSrc[2 * i8 + 1];
 1035              		.loc 1 203 0 discriminator 1
 1036 0500 2790     		str	r0, [sp, #156]	@ float
ARM GAS  C:\Users\IVYLIU~1\AppData\Local\Temp\cc3ADQnL.s 			page 24


 1037              	.LVL238:
 1038              		.loc 1 204 0 discriminator 1
 1039 0502 4046     		mov	r0, r8
 1040              	.LVL239:
 1041 0504 FFF7FEFF 		bl	__aeabi_fsub
 1042              	.LVL240:
 205:.\DSP\Source\TransformFunctions/arm_cfft_radix8_f32.c ****             s1 = s1 + s3;
 1043              		.loc 1 205 0 discriminator 1
 1044 0508 3946     		mov	r1, r7
 204:.\DSP\Source\TransformFunctions/arm_cfft_radix8_f32.c ****             t2 = s1 - s3;
 1045              		.loc 1 204 0 discriminator 1
 1046 050a 0546     		mov	r5, r0
 1047              	.LVL241:
 1048              		.loc 1 205 0 discriminator 1
 1049 050c 4046     		mov	r0, r8
 1050              	.LVL242:
 1051 050e FFF7FEFF 		bl	__aeabi_fadd
 1052              	.LVL243:
 206:.\DSP\Source\TransformFunctions/arm_cfft_radix8_f32.c ****             s3 = s2 - s4;
 1053              		.loc 1 206 0 discriminator 1
 1054 0512 2146     		mov	r1, r4
 205:.\DSP\Source\TransformFunctions/arm_cfft_radix8_f32.c ****             s1 = s1 + s3;
 1055              		.loc 1 205 0 discriminator 1
 1056 0514 0746     		mov	r7, r0
 1057              	.LVL244:
 1058              		.loc 1 206 0 discriminator 1
 1059 0516 3046     		mov	r0, r6
 1060              	.LVL245:
 1061 0518 FFF7FEFF 		bl	__aeabi_fsub
 1062              	.LVL246:
 207:.\DSP\Source\TransformFunctions/arm_cfft_radix8_f32.c ****             s2 = s2 + s4;
 1063              		.loc 1 207 0 discriminator 1
 1064 051c 2146     		mov	r1, r4
 206:.\DSP\Source\TransformFunctions/arm_cfft_radix8_f32.c ****             s3 = s2 - s4;
 1065              		.loc 1 206 0 discriminator 1
 1066 051e 8046     		mov	r8, r0
 1067              	.LVL247:
 1068              		.loc 1 207 0 discriminator 1
 1069 0520 3046     		mov	r0, r6
 1070              	.LVL248:
 1071 0522 FFF7FEFF 		bl	__aeabi_fadd
 1072              	.LVL249:
 208:.\DSP\Source\TransformFunctions/arm_cfft_radix8_f32.c ****             r1 = t1 + s3;
 1073              		.loc 1 208 0 discriminator 1
 1074 0526 4146     		mov	r1, r8
 207:.\DSP\Source\TransformFunctions/arm_cfft_radix8_f32.c ****             s2 = s2 + s4;
 1075              		.loc 1 207 0 discriminator 1
 1076 0528 0646     		mov	r6, r0
 1077              	.LVL250:
 1078              		.loc 1 208 0 discriminator 1
 1079 052a 4846     		mov	r0, r9
 1080              	.LVL251:
 1081 052c FFF7FEFF 		bl	__aeabi_fadd
 1082              	.LVL252:
 209:.\DSP\Source\TransformFunctions/arm_cfft_radix8_f32.c ****             t1 = t1 - s3;
 1083              		.loc 1 209 0 discriminator 1
 1084 0530 4146     		mov	r1, r8
ARM GAS  C:\Users\IVYLIU~1\AppData\Local\Temp\cc3ADQnL.s 			page 25


 208:.\DSP\Source\TransformFunctions/arm_cfft_radix8_f32.c ****             r1 = t1 + s3;
 1085              		.loc 1 208 0 discriminator 1
 1086 0532 0446     		mov	r4, r0
 1087              	.LVL253:
 1088              		.loc 1 209 0 discriminator 1
 1089 0534 4846     		mov	r0, r9
 1090              	.LVL254:
 1091 0536 FFF7FEFF 		bl	__aeabi_fsub
 1092              	.LVL255:
 210:.\DSP\Source\TransformFunctions/arm_cfft_radix8_f32.c ****             pSrc[2 * i1 + 1] = s1 + s2;
 1093              		.loc 1 210 0 discriminator 1
 1094 053a 3146     		mov	r1, r6
 209:.\DSP\Source\TransformFunctions/arm_cfft_radix8_f32.c ****             t1 = t1 - s3;
 1095              		.loc 1 209 0 discriminator 1
 1096 053c 8046     		mov	r8, r0
 1097              	.LVL256:
 1098              		.loc 1 210 0 discriminator 1
 1099 053e 3846     		mov	r0, r7
 1100              	.LVL257:
 1101 0540 FFF7FEFF 		bl	__aeabi_fadd
 1102              	.LVL258:
 211:.\DSP\Source\TransformFunctions/arm_cfft_radix8_f32.c ****             s2 = s1 - s2;
 1103              		.loc 1 211 0 discriminator 1
 1104 0544 3146     		mov	r1, r6
 210:.\DSP\Source\TransformFunctions/arm_cfft_radix8_f32.c ****             pSrc[2 * i1 + 1] = s1 + s2;
 1105              		.loc 1 210 0 discriminator 1
 1106 0546 CBF80400 		str	r0, [fp, #4]	@ float
 1107              		.loc 1 211 0 discriminator 1
 1108 054a 3846     		mov	r0, r7
 1109 054c FFF7FEFF 		bl	__aeabi_fsub
 1110              	.LVL259:
 212:.\DSP\Source\TransformFunctions/arm_cfft_radix8_f32.c ****             s1 = t2 - r3;
 1111              		.loc 1 212 0 discriminator 1
 1112 0550 2299     		ldr	r1, [sp, #136]	@ float
 211:.\DSP\Source\TransformFunctions/arm_cfft_radix8_f32.c ****             s2 = s1 - s2;
 1113              		.loc 1 211 0 discriminator 1
 1114 0552 0746     		mov	r7, r0
 1115              	.LVL260:
 1116              		.loc 1 212 0 discriminator 1
 1117 0554 2846     		mov	r0, r5
 1118              	.LVL261:
 1119 0556 FFF7FEFF 		bl	__aeabi_fsub
 1120              	.LVL262:
 213:.\DSP\Source\TransformFunctions/arm_cfft_radix8_f32.c ****             t2 = t2 + r3;
 1121              		.loc 1 213 0 discriminator 1
 1122 055a 2299     		ldr	r1, [sp, #136]	@ float
 212:.\DSP\Source\TransformFunctions/arm_cfft_radix8_f32.c ****             s1 = t2 - r3;
 1123              		.loc 1 212 0 discriminator 1
 1124 055c 0646     		mov	r6, r0
 1125              	.LVL263:
 1126              		.loc 1 213 0 discriminator 1
 1127 055e 2846     		mov	r0, r5
 1128              	.LVL264:
 1129 0560 FFF7FEFF 		bl	__aeabi_fadd
 1130              	.LVL265:
 1131 0564 0546     		mov	r5, r0
 1132              	.LVL266:
ARM GAS  C:\Users\IVYLIU~1\AppData\Local\Temp\cc3ADQnL.s 			page 26


 214:.\DSP\Source\TransformFunctions/arm_cfft_radix8_f32.c ****             p1 = co5 * r2;
 1133              		.loc 1 214 0 discriminator 1
 1134 0566 1298     		ldr	r0, [sp, #72]	@ float
 1135              	.LVL267:
 1136 0568 2399     		ldr	r1, [sp, #140]	@ float
 1137 056a FFF7FEFF 		bl	__aeabi_fmul
 1138              	.LVL268:
 215:.\DSP\Source\TransformFunctions/arm_cfft_radix8_f32.c ****             p2 = si5 * s2;
 1139              		.loc 1 215 0 discriminator 1
 1140 056e 3946     		mov	r1, r7
 214:.\DSP\Source\TransformFunctions/arm_cfft_radix8_f32.c ****             p1 = co5 * r2;
 1141              		.loc 1 214 0 discriminator 1
 1142 0570 8146     		mov	r9, r0
 1143              		.loc 1 215 0 discriminator 1
 1144 0572 1998     		ldr	r0, [sp, #100]	@ float
 1145 0574 FFF7FEFF 		bl	__aeabi_fmul
 1146              	.LVL269:
 1147 0578 0146     		mov	r1, r0
 216:.\DSP\Source\TransformFunctions/arm_cfft_radix8_f32.c ****             p3 = co5 * s2;
 217:.\DSP\Source\TransformFunctions/arm_cfft_radix8_f32.c ****             p4 = si5 * r2;
 218:.\DSP\Source\TransformFunctions/arm_cfft_radix8_f32.c ****             pSrc[2 * i5]     = p1 + p2;
 1148              		.loc 1 218 0 discriminator 1
 1149 057a 4846     		mov	r0, r9
 1150 057c FFF7FEFF 		bl	__aeabi_fadd
 1151              	.LVL270:
 1152 0580 059B     		ldr	r3, [sp, #20]
 216:.\DSP\Source\TransformFunctions/arm_cfft_radix8_f32.c ****             p3 = co5 * s2;
 1153              		.loc 1 216 0 discriminator 1
 1154 0582 3946     		mov	r1, r7
 1155              		.loc 1 218 0 discriminator 1
 1156 0584 4BF80300 		str	r0, [fp, r3]	@ float
 216:.\DSP\Source\TransformFunctions/arm_cfft_radix8_f32.c ****             p3 = co5 * s2;
 1157              		.loc 1 216 0 discriminator 1
 1158 0588 1298     		ldr	r0, [sp, #72]	@ float
 1159 058a FFF7FEFF 		bl	__aeabi_fmul
 1160              	.LVL271:
 217:.\DSP\Source\TransformFunctions/arm_cfft_radix8_f32.c ****             pSrc[2 * i5]     = p1 + p2;
 1161              		.loc 1 217 0 discriminator 1
 1162 058e 2399     		ldr	r1, [sp, #140]	@ float
 216:.\DSP\Source\TransformFunctions/arm_cfft_radix8_f32.c ****             p3 = co5 * s2;
 1163              		.loc 1 216 0 discriminator 1
 1164 0590 0746     		mov	r7, r0
 1165              	.LVL272:
 217:.\DSP\Source\TransformFunctions/arm_cfft_radix8_f32.c ****             pSrc[2 * i5]     = p1 + p2;
 1166              		.loc 1 217 0 discriminator 1
 1167 0592 1998     		ldr	r0, [sp, #100]	@ float
 1168 0594 FFF7FEFF 		bl	__aeabi_fmul
 1169              	.LVL273:
 1170 0598 0146     		mov	r1, r0
 219:.\DSP\Source\TransformFunctions/arm_cfft_radix8_f32.c ****             pSrc[2 * i5 + 1] = p3 - p4;
 1171              		.loc 1 219 0 discriminator 1
 1172 059a 3846     		mov	r0, r7
 1173 059c FFF7FEFF 		bl	__aeabi_fsub
 1174              	.LVL274:
 1175 05a0 059B     		ldr	r3, [sp, #20]
 220:.\DSP\Source\TransformFunctions/arm_cfft_radix8_f32.c ****             p1 = co3 * r1;
 1176              		.loc 1 220 0 discriminator 1
ARM GAS  C:\Users\IVYLIU~1\AppData\Local\Temp\cc3ADQnL.s 			page 27


 1177 05a2 2146     		mov	r1, r4
 219:.\DSP\Source\TransformFunctions/arm_cfft_radix8_f32.c ****             pSrc[2 * i5 + 1] = p3 - p4;
 1178              		.loc 1 219 0 discriminator 1
 1179 05a4 4AF80300 		str	r0, [r10, r3]	@ float
 1180              	.LVL275:
 1181              		.loc 1 220 0 discriminator 1
 1182 05a8 1098     		ldr	r0, [sp, #64]	@ float
 1183 05aa FFF7FEFF 		bl	__aeabi_fmul
 1184              	.LVL276:
 221:.\DSP\Source\TransformFunctions/arm_cfft_radix8_f32.c ****             p2 = si3 * s1;
 1185              		.loc 1 221 0 discriminator 1
 1186 05ae 3146     		mov	r1, r6
 220:.\DSP\Source\TransformFunctions/arm_cfft_radix8_f32.c ****             p1 = co3 * r1;
 1187              		.loc 1 220 0 discriminator 1
 1188 05b0 0746     		mov	r7, r0
 1189              		.loc 1 221 0 discriminator 1
 1190 05b2 1798     		ldr	r0, [sp, #92]	@ float
 1191 05b4 FFF7FEFF 		bl	__aeabi_fmul
 1192              	.LVL277:
 1193 05b8 0146     		mov	r1, r0
 222:.\DSP\Source\TransformFunctions/arm_cfft_radix8_f32.c ****             p3 = co3 * s1;
 223:.\DSP\Source\TransformFunctions/arm_cfft_radix8_f32.c ****             p4 = si3 * r1;
 224:.\DSP\Source\TransformFunctions/arm_cfft_radix8_f32.c ****             pSrc[2 * i3]     = p1 + p2;
 1194              		.loc 1 224 0 discriminator 1
 1195 05ba 3846     		mov	r0, r7
 1196 05bc FFF7FEFF 		bl	__aeabi_fadd
 1197              	.LVL278:
 1198 05c0 049B     		ldr	r3, [sp, #16]
 222:.\DSP\Source\TransformFunctions/arm_cfft_radix8_f32.c ****             p3 = co3 * s1;
 1199              		.loc 1 222 0 discriminator 1
 1200 05c2 3146     		mov	r1, r6
 1201              		.loc 1 224 0 discriminator 1
 1202 05c4 4BF80300 		str	r0, [fp, r3]	@ float
 222:.\DSP\Source\TransformFunctions/arm_cfft_radix8_f32.c ****             p3 = co3 * s1;
 1203              		.loc 1 222 0 discriminator 1
 1204 05c8 1098     		ldr	r0, [sp, #64]	@ float
 1205 05ca FFF7FEFF 		bl	__aeabi_fmul
 1206              	.LVL279:
 223:.\DSP\Source\TransformFunctions/arm_cfft_radix8_f32.c ****             pSrc[2 * i3]     = p1 + p2;
 1207              		.loc 1 223 0 discriminator 1
 1208 05ce 2146     		mov	r1, r4
 222:.\DSP\Source\TransformFunctions/arm_cfft_radix8_f32.c ****             p3 = co3 * s1;
 1209              		.loc 1 222 0 discriminator 1
 1210 05d0 0646     		mov	r6, r0
 1211              	.LVL280:
 223:.\DSP\Source\TransformFunctions/arm_cfft_radix8_f32.c ****             pSrc[2 * i3]     = p1 + p2;
 1212              		.loc 1 223 0 discriminator 1
 1213 05d2 1798     		ldr	r0, [sp, #92]	@ float
 1214 05d4 FFF7FEFF 		bl	__aeabi_fmul
 1215              	.LVL281:
 1216 05d8 0146     		mov	r1, r0
 225:.\DSP\Source\TransformFunctions/arm_cfft_radix8_f32.c ****             pSrc[2 * i3 + 1] = p3 - p4;
 1217              		.loc 1 225 0 discriminator 1
 1218 05da 3046     		mov	r0, r6
 1219 05dc FFF7FEFF 		bl	__aeabi_fsub
 1220              	.LVL282:
 1221 05e0 049B     		ldr	r3, [sp, #16]
ARM GAS  C:\Users\IVYLIU~1\AppData\Local\Temp\cc3ADQnL.s 			page 28


 226:.\DSP\Source\TransformFunctions/arm_cfft_radix8_f32.c ****             p1 = co7 * t1;
 1222              		.loc 1 226 0 discriminator 1
 1223 05e2 4146     		mov	r1, r8
 225:.\DSP\Source\TransformFunctions/arm_cfft_radix8_f32.c ****             pSrc[2 * i3 + 1] = p3 - p4;
 1224              		.loc 1 225 0 discriminator 1
 1225 05e4 4AF80300 		str	r0, [r10, r3]	@ float
 1226              	.LVL283:
 1227              		.loc 1 226 0 discriminator 1
 1228 05e8 1498     		ldr	r0, [sp, #80]	@ float
 1229 05ea FFF7FEFF 		bl	__aeabi_fmul
 1230              	.LVL284:
 227:.\DSP\Source\TransformFunctions/arm_cfft_radix8_f32.c ****             p2 = si7 * t2;
 1231              		.loc 1 227 0 discriminator 1
 1232 05ee 2946     		mov	r1, r5
 226:.\DSP\Source\TransformFunctions/arm_cfft_radix8_f32.c ****             p1 = co7 * t1;
 1233              		.loc 1 226 0 discriminator 1
 1234 05f0 0446     		mov	r4, r0
 1235              	.LVL285:
 1236              		.loc 1 227 0 discriminator 1
 1237 05f2 1B98     		ldr	r0, [sp, #108]	@ float
 1238 05f4 FFF7FEFF 		bl	__aeabi_fmul
 1239              	.LVL286:
 1240 05f8 0146     		mov	r1, r0
 228:.\DSP\Source\TransformFunctions/arm_cfft_radix8_f32.c ****             p3 = co7 * t2;
 229:.\DSP\Source\TransformFunctions/arm_cfft_radix8_f32.c ****             p4 = si7 * t1;
 230:.\DSP\Source\TransformFunctions/arm_cfft_radix8_f32.c ****             pSrc[2 * i7]     = p1 + p2;
 1241              		.loc 1 230 0 discriminator 1
 1242 05fa 2046     		mov	r0, r4
 1243 05fc FFF7FEFF 		bl	__aeabi_fadd
 1244              	.LVL287:
 1245 0600 069B     		ldr	r3, [sp, #24]
 228:.\DSP\Source\TransformFunctions/arm_cfft_radix8_f32.c ****             p3 = co7 * t2;
 1246              		.loc 1 228 0 discriminator 1
 1247 0602 2946     		mov	r1, r5
 1248              		.loc 1 230 0 discriminator 1
 1249 0604 4BF80300 		str	r0, [fp, r3]	@ float
 228:.\DSP\Source\TransformFunctions/arm_cfft_radix8_f32.c ****             p3 = co7 * t2;
 1250              		.loc 1 228 0 discriminator 1
 1251 0608 1498     		ldr	r0, [sp, #80]	@ float
 1252 060a FFF7FEFF 		bl	__aeabi_fmul
 1253              	.LVL288:
 229:.\DSP\Source\TransformFunctions/arm_cfft_radix8_f32.c ****             pSrc[2 * i7]     = p1 + p2;
 1254              		.loc 1 229 0 discriminator 1
 1255 060e 4146     		mov	r1, r8
 228:.\DSP\Source\TransformFunctions/arm_cfft_radix8_f32.c ****             p3 = co7 * t2;
 1256              		.loc 1 228 0 discriminator 1
 1257 0610 0446     		mov	r4, r0
 229:.\DSP\Source\TransformFunctions/arm_cfft_radix8_f32.c ****             pSrc[2 * i7]     = p1 + p2;
 1258              		.loc 1 229 0 discriminator 1
 1259 0612 1B98     		ldr	r0, [sp, #108]	@ float
 1260 0614 FFF7FEFF 		bl	__aeabi_fmul
 1261              	.LVL289:
 1262 0618 0146     		mov	r1, r0
 231:.\DSP\Source\TransformFunctions/arm_cfft_radix8_f32.c ****             pSrc[2 * i7 + 1] = p3 - p4;
 1263              		.loc 1 231 0 discriminator 1
 1264 061a 2046     		mov	r0, r4
 1265 061c FFF7FEFF 		bl	__aeabi_fsub
ARM GAS  C:\Users\IVYLIU~1\AppData\Local\Temp\cc3ADQnL.s 			page 29


 1266              	.LVL290:
 1267 0620 069B     		ldr	r3, [sp, #24]
 232:.\DSP\Source\TransformFunctions/arm_cfft_radix8_f32.c ****             r1 = (r6 - r8) * C81;
 1268              		.loc 1 232 0 discriminator 1
 1269 0622 2199     		ldr	r1, [sp, #132]	@ float
 231:.\DSP\Source\TransformFunctions/arm_cfft_radix8_f32.c ****             pSrc[2 * i7 + 1] = p3 - p4;
 1270              		.loc 1 231 0 discriminator 1
 1271 0624 4AF80300 		str	r0, [r10, r3]	@ float
 1272              		.loc 1 232 0 discriminator 1
 1273 0628 1F98     		ldr	r0, [sp, #124]	@ float
 1274 062a FFF7FEFF 		bl	__aeabi_fsub
 1275              	.LVL291:
 1276 062e 8949     		ldr	r1, .L15
 1277 0630 FFF7FEFF 		bl	__aeabi_fmul
 1278              	.LVL292:
 233:.\DSP\Source\TransformFunctions/arm_cfft_radix8_f32.c ****             r6 = (r6 + r8) * C81;
 1279              		.loc 1 233 0 discriminator 1
 1280 0634 2199     		ldr	r1, [sp, #132]	@ float
 232:.\DSP\Source\TransformFunctions/arm_cfft_radix8_f32.c ****             r1 = (r6 - r8) * C81;
 1281              		.loc 1 232 0 discriminator 1
 1282 0636 0446     		mov	r4, r0
 1283              	.LVL293:
 1284              		.loc 1 233 0 discriminator 1
 1285 0638 1F98     		ldr	r0, [sp, #124]	@ float
 1286              	.LVL294:
 1287 063a FFF7FEFF 		bl	__aeabi_fadd
 1288              	.LVL295:
 1289 063e 8549     		ldr	r1, .L15
 1290 0640 FFF7FEFF 		bl	__aeabi_fmul
 1291              	.LVL296:
 234:.\DSP\Source\TransformFunctions/arm_cfft_radix8_f32.c ****             s1 = (s6 - s8) * C81;
 1292              		.loc 1 234 0 discriminator 1
 1293 0644 2799     		ldr	r1, [sp, #156]	@ float
 233:.\DSP\Source\TransformFunctions/arm_cfft_radix8_f32.c ****             r6 = (r6 + r8) * C81;
 1294              		.loc 1 233 0 discriminator 1
 1295 0646 0746     		mov	r7, r0
 1296              	.LVL297:
 1297              		.loc 1 234 0 discriminator 1
 1298 0648 2598     		ldr	r0, [sp, #148]	@ float
 1299              	.LVL298:
 1300 064a FFF7FEFF 		bl	__aeabi_fsub
 1301              	.LVL299:
 1302 064e 8149     		ldr	r1, .L15
 1303 0650 FFF7FEFF 		bl	__aeabi_fmul
 1304              	.LVL300:
 235:.\DSP\Source\TransformFunctions/arm_cfft_radix8_f32.c ****             s6 = (s6 + s8) * C81;
 1305              		.loc 1 235 0 discriminator 1
 1306 0654 2799     		ldr	r1, [sp, #156]	@ float
 234:.\DSP\Source\TransformFunctions/arm_cfft_radix8_f32.c ****             s1 = (s6 - s8) * C81;
 1307              		.loc 1 234 0 discriminator 1
 1308 0656 8146     		mov	r9, r0
 1309              	.LVL301:
 1310              		.loc 1 235 0 discriminator 1
 1311 0658 2598     		ldr	r0, [sp, #148]	@ float
 1312              	.LVL302:
 1313 065a FFF7FEFF 		bl	__aeabi_fadd
 1314              	.LVL303:
ARM GAS  C:\Users\IVYLIU~1\AppData\Local\Temp\cc3ADQnL.s 			page 30


 1315 065e 7D49     		ldr	r1, .L15
 1316 0660 FFF7FEFF 		bl	__aeabi_fmul
 1317              	.LVL304:
 236:.\DSP\Source\TransformFunctions/arm_cfft_radix8_f32.c ****             t1 = r5 - r1;
 1318              		.loc 1 236 0 discriminator 1
 1319 0664 2146     		mov	r1, r4
 235:.\DSP\Source\TransformFunctions/arm_cfft_radix8_f32.c ****             s6 = (s6 + s8) * C81;
 1320              		.loc 1 235 0 discriminator 1
 1321 0666 0546     		mov	r5, r0
 1322              	.LVL305:
 1323              		.loc 1 236 0 discriminator 1
 1324 0668 1E98     		ldr	r0, [sp, #120]	@ float
 1325              	.LVL306:
 1326 066a FFF7FEFF 		bl	__aeabi_fsub
 1327              	.LVL307:
 237:.\DSP\Source\TransformFunctions/arm_cfft_radix8_f32.c ****             r5 = r5 + r1;
 1328              		.loc 1 237 0 discriminator 1
 1329 066e 2146     		mov	r1, r4
 236:.\DSP\Source\TransformFunctions/arm_cfft_radix8_f32.c ****             t1 = r5 - r1;
 1330              		.loc 1 236 0 discriminator 1
 1331 0670 1F90     		str	r0, [sp, #124]	@ float
 1332              	.LVL308:
 1333              		.loc 1 237 0 discriminator 1
 1334 0672 1E98     		ldr	r0, [sp, #120]	@ float
 1335              	.LVL309:
 1336 0674 FFF7FEFF 		bl	__aeabi_fadd
 1337              	.LVL310:
 238:.\DSP\Source\TransformFunctions/arm_cfft_radix8_f32.c ****             r8 = r7 - r6;
 1338              		.loc 1 238 0 discriminator 1
 1339 0678 3946     		mov	r1, r7
 237:.\DSP\Source\TransformFunctions/arm_cfft_radix8_f32.c ****             r5 = r5 + r1;
 1340              		.loc 1 237 0 discriminator 1
 1341 067a 0446     		mov	r4, r0
 1342              	.LVL311:
 1343              		.loc 1 238 0 discriminator 1
 1344 067c 2098     		ldr	r0, [sp, #128]	@ float
 1345              	.LVL312:
 1346 067e FFF7FEFF 		bl	__aeabi_fsub
 1347              	.LVL313:
 239:.\DSP\Source\TransformFunctions/arm_cfft_radix8_f32.c ****             r7 = r7 + r6;
 1348              		.loc 1 239 0 discriminator 1
 1349 0682 3946     		mov	r1, r7
 238:.\DSP\Source\TransformFunctions/arm_cfft_radix8_f32.c ****             r8 = r7 - r6;
 1350              		.loc 1 238 0 discriminator 1
 1351 0684 0646     		mov	r6, r0
 1352              	.LVL314:
 1353              		.loc 1 239 0 discriminator 1
 1354 0686 2098     		ldr	r0, [sp, #128]	@ float
 1355              	.LVL315:
 1356 0688 FFF7FEFF 		bl	__aeabi_fadd
 1357              	.LVL316:
 240:.\DSP\Source\TransformFunctions/arm_cfft_radix8_f32.c ****             t2 = s5 - s1;
 1358              		.loc 1 240 0 discriminator 1
 1359 068c 4946     		mov	r1, r9
 239:.\DSP\Source\TransformFunctions/arm_cfft_radix8_f32.c ****             r7 = r7 + r6;
 1360              		.loc 1 239 0 discriminator 1
 1361 068e 8046     		mov	r8, r0
ARM GAS  C:\Users\IVYLIU~1\AppData\Local\Temp\cc3ADQnL.s 			page 31


 1362              	.LVL317:
 1363              		.loc 1 240 0 discriminator 1
 1364 0690 2498     		ldr	r0, [sp, #144]	@ float
 1365              	.LVL318:
 1366 0692 FFF7FEFF 		bl	__aeabi_fsub
 1367              	.LVL319:
 241:.\DSP\Source\TransformFunctions/arm_cfft_radix8_f32.c ****             s5 = s5 + s1;
 1368              		.loc 1 241 0 discriminator 1
 1369 0696 4946     		mov	r1, r9
 240:.\DSP\Source\TransformFunctions/arm_cfft_radix8_f32.c ****             t2 = s5 - s1;
 1370              		.loc 1 240 0 discriminator 1
 1371 0698 0746     		mov	r7, r0
 1372              	.LVL320:
 1373              		.loc 1 241 0 discriminator 1
 1374 069a 2498     		ldr	r0, [sp, #144]	@ float
 1375              	.LVL321:
 1376 069c FFF7FEFF 		bl	__aeabi_fadd
 1377              	.LVL322:
 242:.\DSP\Source\TransformFunctions/arm_cfft_radix8_f32.c ****             s8 = s7 - s6;
 1378              		.loc 1 242 0 discriminator 1
 1379 06a0 2946     		mov	r1, r5
 241:.\DSP\Source\TransformFunctions/arm_cfft_radix8_f32.c ****             s5 = s5 + s1;
 1380              		.loc 1 241 0 discriminator 1
 1381 06a2 8146     		mov	r9, r0
 1382              	.LVL323:
 1383              		.loc 1 242 0 discriminator 1
 1384 06a4 2698     		ldr	r0, [sp, #152]	@ float
 1385              	.LVL324:
 1386 06a6 FFF7FEFF 		bl	__aeabi_fsub
 1387              	.LVL325:
 243:.\DSP\Source\TransformFunctions/arm_cfft_radix8_f32.c ****             s7 = s7 + s6;
 1388              		.loc 1 243 0 discriminator 1
 1389 06aa 2946     		mov	r1, r5
 242:.\DSP\Source\TransformFunctions/arm_cfft_radix8_f32.c ****             s8 = s7 - s6;
 1390              		.loc 1 242 0 discriminator 1
 1391 06ac 1E90     		str	r0, [sp, #120]	@ float
 1392              	.LVL326:
 1393              		.loc 1 243 0 discriminator 1
 1394 06ae 2698     		ldr	r0, [sp, #152]	@ float
 1395              	.LVL327:
 1396 06b0 FFF7FEFF 		bl	__aeabi_fadd
 1397              	.LVL328:
 1398 06b4 0246     		mov	r2, r0
 1399              	.LVL329:
 244:.\DSP\Source\TransformFunctions/arm_cfft_radix8_f32.c ****             r1 = r5 + s7;
 1400              		.loc 1 244 0 discriminator 1
 1401 06b6 2046     		mov	r0, r4
 1402              	.LVL330:
 1403 06b8 1146     		mov	r1, r2
 1404 06ba 2092     		str	r2, [sp, #128]
 1405 06bc FFF7FEFF 		bl	__aeabi_fadd
 1406              	.LVL331:
 245:.\DSP\Source\TransformFunctions/arm_cfft_radix8_f32.c ****             r5 = r5 - s7;
 1407              		.loc 1 245 0 discriminator 1
 1408 06c0 209A     		ldr	r2, [sp, #128]
 244:.\DSP\Source\TransformFunctions/arm_cfft_radix8_f32.c ****             r1 = r5 + s7;
 1409              		.loc 1 244 0 discriminator 1
ARM GAS  C:\Users\IVYLIU~1\AppData\Local\Temp\cc3ADQnL.s 			page 32


 1410 06c2 0546     		mov	r5, r0
 1411              	.LVL332:
 1412              		.loc 1 245 0 discriminator 1
 1413 06c4 1146     		mov	r1, r2
 1414 06c6 2046     		mov	r0, r4
 1415              	.LVL333:
 1416 06c8 FFF7FEFF 		bl	__aeabi_fsub
 1417              	.LVL334:
 246:.\DSP\Source\TransformFunctions/arm_cfft_radix8_f32.c ****             r6 = t1 + s8;
 1418              		.loc 1 246 0 discriminator 1
 1419 06cc 1E99     		ldr	r1, [sp, #120]	@ float
 245:.\DSP\Source\TransformFunctions/arm_cfft_radix8_f32.c ****             r5 = r5 - s7;
 1420              		.loc 1 245 0 discriminator 1
 1421 06ce 0446     		mov	r4, r0
 1422              	.LVL335:
 1423              		.loc 1 246 0 discriminator 1
 1424 06d0 1F98     		ldr	r0, [sp, #124]	@ float
 1425              	.LVL336:
 1426 06d2 FFF7FEFF 		bl	__aeabi_fadd
 1427              	.LVL337:
 247:.\DSP\Source\TransformFunctions/arm_cfft_radix8_f32.c ****             t1 = t1 - s8;
 1428              		.loc 1 247 0 discriminator 1
 1429 06d6 1E99     		ldr	r1, [sp, #120]	@ float
 246:.\DSP\Source\TransformFunctions/arm_cfft_radix8_f32.c ****             r6 = t1 + s8;
 1430              		.loc 1 246 0 discriminator 1
 1431 06d8 2090     		str	r0, [sp, #128]	@ float
 1432              	.LVL338:
 1433              		.loc 1 247 0 discriminator 1
 1434 06da 1F98     		ldr	r0, [sp, #124]	@ float
 1435              	.LVL339:
 1436 06dc FFF7FEFF 		bl	__aeabi_fsub
 1437              	.LVL340:
 248:.\DSP\Source\TransformFunctions/arm_cfft_radix8_f32.c ****             s1 = s5 - r7;
 1438              		.loc 1 248 0 discriminator 1
 1439 06e0 4146     		mov	r1, r8
 247:.\DSP\Source\TransformFunctions/arm_cfft_radix8_f32.c ****             t1 = t1 - s8;
 1440              		.loc 1 247 0 discriminator 1
 1441 06e2 1E90     		str	r0, [sp, #120]	@ float
 1442              	.LVL341:
 1443              		.loc 1 248 0 discriminator 1
 1444 06e4 4846     		mov	r0, r9
 1445              	.LVL342:
 1446 06e6 FFF7FEFF 		bl	__aeabi_fsub
 1447              	.LVL343:
 249:.\DSP\Source\TransformFunctions/arm_cfft_radix8_f32.c ****             s5 = s5 + r7;
 1448              		.loc 1 249 0 discriminator 1
 1449 06ea 4146     		mov	r1, r8
 248:.\DSP\Source\TransformFunctions/arm_cfft_radix8_f32.c ****             s1 = s5 - r7;
 1450              		.loc 1 248 0 discriminator 1
 1451 06ec 1F90     		str	r0, [sp, #124]	@ float
 1452              	.LVL344:
 1453              		.loc 1 249 0 discriminator 1
 1454 06ee 4846     		mov	r0, r9
 1455              	.LVL345:
 1456 06f0 FFF7FEFF 		bl	__aeabi_fadd
 1457              	.LVL346:
 250:.\DSP\Source\TransformFunctions/arm_cfft_radix8_f32.c ****             s6 = t2 - r8;
ARM GAS  C:\Users\IVYLIU~1\AppData\Local\Temp\cc3ADQnL.s 			page 33


 1458              		.loc 1 250 0 discriminator 1
 1459 06f4 3146     		mov	r1, r6
 249:.\DSP\Source\TransformFunctions/arm_cfft_radix8_f32.c ****             s5 = s5 + r7;
 1460              		.loc 1 249 0 discriminator 1
 1461 06f6 8146     		mov	r9, r0
 1462              	.LVL347:
 1463              		.loc 1 250 0 discriminator 1
 1464 06f8 3846     		mov	r0, r7
 1465              	.LVL348:
 1466 06fa FFF7FEFF 		bl	__aeabi_fsub
 1467              	.LVL349:
 251:.\DSP\Source\TransformFunctions/arm_cfft_radix8_f32.c ****             t2 = t2 + r8;
 1468              		.loc 1 251 0 discriminator 1
 1469 06fe 3146     		mov	r1, r6
 250:.\DSP\Source\TransformFunctions/arm_cfft_radix8_f32.c ****             s6 = t2 - r8;
 1470              		.loc 1 250 0 discriminator 1
 1471 0700 8046     		mov	r8, r0
 1472              	.LVL350:
 1473              		.loc 1 251 0 discriminator 1
 1474 0702 3846     		mov	r0, r7
 1475              	.LVL351:
 1476 0704 FFF7FEFF 		bl	__aeabi_fadd
 1477              	.LVL352:
 252:.\DSP\Source\TransformFunctions/arm_cfft_radix8_f32.c ****             p1 = co2 * r1;
 1478              		.loc 1 252 0 discriminator 1
 1479 0708 2946     		mov	r1, r5
 251:.\DSP\Source\TransformFunctions/arm_cfft_radix8_f32.c ****             t2 = t2 + r8;
 1480              		.loc 1 251 0 discriminator 1
 1481 070a 0646     		mov	r6, r0
 1482              	.LVL353:
 1483              		.loc 1 252 0 discriminator 1
 1484 070c 0F98     		ldr	r0, [sp, #60]	@ float
 1485              	.LVL354:
 1486 070e FFF7FEFF 		bl	__aeabi_fmul
 1487              	.LVL355:
 253:.\DSP\Source\TransformFunctions/arm_cfft_radix8_f32.c ****             p2 = si2 * s1;
 1488              		.loc 1 253 0 discriminator 1
 1489 0712 1F99     		ldr	r1, [sp, #124]	@ float
 252:.\DSP\Source\TransformFunctions/arm_cfft_radix8_f32.c ****             p1 = co2 * r1;
 1490              		.loc 1 252 0 discriminator 1
 1491 0714 0746     		mov	r7, r0
 1492              		.loc 1 253 0 discriminator 1
 1493 0716 1698     		ldr	r0, [sp, #88]	@ float
 1494 0718 FFF7FEFF 		bl	__aeabi_fmul
 1495              	.LVL356:
 1496 071c 0146     		mov	r1, r0
 254:.\DSP\Source\TransformFunctions/arm_cfft_radix8_f32.c ****             p3 = co2 * s1;
 255:.\DSP\Source\TransformFunctions/arm_cfft_radix8_f32.c ****             p4 = si2 * r1;
 256:.\DSP\Source\TransformFunctions/arm_cfft_radix8_f32.c ****             pSrc[2 * i2]     = p1 + p2;
 1497              		.loc 1 256 0 discriminator 1
 1498 071e 3846     		mov	r0, r7
 1499 0720 FFF7FEFF 		bl	__aeabi_fadd
 1500              	.LVL357:
 1501 0724 019B     		ldr	r3, [sp, #4]
 254:.\DSP\Source\TransformFunctions/arm_cfft_radix8_f32.c ****             p3 = co2 * s1;
 1502              		.loc 1 254 0 discriminator 1
 1503 0726 1F99     		ldr	r1, [sp, #124]	@ float
ARM GAS  C:\Users\IVYLIU~1\AppData\Local\Temp\cc3ADQnL.s 			page 34


 1504              		.loc 1 256 0 discriminator 1
 1505 0728 4BF83300 		str	r0, [fp, r3, lsl #3]	@ float
 254:.\DSP\Source\TransformFunctions/arm_cfft_radix8_f32.c ****             p3 = co2 * s1;
 1506              		.loc 1 254 0 discriminator 1
 1507 072c 0F98     		ldr	r0, [sp, #60]	@ float
 1508 072e FFF7FEFF 		bl	__aeabi_fmul
 1509              	.LVL358:
 255:.\DSP\Source\TransformFunctions/arm_cfft_radix8_f32.c ****             pSrc[2 * i2]     = p1 + p2;
 1510              		.loc 1 255 0 discriminator 1
 1511 0732 2946     		mov	r1, r5
 254:.\DSP\Source\TransformFunctions/arm_cfft_radix8_f32.c ****             p3 = co2 * s1;
 1512              		.loc 1 254 0 discriminator 1
 1513 0734 0746     		mov	r7, r0
 255:.\DSP\Source\TransformFunctions/arm_cfft_radix8_f32.c ****             pSrc[2 * i2]     = p1 + p2;
 1514              		.loc 1 255 0 discriminator 1
 1515 0736 1698     		ldr	r0, [sp, #88]	@ float
 1516 0738 FFF7FEFF 		bl	__aeabi_fmul
 1517              	.LVL359:
 1518 073c 0146     		mov	r1, r0
 257:.\DSP\Source\TransformFunctions/arm_cfft_radix8_f32.c ****             pSrc[2 * i2 + 1] = p3 - p4;
 1519              		.loc 1 257 0 discriminator 1
 1520 073e 3846     		mov	r0, r7
 1521 0740 FFF7FEFF 		bl	__aeabi_fsub
 1522              	.LVL360:
 1523 0744 019B     		ldr	r3, [sp, #4]
 258:.\DSP\Source\TransformFunctions/arm_cfft_radix8_f32.c ****             p1 = co8 * r5;
 1524              		.loc 1 258 0 discriminator 1
 1525 0746 2146     		mov	r1, r4
 257:.\DSP\Source\TransformFunctions/arm_cfft_radix8_f32.c ****             pSrc[2 * i2 + 1] = p3 - p4;
 1526              		.loc 1 257 0 discriminator 1
 1527 0748 4AF83300 		str	r0, [r10, r3, lsl #3]	@ float
 1528              	.LVL361:
 1529              		.loc 1 258 0 discriminator 1
 1530 074c 1598     		ldr	r0, [sp, #84]	@ float
 1531 074e FFF7FEFF 		bl	__aeabi_fmul
 1532              	.LVL362:
 259:.\DSP\Source\TransformFunctions/arm_cfft_radix8_f32.c ****             p2 = si8 * s5;
 1533              		.loc 1 259 0 discriminator 1
 1534 0752 4946     		mov	r1, r9
 258:.\DSP\Source\TransformFunctions/arm_cfft_radix8_f32.c ****             p1 = co8 * r5;
 1535              		.loc 1 258 0 discriminator 1
 1536 0754 0546     		mov	r5, r0
 1537              	.LVL363:
 1538              		.loc 1 259 0 discriminator 1
 1539 0756 1C98     		ldr	r0, [sp, #112]	@ float
 1540 0758 FFF7FEFF 		bl	__aeabi_fmul
 1541              	.LVL364:
 1542 075c 0146     		mov	r1, r0
 260:.\DSP\Source\TransformFunctions/arm_cfft_radix8_f32.c ****             p3 = co8 * s5;
 261:.\DSP\Source\TransformFunctions/arm_cfft_radix8_f32.c ****             p4 = si8 * r5;
 262:.\DSP\Source\TransformFunctions/arm_cfft_radix8_f32.c ****             pSrc[2 * i8]     = p1 + p2;
 1543              		.loc 1 262 0 discriminator 1
 1544 075e 2846     		mov	r0, r5
 1545 0760 FFF7FEFF 		bl	__aeabi_fadd
 1546              	.LVL365:
 1547 0764 089B     		ldr	r3, [sp, #32]
 260:.\DSP\Source\TransformFunctions/arm_cfft_radix8_f32.c ****             p3 = co8 * s5;
ARM GAS  C:\Users\IVYLIU~1\AppData\Local\Temp\cc3ADQnL.s 			page 35


 1548              		.loc 1 260 0 discriminator 1
 1549 0766 4946     		mov	r1, r9
 1550              		.loc 1 262 0 discriminator 1
 1551 0768 4BF80300 		str	r0, [fp, r3]	@ float
 260:.\DSP\Source\TransformFunctions/arm_cfft_radix8_f32.c ****             p3 = co8 * s5;
 1552              		.loc 1 260 0 discriminator 1
 1553 076c 1598     		ldr	r0, [sp, #84]	@ float
 1554 076e FFF7FEFF 		bl	__aeabi_fmul
 1555              	.LVL366:
 261:.\DSP\Source\TransformFunctions/arm_cfft_radix8_f32.c ****             pSrc[2 * i8]     = p1 + p2;
 1556              		.loc 1 261 0 discriminator 1
 1557 0772 2146     		mov	r1, r4
 260:.\DSP\Source\TransformFunctions/arm_cfft_radix8_f32.c ****             p3 = co8 * s5;
 1558              		.loc 1 260 0 discriminator 1
 1559 0774 0546     		mov	r5, r0
 261:.\DSP\Source\TransformFunctions/arm_cfft_radix8_f32.c ****             pSrc[2 * i8]     = p1 + p2;
 1560              		.loc 1 261 0 discriminator 1
 1561 0776 1C98     		ldr	r0, [sp, #112]	@ float
 1562 0778 FFF7FEFF 		bl	__aeabi_fmul
 1563              	.LVL367:
 1564 077c 0146     		mov	r1, r0
 263:.\DSP\Source\TransformFunctions/arm_cfft_radix8_f32.c ****             pSrc[2 * i8 + 1] = p3 - p4;
 1565              		.loc 1 263 0 discriminator 1
 1566 077e 2846     		mov	r0, r5
 1567 0780 FFF7FEFF 		bl	__aeabi_fsub
 1568              	.LVL368:
 1569 0784 089B     		ldr	r3, [sp, #32]
 264:.\DSP\Source\TransformFunctions/arm_cfft_radix8_f32.c ****             p1 = co6 * r6;
 1570              		.loc 1 264 0 discriminator 1
 1571 0786 2099     		ldr	r1, [sp, #128]	@ float
 263:.\DSP\Source\TransformFunctions/arm_cfft_radix8_f32.c ****             pSrc[2 * i8 + 1] = p3 - p4;
 1572              		.loc 1 263 0 discriminator 1
 1573 0788 4AF80300 		str	r0, [r10, r3]	@ float
 1574              	.LVL369:
 1575              		.loc 1 264 0 discriminator 1
 1576 078c 1398     		ldr	r0, [sp, #76]	@ float
 1577 078e FFF7FEFF 		bl	__aeabi_fmul
 1578              	.LVL370:
 265:.\DSP\Source\TransformFunctions/arm_cfft_radix8_f32.c ****             p2 = si6 * s6;
 1579              		.loc 1 265 0 discriminator 1
 1580 0792 4146     		mov	r1, r8
 264:.\DSP\Source\TransformFunctions/arm_cfft_radix8_f32.c ****             p1 = co6 * r6;
 1581              		.loc 1 264 0 discriminator 1
 1582 0794 0446     		mov	r4, r0
 1583              	.LVL371:
 1584              		.loc 1 265 0 discriminator 1
 1585 0796 1A98     		ldr	r0, [sp, #104]	@ float
 1586 0798 FFF7FEFF 		bl	__aeabi_fmul
 1587              	.LVL372:
 1588 079c 0146     		mov	r1, r0
 266:.\DSP\Source\TransformFunctions/arm_cfft_radix8_f32.c ****             p3 = co6 * s6;
 267:.\DSP\Source\TransformFunctions/arm_cfft_radix8_f32.c ****             p4 = si6 * r6;
 268:.\DSP\Source\TransformFunctions/arm_cfft_radix8_f32.c ****             pSrc[2 * i6]     = p1 + p2;
 1589              		.loc 1 268 0 discriminator 1
 1590 079e 2046     		mov	r0, r4
 1591 07a0 FFF7FEFF 		bl	__aeabi_fadd
 1592              	.LVL373:
ARM GAS  C:\Users\IVYLIU~1\AppData\Local\Temp\cc3ADQnL.s 			page 36


 1593 07a4 039B     		ldr	r3, [sp, #12]
 266:.\DSP\Source\TransformFunctions/arm_cfft_radix8_f32.c ****             p3 = co6 * s6;
 1594              		.loc 1 266 0 discriminator 1
 1595 07a6 4146     		mov	r1, r8
 1596              		.loc 1 268 0 discriminator 1
 1597 07a8 4BF80300 		str	r0, [fp, r3]	@ float
 266:.\DSP\Source\TransformFunctions/arm_cfft_radix8_f32.c ****             p3 = co6 * s6;
 1598              		.loc 1 266 0 discriminator 1
 1599 07ac 1398     		ldr	r0, [sp, #76]	@ float
 1600 07ae FFF7FEFF 		bl	__aeabi_fmul
 1601              	.LVL374:
 267:.\DSP\Source\TransformFunctions/arm_cfft_radix8_f32.c ****             pSrc[2 * i6]     = p1 + p2;
 1602              		.loc 1 267 0 discriminator 1
 1603 07b2 2099     		ldr	r1, [sp, #128]	@ float
 266:.\DSP\Source\TransformFunctions/arm_cfft_radix8_f32.c ****             p3 = co6 * s6;
 1604              		.loc 1 266 0 discriminator 1
 1605 07b4 0446     		mov	r4, r0
 267:.\DSP\Source\TransformFunctions/arm_cfft_radix8_f32.c ****             pSrc[2 * i6]     = p1 + p2;
 1606              		.loc 1 267 0 discriminator 1
 1607 07b6 1A98     		ldr	r0, [sp, #104]	@ float
 1608 07b8 FFF7FEFF 		bl	__aeabi_fmul
 1609              	.LVL375:
 1610 07bc 0146     		mov	r1, r0
 269:.\DSP\Source\TransformFunctions/arm_cfft_radix8_f32.c ****             pSrc[2 * i6 + 1] = p3 - p4;
 1611              		.loc 1 269 0 discriminator 1
 1612 07be 2046     		mov	r0, r4
 1613 07c0 FFF7FEFF 		bl	__aeabi_fsub
 1614              	.LVL376:
 1615 07c4 039B     		ldr	r3, [sp, #12]
 270:.\DSP\Source\TransformFunctions/arm_cfft_radix8_f32.c ****             p1 = co4 * t1;
 1616              		.loc 1 270 0 discriminator 1
 1617 07c6 1E99     		ldr	r1, [sp, #120]	@ float
 269:.\DSP\Source\TransformFunctions/arm_cfft_radix8_f32.c ****             pSrc[2 * i6 + 1] = p3 - p4;
 1618              		.loc 1 269 0 discriminator 1
 1619 07c8 4AF80300 		str	r0, [r10, r3]	@ float
 1620              	.LVL377:
 1621              		.loc 1 270 0 discriminator 1
 1622 07cc 1198     		ldr	r0, [sp, #68]	@ float
 1623 07ce FFF7FEFF 		bl	__aeabi_fmul
 1624              	.LVL378:
 271:.\DSP\Source\TransformFunctions/arm_cfft_radix8_f32.c ****             p2 = si4 * t2;
 1625              		.loc 1 271 0 discriminator 1
 1626 07d2 3146     		mov	r1, r6
 270:.\DSP\Source\TransformFunctions/arm_cfft_radix8_f32.c ****             p1 = co4 * t1;
 1627              		.loc 1 270 0 discriminator 1
 1628 07d4 0446     		mov	r4, r0
 1629              		.loc 1 271 0 discriminator 1
 1630 07d6 1898     		ldr	r0, [sp, #96]	@ float
 1631 07d8 FFF7FEFF 		bl	__aeabi_fmul
 1632              	.LVL379:
 1633 07dc 0146     		mov	r1, r0
 272:.\DSP\Source\TransformFunctions/arm_cfft_radix8_f32.c ****             p3 = co4 * t2;
 273:.\DSP\Source\TransformFunctions/arm_cfft_radix8_f32.c ****             p4 = si4 * t1;
 274:.\DSP\Source\TransformFunctions/arm_cfft_radix8_f32.c ****             pSrc[2 * i4]     = p1 + p2;
 1634              		.loc 1 274 0 discriminator 1
 1635 07de 2046     		mov	r0, r4
 1636 07e0 FFF7FEFF 		bl	__aeabi_fadd
ARM GAS  C:\Users\IVYLIU~1\AppData\Local\Temp\cc3ADQnL.s 			page 37


 1637              	.LVL380:
 1638 07e4 029B     		ldr	r3, [sp, #8]
 272:.\DSP\Source\TransformFunctions/arm_cfft_radix8_f32.c ****             p3 = co4 * t2;
 1639              		.loc 1 272 0 discriminator 1
 1640 07e6 3146     		mov	r1, r6
 1641              		.loc 1 274 0 discriminator 1
 1642 07e8 4BF80300 		str	r0, [fp, r3]	@ float
 272:.\DSP\Source\TransformFunctions/arm_cfft_radix8_f32.c ****             p3 = co4 * t2;
 1643              		.loc 1 272 0 discriminator 1
 1644 07ec 1198     		ldr	r0, [sp, #68]	@ float
 1645 07ee FFF7FEFF 		bl	__aeabi_fmul
 1646              	.LVL381:
 273:.\DSP\Source\TransformFunctions/arm_cfft_radix8_f32.c ****             pSrc[2 * i4]     = p1 + p2;
 1647              		.loc 1 273 0 discriminator 1
 1648 07f2 1E99     		ldr	r1, [sp, #120]	@ float
 272:.\DSP\Source\TransformFunctions/arm_cfft_radix8_f32.c ****             p3 = co4 * t2;
 1649              		.loc 1 272 0 discriminator 1
 1650 07f4 0446     		mov	r4, r0
 273:.\DSP\Source\TransformFunctions/arm_cfft_radix8_f32.c ****             pSrc[2 * i4]     = p1 + p2;
 1651              		.loc 1 273 0 discriminator 1
 1652 07f6 1898     		ldr	r0, [sp, #96]	@ float
 1653 07f8 FFF7FEFF 		bl	__aeabi_fmul
 1654              	.LVL382:
 1655 07fc 0146     		mov	r1, r0
 275:.\DSP\Source\TransformFunctions/arm_cfft_radix8_f32.c ****             pSrc[2 * i4 + 1] = p3 - p4;
 1656              		.loc 1 275 0 discriminator 1
 1657 07fe 2046     		mov	r0, r4
 1658 0800 FFF7FEFF 		bl	__aeabi_fsub
 1659              	.LVL383:
 1660 0804 029B     		ldr	r3, [sp, #8]
 276:.\DSP\Source\TransformFunctions/arm_cfft_radix8_f32.c **** 
 277:.\DSP\Source\TransformFunctions/arm_cfft_radix8_f32.c ****             i1 += n1;
 1661              		.loc 1 277 0 discriminator 1
 1662 0806 099A     		ldr	r2, [sp, #36]
 275:.\DSP\Source\TransformFunctions/arm_cfft_radix8_f32.c ****             pSrc[2 * i4 + 1] = p3 - p4;
 1663              		.loc 1 275 0 discriminator 1
 1664 0808 4AF80300 		str	r0, [r10, r3]	@ float
 1665              		.loc 1 277 0 discriminator 1
 1666 080c 0C9B     		ldr	r3, [sp, #48]
 278:.\DSP\Source\TransformFunctions/arm_cfft_radix8_f32.c ****          } while (i1 < fftLen);
 1667              		.loc 1 278 0 discriminator 1
 1668 080e DDF8A4C0 		ldr	ip, [sp, #164]
 277:.\DSP\Source\TransformFunctions/arm_cfft_radix8_f32.c ****          } while (i1 < fftLen);
 1669              		.loc 1 277 0 discriminator 1
 1670 0812 1344     		add	r3, r3, r2
 1671 0814 0C93     		str	r3, [sp, #48]
 1672              	.LVL384:
 1673 0816 0A9B     		ldr	r3, [sp, #40]
 1674              	.LVL385:
 1675              		.loc 1 278 0 discriminator 1
 1676 0818 0E9A     		ldr	r2, [sp, #56]
 1677 081a 9B44     		add	fp, fp, r3
 1678 081c 9A44     		add	r10, r10, r3
 1679 081e 0C9B     		ldr	r3, [sp, #48]
 1680 0820 9342     		cmp	r3, r2
 1681 0822 289B     		ldr	r3, [sp, #160]
 1682 0824 FFF4CAAD 		bcc	.L4
ARM GAS  C:\Users\IVYLIU~1\AppData\Local\Temp\cc3ADQnL.s 			page 38


 1683              	.LVL386:
 279:.\DSP\Source\TransformFunctions/arm_cfft_radix8_f32.c **** 
 280:.\DSP\Source\TransformFunctions/arm_cfft_radix8_f32.c ****          j++;
 1684              		.loc 1 280 0
 1685 0828 079A     		ldr	r2, [sp, #28]
 281:.\DSP\Source\TransformFunctions/arm_cfft_radix8_f32.c ****       } while (j < n2);
 1686              		.loc 1 281 0
 1687 082a 0199     		ldr	r1, [sp, #4]
 280:.\DSP\Source\TransformFunctions/arm_cfft_radix8_f32.c ****       } while (j < n2);
 1688              		.loc 1 280 0
 1689 082c 0132     		adds	r2, r2, #1
 1690 082e 0792     		str	r2, [sp, #28]
 1691              	.LVL387:
 1692 0830 0B9A     		ldr	r2, [sp, #44]
 1693              	.LVL388:
 1694 0832 1D98     		ldr	r0, [sp, #116]
 1695 0834 1344     		add	r3, r3, r2
 1696              	.LVL389:
 1697              		.loc 1 281 0
 1698 0836 079A     		ldr	r2, [sp, #28]
 1699 0838 8A42     		cmp	r2, r1
 1700 083a 7FF47EAD 		bne	.L5
 282:.\DSP\Source\TransformFunctions/arm_cfft_radix8_f32.c **** 
 283:.\DSP\Source\TransformFunctions/arm_cfft_radix8_f32.c ****       twidCoefModifier <<= 3;
 1701              		.loc 1 283 0
 1702 083e 0B9B     		ldr	r3, [sp, #44]
 1703 0840 DB00     		lsls	r3, r3, #3
 1704 0842 9BB2     		uxth	r3, r3
 1705 0844 0B93     		str	r3, [sp, #44]
 1706              	.LVL390:
 1707 0846 1346     		mov	r3, r2
 1708 0848 FFF7E2BB 		b	.L10
 1709              	.LVL391:
 1710              	.L1:
 284:.\DSP\Source\TransformFunctions/arm_cfft_radix8_f32.c ****    } while (n2 > 7);
 285:.\DSP\Source\TransformFunctions/arm_cfft_radix8_f32.c **** }
 1711              		.loc 1 285 0
 1712 084c 2BB0     		add	sp, sp, #172
 1713              		.cfi_def_cfa_offset 36
 1714              		@ sp needed
 1715 084e BDE8F08F 		pop	{r4, r5, r6, r7, r8, r9, r10, fp, pc}
 1716              	.LVL392:
 1717              	.L16:
 1718 0852 00BF     		.align	2
 1719              	.L15:
 1720 0854 F304353F 		.word	1060439283
 1721              		.cfi_endproc
 1722              	.LFE84:
 1723              		.size	arm_radix8_butterfly_f32, .-arm_radix8_butterfly_f32
 1724              		.text
 1725              	.Letext0:
 1726              		.file 2 "c:\\program files (x86)\\cypress\\psoc creator\\3.3\\psoc creator\\import\\gnu\\arm\\4.9.
 1727              		.file 3 "c:\\program files (x86)\\cypress\\psoc creator\\3.3\\psoc creator\\import\\gnu\\arm\\4.9.
 1728              		.file 4 ".\\DSP\\Include/arm_math_types.h"
 1729              		.file 5 ".\\Core\\Include/cmsis_gcc.h"