ARM GAS  C:\Users\IVYLIU~1\AppData\Local\Temp\ccWLNWQl.s 			page 1


   1              		.syntax unified
   2              		.cpu cortex-m3
   3              		.fpu softvfp
   4              		.eabi_attribute 20, 1
   5              		.eabi_attribute 21, 1
   6              		.eabi_attribute 23, 3
   7              		.eabi_attribute 24, 1
   8              		.eabi_attribute 25, 1
   9              		.eabi_attribute 26, 1
  10              		.eabi_attribute 30, 4
  11              		.eabi_attribute 34, 1
  12              		.eabi_attribute 18, 4
  13              		.thumb
  14              		.file	"arm_cfft_f32.c"
  15              		.text
  16              	.Ltext0:
  17              		.cfi_sections	.debug_frame
  18              		.global	__aeabi_fadd
  19              		.global	__aeabi_fsub
  20              		.global	__aeabi_fmul
  21              		.section	.text.arm_cfft_radix8by2_f32,"ax",%progbits
  22              		.align	1
  23              		.global	arm_cfft_radix8by2_f32
  24              		.thumb
  25              		.thumb_func
  26              		.type	arm_cfft_radix8by2_f32, %function
  27              	arm_cfft_radix8by2_f32:
  28              	.LFB84:
  29              		.file 1 ".\\DSP\\Source\\TransformFunctions\\arm_cfft_f32.c"
   1:.\DSP\Source\TransformFunctions/arm_cfft_f32.c **** /* ----------------------------------------------------------------------
   2:.\DSP\Source\TransformFunctions/arm_cfft_f32.c ****  * Project:      CMSIS DSP Library
   3:.\DSP\Source\TransformFunctions/arm_cfft_f32.c ****  * Title:        arm_cfft_f32.c
   4:.\DSP\Source\TransformFunctions/arm_cfft_f32.c ****  * Description:  Combined Radix Decimation in Frequency CFFT Floating point processing function
   5:.\DSP\Source\TransformFunctions/arm_cfft_f32.c ****  *
   6:.\DSP\Source\TransformFunctions/arm_cfft_f32.c ****  * $Date:        23 April 2021
   7:.\DSP\Source\TransformFunctions/arm_cfft_f32.c ****  * $Revision:    V1.9.0
   8:.\DSP\Source\TransformFunctions/arm_cfft_f32.c ****  *
   9:.\DSP\Source\TransformFunctions/arm_cfft_f32.c ****  * Target Processor: Cortex-M and Cortex-A cores
  10:.\DSP\Source\TransformFunctions/arm_cfft_f32.c ****  * -------------------------------------------------------------------- */
  11:.\DSP\Source\TransformFunctions/arm_cfft_f32.c **** /*
  12:.\DSP\Source\TransformFunctions/arm_cfft_f32.c ****  * Copyright (C) 2010-2021 ARM Limited or its affiliates. All rights reserved.
  13:.\DSP\Source\TransformFunctions/arm_cfft_f32.c ****  *
  14:.\DSP\Source\TransformFunctions/arm_cfft_f32.c ****  * SPDX-License-Identifier: Apache-2.0
  15:.\DSP\Source\TransformFunctions/arm_cfft_f32.c ****  *
  16:.\DSP\Source\TransformFunctions/arm_cfft_f32.c ****  * Licensed under the Apache License, Version 2.0 (the License); you may
  17:.\DSP\Source\TransformFunctions/arm_cfft_f32.c ****  * not use this file except in compliance with the License.
  18:.\DSP\Source\TransformFunctions/arm_cfft_f32.c ****  * You may obtain a copy of the License at
  19:.\DSP\Source\TransformFunctions/arm_cfft_f32.c ****  *
  20:.\DSP\Source\TransformFunctions/arm_cfft_f32.c ****  * www.apache.org/licenses/LICENSE-2.0
  21:.\DSP\Source\TransformFunctions/arm_cfft_f32.c ****  *
  22:.\DSP\Source\TransformFunctions/arm_cfft_f32.c ****  * Unless required by applicable law or agreed to in writing, software
  23:.\DSP\Source\TransformFunctions/arm_cfft_f32.c ****  * distributed under the License is distributed on an AS IS BASIS, WITHOUT
  24:.\DSP\Source\TransformFunctions/arm_cfft_f32.c ****  * WARRANTIES OR CONDITIONS OF ANY KIND, either express or implied.
  25:.\DSP\Source\TransformFunctions/arm_cfft_f32.c ****  * See the License for the specific language governing permissions and
  26:.\DSP\Source\TransformFunctions/arm_cfft_f32.c ****  * limitations under the License.
  27:.\DSP\Source\TransformFunctions/arm_cfft_f32.c ****  */
  28:.\DSP\Source\TransformFunctions/arm_cfft_f32.c **** 
ARM GAS  C:\Users\IVYLIU~1\AppData\Local\Temp\ccWLNWQl.s 			page 2


  29:.\DSP\Source\TransformFunctions/arm_cfft_f32.c **** #include "dsp/transform_functions.h"
  30:.\DSP\Source\TransformFunctions/arm_cfft_f32.c **** #include "arm_common_tables.h"
  31:.\DSP\Source\TransformFunctions/arm_cfft_f32.c **** 
  32:.\DSP\Source\TransformFunctions/arm_cfft_f32.c **** #if defined(ARM_MATH_MVEF) && !defined(ARM_MATH_AUTOVECTORIZE)
  33:.\DSP\Source\TransformFunctions/arm_cfft_f32.c **** 
  34:.\DSP\Source\TransformFunctions/arm_cfft_f32.c **** #include "arm_helium_utils.h"
  35:.\DSP\Source\TransformFunctions/arm_cfft_f32.c **** #include "arm_vec_fft.h"
  36:.\DSP\Source\TransformFunctions/arm_cfft_f32.c **** #include "arm_mve_tables.h"
  37:.\DSP\Source\TransformFunctions/arm_cfft_f32.c **** 
  38:.\DSP\Source\TransformFunctions/arm_cfft_f32.c **** 
  39:.\DSP\Source\TransformFunctions/arm_cfft_f32.c **** static float32_t arm_inverse_fft_length_f32(uint16_t fftLen)
  40:.\DSP\Source\TransformFunctions/arm_cfft_f32.c **** {
  41:.\DSP\Source\TransformFunctions/arm_cfft_f32.c ****   float32_t retValue=1.0;
  42:.\DSP\Source\TransformFunctions/arm_cfft_f32.c **** 
  43:.\DSP\Source\TransformFunctions/arm_cfft_f32.c ****   switch (fftLen)
  44:.\DSP\Source\TransformFunctions/arm_cfft_f32.c ****   {
  45:.\DSP\Source\TransformFunctions/arm_cfft_f32.c **** 
  46:.\DSP\Source\TransformFunctions/arm_cfft_f32.c ****   case 4096U:
  47:.\DSP\Source\TransformFunctions/arm_cfft_f32.c ****     retValue = 0.000244140625;
  48:.\DSP\Source\TransformFunctions/arm_cfft_f32.c ****     break;
  49:.\DSP\Source\TransformFunctions/arm_cfft_f32.c **** 
  50:.\DSP\Source\TransformFunctions/arm_cfft_f32.c ****   case 2048U:
  51:.\DSP\Source\TransformFunctions/arm_cfft_f32.c ****     retValue = 0.00048828125;
  52:.\DSP\Source\TransformFunctions/arm_cfft_f32.c ****     break;
  53:.\DSP\Source\TransformFunctions/arm_cfft_f32.c **** 
  54:.\DSP\Source\TransformFunctions/arm_cfft_f32.c ****   case 1024U:
  55:.\DSP\Source\TransformFunctions/arm_cfft_f32.c ****     retValue = 0.0009765625f;
  56:.\DSP\Source\TransformFunctions/arm_cfft_f32.c ****     break;
  57:.\DSP\Source\TransformFunctions/arm_cfft_f32.c **** 
  58:.\DSP\Source\TransformFunctions/arm_cfft_f32.c ****   case 512U:
  59:.\DSP\Source\TransformFunctions/arm_cfft_f32.c ****     retValue = 0.001953125;
  60:.\DSP\Source\TransformFunctions/arm_cfft_f32.c ****     break;
  61:.\DSP\Source\TransformFunctions/arm_cfft_f32.c **** 
  62:.\DSP\Source\TransformFunctions/arm_cfft_f32.c ****   case 256U:
  63:.\DSP\Source\TransformFunctions/arm_cfft_f32.c ****     retValue = 0.00390625f;
  64:.\DSP\Source\TransformFunctions/arm_cfft_f32.c ****     break;
  65:.\DSP\Source\TransformFunctions/arm_cfft_f32.c **** 
  66:.\DSP\Source\TransformFunctions/arm_cfft_f32.c ****   case 128U:
  67:.\DSP\Source\TransformFunctions/arm_cfft_f32.c ****     retValue = 0.0078125;
  68:.\DSP\Source\TransformFunctions/arm_cfft_f32.c ****     break;
  69:.\DSP\Source\TransformFunctions/arm_cfft_f32.c **** 
  70:.\DSP\Source\TransformFunctions/arm_cfft_f32.c ****   case 64U:
  71:.\DSP\Source\TransformFunctions/arm_cfft_f32.c ****     retValue = 0.015625f;
  72:.\DSP\Source\TransformFunctions/arm_cfft_f32.c ****     break;
  73:.\DSP\Source\TransformFunctions/arm_cfft_f32.c **** 
  74:.\DSP\Source\TransformFunctions/arm_cfft_f32.c ****   case 32U:
  75:.\DSP\Source\TransformFunctions/arm_cfft_f32.c ****     retValue = 0.03125;
  76:.\DSP\Source\TransformFunctions/arm_cfft_f32.c ****     break;
  77:.\DSP\Source\TransformFunctions/arm_cfft_f32.c **** 
  78:.\DSP\Source\TransformFunctions/arm_cfft_f32.c ****   case 16U:
  79:.\DSP\Source\TransformFunctions/arm_cfft_f32.c ****     retValue = 0.0625f;
  80:.\DSP\Source\TransformFunctions/arm_cfft_f32.c ****     break;
  81:.\DSP\Source\TransformFunctions/arm_cfft_f32.c **** 
  82:.\DSP\Source\TransformFunctions/arm_cfft_f32.c **** 
  83:.\DSP\Source\TransformFunctions/arm_cfft_f32.c ****   default:
  84:.\DSP\Source\TransformFunctions/arm_cfft_f32.c ****     break;
  85:.\DSP\Source\TransformFunctions/arm_cfft_f32.c ****   }
ARM GAS  C:\Users\IVYLIU~1\AppData\Local\Temp\ccWLNWQl.s 			page 3


  86:.\DSP\Source\TransformFunctions/arm_cfft_f32.c ****   return(retValue);
  87:.\DSP\Source\TransformFunctions/arm_cfft_f32.c **** }
  88:.\DSP\Source\TransformFunctions/arm_cfft_f32.c **** 
  89:.\DSP\Source\TransformFunctions/arm_cfft_f32.c **** 
  90:.\DSP\Source\TransformFunctions/arm_cfft_f32.c **** 
  91:.\DSP\Source\TransformFunctions/arm_cfft_f32.c **** 
  92:.\DSP\Source\TransformFunctions/arm_cfft_f32.c **** static void _arm_radix4_butterfly_f32_mve(const arm_cfft_instance_f32 * S,float32_t * pSrc, uint32_
  93:.\DSP\Source\TransformFunctions/arm_cfft_f32.c **** {
  94:.\DSP\Source\TransformFunctions/arm_cfft_f32.c ****     f32x4_t     vecTmp0, vecTmp1;
  95:.\DSP\Source\TransformFunctions/arm_cfft_f32.c ****     f32x4_t     vecSum0, vecDiff0, vecSum1, vecDiff1;
  96:.\DSP\Source\TransformFunctions/arm_cfft_f32.c ****     f32x4_t     vecA, vecB, vecC, vecD;
  97:.\DSP\Source\TransformFunctions/arm_cfft_f32.c ****     uint32_t    blkCnt;
  98:.\DSP\Source\TransformFunctions/arm_cfft_f32.c ****     uint32_t    n1, n2;
  99:.\DSP\Source\TransformFunctions/arm_cfft_f32.c ****     uint32_t    stage = 0;
 100:.\DSP\Source\TransformFunctions/arm_cfft_f32.c ****     int32_t     iter = 1;
 101:.\DSP\Source\TransformFunctions/arm_cfft_f32.c ****     static const int32_t strides[4] = {
 102:.\DSP\Source\TransformFunctions/arm_cfft_f32.c ****         (0 - 16) * (int32_t)sizeof(q31_t *),
 103:.\DSP\Source\TransformFunctions/arm_cfft_f32.c ****         (1 - 16) * (int32_t)sizeof(q31_t *),
 104:.\DSP\Source\TransformFunctions/arm_cfft_f32.c ****         (8 - 16) * (int32_t)sizeof(q31_t *),
 105:.\DSP\Source\TransformFunctions/arm_cfft_f32.c ****         (9 - 16) * (int32_t)sizeof(q31_t *)
 106:.\DSP\Source\TransformFunctions/arm_cfft_f32.c ****     };
 107:.\DSP\Source\TransformFunctions/arm_cfft_f32.c **** 
 108:.\DSP\Source\TransformFunctions/arm_cfft_f32.c ****     n2 = fftLen;
 109:.\DSP\Source\TransformFunctions/arm_cfft_f32.c ****     n1 = n2;
 110:.\DSP\Source\TransformFunctions/arm_cfft_f32.c ****     n2 >>= 2u;
 111:.\DSP\Source\TransformFunctions/arm_cfft_f32.c ****     for (int k = fftLen / 4u; k > 1; k >>= 2)
 112:.\DSP\Source\TransformFunctions/arm_cfft_f32.c ****     {
 113:.\DSP\Source\TransformFunctions/arm_cfft_f32.c ****         float32_t const     *p_rearranged_twiddle_tab_stride1 =
 114:.\DSP\Source\TransformFunctions/arm_cfft_f32.c ****                             &S->rearranged_twiddle_stride1[
 115:.\DSP\Source\TransformFunctions/arm_cfft_f32.c ****                             S->rearranged_twiddle_tab_stride1_arr[stage]];
 116:.\DSP\Source\TransformFunctions/arm_cfft_f32.c ****         float32_t const     *p_rearranged_twiddle_tab_stride2 =
 117:.\DSP\Source\TransformFunctions/arm_cfft_f32.c ****                             &S->rearranged_twiddle_stride2[
 118:.\DSP\Source\TransformFunctions/arm_cfft_f32.c ****                             S->rearranged_twiddle_tab_stride2_arr[stage]];
 119:.\DSP\Source\TransformFunctions/arm_cfft_f32.c ****         float32_t const     *p_rearranged_twiddle_tab_stride3 =
 120:.\DSP\Source\TransformFunctions/arm_cfft_f32.c ****                             &S->rearranged_twiddle_stride3[
 121:.\DSP\Source\TransformFunctions/arm_cfft_f32.c ****                             S->rearranged_twiddle_tab_stride3_arr[stage]];
 122:.\DSP\Source\TransformFunctions/arm_cfft_f32.c **** 
 123:.\DSP\Source\TransformFunctions/arm_cfft_f32.c ****         float32_t * pBase = pSrc;
 124:.\DSP\Source\TransformFunctions/arm_cfft_f32.c ****         for (int i = 0; i < iter; i++)
 125:.\DSP\Source\TransformFunctions/arm_cfft_f32.c ****         {
 126:.\DSP\Source\TransformFunctions/arm_cfft_f32.c ****             float32_t    *inA = pBase;
 127:.\DSP\Source\TransformFunctions/arm_cfft_f32.c ****             float32_t    *inB = inA + n2 * CMPLX_DIM;
 128:.\DSP\Source\TransformFunctions/arm_cfft_f32.c ****             float32_t    *inC = inB + n2 * CMPLX_DIM;
 129:.\DSP\Source\TransformFunctions/arm_cfft_f32.c ****             float32_t    *inD = inC + n2 * CMPLX_DIM;
 130:.\DSP\Source\TransformFunctions/arm_cfft_f32.c ****             float32_t const *pW1 = p_rearranged_twiddle_tab_stride1;
 131:.\DSP\Source\TransformFunctions/arm_cfft_f32.c ****             float32_t const *pW2 = p_rearranged_twiddle_tab_stride2;
 132:.\DSP\Source\TransformFunctions/arm_cfft_f32.c ****             float32_t const *pW3 = p_rearranged_twiddle_tab_stride3;
 133:.\DSP\Source\TransformFunctions/arm_cfft_f32.c ****             f32x4_t            vecW;
 134:.\DSP\Source\TransformFunctions/arm_cfft_f32.c **** 
 135:.\DSP\Source\TransformFunctions/arm_cfft_f32.c ****             blkCnt = n2 / 2;
 136:.\DSP\Source\TransformFunctions/arm_cfft_f32.c ****             /*
 137:.\DSP\Source\TransformFunctions/arm_cfft_f32.c ****              * load 2 f32 complex pair
 138:.\DSP\Source\TransformFunctions/arm_cfft_f32.c ****              */
 139:.\DSP\Source\TransformFunctions/arm_cfft_f32.c ****             vecA = vldrwq_f32(inA);
 140:.\DSP\Source\TransformFunctions/arm_cfft_f32.c ****             vecC = vldrwq_f32(inC);
 141:.\DSP\Source\TransformFunctions/arm_cfft_f32.c ****             while (blkCnt > 0U)
 142:.\DSP\Source\TransformFunctions/arm_cfft_f32.c ****             {
ARM GAS  C:\Users\IVYLIU~1\AppData\Local\Temp\ccWLNWQl.s 			page 4


 143:.\DSP\Source\TransformFunctions/arm_cfft_f32.c ****                 vecB = vldrwq_f32(inB);
 144:.\DSP\Source\TransformFunctions/arm_cfft_f32.c ****                 vecD = vldrwq_f32(inD);
 145:.\DSP\Source\TransformFunctions/arm_cfft_f32.c **** 
 146:.\DSP\Source\TransformFunctions/arm_cfft_f32.c ****                 vecSum0 = vecA + vecC;  /* vecSum0 = vaddq(vecA, vecC) */
 147:.\DSP\Source\TransformFunctions/arm_cfft_f32.c ****                 vecDiff0 = vecA - vecC; /* vecSum0 = vsubq(vecA, vecC) */
 148:.\DSP\Source\TransformFunctions/arm_cfft_f32.c **** 
 149:.\DSP\Source\TransformFunctions/arm_cfft_f32.c ****                 vecSum1 = vecB + vecD;
 150:.\DSP\Source\TransformFunctions/arm_cfft_f32.c ****                 vecDiff1 = vecB - vecD;
 151:.\DSP\Source\TransformFunctions/arm_cfft_f32.c ****                 /*
 152:.\DSP\Source\TransformFunctions/arm_cfft_f32.c ****                  * [ 1 1 1 1 ] * [ A B C D ]' .* 1
 153:.\DSP\Source\TransformFunctions/arm_cfft_f32.c ****                  */
 154:.\DSP\Source\TransformFunctions/arm_cfft_f32.c ****                 vecTmp0 = vecSum0 + vecSum1;
 155:.\DSP\Source\TransformFunctions/arm_cfft_f32.c ****                 vst1q(inA, vecTmp0);
 156:.\DSP\Source\TransformFunctions/arm_cfft_f32.c ****                 inA += 4;
 157:.\DSP\Source\TransformFunctions/arm_cfft_f32.c **** 
 158:.\DSP\Source\TransformFunctions/arm_cfft_f32.c ****                 /*
 159:.\DSP\Source\TransformFunctions/arm_cfft_f32.c ****                  * [ 1 -1 1 -1 ] * [ A B C D ]'
 160:.\DSP\Source\TransformFunctions/arm_cfft_f32.c ****                  */
 161:.\DSP\Source\TransformFunctions/arm_cfft_f32.c ****                 vecTmp0 = vecSum0 - vecSum1;
 162:.\DSP\Source\TransformFunctions/arm_cfft_f32.c ****                 /*
 163:.\DSP\Source\TransformFunctions/arm_cfft_f32.c ****                  * [ 1 -1 1 -1 ] * [ A B C D ]'.* W2
 164:.\DSP\Source\TransformFunctions/arm_cfft_f32.c ****                  */
 165:.\DSP\Source\TransformFunctions/arm_cfft_f32.c ****                 vecW = vld1q(pW2);
 166:.\DSP\Source\TransformFunctions/arm_cfft_f32.c ****                 pW2 += 4;
 167:.\DSP\Source\TransformFunctions/arm_cfft_f32.c ****                 vecTmp1 = MVE_CMPLX_MULT_FLT_Conj_AxB(vecW, vecTmp0);
 168:.\DSP\Source\TransformFunctions/arm_cfft_f32.c ****                 vst1q(inB, vecTmp1);
 169:.\DSP\Source\TransformFunctions/arm_cfft_f32.c ****                 inB += 4;
 170:.\DSP\Source\TransformFunctions/arm_cfft_f32.c **** 
 171:.\DSP\Source\TransformFunctions/arm_cfft_f32.c ****                 /*
 172:.\DSP\Source\TransformFunctions/arm_cfft_f32.c ****                  * [ 1 -i -1 +i ] * [ A B C D ]'
 173:.\DSP\Source\TransformFunctions/arm_cfft_f32.c ****                  */
 174:.\DSP\Source\TransformFunctions/arm_cfft_f32.c ****                 vecTmp0 = MVE_CMPLX_SUB_A_ixB(vecDiff0, vecDiff1);
 175:.\DSP\Source\TransformFunctions/arm_cfft_f32.c ****                 /*
 176:.\DSP\Source\TransformFunctions/arm_cfft_f32.c ****                  * [ 1 -i -1 +i ] * [ A B C D ]'.* W1
 177:.\DSP\Source\TransformFunctions/arm_cfft_f32.c ****                  */
 178:.\DSP\Source\TransformFunctions/arm_cfft_f32.c ****                 vecW = vld1q(pW1);
 179:.\DSP\Source\TransformFunctions/arm_cfft_f32.c ****                 pW1 +=4;
 180:.\DSP\Source\TransformFunctions/arm_cfft_f32.c ****                 vecTmp1 = MVE_CMPLX_MULT_FLT_Conj_AxB(vecW, vecTmp0);
 181:.\DSP\Source\TransformFunctions/arm_cfft_f32.c ****                 vst1q(inC, vecTmp1);
 182:.\DSP\Source\TransformFunctions/arm_cfft_f32.c ****                 inC += 4;
 183:.\DSP\Source\TransformFunctions/arm_cfft_f32.c **** 
 184:.\DSP\Source\TransformFunctions/arm_cfft_f32.c ****                 /*
 185:.\DSP\Source\TransformFunctions/arm_cfft_f32.c ****                  * [ 1 +i -1 -i ] * [ A B C D ]'
 186:.\DSP\Source\TransformFunctions/arm_cfft_f32.c ****                  */
 187:.\DSP\Source\TransformFunctions/arm_cfft_f32.c ****                 vecTmp0 = MVE_CMPLX_ADD_A_ixB(vecDiff0, vecDiff1);
 188:.\DSP\Source\TransformFunctions/arm_cfft_f32.c ****                 /*
 189:.\DSP\Source\TransformFunctions/arm_cfft_f32.c ****                  * [ 1 +i -1 -i ] * [ A B C D ]'.* W3
 190:.\DSP\Source\TransformFunctions/arm_cfft_f32.c ****                  */
 191:.\DSP\Source\TransformFunctions/arm_cfft_f32.c ****                 vecW = vld1q(pW3);
 192:.\DSP\Source\TransformFunctions/arm_cfft_f32.c ****                 pW3 += 4;
 193:.\DSP\Source\TransformFunctions/arm_cfft_f32.c ****                 vecTmp1 = MVE_CMPLX_MULT_FLT_Conj_AxB(vecW, vecTmp0);
 194:.\DSP\Source\TransformFunctions/arm_cfft_f32.c ****                 vst1q(inD, vecTmp1);
 195:.\DSP\Source\TransformFunctions/arm_cfft_f32.c ****                 inD += 4;
 196:.\DSP\Source\TransformFunctions/arm_cfft_f32.c **** 
 197:.\DSP\Source\TransformFunctions/arm_cfft_f32.c ****                 vecA = vldrwq_f32(inA);
 198:.\DSP\Source\TransformFunctions/arm_cfft_f32.c ****                 vecC = vldrwq_f32(inC);
 199:.\DSP\Source\TransformFunctions/arm_cfft_f32.c **** 
ARM GAS  C:\Users\IVYLIU~1\AppData\Local\Temp\ccWLNWQl.s 			page 5


 200:.\DSP\Source\TransformFunctions/arm_cfft_f32.c ****                 blkCnt--;
 201:.\DSP\Source\TransformFunctions/arm_cfft_f32.c ****             }
 202:.\DSP\Source\TransformFunctions/arm_cfft_f32.c ****             pBase +=  CMPLX_DIM * n1;
 203:.\DSP\Source\TransformFunctions/arm_cfft_f32.c ****         }
 204:.\DSP\Source\TransformFunctions/arm_cfft_f32.c ****         n1 = n2;
 205:.\DSP\Source\TransformFunctions/arm_cfft_f32.c ****         n2 >>= 2u;
 206:.\DSP\Source\TransformFunctions/arm_cfft_f32.c ****         iter = iter << 2;
 207:.\DSP\Source\TransformFunctions/arm_cfft_f32.c ****         stage++;
 208:.\DSP\Source\TransformFunctions/arm_cfft_f32.c ****     }
 209:.\DSP\Source\TransformFunctions/arm_cfft_f32.c **** 
 210:.\DSP\Source\TransformFunctions/arm_cfft_f32.c ****     /*
 211:.\DSP\Source\TransformFunctions/arm_cfft_f32.c ****      * start of Last stage process
 212:.\DSP\Source\TransformFunctions/arm_cfft_f32.c ****      */
 213:.\DSP\Source\TransformFunctions/arm_cfft_f32.c ****     uint32x4_t vecScGathAddr = vld1q_u32((uint32_t*)strides);
 214:.\DSP\Source\TransformFunctions/arm_cfft_f32.c ****     vecScGathAddr = vecScGathAddr + (uint32_t) pSrc;
 215:.\DSP\Source\TransformFunctions/arm_cfft_f32.c **** 
 216:.\DSP\Source\TransformFunctions/arm_cfft_f32.c ****     /* load scheduling */
 217:.\DSP\Source\TransformFunctions/arm_cfft_f32.c ****     vecA = vldrwq_gather_base_wb_f32(&vecScGathAddr, 64);
 218:.\DSP\Source\TransformFunctions/arm_cfft_f32.c ****     vecC = vldrwq_gather_base_f32(vecScGathAddr, 16);
 219:.\DSP\Source\TransformFunctions/arm_cfft_f32.c **** 
 220:.\DSP\Source\TransformFunctions/arm_cfft_f32.c ****     blkCnt = (fftLen >> 3);
 221:.\DSP\Source\TransformFunctions/arm_cfft_f32.c ****     while (blkCnt > 0U)
 222:.\DSP\Source\TransformFunctions/arm_cfft_f32.c ****     {
 223:.\DSP\Source\TransformFunctions/arm_cfft_f32.c ****         vecSum0 = vecA + vecC;  /* vecSum0 = vaddq(vecA, vecC) */
 224:.\DSP\Source\TransformFunctions/arm_cfft_f32.c ****         vecDiff0 = vecA - vecC; /* vecSum0 = vsubq(vecA, vecC) */
 225:.\DSP\Source\TransformFunctions/arm_cfft_f32.c **** 
 226:.\DSP\Source\TransformFunctions/arm_cfft_f32.c ****         vecB = vldrwq_gather_base_f32(vecScGathAddr, 8);
 227:.\DSP\Source\TransformFunctions/arm_cfft_f32.c ****         vecD = vldrwq_gather_base_f32(vecScGathAddr, 24);
 228:.\DSP\Source\TransformFunctions/arm_cfft_f32.c **** 
 229:.\DSP\Source\TransformFunctions/arm_cfft_f32.c ****         vecSum1 = vecB + vecD;
 230:.\DSP\Source\TransformFunctions/arm_cfft_f32.c ****         vecDiff1 = vecB - vecD;
 231:.\DSP\Source\TransformFunctions/arm_cfft_f32.c **** 
 232:.\DSP\Source\TransformFunctions/arm_cfft_f32.c ****         /* pre-load for next iteration */
 233:.\DSP\Source\TransformFunctions/arm_cfft_f32.c ****         vecA = vldrwq_gather_base_wb_f32(&vecScGathAddr, 64);
 234:.\DSP\Source\TransformFunctions/arm_cfft_f32.c ****         vecC = vldrwq_gather_base_f32(vecScGathAddr, 16);
 235:.\DSP\Source\TransformFunctions/arm_cfft_f32.c **** 
 236:.\DSP\Source\TransformFunctions/arm_cfft_f32.c ****         vecTmp0 = vecSum0 + vecSum1;
 237:.\DSP\Source\TransformFunctions/arm_cfft_f32.c ****         vstrwq_scatter_base_f32(vecScGathAddr, -64, vecTmp0);
 238:.\DSP\Source\TransformFunctions/arm_cfft_f32.c **** 
 239:.\DSP\Source\TransformFunctions/arm_cfft_f32.c ****         vecTmp0 = vecSum0 - vecSum1;
 240:.\DSP\Source\TransformFunctions/arm_cfft_f32.c ****         vstrwq_scatter_base_f32(vecScGathAddr, -64 + 8, vecTmp0);
 241:.\DSP\Source\TransformFunctions/arm_cfft_f32.c **** 
 242:.\DSP\Source\TransformFunctions/arm_cfft_f32.c ****         vecTmp0 = MVE_CMPLX_SUB_A_ixB(vecDiff0, vecDiff1);
 243:.\DSP\Source\TransformFunctions/arm_cfft_f32.c ****         vstrwq_scatter_base_f32(vecScGathAddr, -64 + 16, vecTmp0);
 244:.\DSP\Source\TransformFunctions/arm_cfft_f32.c **** 
 245:.\DSP\Source\TransformFunctions/arm_cfft_f32.c ****         vecTmp0 = MVE_CMPLX_ADD_A_ixB(vecDiff0, vecDiff1);
 246:.\DSP\Source\TransformFunctions/arm_cfft_f32.c ****         vstrwq_scatter_base_f32(vecScGathAddr, -64 + 24, vecTmp0);
 247:.\DSP\Source\TransformFunctions/arm_cfft_f32.c **** 
 248:.\DSP\Source\TransformFunctions/arm_cfft_f32.c ****         blkCnt--;
 249:.\DSP\Source\TransformFunctions/arm_cfft_f32.c ****     }
 250:.\DSP\Source\TransformFunctions/arm_cfft_f32.c **** 
 251:.\DSP\Source\TransformFunctions/arm_cfft_f32.c ****     /*
 252:.\DSP\Source\TransformFunctions/arm_cfft_f32.c ****      * End of last stage process
 253:.\DSP\Source\TransformFunctions/arm_cfft_f32.c ****      */
 254:.\DSP\Source\TransformFunctions/arm_cfft_f32.c **** }
 255:.\DSP\Source\TransformFunctions/arm_cfft_f32.c **** 
 256:.\DSP\Source\TransformFunctions/arm_cfft_f32.c **** static void arm_cfft_radix4by2_f32_mve(const arm_cfft_instance_f32 * S, float32_t *pSrc, uint32_t f
ARM GAS  C:\Users\IVYLIU~1\AppData\Local\Temp\ccWLNWQl.s 			page 6


 257:.\DSP\Source\TransformFunctions/arm_cfft_f32.c **** {
 258:.\DSP\Source\TransformFunctions/arm_cfft_f32.c ****     float32_t const *pCoefVec;
 259:.\DSP\Source\TransformFunctions/arm_cfft_f32.c ****     float32_t const  *pCoef = S->pTwiddle;
 260:.\DSP\Source\TransformFunctions/arm_cfft_f32.c ****     float32_t        *pIn0, *pIn1;
 261:.\DSP\Source\TransformFunctions/arm_cfft_f32.c ****     uint32_t          n2;
 262:.\DSP\Source\TransformFunctions/arm_cfft_f32.c ****     uint32_t          blkCnt;
 263:.\DSP\Source\TransformFunctions/arm_cfft_f32.c ****     f32x4_t         vecIn0, vecIn1, vecSum, vecDiff;
 264:.\DSP\Source\TransformFunctions/arm_cfft_f32.c ****     f32x4_t         vecCmplxTmp, vecTw;
 265:.\DSP\Source\TransformFunctions/arm_cfft_f32.c **** 
 266:.\DSP\Source\TransformFunctions/arm_cfft_f32.c **** 
 267:.\DSP\Source\TransformFunctions/arm_cfft_f32.c ****     n2 = fftLen >> 1;
 268:.\DSP\Source\TransformFunctions/arm_cfft_f32.c ****     pIn0 = pSrc;
 269:.\DSP\Source\TransformFunctions/arm_cfft_f32.c ****     pIn1 = pSrc + fftLen;
 270:.\DSP\Source\TransformFunctions/arm_cfft_f32.c ****     pCoefVec = pCoef;
 271:.\DSP\Source\TransformFunctions/arm_cfft_f32.c **** 
 272:.\DSP\Source\TransformFunctions/arm_cfft_f32.c ****     blkCnt = n2 / 2;
 273:.\DSP\Source\TransformFunctions/arm_cfft_f32.c ****     while (blkCnt > 0U)
 274:.\DSP\Source\TransformFunctions/arm_cfft_f32.c ****     {
 275:.\DSP\Source\TransformFunctions/arm_cfft_f32.c ****         vecIn0 = *(f32x4_t *) pIn0;
 276:.\DSP\Source\TransformFunctions/arm_cfft_f32.c ****         vecIn1 = *(f32x4_t *) pIn1;
 277:.\DSP\Source\TransformFunctions/arm_cfft_f32.c ****         vecTw = vld1q(pCoefVec);
 278:.\DSP\Source\TransformFunctions/arm_cfft_f32.c ****         pCoefVec += 4;
 279:.\DSP\Source\TransformFunctions/arm_cfft_f32.c **** 
 280:.\DSP\Source\TransformFunctions/arm_cfft_f32.c ****         vecSum = vecIn0 + vecIn1;
 281:.\DSP\Source\TransformFunctions/arm_cfft_f32.c ****         vecDiff = vecIn0 - vecIn1;
 282:.\DSP\Source\TransformFunctions/arm_cfft_f32.c **** 
 283:.\DSP\Source\TransformFunctions/arm_cfft_f32.c ****         vecCmplxTmp = MVE_CMPLX_MULT_FLT_Conj_AxB(vecTw, vecDiff);
 284:.\DSP\Source\TransformFunctions/arm_cfft_f32.c **** 
 285:.\DSP\Source\TransformFunctions/arm_cfft_f32.c ****         vst1q(pIn0, vecSum);
 286:.\DSP\Source\TransformFunctions/arm_cfft_f32.c ****         pIn0 += 4;
 287:.\DSP\Source\TransformFunctions/arm_cfft_f32.c ****         vst1q(pIn1, vecCmplxTmp);
 288:.\DSP\Source\TransformFunctions/arm_cfft_f32.c ****         pIn1 += 4;
 289:.\DSP\Source\TransformFunctions/arm_cfft_f32.c **** 
 290:.\DSP\Source\TransformFunctions/arm_cfft_f32.c ****         blkCnt--;
 291:.\DSP\Source\TransformFunctions/arm_cfft_f32.c ****     }
 292:.\DSP\Source\TransformFunctions/arm_cfft_f32.c **** 
 293:.\DSP\Source\TransformFunctions/arm_cfft_f32.c ****     _arm_radix4_butterfly_f32_mve(S, pSrc, n2);
 294:.\DSP\Source\TransformFunctions/arm_cfft_f32.c **** 
 295:.\DSP\Source\TransformFunctions/arm_cfft_f32.c ****     _arm_radix4_butterfly_f32_mve(S, pSrc + fftLen, n2);
 296:.\DSP\Source\TransformFunctions/arm_cfft_f32.c **** 
 297:.\DSP\Source\TransformFunctions/arm_cfft_f32.c ****     pIn0 = pSrc;
 298:.\DSP\Source\TransformFunctions/arm_cfft_f32.c **** }
 299:.\DSP\Source\TransformFunctions/arm_cfft_f32.c **** 
 300:.\DSP\Source\TransformFunctions/arm_cfft_f32.c **** static void _arm_radix4_butterfly_inverse_f32_mve(const arm_cfft_instance_f32 * S,float32_t * pSrc,
 301:.\DSP\Source\TransformFunctions/arm_cfft_f32.c **** {
 302:.\DSP\Source\TransformFunctions/arm_cfft_f32.c ****     f32x4_t vecTmp0, vecTmp1;
 303:.\DSP\Source\TransformFunctions/arm_cfft_f32.c ****     f32x4_t vecSum0, vecDiff0, vecSum1, vecDiff1;
 304:.\DSP\Source\TransformFunctions/arm_cfft_f32.c ****     f32x4_t vecA, vecB, vecC, vecD;
 305:.\DSP\Source\TransformFunctions/arm_cfft_f32.c ****     uint32_t  blkCnt;
 306:.\DSP\Source\TransformFunctions/arm_cfft_f32.c ****     uint32_t  n1, n2;
 307:.\DSP\Source\TransformFunctions/arm_cfft_f32.c ****     uint32_t  stage = 0;
 308:.\DSP\Source\TransformFunctions/arm_cfft_f32.c ****     int32_t  iter = 1;
 309:.\DSP\Source\TransformFunctions/arm_cfft_f32.c ****     static const int32_t strides[4] = {
 310:.\DSP\Source\TransformFunctions/arm_cfft_f32.c ****         (0 - 16) * (int32_t)sizeof(q31_t *),
 311:.\DSP\Source\TransformFunctions/arm_cfft_f32.c ****         (1 - 16) * (int32_t)sizeof(q31_t *),
 312:.\DSP\Source\TransformFunctions/arm_cfft_f32.c ****         (8 - 16) * (int32_t)sizeof(q31_t *),
 313:.\DSP\Source\TransformFunctions/arm_cfft_f32.c ****         (9 - 16) * (int32_t)sizeof(q31_t *)
ARM GAS  C:\Users\IVYLIU~1\AppData\Local\Temp\ccWLNWQl.s 			page 7


 314:.\DSP\Source\TransformFunctions/arm_cfft_f32.c ****     };
 315:.\DSP\Source\TransformFunctions/arm_cfft_f32.c **** 
 316:.\DSP\Source\TransformFunctions/arm_cfft_f32.c ****     n2 = fftLen;
 317:.\DSP\Source\TransformFunctions/arm_cfft_f32.c ****     n1 = n2;
 318:.\DSP\Source\TransformFunctions/arm_cfft_f32.c ****     n2 >>= 2u;
 319:.\DSP\Source\TransformFunctions/arm_cfft_f32.c ****     for (int k = fftLen / 4; k > 1; k >>= 2)
 320:.\DSP\Source\TransformFunctions/arm_cfft_f32.c ****     {
 321:.\DSP\Source\TransformFunctions/arm_cfft_f32.c ****         float32_t const *p_rearranged_twiddle_tab_stride1 =
 322:.\DSP\Source\TransformFunctions/arm_cfft_f32.c ****                 &S->rearranged_twiddle_stride1[
 323:.\DSP\Source\TransformFunctions/arm_cfft_f32.c ****                 S->rearranged_twiddle_tab_stride1_arr[stage]];
 324:.\DSP\Source\TransformFunctions/arm_cfft_f32.c ****         float32_t const *p_rearranged_twiddle_tab_stride2 =
 325:.\DSP\Source\TransformFunctions/arm_cfft_f32.c ****                 &S->rearranged_twiddle_stride2[
 326:.\DSP\Source\TransformFunctions/arm_cfft_f32.c ****                 S->rearranged_twiddle_tab_stride2_arr[stage]];
 327:.\DSP\Source\TransformFunctions/arm_cfft_f32.c ****         float32_t const *p_rearranged_twiddle_tab_stride3 =
 328:.\DSP\Source\TransformFunctions/arm_cfft_f32.c ****                 &S->rearranged_twiddle_stride3[
 329:.\DSP\Source\TransformFunctions/arm_cfft_f32.c ****                 S->rearranged_twiddle_tab_stride3_arr[stage]];
 330:.\DSP\Source\TransformFunctions/arm_cfft_f32.c **** 
 331:.\DSP\Source\TransformFunctions/arm_cfft_f32.c ****         float32_t * pBase = pSrc;
 332:.\DSP\Source\TransformFunctions/arm_cfft_f32.c ****         for (int i = 0; i < iter; i++)
 333:.\DSP\Source\TransformFunctions/arm_cfft_f32.c ****         {
 334:.\DSP\Source\TransformFunctions/arm_cfft_f32.c ****             float32_t    *inA = pBase;
 335:.\DSP\Source\TransformFunctions/arm_cfft_f32.c ****             float32_t    *inB = inA + n2 * CMPLX_DIM;
 336:.\DSP\Source\TransformFunctions/arm_cfft_f32.c ****             float32_t    *inC = inB + n2 * CMPLX_DIM;
 337:.\DSP\Source\TransformFunctions/arm_cfft_f32.c ****             float32_t    *inD = inC + n2 * CMPLX_DIM;
 338:.\DSP\Source\TransformFunctions/arm_cfft_f32.c ****             float32_t const *pW1 = p_rearranged_twiddle_tab_stride1;
 339:.\DSP\Source\TransformFunctions/arm_cfft_f32.c ****             float32_t const *pW2 = p_rearranged_twiddle_tab_stride2;
 340:.\DSP\Source\TransformFunctions/arm_cfft_f32.c ****             float32_t const *pW3 = p_rearranged_twiddle_tab_stride3;
 341:.\DSP\Source\TransformFunctions/arm_cfft_f32.c ****             f32x4_t       vecW;
 342:.\DSP\Source\TransformFunctions/arm_cfft_f32.c **** 
 343:.\DSP\Source\TransformFunctions/arm_cfft_f32.c ****             blkCnt = n2 / 2;
 344:.\DSP\Source\TransformFunctions/arm_cfft_f32.c ****             /*
 345:.\DSP\Source\TransformFunctions/arm_cfft_f32.c ****              * load 2 f32 complex pair
 346:.\DSP\Source\TransformFunctions/arm_cfft_f32.c ****              */
 347:.\DSP\Source\TransformFunctions/arm_cfft_f32.c ****             vecA = vldrwq_f32(inA);
 348:.\DSP\Source\TransformFunctions/arm_cfft_f32.c ****             vecC = vldrwq_f32(inC);
 349:.\DSP\Source\TransformFunctions/arm_cfft_f32.c ****             while (blkCnt > 0U)
 350:.\DSP\Source\TransformFunctions/arm_cfft_f32.c ****             {
 351:.\DSP\Source\TransformFunctions/arm_cfft_f32.c ****                 vecB = vldrwq_f32(inB);
 352:.\DSP\Source\TransformFunctions/arm_cfft_f32.c ****                 vecD = vldrwq_f32(inD);
 353:.\DSP\Source\TransformFunctions/arm_cfft_f32.c **** 
 354:.\DSP\Source\TransformFunctions/arm_cfft_f32.c ****                 vecSum0 = vecA + vecC;  /* vecSum0 = vaddq(vecA, vecC) */
 355:.\DSP\Source\TransformFunctions/arm_cfft_f32.c ****                 vecDiff0 = vecA - vecC; /* vecSum0 = vsubq(vecA, vecC) */
 356:.\DSP\Source\TransformFunctions/arm_cfft_f32.c **** 
 357:.\DSP\Source\TransformFunctions/arm_cfft_f32.c ****                 vecSum1 = vecB + vecD;
 358:.\DSP\Source\TransformFunctions/arm_cfft_f32.c ****                 vecDiff1 = vecB - vecD;
 359:.\DSP\Source\TransformFunctions/arm_cfft_f32.c ****                 /*
 360:.\DSP\Source\TransformFunctions/arm_cfft_f32.c ****                  * [ 1 1 1 1 ] * [ A B C D ]' .* 1
 361:.\DSP\Source\TransformFunctions/arm_cfft_f32.c ****                  */
 362:.\DSP\Source\TransformFunctions/arm_cfft_f32.c ****                 vecTmp0 = vecSum0 + vecSum1;
 363:.\DSP\Source\TransformFunctions/arm_cfft_f32.c ****                 vst1q(inA, vecTmp0);
 364:.\DSP\Source\TransformFunctions/arm_cfft_f32.c ****                 inA += 4;
 365:.\DSP\Source\TransformFunctions/arm_cfft_f32.c ****                 /*
 366:.\DSP\Source\TransformFunctions/arm_cfft_f32.c ****                  * [ 1 -1 1 -1 ] * [ A B C D ]'
 367:.\DSP\Source\TransformFunctions/arm_cfft_f32.c ****                  */
 368:.\DSP\Source\TransformFunctions/arm_cfft_f32.c ****                 vecTmp0 = vecSum0 - vecSum1;
 369:.\DSP\Source\TransformFunctions/arm_cfft_f32.c ****                 /*
 370:.\DSP\Source\TransformFunctions/arm_cfft_f32.c ****                  * [ 1 -1 1 -1 ] * [ A B C D ]'.* W1
ARM GAS  C:\Users\IVYLIU~1\AppData\Local\Temp\ccWLNWQl.s 			page 8


 371:.\DSP\Source\TransformFunctions/arm_cfft_f32.c ****                  */
 372:.\DSP\Source\TransformFunctions/arm_cfft_f32.c ****                 vecW = vld1q(pW2);
 373:.\DSP\Source\TransformFunctions/arm_cfft_f32.c ****                 pW2 += 4;
 374:.\DSP\Source\TransformFunctions/arm_cfft_f32.c ****                 vecTmp1 = MVE_CMPLX_MULT_FLT_AxB(vecW, vecTmp0);
 375:.\DSP\Source\TransformFunctions/arm_cfft_f32.c ****                 vst1q(inB, vecTmp1);
 376:.\DSP\Source\TransformFunctions/arm_cfft_f32.c ****                 inB += 4;
 377:.\DSP\Source\TransformFunctions/arm_cfft_f32.c **** 
 378:.\DSP\Source\TransformFunctions/arm_cfft_f32.c ****                 /*
 379:.\DSP\Source\TransformFunctions/arm_cfft_f32.c ****                  * [ 1 -i -1 +i ] * [ A B C D ]'
 380:.\DSP\Source\TransformFunctions/arm_cfft_f32.c ****                  */
 381:.\DSP\Source\TransformFunctions/arm_cfft_f32.c ****                 vecTmp0 = MVE_CMPLX_ADD_A_ixB(vecDiff0, vecDiff1);
 382:.\DSP\Source\TransformFunctions/arm_cfft_f32.c ****                 /*
 383:.\DSP\Source\TransformFunctions/arm_cfft_f32.c ****                  * [ 1 -i -1 +i ] * [ A B C D ]'.* W2
 384:.\DSP\Source\TransformFunctions/arm_cfft_f32.c ****                  */
 385:.\DSP\Source\TransformFunctions/arm_cfft_f32.c ****                 vecW = vld1q(pW1);
 386:.\DSP\Source\TransformFunctions/arm_cfft_f32.c ****                 pW1 += 4;
 387:.\DSP\Source\TransformFunctions/arm_cfft_f32.c ****                 vecTmp1 = MVE_CMPLX_MULT_FLT_AxB(vecW, vecTmp0);
 388:.\DSP\Source\TransformFunctions/arm_cfft_f32.c ****                 vst1q(inC, vecTmp1);
 389:.\DSP\Source\TransformFunctions/arm_cfft_f32.c ****                 inC += 4;
 390:.\DSP\Source\TransformFunctions/arm_cfft_f32.c **** 
 391:.\DSP\Source\TransformFunctions/arm_cfft_f32.c ****                 /*
 392:.\DSP\Source\TransformFunctions/arm_cfft_f32.c ****                  * [ 1 +i -1 -i ] * [ A B C D ]'
 393:.\DSP\Source\TransformFunctions/arm_cfft_f32.c ****                  */
 394:.\DSP\Source\TransformFunctions/arm_cfft_f32.c ****                 vecTmp0 = MVE_CMPLX_SUB_A_ixB(vecDiff0, vecDiff1);
 395:.\DSP\Source\TransformFunctions/arm_cfft_f32.c ****                 /*
 396:.\DSP\Source\TransformFunctions/arm_cfft_f32.c ****                  * [ 1 +i -1 -i ] * [ A B C D ]'.* W3
 397:.\DSP\Source\TransformFunctions/arm_cfft_f32.c ****                  */
 398:.\DSP\Source\TransformFunctions/arm_cfft_f32.c ****                 vecW = vld1q(pW3);
 399:.\DSP\Source\TransformFunctions/arm_cfft_f32.c ****                 pW3 += 4;
 400:.\DSP\Source\TransformFunctions/arm_cfft_f32.c ****                 vecTmp1 = MVE_CMPLX_MULT_FLT_AxB(vecW, vecTmp0);
 401:.\DSP\Source\TransformFunctions/arm_cfft_f32.c ****                 vst1q(inD, vecTmp1);
 402:.\DSP\Source\TransformFunctions/arm_cfft_f32.c ****                 inD += 4;
 403:.\DSP\Source\TransformFunctions/arm_cfft_f32.c **** 
 404:.\DSP\Source\TransformFunctions/arm_cfft_f32.c ****                 vecA = vldrwq_f32(inA);
 405:.\DSP\Source\TransformFunctions/arm_cfft_f32.c ****                 vecC = vldrwq_f32(inC);
 406:.\DSP\Source\TransformFunctions/arm_cfft_f32.c **** 
 407:.\DSP\Source\TransformFunctions/arm_cfft_f32.c ****                 blkCnt--;
 408:.\DSP\Source\TransformFunctions/arm_cfft_f32.c ****             }
 409:.\DSP\Source\TransformFunctions/arm_cfft_f32.c ****             pBase +=  CMPLX_DIM * n1;
 410:.\DSP\Source\TransformFunctions/arm_cfft_f32.c ****         }
 411:.\DSP\Source\TransformFunctions/arm_cfft_f32.c ****         n1 = n2;
 412:.\DSP\Source\TransformFunctions/arm_cfft_f32.c ****         n2 >>= 2u;
 413:.\DSP\Source\TransformFunctions/arm_cfft_f32.c ****         iter = iter << 2;
 414:.\DSP\Source\TransformFunctions/arm_cfft_f32.c ****         stage++;
 415:.\DSP\Source\TransformFunctions/arm_cfft_f32.c ****     }
 416:.\DSP\Source\TransformFunctions/arm_cfft_f32.c **** 
 417:.\DSP\Source\TransformFunctions/arm_cfft_f32.c ****     /*
 418:.\DSP\Source\TransformFunctions/arm_cfft_f32.c ****      * start of Last stage process
 419:.\DSP\Source\TransformFunctions/arm_cfft_f32.c ****      */
 420:.\DSP\Source\TransformFunctions/arm_cfft_f32.c ****     uint32x4_t vecScGathAddr = vld1q_u32 ((uint32_t*)strides);
 421:.\DSP\Source\TransformFunctions/arm_cfft_f32.c ****     vecScGathAddr = vecScGathAddr + (uint32_t) pSrc;
 422:.\DSP\Source\TransformFunctions/arm_cfft_f32.c **** 
 423:.\DSP\Source\TransformFunctions/arm_cfft_f32.c ****     /*
 424:.\DSP\Source\TransformFunctions/arm_cfft_f32.c ****      * load scheduling
 425:.\DSP\Source\TransformFunctions/arm_cfft_f32.c ****      */
 426:.\DSP\Source\TransformFunctions/arm_cfft_f32.c ****     vecA = vldrwq_gather_base_wb_f32(&vecScGathAddr, 64);
 427:.\DSP\Source\TransformFunctions/arm_cfft_f32.c ****     vecC = vldrwq_gather_base_f32(vecScGathAddr, 16);
ARM GAS  C:\Users\IVYLIU~1\AppData\Local\Temp\ccWLNWQl.s 			page 9


 428:.\DSP\Source\TransformFunctions/arm_cfft_f32.c **** 
 429:.\DSP\Source\TransformFunctions/arm_cfft_f32.c ****     blkCnt = (fftLen >> 3);
 430:.\DSP\Source\TransformFunctions/arm_cfft_f32.c ****     while (blkCnt > 0U)
 431:.\DSP\Source\TransformFunctions/arm_cfft_f32.c ****     {
 432:.\DSP\Source\TransformFunctions/arm_cfft_f32.c ****         vecSum0 = vecA + vecC;  /* vecSum0 = vaddq(vecA, vecC) */
 433:.\DSP\Source\TransformFunctions/arm_cfft_f32.c ****         vecDiff0 = vecA - vecC; /* vecSum0 = vsubq(vecA, vecC) */
 434:.\DSP\Source\TransformFunctions/arm_cfft_f32.c **** 
 435:.\DSP\Source\TransformFunctions/arm_cfft_f32.c ****         vecB = vldrwq_gather_base_f32(vecScGathAddr, 8);
 436:.\DSP\Source\TransformFunctions/arm_cfft_f32.c ****         vecD = vldrwq_gather_base_f32(vecScGathAddr, 24);
 437:.\DSP\Source\TransformFunctions/arm_cfft_f32.c **** 
 438:.\DSP\Source\TransformFunctions/arm_cfft_f32.c ****         vecSum1 = vecB + vecD;
 439:.\DSP\Source\TransformFunctions/arm_cfft_f32.c ****         vecDiff1 = vecB - vecD;
 440:.\DSP\Source\TransformFunctions/arm_cfft_f32.c **** 
 441:.\DSP\Source\TransformFunctions/arm_cfft_f32.c ****         vecA = vldrwq_gather_base_wb_f32(&vecScGathAddr, 64);
 442:.\DSP\Source\TransformFunctions/arm_cfft_f32.c ****         vecC = vldrwq_gather_base_f32(vecScGathAddr, 16);
 443:.\DSP\Source\TransformFunctions/arm_cfft_f32.c **** 
 444:.\DSP\Source\TransformFunctions/arm_cfft_f32.c ****         vecTmp0 = vecSum0 + vecSum1;
 445:.\DSP\Source\TransformFunctions/arm_cfft_f32.c ****         vecTmp0 = vecTmp0 * onebyfftLen;
 446:.\DSP\Source\TransformFunctions/arm_cfft_f32.c ****         vstrwq_scatter_base_f32(vecScGathAddr, -64, vecTmp0);
 447:.\DSP\Source\TransformFunctions/arm_cfft_f32.c **** 
 448:.\DSP\Source\TransformFunctions/arm_cfft_f32.c ****         vecTmp0 = vecSum0 - vecSum1;
 449:.\DSP\Source\TransformFunctions/arm_cfft_f32.c ****         vecTmp0 = vecTmp0 * onebyfftLen;
 450:.\DSP\Source\TransformFunctions/arm_cfft_f32.c ****         vstrwq_scatter_base_f32(vecScGathAddr, -64 + 8, vecTmp0);
 451:.\DSP\Source\TransformFunctions/arm_cfft_f32.c **** 
 452:.\DSP\Source\TransformFunctions/arm_cfft_f32.c ****         vecTmp0 = MVE_CMPLX_ADD_A_ixB(vecDiff0, vecDiff1);
 453:.\DSP\Source\TransformFunctions/arm_cfft_f32.c ****         vecTmp0 = vecTmp0 * onebyfftLen;
 454:.\DSP\Source\TransformFunctions/arm_cfft_f32.c ****         vstrwq_scatter_base_f32(vecScGathAddr, -64 + 16, vecTmp0);
 455:.\DSP\Source\TransformFunctions/arm_cfft_f32.c **** 
 456:.\DSP\Source\TransformFunctions/arm_cfft_f32.c ****         vecTmp0 = MVE_CMPLX_SUB_A_ixB(vecDiff0, vecDiff1);
 457:.\DSP\Source\TransformFunctions/arm_cfft_f32.c ****         vecTmp0 = vecTmp0 * onebyfftLen;
 458:.\DSP\Source\TransformFunctions/arm_cfft_f32.c ****         vstrwq_scatter_base_f32(vecScGathAddr, -64 + 24, vecTmp0);
 459:.\DSP\Source\TransformFunctions/arm_cfft_f32.c **** 
 460:.\DSP\Source\TransformFunctions/arm_cfft_f32.c ****         blkCnt--;
 461:.\DSP\Source\TransformFunctions/arm_cfft_f32.c ****     }
 462:.\DSP\Source\TransformFunctions/arm_cfft_f32.c **** 
 463:.\DSP\Source\TransformFunctions/arm_cfft_f32.c ****     /*
 464:.\DSP\Source\TransformFunctions/arm_cfft_f32.c ****      * End of last stage process
 465:.\DSP\Source\TransformFunctions/arm_cfft_f32.c ****      */
 466:.\DSP\Source\TransformFunctions/arm_cfft_f32.c **** }
 467:.\DSP\Source\TransformFunctions/arm_cfft_f32.c **** 
 468:.\DSP\Source\TransformFunctions/arm_cfft_f32.c **** static void arm_cfft_radix4by2_inverse_f32_mve(const arm_cfft_instance_f32 * S,float32_t *pSrc, uin
 469:.\DSP\Source\TransformFunctions/arm_cfft_f32.c **** {
 470:.\DSP\Source\TransformFunctions/arm_cfft_f32.c ****     float32_t const *pCoefVec;
 471:.\DSP\Source\TransformFunctions/arm_cfft_f32.c ****     float32_t const  *pCoef = S->pTwiddle;
 472:.\DSP\Source\TransformFunctions/arm_cfft_f32.c ****     float32_t        *pIn0, *pIn1;
 473:.\DSP\Source\TransformFunctions/arm_cfft_f32.c ****     uint32_t          n2;
 474:.\DSP\Source\TransformFunctions/arm_cfft_f32.c ****     float32_t         onebyfftLen = arm_inverse_fft_length_f32(fftLen);
 475:.\DSP\Source\TransformFunctions/arm_cfft_f32.c ****     uint32_t          blkCnt;
 476:.\DSP\Source\TransformFunctions/arm_cfft_f32.c ****     f32x4_t         vecIn0, vecIn1, vecSum, vecDiff;
 477:.\DSP\Source\TransformFunctions/arm_cfft_f32.c ****     f32x4_t         vecCmplxTmp, vecTw;
 478:.\DSP\Source\TransformFunctions/arm_cfft_f32.c **** 
 479:.\DSP\Source\TransformFunctions/arm_cfft_f32.c **** 
 480:.\DSP\Source\TransformFunctions/arm_cfft_f32.c ****     n2 = fftLen >> 1;
 481:.\DSP\Source\TransformFunctions/arm_cfft_f32.c ****     pIn0 = pSrc;
 482:.\DSP\Source\TransformFunctions/arm_cfft_f32.c ****     pIn1 = pSrc + fftLen;
 483:.\DSP\Source\TransformFunctions/arm_cfft_f32.c ****     pCoefVec = pCoef;
 484:.\DSP\Source\TransformFunctions/arm_cfft_f32.c **** 
ARM GAS  C:\Users\IVYLIU~1\AppData\Local\Temp\ccWLNWQl.s 			page 10


 485:.\DSP\Source\TransformFunctions/arm_cfft_f32.c ****     blkCnt = n2 / 2;
 486:.\DSP\Source\TransformFunctions/arm_cfft_f32.c ****     while (blkCnt > 0U)
 487:.\DSP\Source\TransformFunctions/arm_cfft_f32.c ****     {
 488:.\DSP\Source\TransformFunctions/arm_cfft_f32.c ****         vecIn0 = *(f32x4_t *) pIn0;
 489:.\DSP\Source\TransformFunctions/arm_cfft_f32.c ****         vecIn1 = *(f32x4_t *) pIn1;
 490:.\DSP\Source\TransformFunctions/arm_cfft_f32.c ****         vecTw = vld1q(pCoefVec);
 491:.\DSP\Source\TransformFunctions/arm_cfft_f32.c ****         pCoefVec += 4;
 492:.\DSP\Source\TransformFunctions/arm_cfft_f32.c **** 
 493:.\DSP\Source\TransformFunctions/arm_cfft_f32.c ****         vecSum = vecIn0 + vecIn1;
 494:.\DSP\Source\TransformFunctions/arm_cfft_f32.c ****         vecDiff = vecIn0 - vecIn1;
 495:.\DSP\Source\TransformFunctions/arm_cfft_f32.c **** 
 496:.\DSP\Source\TransformFunctions/arm_cfft_f32.c ****         vecCmplxTmp = MVE_CMPLX_MULT_FLT_AxB(vecTw, vecDiff);
 497:.\DSP\Source\TransformFunctions/arm_cfft_f32.c **** 
 498:.\DSP\Source\TransformFunctions/arm_cfft_f32.c ****         vst1q(pIn0, vecSum);
 499:.\DSP\Source\TransformFunctions/arm_cfft_f32.c ****         pIn0 += 4;
 500:.\DSP\Source\TransformFunctions/arm_cfft_f32.c ****         vst1q(pIn1, vecCmplxTmp);
 501:.\DSP\Source\TransformFunctions/arm_cfft_f32.c ****         pIn1 += 4;
 502:.\DSP\Source\TransformFunctions/arm_cfft_f32.c **** 
 503:.\DSP\Source\TransformFunctions/arm_cfft_f32.c ****         blkCnt--;
 504:.\DSP\Source\TransformFunctions/arm_cfft_f32.c ****     }
 505:.\DSP\Source\TransformFunctions/arm_cfft_f32.c **** 
 506:.\DSP\Source\TransformFunctions/arm_cfft_f32.c ****     _arm_radix4_butterfly_inverse_f32_mve(S, pSrc, n2, onebyfftLen);
 507:.\DSP\Source\TransformFunctions/arm_cfft_f32.c **** 
 508:.\DSP\Source\TransformFunctions/arm_cfft_f32.c ****     _arm_radix4_butterfly_inverse_f32_mve(S, pSrc + fftLen, n2, onebyfftLen);
 509:.\DSP\Source\TransformFunctions/arm_cfft_f32.c **** }
 510:.\DSP\Source\TransformFunctions/arm_cfft_f32.c **** 
 511:.\DSP\Source\TransformFunctions/arm_cfft_f32.c **** 
 512:.\DSP\Source\TransformFunctions/arm_cfft_f32.c **** /**
 513:.\DSP\Source\TransformFunctions/arm_cfft_f32.c ****   @addtogroup ComplexFFT
 514:.\DSP\Source\TransformFunctions/arm_cfft_f32.c ****   @{
 515:.\DSP\Source\TransformFunctions/arm_cfft_f32.c ****  */
 516:.\DSP\Source\TransformFunctions/arm_cfft_f32.c **** 
 517:.\DSP\Source\TransformFunctions/arm_cfft_f32.c **** /**
 518:.\DSP\Source\TransformFunctions/arm_cfft_f32.c ****   @brief         Processing function for the floating-point complex FFT.
 519:.\DSP\Source\TransformFunctions/arm_cfft_f32.c ****   @param[in]     S              points to an instance of the floating-point CFFT structure
 520:.\DSP\Source\TransformFunctions/arm_cfft_f32.c ****   @param[in,out] p1             points to the complex data buffer of size <code>2*fftLen</code>. Pr
 521:.\DSP\Source\TransformFunctions/arm_cfft_f32.c ****   @param[in]     ifftFlag       flag that selects transform direction
 522:.\DSP\Source\TransformFunctions/arm_cfft_f32.c ****                    - value = 0: forward transform
 523:.\DSP\Source\TransformFunctions/arm_cfft_f32.c ****                    - value = 1: inverse transform
 524:.\DSP\Source\TransformFunctions/arm_cfft_f32.c ****   @param[in]     bitReverseFlag flag that enables / disables bit reversal of output
 525:.\DSP\Source\TransformFunctions/arm_cfft_f32.c ****                    - value = 0: disables bit reversal of output
 526:.\DSP\Source\TransformFunctions/arm_cfft_f32.c ****                    - value = 1: enables bit reversal of output
 527:.\DSP\Source\TransformFunctions/arm_cfft_f32.c ****   @return        none
 528:.\DSP\Source\TransformFunctions/arm_cfft_f32.c ****  */
 529:.\DSP\Source\TransformFunctions/arm_cfft_f32.c **** 
 530:.\DSP\Source\TransformFunctions/arm_cfft_f32.c **** 
 531:.\DSP\Source\TransformFunctions/arm_cfft_f32.c **** void arm_cfft_f32(
 532:.\DSP\Source\TransformFunctions/arm_cfft_f32.c ****   const arm_cfft_instance_f32 * S,
 533:.\DSP\Source\TransformFunctions/arm_cfft_f32.c ****         float32_t * pSrc,
 534:.\DSP\Source\TransformFunctions/arm_cfft_f32.c ****         uint8_t ifftFlag,
 535:.\DSP\Source\TransformFunctions/arm_cfft_f32.c ****         uint8_t bitReverseFlag)
 536:.\DSP\Source\TransformFunctions/arm_cfft_f32.c **** {
 537:.\DSP\Source\TransformFunctions/arm_cfft_f32.c ****         uint32_t fftLen = S->fftLen;
 538:.\DSP\Source\TransformFunctions/arm_cfft_f32.c **** 
 539:.\DSP\Source\TransformFunctions/arm_cfft_f32.c ****         if (ifftFlag == 1U) {
 540:.\DSP\Source\TransformFunctions/arm_cfft_f32.c **** 
 541:.\DSP\Source\TransformFunctions/arm_cfft_f32.c ****             switch (fftLen) {
ARM GAS  C:\Users\IVYLIU~1\AppData\Local\Temp\ccWLNWQl.s 			page 11


 542:.\DSP\Source\TransformFunctions/arm_cfft_f32.c ****             case 16:
 543:.\DSP\Source\TransformFunctions/arm_cfft_f32.c ****             case 64:
 544:.\DSP\Source\TransformFunctions/arm_cfft_f32.c ****             case 256:
 545:.\DSP\Source\TransformFunctions/arm_cfft_f32.c ****             case 1024:
 546:.\DSP\Source\TransformFunctions/arm_cfft_f32.c ****             case 4096:
 547:.\DSP\Source\TransformFunctions/arm_cfft_f32.c ****                 _arm_radix4_butterfly_inverse_f32_mve(S, pSrc, fftLen, arm_inverse_fft_length_f32(S
 548:.\DSP\Source\TransformFunctions/arm_cfft_f32.c ****                 break;
 549:.\DSP\Source\TransformFunctions/arm_cfft_f32.c **** 
 550:.\DSP\Source\TransformFunctions/arm_cfft_f32.c ****             case 32:
 551:.\DSP\Source\TransformFunctions/arm_cfft_f32.c ****             case 128:
 552:.\DSP\Source\TransformFunctions/arm_cfft_f32.c ****             case 512:
 553:.\DSP\Source\TransformFunctions/arm_cfft_f32.c ****             case 2048:
 554:.\DSP\Source\TransformFunctions/arm_cfft_f32.c ****                 arm_cfft_radix4by2_inverse_f32_mve(S, pSrc, fftLen);
 555:.\DSP\Source\TransformFunctions/arm_cfft_f32.c ****                 break;
 556:.\DSP\Source\TransformFunctions/arm_cfft_f32.c ****             }
 557:.\DSP\Source\TransformFunctions/arm_cfft_f32.c ****         } else {
 558:.\DSP\Source\TransformFunctions/arm_cfft_f32.c ****             switch (fftLen) {
 559:.\DSP\Source\TransformFunctions/arm_cfft_f32.c ****             case 16:
 560:.\DSP\Source\TransformFunctions/arm_cfft_f32.c ****             case 64:
 561:.\DSP\Source\TransformFunctions/arm_cfft_f32.c ****             case 256:
 562:.\DSP\Source\TransformFunctions/arm_cfft_f32.c ****             case 1024:
 563:.\DSP\Source\TransformFunctions/arm_cfft_f32.c ****             case 4096:
 564:.\DSP\Source\TransformFunctions/arm_cfft_f32.c ****                 _arm_radix4_butterfly_f32_mve(S, pSrc, fftLen);
 565:.\DSP\Source\TransformFunctions/arm_cfft_f32.c ****                 break;
 566:.\DSP\Source\TransformFunctions/arm_cfft_f32.c **** 
 567:.\DSP\Source\TransformFunctions/arm_cfft_f32.c ****             case 32:
 568:.\DSP\Source\TransformFunctions/arm_cfft_f32.c ****             case 128:
 569:.\DSP\Source\TransformFunctions/arm_cfft_f32.c ****             case 512:
 570:.\DSP\Source\TransformFunctions/arm_cfft_f32.c ****             case 2048:
 571:.\DSP\Source\TransformFunctions/arm_cfft_f32.c ****                 arm_cfft_radix4by2_f32_mve(S, pSrc, fftLen);
 572:.\DSP\Source\TransformFunctions/arm_cfft_f32.c ****                 break;
 573:.\DSP\Source\TransformFunctions/arm_cfft_f32.c ****             }
 574:.\DSP\Source\TransformFunctions/arm_cfft_f32.c ****         }
 575:.\DSP\Source\TransformFunctions/arm_cfft_f32.c **** 
 576:.\DSP\Source\TransformFunctions/arm_cfft_f32.c **** 
 577:.\DSP\Source\TransformFunctions/arm_cfft_f32.c ****         if (bitReverseFlag)
 578:.\DSP\Source\TransformFunctions/arm_cfft_f32.c ****         {
 579:.\DSP\Source\TransformFunctions/arm_cfft_f32.c **** 
 580:.\DSP\Source\TransformFunctions/arm_cfft_f32.c ****             arm_bitreversal_32_inpl_mve((uint32_t*)pSrc, S->bitRevLength, S->pBitRevTable);
 581:.\DSP\Source\TransformFunctions/arm_cfft_f32.c **** 
 582:.\DSP\Source\TransformFunctions/arm_cfft_f32.c ****         }
 583:.\DSP\Source\TransformFunctions/arm_cfft_f32.c **** }
 584:.\DSP\Source\TransformFunctions/arm_cfft_f32.c **** 
 585:.\DSP\Source\TransformFunctions/arm_cfft_f32.c **** 
 586:.\DSP\Source\TransformFunctions/arm_cfft_f32.c **** #else
 587:.\DSP\Source\TransformFunctions/arm_cfft_f32.c **** extern void arm_radix8_butterfly_f32(
 588:.\DSP\Source\TransformFunctions/arm_cfft_f32.c ****         float32_t * pSrc,
 589:.\DSP\Source\TransformFunctions/arm_cfft_f32.c ****         uint16_t fftLen,
 590:.\DSP\Source\TransformFunctions/arm_cfft_f32.c ****   const float32_t * pCoef,
 591:.\DSP\Source\TransformFunctions/arm_cfft_f32.c ****         uint16_t twidCoefModifier);
 592:.\DSP\Source\TransformFunctions/arm_cfft_f32.c **** 
 593:.\DSP\Source\TransformFunctions/arm_cfft_f32.c **** extern void arm_bitreversal_32(
 594:.\DSP\Source\TransformFunctions/arm_cfft_f32.c ****         uint32_t * pSrc,
 595:.\DSP\Source\TransformFunctions/arm_cfft_f32.c ****   const uint16_t bitRevLen,
 596:.\DSP\Source\TransformFunctions/arm_cfft_f32.c ****   const uint16_t * pBitRevTable);
 597:.\DSP\Source\TransformFunctions/arm_cfft_f32.c **** 
 598:.\DSP\Source\TransformFunctions/arm_cfft_f32.c **** /**
ARM GAS  C:\Users\IVYLIU~1\AppData\Local\Temp\ccWLNWQl.s 			page 12


 599:.\DSP\Source\TransformFunctions/arm_cfft_f32.c ****   @ingroup groupTransforms
 600:.\DSP\Source\TransformFunctions/arm_cfft_f32.c ****  */
 601:.\DSP\Source\TransformFunctions/arm_cfft_f32.c **** 
 602:.\DSP\Source\TransformFunctions/arm_cfft_f32.c **** /**
 603:.\DSP\Source\TransformFunctions/arm_cfft_f32.c ****   @defgroup ComplexFFT Complex FFT Functions
 604:.\DSP\Source\TransformFunctions/arm_cfft_f32.c **** 
 605:.\DSP\Source\TransformFunctions/arm_cfft_f32.c ****   @par
 606:.\DSP\Source\TransformFunctions/arm_cfft_f32.c ****                    The Fast Fourier Transform (FFT) is an efficient algorithm for computing the
 607:.\DSP\Source\TransformFunctions/arm_cfft_f32.c ****                    Discrete Fourier Transform (DFT).  The FFT can be orders of magnitude faster
 608:.\DSP\Source\TransformFunctions/arm_cfft_f32.c ****                    than the DFT, especially for long lengths.
 609:.\DSP\Source\TransformFunctions/arm_cfft_f32.c ****                    The algorithms described in this section
 610:.\DSP\Source\TransformFunctions/arm_cfft_f32.c ****                    operate on complex data.  A separate set of functions is devoted to handling
 611:.\DSP\Source\TransformFunctions/arm_cfft_f32.c ****                    of real sequences.
 612:.\DSP\Source\TransformFunctions/arm_cfft_f32.c ****   @par
 613:.\DSP\Source\TransformFunctions/arm_cfft_f32.c ****                    There are separate algorithms for handling floating-point, Q15, and Q31 data
 614:.\DSP\Source\TransformFunctions/arm_cfft_f32.c ****                    types.  The algorithms available for each data type are described next.
 615:.\DSP\Source\TransformFunctions/arm_cfft_f32.c ****   @par
 616:.\DSP\Source\TransformFunctions/arm_cfft_f32.c ****                    The FFT functions operate in-place.  That is, the array holding the input data
 617:.\DSP\Source\TransformFunctions/arm_cfft_f32.c ****                    will also be used to hold the corresponding result.  The input data is complex
 618:.\DSP\Source\TransformFunctions/arm_cfft_f32.c ****                    and contains <code>2*fftLen</code> interleaved values as shown below.
 619:.\DSP\Source\TransformFunctions/arm_cfft_f32.c ****                    <pre>{real[0], imag[0], real[1], imag[1], ...} </pre>
 620:.\DSP\Source\TransformFunctions/arm_cfft_f32.c ****                    The FFT result will be contained in the same array and the frequency domain
 621:.\DSP\Source\TransformFunctions/arm_cfft_f32.c ****                    values will have the same interleaving.
 622:.\DSP\Source\TransformFunctions/arm_cfft_f32.c **** 
 623:.\DSP\Source\TransformFunctions/arm_cfft_f32.c ****   @par Floating-point
 624:.\DSP\Source\TransformFunctions/arm_cfft_f32.c ****                    The floating-point complex FFT uses a mixed-radix algorithm.  Multiple radix-8
 625:.\DSP\Source\TransformFunctions/arm_cfft_f32.c ****                    stages are performed along with a single radix-2 or radix-4 stage, as needed.
 626:.\DSP\Source\TransformFunctions/arm_cfft_f32.c ****                    The algorithm supports lengths of [16, 32, 64, ..., 4096] and each length uses
 627:.\DSP\Source\TransformFunctions/arm_cfft_f32.c ****                    a different twiddle factor table.
 628:.\DSP\Source\TransformFunctions/arm_cfft_f32.c ****   @par
 629:.\DSP\Source\TransformFunctions/arm_cfft_f32.c ****                    The function uses the standard FFT definition and output values may grow by a
 630:.\DSP\Source\TransformFunctions/arm_cfft_f32.c ****                    factor of <code>fftLen</code> when computing the forward transform.  The
 631:.\DSP\Source\TransformFunctions/arm_cfft_f32.c ****                    inverse transform includes a scale of <code>1/fftLen</code> as part of the
 632:.\DSP\Source\TransformFunctions/arm_cfft_f32.c ****                    calculation and this matches the textbook definition of the inverse FFT.
 633:.\DSP\Source\TransformFunctions/arm_cfft_f32.c ****   @par
 634:.\DSP\Source\TransformFunctions/arm_cfft_f32.c ****                    For the MVE version, the new arm_cfft_init_f32 initialization function is
 635:.\DSP\Source\TransformFunctions/arm_cfft_f32.c ****                    <b>mandatory</b>. <b>Compilation flags are available to include only the require
 636:.\DSP\Source\TransformFunctions/arm_cfft_f32.c ****                    needed FFTs.</b> Other FFT versions can continue to be initialized as
 637:.\DSP\Source\TransformFunctions/arm_cfft_f32.c ****                    explained below.
 638:.\DSP\Source\TransformFunctions/arm_cfft_f32.c ****   @par
 639:.\DSP\Source\TransformFunctions/arm_cfft_f32.c ****                    For not MVE versions, pre-initialized data structures containing twiddle factors
 640:.\DSP\Source\TransformFunctions/arm_cfft_f32.c ****                    and bit reversal tables are provided and defined in <code>arm_const_structs.h</c
 641:.\DSP\Source\TransformFunctions/arm_cfft_f32.c ****                    this header in your function and then pass one of the constant structures as
 642:.\DSP\Source\TransformFunctions/arm_cfft_f32.c ****                    an argument to arm_cfft_f32.  For example:
 643:.\DSP\Source\TransformFunctions/arm_cfft_f32.c ****   @par
 644:.\DSP\Source\TransformFunctions/arm_cfft_f32.c ****                    <code>arm_cfft_f32(arm_cfft_sR_f32_len64, pSrc, 1, 1)</code>
 645:.\DSP\Source\TransformFunctions/arm_cfft_f32.c ****   @par
 646:.\DSP\Source\TransformFunctions/arm_cfft_f32.c ****                    computes a 64-point inverse complex FFT including bit reversal.
 647:.\DSP\Source\TransformFunctions/arm_cfft_f32.c ****                    The data structures are treated as constant data and not modified during the
 648:.\DSP\Source\TransformFunctions/arm_cfft_f32.c ****                    calculation.  The same data structure can be reused for multiple transforms
 649:.\DSP\Source\TransformFunctions/arm_cfft_f32.c ****                    including mixing forward and inverse transforms.
 650:.\DSP\Source\TransformFunctions/arm_cfft_f32.c ****   @par
 651:.\DSP\Source\TransformFunctions/arm_cfft_f32.c ****                    Earlier releases of the library provided separate radix-2 and radix-4
 652:.\DSP\Source\TransformFunctions/arm_cfft_f32.c ****                    algorithms that operated on floating-point data.  These functions are still
 653:.\DSP\Source\TransformFunctions/arm_cfft_f32.c ****                    provided but are deprecated.  The older functions are slower and less general
 654:.\DSP\Source\TransformFunctions/arm_cfft_f32.c ****                    than the new functions.
 655:.\DSP\Source\TransformFunctions/arm_cfft_f32.c ****   @par
ARM GAS  C:\Users\IVYLIU~1\AppData\Local\Temp\ccWLNWQl.s 			page 13


 656:.\DSP\Source\TransformFunctions/arm_cfft_f32.c ****                    An example of initialization of the constants for the arm_cfft_f32 function foll
 657:.\DSP\Source\TransformFunctions/arm_cfft_f32.c ****   @code
 658:.\DSP\Source\TransformFunctions/arm_cfft_f32.c ****                    const static arm_cfft_instance_f32 *S;
 659:.\DSP\Source\TransformFunctions/arm_cfft_f32.c ****                    ...
 660:.\DSP\Source\TransformFunctions/arm_cfft_f32.c ****                      switch (length) {
 661:.\DSP\Source\TransformFunctions/arm_cfft_f32.c ****                        case 16:
 662:.\DSP\Source\TransformFunctions/arm_cfft_f32.c ****                          S = &arm_cfft_sR_f32_len16;
 663:.\DSP\Source\TransformFunctions/arm_cfft_f32.c ****                          break;
 664:.\DSP\Source\TransformFunctions/arm_cfft_f32.c ****                        case 32:
 665:.\DSP\Source\TransformFunctions/arm_cfft_f32.c ****                          S = &arm_cfft_sR_f32_len32;
 666:.\DSP\Source\TransformFunctions/arm_cfft_f32.c ****                          break;
 667:.\DSP\Source\TransformFunctions/arm_cfft_f32.c ****                        case 64:
 668:.\DSP\Source\TransformFunctions/arm_cfft_f32.c ****                          S = &arm_cfft_sR_f32_len64;
 669:.\DSP\Source\TransformFunctions/arm_cfft_f32.c ****                          break;
 670:.\DSP\Source\TransformFunctions/arm_cfft_f32.c ****                        case 128:
 671:.\DSP\Source\TransformFunctions/arm_cfft_f32.c ****                          S = &arm_cfft_sR_f32_len128;
 672:.\DSP\Source\TransformFunctions/arm_cfft_f32.c ****                          break;
 673:.\DSP\Source\TransformFunctions/arm_cfft_f32.c ****                        case 256:
 674:.\DSP\Source\TransformFunctions/arm_cfft_f32.c ****                          S = &arm_cfft_sR_f32_len256;
 675:.\DSP\Source\TransformFunctions/arm_cfft_f32.c ****                          break;
 676:.\DSP\Source\TransformFunctions/arm_cfft_f32.c ****                        case 512:
 677:.\DSP\Source\TransformFunctions/arm_cfft_f32.c ****                          S = &arm_cfft_sR_f32_len512;
 678:.\DSP\Source\TransformFunctions/arm_cfft_f32.c ****                          break;
 679:.\DSP\Source\TransformFunctions/arm_cfft_f32.c ****                        case 1024:
 680:.\DSP\Source\TransformFunctions/arm_cfft_f32.c ****                          S = &arm_cfft_sR_f32_len1024;
 681:.\DSP\Source\TransformFunctions/arm_cfft_f32.c ****                          break;
 682:.\DSP\Source\TransformFunctions/arm_cfft_f32.c ****                        case 2048:
 683:.\DSP\Source\TransformFunctions/arm_cfft_f32.c ****                          S = &arm_cfft_sR_f32_len2048;
 684:.\DSP\Source\TransformFunctions/arm_cfft_f32.c ****                          break;
 685:.\DSP\Source\TransformFunctions/arm_cfft_f32.c ****                        case 4096:
 686:.\DSP\Source\TransformFunctions/arm_cfft_f32.c ****                          S = &arm_cfft_sR_f32_len4096;
 687:.\DSP\Source\TransformFunctions/arm_cfft_f32.c ****                          break;
 688:.\DSP\Source\TransformFunctions/arm_cfft_f32.c ****                      }
 689:.\DSP\Source\TransformFunctions/arm_cfft_f32.c ****   @endcode
 690:.\DSP\Source\TransformFunctions/arm_cfft_f32.c ****   @par
 691:.\DSP\Source\TransformFunctions/arm_cfft_f32.c ****                    The new arm_cfft_init_f32 can also be used.
 692:.\DSP\Source\TransformFunctions/arm_cfft_f32.c ****   @par Q15 and Q31
 693:.\DSP\Source\TransformFunctions/arm_cfft_f32.c ****                    The floating-point complex FFT uses a mixed-radix algorithm.  Multiple radix-4
 694:.\DSP\Source\TransformFunctions/arm_cfft_f32.c ****                    stages are performed along with a single radix-2 stage, as needed.
 695:.\DSP\Source\TransformFunctions/arm_cfft_f32.c ****                    The algorithm supports lengths of [16, 32, 64, ..., 4096] and each length uses
 696:.\DSP\Source\TransformFunctions/arm_cfft_f32.c ****                    a different twiddle factor table.
 697:.\DSP\Source\TransformFunctions/arm_cfft_f32.c ****   @par
 698:.\DSP\Source\TransformFunctions/arm_cfft_f32.c ****                    The function uses the standard FFT definition and output values may grow by a
 699:.\DSP\Source\TransformFunctions/arm_cfft_f32.c ****                    factor of <code>fftLen</code> when computing the forward transform.  The
 700:.\DSP\Source\TransformFunctions/arm_cfft_f32.c ****                    inverse transform includes a scale of <code>1/fftLen</code> as part of the
 701:.\DSP\Source\TransformFunctions/arm_cfft_f32.c ****                    calculation and this matches the textbook definition of the inverse FFT.
 702:.\DSP\Source\TransformFunctions/arm_cfft_f32.c ****   @par
 703:.\DSP\Source\TransformFunctions/arm_cfft_f32.c ****                    Pre-initialized data structures containing twiddle factors and bit reversal
 704:.\DSP\Source\TransformFunctions/arm_cfft_f32.c ****                    tables are provided and defined in <code>arm_const_structs.h</code>.  Include
 705:.\DSP\Source\TransformFunctions/arm_cfft_f32.c ****                    this header in your function and then pass one of the constant structures as
 706:.\DSP\Source\TransformFunctions/arm_cfft_f32.c ****                    an argument to arm_cfft_q31. For example:
 707:.\DSP\Source\TransformFunctions/arm_cfft_f32.c ****   @par
 708:.\DSP\Source\TransformFunctions/arm_cfft_f32.c ****                    <code>arm_cfft_q31(arm_cfft_sR_q31_len64, pSrc, 1, 1)</code>
 709:.\DSP\Source\TransformFunctions/arm_cfft_f32.c ****   @par
 710:.\DSP\Source\TransformFunctions/arm_cfft_f32.c ****                    computes a 64-point inverse complex FFT including bit reversal.
 711:.\DSP\Source\TransformFunctions/arm_cfft_f32.c ****                    The data structures are treated as constant data and not modified during the
 712:.\DSP\Source\TransformFunctions/arm_cfft_f32.c ****                    calculation.  The same data structure can be reused for multiple transforms
ARM GAS  C:\Users\IVYLIU~1\AppData\Local\Temp\ccWLNWQl.s 			page 14


 713:.\DSP\Source\TransformFunctions/arm_cfft_f32.c ****                    including mixing forward and inverse transforms.
 714:.\DSP\Source\TransformFunctions/arm_cfft_f32.c ****   @par
 715:.\DSP\Source\TransformFunctions/arm_cfft_f32.c ****                    Earlier releases of the library provided separate radix-2 and radix-4
 716:.\DSP\Source\TransformFunctions/arm_cfft_f32.c ****                    algorithms that operated on floating-point data.  These functions are still
 717:.\DSP\Source\TransformFunctions/arm_cfft_f32.c ****                    provided but are deprecated.  The older functions are slower and less general
 718:.\DSP\Source\TransformFunctions/arm_cfft_f32.c ****                    than the new functions.
 719:.\DSP\Source\TransformFunctions/arm_cfft_f32.c ****   @par
 720:.\DSP\Source\TransformFunctions/arm_cfft_f32.c ****                    An example of initialization of the constants for the arm_cfft_q31 function foll
 721:.\DSP\Source\TransformFunctions/arm_cfft_f32.c ****   @code
 722:.\DSP\Source\TransformFunctions/arm_cfft_f32.c ****                    const static arm_cfft_instance_q31 *S;
 723:.\DSP\Source\TransformFunctions/arm_cfft_f32.c ****                    ...
 724:.\DSP\Source\TransformFunctions/arm_cfft_f32.c ****                      switch (length) {
 725:.\DSP\Source\TransformFunctions/arm_cfft_f32.c ****                        case 16:
 726:.\DSP\Source\TransformFunctions/arm_cfft_f32.c ****                          S = &arm_cfft_sR_q31_len16;
 727:.\DSP\Source\TransformFunctions/arm_cfft_f32.c ****                          break;
 728:.\DSP\Source\TransformFunctions/arm_cfft_f32.c ****                        case 32:
 729:.\DSP\Source\TransformFunctions/arm_cfft_f32.c ****                          S = &arm_cfft_sR_q31_len32;
 730:.\DSP\Source\TransformFunctions/arm_cfft_f32.c ****                          break;
 731:.\DSP\Source\TransformFunctions/arm_cfft_f32.c ****                        case 64:
 732:.\DSP\Source\TransformFunctions/arm_cfft_f32.c ****                          S = &arm_cfft_sR_q31_len64;
 733:.\DSP\Source\TransformFunctions/arm_cfft_f32.c ****                          break;
 734:.\DSP\Source\TransformFunctions/arm_cfft_f32.c ****                        case 128:
 735:.\DSP\Source\TransformFunctions/arm_cfft_f32.c ****                          S = &arm_cfft_sR_q31_len128;
 736:.\DSP\Source\TransformFunctions/arm_cfft_f32.c ****                          break;
 737:.\DSP\Source\TransformFunctions/arm_cfft_f32.c ****                        case 256:
 738:.\DSP\Source\TransformFunctions/arm_cfft_f32.c ****                          S = &arm_cfft_sR_q31_len256;
 739:.\DSP\Source\TransformFunctions/arm_cfft_f32.c ****                          break;
 740:.\DSP\Source\TransformFunctions/arm_cfft_f32.c ****                        case 512:
 741:.\DSP\Source\TransformFunctions/arm_cfft_f32.c ****                          S = &arm_cfft_sR_q31_len512;
 742:.\DSP\Source\TransformFunctions/arm_cfft_f32.c ****                          break;
 743:.\DSP\Source\TransformFunctions/arm_cfft_f32.c ****                        case 1024:
 744:.\DSP\Source\TransformFunctions/arm_cfft_f32.c ****                          S = &arm_cfft_sR_q31_len1024;
 745:.\DSP\Source\TransformFunctions/arm_cfft_f32.c ****                          break;
 746:.\DSP\Source\TransformFunctions/arm_cfft_f32.c ****                        case 2048:
 747:.\DSP\Source\TransformFunctions/arm_cfft_f32.c ****                          S = &arm_cfft_sR_q31_len2048;
 748:.\DSP\Source\TransformFunctions/arm_cfft_f32.c ****                          break;
 749:.\DSP\Source\TransformFunctions/arm_cfft_f32.c ****                        case 4096:
 750:.\DSP\Source\TransformFunctions/arm_cfft_f32.c ****                          S = &arm_cfft_sR_q31_len4096;
 751:.\DSP\Source\TransformFunctions/arm_cfft_f32.c ****                          break;
 752:.\DSP\Source\TransformFunctions/arm_cfft_f32.c ****                      }
 753:.\DSP\Source\TransformFunctions/arm_cfft_f32.c ****   @endcode
 754:.\DSP\Source\TransformFunctions/arm_cfft_f32.c **** 
 755:.\DSP\Source\TransformFunctions/arm_cfft_f32.c ****  */
 756:.\DSP\Source\TransformFunctions/arm_cfft_f32.c **** 
 757:.\DSP\Source\TransformFunctions/arm_cfft_f32.c **** void arm_cfft_radix8by2_f32 (arm_cfft_instance_f32 * S, float32_t * p1)
 758:.\DSP\Source\TransformFunctions/arm_cfft_f32.c **** {
  30              		.loc 1 758 0
  31              		.cfi_startproc
  32              		@ args = 0, pretend = 0, frame = 80
  33              		@ frame_needed = 0, uses_anonymous_args = 0
  34              	.LVL0:
  35 0000 8C46     		mov	ip, r1
  36 0002 2DE9F04F 		push	{r4, r5, r6, r7, r8, r9, r10, fp, lr}
  37              		.cfi_def_cfa_offset 36
  38              		.cfi_offset 4, -36
  39              		.cfi_offset 5, -32
  40              		.cfi_offset 6, -28
ARM GAS  C:\Users\IVYLIU~1\AppData\Local\Temp\ccWLNWQl.s 			page 15


  41              		.cfi_offset 7, -24
  42              		.cfi_offset 8, -20
  43              		.cfi_offset 9, -16
  44              		.cfi_offset 10, -12
  45              		.cfi_offset 11, -8
  46              		.cfi_offset 14, -4
 759:.\DSP\Source\TransformFunctions/arm_cfft_f32.c ****   uint32_t    L  = S->fftLen;
  47              		.loc 1 759 0
  48 0006 0288     		ldrh	r2, [r0]
  49              	.LVL1:
 758:.\DSP\Source\TransformFunctions/arm_cfft_f32.c ****   uint32_t    L  = S->fftLen;
  50              		.loc 1 758 0
  51 0008 95B0     		sub	sp, sp, #84
  52              		.cfi_def_cfa_offset 120
 760:.\DSP\Source\TransformFunctions/arm_cfft_f32.c ****   float32_t * pCol1, * pCol2, * pMid1, * pMid2;
 761:.\DSP\Source\TransformFunctions/arm_cfft_f32.c ****   float32_t * p2 = p1 + L;
  53              		.loc 1 761 0
  54 000a 01EB8203 		add	r3, r1, r2, lsl #2
  55 000e 0293     		str	r3, [sp, #8]
  56              	.LVL2:
 762:.\DSP\Source\TransformFunctions/arm_cfft_f32.c ****   const float32_t * tw = (float32_t *) S->pTwiddle;
 763:.\DSP\Source\TransformFunctions/arm_cfft_f32.c ****   float32_t t1[4], t2[4], t3[4], t4[4], twR, twI;
 764:.\DSP\Source\TransformFunctions/arm_cfft_f32.c ****   float32_t m0, m1, m2, m3;
 765:.\DSP\Source\TransformFunctions/arm_cfft_f32.c ****   uint32_t l;
 766:.\DSP\Source\TransformFunctions/arm_cfft_f32.c **** 
 767:.\DSP\Source\TransformFunctions/arm_cfft_f32.c ****   pCol1 = p1;
 768:.\DSP\Source\TransformFunctions/arm_cfft_f32.c ****   pCol2 = p2;
 769:.\DSP\Source\TransformFunctions/arm_cfft_f32.c **** 
 770:.\DSP\Source\TransformFunctions/arm_cfft_f32.c ****   /* Define new length */
 771:.\DSP\Source\TransformFunctions/arm_cfft_f32.c ****   L >>= 1;
  57              		.loc 1 771 0
  58 0010 5108     		lsrs	r1, r2, #1
  59              	.LVL3:
 772:.\DSP\Source\TransformFunctions/arm_cfft_f32.c **** 
 773:.\DSP\Source\TransformFunctions/arm_cfft_f32.c ****   /* Initialize mid pointers */
 774:.\DSP\Source\TransformFunctions/arm_cfft_f32.c ****   pMid1 = p1 + L;
  60              		.loc 1 774 0
  61 0012 8C00     		lsls	r4, r1, #2
 771:.\DSP\Source\TransformFunctions/arm_cfft_f32.c **** 
  62              		.loc 1 771 0
  63 0014 0491     		str	r1, [sp, #16]
 775:.\DSP\Source\TransformFunctions/arm_cfft_f32.c ****   pMid2 = p2 + L;
  64              		.loc 1 775 0
  65 0016 0299     		ldr	r1, [sp, #8]
  66 0018 E346     		mov	fp, ip
  67 001a 8946     		mov	r9, r1
 762:.\DSP\Source\TransformFunctions/arm_cfft_f32.c ****   float32_t t1[4], t2[4], t3[4], t4[4], twR, twI;
  68              		.loc 1 762 0
  69 001c 4368     		ldr	r3, [r0, #4]
  70              	.LVL4:
 776:.\DSP\Source\TransformFunctions/arm_cfft_f32.c **** 
 777:.\DSP\Source\TransformFunctions/arm_cfft_f32.c ****   /* do two dot Fourier transform */
 778:.\DSP\Source\TransformFunctions/arm_cfft_f32.c ****   for (l = L >> 2; l > 0; l-- )
  71              		.loc 1 778 0
  72 001e D208     		lsrs	r2, r2, #3
  73 0020 03EB0212 		add	r2, r3, r2, lsl #4
 774:.\DSP\Source\TransformFunctions/arm_cfft_f32.c ****   pMid2 = p2 + L;
ARM GAS  C:\Users\IVYLIU~1\AppData\Local\Temp\ccWLNWQl.s 			page 16


  74              		.loc 1 774 0
  75 0024 0CEB0405 		add	r5, ip, r4
  76              	.LVL5:
 758:.\DSP\Source\TransformFunctions/arm_cfft_f32.c ****   uint32_t    L  = S->fftLen;
  77              		.loc 1 758 0
  78 0028 0390     		str	r0, [sp, #12]
 775:.\DSP\Source\TransformFunctions/arm_cfft_f32.c **** 
  79              		.loc 1 775 0
  80 002a 0C44     		add	r4, r4, r1
  81              	.LVL6:
  82 002c 1092     		str	r2, [sp, #64]
 762:.\DSP\Source\TransformFunctions/arm_cfft_f32.c ****   float32_t t1[4], t2[4], t3[4], t4[4], twR, twI;
  83              		.loc 1 762 0
  84 002e 0193     		str	r3, [sp, #4]
  85              	.LVL7:
  86              	.L2:
  87              		.loc 1 778 0 discriminator 1
  88 0030 019A     		ldr	r2, [sp, #4]
  89 0032 1099     		ldr	r1, [sp, #64]
  90 0034 0BF1100B 		add	fp, fp, #16
  91 0038 8A42     		cmp	r2, r1
  92 003a 05F11005 		add	r5, r5, #16
  93 003e 04F11004 		add	r4, r4, #16
  94 0042 09F11009 		add	r9, r9, #16
  95 0046 00F00E81 		beq	.L5
  96 004a 1293     		str	r3, [sp, #72]
 779:.\DSP\Source\TransformFunctions/arm_cfft_f32.c ****   {
 780:.\DSP\Source\TransformFunctions/arm_cfft_f32.c ****     t1[0] = p1[0];
  97              		.loc 1 780 0 discriminator 3
  98 004c 5BF8103C 		ldr	r3, [fp, #-16]	@ float
 781:.\DSP\Source\TransformFunctions/arm_cfft_f32.c ****     t1[1] = p1[1];
 782:.\DSP\Source\TransformFunctions/arm_cfft_f32.c ****     t1[2] = p1[2];
 783:.\DSP\Source\TransformFunctions/arm_cfft_f32.c ****     t1[3] = p1[3];
 784:.\DSP\Source\TransformFunctions/arm_cfft_f32.c **** 
 785:.\DSP\Source\TransformFunctions/arm_cfft_f32.c ****     t2[0] = p2[0];
  99              		.loc 1 785 0 discriminator 3
 100 0050 59F8102C 		ldr	r2, [r9, #-16]	@ float
 780:.\DSP\Source\TransformFunctions/arm_cfft_f32.c ****     t1[1] = p1[1];
 101              		.loc 1 780 0 discriminator 3
 102 0054 0593     		str	r3, [sp, #20]	@ float
 103              	.LVL8:
 781:.\DSP\Source\TransformFunctions/arm_cfft_f32.c ****     t1[1] = p1[1];
 104              		.loc 1 781 0 discriminator 3
 105 0056 5BF80C3C 		ldr	r3, [fp, #-12]	@ float
 106              	.LVL9:
 786:.\DSP\Source\TransformFunctions/arm_cfft_f32.c ****     t2[1] = p2[1];
 787:.\DSP\Source\TransformFunctions/arm_cfft_f32.c ****     t2[2] = p2[2];
 788:.\DSP\Source\TransformFunctions/arm_cfft_f32.c ****     t2[3] = p2[3];
 789:.\DSP\Source\TransformFunctions/arm_cfft_f32.c **** 
 790:.\DSP\Source\TransformFunctions/arm_cfft_f32.c ****     t3[0] = pMid1[0];
 791:.\DSP\Source\TransformFunctions/arm_cfft_f32.c ****     t3[1] = pMid1[1];
 792:.\DSP\Source\TransformFunctions/arm_cfft_f32.c ****     t3[2] = pMid1[2];
 793:.\DSP\Source\TransformFunctions/arm_cfft_f32.c ****     t3[3] = pMid1[3];
 794:.\DSP\Source\TransformFunctions/arm_cfft_f32.c **** 
 795:.\DSP\Source\TransformFunctions/arm_cfft_f32.c ****     t4[0] = pMid2[0];
 796:.\DSP\Source\TransformFunctions/arm_cfft_f32.c ****     t4[1] = pMid2[1];
 797:.\DSP\Source\TransformFunctions/arm_cfft_f32.c ****     t4[2] = pMid2[2];
ARM GAS  C:\Users\IVYLIU~1\AppData\Local\Temp\ccWLNWQl.s 			page 17


 798:.\DSP\Source\TransformFunctions/arm_cfft_f32.c ****     t4[3] = pMid2[3];
 799:.\DSP\Source\TransformFunctions/arm_cfft_f32.c **** 
 800:.\DSP\Source\TransformFunctions/arm_cfft_f32.c ****     *p1++ = t1[0] + t2[0];
 107              		.loc 1 800 0 discriminator 3
 108 005a 1146     		mov	r1, r2
 781:.\DSP\Source\TransformFunctions/arm_cfft_f32.c ****     t1[2] = p1[2];
 109              		.loc 1 781 0 discriminator 3
 110 005c 0693     		str	r3, [sp, #24]	@ float
 111              	.LVL10:
 782:.\DSP\Source\TransformFunctions/arm_cfft_f32.c ****     t1[3] = p1[3];
 112              		.loc 1 782 0 discriminator 3
 113 005e 5BF8083C 		ldr	r3, [fp, #-8]	@ float
 114              	.LVL11:
 115              		.loc 1 800 0 discriminator 3
 116 0062 0598     		ldr	r0, [sp, #20]	@ float
 782:.\DSP\Source\TransformFunctions/arm_cfft_f32.c ****     t1[3] = p1[3];
 117              		.loc 1 782 0 discriminator 3
 118 0064 0793     		str	r3, [sp, #28]	@ float
 119              	.LVL12:
 790:.\DSP\Source\TransformFunctions/arm_cfft_f32.c ****     t3[1] = pMid1[1];
 120              		.loc 1 790 0 discriminator 3
 121 0066 55F8103C 		ldr	r3, [r5, #-16]	@ float
 122              	.LVL13:
 123 006a CDF84CC0 		str	ip, [sp, #76]
 124 006e 0893     		str	r3, [sp, #32]	@ float
 791:.\DSP\Source\TransformFunctions/arm_cfft_f32.c ****     t3[2] = pMid1[2];
 125              		.loc 1 791 0 discriminator 3
 126 0070 55F80C3C 		ldr	r3, [r5, #-12]	@ float
 127              		.loc 1 800 0 discriminator 3
 128 0074 1192     		str	r2, [sp, #68]
 791:.\DSP\Source\TransformFunctions/arm_cfft_f32.c ****     t3[2] = pMid1[2];
 129              		.loc 1 791 0 discriminator 3
 130 0076 0993     		str	r3, [sp, #36]	@ float
 792:.\DSP\Source\TransformFunctions/arm_cfft_f32.c ****     t3[3] = pMid1[3];
 131              		.loc 1 792 0 discriminator 3
 132 0078 55F8083C 		ldr	r3, [r5, #-8]	@ float
 786:.\DSP\Source\TransformFunctions/arm_cfft_f32.c ****     t2[2] = p2[2];
 133              		.loc 1 786 0 discriminator 3
 134 007c 59F80CAC 		ldr	r10, [r9, #-12]	@ float
 792:.\DSP\Source\TransformFunctions/arm_cfft_f32.c ****     t3[3] = pMid1[3];
 135              		.loc 1 792 0 discriminator 3
 136 0080 0A93     		str	r3, [sp, #40]	@ float
 793:.\DSP\Source\TransformFunctions/arm_cfft_f32.c **** 
 137              		.loc 1 793 0 discriminator 3
 138 0082 55F8043C 		ldr	r3, [r5, #-4]	@ float
 787:.\DSP\Source\TransformFunctions/arm_cfft_f32.c ****     t2[3] = p2[3];
 139              		.loc 1 787 0 discriminator 3
 140 0086 59F8088C 		ldr	r8, [r9, #-8]	@ float
 793:.\DSP\Source\TransformFunctions/arm_cfft_f32.c **** 
 141              		.loc 1 793 0 discriminator 3
 142 008a 0B93     		str	r3, [sp, #44]	@ float
 795:.\DSP\Source\TransformFunctions/arm_cfft_f32.c ****     t4[1] = pMid2[1];
 143              		.loc 1 795 0 discriminator 3
 144 008c 54F8103C 		ldr	r3, [r4, #-16]	@ float
 788:.\DSP\Source\TransformFunctions/arm_cfft_f32.c **** 
 145              		.loc 1 788 0 discriminator 3
 146 0090 59F8046C 		ldr	r6, [r9, #-4]	@ float
ARM GAS  C:\Users\IVYLIU~1\AppData\Local\Temp\ccWLNWQl.s 			page 18


 795:.\DSP\Source\TransformFunctions/arm_cfft_f32.c ****     t4[1] = pMid2[1];
 147              		.loc 1 795 0 discriminator 3
 148 0094 0C93     		str	r3, [sp, #48]	@ float
 796:.\DSP\Source\TransformFunctions/arm_cfft_f32.c ****     t4[2] = pMid2[2];
 149              		.loc 1 796 0 discriminator 3
 150 0096 54F80C3C 		ldr	r3, [r4, #-12]	@ float
 783:.\DSP\Source\TransformFunctions/arm_cfft_f32.c **** 
 151              		.loc 1 783 0 discriminator 3
 152 009a 5BF8047C 		ldr	r7, [fp, #-4]	@ float
 153              	.LVL14:
 796:.\DSP\Source\TransformFunctions/arm_cfft_f32.c ****     t4[2] = pMid2[2];
 154              		.loc 1 796 0 discriminator 3
 155 009e 0D93     		str	r3, [sp, #52]	@ float
 156              	.LVL15:
 797:.\DSP\Source\TransformFunctions/arm_cfft_f32.c ****     t4[3] = pMid2[3];
 157              		.loc 1 797 0 discriminator 3
 158 00a0 54F8083C 		ldr	r3, [r4, #-8]	@ float
 159              	.LVL16:
 160 00a4 0E93     		str	r3, [sp, #56]	@ float
 161              	.LVL17:
 798:.\DSP\Source\TransformFunctions/arm_cfft_f32.c **** 
 162              		.loc 1 798 0 discriminator 3
 163 00a6 54F8043C 		ldr	r3, [r4, #-4]	@ float
 164              	.LVL18:
 165 00aa 0F93     		str	r3, [sp, #60]	@ float
 166              	.LVL19:
 167              		.loc 1 800 0 discriminator 3
 168 00ac FFF7FEFF 		bl	__aeabi_fadd
 169              	.LVL20:
 801:.\DSP\Source\TransformFunctions/arm_cfft_f32.c ****     *p1++ = t1[1] + t2[1];
 170              		.loc 1 801 0 discriminator 3
 171 00b0 5146     		mov	r1, r10
 800:.\DSP\Source\TransformFunctions/arm_cfft_f32.c ****     *p1++ = t1[1] + t2[1];
 172              		.loc 1 800 0 discriminator 3
 173 00b2 4BF8100C 		str	r0, [fp, #-16]	@ float
 174              		.loc 1 801 0 discriminator 3
 175 00b6 0698     		ldr	r0, [sp, #24]	@ float
 176 00b8 FFF7FEFF 		bl	__aeabi_fadd
 177              	.LVL21:
 802:.\DSP\Source\TransformFunctions/arm_cfft_f32.c ****     *p1++ = t1[2] + t2[2];
 178              		.loc 1 802 0 discriminator 3
 179 00bc 4146     		mov	r1, r8
 801:.\DSP\Source\TransformFunctions/arm_cfft_f32.c ****     *p1++ = t1[1] + t2[1];
 180              		.loc 1 801 0 discriminator 3
 181 00be 4BF80C0C 		str	r0, [fp, #-12]	@ float
 182              		.loc 1 802 0 discriminator 3
 183 00c2 0798     		ldr	r0, [sp, #28]	@ float
 184 00c4 FFF7FEFF 		bl	__aeabi_fadd
 185              	.LVL22:
 803:.\DSP\Source\TransformFunctions/arm_cfft_f32.c ****     *p1++ = t1[3] + t2[3];    /* col 1 */
 186              		.loc 1 803 0 discriminator 3
 187 00c8 3146     		mov	r1, r6
 802:.\DSP\Source\TransformFunctions/arm_cfft_f32.c ****     *p1++ = t1[2] + t2[2];
 188              		.loc 1 802 0 discriminator 3
 189 00ca 4BF8080C 		str	r0, [fp, #-8]	@ float
 190              		.loc 1 803 0 discriminator 3
 191 00ce 3846     		mov	r0, r7
ARM GAS  C:\Users\IVYLIU~1\AppData\Local\Temp\ccWLNWQl.s 			page 19


 192 00d0 FFF7FEFF 		bl	__aeabi_fadd
 193              	.LVL23:
 804:.\DSP\Source\TransformFunctions/arm_cfft_f32.c **** 
 805:.\DSP\Source\TransformFunctions/arm_cfft_f32.c ****     t2[0] = t1[0] - t2[0];
 194              		.loc 1 805 0 discriminator 3
 195 00d4 119A     		ldr	r2, [sp, #68]
 803:.\DSP\Source\TransformFunctions/arm_cfft_f32.c ****     *p1++ = t1[3] + t2[3];    /* col 1 */
 196              		.loc 1 803 0 discriminator 3
 197 00d6 4BF8040C 		str	r0, [fp, #-4]	@ float
 198              		.loc 1 805 0 discriminator 3
 199 00da 1146     		mov	r1, r2
 200 00dc 0598     		ldr	r0, [sp, #20]	@ float
 201 00de FFF7FEFF 		bl	__aeabi_fsub
 202              	.LVL24:
 806:.\DSP\Source\TransformFunctions/arm_cfft_f32.c ****     t2[1] = t1[1] - t2[1];
 203              		.loc 1 806 0 discriminator 3
 204 00e2 5146     		mov	r1, r10
 805:.\DSP\Source\TransformFunctions/arm_cfft_f32.c ****     t2[1] = t1[1] - t2[1];
 205              		.loc 1 805 0 discriminator 3
 206 00e4 0590     		str	r0, [sp, #20]	@ float
 207              	.LVL25:
 208              		.loc 1 806 0 discriminator 3
 209 00e6 0698     		ldr	r0, [sp, #24]	@ float
 210              	.LVL26:
 211 00e8 FFF7FEFF 		bl	__aeabi_fsub
 212              	.LVL27:
 807:.\DSP\Source\TransformFunctions/arm_cfft_f32.c ****     t2[2] = t1[2] - t2[2];
 213              		.loc 1 807 0 discriminator 3
 214 00ec 4146     		mov	r1, r8
 806:.\DSP\Source\TransformFunctions/arm_cfft_f32.c ****     t2[1] = t1[1] - t2[1];
 215              		.loc 1 806 0 discriminator 3
 216 00ee 8246     		mov	r10, r0
 217              	.LVL28:
 218              		.loc 1 807 0 discriminator 3
 219 00f0 0798     		ldr	r0, [sp, #28]	@ float
 220              	.LVL29:
 221 00f2 FFF7FEFF 		bl	__aeabi_fsub
 222              	.LVL30:
 808:.\DSP\Source\TransformFunctions/arm_cfft_f32.c ****     t2[3] = t1[3] - t2[3];    /* for col 2 */
 223              		.loc 1 808 0 discriminator 3
 224 00f6 3146     		mov	r1, r6
 807:.\DSP\Source\TransformFunctions/arm_cfft_f32.c ****     t2[2] = t1[2] - t2[2];
 225              		.loc 1 807 0 discriminator 3
 226 00f8 0690     		str	r0, [sp, #24]	@ float
 227              	.LVL31:
 228              		.loc 1 808 0 discriminator 3
 229 00fa 3846     		mov	r0, r7
 230              	.LVL32:
 231 00fc FFF7FEFF 		bl	__aeabi_fsub
 232              	.LVL33:
 233 0100 0790     		str	r0, [sp, #28]	@ float
 234              	.LVL34:
 809:.\DSP\Source\TransformFunctions/arm_cfft_f32.c **** 
 810:.\DSP\Source\TransformFunctions/arm_cfft_f32.c ****     *pMid1++ = t3[0] + t4[0];
 235              		.loc 1 810 0 discriminator 3
 236 0102 0898     		ldr	r0, [sp, #32]	@ float
 237              	.LVL35:
ARM GAS  C:\Users\IVYLIU~1\AppData\Local\Temp\ccWLNWQl.s 			page 20


 238 0104 0C99     		ldr	r1, [sp, #48]	@ float
 239 0106 FFF7FEFF 		bl	__aeabi_fadd
 240              	.LVL36:
 811:.\DSP\Source\TransformFunctions/arm_cfft_f32.c ****     *pMid1++ = t3[1] + t4[1];
 241              		.loc 1 811 0 discriminator 3
 242 010a 0D99     		ldr	r1, [sp, #52]	@ float
 810:.\DSP\Source\TransformFunctions/arm_cfft_f32.c ****     *pMid1++ = t3[1] + t4[1];
 243              		.loc 1 810 0 discriminator 3
 244 010c 45F8100C 		str	r0, [r5, #-16]	@ float
 245              		.loc 1 811 0 discriminator 3
 246 0110 0998     		ldr	r0, [sp, #36]	@ float
 247 0112 FFF7FEFF 		bl	__aeabi_fadd
 248              	.LVL37:
 812:.\DSP\Source\TransformFunctions/arm_cfft_f32.c ****     *pMid1++ = t3[2] + t4[2];
 249              		.loc 1 812 0 discriminator 3
 250 0116 0E99     		ldr	r1, [sp, #56]	@ float
 811:.\DSP\Source\TransformFunctions/arm_cfft_f32.c ****     *pMid1++ = t3[1] + t4[1];
 251              		.loc 1 811 0 discriminator 3
 252 0118 45F80C0C 		str	r0, [r5, #-12]	@ float
 253              		.loc 1 812 0 discriminator 3
 254 011c 0A98     		ldr	r0, [sp, #40]	@ float
 255 011e FFF7FEFF 		bl	__aeabi_fadd
 256              	.LVL38:
 813:.\DSP\Source\TransformFunctions/arm_cfft_f32.c ****     *pMid1++ = t3[3] + t4[3]; /* col 1 */
 257              		.loc 1 813 0 discriminator 3
 258 0122 0F99     		ldr	r1, [sp, #60]	@ float
 812:.\DSP\Source\TransformFunctions/arm_cfft_f32.c ****     *pMid1++ = t3[2] + t4[2];
 259              		.loc 1 812 0 discriminator 3
 260 0124 45F8080C 		str	r0, [r5, #-8]	@ float
 261              		.loc 1 813 0 discriminator 3
 262 0128 0B98     		ldr	r0, [sp, #44]	@ float
 263 012a FFF7FEFF 		bl	__aeabi_fadd
 264              	.LVL39:
 814:.\DSP\Source\TransformFunctions/arm_cfft_f32.c **** 
 815:.\DSP\Source\TransformFunctions/arm_cfft_f32.c ****     t4[0] = t4[0] - t3[0];
 265              		.loc 1 815 0 discriminator 3
 266 012e 0899     		ldr	r1, [sp, #32]	@ float
 813:.\DSP\Source\TransformFunctions/arm_cfft_f32.c ****     *pMid1++ = t3[3] + t4[3]; /* col 1 */
 267              		.loc 1 813 0 discriminator 3
 268 0130 45F8040C 		str	r0, [r5, #-4]	@ float
 269              		.loc 1 815 0 discriminator 3
 270 0134 0C98     		ldr	r0, [sp, #48]	@ float
 271 0136 FFF7FEFF 		bl	__aeabi_fsub
 272              	.LVL40:
 816:.\DSP\Source\TransformFunctions/arm_cfft_f32.c ****     t4[1] = t4[1] - t3[1];
 273              		.loc 1 816 0 discriminator 3
 274 013a 0999     		ldr	r1, [sp, #36]	@ float
 815:.\DSP\Source\TransformFunctions/arm_cfft_f32.c ****     t4[1] = t4[1] - t3[1];
 275              		.loc 1 815 0 discriminator 3
 276 013c 8046     		mov	r8, r0
 277              	.LVL41:
 278              		.loc 1 816 0 discriminator 3
 279 013e 0D98     		ldr	r0, [sp, #52]	@ float
 280              	.LVL42:
 281 0140 FFF7FEFF 		bl	__aeabi_fsub
 282              	.LVL43:
 817:.\DSP\Source\TransformFunctions/arm_cfft_f32.c ****     t4[2] = t4[2] - t3[2];
ARM GAS  C:\Users\IVYLIU~1\AppData\Local\Temp\ccWLNWQl.s 			page 21


 283              		.loc 1 817 0 discriminator 3
 284 0144 0A99     		ldr	r1, [sp, #40]	@ float
 816:.\DSP\Source\TransformFunctions/arm_cfft_f32.c ****     t4[1] = t4[1] - t3[1];
 285              		.loc 1 816 0 discriminator 3
 286 0146 0890     		str	r0, [sp, #32]	@ float
 287              	.LVL44:
 288              		.loc 1 817 0 discriminator 3
 289 0148 0E98     		ldr	r0, [sp, #56]	@ float
 290              	.LVL45:
 291 014a FFF7FEFF 		bl	__aeabi_fsub
 292              	.LVL46:
 818:.\DSP\Source\TransformFunctions/arm_cfft_f32.c ****     t4[3] = t4[3] - t3[3];    /* for col 2 */
 293              		.loc 1 818 0 discriminator 3
 294 014e 0B99     		ldr	r1, [sp, #44]	@ float
 817:.\DSP\Source\TransformFunctions/arm_cfft_f32.c ****     t4[2] = t4[2] - t3[2];
 295              		.loc 1 817 0 discriminator 3
 296 0150 0990     		str	r0, [sp, #36]	@ float
 297              	.LVL47:
 298              		.loc 1 818 0 discriminator 3
 299 0152 0F98     		ldr	r0, [sp, #60]	@ float
 300              	.LVL48:
 301 0154 FFF7FEFF 		bl	__aeabi_fsub
 302              	.LVL49:
 819:.\DSP\Source\TransformFunctions/arm_cfft_f32.c **** 
 820:.\DSP\Source\TransformFunctions/arm_cfft_f32.c ****     twR = *tw++;
 303              		.loc 1 820 0 discriminator 3
 304 0158 019B     		ldr	r3, [sp, #4]
 818:.\DSP\Source\TransformFunctions/arm_cfft_f32.c ****     t4[3] = t4[3] - t3[3];    /* for col 2 */
 305              		.loc 1 818 0 discriminator 3
 306 015a 0A90     		str	r0, [sp, #40]	@ float
 307              	.LVL50:
 308              		.loc 1 820 0 discriminator 3
 309 015c 1E68     		ldr	r6, [r3]	@ float
 310              	.LVL51:
 821:.\DSP\Source\TransformFunctions/arm_cfft_f32.c ****     twI = *tw++;
 822:.\DSP\Source\TransformFunctions/arm_cfft_f32.c **** 
 823:.\DSP\Source\TransformFunctions/arm_cfft_f32.c ****     /* multiply by twiddle factors */
 824:.\DSP\Source\TransformFunctions/arm_cfft_f32.c ****     m0 = t2[0] * twR;
 311              		.loc 1 824 0 discriminator 3
 312 015e 0598     		ldr	r0, [sp, #20]	@ float
 313              	.LVL52:
 314 0160 3146     		mov	r1, r6
 821:.\DSP\Source\TransformFunctions/arm_cfft_f32.c ****     twI = *tw++;
 315              		.loc 1 821 0 discriminator 3
 316 0162 5F68     		ldr	r7, [r3, #4]	@ float
 317              	.LVL53:
 318              		.loc 1 824 0 discriminator 3
 319 0164 FFF7FEFF 		bl	__aeabi_fmul
 320              	.LVL54:
 825:.\DSP\Source\TransformFunctions/arm_cfft_f32.c ****     m1 = t2[1] * twI;
 321              		.loc 1 825 0 discriminator 3
 322 0168 3946     		mov	r1, r7
 824:.\DSP\Source\TransformFunctions/arm_cfft_f32.c ****     m1 = t2[1] * twI;
 323              		.loc 1 824 0 discriminator 3
 324 016a 0B90     		str	r0, [sp, #44]
 325              	.LVL55:
 326              		.loc 1 825 0 discriminator 3
ARM GAS  C:\Users\IVYLIU~1\AppData\Local\Temp\ccWLNWQl.s 			page 22


 327 016c 5046     		mov	r0, r10
 328 016e FFF7FEFF 		bl	__aeabi_fmul
 329              	.LVL56:
 826:.\DSP\Source\TransformFunctions/arm_cfft_f32.c ****     m2 = t2[1] * twR;
 827:.\DSP\Source\TransformFunctions/arm_cfft_f32.c ****     m3 = t2[0] * twI;
 828:.\DSP\Source\TransformFunctions/arm_cfft_f32.c **** 
 829:.\DSP\Source\TransformFunctions/arm_cfft_f32.c ****     /* R  =  R  *  Tr - I * Ti */
 830:.\DSP\Source\TransformFunctions/arm_cfft_f32.c ****     *p2++ = m0 + m1;
 330              		.loc 1 830 0 discriminator 3
 331 0172 0B9A     		ldr	r2, [sp, #44]
 825:.\DSP\Source\TransformFunctions/arm_cfft_f32.c ****     m2 = t2[1] * twR;
 332              		.loc 1 825 0 discriminator 3
 333 0174 0146     		mov	r1, r0
 334              		.loc 1 830 0 discriminator 3
 335 0176 1046     		mov	r0, r2
 336 0178 FFF7FEFF 		bl	__aeabi_fadd
 337              	.LVL57:
 826:.\DSP\Source\TransformFunctions/arm_cfft_f32.c ****     m2 = t2[1] * twR;
 338              		.loc 1 826 0 discriminator 3
 339 017c 3146     		mov	r1, r6
 340              		.loc 1 830 0 discriminator 3
 341 017e 49F8100C 		str	r0, [r9, #-16]	@ float
 826:.\DSP\Source\TransformFunctions/arm_cfft_f32.c ****     m2 = t2[1] * twR;
 342              		.loc 1 826 0 discriminator 3
 343 0182 5046     		mov	r0, r10
 344 0184 FFF7FEFF 		bl	__aeabi_fmul
 345              	.LVL58:
 827:.\DSP\Source\TransformFunctions/arm_cfft_f32.c **** 
 346              		.loc 1 827 0 discriminator 3
 347 0188 3946     		mov	r1, r7
 826:.\DSP\Source\TransformFunctions/arm_cfft_f32.c ****     m2 = t2[1] * twR;
 348              		.loc 1 826 0 discriminator 3
 349 018a 8246     		mov	r10, r0
 350              	.LVL59:
 827:.\DSP\Source\TransformFunctions/arm_cfft_f32.c **** 
 351              		.loc 1 827 0 discriminator 3
 352 018c 0598     		ldr	r0, [sp, #20]	@ float
 353 018e FFF7FEFF 		bl	__aeabi_fmul
 354              	.LVL60:
 355 0192 0146     		mov	r1, r0
 831:.\DSP\Source\TransformFunctions/arm_cfft_f32.c ****     /* I  =  I  *  Tr + R * Ti */
 832:.\DSP\Source\TransformFunctions/arm_cfft_f32.c ****     *p2++ = m2 - m3;
 356              		.loc 1 832 0 discriminator 3
 357 0194 5046     		mov	r0, r10
 358 0196 FFF7FEFF 		bl	__aeabi_fsub
 359              	.LVL61:
 833:.\DSP\Source\TransformFunctions/arm_cfft_f32.c **** 
 834:.\DSP\Source\TransformFunctions/arm_cfft_f32.c ****     /* use vertical symmetry */
 835:.\DSP\Source\TransformFunctions/arm_cfft_f32.c ****     /*  0.9988 - 0.0491i <==> -0.0491 - 0.9988i */
 836:.\DSP\Source\TransformFunctions/arm_cfft_f32.c ****     m0 = t4[0] * twI;
 360              		.loc 1 836 0 discriminator 3
 361 019a 3946     		mov	r1, r7
 832:.\DSP\Source\TransformFunctions/arm_cfft_f32.c **** 
 362              		.loc 1 832 0 discriminator 3
 363 019c 49F80C0C 		str	r0, [r9, #-12]	@ float
 364              	.LVL62:
 365              		.loc 1 836 0 discriminator 3
ARM GAS  C:\Users\IVYLIU~1\AppData\Local\Temp\ccWLNWQl.s 			page 23


 366 01a0 4046     		mov	r0, r8
 367 01a2 FFF7FEFF 		bl	__aeabi_fmul
 368              	.LVL63:
 837:.\DSP\Source\TransformFunctions/arm_cfft_f32.c ****     m1 = t4[1] * twR;
 369              		.loc 1 837 0 discriminator 3
 370 01a6 3146     		mov	r1, r6
 836:.\DSP\Source\TransformFunctions/arm_cfft_f32.c ****     m1 = t4[1] * twR;
 371              		.loc 1 836 0 discriminator 3
 372 01a8 8246     		mov	r10, r0
 373              		.loc 1 837 0 discriminator 3
 374 01aa 0898     		ldr	r0, [sp, #32]	@ float
 375 01ac FFF7FEFF 		bl	__aeabi_fmul
 376              	.LVL64:
 377 01b0 0146     		mov	r1, r0
 838:.\DSP\Source\TransformFunctions/arm_cfft_f32.c ****     m2 = t4[1] * twI;
 839:.\DSP\Source\TransformFunctions/arm_cfft_f32.c ****     m3 = t4[0] * twR;
 840:.\DSP\Source\TransformFunctions/arm_cfft_f32.c **** 
 841:.\DSP\Source\TransformFunctions/arm_cfft_f32.c ****     *pMid2++ = m0 - m1;
 378              		.loc 1 841 0 discriminator 3
 379 01b2 5046     		mov	r0, r10
 380 01b4 FFF7FEFF 		bl	__aeabi_fsub
 381              	.LVL65:
 838:.\DSP\Source\TransformFunctions/arm_cfft_f32.c ****     m2 = t4[1] * twI;
 382              		.loc 1 838 0 discriminator 3
 383 01b8 3946     		mov	r1, r7
 384              		.loc 1 841 0 discriminator 3
 385 01ba 44F8100C 		str	r0, [r4, #-16]	@ float
 838:.\DSP\Source\TransformFunctions/arm_cfft_f32.c ****     m2 = t4[1] * twI;
 386              		.loc 1 838 0 discriminator 3
 387 01be 0898     		ldr	r0, [sp, #32]	@ float
 388 01c0 FFF7FEFF 		bl	__aeabi_fmul
 389              	.LVL66:
 839:.\DSP\Source\TransformFunctions/arm_cfft_f32.c **** 
 390              		.loc 1 839 0 discriminator 3
 391 01c4 3146     		mov	r1, r6
 838:.\DSP\Source\TransformFunctions/arm_cfft_f32.c ****     m2 = t4[1] * twI;
 392              		.loc 1 838 0 discriminator 3
 393 01c6 0746     		mov	r7, r0
 394              	.LVL67:
 839:.\DSP\Source\TransformFunctions/arm_cfft_f32.c **** 
 395              		.loc 1 839 0 discriminator 3
 396 01c8 4046     		mov	r0, r8
 397 01ca FFF7FEFF 		bl	__aeabi_fmul
 398              	.LVL68:
 399 01ce 0146     		mov	r1, r0
 842:.\DSP\Source\TransformFunctions/arm_cfft_f32.c ****     *pMid2++ = m2 + m3;
 400              		.loc 1 842 0 discriminator 3
 401 01d0 3846     		mov	r0, r7
 402 01d2 FFF7FEFF 		bl	__aeabi_fadd
 403              	.LVL69:
 843:.\DSP\Source\TransformFunctions/arm_cfft_f32.c **** 
 844:.\DSP\Source\TransformFunctions/arm_cfft_f32.c ****     twR = *tw++;
 404              		.loc 1 844 0 discriminator 3
 405 01d6 019B     		ldr	r3, [sp, #4]
 842:.\DSP\Source\TransformFunctions/arm_cfft_f32.c ****     *pMid2++ = m2 + m3;
 406              		.loc 1 842 0 discriminator 3
 407 01d8 44F80C0C 		str	r0, [r4, #-12]	@ float
ARM GAS  C:\Users\IVYLIU~1\AppData\Local\Temp\ccWLNWQl.s 			page 24


 408              	.LVL70:
 409              		.loc 1 844 0 discriminator 3
 410 01dc 9E68     		ldr	r6, [r3, #8]	@ float
 411              	.LVL71:
 845:.\DSP\Source\TransformFunctions/arm_cfft_f32.c ****     twI = *tw++;
 846:.\DSP\Source\TransformFunctions/arm_cfft_f32.c **** 
 847:.\DSP\Source\TransformFunctions/arm_cfft_f32.c ****     m0 = t2[2] * twR;
 412              		.loc 1 847 0 discriminator 3
 413 01de 0698     		ldr	r0, [sp, #24]	@ float
 414 01e0 1033     		adds	r3, r3, #16
 415 01e2 3146     		mov	r1, r6
 845:.\DSP\Source\TransformFunctions/arm_cfft_f32.c ****     twI = *tw++;
 416              		.loc 1 845 0 discriminator 3
 417 01e4 53F8047C 		ldr	r7, [r3, #-4]	@ float
 418 01e8 0193     		str	r3, [sp, #4]
 419              	.LVL72:
 420              		.loc 1 847 0 discriminator 3
 421 01ea FFF7FEFF 		bl	__aeabi_fmul
 422              	.LVL73:
 848:.\DSP\Source\TransformFunctions/arm_cfft_f32.c ****     m1 = t2[3] * twI;
 423              		.loc 1 848 0 discriminator 3
 424 01ee 3946     		mov	r1, r7
 847:.\DSP\Source\TransformFunctions/arm_cfft_f32.c ****     m1 = t2[3] * twI;
 425              		.loc 1 847 0 discriminator 3
 426 01f0 8046     		mov	r8, r0
 427              	.LVL74:
 428              		.loc 1 848 0 discriminator 3
 429 01f2 0798     		ldr	r0, [sp, #28]	@ float
 430 01f4 FFF7FEFF 		bl	__aeabi_fmul
 431              	.LVL75:
 432 01f8 0146     		mov	r1, r0
 849:.\DSP\Source\TransformFunctions/arm_cfft_f32.c ****     m2 = t2[3] * twR;
 850:.\DSP\Source\TransformFunctions/arm_cfft_f32.c ****     m3 = t2[2] * twI;
 851:.\DSP\Source\TransformFunctions/arm_cfft_f32.c **** 
 852:.\DSP\Source\TransformFunctions/arm_cfft_f32.c ****     *p2++ = m0 + m1;
 433              		.loc 1 852 0 discriminator 3
 434 01fa 4046     		mov	r0, r8
 435 01fc FFF7FEFF 		bl	__aeabi_fadd
 436              	.LVL76:
 849:.\DSP\Source\TransformFunctions/arm_cfft_f32.c ****     m2 = t2[3] * twR;
 437              		.loc 1 849 0 discriminator 3
 438 0200 3146     		mov	r1, r6
 439              		.loc 1 852 0 discriminator 3
 440 0202 49F8080C 		str	r0, [r9, #-8]	@ float
 849:.\DSP\Source\TransformFunctions/arm_cfft_f32.c ****     m2 = t2[3] * twR;
 441              		.loc 1 849 0 discriminator 3
 442 0206 0798     		ldr	r0, [sp, #28]	@ float
 443 0208 FFF7FEFF 		bl	__aeabi_fmul
 444              	.LVL77:
 850:.\DSP\Source\TransformFunctions/arm_cfft_f32.c **** 
 445              		.loc 1 850 0 discriminator 3
 446 020c 3946     		mov	r1, r7
 849:.\DSP\Source\TransformFunctions/arm_cfft_f32.c ****     m2 = t2[3] * twR;
 447              		.loc 1 849 0 discriminator 3
 448 020e 8046     		mov	r8, r0
 850:.\DSP\Source\TransformFunctions/arm_cfft_f32.c **** 
 449              		.loc 1 850 0 discriminator 3
ARM GAS  C:\Users\IVYLIU~1\AppData\Local\Temp\ccWLNWQl.s 			page 25


 450 0210 0698     		ldr	r0, [sp, #24]	@ float
 451 0212 FFF7FEFF 		bl	__aeabi_fmul
 452              	.LVL78:
 453 0216 0146     		mov	r1, r0
 853:.\DSP\Source\TransformFunctions/arm_cfft_f32.c ****     *p2++ = m2 - m3;
 454              		.loc 1 853 0 discriminator 3
 455 0218 4046     		mov	r0, r8
 456 021a FFF7FEFF 		bl	__aeabi_fsub
 457              	.LVL79:
 854:.\DSP\Source\TransformFunctions/arm_cfft_f32.c **** 
 855:.\DSP\Source\TransformFunctions/arm_cfft_f32.c ****     m0 = t4[2] * twI;
 458              		.loc 1 855 0 discriminator 3
 459 021e 3946     		mov	r1, r7
 853:.\DSP\Source\TransformFunctions/arm_cfft_f32.c ****     *p2++ = m2 - m3;
 460              		.loc 1 853 0 discriminator 3
 461 0220 49F8040C 		str	r0, [r9, #-4]	@ float
 462              	.LVL80:
 463              		.loc 1 855 0 discriminator 3
 464 0224 0998     		ldr	r0, [sp, #36]	@ float
 465 0226 FFF7FEFF 		bl	__aeabi_fmul
 466              	.LVL81:
 856:.\DSP\Source\TransformFunctions/arm_cfft_f32.c ****     m1 = t4[3] * twR;
 467              		.loc 1 856 0 discriminator 3
 468 022a 3146     		mov	r1, r6
 855:.\DSP\Source\TransformFunctions/arm_cfft_f32.c ****     m1 = t4[3] * twR;
 469              		.loc 1 855 0 discriminator 3
 470 022c 8046     		mov	r8, r0
 471              		.loc 1 856 0 discriminator 3
 472 022e 0A98     		ldr	r0, [sp, #40]	@ float
 473 0230 FFF7FEFF 		bl	__aeabi_fmul
 474              	.LVL82:
 475 0234 0146     		mov	r1, r0
 857:.\DSP\Source\TransformFunctions/arm_cfft_f32.c ****     m2 = t4[3] * twI;
 858:.\DSP\Source\TransformFunctions/arm_cfft_f32.c ****     m3 = t4[2] * twR;
 859:.\DSP\Source\TransformFunctions/arm_cfft_f32.c **** 
 860:.\DSP\Source\TransformFunctions/arm_cfft_f32.c ****     *pMid2++ = m0 - m1;
 476              		.loc 1 860 0 discriminator 3
 477 0236 4046     		mov	r0, r8
 478 0238 FFF7FEFF 		bl	__aeabi_fsub
 479              	.LVL83:
 857:.\DSP\Source\TransformFunctions/arm_cfft_f32.c ****     m2 = t4[3] * twI;
 480              		.loc 1 857 0 discriminator 3
 481 023c 3946     		mov	r1, r7
 482              		.loc 1 860 0 discriminator 3
 483 023e 44F8080C 		str	r0, [r4, #-8]	@ float
 857:.\DSP\Source\TransformFunctions/arm_cfft_f32.c ****     m2 = t4[3] * twI;
 484              		.loc 1 857 0 discriminator 3
 485 0242 0A98     		ldr	r0, [sp, #40]	@ float
 486 0244 FFF7FEFF 		bl	__aeabi_fmul
 487              	.LVL84:
 858:.\DSP\Source\TransformFunctions/arm_cfft_f32.c **** 
 488              		.loc 1 858 0 discriminator 3
 489 0248 3146     		mov	r1, r6
 857:.\DSP\Source\TransformFunctions/arm_cfft_f32.c ****     m2 = t4[3] * twI;
 490              		.loc 1 857 0 discriminator 3
 491 024a 0746     		mov	r7, r0
 492              	.LVL85:
ARM GAS  C:\Users\IVYLIU~1\AppData\Local\Temp\ccWLNWQl.s 			page 26


 858:.\DSP\Source\TransformFunctions/arm_cfft_f32.c **** 
 493              		.loc 1 858 0 discriminator 3
 494 024c 0998     		ldr	r0, [sp, #36]	@ float
 495 024e FFF7FEFF 		bl	__aeabi_fmul
 496              	.LVL86:
 497 0252 0146     		mov	r1, r0
 861:.\DSP\Source\TransformFunctions/arm_cfft_f32.c ****     *pMid2++ = m2 + m3;
 498              		.loc 1 861 0 discriminator 3
 499 0254 3846     		mov	r0, r7
 500 0256 FFF7FEFF 		bl	__aeabi_fadd
 501              	.LVL87:
 502 025a 44F8040C 		str	r0, [r4, #-4]	@ float
 503 025e DDF84CC0 		ldr	ip, [sp, #76]
 504 0262 129B     		ldr	r3, [sp, #72]
 505 0264 E4E6     		b	.L2
 506              	.LVL88:
 507              	.L5:
 862:.\DSP\Source\TransformFunctions/arm_cfft_f32.c ****   }
 863:.\DSP\Source\TransformFunctions/arm_cfft_f32.c **** 
 864:.\DSP\Source\TransformFunctions/arm_cfft_f32.c ****   /* first col */
 865:.\DSP\Source\TransformFunctions/arm_cfft_f32.c ****   arm_radix8_butterfly_f32 (pCol1, L, (float32_t *) S->pTwiddle, 2U);
 508              		.loc 1 865 0
 509 0266 BDF81040 		ldrh	r4, [sp, #16]
 510 026a 6046     		mov	r0, ip
 511 026c 2146     		mov	r1, r4
 512 026e 1A46     		mov	r2, r3
 513              	.LVL89:
 514 0270 0223     		movs	r3, #2
 515 0272 FFF7FEFF 		bl	arm_radix8_butterfly_f32
 516              	.LVL90:
 866:.\DSP\Source\TransformFunctions/arm_cfft_f32.c **** 
 867:.\DSP\Source\TransformFunctions/arm_cfft_f32.c ****   /* second col */
 868:.\DSP\Source\TransformFunctions/arm_cfft_f32.c ****   arm_radix8_butterfly_f32 (pCol2, L, (float32_t *) S->pTwiddle, 2U);
 517              		.loc 1 868 0
 518 0276 2146     		mov	r1, r4
 519 0278 039B     		ldr	r3, [sp, #12]
 520 027a 0298     		ldr	r0, [sp, #8]
 521 027c 5A68     		ldr	r2, [r3, #4]
 522 027e 0223     		movs	r3, #2
 869:.\DSP\Source\TransformFunctions/arm_cfft_f32.c **** }
 523              		.loc 1 869 0
 524 0280 15B0     		add	sp, sp, #84
 525              		.cfi_def_cfa_offset 36
 526              		@ sp needed
 527 0282 BDE8F04F 		pop	{r4, r5, r6, r7, r8, r9, r10, fp, lr}
 528              		.cfi_restore 14
 529              		.cfi_restore 11
 530              		.cfi_restore 10
 531              		.cfi_restore 9
 532              		.cfi_restore 8
 533              		.cfi_restore 7
 534              		.cfi_restore 6
 535              		.cfi_restore 5
 536              		.cfi_restore 4
 537              		.cfi_def_cfa_offset 0
 538              	.LVL91:
 868:.\DSP\Source\TransformFunctions/arm_cfft_f32.c **** }
ARM GAS  C:\Users\IVYLIU~1\AppData\Local\Temp\ccWLNWQl.s 			page 27


 539              		.loc 1 868 0
 540 0286 FFF7FEBF 		b	arm_radix8_butterfly_f32
 541              	.LVL92:
 542              		.cfi_endproc
 543              	.LFE84:
 544              		.size	arm_cfft_radix8by2_f32, .-arm_cfft_radix8by2_f32
 545              		.section	.text.arm_cfft_radix8by4_f32,"ax",%progbits
 546              		.align	1
 547              		.global	arm_cfft_radix8by4_f32
 548              		.thumb
 549              		.thumb_func
 550              		.type	arm_cfft_radix8by4_f32, %function
 551              	arm_cfft_radix8by4_f32:
 552              	.LFB85:
 870:.\DSP\Source\TransformFunctions/arm_cfft_f32.c **** 
 871:.\DSP\Source\TransformFunctions/arm_cfft_f32.c **** void arm_cfft_radix8by4_f32 (arm_cfft_instance_f32 * S, float32_t * p1)
 872:.\DSP\Source\TransformFunctions/arm_cfft_f32.c **** {
 553              		.loc 1 872 0
 554              		.cfi_startproc
 555              		@ args = 0, pretend = 0, frame = 144
 556              		@ frame_needed = 0, uses_anonymous_args = 0
 557              	.LVL93:
 873:.\DSP\Source\TransformFunctions/arm_cfft_f32.c ****     uint32_t    L  = S->fftLen >> 1;
 558              		.loc 1 873 0
 559 0000 0388     		ldrh	r3, [r0]
 872:.\DSP\Source\TransformFunctions/arm_cfft_f32.c ****     uint32_t    L  = S->fftLen >> 1;
 560              		.loc 1 872 0
 561 0002 2DE9F04F 		push	{r4, r5, r6, r7, r8, r9, r10, fp, lr}
 562              		.cfi_def_cfa_offset 36
 563              		.cfi_offset 4, -36
 564              		.cfi_offset 5, -32
 565              		.cfi_offset 6, -28
 566              		.cfi_offset 7, -24
 567              		.cfi_offset 8, -20
 568              		.cfi_offset 9, -16
 569              		.cfi_offset 10, -12
 570              		.cfi_offset 11, -8
 571              		.cfi_offset 14, -4
 572              		.loc 1 873 0
 573 0006 4FEA5308 		lsr	r8, r3, #1
 574              	.LVL94:
 874:.\DSP\Source\TransformFunctions/arm_cfft_f32.c ****     float32_t * pCol1, *pCol2, *pCol3, *pCol4, *pEnd1, *pEnd2, *pEnd3, *pEnd4;
 875:.\DSP\Source\TransformFunctions/arm_cfft_f32.c ****     const float32_t *tw2, *tw3, *tw4;
 876:.\DSP\Source\TransformFunctions/arm_cfft_f32.c ****     float32_t * p2 = p1 + L;
 575              		.loc 1 876 0
 576 000a 0B46     		mov	r3, r1
 577 000c 4FEA8802 		lsl	r2, r8, #2
 872:.\DSP\Source\TransformFunctions/arm_cfft_f32.c ****     uint32_t    L  = S->fftLen >> 1;
 578              		.loc 1 872 0
 579 0010 A5B0     		sub	sp, sp, #148
 580              		.cfi_def_cfa_offset 184
 581              		.loc 1 876 0
 582 0012 1344     		add	r3, r3, r2
 583 0014 0093     		str	r3, [sp]
 584              	.LVL95:
 877:.\DSP\Source\TransformFunctions/arm_cfft_f32.c ****     float32_t * p3 = p2 + L;
 585              		.loc 1 877 0
ARM GAS  C:\Users\IVYLIU~1\AppData\Local\Temp\ccWLNWQl.s 			page 28


 586 0016 1344     		add	r3, r3, r2
 587              	.LVL96:
 588 0018 0393     		str	r3, [sp, #12]
 589              	.LVL97:
 878:.\DSP\Source\TransformFunctions/arm_cfft_f32.c ****     float32_t * p4 = p3 + L;
 590              		.loc 1 878 0
 591 001a 1344     		add	r3, r3, r2
 592              	.LVL98:
 593 001c 0293     		str	r3, [sp, #8]
 594              	.LVL99:
 879:.\DSP\Source\TransformFunctions/arm_cfft_f32.c ****     float32_t t2[4], t3[4], t4[4], twR, twI;
 880:.\DSP\Source\TransformFunctions/arm_cfft_f32.c ****     float32_t p1ap3_0, p1sp3_0, p1ap3_1, p1sp3_1;
 881:.\DSP\Source\TransformFunctions/arm_cfft_f32.c ****     float32_t m0, m1, m2, m3;
 882:.\DSP\Source\TransformFunctions/arm_cfft_f32.c ****     uint32_t l, twMod2, twMod3, twMod4;
 883:.\DSP\Source\TransformFunctions/arm_cfft_f32.c **** 
 884:.\DSP\Source\TransformFunctions/arm_cfft_f32.c ****     pCol1 = p1;         /* points to real values by default */
 885:.\DSP\Source\TransformFunctions/arm_cfft_f32.c ****     pCol2 = p2;
 886:.\DSP\Source\TransformFunctions/arm_cfft_f32.c ****     pCol3 = p3;
 887:.\DSP\Source\TransformFunctions/arm_cfft_f32.c ****     pCol4 = p4;
 888:.\DSP\Source\TransformFunctions/arm_cfft_f32.c ****     pEnd1 = p2 - 1;     /* points to imaginary values by default */
 889:.\DSP\Source\TransformFunctions/arm_cfft_f32.c ****     pEnd2 = p3 - 1;
 890:.\DSP\Source\TransformFunctions/arm_cfft_f32.c ****     pEnd3 = p4 - 1;
 891:.\DSP\Source\TransformFunctions/arm_cfft_f32.c ****     pEnd4 = pEnd3 + L;
 892:.\DSP\Source\TransformFunctions/arm_cfft_f32.c **** 
 893:.\DSP\Source\TransformFunctions/arm_cfft_f32.c ****     tw2 = tw3 = tw4 = (float32_t *) S->pTwiddle;
 595              		.loc 1 893 0
 596 001e 4368     		ldr	r3, [r0, #4]
 597              	.LVL100:
 894:.\DSP\Source\TransformFunctions/arm_cfft_f32.c **** 
 895:.\DSP\Source\TransformFunctions/arm_cfft_f32.c ****     L >>= 1;
 896:.\DSP\Source\TransformFunctions/arm_cfft_f32.c **** 
 897:.\DSP\Source\TransformFunctions/arm_cfft_f32.c ****     /* do four dot Fourier transform */
 898:.\DSP\Source\TransformFunctions/arm_cfft_f32.c **** 
 899:.\DSP\Source\TransformFunctions/arm_cfft_f32.c ****     twMod2 = 2;
 900:.\DSP\Source\TransformFunctions/arm_cfft_f32.c ****     twMod3 = 4;
 901:.\DSP\Source\TransformFunctions/arm_cfft_f32.c ****     twMod4 = 6;
 902:.\DSP\Source\TransformFunctions/arm_cfft_f32.c **** 
 903:.\DSP\Source\TransformFunctions/arm_cfft_f32.c ****     /* TOP */
 904:.\DSP\Source\TransformFunctions/arm_cfft_f32.c ****     p1ap3_0 = p1[0] + p3[0];
 598              		.loc 1 904 0
 599 0020 0D68     		ldr	r5, [r1]	@ float
 893:.\DSP\Source\TransformFunctions/arm_cfft_f32.c **** 
 600              		.loc 1 893 0
 601 0022 0193     		str	r3, [sp, #4]
 602              	.LVL101:
 895:.\DSP\Source\TransformFunctions/arm_cfft_f32.c **** 
 603              		.loc 1 895 0
 604 0024 4FEA5803 		lsr	r3, r8, #1
 605              	.LVL102:
 606 0028 1293     		str	r3, [sp, #72]
 607              	.LVL103:
 608              		.loc 1 904 0
 609 002a 009B     		ldr	r3, [sp]
 610              	.LVL104:
 872:.\DSP\Source\TransformFunctions/arm_cfft_f32.c ****     uint32_t    L  = S->fftLen >> 1;
 611              		.loc 1 872 0
 612 002c 0D90     		str	r0, [sp, #52]
ARM GAS  C:\Users\IVYLIU~1\AppData\Local\Temp\ccWLNWQl.s 			page 29


 613              		.loc 1 904 0
 614 002e 53F82840 		ldr	r4, [r3, r8, lsl #2]	@ float
 872:.\DSP\Source\TransformFunctions/arm_cfft_f32.c ****     uint32_t    L  = S->fftLen >> 1;
 615              		.loc 1 872 0
 616 0032 0491     		str	r1, [sp, #16]
 617              	.LVL105:
 618              		.loc 1 904 0
 619 0034 2846     		mov	r0, r5
 620              	.LVL106:
 621 0036 2146     		mov	r1, r4
 622              	.LVL107:
 878:.\DSP\Source\TransformFunctions/arm_cfft_f32.c ****     float32_t t2[4], t3[4], t4[4], twR, twI;
 623              		.loc 1 878 0
 624 0038 0692     		str	r2, [sp, #24]
 625              	.LVL108:
 626              		.loc 1 904 0
 627 003a FFF7FEFF 		bl	__aeabi_fadd
 628              	.LVL109:
 905:.\DSP\Source\TransformFunctions/arm_cfft_f32.c ****     p1sp3_0 = p1[0] - p3[0];
 629              		.loc 1 905 0
 630 003e 2146     		mov	r1, r4
 904:.\DSP\Source\TransformFunctions/arm_cfft_f32.c ****     p1sp3_0 = p1[0] - p3[0];
 631              		.loc 1 904 0
 632 0040 8346     		mov	fp, r0
 633              	.LVL110:
 634              		.loc 1 905 0
 635 0042 2846     		mov	r0, r5
 636              	.LVL111:
 637 0044 FFF7FEFF 		bl	__aeabi_fsub
 638              	.LVL112:
 906:.\DSP\Source\TransformFunctions/arm_cfft_f32.c ****     p1ap3_1 = p1[1] + p3[1];
 639              		.loc 1 906 0
 640 0048 049B     		ldr	r3, [sp, #16]
 905:.\DSP\Source\TransformFunctions/arm_cfft_f32.c ****     p1sp3_0 = p1[0] - p3[0];
 641              		.loc 1 905 0
 642 004a 8146     		mov	r9, r0
 643              	.LVL113:
 644              		.loc 1 906 0
 645 004c 5D68     		ldr	r5, [r3, #4]	@ float
 646 004e 039B     		ldr	r3, [sp, #12]
 647 0050 2846     		mov	r0, r5
 648              	.LVL114:
 649 0052 5C68     		ldr	r4, [r3, #4]	@ float
 650 0054 2146     		mov	r1, r4
 651 0056 FFF7FEFF 		bl	__aeabi_fadd
 652              	.LVL115:
 907:.\DSP\Source\TransformFunctions/arm_cfft_f32.c ****     p1sp3_1 = p1[1] - p3[1];
 653              		.loc 1 907 0
 654 005a 2146     		mov	r1, r4
 906:.\DSP\Source\TransformFunctions/arm_cfft_f32.c ****     p1ap3_1 = p1[1] + p3[1];
 655              		.loc 1 906 0
 656 005c 8246     		mov	r10, r0
 657              	.LVL116:
 658              		.loc 1 907 0
 659 005e 2846     		mov	r0, r5
 660              	.LVL117:
 661 0060 FFF7FEFF 		bl	__aeabi_fsub
ARM GAS  C:\Users\IVYLIU~1\AppData\Local\Temp\ccWLNWQl.s 			page 30


 662              	.LVL118:
 908:.\DSP\Source\TransformFunctions/arm_cfft_f32.c **** 
 909:.\DSP\Source\TransformFunctions/arm_cfft_f32.c ****     /* col 2 */
 910:.\DSP\Source\TransformFunctions/arm_cfft_f32.c ****     t2[0] = p1sp3_0 + p2[1] - p4[1];
 663              		.loc 1 910 0
 664 0064 009B     		ldr	r3, [sp]
 907:.\DSP\Source\TransformFunctions/arm_cfft_f32.c ****     p1sp3_1 = p1[1] - p3[1];
 665              		.loc 1 907 0
 666 0066 0590     		str	r0, [sp, #20]	@ float
 667              	.LVL119:
 668              		.loc 1 910 0
 669 0068 5F68     		ldr	r7, [r3, #4]	@ float
 670 006a 029B     		ldr	r3, [sp, #8]
 911:.\DSP\Source\TransformFunctions/arm_cfft_f32.c ****     t2[1] = p1sp3_1 - p2[0] + p4[0];
 912:.\DSP\Source\TransformFunctions/arm_cfft_f32.c ****     /* col 3 */
 913:.\DSP\Source\TransformFunctions/arm_cfft_f32.c ****     t3[0] = p1ap3_0 - p2[0] - p4[0];
 914:.\DSP\Source\TransformFunctions/arm_cfft_f32.c ****     t3[1] = p1ap3_1 - p2[1] - p4[1];
 915:.\DSP\Source\TransformFunctions/arm_cfft_f32.c ****     /* col 4 */
 916:.\DSP\Source\TransformFunctions/arm_cfft_f32.c ****     t4[0] = p1sp3_0 - p2[1] + p4[1];
 917:.\DSP\Source\TransformFunctions/arm_cfft_f32.c ****     t4[1] = p1sp3_1 + p2[0] - p4[0];
 918:.\DSP\Source\TransformFunctions/arm_cfft_f32.c ****     /* col 1 */
 919:.\DSP\Source\TransformFunctions/arm_cfft_f32.c ****     *p1++ = p1ap3_0 + p2[0] + p4[0];
 671              		.loc 1 919 0
 672 006c 5846     		mov	r0, fp
 673              	.LVL120:
 910:.\DSP\Source\TransformFunctions/arm_cfft_f32.c ****     t2[1] = p1sp3_1 - p2[0] + p4[0];
 674              		.loc 1 910 0
 675 006e 5E68     		ldr	r6, [r3, #4]	@ float
 676              	.LVL121:
 911:.\DSP\Source\TransformFunctions/arm_cfft_f32.c ****     t2[1] = p1sp3_1 - p2[0] + p4[0];
 677              		.loc 1 911 0
 678 0070 049B     		ldr	r3, [sp, #16]
 679 0072 53F82850 		ldr	r5, [r3, r8, lsl #2]	@ float
 680 0076 039B     		ldr	r3, [sp, #12]
 681              		.loc 1 919 0
 682 0078 2946     		mov	r1, r5
 911:.\DSP\Source\TransformFunctions/arm_cfft_f32.c ****     t2[1] = p1sp3_1 - p2[0] + p4[0];
 683              		.loc 1 911 0
 684 007a 53F82840 		ldr	r4, [r3, r8, lsl #2]	@ float
 685              	.LVL122:
 686              		.loc 1 919 0
 687 007e FFF7FEFF 		bl	__aeabi_fadd
 688              	.LVL123:
 689 0082 2146     		mov	r1, r4
 690 0084 FFF7FEFF 		bl	__aeabi_fadd
 691              	.LVL124:
 692 0088 049B     		ldr	r3, [sp, #16]
 693 008a 43F8080B 		str	r0, [r3], #8	@ float
 694 008e 0993     		str	r3, [sp, #36]
 695              	.LVL125:
 920:.\DSP\Source\TransformFunctions/arm_cfft_f32.c ****     *p1++ = p1ap3_1 + p2[1] + p4[1];
 696              		.loc 1 920 0
 697 0090 009B     		ldr	r3, [sp]
 698              	.LVL126:
 699 0092 5046     		mov	r0, r10
 700 0094 5968     		ldr	r1, [r3, #4]	@ float
 701 0096 FFF7FEFF 		bl	__aeabi_fadd
ARM GAS  C:\Users\IVYLIU~1\AppData\Local\Temp\ccWLNWQl.s 			page 31


 702              	.LVL127:
 703 009a 029B     		ldr	r3, [sp, #8]
 704 009c 5968     		ldr	r1, [r3, #4]	@ float
 705 009e FFF7FEFF 		bl	__aeabi_fadd
 706              	.LVL128:
 707 00a2 049B     		ldr	r3, [sp, #16]
 910:.\DSP\Source\TransformFunctions/arm_cfft_f32.c ****     t2[1] = p1sp3_1 - p2[0] + p4[0];
 708              		.loc 1 910 0
 709 00a4 3946     		mov	r1, r7
 710              		.loc 1 920 0
 711 00a6 5860     		str	r0, [r3, #4]	@ float
 712              	.LVL129:
 910:.\DSP\Source\TransformFunctions/arm_cfft_f32.c ****     t2[1] = p1sp3_1 - p2[0] + p4[0];
 713              		.loc 1 910 0
 714 00a8 4846     		mov	r0, r9
 715 00aa FFF7FEFF 		bl	__aeabi_fadd
 716              	.LVL130:
 717 00ae 3146     		mov	r1, r6
 718 00b0 FFF7FEFF 		bl	__aeabi_fsub
 719              	.LVL131:
 921:.\DSP\Source\TransformFunctions/arm_cfft_f32.c **** 
 922:.\DSP\Source\TransformFunctions/arm_cfft_f32.c ****     /* Twiddle factors are ones */
 923:.\DSP\Source\TransformFunctions/arm_cfft_f32.c ****     *p2++ = t2[0];
 720              		.loc 1 923 0
 721 00b4 049B     		ldr	r3, [sp, #16]
 911:.\DSP\Source\TransformFunctions/arm_cfft_f32.c ****     /* col 3 */
 722              		.loc 1 911 0
 723 00b6 2946     		mov	r1, r5
 724              		.loc 1 923 0
 725 00b8 43F82800 		str	r0, [r3, r8, lsl #2]	@ float
 924:.\DSP\Source\TransformFunctions/arm_cfft_f32.c ****     *p2++ = t2[1];
 726              		.loc 1 924 0
 727 00bc 009B     		ldr	r3, [sp]
 911:.\DSP\Source\TransformFunctions/arm_cfft_f32.c ****     /* col 3 */
 728              		.loc 1 911 0
 729 00be 0598     		ldr	r0, [sp, #20]	@ float
 730              		.loc 1 924 0
 731 00c0 0833     		adds	r3, r3, #8
 732 00c2 0E93     		str	r3, [sp, #56]
 733              	.LVL132:
 911:.\DSP\Source\TransformFunctions/arm_cfft_f32.c ****     /* col 3 */
 734              		.loc 1 911 0
 735 00c4 FFF7FEFF 		bl	__aeabi_fsub
 736              	.LVL133:
 737 00c8 2146     		mov	r1, r4
 738 00ca FFF7FEFF 		bl	__aeabi_fadd
 739              	.LVL134:
 740              		.loc 1 924 0
 741 00ce 009B     		ldr	r3, [sp]
 913:.\DSP\Source\TransformFunctions/arm_cfft_f32.c ****     t3[1] = p1ap3_1 - p2[1] - p4[1];
 742              		.loc 1 913 0
 743 00d0 2946     		mov	r1, r5
 744              		.loc 1 924 0
 745 00d2 5860     		str	r0, [r3, #4]	@ float
 746              	.LVL135:
 913:.\DSP\Source\TransformFunctions/arm_cfft_f32.c ****     t3[1] = p1ap3_1 - p2[1] - p4[1];
 747              		.loc 1 913 0
ARM GAS  C:\Users\IVYLIU~1\AppData\Local\Temp\ccWLNWQl.s 			page 32


 748 00d4 5846     		mov	r0, fp
 749 00d6 FFF7FEFF 		bl	__aeabi_fsub
 750              	.LVL136:
 751 00da 2146     		mov	r1, r4
 752 00dc FFF7FEFF 		bl	__aeabi_fsub
 753              	.LVL137:
 925:.\DSP\Source\TransformFunctions/arm_cfft_f32.c ****     *p3++ = t3[0];
 754              		.loc 1 925 0
 755 00e0 009B     		ldr	r3, [sp]
 914:.\DSP\Source\TransformFunctions/arm_cfft_f32.c ****     /* col 4 */
 756              		.loc 1 914 0
 757 00e2 3946     		mov	r1, r7
 758              		.loc 1 925 0
 759 00e4 43F82800 		str	r0, [r3, r8, lsl #2]	@ float
 926:.\DSP\Source\TransformFunctions/arm_cfft_f32.c ****     *p3++ = t3[1];
 760              		.loc 1 926 0
 761 00e8 039B     		ldr	r3, [sp, #12]
 914:.\DSP\Source\TransformFunctions/arm_cfft_f32.c ****     /* col 4 */
 762              		.loc 1 914 0
 763 00ea 5046     		mov	r0, r10
 764              		.loc 1 926 0
 765 00ec 0833     		adds	r3, r3, #8
 766 00ee 0F93     		str	r3, [sp, #60]
 767              	.LVL138:
 914:.\DSP\Source\TransformFunctions/arm_cfft_f32.c ****     /* col 4 */
 768              		.loc 1 914 0
 769 00f0 FFF7FEFF 		bl	__aeabi_fsub
 770              	.LVL139:
 771 00f4 3146     		mov	r1, r6
 772 00f6 FFF7FEFF 		bl	__aeabi_fsub
 773              	.LVL140:
 774              		.loc 1 926 0
 775 00fa 039B     		ldr	r3, [sp, #12]
 916:.\DSP\Source\TransformFunctions/arm_cfft_f32.c ****     t4[1] = p1sp3_1 + p2[0] - p4[0];
 776              		.loc 1 916 0
 777 00fc 3946     		mov	r1, r7
 778              		.loc 1 926 0
 779 00fe 5860     		str	r0, [r3, #4]	@ float
 780              	.LVL141:
 916:.\DSP\Source\TransformFunctions/arm_cfft_f32.c ****     t4[1] = p1sp3_1 + p2[0] - p4[0];
 781              		.loc 1 916 0
 782 0100 4846     		mov	r0, r9
 783 0102 FFF7FEFF 		bl	__aeabi_fsub
 784              	.LVL142:
 785 0106 3146     		mov	r1, r6
 786 0108 FFF7FEFF 		bl	__aeabi_fadd
 787              	.LVL143:
 927:.\DSP\Source\TransformFunctions/arm_cfft_f32.c ****     *p4++ = t4[0];
 788              		.loc 1 927 0
 789 010c 039B     		ldr	r3, [sp, #12]
 917:.\DSP\Source\TransformFunctions/arm_cfft_f32.c ****     /* col 1 */
 790              		.loc 1 917 0
 791 010e 2946     		mov	r1, r5
 792              		.loc 1 927 0
 793 0110 43F82800 		str	r0, [r3, r8, lsl #2]	@ float
 928:.\DSP\Source\TransformFunctions/arm_cfft_f32.c ****     *p4++ = t4[1];
 794              		.loc 1 928 0
ARM GAS  C:\Users\IVYLIU~1\AppData\Local\Temp\ccWLNWQl.s 			page 33


 795 0114 029B     		ldr	r3, [sp, #8]
 917:.\DSP\Source\TransformFunctions/arm_cfft_f32.c ****     /* col 1 */
 796              		.loc 1 917 0
 797 0116 0598     		ldr	r0, [sp, #20]	@ float
 798              		.loc 1 928 0
 799 0118 0833     		adds	r3, r3, #8
 800 011a 1093     		str	r3, [sp, #64]
 801              	.LVL144:
 917:.\DSP\Source\TransformFunctions/arm_cfft_f32.c ****     /* col 1 */
 802              		.loc 1 917 0
 803 011c FFF7FEFF 		bl	__aeabi_fadd
 804              	.LVL145:
 805 0120 2146     		mov	r1, r4
 806 0122 FFF7FEFF 		bl	__aeabi_fsub
 807              	.LVL146:
 929:.\DSP\Source\TransformFunctions/arm_cfft_f32.c **** 
 930:.\DSP\Source\TransformFunctions/arm_cfft_f32.c ****     tw2 += twMod2;
 931:.\DSP\Source\TransformFunctions/arm_cfft_f32.c ****     tw3 += twMod3;
 932:.\DSP\Source\TransformFunctions/arm_cfft_f32.c ****     tw4 += twMod4;
 933:.\DSP\Source\TransformFunctions/arm_cfft_f32.c **** 
 934:.\DSP\Source\TransformFunctions/arm_cfft_f32.c ****     for (l = (L - 2) >> 1; l > 0; l-- )
 808              		.loc 1 934 0
 809 0126 4FF00009 		mov	r9, #0
 810              	.LVL147:
 811 012a CA46     		mov	r10, r9
 812              	.LVL148:
 928:.\DSP\Source\TransformFunctions/arm_cfft_f32.c ****     *p4++ = t4[1];
 813              		.loc 1 928 0
 814 012c 029B     		ldr	r3, [sp, #8]
 815 012e 069A     		ldr	r2, [sp, #24]
 816 0130 5860     		str	r0, [r3, #4]	@ float
 817              	.LVL149:
 932:.\DSP\Source\TransformFunctions/arm_cfft_f32.c **** 
 818              		.loc 1 932 0
 819 0132 019B     		ldr	r3, [sp, #4]
 820 0134 043A     		subs	r2, r2, #4
 821 0136 1833     		adds	r3, r3, #24
 822 0138 1193     		str	r3, [sp, #68]
 823              	.LVL150:
 824              		.loc 1 934 0
 825 013a 129B     		ldr	r3, [sp, #72]
 826              	.LVL151:
 827 013c 023B     		subs	r3, r3, #2
 828 013e 5B08     		lsrs	r3, r3, #1
 829 0140 2093     		str	r3, [sp, #128]
 830              	.LVL152:
 831 0142 099B     		ldr	r3, [sp, #36]
 832              	.LVL153:
 833 0144 0B93     		str	r3, [sp, #44]
 889:.\DSP\Source\TransformFunctions/arm_cfft_f32.c ****     pEnd3 = p4 - 1;
 834              		.loc 1 889 0
 835 0146 039B     		ldr	r3, [sp, #12]
 836 0148 043B     		subs	r3, r3, #4
 837              	.LVL154:
 838 014a 0893     		str	r3, [sp, #32]
 891:.\DSP\Source\TransformFunctions/arm_cfft_f32.c **** 
 839              		.loc 1 891 0
ARM GAS  C:\Users\IVYLIU~1\AppData\Local\Temp\ccWLNWQl.s 			page 34


 840 014c 029B     		ldr	r3, [sp, #8]
 841              	.LVL155:
 842 014e 1344     		add	r3, r3, r2
 843 0150 0793     		str	r3, [sp, #28]
 844 0152 DDF844C0 		ldr	ip, [sp, #68]
 845 0156 0E9B     		ldr	r3, [sp, #56]
 846              		.loc 1 934 0
 847 0158 CDF83090 		str	r9, [sp, #48]
 848 015c 0693     		str	r3, [sp, #24]
 849 015e 0F9B     		ldr	r3, [sp, #60]
 850 0160 0A93     		str	r3, [sp, #40]
 851 0162 109B     		ldr	r3, [sp, #64]
 852 0164 0593     		str	r3, [sp, #20]
 853              	.LVL156:
 854              	.L7:
 855 0166 0B9B     		ldr	r3, [sp, #44]
 856 0168 A9F10809 		sub	r9, r9, #8
 857 016c 0833     		adds	r3, r3, #8
 858 016e 0B93     		str	r3, [sp, #44]
 859 0170 0C9B     		ldr	r3, [sp, #48]
 860 0172 0CF1180C 		add	ip, ip, #24
 861              	.LVL157:
 862 0176 0833     		adds	r3, r3, #8
 863 0178 0C93     		str	r3, [sp, #48]
 864 017a 089B     		ldr	r3, [sp, #32]
 865 017c 083B     		subs	r3, r3, #8
 866 017e 0893     		str	r3, [sp, #32]
 867 0180 079B     		ldr	r3, [sp, #28]
 868 0182 083B     		subs	r3, r3, #8
 869 0184 0793     		str	r3, [sp, #28]
 870 0186 069B     		ldr	r3, [sp, #24]
 871 0188 0833     		adds	r3, r3, #8
 872 018a 0693     		str	r3, [sp, #24]
 873 018c 0A9B     		ldr	r3, [sp, #40]
 874 018e 0833     		adds	r3, r3, #8
 875 0190 0A93     		str	r3, [sp, #40]
 876 0192 059B     		ldr	r3, [sp, #20]
 877 0194 0833     		adds	r3, r3, #8
 878 0196 0593     		str	r3, [sp, #20]
 879              		.loc 1 934 0 is_stmt 0 discriminator 1
 880 0198 209B     		ldr	r3, [sp, #128]
 881 019a 9A45     		cmp	r10, r3
 882 019c 00F0BB81 		beq	.L9
 935:.\DSP\Source\TransformFunctions/arm_cfft_f32.c ****     {
 936:.\DSP\Source\TransformFunctions/arm_cfft_f32.c ****       /* TOP */
 937:.\DSP\Source\TransformFunctions/arm_cfft_f32.c ****       p1ap3_0 = p1[0] + p3[0];
 883              		.loc 1 937 0 is_stmt 1 discriminator 3
 884 01a0 0B9B     		ldr	r3, [sp, #44]
 885 01a2 CDF88CC0 		str	ip, [sp, #140]
 886 01a6 53F8085C 		ldr	r5, [r3, #-8]	@ float
 887 01aa 0A9B     		ldr	r3, [sp, #40]
 888 01ac 2846     		mov	r0, r5
 889 01ae 53F8084C 		ldr	r4, [r3, #-8]	@ float
 890 01b2 2146     		mov	r1, r4
 891 01b4 FFF7FEFF 		bl	__aeabi_fadd
 892              	.LVL158:
 938:.\DSP\Source\TransformFunctions/arm_cfft_f32.c ****       p1sp3_0 = p1[0] - p3[0];
ARM GAS  C:\Users\IVYLIU~1\AppData\Local\Temp\ccWLNWQl.s 			page 35


 893              		.loc 1 938 0 discriminator 3
 894 01b8 2146     		mov	r1, r4
 937:.\DSP\Source\TransformFunctions/arm_cfft_f32.c ****       p1sp3_0 = p1[0] - p3[0];
 895              		.loc 1 937 0 discriminator 3
 896 01ba 8046     		mov	r8, r0
 897              	.LVL159:
 898              		.loc 1 938 0 discriminator 3
 899 01bc 2846     		mov	r0, r5
 900              	.LVL160:
 901 01be FFF7FEFF 		bl	__aeabi_fsub
 902              	.LVL161:
 939:.\DSP\Source\TransformFunctions/arm_cfft_f32.c ****       p1ap3_1 = p1[1] + p3[1];
 903              		.loc 1 939 0 discriminator 3
 904 01c2 0B9B     		ldr	r3, [sp, #44]
 938:.\DSP\Source\TransformFunctions/arm_cfft_f32.c ****       p1sp3_0 = p1[0] - p3[0];
 905              		.loc 1 938 0 discriminator 3
 906 01c4 1390     		str	r0, [sp, #76]	@ float
 907              	.LVL162:
 908              		.loc 1 939 0 discriminator 3
 909 01c6 53F8045C 		ldr	r5, [r3, #-4]	@ float
 910 01ca 0A9B     		ldr	r3, [sp, #40]
 911 01cc 2846     		mov	r0, r5
 912              	.LVL163:
 913 01ce 53F8044C 		ldr	r4, [r3, #-4]	@ float
 914 01d2 2146     		mov	r1, r4
 915 01d4 FFF7FEFF 		bl	__aeabi_fadd
 916              	.LVL164:
 940:.\DSP\Source\TransformFunctions/arm_cfft_f32.c ****       p1sp3_1 = p1[1] - p3[1];
 917              		.loc 1 940 0 discriminator 3
 918 01d8 2146     		mov	r1, r4
 939:.\DSP\Source\TransformFunctions/arm_cfft_f32.c ****       p1ap3_1 = p1[1] + p3[1];
 919              		.loc 1 939 0 discriminator 3
 920 01da 0746     		mov	r7, r0
 921              	.LVL165:
 922              		.loc 1 940 0 discriminator 3
 923 01dc 2846     		mov	r0, r5
 924              	.LVL166:
 925 01de FFF7FEFF 		bl	__aeabi_fsub
 926              	.LVL167:
 941:.\DSP\Source\TransformFunctions/arm_cfft_f32.c ****       /* col 2 */
 942:.\DSP\Source\TransformFunctions/arm_cfft_f32.c ****       t2[0] = p1sp3_0 + p2[1] - p4[1];
 927              		.loc 1 942 0 discriminator 3
 928 01e2 069B     		ldr	r3, [sp, #24]
 940:.\DSP\Source\TransformFunctions/arm_cfft_f32.c ****       p1sp3_1 = p1[1] - p3[1];
 929              		.loc 1 940 0 discriminator 3
 930 01e4 1490     		str	r0, [sp, #80]	@ float
 931              	.LVL168:
 932              		.loc 1 942 0 discriminator 3
 933 01e6 53F804BC 		ldr	fp, [r3, #-4]	@ float
 934 01ea 059B     		ldr	r3, [sp, #20]
 935 01ec 5946     		mov	r1, fp
 936 01ee 53F8046C 		ldr	r6, [r3, #-4]	@ float
 937 01f2 1398     		ldr	r0, [sp, #76]	@ float
 938              	.LVL169:
 939 01f4 FFF7FEFF 		bl	__aeabi_fadd
 940              	.LVL170:
 941 01f8 3146     		mov	r1, r6
ARM GAS  C:\Users\IVYLIU~1\AppData\Local\Temp\ccWLNWQl.s 			page 36


 942 01fa FFF7FEFF 		bl	__aeabi_fsub
 943              	.LVL171:
 943:.\DSP\Source\TransformFunctions/arm_cfft_f32.c ****       t2[1] = p1sp3_1 - p2[0] + p4[0];
 944              		.loc 1 943 0 discriminator 3
 945 01fe 069B     		ldr	r3, [sp, #24]
 942:.\DSP\Source\TransformFunctions/arm_cfft_f32.c ****       t2[1] = p1sp3_1 - p2[0] + p4[0];
 946              		.loc 1 942 0 discriminator 3
 947 0200 1590     		str	r0, [sp, #84]	@ float
 948              	.LVL172:
 949              		.loc 1 943 0 discriminator 3
 950 0202 53F8085C 		ldr	r5, [r3, #-8]	@ float
 951 0206 059B     		ldr	r3, [sp, #20]
 952 0208 2946     		mov	r1, r5
 953 020a 53F8084C 		ldr	r4, [r3, #-8]	@ float
 954 020e 1498     		ldr	r0, [sp, #80]	@ float
 955              	.LVL173:
 956 0210 FFF7FEFF 		bl	__aeabi_fsub
 957              	.LVL174:
 958 0214 2146     		mov	r1, r4
 959 0216 FFF7FEFF 		bl	__aeabi_fadd
 960              	.LVL175:
 944:.\DSP\Source\TransformFunctions/arm_cfft_f32.c ****       /* col 3 */
 945:.\DSP\Source\TransformFunctions/arm_cfft_f32.c ****       t3[0] = p1ap3_0 - p2[0] - p4[0];
 961              		.loc 1 945 0 discriminator 3
 962 021a 2946     		mov	r1, r5
 943:.\DSP\Source\TransformFunctions/arm_cfft_f32.c ****       /* col 3 */
 963              		.loc 1 943 0 discriminator 3
 964 021c 1690     		str	r0, [sp, #88]	@ float
 965              	.LVL176:
 966              		.loc 1 945 0 discriminator 3
 967 021e 4046     		mov	r0, r8
 968              	.LVL177:
 969 0220 FFF7FEFF 		bl	__aeabi_fsub
 970              	.LVL178:
 971 0224 2146     		mov	r1, r4
 972 0226 FFF7FEFF 		bl	__aeabi_fsub
 973              	.LVL179:
 946:.\DSP\Source\TransformFunctions/arm_cfft_f32.c ****       t3[1] = p1ap3_1 - p2[1] - p4[1];
 974              		.loc 1 946 0 discriminator 3
 975 022a 5946     		mov	r1, fp
 945:.\DSP\Source\TransformFunctions/arm_cfft_f32.c ****       t3[1] = p1ap3_1 - p2[1] - p4[1];
 976              		.loc 1 945 0 discriminator 3
 977 022c 1790     		str	r0, [sp, #92]	@ float
 978              	.LVL180:
 979              		.loc 1 946 0 discriminator 3
 980 022e 3846     		mov	r0, r7
 981              	.LVL181:
 982 0230 FFF7FEFF 		bl	__aeabi_fsub
 983              	.LVL182:
 984 0234 3146     		mov	r1, r6
 985 0236 FFF7FEFF 		bl	__aeabi_fsub
 986              	.LVL183:
 947:.\DSP\Source\TransformFunctions/arm_cfft_f32.c ****       /* col 4 */
 948:.\DSP\Source\TransformFunctions/arm_cfft_f32.c ****       t4[0] = p1sp3_0 - p2[1] + p4[1];
 987              		.loc 1 948 0 discriminator 3
 988 023a 5946     		mov	r1, fp
 946:.\DSP\Source\TransformFunctions/arm_cfft_f32.c ****       /* col 4 */
ARM GAS  C:\Users\IVYLIU~1\AppData\Local\Temp\ccWLNWQl.s 			page 37


 989              		.loc 1 946 0 discriminator 3
 990 023c 1890     		str	r0, [sp, #96]	@ float
 991              	.LVL184:
 992              		.loc 1 948 0 discriminator 3
 993 023e 1398     		ldr	r0, [sp, #76]	@ float
 994              	.LVL185:
 995 0240 FFF7FEFF 		bl	__aeabi_fsub
 996              	.LVL186:
 997 0244 3146     		mov	r1, r6
 998 0246 FFF7FEFF 		bl	__aeabi_fadd
 999              	.LVL187:
 949:.\DSP\Source\TransformFunctions/arm_cfft_f32.c ****       t4[1] = p1sp3_1 + p2[0] - p4[0];
 1000              		.loc 1 949 0 discriminator 3
 1001 024a 2946     		mov	r1, r5
 948:.\DSP\Source\TransformFunctions/arm_cfft_f32.c ****       t4[1] = p1sp3_1 + p2[0] - p4[0];
 1002              		.loc 1 948 0 discriminator 3
 1003 024c 1990     		str	r0, [sp, #100]	@ float
 1004              	.LVL188:
 1005              		.loc 1 949 0 discriminator 3
 1006 024e 1498     		ldr	r0, [sp, #80]	@ float
 1007              	.LVL189:
 1008 0250 FFF7FEFF 		bl	__aeabi_fadd
 1009              	.LVL190:
 1010 0254 2146     		mov	r1, r4
 1011 0256 FFF7FEFF 		bl	__aeabi_fsub
 1012              	.LVL191:
 950:.\DSP\Source\TransformFunctions/arm_cfft_f32.c ****       /* col 1 - top */
 951:.\DSP\Source\TransformFunctions/arm_cfft_f32.c ****       *p1++ = p1ap3_0 + p2[0] + p4[0];
 1013              		.loc 1 951 0 discriminator 3
 1014 025a 2946     		mov	r1, r5
 949:.\DSP\Source\TransformFunctions/arm_cfft_f32.c ****       /* col 1 - top */
 1015              		.loc 1 949 0 discriminator 3
 1016 025c 1490     		str	r0, [sp, #80]	@ float
 1017              	.LVL192:
 1018              		.loc 1 951 0 discriminator 3
 1019 025e 4046     		mov	r0, r8
 1020              	.LVL193:
 1021 0260 FFF7FEFF 		bl	__aeabi_fadd
 1022              	.LVL194:
 1023 0264 2146     		mov	r1, r4
 1024 0266 FFF7FEFF 		bl	__aeabi_fadd
 1025              	.LVL195:
 1026 026a 0B9B     		ldr	r3, [sp, #44]
 1027 026c 43F8080C 		str	r0, [r3, #-8]	@ float
 952:.\DSP\Source\TransformFunctions/arm_cfft_f32.c ****       *p1++ = p1ap3_1 + p2[1] + p4[1];
 1028              		.loc 1 952 0 discriminator 3
 1029 0270 069B     		ldr	r3, [sp, #24]
 1030 0272 3846     		mov	r0, r7
 1031 0274 53F8041C 		ldr	r1, [r3, #-4]	@ float
 1032 0278 FFF7FEFF 		bl	__aeabi_fadd
 1033              	.LVL196:
 1034 027c 059B     		ldr	r3, [sp, #20]
 1035 027e 53F8041C 		ldr	r1, [r3, #-4]	@ float
 1036 0282 FFF7FEFF 		bl	__aeabi_fadd
 1037              	.LVL197:
 1038 0286 0B9B     		ldr	r3, [sp, #44]
 1039 0288 43F8040C 		str	r0, [r3, #-4]	@ float
ARM GAS  C:\Users\IVYLIU~1\AppData\Local\Temp\ccWLNWQl.s 			page 38


 953:.\DSP\Source\TransformFunctions/arm_cfft_f32.c **** 
 954:.\DSP\Source\TransformFunctions/arm_cfft_f32.c ****       /* BOTTOM */
 955:.\DSP\Source\TransformFunctions/arm_cfft_f32.c ****       p1ap3_1 = pEnd1[-1] + pEnd3[-1];
 1040              		.loc 1 955 0 discriminator 3
 1041 028c 009B     		ldr	r3, [sp]
 1042 028e 53F80950 		ldr	r5, [r3, r9]	@ float
 1043 0292 029B     		ldr	r3, [sp, #8]
 1044 0294 2846     		mov	r0, r5
 1045 0296 53F80940 		ldr	r4, [r3, r9]	@ float
 1046 029a 2146     		mov	r1, r4
 1047 029c FFF7FEFF 		bl	__aeabi_fadd
 1048              	.LVL198:
 956:.\DSP\Source\TransformFunctions/arm_cfft_f32.c ****       p1sp3_1 = pEnd1[-1] - pEnd3[-1];
 1049              		.loc 1 956 0 discriminator 3
 1050 02a0 2146     		mov	r1, r4
 955:.\DSP\Source\TransformFunctions/arm_cfft_f32.c ****       p1sp3_1 = pEnd1[-1] - pEnd3[-1];
 1051              		.loc 1 955 0 discriminator 3
 1052 02a2 8046     		mov	r8, r0
 1053              	.LVL199:
 1054              		.loc 1 956 0 discriminator 3
 1055 02a4 2846     		mov	r0, r5
 1056              	.LVL200:
 1057 02a6 FFF7FEFF 		bl	__aeabi_fsub
 1058              	.LVL201:
 1059 02aa 009B     		ldr	r3, [sp]
 1060 02ac 8346     		mov	fp, r0
 1061              	.LVL202:
 1062 02ae 03EB0902 		add	r2, r3, r9
 1063 02b2 029B     		ldr	r3, [sp, #8]
 957:.\DSP\Source\TransformFunctions/arm_cfft_f32.c ****       p1ap3_0 = pEnd1[ 0] + pEnd3[0];
 1064              		.loc 1 957 0 discriminator 3
 1065 02b4 5568     		ldr	r5, [r2, #4]	@ float
 1066 02b6 4B44     		add	r3, r3, r9
 1067 02b8 5C68     		ldr	r4, [r3, #4]	@ float
 1068 02ba 2846     		mov	r0, r5
 1069              	.LVL203:
 1070 02bc 2146     		mov	r1, r4
 1071 02be 2292     		str	r2, [sp, #136]
 1072 02c0 1393     		str	r3, [sp, #76]
 1073              	.LVL204:
 1074 02c2 FFF7FEFF 		bl	__aeabi_fadd
 1075              	.LVL205:
 958:.\DSP\Source\TransformFunctions/arm_cfft_f32.c ****       p1sp3_0 = pEnd1[ 0] - pEnd3[0];
 1076              		.loc 1 958 0 discriminator 3
 1077 02c6 2146     		mov	r1, r4
 957:.\DSP\Source\TransformFunctions/arm_cfft_f32.c ****       p1ap3_0 = pEnd1[ 0] + pEnd3[0];
 1078              		.loc 1 957 0 discriminator 3
 1079 02c8 1A90     		str	r0, [sp, #104]	@ float
 1080              	.LVL206:
 1081              		.loc 1 958 0 discriminator 3
 1082 02ca 2846     		mov	r0, r5
 1083              	.LVL207:
 1084 02cc FFF7FEFF 		bl	__aeabi_fsub
 1085              	.LVL208:
 959:.\DSP\Source\TransformFunctions/arm_cfft_f32.c ****       /* col 2 */
 960:.\DSP\Source\TransformFunctions/arm_cfft_f32.c ****       t2[2] = pEnd2[0] - pEnd4[0] + p1sp3_1;
 1086              		.loc 1 960 0 discriminator 3
ARM GAS  C:\Users\IVYLIU~1\AppData\Local\Temp\ccWLNWQl.s 			page 39


 1087 02d0 089B     		ldr	r3, [sp, #32]
 958:.\DSP\Source\TransformFunctions/arm_cfft_f32.c ****       p1sp3_0 = pEnd1[ 0] - pEnd3[0];
 1088              		.loc 1 958 0 discriminator 3
 1089 02d2 1B90     		str	r0, [sp, #108]	@ float
 1090              	.LVL209:
 1091              		.loc 1 960 0 discriminator 3
 1092 02d4 9D68     		ldr	r5, [r3, #8]	@ float
 1093 02d6 079B     		ldr	r3, [sp, #28]
 1094 02d8 2846     		mov	r0, r5
 1095              	.LVL210:
 1096 02da 9C68     		ldr	r4, [r3, #8]	@ float
 1097 02dc 2146     		mov	r1, r4
 1098 02de FFF7FEFF 		bl	__aeabi_fsub
 1099              	.LVL211:
 1100 02e2 5946     		mov	r1, fp
 1101 02e4 2190     		str	r0, [sp, #132]
 1102 02e6 FFF7FEFF 		bl	__aeabi_fadd
 1103              	.LVL212:
 961:.\DSP\Source\TransformFunctions/arm_cfft_f32.c ****       t2[3] = pEnd1[0] - pEnd3[0] - pEnd2[-1] + pEnd4[-1];
 1104              		.loc 1 961 0 discriminator 3
 1105 02ea 089B     		ldr	r3, [sp, #32]
 960:.\DSP\Source\TransformFunctions/arm_cfft_f32.c ****       t2[3] = pEnd1[0] - pEnd3[0] - pEnd2[-1] + pEnd4[-1];
 1106              		.loc 1 960 0 discriminator 3
 1107 02ec 1C90     		str	r0, [sp, #112]	@ float
 1108              	.LVL213:
 1109              		.loc 1 961 0 discriminator 3
 1110 02ee 5F68     		ldr	r7, [r3, #4]	@ float
 1111 02f0 079B     		ldr	r3, [sp, #28]
 1112 02f2 3946     		mov	r1, r7
 1113 02f4 5E68     		ldr	r6, [r3, #4]	@ float
 1114 02f6 1B98     		ldr	r0, [sp, #108]	@ float
 1115              	.LVL214:
 1116 02f8 FFF7FEFF 		bl	__aeabi_fsub
 1117              	.LVL215:
 1118 02fc 3146     		mov	r1, r6
 1119 02fe FFF7FEFF 		bl	__aeabi_fadd
 1120              	.LVL216:
 962:.\DSP\Source\TransformFunctions/arm_cfft_f32.c ****       /* col 3 */
 963:.\DSP\Source\TransformFunctions/arm_cfft_f32.c ****       t3[2] = p1ap3_1 - pEnd2[-1] - pEnd4[-1];
 1121              		.loc 1 963 0 discriminator 3
 1122 0302 3946     		mov	r1, r7
 961:.\DSP\Source\TransformFunctions/arm_cfft_f32.c ****       /* col 3 */
 1123              		.loc 1 961 0 discriminator 3
 1124 0304 1D90     		str	r0, [sp, #116]	@ float
 1125              	.LVL217:
 1126              		.loc 1 963 0 discriminator 3
 1127 0306 4046     		mov	r0, r8
 1128              	.LVL218:
 1129 0308 FFF7FEFF 		bl	__aeabi_fsub
 1130              	.LVL219:
 1131 030c 3146     		mov	r1, r6
 1132 030e FFF7FEFF 		bl	__aeabi_fsub
 1133              	.LVL220:
 964:.\DSP\Source\TransformFunctions/arm_cfft_f32.c ****       t3[3] = p1ap3_0 - pEnd2[ 0] - pEnd4[ 0];
 1134              		.loc 1 964 0 discriminator 3
 1135 0312 2946     		mov	r1, r5
 963:.\DSP\Source\TransformFunctions/arm_cfft_f32.c ****       t3[3] = p1ap3_0 - pEnd2[ 0] - pEnd4[ 0];
ARM GAS  C:\Users\IVYLIU~1\AppData\Local\Temp\ccWLNWQl.s 			page 40


 1136              		.loc 1 963 0 discriminator 3
 1137 0314 1E90     		str	r0, [sp, #120]	@ float
 1138              	.LVL221:
 1139              		.loc 1 964 0 discriminator 3
 1140 0316 1A98     		ldr	r0, [sp, #104]	@ float
 1141              	.LVL222:
 1142 0318 FFF7FEFF 		bl	__aeabi_fsub
 1143              	.LVL223:
 1144 031c 2146     		mov	r1, r4
 1145 031e FFF7FEFF 		bl	__aeabi_fsub
 1146              	.LVL224:
 965:.\DSP\Source\TransformFunctions/arm_cfft_f32.c ****       /* col 4 */
 966:.\DSP\Source\TransformFunctions/arm_cfft_f32.c ****       t4[2] = pEnd2[ 0] - pEnd4[ 0] - p1sp3_1;
 1147              		.loc 1 966 0 discriminator 3
 1148 0322 219B     		ldr	r3, [sp, #132]
 1149 0324 5946     		mov	r1, fp
 964:.\DSP\Source\TransformFunctions/arm_cfft_f32.c ****       /* col 4 */
 1150              		.loc 1 964 0 discriminator 3
 1151 0326 1F90     		str	r0, [sp, #124]	@ float
 1152              	.LVL225:
 1153              		.loc 1 966 0 discriminator 3
 1154 0328 1846     		mov	r0, r3
 1155              	.LVL226:
 1156 032a FFF7FEFF 		bl	__aeabi_fsub
 1157              	.LVL227:
 967:.\DSP\Source\TransformFunctions/arm_cfft_f32.c ****       t4[3] = pEnd4[-1] - pEnd2[-1] - p1sp3_0;
 1158              		.loc 1 967 0 discriminator 3
 1159 032e 3946     		mov	r1, r7
 966:.\DSP\Source\TransformFunctions/arm_cfft_f32.c ****       t4[3] = pEnd4[-1] - pEnd2[-1] - p1sp3_0;
 1160              		.loc 1 966 0 discriminator 3
 1161 0330 8346     		mov	fp, r0
 1162              	.LVL228:
 1163              		.loc 1 967 0 discriminator 3
 1164 0332 3046     		mov	r0, r6
 1165              	.LVL229:
 1166 0334 FFF7FEFF 		bl	__aeabi_fsub
 1167              	.LVL230:
 1168 0338 1B99     		ldr	r1, [sp, #108]	@ float
 1169 033a FFF7FEFF 		bl	__aeabi_fsub
 1170              	.LVL231:
 968:.\DSP\Source\TransformFunctions/arm_cfft_f32.c ****       /* col 1 - Bottom */
 969:.\DSP\Source\TransformFunctions/arm_cfft_f32.c ****       *pEnd1-- = p1ap3_0 + pEnd2[ 0] + pEnd4[ 0];
 1171              		.loc 1 969 0 discriminator 3
 1172 033e 2946     		mov	r1, r5
 967:.\DSP\Source\TransformFunctions/arm_cfft_f32.c ****       /* col 1 - Bottom */
 1173              		.loc 1 967 0 discriminator 3
 1174 0340 0646     		mov	r6, r0
 1175              	.LVL232:
 1176              		.loc 1 969 0 discriminator 3
 1177 0342 1A98     		ldr	r0, [sp, #104]	@ float
 1178              	.LVL233:
 1179 0344 FFF7FEFF 		bl	__aeabi_fadd
 1180              	.LVL234:
 1181 0348 2146     		mov	r1, r4
 1182 034a FFF7FEFF 		bl	__aeabi_fadd
 1183              	.LVL235:
 1184 034e 229A     		ldr	r2, [sp, #136]
ARM GAS  C:\Users\IVYLIU~1\AppData\Local\Temp\ccWLNWQl.s 			page 41


 970:.\DSP\Source\TransformFunctions/arm_cfft_f32.c ****       *pEnd1-- = p1ap3_1 + pEnd2[-1] + pEnd4[-1];
 1185              		.loc 1 970 0 discriminator 3
 1186 0350 089B     		ldr	r3, [sp, #32]
 969:.\DSP\Source\TransformFunctions/arm_cfft_f32.c ****       *pEnd1-- = p1ap3_1 + pEnd2[-1] + pEnd4[-1];
 1187              		.loc 1 969 0 discriminator 3
 1188 0352 5060     		str	r0, [r2, #4]	@ float
 1189              	.LVL236:
 1190              		.loc 1 970 0 discriminator 3
 1191 0354 5968     		ldr	r1, [r3, #4]	@ float
 1192 0356 4046     		mov	r0, r8
 1193 0358 FFF7FEFF 		bl	__aeabi_fadd
 1194              	.LVL237:
 1195 035c 079B     		ldr	r3, [sp, #28]
 1196 035e 5968     		ldr	r1, [r3, #4]	@ float
 1197 0360 FFF7FEFF 		bl	__aeabi_fadd
 1198              	.LVL238:
 1199 0364 009B     		ldr	r3, [sp]
 971:.\DSP\Source\TransformFunctions/arm_cfft_f32.c **** 
 972:.\DSP\Source\TransformFunctions/arm_cfft_f32.c ****       /* COL 2 */
 973:.\DSP\Source\TransformFunctions/arm_cfft_f32.c ****       /* read twiddle factors */
 974:.\DSP\Source\TransformFunctions/arm_cfft_f32.c ****       twR = *tw2++;
 1200              		.loc 1 974 0 discriminator 3
 1201 0366 0C9A     		ldr	r2, [sp, #48]
 970:.\DSP\Source\TransformFunctions/arm_cfft_f32.c **** 
 1202              		.loc 1 970 0 discriminator 3
 1203 0368 43F80900 		str	r0, [r3, r9]	@ float
 1204              		.loc 1 974 0 discriminator 3
 1205 036c 019B     		ldr	r3, [sp, #4]
 975:.\DSP\Source\TransformFunctions/arm_cfft_f32.c ****       twI = *tw2++;
 976:.\DSP\Source\TransformFunctions/arm_cfft_f32.c ****       /* multiply by twiddle factors */
 977:.\DSP\Source\TransformFunctions/arm_cfft_f32.c ****       /*  let    Z1 = a + i(b),   Z2 = c + i(d) */
 978:.\DSP\Source\TransformFunctions/arm_cfft_f32.c ****       /*   =>  Z1 * Z2  =  (a*c - b*d) + i(b*c + a*d) */
 979:.\DSP\Source\TransformFunctions/arm_cfft_f32.c **** 
 980:.\DSP\Source\TransformFunctions/arm_cfft_f32.c ****       /* Top */
 981:.\DSP\Source\TransformFunctions/arm_cfft_f32.c ****       m0 = t2[0] * twR;
 1206              		.loc 1 981 0 discriminator 3
 1207 036e 1598     		ldr	r0, [sp, #84]	@ float
 974:.\DSP\Source\TransformFunctions/arm_cfft_f32.c ****       twI = *tw2++;
 1208              		.loc 1 974 0 discriminator 3
 1209 0370 9C58     		ldr	r4, [r3, r2]	@ float
 1210              	.LVL239:
 1211 0372 1344     		add	r3, r3, r2
 1212              	.LVL240:
 1213              		.loc 1 981 0 discriminator 3
 1214 0374 2146     		mov	r1, r4
 975:.\DSP\Source\TransformFunctions/arm_cfft_f32.c ****       twI = *tw2++;
 1215              		.loc 1 975 0 discriminator 3
 1216 0376 5D68     		ldr	r5, [r3, #4]	@ float
 1217              	.LVL241:
 1218              		.loc 1 981 0 discriminator 3
 1219 0378 FFF7FEFF 		bl	__aeabi_fmul
 1220              	.LVL242:
 982:.\DSP\Source\TransformFunctions/arm_cfft_f32.c ****       m1 = t2[1] * twI;
 1221              		.loc 1 982 0 discriminator 3
 1222 037c 2946     		mov	r1, r5
 981:.\DSP\Source\TransformFunctions/arm_cfft_f32.c ****       m1 = t2[1] * twI;
 1223              		.loc 1 981 0 discriminator 3
ARM GAS  C:\Users\IVYLIU~1\AppData\Local\Temp\ccWLNWQl.s 			page 42


 1224 037e 8046     		mov	r8, r0
 1225              	.LVL243:
 1226              		.loc 1 982 0 discriminator 3
 1227 0380 1698     		ldr	r0, [sp, #88]	@ float
 1228 0382 FFF7FEFF 		bl	__aeabi_fmul
 1229              	.LVL244:
 1230 0386 0146     		mov	r1, r0
 983:.\DSP\Source\TransformFunctions/arm_cfft_f32.c ****       m2 = t2[1] * twR;
 984:.\DSP\Source\TransformFunctions/arm_cfft_f32.c ****       m3 = t2[0] * twI;
 985:.\DSP\Source\TransformFunctions/arm_cfft_f32.c **** 
 986:.\DSP\Source\TransformFunctions/arm_cfft_f32.c ****       *p2++ = m0 + m1;
 1231              		.loc 1 986 0 discriminator 3
 1232 0388 4046     		mov	r0, r8
 1233 038a FFF7FEFF 		bl	__aeabi_fadd
 1234              	.LVL245:
 1235 038e 069B     		ldr	r3, [sp, #24]
 983:.\DSP\Source\TransformFunctions/arm_cfft_f32.c ****       m2 = t2[1] * twR;
 1236              		.loc 1 983 0 discriminator 3
 1237 0390 2146     		mov	r1, r4
 1238              		.loc 1 986 0 discriminator 3
 1239 0392 43F8080C 		str	r0, [r3, #-8]	@ float
 983:.\DSP\Source\TransformFunctions/arm_cfft_f32.c ****       m2 = t2[1] * twR;
 1240              		.loc 1 983 0 discriminator 3
 1241 0396 1698     		ldr	r0, [sp, #88]	@ float
 1242 0398 FFF7FEFF 		bl	__aeabi_fmul
 1243              	.LVL246:
 984:.\DSP\Source\TransformFunctions/arm_cfft_f32.c **** 
 1244              		.loc 1 984 0 discriminator 3
 1245 039c 2946     		mov	r1, r5
 983:.\DSP\Source\TransformFunctions/arm_cfft_f32.c ****       m2 = t2[1] * twR;
 1246              		.loc 1 983 0 discriminator 3
 1247 039e 8046     		mov	r8, r0
 984:.\DSP\Source\TransformFunctions/arm_cfft_f32.c **** 
 1248              		.loc 1 984 0 discriminator 3
 1249 03a0 1598     		ldr	r0, [sp, #84]	@ float
 1250 03a2 FFF7FEFF 		bl	__aeabi_fmul
 1251              	.LVL247:
 1252 03a6 0146     		mov	r1, r0
 987:.\DSP\Source\TransformFunctions/arm_cfft_f32.c ****       *p2++ = m2 - m3;
 1253              		.loc 1 987 0 discriminator 3
 1254 03a8 4046     		mov	r0, r8
 1255 03aa FFF7FEFF 		bl	__aeabi_fsub
 1256              	.LVL248:
 1257 03ae 069B     		ldr	r3, [sp, #24]
 988:.\DSP\Source\TransformFunctions/arm_cfft_f32.c ****       /* use vertical symmetry col 2 */
 989:.\DSP\Source\TransformFunctions/arm_cfft_f32.c ****       /* 0.9997 - 0.0245i  <==>  0.0245 - 0.9997i */
 990:.\DSP\Source\TransformFunctions/arm_cfft_f32.c ****       /* Bottom */
 991:.\DSP\Source\TransformFunctions/arm_cfft_f32.c ****       m0 = t2[3] * twI;
 1258              		.loc 1 991 0 discriminator 3
 1259 03b0 2946     		mov	r1, r5
 987:.\DSP\Source\TransformFunctions/arm_cfft_f32.c ****       *p2++ = m2 - m3;
 1260              		.loc 1 987 0 discriminator 3
 1261 03b2 43F8040C 		str	r0, [r3, #-4]	@ float
 1262              	.LVL249:
 1263              		.loc 1 991 0 discriminator 3
 1264 03b6 1D98     		ldr	r0, [sp, #116]	@ float
 1265 03b8 FFF7FEFF 		bl	__aeabi_fmul
ARM GAS  C:\Users\IVYLIU~1\AppData\Local\Temp\ccWLNWQl.s 			page 43


 1266              	.LVL250:
 992:.\DSP\Source\TransformFunctions/arm_cfft_f32.c ****       m1 = t2[2] * twR;
 1267              		.loc 1 992 0 discriminator 3
 1268 03bc 2146     		mov	r1, r4
 991:.\DSP\Source\TransformFunctions/arm_cfft_f32.c ****       m1 = t2[2] * twR;
 1269              		.loc 1 991 0 discriminator 3
 1270 03be 8046     		mov	r8, r0
 1271              		.loc 1 992 0 discriminator 3
 1272 03c0 1C98     		ldr	r0, [sp, #112]	@ float
 1273 03c2 FFF7FEFF 		bl	__aeabi_fmul
 1274              	.LVL251:
 1275 03c6 0146     		mov	r1, r0
 993:.\DSP\Source\TransformFunctions/arm_cfft_f32.c ****       m2 = t2[2] * twI;
 994:.\DSP\Source\TransformFunctions/arm_cfft_f32.c ****       m3 = t2[3] * twR;
 995:.\DSP\Source\TransformFunctions/arm_cfft_f32.c **** 
 996:.\DSP\Source\TransformFunctions/arm_cfft_f32.c ****       *pEnd2-- = m0 - m1;
 1276              		.loc 1 996 0 discriminator 3
 1277 03c8 4046     		mov	r0, r8
 1278 03ca FFF7FEFF 		bl	__aeabi_fsub
 1279              	.LVL252:
 1280 03ce 089B     		ldr	r3, [sp, #32]
 993:.\DSP\Source\TransformFunctions/arm_cfft_f32.c ****       m2 = t2[2] * twI;
 1281              		.loc 1 993 0 discriminator 3
 1282 03d0 2946     		mov	r1, r5
 1283              		.loc 1 996 0 discriminator 3
 1284 03d2 9860     		str	r0, [r3, #8]	@ float
 993:.\DSP\Source\TransformFunctions/arm_cfft_f32.c ****       m2 = t2[2] * twI;
 1285              		.loc 1 993 0 discriminator 3
 1286 03d4 1C98     		ldr	r0, [sp, #112]	@ float
 1287 03d6 FFF7FEFF 		bl	__aeabi_fmul
 1288              	.LVL253:
 994:.\DSP\Source\TransformFunctions/arm_cfft_f32.c **** 
 1289              		.loc 1 994 0 discriminator 3
 1290 03da 2146     		mov	r1, r4
 993:.\DSP\Source\TransformFunctions/arm_cfft_f32.c ****       m2 = t2[2] * twI;
 1291              		.loc 1 993 0 discriminator 3
 1292 03dc 0546     		mov	r5, r0
 1293              	.LVL254:
 994:.\DSP\Source\TransformFunctions/arm_cfft_f32.c **** 
 1294              		.loc 1 994 0 discriminator 3
 1295 03de 1D98     		ldr	r0, [sp, #116]	@ float
 1296 03e0 FFF7FEFF 		bl	__aeabi_fmul
 1297              	.LVL255:
 1298 03e4 0146     		mov	r1, r0
 997:.\DSP\Source\TransformFunctions/arm_cfft_f32.c ****       *pEnd2-- = m2 + m3;
 1299              		.loc 1 997 0 discriminator 3
 1300 03e6 2846     		mov	r0, r5
 1301 03e8 FFF7FEFF 		bl	__aeabi_fadd
 1302              	.LVL256:
 1303 03ec 089B     		ldr	r3, [sp, #32]
 998:.\DSP\Source\TransformFunctions/arm_cfft_f32.c **** 
 999:.\DSP\Source\TransformFunctions/arm_cfft_f32.c ****       /* COL 3 */
1000:.\DSP\Source\TransformFunctions/arm_cfft_f32.c ****       twR = tw3[0];
 1304              		.loc 1 1000 0 discriminator 3
 1305 03ee 0C9A     		ldr	r2, [sp, #48]
 997:.\DSP\Source\TransformFunctions/arm_cfft_f32.c ****       *pEnd2-- = m2 + m3;
 1306              		.loc 1 997 0 discriminator 3
ARM GAS  C:\Users\IVYLIU~1\AppData\Local\Temp\ccWLNWQl.s 			page 44


 1307 03f0 5860     		str	r0, [r3, #4]	@ float
 1308              		.loc 1 1000 0 discriminator 3
 1309 03f2 019B     		ldr	r3, [sp, #4]
1001:.\DSP\Source\TransformFunctions/arm_cfft_f32.c ****       twI = tw3[1];
1002:.\DSP\Source\TransformFunctions/arm_cfft_f32.c ****       tw3 += twMod3;
1003:.\DSP\Source\TransformFunctions/arm_cfft_f32.c ****       /* Top */
1004:.\DSP\Source\TransformFunctions/arm_cfft_f32.c ****       m0 = t3[0] * twR;
 1310              		.loc 1 1004 0 discriminator 3
 1311 03f4 1798     		ldr	r0, [sp, #92]	@ float
1000:.\DSP\Source\TransformFunctions/arm_cfft_f32.c ****       twI = tw3[1];
 1312              		.loc 1 1000 0 discriminator 3
 1313 03f6 53F81240 		ldr	r4, [r3, r2, lsl #1]	@ float
 1314              	.LVL257:
 1315 03fa 03EB0A13 		add	r3, r3, r10, lsl #4
 1316              		.loc 1 1004 0 discriminator 3
 1317 03fe 2146     		mov	r1, r4
1001:.\DSP\Source\TransformFunctions/arm_cfft_f32.c ****       twI = tw3[1];
 1318              		.loc 1 1001 0 discriminator 3
 1319 0400 5D69     		ldr	r5, [r3, #20]	@ float
 1320              	.LVL258:
 1321              		.loc 1 1004 0 discriminator 3
 1322 0402 FFF7FEFF 		bl	__aeabi_fmul
 1323              	.LVL259:
1005:.\DSP\Source\TransformFunctions/arm_cfft_f32.c ****       m1 = t3[1] * twI;
 1324              		.loc 1 1005 0 discriminator 3
 1325 0406 2946     		mov	r1, r5
1004:.\DSP\Source\TransformFunctions/arm_cfft_f32.c ****       m1 = t3[1] * twI;
 1326              		.loc 1 1004 0 discriminator 3
 1327 0408 0746     		mov	r7, r0
 1328              		.loc 1 1005 0 discriminator 3
 1329 040a 1898     		ldr	r0, [sp, #96]	@ float
 1330 040c FFF7FEFF 		bl	__aeabi_fmul
 1331              	.LVL260:
 1332 0410 0146     		mov	r1, r0
1006:.\DSP\Source\TransformFunctions/arm_cfft_f32.c ****       m2 = t3[1] * twR;
1007:.\DSP\Source\TransformFunctions/arm_cfft_f32.c ****       m3 = t3[0] * twI;
1008:.\DSP\Source\TransformFunctions/arm_cfft_f32.c **** 
1009:.\DSP\Source\TransformFunctions/arm_cfft_f32.c ****       *p3++ = m0 + m1;
 1333              		.loc 1 1009 0 discriminator 3
 1334 0412 3846     		mov	r0, r7
 1335 0414 FFF7FEFF 		bl	__aeabi_fadd
 1336              	.LVL261:
 1337 0418 0A9B     		ldr	r3, [sp, #40]
1006:.\DSP\Source\TransformFunctions/arm_cfft_f32.c ****       m2 = t3[1] * twR;
 1338              		.loc 1 1006 0 discriminator 3
 1339 041a 2146     		mov	r1, r4
 1340              		.loc 1 1009 0 discriminator 3
 1341 041c 43F8080C 		str	r0, [r3, #-8]	@ float
1006:.\DSP\Source\TransformFunctions/arm_cfft_f32.c ****       m2 = t3[1] * twR;
 1342              		.loc 1 1006 0 discriminator 3
 1343 0420 1898     		ldr	r0, [sp, #96]	@ float
 1344 0422 FFF7FEFF 		bl	__aeabi_fmul
 1345              	.LVL262:
1007:.\DSP\Source\TransformFunctions/arm_cfft_f32.c **** 
 1346              		.loc 1 1007 0 discriminator 3
 1347 0426 2946     		mov	r1, r5
1006:.\DSP\Source\TransformFunctions/arm_cfft_f32.c ****       m2 = t3[1] * twR;
ARM GAS  C:\Users\IVYLIU~1\AppData\Local\Temp\ccWLNWQl.s 			page 45


 1348              		.loc 1 1006 0 discriminator 3
 1349 0428 0746     		mov	r7, r0
1007:.\DSP\Source\TransformFunctions/arm_cfft_f32.c **** 
 1350              		.loc 1 1007 0 discriminator 3
 1351 042a 1798     		ldr	r0, [sp, #92]	@ float
 1352 042c FFF7FEFF 		bl	__aeabi_fmul
 1353              	.LVL263:
 1354 0430 0146     		mov	r1, r0
1010:.\DSP\Source\TransformFunctions/arm_cfft_f32.c ****       *p3++ = m2 - m3;
 1355              		.loc 1 1010 0 discriminator 3
 1356 0432 3846     		mov	r0, r7
 1357 0434 FFF7FEFF 		bl	__aeabi_fsub
 1358              	.LVL264:
 1359 0438 0A9B     		ldr	r3, [sp, #40]
1011:.\DSP\Source\TransformFunctions/arm_cfft_f32.c ****       /* use vertical symmetry col 3 */
1012:.\DSP\Source\TransformFunctions/arm_cfft_f32.c ****       /* 0.9988 - 0.0491i  <==>  -0.9988 - 0.0491i */
1013:.\DSP\Source\TransformFunctions/arm_cfft_f32.c ****       /* Bottom */
1014:.\DSP\Source\TransformFunctions/arm_cfft_f32.c ****       m0 = -t3[3] * twR;
 1360              		.loc 1 1014 0 discriminator 3
 1361 043a 2146     		mov	r1, r4
1010:.\DSP\Source\TransformFunctions/arm_cfft_f32.c ****       *p3++ = m2 - m3;
 1362              		.loc 1 1010 0 discriminator 3
 1363 043c 43F8040C 		str	r0, [r3, #-4]	@ float
 1364              	.LVL265:
 1365              		.loc 1 1014 0 discriminator 3
 1366 0440 1F9B     		ldr	r3, [sp, #124]
 1367 0442 0AF1010A 		add	r10, r10, #1
 1368              	.LVL266:
 1369 0446 03F10040 		add	r0, r3, #-2147483648
 1370 044a FFF7FEFF 		bl	__aeabi_fmul
 1371              	.LVL267:
1015:.\DSP\Source\TransformFunctions/arm_cfft_f32.c ****       m1 =  t3[2] * twI;
 1372              		.loc 1 1015 0 discriminator 3
 1373 044e 2946     		mov	r1, r5
1014:.\DSP\Source\TransformFunctions/arm_cfft_f32.c ****       m1 =  t3[2] * twI;
 1374              		.loc 1 1014 0 discriminator 3
 1375 0450 0746     		mov	r7, r0
 1376              		.loc 1 1015 0 discriminator 3
 1377 0452 1E98     		ldr	r0, [sp, #120]	@ float
 1378 0454 FFF7FEFF 		bl	__aeabi_fmul
 1379              	.LVL268:
 1380 0458 0146     		mov	r1, r0
1016:.\DSP\Source\TransformFunctions/arm_cfft_f32.c ****       m2 =  t3[2] * twR;
1017:.\DSP\Source\TransformFunctions/arm_cfft_f32.c ****       m3 =  t3[3] * twI;
1018:.\DSP\Source\TransformFunctions/arm_cfft_f32.c **** 
1019:.\DSP\Source\TransformFunctions/arm_cfft_f32.c ****       *pEnd3-- = m0 - m1;
 1381              		.loc 1 1019 0 discriminator 3
 1382 045a 3846     		mov	r0, r7
 1383 045c FFF7FEFF 		bl	__aeabi_fsub
 1384              	.LVL269:
 1385 0460 139B     		ldr	r3, [sp, #76]
1017:.\DSP\Source\TransformFunctions/arm_cfft_f32.c **** 
 1386              		.loc 1 1017 0 discriminator 3
 1387 0462 2946     		mov	r1, r5
 1388              		.loc 1 1019 0 discriminator 3
 1389 0464 5860     		str	r0, [r3, #4]	@ float
 1390              	.LVL270:
ARM GAS  C:\Users\IVYLIU~1\AppData\Local\Temp\ccWLNWQl.s 			page 46


1017:.\DSP\Source\TransformFunctions/arm_cfft_f32.c **** 
 1391              		.loc 1 1017 0 discriminator 3
 1392 0466 1F98     		ldr	r0, [sp, #124]	@ float
 1393 0468 FFF7FEFF 		bl	__aeabi_fmul
 1394              	.LVL271:
1016:.\DSP\Source\TransformFunctions/arm_cfft_f32.c ****       m2 =  t3[2] * twR;
 1395              		.loc 1 1016 0 discriminator 3
 1396 046c 2146     		mov	r1, r4
1017:.\DSP\Source\TransformFunctions/arm_cfft_f32.c **** 
 1397              		.loc 1 1017 0 discriminator 3
 1398 046e 0546     		mov	r5, r0
 1399              	.LVL272:
1016:.\DSP\Source\TransformFunctions/arm_cfft_f32.c ****       m2 =  t3[2] * twR;
 1400              		.loc 1 1016 0 discriminator 3
 1401 0470 1E98     		ldr	r0, [sp, #120]	@ float
 1402 0472 FFF7FEFF 		bl	__aeabi_fmul
 1403              	.LVL273:
 1404 0476 0146     		mov	r1, r0
1020:.\DSP\Source\TransformFunctions/arm_cfft_f32.c ****       *pEnd3-- = m3 - m2;
 1405              		.loc 1 1020 0 discriminator 3
 1406 0478 2846     		mov	r0, r5
 1407 047a FFF7FEFF 		bl	__aeabi_fsub
 1408              	.LVL274:
 1409 047e 029B     		ldr	r3, [sp, #8]
1021:.\DSP\Source\TransformFunctions/arm_cfft_f32.c **** 
1022:.\DSP\Source\TransformFunctions/arm_cfft_f32.c ****       /* COL 4 */
1023:.\DSP\Source\TransformFunctions/arm_cfft_f32.c ****       twR = tw4[0];
 1410              		.loc 1 1023 0 discriminator 3
 1411 0480 DDF88CC0 		ldr	ip, [sp, #140]
1020:.\DSP\Source\TransformFunctions/arm_cfft_f32.c ****       *pEnd3-- = m3 - m2;
 1412              		.loc 1 1020 0 discriminator 3
 1413 0484 43F80900 		str	r0, [r3, r9]	@ float
 1414              		.loc 1 1023 0 discriminator 3
 1415 0488 5CF8184C 		ldr	r4, [ip, #-24]	@ float
 1416              	.LVL275:
1024:.\DSP\Source\TransformFunctions/arm_cfft_f32.c ****       twI = tw4[1];
1025:.\DSP\Source\TransformFunctions/arm_cfft_f32.c ****       tw4 += twMod4;
1026:.\DSP\Source\TransformFunctions/arm_cfft_f32.c ****       /* Top */
1027:.\DSP\Source\TransformFunctions/arm_cfft_f32.c ****       m0 = t4[0] * twR;
 1417              		.loc 1 1027 0 discriminator 3
 1418 048c 1998     		ldr	r0, [sp, #100]	@ float
 1419 048e 2146     		mov	r1, r4
1024:.\DSP\Source\TransformFunctions/arm_cfft_f32.c ****       twI = tw4[1];
 1420              		.loc 1 1024 0 discriminator 3
 1421 0490 5CF8145C 		ldr	r5, [ip, #-20]	@ float
 1422 0494 CDF84CC0 		str	ip, [sp, #76]
 1423              	.LVL276:
 1424              		.loc 1 1027 0 discriminator 3
 1425 0498 FFF7FEFF 		bl	__aeabi_fmul
 1426              	.LVL277:
1028:.\DSP\Source\TransformFunctions/arm_cfft_f32.c ****       m1 = t4[1] * twI;
 1427              		.loc 1 1028 0 discriminator 3
 1428 049c 2946     		mov	r1, r5
1027:.\DSP\Source\TransformFunctions/arm_cfft_f32.c ****       m1 = t4[1] * twI;
 1429              		.loc 1 1027 0 discriminator 3
 1430 049e 0746     		mov	r7, r0
 1431              		.loc 1 1028 0 discriminator 3
ARM GAS  C:\Users\IVYLIU~1\AppData\Local\Temp\ccWLNWQl.s 			page 47


 1432 04a0 1498     		ldr	r0, [sp, #80]	@ float
 1433 04a2 FFF7FEFF 		bl	__aeabi_fmul
 1434              	.LVL278:
 1435 04a6 0146     		mov	r1, r0
1029:.\DSP\Source\TransformFunctions/arm_cfft_f32.c ****       m2 = t4[1] * twR;
1030:.\DSP\Source\TransformFunctions/arm_cfft_f32.c ****       m3 = t4[0] * twI;
1031:.\DSP\Source\TransformFunctions/arm_cfft_f32.c **** 
1032:.\DSP\Source\TransformFunctions/arm_cfft_f32.c ****       *p4++ = m0 + m1;
 1436              		.loc 1 1032 0 discriminator 3
 1437 04a8 3846     		mov	r0, r7
 1438 04aa FFF7FEFF 		bl	__aeabi_fadd
 1439              	.LVL279:
 1440 04ae 059B     		ldr	r3, [sp, #20]
1029:.\DSP\Source\TransformFunctions/arm_cfft_f32.c ****       m2 = t4[1] * twR;
 1441              		.loc 1 1029 0 discriminator 3
 1442 04b0 2146     		mov	r1, r4
 1443              		.loc 1 1032 0 discriminator 3
 1444 04b2 43F8080C 		str	r0, [r3, #-8]	@ float
1029:.\DSP\Source\TransformFunctions/arm_cfft_f32.c ****       m2 = t4[1] * twR;
 1445              		.loc 1 1029 0 discriminator 3
 1446 04b6 1498     		ldr	r0, [sp, #80]	@ float
 1447 04b8 FFF7FEFF 		bl	__aeabi_fmul
 1448              	.LVL280:
1030:.\DSP\Source\TransformFunctions/arm_cfft_f32.c **** 
 1449              		.loc 1 1030 0 discriminator 3
 1450 04bc 2946     		mov	r1, r5
1029:.\DSP\Source\TransformFunctions/arm_cfft_f32.c ****       m2 = t4[1] * twR;
 1451              		.loc 1 1029 0 discriminator 3
 1452 04be 0746     		mov	r7, r0
1030:.\DSP\Source\TransformFunctions/arm_cfft_f32.c **** 
 1453              		.loc 1 1030 0 discriminator 3
 1454 04c0 1998     		ldr	r0, [sp, #100]	@ float
 1455 04c2 FFF7FEFF 		bl	__aeabi_fmul
 1456              	.LVL281:
 1457 04c6 0146     		mov	r1, r0
1033:.\DSP\Source\TransformFunctions/arm_cfft_f32.c ****       *p4++ = m2 - m3;
 1458              		.loc 1 1033 0 discriminator 3
 1459 04c8 3846     		mov	r0, r7
 1460 04ca FFF7FEFF 		bl	__aeabi_fsub
 1461              	.LVL282:
 1462 04ce 059B     		ldr	r3, [sp, #20]
1034:.\DSP\Source\TransformFunctions/arm_cfft_f32.c ****       /* use vertical symmetry col 4 */
1035:.\DSP\Source\TransformFunctions/arm_cfft_f32.c ****       /* 0.9973 - 0.0736i  <==>  -0.0736 + 0.9973i */
1036:.\DSP\Source\TransformFunctions/arm_cfft_f32.c ****       /* Bottom */
1037:.\DSP\Source\TransformFunctions/arm_cfft_f32.c ****       m0 = t4[3] * twI;
 1463              		.loc 1 1037 0 discriminator 3
 1464 04d0 2946     		mov	r1, r5
1033:.\DSP\Source\TransformFunctions/arm_cfft_f32.c ****       *p4++ = m2 - m3;
 1465              		.loc 1 1033 0 discriminator 3
 1466 04d2 43F8040C 		str	r0, [r3, #-4]	@ float
 1467              	.LVL283:
 1468              		.loc 1 1037 0 discriminator 3
 1469 04d6 3046     		mov	r0, r6
 1470 04d8 FFF7FEFF 		bl	__aeabi_fmul
 1471              	.LVL284:
1038:.\DSP\Source\TransformFunctions/arm_cfft_f32.c ****       m1 = t4[2] * twR;
 1472              		.loc 1 1038 0 discriminator 3
ARM GAS  C:\Users\IVYLIU~1\AppData\Local\Temp\ccWLNWQl.s 			page 48


 1473 04dc 2146     		mov	r1, r4
1037:.\DSP\Source\TransformFunctions/arm_cfft_f32.c ****       m1 = t4[2] * twR;
 1474              		.loc 1 1037 0 discriminator 3
 1475 04de 0746     		mov	r7, r0
 1476              		.loc 1 1038 0 discriminator 3
 1477 04e0 5846     		mov	r0, fp
 1478 04e2 FFF7FEFF 		bl	__aeabi_fmul
 1479              	.LVL285:
 1480 04e6 0146     		mov	r1, r0
1039:.\DSP\Source\TransformFunctions/arm_cfft_f32.c ****       m2 = t4[2] * twI;
1040:.\DSP\Source\TransformFunctions/arm_cfft_f32.c ****       m3 = t4[3] * twR;
1041:.\DSP\Source\TransformFunctions/arm_cfft_f32.c **** 
1042:.\DSP\Source\TransformFunctions/arm_cfft_f32.c ****       *pEnd4-- = m0 - m1;
 1481              		.loc 1 1042 0 discriminator 3
 1482 04e8 3846     		mov	r0, r7
 1483 04ea FFF7FEFF 		bl	__aeabi_fsub
 1484              	.LVL286:
 1485 04ee 079B     		ldr	r3, [sp, #28]
1039:.\DSP\Source\TransformFunctions/arm_cfft_f32.c ****       m2 = t4[2] * twI;
 1486              		.loc 1 1039 0 discriminator 3
 1487 04f0 2946     		mov	r1, r5
 1488              		.loc 1 1042 0 discriminator 3
 1489 04f2 9860     		str	r0, [r3, #8]	@ float
1039:.\DSP\Source\TransformFunctions/arm_cfft_f32.c ****       m2 = t4[2] * twI;
 1490              		.loc 1 1039 0 discriminator 3
 1491 04f4 5846     		mov	r0, fp
 1492 04f6 FFF7FEFF 		bl	__aeabi_fmul
 1493              	.LVL287:
1040:.\DSP\Source\TransformFunctions/arm_cfft_f32.c **** 
 1494              		.loc 1 1040 0 discriminator 3
 1495 04fa 2146     		mov	r1, r4
1039:.\DSP\Source\TransformFunctions/arm_cfft_f32.c ****       m2 = t4[2] * twI;
 1496              		.loc 1 1039 0 discriminator 3
 1497 04fc 0546     		mov	r5, r0
 1498              	.LVL288:
1040:.\DSP\Source\TransformFunctions/arm_cfft_f32.c **** 
 1499              		.loc 1 1040 0 discriminator 3
 1500 04fe 3046     		mov	r0, r6
 1501 0500 FFF7FEFF 		bl	__aeabi_fmul
 1502              	.LVL289:
 1503 0504 0146     		mov	r1, r0
1043:.\DSP\Source\TransformFunctions/arm_cfft_f32.c ****       *pEnd4-- = m2 + m3;
 1504              		.loc 1 1043 0 discriminator 3
 1505 0506 2846     		mov	r0, r5
 1506 0508 FFF7FEFF 		bl	__aeabi_fadd
 1507              	.LVL290:
 1508 050c 079B     		ldr	r3, [sp, #28]
 1509 050e DDF84CC0 		ldr	ip, [sp, #76]
 1510 0512 5860     		str	r0, [r3, #4]	@ float
 1511              	.LVL291:
 1512 0514 27E6     		b	.L7
 1513              	.LVL292:
 1514              	.L9:
 1515 0516 099A     		ldr	r2, [sp, #36]
 1516 0518 4FEACA03 		lsl	r3, r10, #3
 1517              	.LVL293:
 1518 051c 1A44     		add	r2, r2, r3
ARM GAS  C:\Users\IVYLIU~1\AppData\Local\Temp\ccWLNWQl.s 			page 49


 1519 051e 0199     		ldr	r1, [sp, #4]
 1520 0520 0692     		str	r2, [sp, #24]
 1521 0522 03F10802 		add	r2, r3, #8
 1522 0526 1144     		add	r1, r1, r2
 1523 0528 1A92     		str	r2, [sp, #104]
 1524 052a 4FEA0A1C 		lsl	ip, r10, #4
 1525              	.LVL294:
 1526 052e 019A     		ldr	r2, [sp, #4]
 1527 0530 0CF1100C 		add	ip, ip, #16
 1528 0534 6244     		add	r2, r2, ip
 1529 0536 1891     		str	r1, [sp, #96]
 1530 0538 1821     		movs	r1, #24
 1531 053a 1792     		str	r2, [sp, #92]
 1532 053c 01FB0AF2 		mul	r2, r1, r10
 1533 0540 0792     		str	r2, [sp, #28]
 1534 0542 0799     		ldr	r1, [sp, #28]
 1535 0544 119A     		ldr	r2, [sp, #68]
 1536 0546 CDF864C0 		str	ip, [sp, #100]
 1537 054a 0A44     		add	r2, r2, r1
 1538 054c 1692     		str	r2, [sp, #88]
 1539 054e 0E9A     		ldr	r2, [sp, #56]
 1540 0550 D718     		adds	r7, r2, r3
 1541 0552 0F9A     		ldr	r2, [sp, #60]
 1542 0554 1A44     		add	r2, r2, r3
 1543 0556 0592     		str	r2, [sp, #20]
 1544 0558 109A     		ldr	r2, [sp, #64]
 1545 055a 02EB0309 		add	r9, r2, r3
1044:.\DSP\Source\TransformFunctions/arm_cfft_f32.c ****     }
1045:.\DSP\Source\TransformFunctions/arm_cfft_f32.c **** 
1046:.\DSP\Source\TransformFunctions/arm_cfft_f32.c ****     /* MIDDLE */
1047:.\DSP\Source\TransformFunctions/arm_cfft_f32.c ****     /* Twiddle factors are */
1048:.\DSP\Source\TransformFunctions/arm_cfft_f32.c ****     /*  1.0000  0.7071-0.7071i  -1.0000i  -0.7071-0.7071i */
1049:.\DSP\Source\TransformFunctions/arm_cfft_f32.c ****     p1ap3_0 = p1[0] + p3[0];
 1546              		.loc 1 1049 0
 1547 055e 099B     		ldr	r3, [sp, #36]
 1548 0560 53F83A50 		ldr	r5, [r3, r10, lsl #3]	@ float
 1549 0564 0F9B     		ldr	r3, [sp, #60]
 1550 0566 2846     		mov	r0, r5
 1551 0568 53F83A40 		ldr	r4, [r3, r10, lsl #3]	@ float
 1552 056c 2146     		mov	r1, r4
 1553 056e FFF7FEFF 		bl	__aeabi_fadd
 1554              	.LVL295:
1050:.\DSP\Source\TransformFunctions/arm_cfft_f32.c ****     p1sp3_0 = p1[0] - p3[0];
 1555              		.loc 1 1050 0
 1556 0572 2146     		mov	r1, r4
1049:.\DSP\Source\TransformFunctions/arm_cfft_f32.c ****     p1sp3_0 = p1[0] - p3[0];
 1557              		.loc 1 1049 0
 1558 0574 0890     		str	r0, [sp, #32]	@ float
 1559              	.LVL296:
 1560              		.loc 1 1050 0
 1561 0576 2846     		mov	r0, r5
 1562              	.LVL297:
 1563 0578 FFF7FEFF 		bl	__aeabi_fsub
 1564              	.LVL298:
1051:.\DSP\Source\TransformFunctions/arm_cfft_f32.c ****     p1ap3_1 = p1[1] + p3[1];
 1565              		.loc 1 1051 0
 1566 057c 069B     		ldr	r3, [sp, #24]
ARM GAS  C:\Users\IVYLIU~1\AppData\Local\Temp\ccWLNWQl.s 			page 50


1050:.\DSP\Source\TransformFunctions/arm_cfft_f32.c ****     p1sp3_0 = p1[0] - p3[0];
 1567              		.loc 1 1050 0
 1568 057e 8346     		mov	fp, r0
 1569              	.LVL299:
 1570              		.loc 1 1051 0
 1571 0580 5D68     		ldr	r5, [r3, #4]	@ float
 1572 0582 059B     		ldr	r3, [sp, #20]
 1573 0584 2846     		mov	r0, r5
 1574              	.LVL300:
 1575 0586 5C68     		ldr	r4, [r3, #4]	@ float
 1576 0588 2146     		mov	r1, r4
 1577 058a FFF7FEFF 		bl	__aeabi_fadd
 1578              	.LVL301:
1052:.\DSP\Source\TransformFunctions/arm_cfft_f32.c ****     p1sp3_1 = p1[1] - p3[1];
 1579              		.loc 1 1052 0
 1580 058e 2146     		mov	r1, r4
1051:.\DSP\Source\TransformFunctions/arm_cfft_f32.c ****     p1ap3_1 = p1[1] + p3[1];
 1581              		.loc 1 1051 0
 1582 0590 0A90     		str	r0, [sp, #40]	@ float
 1583              	.LVL302:
 1584              		.loc 1 1052 0
 1585 0592 2846     		mov	r0, r5
 1586              	.LVL303:
 1587 0594 FFF7FEFF 		bl	__aeabi_fsub
 1588              	.LVL304:
1053:.\DSP\Source\TransformFunctions/arm_cfft_f32.c **** 
1054:.\DSP\Source\TransformFunctions/arm_cfft_f32.c ****     /* col 2 */
1055:.\DSP\Source\TransformFunctions/arm_cfft_f32.c ****     t2[0] = p1sp3_0 + p2[1] - p4[1];
 1589              		.loc 1 1055 0
 1590 0598 D7F80480 		ldr	r8, [r7, #4]	@ float
 1591 059c D9F80460 		ldr	r6, [r9, #4]	@ float
1052:.\DSP\Source\TransformFunctions/arm_cfft_f32.c ****     p1sp3_1 = p1[1] - p3[1];
 1592              		.loc 1 1052 0
 1593 05a0 0B90     		str	r0, [sp, #44]	@ float
 1594              	.LVL305:
 1595              		.loc 1 1055 0
 1596 05a2 4146     		mov	r1, r8
 1597 05a4 5846     		mov	r0, fp
 1598              	.LVL306:
 1599 05a6 FFF7FEFF 		bl	__aeabi_fadd
 1600              	.LVL307:
 1601 05aa 3146     		mov	r1, r6
 1602 05ac FFF7FEFF 		bl	__aeabi_fsub
 1603              	.LVL308:
1056:.\DSP\Source\TransformFunctions/arm_cfft_f32.c ****     t2[1] = p1sp3_1 - p2[0] + p4[0];
 1604              		.loc 1 1056 0
 1605 05b0 0E9B     		ldr	r3, [sp, #56]
1055:.\DSP\Source\TransformFunctions/arm_cfft_f32.c ****     t2[1] = p1sp3_1 - p2[0] + p4[0];
 1606              		.loc 1 1055 0
 1607 05b2 0C90     		str	r0, [sp, #48]	@ float
 1608              	.LVL309:
 1609              		.loc 1 1056 0
 1610 05b4 53F83A50 		ldr	r5, [r3, r10, lsl #3]	@ float
 1611 05b8 109B     		ldr	r3, [sp, #64]
 1612 05ba 0B98     		ldr	r0, [sp, #44]	@ float
 1613              	.LVL310:
 1614 05bc 53F83A40 		ldr	r4, [r3, r10, lsl #3]	@ float
ARM GAS  C:\Users\IVYLIU~1\AppData\Local\Temp\ccWLNWQl.s 			page 51


 1615 05c0 2946     		mov	r1, r5
 1616 05c2 FFF7FEFF 		bl	__aeabi_fsub
 1617              	.LVL311:
 1618 05c6 2146     		mov	r1, r4
 1619 05c8 FFF7FEFF 		bl	__aeabi_fadd
 1620              	.LVL312:
1057:.\DSP\Source\TransformFunctions/arm_cfft_f32.c ****     /* col 3 */
1058:.\DSP\Source\TransformFunctions/arm_cfft_f32.c ****     t3[0] = p1ap3_0 - p2[0] - p4[0];
 1621              		.loc 1 1058 0
 1622 05cc 2946     		mov	r1, r5
1056:.\DSP\Source\TransformFunctions/arm_cfft_f32.c ****     /* col 3 */
 1623              		.loc 1 1056 0
 1624 05ce 1390     		str	r0, [sp, #76]	@ float
 1625              	.LVL313:
 1626              		.loc 1 1058 0
 1627 05d0 0898     		ldr	r0, [sp, #32]	@ float
 1628              	.LVL314:
 1629 05d2 FFF7FEFF 		bl	__aeabi_fsub
 1630              	.LVL315:
 1631 05d6 2146     		mov	r1, r4
 1632 05d8 FFF7FEFF 		bl	__aeabi_fsub
 1633              	.LVL316:
1059:.\DSP\Source\TransformFunctions/arm_cfft_f32.c ****     t3[1] = p1ap3_1 - p2[1] - p4[1];
 1634              		.loc 1 1059 0
 1635 05dc 4146     		mov	r1, r8
1058:.\DSP\Source\TransformFunctions/arm_cfft_f32.c ****     t3[1] = p1ap3_1 - p2[1] - p4[1];
 1636              		.loc 1 1058 0
 1637 05de 1490     		str	r0, [sp, #80]	@ float
 1638              	.LVL317:
 1639              		.loc 1 1059 0
 1640 05e0 0A98     		ldr	r0, [sp, #40]	@ float
 1641              	.LVL318:
 1642 05e2 FFF7FEFF 		bl	__aeabi_fsub
 1643              	.LVL319:
 1644 05e6 3146     		mov	r1, r6
 1645 05e8 FFF7FEFF 		bl	__aeabi_fsub
 1646              	.LVL320:
1060:.\DSP\Source\TransformFunctions/arm_cfft_f32.c ****     /* col 4 */
1061:.\DSP\Source\TransformFunctions/arm_cfft_f32.c ****     t4[0] = p1sp3_0 - p2[1] + p4[1];
 1647              		.loc 1 1061 0
 1648 05ec 4146     		mov	r1, r8
1059:.\DSP\Source\TransformFunctions/arm_cfft_f32.c ****     /* col 4 */
 1649              		.loc 1 1059 0
 1650 05ee 1590     		str	r0, [sp, #84]	@ float
 1651              	.LVL321:
 1652              		.loc 1 1061 0
 1653 05f0 5846     		mov	r0, fp
 1654              	.LVL322:
 1655 05f2 FFF7FEFF 		bl	__aeabi_fsub
 1656              	.LVL323:
 1657 05f6 3146     		mov	r1, r6
 1658 05f8 FFF7FEFF 		bl	__aeabi_fadd
 1659              	.LVL324:
1062:.\DSP\Source\TransformFunctions/arm_cfft_f32.c ****     t4[1] = p1sp3_1 + p2[0] - p4[0];
 1660              		.loc 1 1062 0
 1661 05fc 2946     		mov	r1, r5
1061:.\DSP\Source\TransformFunctions/arm_cfft_f32.c ****     t4[1] = p1sp3_1 + p2[0] - p4[0];
ARM GAS  C:\Users\IVYLIU~1\AppData\Local\Temp\ccWLNWQl.s 			page 52


 1662              		.loc 1 1061 0
 1663 05fe 8346     		mov	fp, r0
 1664              	.LVL325:
 1665              		.loc 1 1062 0
 1666 0600 0B98     		ldr	r0, [sp, #44]	@ float
 1667              	.LVL326:
 1668 0602 FFF7FEFF 		bl	__aeabi_fadd
 1669              	.LVL327:
 1670 0606 2146     		mov	r1, r4
 1671 0608 FFF7FEFF 		bl	__aeabi_fsub
 1672              	.LVL328:
1063:.\DSP\Source\TransformFunctions/arm_cfft_f32.c ****     /* col 1 - Top */
1064:.\DSP\Source\TransformFunctions/arm_cfft_f32.c ****     *p1++ = p1ap3_0 + p2[0] + p4[0];
 1673              		.loc 1 1064 0
 1674 060c 2946     		mov	r1, r5
1062:.\DSP\Source\TransformFunctions/arm_cfft_f32.c ****     /* col 1 - Top */
 1675              		.loc 1 1062 0
 1676 060e 0646     		mov	r6, r0
 1677              	.LVL329:
 1678              		.loc 1 1064 0
 1679 0610 0898     		ldr	r0, [sp, #32]	@ float
 1680              	.LVL330:
 1681 0612 FFF7FEFF 		bl	__aeabi_fadd
 1682              	.LVL331:
 1683 0616 2146     		mov	r1, r4
 1684 0618 FFF7FEFF 		bl	__aeabi_fadd
 1685              	.LVL332:
 1686 061c 099B     		ldr	r3, [sp, #36]
 1687 061e 43F83A00 		str	r0, [r3, r10, lsl #3]	@ float
 1688              	.LVL333:
1065:.\DSP\Source\TransformFunctions/arm_cfft_f32.c ****     *p1++ = p1ap3_1 + p2[1] + p4[1];
 1689              		.loc 1 1065 0
 1690 0622 7968     		ldr	r1, [r7, #4]	@ float
 1691 0624 0A98     		ldr	r0, [sp, #40]	@ float
 1692 0626 FFF7FEFF 		bl	__aeabi_fadd
 1693              	.LVL334:
 1694 062a D9F80410 		ldr	r1, [r9, #4]	@ float
 1695 062e FFF7FEFF 		bl	__aeabi_fadd
 1696              	.LVL335:
 1697 0632 069B     		ldr	r3, [sp, #24]
1066:.\DSP\Source\TransformFunctions/arm_cfft_f32.c **** 
1067:.\DSP\Source\TransformFunctions/arm_cfft_f32.c ****     /* COL 2 */
1068:.\DSP\Source\TransformFunctions/arm_cfft_f32.c ****     twR = tw2[0];
 1698              		.loc 1 1068 0
 1699 0634 1A9A     		ldr	r2, [sp, #104]
1065:.\DSP\Source\TransformFunctions/arm_cfft_f32.c ****     *p1++ = p1ap3_1 + p2[1] + p4[1];
 1700              		.loc 1 1065 0
 1701 0636 5860     		str	r0, [r3, #4]	@ float
 1702              		.loc 1 1068 0
 1703 0638 019B     		ldr	r3, [sp, #4]
1069:.\DSP\Source\TransformFunctions/arm_cfft_f32.c ****     twI = tw2[1];
1070:.\DSP\Source\TransformFunctions/arm_cfft_f32.c **** 
1071:.\DSP\Source\TransformFunctions/arm_cfft_f32.c ****     m0 = t2[0] * twR;
 1704              		.loc 1 1071 0
 1705 063a 0C98     		ldr	r0, [sp, #48]	@ float
1068:.\DSP\Source\TransformFunctions/arm_cfft_f32.c ****     twI = tw2[1];
 1706              		.loc 1 1068 0
ARM GAS  C:\Users\IVYLIU~1\AppData\Local\Temp\ccWLNWQl.s 			page 53


 1707 063c 9D58     		ldr	r5, [r3, r2]	@ float
 1708              	.LVL336:
1069:.\DSP\Source\TransformFunctions/arm_cfft_f32.c ****     twI = tw2[1];
 1709              		.loc 1 1069 0
 1710 063e 189B     		ldr	r3, [sp, #96]
 1711              		.loc 1 1071 0
 1712 0640 2946     		mov	r1, r5
1069:.\DSP\Source\TransformFunctions/arm_cfft_f32.c ****     twI = tw2[1];
 1713              		.loc 1 1069 0
 1714 0642 5C68     		ldr	r4, [r3, #4]	@ float
 1715              	.LVL337:
 1716              		.loc 1 1071 0
 1717 0644 FFF7FEFF 		bl	__aeabi_fmul
 1718              	.LVL338:
1072:.\DSP\Source\TransformFunctions/arm_cfft_f32.c ****     m1 = t2[1] * twI;
 1719              		.loc 1 1072 0
 1720 0648 2146     		mov	r1, r4
1071:.\DSP\Source\TransformFunctions/arm_cfft_f32.c ****     m1 = t2[1] * twI;
 1721              		.loc 1 1071 0
 1722 064a 8046     		mov	r8, r0
 1723              		.loc 1 1072 0
 1724 064c 1398     		ldr	r0, [sp, #76]	@ float
 1725 064e FFF7FEFF 		bl	__aeabi_fmul
 1726              	.LVL339:
 1727 0652 0146     		mov	r1, r0
1073:.\DSP\Source\TransformFunctions/arm_cfft_f32.c ****     m2 = t2[1] * twR;
1074:.\DSP\Source\TransformFunctions/arm_cfft_f32.c ****     m3 = t2[0] * twI;
1075:.\DSP\Source\TransformFunctions/arm_cfft_f32.c **** 
1076:.\DSP\Source\TransformFunctions/arm_cfft_f32.c ****     *p2++ = m0 + m1;
 1728              		.loc 1 1076 0
 1729 0654 4046     		mov	r0, r8
 1730 0656 FFF7FEFF 		bl	__aeabi_fadd
 1731              	.LVL340:
 1732 065a 0E9B     		ldr	r3, [sp, #56]
1073:.\DSP\Source\TransformFunctions/arm_cfft_f32.c ****     m2 = t2[1] * twR;
 1733              		.loc 1 1073 0
 1734 065c 2946     		mov	r1, r5
 1735              		.loc 1 1076 0
 1736 065e 43F83A00 		str	r0, [r3, r10, lsl #3]	@ float
 1737              	.LVL341:
1073:.\DSP\Source\TransformFunctions/arm_cfft_f32.c ****     m2 = t2[1] * twR;
 1738              		.loc 1 1073 0
 1739 0662 1398     		ldr	r0, [sp, #76]	@ float
 1740 0664 FFF7FEFF 		bl	__aeabi_fmul
 1741              	.LVL342:
1074:.\DSP\Source\TransformFunctions/arm_cfft_f32.c **** 
 1742              		.loc 1 1074 0
 1743 0668 2146     		mov	r1, r4
1073:.\DSP\Source\TransformFunctions/arm_cfft_f32.c ****     m2 = t2[1] * twR;
 1744              		.loc 1 1073 0
 1745 066a 0546     		mov	r5, r0
 1746              	.LVL343:
1074:.\DSP\Source\TransformFunctions/arm_cfft_f32.c **** 
 1747              		.loc 1 1074 0
 1748 066c 0C98     		ldr	r0, [sp, #48]	@ float
 1749 066e FFF7FEFF 		bl	__aeabi_fmul
 1750              	.LVL344:
ARM GAS  C:\Users\IVYLIU~1\AppData\Local\Temp\ccWLNWQl.s 			page 54


 1751 0672 0146     		mov	r1, r0
1077:.\DSP\Source\TransformFunctions/arm_cfft_f32.c ****     *p2++ = m2 - m3;
 1752              		.loc 1 1077 0
 1753 0674 2846     		mov	r0, r5
 1754 0676 FFF7FEFF 		bl	__aeabi_fsub
 1755              	.LVL345:
1078:.\DSP\Source\TransformFunctions/arm_cfft_f32.c ****     /* COL 3 */
1079:.\DSP\Source\TransformFunctions/arm_cfft_f32.c ****     twR = tw3[0];
 1756              		.loc 1 1079 0
 1757 067a DDF864C0 		ldr	ip, [sp, #100]
 1758 067e 019B     		ldr	r3, [sp, #4]
1077:.\DSP\Source\TransformFunctions/arm_cfft_f32.c ****     *p2++ = m2 - m3;
 1759              		.loc 1 1077 0
 1760 0680 7860     		str	r0, [r7, #4]	@ float
 1761              		.loc 1 1079 0
 1762 0682 53F80C50 		ldr	r5, [r3, ip]	@ float
 1763              	.LVL346:
1080:.\DSP\Source\TransformFunctions/arm_cfft_f32.c ****     twI = tw3[1];
 1764              		.loc 1 1080 0
 1765 0686 179B     		ldr	r3, [sp, #92]
1081:.\DSP\Source\TransformFunctions/arm_cfft_f32.c **** 
1082:.\DSP\Source\TransformFunctions/arm_cfft_f32.c ****     m0 = t3[0] * twR;
 1766              		.loc 1 1082 0
 1767 0688 1498     		ldr	r0, [sp, #80]	@ float
 1768 068a 2946     		mov	r1, r5
1080:.\DSP\Source\TransformFunctions/arm_cfft_f32.c ****     twI = tw3[1];
 1769              		.loc 1 1080 0
 1770 068c 5C68     		ldr	r4, [r3, #4]	@ float
 1771              	.LVL347:
 1772              		.loc 1 1082 0
 1773 068e FFF7FEFF 		bl	__aeabi_fmul
 1774              	.LVL348:
1083:.\DSP\Source\TransformFunctions/arm_cfft_f32.c ****     m1 = t3[1] * twI;
 1775              		.loc 1 1083 0
 1776 0692 2146     		mov	r1, r4
1082:.\DSP\Source\TransformFunctions/arm_cfft_f32.c ****     m1 = t3[1] * twI;
 1777              		.loc 1 1082 0
 1778 0694 0746     		mov	r7, r0
 1779              	.LVL349:
 1780              		.loc 1 1083 0
 1781 0696 1598     		ldr	r0, [sp, #84]	@ float
 1782 0698 FFF7FEFF 		bl	__aeabi_fmul
 1783              	.LVL350:
 1784 069c 0146     		mov	r1, r0
1084:.\DSP\Source\TransformFunctions/arm_cfft_f32.c ****     m2 = t3[1] * twR;
1085:.\DSP\Source\TransformFunctions/arm_cfft_f32.c ****     m3 = t3[0] * twI;
1086:.\DSP\Source\TransformFunctions/arm_cfft_f32.c **** 
1087:.\DSP\Source\TransformFunctions/arm_cfft_f32.c ****     *p3++ = m0 + m1;
 1785              		.loc 1 1087 0
 1786 069e 3846     		mov	r0, r7
 1787 06a0 FFF7FEFF 		bl	__aeabi_fadd
 1788              	.LVL351:
 1789 06a4 0F9B     		ldr	r3, [sp, #60]
1084:.\DSP\Source\TransformFunctions/arm_cfft_f32.c ****     m2 = t3[1] * twR;
 1790              		.loc 1 1084 0
 1791 06a6 2946     		mov	r1, r5
 1792              		.loc 1 1087 0
ARM GAS  C:\Users\IVYLIU~1\AppData\Local\Temp\ccWLNWQl.s 			page 55


 1793 06a8 43F83A00 		str	r0, [r3, r10, lsl #3]	@ float
 1794              	.LVL352:
1084:.\DSP\Source\TransformFunctions/arm_cfft_f32.c ****     m2 = t3[1] * twR;
 1795              		.loc 1 1084 0
 1796 06ac 1598     		ldr	r0, [sp, #84]	@ float
 1797 06ae FFF7FEFF 		bl	__aeabi_fmul
 1798              	.LVL353:
1085:.\DSP\Source\TransformFunctions/arm_cfft_f32.c **** 
 1799              		.loc 1 1085 0
 1800 06b2 2146     		mov	r1, r4
1084:.\DSP\Source\TransformFunctions/arm_cfft_f32.c ****     m2 = t3[1] * twR;
 1801              		.loc 1 1084 0
 1802 06b4 0546     		mov	r5, r0
 1803              	.LVL354:
1085:.\DSP\Source\TransformFunctions/arm_cfft_f32.c **** 
 1804              		.loc 1 1085 0
 1805 06b6 1498     		ldr	r0, [sp, #80]	@ float
 1806 06b8 FFF7FEFF 		bl	__aeabi_fmul
 1807              	.LVL355:
 1808 06bc 0146     		mov	r1, r0
1088:.\DSP\Source\TransformFunctions/arm_cfft_f32.c ****     *p3++ = m2 - m3;
 1809              		.loc 1 1088 0
 1810 06be 2846     		mov	r0, r5
 1811 06c0 FFF7FEFF 		bl	__aeabi_fsub
 1812              	.LVL356:
 1813 06c4 059B     		ldr	r3, [sp, #20]
1089:.\DSP\Source\TransformFunctions/arm_cfft_f32.c ****     /* COL 4 */
1090:.\DSP\Source\TransformFunctions/arm_cfft_f32.c ****     twR = tw4[0];
 1814              		.loc 1 1090 0
 1815 06c6 079A     		ldr	r2, [sp, #28]
1088:.\DSP\Source\TransformFunctions/arm_cfft_f32.c ****     *p3++ = m2 - m3;
 1816              		.loc 1 1088 0
 1817 06c8 5860     		str	r0, [r3, #4]	@ float
 1818              		.loc 1 1090 0
 1819 06ca 119B     		ldr	r3, [sp, #68]
1091:.\DSP\Source\TransformFunctions/arm_cfft_f32.c ****     twI = tw4[1];
1092:.\DSP\Source\TransformFunctions/arm_cfft_f32.c **** 
1093:.\DSP\Source\TransformFunctions/arm_cfft_f32.c ****     m0 = t4[0] * twR;
 1820              		.loc 1 1093 0
 1821 06cc 5846     		mov	r0, fp
1090:.\DSP\Source\TransformFunctions/arm_cfft_f32.c ****     twI = tw4[1];
 1822              		.loc 1 1090 0
 1823 06ce 9D58     		ldr	r5, [r3, r2]	@ float
 1824              	.LVL357:
1091:.\DSP\Source\TransformFunctions/arm_cfft_f32.c ****     twI = tw4[1];
 1825              		.loc 1 1091 0
 1826 06d0 169B     		ldr	r3, [sp, #88]
 1827              		.loc 1 1093 0
 1828 06d2 2946     		mov	r1, r5
1091:.\DSP\Source\TransformFunctions/arm_cfft_f32.c ****     twI = tw4[1];
 1829              		.loc 1 1091 0
 1830 06d4 5C68     		ldr	r4, [r3, #4]	@ float
 1831              	.LVL358:
 1832              		.loc 1 1093 0
 1833 06d6 FFF7FEFF 		bl	__aeabi_fmul
 1834              	.LVL359:
1094:.\DSP\Source\TransformFunctions/arm_cfft_f32.c ****     m1 = t4[1] * twI;
ARM GAS  C:\Users\IVYLIU~1\AppData\Local\Temp\ccWLNWQl.s 			page 56


 1835              		.loc 1 1094 0
 1836 06da 2146     		mov	r1, r4
1093:.\DSP\Source\TransformFunctions/arm_cfft_f32.c ****     m1 = t4[1] * twI;
 1837              		.loc 1 1093 0
 1838 06dc 0746     		mov	r7, r0
 1839              		.loc 1 1094 0
 1840 06de 3046     		mov	r0, r6
 1841 06e0 FFF7FEFF 		bl	__aeabi_fmul
 1842              	.LVL360:
 1843 06e4 0146     		mov	r1, r0
1095:.\DSP\Source\TransformFunctions/arm_cfft_f32.c ****     m2 = t4[1] * twR;
1096:.\DSP\Source\TransformFunctions/arm_cfft_f32.c ****     m3 = t4[0] * twI;
1097:.\DSP\Source\TransformFunctions/arm_cfft_f32.c **** 
1098:.\DSP\Source\TransformFunctions/arm_cfft_f32.c ****     *p4++ = m0 + m1;
 1844              		.loc 1 1098 0
 1845 06e6 3846     		mov	r0, r7
 1846 06e8 FFF7FEFF 		bl	__aeabi_fadd
 1847              	.LVL361:
 1848 06ec 109B     		ldr	r3, [sp, #64]
1095:.\DSP\Source\TransformFunctions/arm_cfft_f32.c ****     m2 = t4[1] * twR;
 1849              		.loc 1 1095 0
 1850 06ee 2946     		mov	r1, r5
 1851              		.loc 1 1098 0
 1852 06f0 43F83A00 		str	r0, [r3, r10, lsl #3]	@ float
 1853              	.LVL362:
1095:.\DSP\Source\TransformFunctions/arm_cfft_f32.c ****     m2 = t4[1] * twR;
 1854              		.loc 1 1095 0
 1855 06f4 3046     		mov	r0, r6
 1856 06f6 FFF7FEFF 		bl	__aeabi_fmul
 1857              	.LVL363:
1096:.\DSP\Source\TransformFunctions/arm_cfft_f32.c **** 
 1858              		.loc 1 1096 0
 1859 06fa 2146     		mov	r1, r4
1095:.\DSP\Source\TransformFunctions/arm_cfft_f32.c ****     m2 = t4[1] * twR;
 1860              		.loc 1 1095 0
 1861 06fc 0546     		mov	r5, r0
 1862              	.LVL364:
1096:.\DSP\Source\TransformFunctions/arm_cfft_f32.c **** 
 1863              		.loc 1 1096 0
 1864 06fe 5846     		mov	r0, fp
 1865 0700 FFF7FEFF 		bl	__aeabi_fmul
 1866              	.LVL365:
 1867 0704 0146     		mov	r1, r0
1099:.\DSP\Source\TransformFunctions/arm_cfft_f32.c ****     *p4++ = m2 - m3;
 1868              		.loc 1 1099 0
 1869 0706 2846     		mov	r0, r5
 1870 0708 FFF7FEFF 		bl	__aeabi_fsub
 1871              	.LVL366:
 1872 070c C9F80400 		str	r0, [r9, #4]	@ float
1100:.\DSP\Source\TransformFunctions/arm_cfft_f32.c **** 
1101:.\DSP\Source\TransformFunctions/arm_cfft_f32.c ****     /* first col */
1102:.\DSP\Source\TransformFunctions/arm_cfft_f32.c ****     arm_radix8_butterfly_f32 (pCol1, L, (float32_t *) S->pTwiddle, 4U);
 1873              		.loc 1 1102 0
 1874 0710 BDF84840 		ldrh	r4, [sp, #72]
 1875              	.LVL367:
 1876 0714 0498     		ldr	r0, [sp, #16]
 1877 0716 2146     		mov	r1, r4
ARM GAS  C:\Users\IVYLIU~1\AppData\Local\Temp\ccWLNWQl.s 			page 57


 1878 0718 019A     		ldr	r2, [sp, #4]
 1879 071a 0423     		movs	r3, #4
 1880 071c FFF7FEFF 		bl	arm_radix8_butterfly_f32
 1881              	.LVL368:
1103:.\DSP\Source\TransformFunctions/arm_cfft_f32.c **** 
1104:.\DSP\Source\TransformFunctions/arm_cfft_f32.c ****     /* second col */
1105:.\DSP\Source\TransformFunctions/arm_cfft_f32.c ****     arm_radix8_butterfly_f32 (pCol2, L, (float32_t *) S->pTwiddle, 4U);
 1882              		.loc 1 1105 0
 1883 0720 0D9B     		ldr	r3, [sp, #52]
 1884 0722 0098     		ldr	r0, [sp]
 1885 0724 2146     		mov	r1, r4
 1886 0726 5A68     		ldr	r2, [r3, #4]
 1887 0728 0423     		movs	r3, #4
 1888 072a FFF7FEFF 		bl	arm_radix8_butterfly_f32
 1889              	.LVL369:
1106:.\DSP\Source\TransformFunctions/arm_cfft_f32.c **** 
1107:.\DSP\Source\TransformFunctions/arm_cfft_f32.c ****     /* third col */
1108:.\DSP\Source\TransformFunctions/arm_cfft_f32.c ****     arm_radix8_butterfly_f32 (pCol3, L, (float32_t *) S->pTwiddle, 4U);
 1890              		.loc 1 1108 0
 1891 072e 0D9B     		ldr	r3, [sp, #52]
 1892 0730 0398     		ldr	r0, [sp, #12]
 1893 0732 2146     		mov	r1, r4
 1894 0734 5A68     		ldr	r2, [r3, #4]
 1895 0736 0423     		movs	r3, #4
 1896 0738 FFF7FEFF 		bl	arm_radix8_butterfly_f32
 1897              	.LVL370:
1109:.\DSP\Source\TransformFunctions/arm_cfft_f32.c **** 
1110:.\DSP\Source\TransformFunctions/arm_cfft_f32.c ****     /* fourth col */
1111:.\DSP\Source\TransformFunctions/arm_cfft_f32.c ****     arm_radix8_butterfly_f32 (pCol4, L, (float32_t *) S->pTwiddle, 4U);
 1898              		.loc 1 1111 0
 1899 073c 2146     		mov	r1, r4
 1900 073e 0D9B     		ldr	r3, [sp, #52]
 1901 0740 0298     		ldr	r0, [sp, #8]
 1902 0742 5A68     		ldr	r2, [r3, #4]
 1903 0744 0423     		movs	r3, #4
1112:.\DSP\Source\TransformFunctions/arm_cfft_f32.c **** }
 1904              		.loc 1 1112 0
 1905 0746 25B0     		add	sp, sp, #148
 1906              		.cfi_def_cfa_offset 36
 1907              	.LVL371:
 1908              		@ sp needed
 1909 0748 BDE8F04F 		pop	{r4, r5, r6, r7, r8, r9, r10, fp, lr}
 1910              		.cfi_restore 14
 1911              		.cfi_restore 11
 1912              		.cfi_restore 10
 1913              		.cfi_restore 9
 1914              		.cfi_restore 8
 1915              		.cfi_restore 7
 1916              		.cfi_restore 6
 1917              		.cfi_restore 5
 1918              		.cfi_restore 4
 1919              		.cfi_def_cfa_offset 0
 1920              	.LVL372:
1111:.\DSP\Source\TransformFunctions/arm_cfft_f32.c **** }
 1921              		.loc 1 1111 0
 1922 074c FFF7FEBF 		b	arm_radix8_butterfly_f32
 1923              	.LVL373:
ARM GAS  C:\Users\IVYLIU~1\AppData\Local\Temp\ccWLNWQl.s 			page 58


 1924              		.cfi_endproc
 1925              	.LFE85:
 1926              		.size	arm_cfft_radix8by4_f32, .-arm_cfft_radix8by4_f32
 1927              		.global	__aeabi_ui2f
 1928              		.global	__aeabi_fdiv
 1929              		.section	.text.arm_cfft_f32,"ax",%progbits
 1930              		.align	1
 1931              		.global	arm_cfft_f32
 1932              		.thumb
 1933              		.thumb_func
 1934              		.type	arm_cfft_f32, %function
 1935              	arm_cfft_f32:
 1936              	.LFB86:
1113:.\DSP\Source\TransformFunctions/arm_cfft_f32.c **** 
1114:.\DSP\Source\TransformFunctions/arm_cfft_f32.c **** /**
1115:.\DSP\Source\TransformFunctions/arm_cfft_f32.c ****   @addtogroup ComplexFFT
1116:.\DSP\Source\TransformFunctions/arm_cfft_f32.c ****   @{
1117:.\DSP\Source\TransformFunctions/arm_cfft_f32.c ****  */
1118:.\DSP\Source\TransformFunctions/arm_cfft_f32.c **** 
1119:.\DSP\Source\TransformFunctions/arm_cfft_f32.c **** /**
1120:.\DSP\Source\TransformFunctions/arm_cfft_f32.c ****   @brief         Processing function for the floating-point complex FFT.
1121:.\DSP\Source\TransformFunctions/arm_cfft_f32.c ****   @param[in]     S              points to an instance of the floating-point CFFT structure
1122:.\DSP\Source\TransformFunctions/arm_cfft_f32.c ****   @param[in,out] p1             points to the complex data buffer of size <code>2*fftLen</code>. Pr
1123:.\DSP\Source\TransformFunctions/arm_cfft_f32.c ****   @param[in]     ifftFlag       flag that selects transform direction
1124:.\DSP\Source\TransformFunctions/arm_cfft_f32.c ****                    - value = 0: forward transform
1125:.\DSP\Source\TransformFunctions/arm_cfft_f32.c ****                    - value = 1: inverse transform
1126:.\DSP\Source\TransformFunctions/arm_cfft_f32.c ****   @param[in]     bitReverseFlag flag that enables / disables bit reversal of output
1127:.\DSP\Source\TransformFunctions/arm_cfft_f32.c ****                    - value = 0: disables bit reversal of output
1128:.\DSP\Source\TransformFunctions/arm_cfft_f32.c ****                    - value = 1: enables bit reversal of output
1129:.\DSP\Source\TransformFunctions/arm_cfft_f32.c ****   @return        none
1130:.\DSP\Source\TransformFunctions/arm_cfft_f32.c ****  */
1131:.\DSP\Source\TransformFunctions/arm_cfft_f32.c **** 
1132:.\DSP\Source\TransformFunctions/arm_cfft_f32.c **** void arm_cfft_f32(
1133:.\DSP\Source\TransformFunctions/arm_cfft_f32.c ****   const arm_cfft_instance_f32 * S,
1134:.\DSP\Source\TransformFunctions/arm_cfft_f32.c ****         float32_t * p1,
1135:.\DSP\Source\TransformFunctions/arm_cfft_f32.c ****         uint8_t ifftFlag,
1136:.\DSP\Source\TransformFunctions/arm_cfft_f32.c ****         uint8_t bitReverseFlag)
1137:.\DSP\Source\TransformFunctions/arm_cfft_f32.c **** {
 1937              		.loc 1 1137 0
 1938              		.cfi_startproc
 1939              		@ args = 0, pretend = 0, frame = 0
 1940              		@ frame_needed = 0, uses_anonymous_args = 0
 1941              	.LVL374:
1138:.\DSP\Source\TransformFunctions/arm_cfft_f32.c ****   uint32_t  L = S->fftLen, l;
1139:.\DSP\Source\TransformFunctions/arm_cfft_f32.c ****   float32_t invL, * pSrc;
1140:.\DSP\Source\TransformFunctions/arm_cfft_f32.c **** 
1141:.\DSP\Source\TransformFunctions/arm_cfft_f32.c ****   if (ifftFlag == 1U)
 1942              		.loc 1 1141 0
 1943 0000 012A     		cmp	r2, #1
1137:.\DSP\Source\TransformFunctions/arm_cfft_f32.c ****   uint32_t  L = S->fftLen, l;
 1944              		.loc 1 1137 0
 1945 0002 2DE9F041 		push	{r4, r5, r6, r7, r8, lr}
 1946              		.cfi_def_cfa_offset 24
 1947              		.cfi_offset 4, -24
 1948              		.cfi_offset 5, -20
 1949              		.cfi_offset 6, -16
 1950              		.cfi_offset 7, -12
ARM GAS  C:\Users\IVYLIU~1\AppData\Local\Temp\ccWLNWQl.s 			page 59


 1951              		.cfi_offset 8, -8
 1952              		.cfi_offset 14, -4
1137:.\DSP\Source\TransformFunctions/arm_cfft_f32.c ****   uint32_t  L = S->fftLen, l;
 1953              		.loc 1 1137 0
 1954 0006 0646     		mov	r6, r0
 1955 0008 0D46     		mov	r5, r1
 1956 000a 1746     		mov	r7, r2
 1957 000c 9846     		mov	r8, r3
1138:.\DSP\Source\TransformFunctions/arm_cfft_f32.c ****   uint32_t  L = S->fftLen, l;
 1958              		.loc 1 1138 0
 1959 000e 0488     		ldrh	r4, [r0]
 1960              	.LVL375:
 1961              		.loc 1 1141 0
 1962 0010 1BD0     		beq	.L11
 1963              	.LVL376:
 1964              	.L21:
1142:.\DSP\Source\TransformFunctions/arm_cfft_f32.c ****   {
1143:.\DSP\Source\TransformFunctions/arm_cfft_f32.c ****     /* Conjugate input data */
1144:.\DSP\Source\TransformFunctions/arm_cfft_f32.c ****     pSrc = p1 + 1;
1145:.\DSP\Source\TransformFunctions/arm_cfft_f32.c ****     for (l = 0; l < L; l++)
1146:.\DSP\Source\TransformFunctions/arm_cfft_f32.c ****     {
1147:.\DSP\Source\TransformFunctions/arm_cfft_f32.c ****       *pSrc = -*pSrc;
1148:.\DSP\Source\TransformFunctions/arm_cfft_f32.c ****       pSrc += 2;
1149:.\DSP\Source\TransformFunctions/arm_cfft_f32.c ****     }
1150:.\DSP\Source\TransformFunctions/arm_cfft_f32.c ****   }
1151:.\DSP\Source\TransformFunctions/arm_cfft_f32.c **** 
1152:.\DSP\Source\TransformFunctions/arm_cfft_f32.c ****   switch (L)
 1965              		.loc 1 1152 0
 1966 0012 B4F5807F 		cmp	r4, #256
 1967 0016 2BD0     		beq	.L13
 1968 0018 09D8     		bhi	.L14
 1969 001a 202C     		cmp	r4, #32
 1970 001c 28D0     		beq	.L13
 1971 001e 01D8     		bhi	.L15
 1972 0020 102C     		cmp	r4, #16
 1973 0022 02E0     		b	.L57
 1974              	.L15:
 1975 0024 402C     		cmp	r4, #64
 1976 0026 28D0     		beq	.L17
 1977 0028 802C     		cmp	r4, #128
 1978              	.L57:
 1979 002a 1CD0     		beq	.L16
 1980 002c 2BE0     		b	.L12
 1981              	.L14:
 1982 002e B4F5806F 		cmp	r4, #1024
 1983 0032 18D0     		beq	.L16
 1984 0034 02D8     		bhi	.L18
 1985 0036 B4F5007F 		cmp	r4, #512
 1986 003a 04E0     		b	.L58
 1987              	.L18:
 1988 003c B4F5006F 		cmp	r4, #2048
 1989 0040 16D0     		beq	.L13
 1990 0042 B4F5805F 		cmp	r4, #4096
 1991              	.L58:
 1992 0046 18D0     		beq	.L17
 1993 0048 1DE0     		b	.L12
 1994              	.LVL377:
ARM GAS  C:\Users\IVYLIU~1\AppData\Local\Temp\ccWLNWQl.s 			page 60


 1995              	.L11:
1144:.\DSP\Source\TransformFunctions/arm_cfft_f32.c ****     for (l = 0; l < L; l++)
 1996              		.loc 1 1144 0
 1997 004a 0B1D     		adds	r3, r1, #4
 1998              	.LVL378:
1145:.\DSP\Source\TransformFunctions/arm_cfft_f32.c ****     {
 1999              		.loc 1 1145 0
 2000 004c 0022     		movs	r2, #0
 2001              	.LVL379:
 2002              	.L19:
1145:.\DSP\Source\TransformFunctions/arm_cfft_f32.c ****     {
 2003              		.loc 1 1145 0 is_stmt 0 discriminator 1
 2004 004e A242     		cmp	r2, r4
 2005 0050 03F10803 		add	r3, r3, #8
 2006              	.LVL380:
 2007 0054 DDD2     		bcs	.L21
1147:.\DSP\Source\TransformFunctions/arm_cfft_f32.c ****       pSrc += 2;
 2008              		.loc 1 1147 0 is_stmt 1 discriminator 3
 2009 0056 53F8081C 		ldr	r1, [r3, #-8]
1145:.\DSP\Source\TransformFunctions/arm_cfft_f32.c ****     {
 2010              		.loc 1 1145 0 discriminator 3
 2011 005a 0132     		adds	r2, r2, #1
 2012              	.LVL381:
1147:.\DSP\Source\TransformFunctions/arm_cfft_f32.c ****       pSrc += 2;
 2013              		.loc 1 1147 0 discriminator 3
 2014 005c 01F10041 		add	r1, r1, #-2147483648
 2015 0060 43F8081C 		str	r1, [r3, #-8]	@ float
 2016              	.LVL382:
 2017 0064 F3E7     		b	.L19
 2018              	.LVL383:
 2019              	.L16:
1153:.\DSP\Source\TransformFunctions/arm_cfft_f32.c ****   {
1154:.\DSP\Source\TransformFunctions/arm_cfft_f32.c ****   case 16:
1155:.\DSP\Source\TransformFunctions/arm_cfft_f32.c ****   case 128:
1156:.\DSP\Source\TransformFunctions/arm_cfft_f32.c ****   case 1024:
1157:.\DSP\Source\TransformFunctions/arm_cfft_f32.c ****     arm_cfft_radix8by2_f32 ( (arm_cfft_instance_f32 *) S, p1);
 2020              		.loc 1 1157 0
 2021 0066 3046     		mov	r0, r6
 2022              	.LVL384:
 2023 0068 2946     		mov	r1, r5
 2024 006a FFF7FEFF 		bl	arm_cfft_radix8by2_f32
 2025              	.LVL385:
1158:.\DSP\Source\TransformFunctions/arm_cfft_f32.c ****     break;
 2026              		.loc 1 1158 0
 2027 006e 0AE0     		b	.L12
 2028              	.LVL386:
 2029              	.L13:
1159:.\DSP\Source\TransformFunctions/arm_cfft_f32.c ****   case 32:
1160:.\DSP\Source\TransformFunctions/arm_cfft_f32.c ****   case 256:
1161:.\DSP\Source\TransformFunctions/arm_cfft_f32.c ****   case 2048:
1162:.\DSP\Source\TransformFunctions/arm_cfft_f32.c ****     arm_cfft_radix8by4_f32 ( (arm_cfft_instance_f32 *) S, p1);
 2030              		.loc 1 1162 0
 2031 0070 3046     		mov	r0, r6
 2032              	.LVL387:
 2033 0072 2946     		mov	r1, r5
 2034 0074 FFF7FEFF 		bl	arm_cfft_radix8by4_f32
 2035              	.LVL388:
ARM GAS  C:\Users\IVYLIU~1\AppData\Local\Temp\ccWLNWQl.s 			page 61


1163:.\DSP\Source\TransformFunctions/arm_cfft_f32.c ****     break;
 2036              		.loc 1 1163 0
 2037 0078 05E0     		b	.L12
 2038              	.LVL389:
 2039              	.L17:
1164:.\DSP\Source\TransformFunctions/arm_cfft_f32.c ****   case 64:
1165:.\DSP\Source\TransformFunctions/arm_cfft_f32.c ****   case 512:
1166:.\DSP\Source\TransformFunctions/arm_cfft_f32.c ****   case 4096:
1167:.\DSP\Source\TransformFunctions/arm_cfft_f32.c ****     arm_radix8_butterfly_f32 ( p1, L, (float32_t *) S->pTwiddle, 1);
 2040              		.loc 1 1167 0
 2041 007a 2846     		mov	r0, r5
 2042              	.LVL390:
 2043 007c 2146     		mov	r1, r4
 2044 007e 7268     		ldr	r2, [r6, #4]
 2045 0080 0123     		movs	r3, #1
 2046 0082 FFF7FEFF 		bl	arm_radix8_butterfly_f32
 2047              	.LVL391:
 2048              	.L12:
1168:.\DSP\Source\TransformFunctions/arm_cfft_f32.c ****     break;
1169:.\DSP\Source\TransformFunctions/arm_cfft_f32.c ****   }
1170:.\DSP\Source\TransformFunctions/arm_cfft_f32.c **** 
1171:.\DSP\Source\TransformFunctions/arm_cfft_f32.c ****   if ( bitReverseFlag )
 2049              		.loc 1 1171 0
 2050 0086 B8F1000F 		cmp	r8, #0
 2051 008a 04D0     		beq	.L22
1172:.\DSP\Source\TransformFunctions/arm_cfft_f32.c ****     arm_bitreversal_32 ((uint32_t*) p1, S->bitRevLength, S->pBitRevTable);
 2052              		.loc 1 1172 0
 2053 008c 2846     		mov	r0, r5
 2054 008e B189     		ldrh	r1, [r6, #12]
 2055 0090 B268     		ldr	r2, [r6, #8]
 2056 0092 FFF7FEFF 		bl	arm_bitreversal_32
 2057              	.LVL392:
 2058              	.L22:
1173:.\DSP\Source\TransformFunctions/arm_cfft_f32.c **** 
1174:.\DSP\Source\TransformFunctions/arm_cfft_f32.c ****   if (ifftFlag == 1U)
 2059              		.loc 1 1174 0
 2060 0096 012F     		cmp	r7, #1
 2061 0098 1FD1     		bne	.L10
1175:.\DSP\Source\TransformFunctions/arm_cfft_f32.c ****   {
1176:.\DSP\Source\TransformFunctions/arm_cfft_f32.c ****     invL = 1.0f / (float32_t)L;
 2062              		.loc 1 1176 0
 2063 009a 2046     		mov	r0, r4
 2064 009c FFF7FEFF 		bl	__aeabi_ui2f
 2065              	.LVL393:
 2066 00a0 0146     		mov	r1, r0
 2067 00a2 4FF07E50 		mov	r0, #1065353216
 2068 00a6 FFF7FEFF 		bl	__aeabi_fdiv
 2069              	.LVL394:
 2070 00aa 0746     		mov	r7, r0
 2071              	.LVL395:
1177:.\DSP\Source\TransformFunctions/arm_cfft_f32.c **** 
1178:.\DSP\Source\TransformFunctions/arm_cfft_f32.c ****     /* Conjugate and scale output data */
1179:.\DSP\Source\TransformFunctions/arm_cfft_f32.c ****     pSrc = p1;
1180:.\DSP\Source\TransformFunctions/arm_cfft_f32.c ****     for (l= 0; l < L; l++)
 2072              		.loc 1 1180 0
 2073 00ac 0026     		movs	r6, #0
 2074              	.LVL396:
ARM GAS  C:\Users\IVYLIU~1\AppData\Local\Temp\ccWLNWQl.s 			page 62


 2075              	.L24:
 2076              		.loc 1 1180 0 is_stmt 0 discriminator 1
 2077 00ae A642     		cmp	r6, r4
 2078 00b0 05F10805 		add	r5, r5, #8
 2079              	.LVL397:
 2080 00b4 11D2     		bcs	.L10
 2081              	.LVL398:
1181:.\DSP\Source\TransformFunctions/arm_cfft_f32.c ****     {
1182:.\DSP\Source\TransformFunctions/arm_cfft_f32.c ****       *pSrc++ *=   invL ;
 2082              		.loc 1 1182 0 is_stmt 1 discriminator 3
 2083 00b6 55F8080C 		ldr	r0, [r5, #-8]	@ float
 2084 00ba 3946     		mov	r1, r7
 2085 00bc FFF7FEFF 		bl	__aeabi_fmul
 2086              	.LVL399:
 2087 00c0 45F8080C 		str	r0, [r5, #-8]	@ float
1183:.\DSP\Source\TransformFunctions/arm_cfft_f32.c ****       *pSrc    = -(*pSrc) * invL;
 2088              		.loc 1 1183 0 discriminator 3
 2089 00c4 55F8040C 		ldr	r0, [r5, #-4]
 2090 00c8 3946     		mov	r1, r7
 2091 00ca 00F10040 		add	r0, r0, #-2147483648
 2092 00ce FFF7FEFF 		bl	__aeabi_fmul
 2093              	.LVL400:
1180:.\DSP\Source\TransformFunctions/arm_cfft_f32.c ****     {
 2094              		.loc 1 1180 0 discriminator 3
 2095 00d2 0136     		adds	r6, r6, #1
 2096              	.LVL401:
 2097              		.loc 1 1183 0 discriminator 3
 2098 00d4 45F8040C 		str	r0, [r5, #-4]	@ float
 2099              	.LVL402:
 2100 00d8 E9E7     		b	.L24
 2101              	.LVL403:
 2102              	.L10:
 2103 00da BDE8F081 		pop	{r4, r5, r6, r7, r8, pc}
 2104              		.cfi_endproc
 2105              	.LFE86:
 2106              		.size	arm_cfft_f32, .-arm_cfft_f32
 2107              		.text
 2108              	.Letext0:
 2109              		.file 2 "c:\\program files (x86)\\cypress\\psoc creator\\3.3\\psoc creator\\import\\gnu\\arm\\4.9.
 2110              		.file 3 "c:\\program files (x86)\\cypress\\psoc creator\\3.3\\psoc creator\\import\\gnu\\arm\\4.9.
 2111              		.file 4 ".\\DSP\\Include/arm_math_types.h"
 2112              		.file 5 ".\\DSP\\Include/dsp/transform_functions.h"
 2113              		.file 6 ".\\Core\\Include/cmsis_gcc.h"