ARM GAS  C:\Users\IVYLIU~1\AppData\Local\Temp\ccrTdl4b.s 			page 1


   1              		.syntax unified
   2              		.cpu cortex-m3
   3              		.fpu softvfp
   4              		.eabi_attribute 20, 1
   5              		.eabi_attribute 21, 1
   6              		.eabi_attribute 23, 3
   7              		.eabi_attribute 24, 1
   8              		.eabi_attribute 25, 1
   9              		.eabi_attribute 26, 1
  10              		.eabi_attribute 30, 4
  11              		.eabi_attribute 34, 1
  12              		.eabi_attribute 18, 4
  13              		.thumb
  14              		.file	"arm_bitreversal2.c"
  15              		.text
  16              	.Ltext0:
  17              		.cfi_sections	.debug_frame
  18              		.section	.text.arm_bitreversal_64,"ax",%progbits
  19              		.align	1
  20              		.global	arm_bitreversal_64
  21              		.thumb
  22              		.thumb_func
  23              		.type	arm_bitreversal_64, %function
  24              	arm_bitreversal_64:
  25              	.LFB84:
  26              		.file 1 ".\\DSP\\Source\\TransformFunctions\\arm_bitreversal2.c"
   1:.\DSP\Source\TransformFunctions/arm_bitreversal2.c **** /* ----------------------------------------------------------------------
   2:.\DSP\Source\TransformFunctions/arm_bitreversal2.c ****  * Project:      CMSIS DSP Library
   3:.\DSP\Source\TransformFunctions/arm_bitreversal2.c ****  * Title:        arm_bitreversal2.c
   4:.\DSP\Source\TransformFunctions/arm_bitreversal2.c ****  * Description:  Bitreversal functions
   5:.\DSP\Source\TransformFunctions/arm_bitreversal2.c ****  *
   6:.\DSP\Source\TransformFunctions/arm_bitreversal2.c ****  * $Date:        23 April 2021
   7:.\DSP\Source\TransformFunctions/arm_bitreversal2.c ****  * $Revision:    V1.9.0
   8:.\DSP\Source\TransformFunctions/arm_bitreversal2.c ****  *
   9:.\DSP\Source\TransformFunctions/arm_bitreversal2.c ****  * Target Processor: Cortex-M and Cortex-A cores
  10:.\DSP\Source\TransformFunctions/arm_bitreversal2.c ****  * -------------------------------------------------------------------- */
  11:.\DSP\Source\TransformFunctions/arm_bitreversal2.c **** /*
  12:.\DSP\Source\TransformFunctions/arm_bitreversal2.c ****  * Copyright (C) 2019 ARM Limited or its affiliates. All rights reserved.
  13:.\DSP\Source\TransformFunctions/arm_bitreversal2.c ****  *
  14:.\DSP\Source\TransformFunctions/arm_bitreversal2.c ****  * SPDX-License-Identifier: Apache-2.0
  15:.\DSP\Source\TransformFunctions/arm_bitreversal2.c ****  *
  16:.\DSP\Source\TransformFunctions/arm_bitreversal2.c ****  * Licensed under the Apache License, Version 2.0 (the License); you may
  17:.\DSP\Source\TransformFunctions/arm_bitreversal2.c ****  * not use this file except in compliance with the License.
  18:.\DSP\Source\TransformFunctions/arm_bitreversal2.c ****  * You may obtain a copy of the License at
  19:.\DSP\Source\TransformFunctions/arm_bitreversal2.c ****  *
  20:.\DSP\Source\TransformFunctions/arm_bitreversal2.c ****  * www.apache.org/licenses/LICENSE-2.0
  21:.\DSP\Source\TransformFunctions/arm_bitreversal2.c ****  *
  22:.\DSP\Source\TransformFunctions/arm_bitreversal2.c ****  * Unless required by applicable law or agreed to in writing, software
  23:.\DSP\Source\TransformFunctions/arm_bitreversal2.c ****  * distributed under the License is distributed on an AS IS BASIS, WITHOUT
  24:.\DSP\Source\TransformFunctions/arm_bitreversal2.c ****  * WARRANTIES OR CONDITIONS OF ANY KIND, either express or implied.
  25:.\DSP\Source\TransformFunctions/arm_bitreversal2.c ****  * See the License for the specific language governing permissions and
  26:.\DSP\Source\TransformFunctions/arm_bitreversal2.c ****  * limitations under the License.
  27:.\DSP\Source\TransformFunctions/arm_bitreversal2.c ****  */
  28:.\DSP\Source\TransformFunctions/arm_bitreversal2.c **** 
  29:.\DSP\Source\TransformFunctions/arm_bitreversal2.c **** #include "dsp/transform_functions.h"
  30:.\DSP\Source\TransformFunctions/arm_bitreversal2.c **** #include "arm_common_tables.h"
  31:.\DSP\Source\TransformFunctions/arm_bitreversal2.c **** 
ARM GAS  C:\Users\IVYLIU~1\AppData\Local\Temp\ccrTdl4b.s 			page 2


  32:.\DSP\Source\TransformFunctions/arm_bitreversal2.c **** 
  33:.\DSP\Source\TransformFunctions/arm_bitreversal2.c **** /**
  34:.\DSP\Source\TransformFunctions/arm_bitreversal2.c ****   @brief         In-place 64 bit reversal function.
  35:.\DSP\Source\TransformFunctions/arm_bitreversal2.c ****   @param[in,out] pSrc        points to in-place buffer of unknown 64-bit data type
  36:.\DSP\Source\TransformFunctions/arm_bitreversal2.c ****   @param[in]     bitRevLen   bit reversal table length
  37:.\DSP\Source\TransformFunctions/arm_bitreversal2.c ****   @param[in]     pBitRevTab  points to bit reversal table
  38:.\DSP\Source\TransformFunctions/arm_bitreversal2.c ****   @return        none
  39:.\DSP\Source\TransformFunctions/arm_bitreversal2.c **** */
  40:.\DSP\Source\TransformFunctions/arm_bitreversal2.c **** 
  41:.\DSP\Source\TransformFunctions/arm_bitreversal2.c **** void arm_bitreversal_64(
  42:.\DSP\Source\TransformFunctions/arm_bitreversal2.c ****         uint64_t *pSrc,
  43:.\DSP\Source\TransformFunctions/arm_bitreversal2.c ****   const uint16_t bitRevLen,
  44:.\DSP\Source\TransformFunctions/arm_bitreversal2.c ****   const uint16_t *pBitRevTab)
  45:.\DSP\Source\TransformFunctions/arm_bitreversal2.c **** {
  27              		.loc 1 45 0
  28              		.cfi_startproc
  29              		@ args = 0, pretend = 0, frame = 0
  30              		@ frame_needed = 0, uses_anonymous_args = 0
  31              	.LVL0:
  32 0000 2DE9F047 		push	{r4, r5, r6, r7, r8, r9, r10, lr}
  33              		.cfi_def_cfa_offset 32
  34              		.cfi_offset 4, -32
  35              		.cfi_offset 5, -28
  36              		.cfi_offset 6, -24
  37              		.cfi_offset 7, -20
  38              		.cfi_offset 8, -16
  39              		.cfi_offset 9, -12
  40              		.cfi_offset 10, -8
  41              		.cfi_offset 14, -4
  46:.\DSP\Source\TransformFunctions/arm_bitreversal2.c ****   uint64_t a, b, i, tmp;
  47:.\DSP\Source\TransformFunctions/arm_bitreversal2.c **** 
  48:.\DSP\Source\TransformFunctions/arm_bitreversal2.c ****   for (i = 0; i < bitRevLen; )
  42              		.loc 1 48 0
  43 0004 0024     		movs	r4, #0
  44 0006 0025     		movs	r5, #0
  45              	.LVL1:
  46              	.L2:
  47              		.loc 1 48 0 is_stmt 0 discriminator 1
  48 0008 0027     		movs	r7, #0
  49 000a BD42     		cmp	r5, r7
  50 000c 08BF     		it	eq
  51 000e 8C42     		cmpeq	r4, r1
  52 0010 27D2     		bcs	.L5
  53              	.LVL2:
  54 0012 02EB4403 		add	r3, r2, r4, lsl #1
  49:.\DSP\Source\TransformFunctions/arm_bitreversal2.c ****   {
  50:.\DSP\Source\TransformFunctions/arm_bitreversal2.c ****      a = pBitRevTab[i    ] >> 2;
  55              		.loc 1 50 0 is_stmt 1
  56 0016 32F814E0 		ldrh	lr, [r2, r4, lsl #1]
  51:.\DSP\Source\TransformFunctions/arm_bitreversal2.c ****      b = pBitRevTab[i + 1] >> 2;
  57              		.loc 1 51 0
  58 001a 5B88     		ldrh	r3, [r3, #2]
  52:.\DSP\Source\TransformFunctions/arm_bitreversal2.c **** 
  53:.\DSP\Source\TransformFunctions/arm_bitreversal2.c ****      //real
  54:.\DSP\Source\TransformFunctions/arm_bitreversal2.c ****      tmp = pSrc[a];
  59              		.loc 1 54 0
  60 001c 4FEA9E0E 		lsr	lr, lr, #2
ARM GAS  C:\Users\IVYLIU~1\AppData\Local\Temp\ccrTdl4b.s 			page 3


  55:.\DSP\Source\TransformFunctions/arm_bitreversal2.c ****      pSrc[a] = pSrc[b];
  61              		.loc 1 55 0
  62 0020 9B08     		lsrs	r3, r3, #2
  54:.\DSP\Source\TransformFunctions/arm_bitreversal2.c ****      pSrc[a] = pSrc[b];
  63              		.loc 1 54 0
  64 0022 4FEACE0E 		lsl	lr, lr, #3
  65              		.loc 1 55 0
  66 0026 DB00     		lsls	r3, r3, #3
  54:.\DSP\Source\TransformFunctions/arm_bitreversal2.c ****      pSrc[a] = pSrc[b];
  67              		.loc 1 54 0
  68 0028 00EB0E0C 		add	ip, r0, lr
  69              		.loc 1 55 0
  70 002c 00EB030A 		add	r10, r0, r3
  54:.\DSP\Source\TransformFunctions/arm_bitreversal2.c ****      pSrc[a] = pSrc[b];
  71              		.loc 1 54 0
  72 0030 DCE90089 		ldrd	r8, [ip]
  73              	.LVL3:
  74              		.loc 1 55 0
  75 0034 DAE90067 		ldrd	r6, [r10]
  76 0038 CCE90067 		strd	r6, [ip]
  77              	.LVL4:
  56:.\DSP\Source\TransformFunctions/arm_bitreversal2.c ****      pSrc[b] = tmp;
  78              		.loc 1 56 0
  79 003c CAE90089 		strd	r8, [r10]
  57:.\DSP\Source\TransformFunctions/arm_bitreversal2.c **** 
  58:.\DSP\Source\TransformFunctions/arm_bitreversal2.c ****      //complex
  59:.\DSP\Source\TransformFunctions/arm_bitreversal2.c ****      tmp = pSrc[a+1];
  80              		.loc 1 59 0
  81 0040 0EF1080E 		add	lr, lr, #8
  60:.\DSP\Source\TransformFunctions/arm_bitreversal2.c ****      pSrc[a+1] = pSrc[b+1];
  82              		.loc 1 60 0
  83 0044 0833     		adds	r3, r3, #8
  59:.\DSP\Source\TransformFunctions/arm_bitreversal2.c ****      pSrc[a+1] = pSrc[b+1];
  84              		.loc 1 59 0
  85 0046 8644     		add	lr, lr, r0
  86              		.loc 1 60 0
  87 0048 0344     		add	r3, r3, r0
  61:.\DSP\Source\TransformFunctions/arm_bitreversal2.c ****      pSrc[b+1] = tmp;
  62:.\DSP\Source\TransformFunctions/arm_bitreversal2.c **** 
  63:.\DSP\Source\TransformFunctions/arm_bitreversal2.c ****     i += 2;
  88              		.loc 1 63 0
  89 004a 0234     		adds	r4, r4, #2
  90              	.LVL5:
  59:.\DSP\Source\TransformFunctions/arm_bitreversal2.c ****      pSrc[a+1] = pSrc[b+1];
  91              		.loc 1 59 0
  92 004c DEE90089 		ldrd	r8, [lr]
  93              	.LVL6:
  60:.\DSP\Source\TransformFunctions/arm_bitreversal2.c ****      pSrc[b+1] = tmp;
  94              		.loc 1 60 0
  95 0050 D3E90067 		ldrd	r6, [r3]
  96              		.loc 1 63 0
  97 0054 45F10005 		adc	r5, r5, #0
  98              	.LVL7:
  60:.\DSP\Source\TransformFunctions/arm_bitreversal2.c ****      pSrc[b+1] = tmp;
  99              		.loc 1 60 0
 100 0058 CEE90067 		strd	r6, [lr]
  61:.\DSP\Source\TransformFunctions/arm_bitreversal2.c ****      pSrc[b+1] = tmp;
ARM GAS  C:\Users\IVYLIU~1\AppData\Local\Temp\ccrTdl4b.s 			page 4


 101              		.loc 1 61 0
 102 005c C3E90089 		strd	r8, [r3]
 103 0060 D2E7     		b	.L2
 104              	.LVL8:
 105              	.L5:
  64:.\DSP\Source\TransformFunctions/arm_bitreversal2.c ****   }
  65:.\DSP\Source\TransformFunctions/arm_bitreversal2.c **** }
 106              		.loc 1 65 0
 107 0062 BDE8F087 		pop	{r4, r5, r6, r7, r8, r9, r10, pc}
 108              		.cfi_endproc
 109              	.LFE84:
 110              		.size	arm_bitreversal_64, .-arm_bitreversal_64
 111              		.section	.text.arm_bitreversal_32,"ax",%progbits
 112              		.align	1
 113              		.global	arm_bitreversal_32
 114              		.thumb
 115              		.thumb_func
 116              		.type	arm_bitreversal_32, %function
 117              	arm_bitreversal_32:
 118              	.LFB85:
  66:.\DSP\Source\TransformFunctions/arm_bitreversal2.c **** 
  67:.\DSP\Source\TransformFunctions/arm_bitreversal2.c **** /**
  68:.\DSP\Source\TransformFunctions/arm_bitreversal2.c ****   @brief         In-place 32 bit reversal function.
  69:.\DSP\Source\TransformFunctions/arm_bitreversal2.c ****   @param[in,out] pSrc        points to in-place buffer of unknown 32-bit data type
  70:.\DSP\Source\TransformFunctions/arm_bitreversal2.c ****   @param[in]     bitRevLen   bit reversal table length
  71:.\DSP\Source\TransformFunctions/arm_bitreversal2.c ****   @param[in]     pBitRevTab  points to bit reversal table
  72:.\DSP\Source\TransformFunctions/arm_bitreversal2.c ****   @return        none
  73:.\DSP\Source\TransformFunctions/arm_bitreversal2.c **** */
  74:.\DSP\Source\TransformFunctions/arm_bitreversal2.c **** 
  75:.\DSP\Source\TransformFunctions/arm_bitreversal2.c **** void arm_bitreversal_32(
  76:.\DSP\Source\TransformFunctions/arm_bitreversal2.c ****         uint32_t *pSrc,
  77:.\DSP\Source\TransformFunctions/arm_bitreversal2.c ****   const uint16_t bitRevLen,
  78:.\DSP\Source\TransformFunctions/arm_bitreversal2.c ****   const uint16_t *pBitRevTab)
  79:.\DSP\Source\TransformFunctions/arm_bitreversal2.c **** {
 119              		.loc 1 79 0
 120              		.cfi_startproc
 121              		@ args = 0, pretend = 0, frame = 0
 122              		@ frame_needed = 0, uses_anonymous_args = 0
 123              	.LVL9:
 124 0000 8C46     		mov	ip, r1
 125 0002 F0B5     		push	{r4, r5, r6, r7, lr}
 126              		.cfi_def_cfa_offset 20
 127              		.cfi_offset 4, -20
 128              		.cfi_offset 5, -16
 129              		.cfi_offset 6, -12
 130              		.cfi_offset 7, -8
 131              		.cfi_offset 14, -4
  80:.\DSP\Source\TransformFunctions/arm_bitreversal2.c ****   uint32_t a, b, i, tmp;
  81:.\DSP\Source\TransformFunctions/arm_bitreversal2.c **** 
  82:.\DSP\Source\TransformFunctions/arm_bitreversal2.c ****   for (i = 0; i < bitRevLen; )
 132              		.loc 1 82 0
 133 0004 0027     		movs	r7, #0
 134              	.LVL10:
 135              	.L7:
 136              		.loc 1 82 0 is_stmt 0 discriminator 1
 137 0006 6745     		cmp	r7, ip
 138 0008 02F10402 		add	r2, r2, #4
ARM GAS  C:\Users\IVYLIU~1\AppData\Local\Temp\ccrTdl4b.s 			page 5


 139 000c 17D2     		bcs	.L9
 140              	.LVL11:
  83:.\DSP\Source\TransformFunctions/arm_bitreversal2.c ****   {
  84:.\DSP\Source\TransformFunctions/arm_bitreversal2.c ****      a = pBitRevTab[i    ] >> 2;
 141              		.loc 1 84 0 is_stmt 1
 142 000e 32F8044C 		ldrh	r4, [r2, #-4]
  85:.\DSP\Source\TransformFunctions/arm_bitreversal2.c ****      b = pBitRevTab[i + 1] >> 2;
 143              		.loc 1 85 0
 144 0012 32F8023C 		ldrh	r3, [r2, #-2]
  84:.\DSP\Source\TransformFunctions/arm_bitreversal2.c ****      b = pBitRevTab[i + 1] >> 2;
 145              		.loc 1 84 0
 146 0016 A408     		lsrs	r4, r4, #2
 147              		.loc 1 85 0
 148 0018 9B08     		lsrs	r3, r3, #2
  86:.\DSP\Source\TransformFunctions/arm_bitreversal2.c **** 
  87:.\DSP\Source\TransformFunctions/arm_bitreversal2.c ****      //real
  88:.\DSP\Source\TransformFunctions/arm_bitreversal2.c ****      tmp = pSrc[a];
 149              		.loc 1 88 0
 150 001a 50F824E0 		ldr	lr, [r0, r4, lsl #2]
 151              	.LVL12:
  89:.\DSP\Source\TransformFunctions/arm_bitreversal2.c ****      pSrc[a] = pSrc[b];
 152              		.loc 1 89 0
 153 001e 50F82310 		ldr	r1, [r0, r3, lsl #2]
  88:.\DSP\Source\TransformFunctions/arm_bitreversal2.c ****      pSrc[a] = pSrc[b];
 154              		.loc 1 88 0
 155 0022 A600     		lsls	r6, r4, #2
 156              		.loc 1 89 0
 157 0024 9D00     		lsls	r5, r3, #2
 158 0026 40F82410 		str	r1, [r0, r4, lsl #2]
 159              	.LVL13:
  90:.\DSP\Source\TransformFunctions/arm_bitreversal2.c ****      pSrc[b] = tmp;
 160              		.loc 1 90 0
 161 002a 40F823E0 		str	lr, [r0, r3, lsl #2]
  91:.\DSP\Source\TransformFunctions/arm_bitreversal2.c **** 
  92:.\DSP\Source\TransformFunctions/arm_bitreversal2.c ****      //complex
  93:.\DSP\Source\TransformFunctions/arm_bitreversal2.c ****      tmp = pSrc[a+1];
 162              		.loc 1 93 0
 163 002e 341D     		adds	r4, r6, #4
  94:.\DSP\Source\TransformFunctions/arm_bitreversal2.c ****      pSrc[a+1] = pSrc[b+1];
 164              		.loc 1 94 0
 165 0030 2B1D     		adds	r3, r5, #4
  93:.\DSP\Source\TransformFunctions/arm_bitreversal2.c ****      pSrc[a+1] = pSrc[b+1];
 166              		.loc 1 93 0
 167 0032 0659     		ldr	r6, [r0, r4]
 168              	.LVL14:
 169              		.loc 1 94 0
 170 0034 C558     		ldr	r5, [r0, r3]
  95:.\DSP\Source\TransformFunctions/arm_bitreversal2.c ****      pSrc[b+1] = tmp;
  96:.\DSP\Source\TransformFunctions/arm_bitreversal2.c **** 
  97:.\DSP\Source\TransformFunctions/arm_bitreversal2.c ****     i += 2;
 171              		.loc 1 97 0
 172 0036 0237     		adds	r7, r7, #2
 173              	.LVL15:
  94:.\DSP\Source\TransformFunctions/arm_bitreversal2.c ****      pSrc[b+1] = tmp;
 174              		.loc 1 94 0
 175 0038 0551     		str	r5, [r0, r4]
  95:.\DSP\Source\TransformFunctions/arm_bitreversal2.c ****      pSrc[b+1] = tmp;
ARM GAS  C:\Users\IVYLIU~1\AppData\Local\Temp\ccrTdl4b.s 			page 6


 176              		.loc 1 95 0
 177 003a C650     		str	r6, [r0, r3]
 178 003c E3E7     		b	.L7
 179              	.LVL16:
 180              	.L9:
  98:.\DSP\Source\TransformFunctions/arm_bitreversal2.c ****   }
  99:.\DSP\Source\TransformFunctions/arm_bitreversal2.c **** }
 181              		.loc 1 99 0
 182 003e F0BD     		pop	{r4, r5, r6, r7, pc}
 183              		.cfi_endproc
 184              	.LFE85:
 185              		.size	arm_bitreversal_32, .-arm_bitreversal_32
 186              		.section	.text.arm_bitreversal_16,"ax",%progbits
 187              		.align	1
 188              		.global	arm_bitreversal_16
 189              		.thumb
 190              		.thumb_func
 191              		.type	arm_bitreversal_16, %function
 192              	arm_bitreversal_16:
 193              	.LFB86:
 100:.\DSP\Source\TransformFunctions/arm_bitreversal2.c **** 
 101:.\DSP\Source\TransformFunctions/arm_bitreversal2.c **** 
 102:.\DSP\Source\TransformFunctions/arm_bitreversal2.c **** /**
 103:.\DSP\Source\TransformFunctions/arm_bitreversal2.c ****   @brief         In-place 16 bit reversal function.
 104:.\DSP\Source\TransformFunctions/arm_bitreversal2.c ****   @param[in,out] pSrc        points to in-place buffer of unknown 16-bit data type
 105:.\DSP\Source\TransformFunctions/arm_bitreversal2.c ****   @param[in]     bitRevLen   bit reversal table length
 106:.\DSP\Source\TransformFunctions/arm_bitreversal2.c ****   @param[in]     pBitRevTab  points to bit reversal table
 107:.\DSP\Source\TransformFunctions/arm_bitreversal2.c ****   @return        none
 108:.\DSP\Source\TransformFunctions/arm_bitreversal2.c **** */
 109:.\DSP\Source\TransformFunctions/arm_bitreversal2.c **** 
 110:.\DSP\Source\TransformFunctions/arm_bitreversal2.c **** void arm_bitreversal_16(
 111:.\DSP\Source\TransformFunctions/arm_bitreversal2.c ****         uint16_t *pSrc,
 112:.\DSP\Source\TransformFunctions/arm_bitreversal2.c ****   const uint16_t bitRevLen,
 113:.\DSP\Source\TransformFunctions/arm_bitreversal2.c ****   const uint16_t *pBitRevTab)
 114:.\DSP\Source\TransformFunctions/arm_bitreversal2.c **** {
 194              		.loc 1 114 0
 195              		.cfi_startproc
 196              		@ args = 0, pretend = 0, frame = 0
 197              		@ frame_needed = 0, uses_anonymous_args = 0
 198              	.LVL17:
 199 0000 F0B5     		push	{r4, r5, r6, r7, lr}
 200              		.cfi_def_cfa_offset 20
 201              		.cfi_offset 4, -20
 202              		.cfi_offset 5, -16
 203              		.cfi_offset 6, -12
 204              		.cfi_offset 7, -8
 205              		.cfi_offset 14, -4
 115:.\DSP\Source\TransformFunctions/arm_bitreversal2.c ****   uint16_t a, b, i, tmp;
 116:.\DSP\Source\TransformFunctions/arm_bitreversal2.c **** 
 117:.\DSP\Source\TransformFunctions/arm_bitreversal2.c ****   for (i = 0; i < bitRevLen; )
 206              		.loc 1 117 0
 207 0002 0023     		movs	r3, #0
 208              	.LVL18:
 209              	.L11:
 210              		.loc 1 117 0 is_stmt 0 discriminator 1
 211 0004 8B42     		cmp	r3, r1
 212 0006 19D2     		bcs	.L13
ARM GAS  C:\Users\IVYLIU~1\AppData\Local\Temp\ccrTdl4b.s 			page 7


 213              	.LVL19:
 118:.\DSP\Source\TransformFunctions/arm_bitreversal2.c ****   {
 119:.\DSP\Source\TransformFunctions/arm_bitreversal2.c ****      a = pBitRevTab[i    ] >> 2;
 120:.\DSP\Source\TransformFunctions/arm_bitreversal2.c ****      b = pBitRevTab[i + 1] >> 2;
 214              		.loc 1 120 0 is_stmt 1
 215 0008 02EB4304 		add	r4, r2, r3, lsl #1
 216              	.LVL20:
 119:.\DSP\Source\TransformFunctions/arm_bitreversal2.c ****      b = pBitRevTab[i + 1] >> 2;
 217              		.loc 1 119 0
 218 000c 32F81350 		ldrh	r5, [r2, r3, lsl #1]
 219              		.loc 1 120 0
 220 0010 6488     		ldrh	r4, [r4, #2]
 221              	.LVL21:
 121:.\DSP\Source\TransformFunctions/arm_bitreversal2.c **** 
 122:.\DSP\Source\TransformFunctions/arm_bitreversal2.c ****      //real
 123:.\DSP\Source\TransformFunctions/arm_bitreversal2.c ****      tmp = pSrc[a];
 222              		.loc 1 123 0
 223 0012 AD08     		lsrs	r5, r5, #2
 124:.\DSP\Source\TransformFunctions/arm_bitreversal2.c ****      pSrc[a] = pSrc[b];
 224              		.loc 1 124 0
 225 0014 A408     		lsrs	r4, r4, #2
 123:.\DSP\Source\TransformFunctions/arm_bitreversal2.c ****      pSrc[a] = pSrc[b];
 226              		.loc 1 123 0
 227 0016 30F815E0 		ldrh	lr, [r0, r5, lsl #1]
 228              	.LVL22:
 229              		.loc 1 124 0
 230 001a 30F814C0 		ldrh	ip, [r0, r4, lsl #1]
 123:.\DSP\Source\TransformFunctions/arm_bitreversal2.c ****      pSrc[a] = pSrc[b];
 231              		.loc 1 123 0
 232 001e 6F00     		lsls	r7, r5, #1
 233              		.loc 1 124 0
 234 0020 6600     		lsls	r6, r4, #1
 235 0022 20F815C0 		strh	ip, [r0, r5, lsl #1]	@ movhi
 236              	.LVL23:
 125:.\DSP\Source\TransformFunctions/arm_bitreversal2.c ****      pSrc[b] = tmp;
 237              		.loc 1 125 0
 238 0026 20F814E0 		strh	lr, [r0, r4, lsl #1]	@ movhi
 126:.\DSP\Source\TransformFunctions/arm_bitreversal2.c **** 
 127:.\DSP\Source\TransformFunctions/arm_bitreversal2.c ****      //complex
 128:.\DSP\Source\TransformFunctions/arm_bitreversal2.c ****      tmp = pSrc[a+1];
 239              		.loc 1 128 0
 240 002a BD1C     		adds	r5, r7, #2
 129:.\DSP\Source\TransformFunctions/arm_bitreversal2.c ****      pSrc[a+1] = pSrc[b+1];
 241              		.loc 1 129 0
 242 002c B41C     		adds	r4, r6, #2
 128:.\DSP\Source\TransformFunctions/arm_bitreversal2.c ****      pSrc[a+1] = pSrc[b+1];
 243              		.loc 1 128 0
 244 002e 475B     		ldrh	r7, [r0, r5]
 245              	.LVL24:
 246              		.loc 1 129 0
 247 0030 065B     		ldrh	r6, [r0, r4]
 130:.\DSP\Source\TransformFunctions/arm_bitreversal2.c ****      pSrc[b+1] = tmp;
 131:.\DSP\Source\TransformFunctions/arm_bitreversal2.c **** 
 132:.\DSP\Source\TransformFunctions/arm_bitreversal2.c ****     i += 2;
 248              		.loc 1 132 0
 249 0032 0233     		adds	r3, r3, #2
 250              	.LVL25:
ARM GAS  C:\Users\IVYLIU~1\AppData\Local\Temp\ccrTdl4b.s 			page 8


 129:.\DSP\Source\TransformFunctions/arm_bitreversal2.c ****      pSrc[b+1] = tmp;
 251              		.loc 1 129 0
 252 0034 4653     		strh	r6, [r0, r5]	@ movhi
 253              		.loc 1 132 0
 254 0036 9BB2     		uxth	r3, r3
 255              	.LVL26:
 130:.\DSP\Source\TransformFunctions/arm_bitreversal2.c ****      pSrc[b+1] = tmp;
 256              		.loc 1 130 0
 257 0038 0753     		strh	r7, [r0, r4]	@ movhi
 258 003a E3E7     		b	.L11
 259              	.LVL27:
 260              	.L13:
 133:.\DSP\Source\TransformFunctions/arm_bitreversal2.c ****   }
 134:.\DSP\Source\TransformFunctions/arm_bitreversal2.c **** }
 261              		.loc 1 134 0
 262 003c F0BD     		pop	{r4, r5, r6, r7, pc}
 263              		.cfi_endproc
 264              	.LFE86:
 265              		.size	arm_bitreversal_16, .-arm_bitreversal_16
 266              		.text
 267              	.Letext0:
 268              		.file 2 "c:\\program files (x86)\\cypress\\psoc creator\\3.3\\psoc creator\\import\\gnu\\arm\\4.9.
 269              		.file 3 "c:\\program files (x86)\\cypress\\psoc creator\\3.3\\psoc creator\\import\\gnu\\arm\\4.9.
 270              		.file 4 ".\\Core\\Include/cmsis_gcc.h"