ARM GAS  C:\Users\IVYLIU~1\AppData\Local\Temp\ccWLNWQl.s 			page 1


   1              		.syntax unified
   2              		.cpu cortex-m3
   3              		.fpu softvfp
   4              		.eabi_attribute 20, 1
   5              		.eabi_attribute 21, 1
   6              		.eabi_attribute 23, 3
   7              		.eabi_attribute 24, 1
   8              		.eabi_attribute 25, 1
   9              		.eabi_attribute 26, 1
  10              		.eabi_attribute 30, 4
  11              		.eabi_attribute 34, 1
  12              		.eabi_attribute 18, 4
  13              		.thumb
  14              		.file	"arm_cfft_f32.c"
  15              		.text
  16              	.Ltext0:
  17              		.cfi_sections	.debug_frame
  18              		.global	__aeabi_fadd
  19              		.global	__aeabi_fsub
  20              		.global	__aeabi_fmul
  21              		.section	.text.arm_cfft_radix8by2_f32,"ax",%progbits
  22              		.align	1
  23              		.global	arm_cfft_radix8by2_f32
  24              		.thumb
  25              		.thumb_func
  26              		.type	arm_cfft_radix8by2_f32, %function
  27              	arm_cfft_radix8by2_f32:
  28              	.LFB84:
  29              		.file 1 ".\\DSP\\Source\\TransformFunctions\\arm_cfft_f32.c"
   1:.\DSP\Source\TransformFunctions/arm_cfft_f32.c **** /* ----------------------------------------------------------------------
   2:.\DSP\Source\TransformFunctions/arm_cfft_f32.c ****  * Project:      CMSIS DSP Library
   3:.\DSP\Source\TransformFunctions/arm_cfft_f32.c ****  * Title:        arm_cfft_f32.c
   4:.\DSP\Source\TransformFunctions/arm_cfft_f32.c ****  * Description:  Combined Radix Decimation in Frequency CFFT Floating point processing function
   5:.\DSP\Source\TransformFunctions/arm_cfft_f32.c ****  *
   6:.\DSP\Source\TransformFunctions/arm_cfft_f32.c ****  * $Date:        23 April 2021
   7:.\DSP\Source\TransformFunctions/arm_cfft_f32.c ****  * $Revision:    V1.9.0
   8:.\DSP\Source\TransformFunctions/arm_cfft_f32.c ****  *
   9:.\DSP\Source\TransformFunctions/arm_cfft_f32.c ****  * Target Processor: Cortex-M and Cortex-A cores
  10:.\DSP\Source\TransformFunctions/arm_cfft_f32.c ****  * -------------------------------------------------------------------- */
  11:.\DSP\Source\TransformFunctions/arm_cfft_f32.c **** /*
  12:.\DSP\Source\TransformFunctions/arm_cfft_f32.c ****  * Copyright (C) 2010-2021 ARM Limited or its affiliates. All rights reserved.
  13:.\DSP\Source\TransformFunctions/arm_cfft_f32.c ****  *
  14:.\DSP\Source\TransformFunctions/arm_cfft_f32.c ****  * SPDX-License-Identifier: Apache-2.0
  15:.\DSP\Source\TransformFunctions/arm_cfft_f32.c ****  *
  16:.\DSP\Source\TransformFunctions/arm_cfft_f32.c ****  * Licensed under the Apache License, Version 2.0 (the License); you may
  17:.\DSP\Source\TransformFunctions/arm_cfft_f32.c ****  * not use this file except in compliance with the License.
  18:.\DSP\Source\TransformFunctions/arm_cfft_f32.c ****  * You may obtain a copy of the License at
  19:.\DSP\Source\TransformFunctions/arm_cfft_f32.c ****  *
  20:.\DSP\Source\TransformFunctions/arm_cfft_f32.c ****  * www.apache.org/licenses/LICENSE-2.0
  21:.\DSP\Source\TransformFunctions/arm_cfft_f32.c ****  *
  22:.\DSP\Source\TransformFunctions/arm_cfft_f32.c ****  * Unless required by applicable law or agreed to in writing, software
  23:.\DSP\Source\TransformFunctions/arm_cfft_f32.c ****  * distributed under the License is distributed on an AS IS BASIS, WITHOUT
  24:.\DSP\Source\TransformFunctions/arm_cfft_f32.c ****  * WARRANTIES OR CONDITIONS OF ANY KIND, either express or implied.
  25:.\DSP\Source\TransformFunctions/arm_cfft_f32.c ****  * See the License for the specific language governing permissions and
  26:.\DSP\Source\TransformFunctions/arm_cfft_f32.c ****  * limitations under the License.
  27:.\DSP\Source\TransformFunctions/arm_cfft_f32.c ****  */
  28:.\DSP\Source\TransformFunctions/arm_cfft_f32.c **** 
ARM GAS  C:\Users\IVYLIU~1\AppData\Local\Temp\ccWLNWQl.s 			page 2


  29:.\DSP\Source\TransformFunctions/arm_cfft_f32.c **** #include "dsp/transform_functions.h"
  30:.\DSP\Source\TransformFunctions/arm_cfft_f32.c **** #include "arm_common_tables.h"
  31:.\DSP\Source\TransformFunctions/arm_cfft_f32.c **** 
  32:.\DSP\Source\TransformFunctions/arm_cfft_f32.c **** #if defined(ARM_MATH_MVEF) && !defined(ARM_MATH_AUTOVECTORIZE)
  33:.\DSP\Source\TransformFunctions/arm_cfft_f32.c **** 
  34:.\DSP\Source\TransformFunctions/arm_cfft_f32.c **** #include "arm_helium_utils.h"
  35:.\DSP\Source\TransformFunctions/arm_cfft_f32.c **** #include "arm_vec_fft.h"
  36:.\DSP\Source\TransformFunctions/arm_cfft_f32.c **** #include "arm_mve_tables.h"
  37:.\DSP\Source\TransformFunctions/arm_cfft_f32.c **** 
  38:.\DSP\Source\TransformFunctions/arm_cfft_f32.c **** 
  39:.\DSP\Source\TransformFunctions/arm_cfft_f32.c **** static float32_t arm_inverse_fft_length_f32(uint16_t fftLen)
  40:.\DSP\Source\TransformFunctions/arm_cfft_f32.c **** {
  41:.\DSP\Source\TransformFunctions/arm_cfft_f32.c ****   float32_t retValue=1.0;
  42:.\DSP\Source\TransformFunctions/arm_cfft_f32.c **** 
  43:.\DSP\Source\TransformFunctions/arm_cfft_f32.c ****   switch (fftLen)
  44:.\DSP\Source\TransformFunctions/arm_cfft_f32.c ****   {
  45:.\DSP\Source\TransformFunctions/arm_cfft_f32.c **** 
  46:.\DSP\Source\TransformFunctions/arm_cfft_f32.c ****   case 4096U:
  47:.\DSP\Source\TransformFunctions/arm_cfft_f32.c ****     retValue = 0.000244140625;
  48:.\DSP\Source\TransformFunctions/arm_cfft_f32.c ****     break;
  49:.\DSP\Source\TransformFunctions/arm_cfft_f32.c **** 
  50:.\DSP\Source\TransformFunctions/arm_cfft_f32.c ****   case 2048U:
  51:.\DSP\Source\TransformFunctions/arm_cfft_f32.c ****     retValue = 0.00048828125;
  52:.\DSP\Source\TransformFunctions/arm_cfft_f32.c ****     break;
  53:.\DSP\Source\TransformFunctions/arm_cfft_f32.c **** 
  54:.\DSP\Source\TransformFunctions/arm_cfft_f32.c ****   case 1024U:
  55:.\DSP\Source\TransformFunctions/arm_cfft_f32.c ****     retValue = 0.0009765625f;
  56:.\DSP\Source\TransformFunctions/arm_cfft_f32.c ****     break;
  57:.\DSP\Source\TransformFunctions/arm_cfft_f32.c **** 
  58:.\DSP\Source\TransformFunctions/arm_cfft_f32.c ****   case 512U:
  59:.\DSP\Source\TransformFunctions/arm_cfft_f32.c ****     retValue = 0.001953125;
  60:.\DSP\Source\TransformFunctions/arm_cfft_f32.c ****     break;
  61:.\DSP\Source\TransformFunctions/arm_cfft_f32.c **** 
  62:.\DSP\Source\TransformFunctions/arm_cfft_f32.c ****   case 256U:
  63:.\DSP\Source\TransformFunctions/arm_cfft_f32.c ****     retValue = 0.00390625f;
  64:.\DSP\Source\TransformFunctions/arm_cfft_f32.c ****     break;
  65:.\DSP\Source\TransformFunctions/arm_cfft_f32.c **** 
  66:.\DSP\Source\TransformFunctions/arm_cfft_f32.c ****   case 128U:
  67:.\DSP\Source\TransformFunctions/arm_cfft_f32.c ****     retValue = 0.0078125;
  68:.\DSP\Source\TransformFunctions/arm_cfft_f32.c ****     break;
  69:.\DSP\Source\TransformFunctions/arm_cfft_f32.c **** 
  70:.\DSP\Source\TransformFunctions/arm_cfft_f32.c ****   case 64U:
  71:.\DSP\Source\TransformFunctions/arm_cfft_f32.c ****     retValue = 0.015625f;
  72:.\DSP\Source\TransformFunctions/arm_cfft_f32.c ****     break;
  73:.\DSP\Source\TransformFunctions/arm_cfft_f32.c **** 
  74:.\DSP\Source\TransformFunctions/arm_cfft_f32.c ****   case 32U:
  75:.\DSP\Source\TransformFunctions/arm_cfft_f32.c ****     retValue = 0.03125;
  76:.\DSP\Source\TransformFunctions/arm_cfft_f32.c ****     break;
  77:.\DSP\Source\TransformFunctions/arm_cfft_f32.c **** 
  78:.\DSP\Source\TransformFunctions/arm_cfft_f32.c ****   case 16U:
  79:.\DSP\Source\TransformFunctions/arm_cfft_f32.c ****     retValue = 0.0625f;
  80:.\DSP\Source\TransformFunctions/arm_cfft_f32.c ****     break;
  81:.\DSP\Source\TransformFunctions/arm_cfft_f32.c **** 
  82:.\DSP\Source\TransformFunctions/arm_cfft_f32.c **** 
  83:.\DSP\Source\TransformFunctions/arm_cfft_f32.c ****   default:
  84:.\DSP\Source\TransformFunctions/arm_cfft_f32.c ****     break;
  85:.\DSP\Source\TransformFunctions/arm_cfft_f32.c ****   }
ARM GAS  C:\Users\IVYLIU~1\AppData\Local\Temp\ccWLNWQl.s 			page 3


  86:.\DSP\Source\TransformFunctions/arm_cfft_f32.c ****   return(retValue);
  87:.\DSP\Source\TransformFunctions/arm_cfft_f32.c **** }
  88:.\DSP\Source\TransformFunctions/arm_cfft_f32.c **** 
  89:.\DSP\Source\TransformFunctions/arm_cfft_f32.c **** 
  90:.\DSP\Source\TransformFunctions/arm_cfft_f32.c **** 
  91:.\DSP\Source\TransformFunctions/arm_cfft_f32.c **** 
  92:.\DSP\Source\TransformFunctions/arm_cfft_f32.c **** static void _arm_radix4_butterfly_f32_mve(const arm_cfft_instance_f32 * S,float32_t * pSrc, uint32_
  93:.\DSP\Source\TransformFunctions/arm_cfft_f32.c **** {
  94:.\DSP\Source\TransformFunctions/arm_cfft_f32.c ****     f32x4_t     vecTmp0, vecTmp1;
  95:.\DSP\Source\TransformFunctions/arm_cfft_f32.c ****     f32x4_t     vecSum0, vecDiff0, vecSum1, vecDiff1;
  96:.\DSP\Source\TransformFunctions/arm_cfft_f32.c ****     f32x4_t     vecA, vecB, vecC, vecD;
  97:.\DSP\Source\TransformFunctions/arm_cfft_f32.c ****     uint32_t    blkCnt;
  98:.\DSP\Source\TransformFunctions/arm_cfft_f32.c ****     uint32_t    n1, n2;
  99:.\DSP\Source\TransformFunctions/arm_cfft_f32.c ****     uint32_t    stage = 0;
 100:.\DSP\Source\TransformFunctions/arm_cfft_f32.c ****     int32_t     iter = 1;
 101:.\DSP\Source\TransformFunctions/arm_cfft_f32.c ****     static const int32_t strides[4] = {
 102:.\DSP\Source\TransformFunctions/arm_cfft_f32.c ****         (0 - 16) * (int32_t)sizeof(q31_t *),
 103:.\DSP\Source\TransformFunctions/arm_cfft_f32.c ****         (1 - 16) * (int32_t)sizeof(q31_t *),
 104:.\DSP\Source\TransformFunctions/arm_cfft_f32.c ****         (8 - 16) * (int32_t)sizeof(q31_t *),
 105:.\DSP\Source\TransformFunctions/arm_cfft_f32.c ****         (9 - 16) * (int32_t)sizeof(q31_t *)
 106:.\DSP\Source\TransformFunctions/arm_cfft_f32.c ****     };
 107:.\DSP\Source\TransformFunctions/arm_cfft_f32.c **** 
 108:.\DSP\Source\TransformFunctions/arm_cfft_f32.c ****     n2 = fftLen;
 109:.\DSP\Source\TransformFunctions/arm_cfft_f32.c ****     n1 = n2;
 110:.\DSP\Source\TransformFunctions/arm_cfft_f32.c ****     n2 >>= 2u;
 111:.\DSP\Source\TransformFunctions/arm_cfft_f32.c ****     for (int k = fftLen / 4u; k > 1; k >>= 2)
 112:.\DSP\Source\TransformFunctions/arm_cfft_f32.c ****     {
 113:.\DSP\Source\TransformFunctions/arm_cfft_f32.c ****         float32_t const     *p_rearranged_twiddle_tab_stride1 =
 114:.\DSP\Source\TransformFunctions/arm_cfft_f32.c ****                             &S->rearranged_twiddle_stride1[
 115:.\DSP\Source\TransformFunctions/arm_cfft_f32.c ****                             S->rearranged_twiddle_tab_stride1_arr[stage]];
 116:.\DSP\Source\TransformFunctions/arm_cfft_f32.c ****         float32_t const     *p_rearranged_twiddle_tab_stride2 =
 117:.\DSP\Source\TransformFunctions/arm_cfft_f32.c ****                             &S->rearranged_twiddle_stride2[
 118:.\DSP\Source\TransformFunctions/arm_cfft_f32.c ****                             S->rearranged_twiddle_tab_stride2_arr[stage]];
 119:.\DSP\Source\TransformFunctions/arm_cfft_f32.c ****         float32_t const     *p_rearranged_twiddle_tab_stride3 =
 120:.\DSP\Source\TransformFunctions/arm_cfft_f32.c ****                             &S->rearranged_twiddle_stride3[
 121:.\DSP\Source\TransformFunctions/arm_cfft_f32.c ****                             S->rearranged_twiddle_tab_stride3_arr[stage]];
 122:.\DSP\Source\TransformFunctions/arm_cfft_f32.c **** 
 123:.\DSP\Source\TransformFunctions/arm_cfft_f32.c ****         float32_t * pBase = pSrc;
 124:.\DSP\Source\TransformFunctions/arm_cfft_f32.c ****         for (int i = 0; i < iter; i++)
 125:.\DSP\Source\TransformFunctions/arm_cfft_f32.c ****         {
 126:.\DSP\Source\TransformFunctions/arm_cfft_f32.c ****             float32_t    *inA = pBase;
 127:.\DSP\Source\TransformFunctions/arm_cfft_f32.c ****             float32_t    *inB = inA + n2 * CMPLX_DIM;
 128:.\DSP\Source\TransformFunctions/arm_cfft_f32.c ****             float32_t    *inC = inB + n2 * CMPLX_DIM;
 129:.\DSP\Source\TransformFunctions/arm_cfft_f32.c ****             float32_t    *inD = inC + n2 * CMPLX_DIM;
 130:.\DSP\Source\TransformFunctions/arm_cfft_f32.c ****             float32_t const *pW1 = p_rearranged_twiddle_tab_stride1;
 131:.\DSP\Source\TransformFunctions/arm_cfft_f32.c ****             float32_t const *pW2 = p_rearranged_twiddle_tab_stride2;
 132:.\DSP\Source\TransformFunctions/arm_cfft_f32.c ****             float32_t const *pW3 = p_rearranged_twiddle_tab_stride3;
 133:.\DSP\Source\TransformFunctions/arm_cfft_f32.c ****             f32x4_t            vecW;
 134:.\DSP\Source\TransformFunctions/arm_cfft_f32.c **** 
 135:.\DSP\Source\TransformFunctions/arm_cfft_f32.c ****             blkCnt = n2 / 2;
 136:.\DSP\Source\TransformFunctions/arm_cfft_f32.c ****             /*
 137:.\DSP\Source\TransformFunctions/arm_cfft_f32.c ****              * load 2 f32 complex pair
 138:.\DSP\Source\TransformFunctions/arm_cfft_f32.c ****              */
 139:.\DSP\Source\TransformFunctions/arm_cfft_f32.c ****             vecA = vldrwq_f32(inA);
 140:.\DSP\Source\TransformFunctions/arm_cfft_f32.c ****             vecC = vldrwq_f32(inC);
 141:.\DSP\Source\TransformFunctions/arm_cfft_f32.c ****             while (blkCnt > 0U)
 142:.\DSP\Source\TransformFunctions/arm_cfft_f32.c ****             {
ARM GAS  C:\Users\IVYLIU~1\AppData\Local\Temp\ccWLNWQl.s 			page 4


 143:.\DSP\Source\TransformFunctions/arm_cfft_f32.c ****                 vecB = vldrwq_f32(inB);
 144:.\DSP\Source\TransformFunctions/arm_cfft_f32.c ****                 vecD = vldrwq_f32(inD);
 145:.\DSP\Source\TransformFunctions/arm_cfft_f32.c **** 
 146:.\DSP\Source\TransformFunctions/arm_cfft_f32.c ****                 vecSum0 = vecA + vecC;  /* vecSum0 = vaddq(vecA, vecC) */
 147:.\DSP\Source\TransformFunctions/arm_cfft_f32.c ****                 vecDiff0 = vecA - vecC; /* vecSum0 = vsubq(vecA, vecC) */
 148:.\DSP\Source\TransformFunctions/arm_cfft_f32.c **** 
 149:.\DSP\Source\TransformFunctions/arm_cfft_f32.c ****                 vecSum1 = vecB + vecD;
 150:.\DSP\Source\TransformFunctions/arm_cfft_f32.c ****                 vecDiff1 = vecB - vecD;
 151:.\DSP\Source\TransformFunctions/arm_cfft_f32.c ****                 /*
 152:.\DSP\Source\TransformFunctions/arm_cfft_f32.c ****                  * [ 1 1 1 1 ] * [ A B C D ]' .* 1
 153:.\DSP\Source\TransformFunctions/arm_cfft_f32.c ****                  */
 154:.\DSP\Source\TransformFunctions/arm_cfft_f32.c ****                 vecTmp0 = vecSum0 + vecSum1;
 155:.\DSP\Source\TransformFunctions/arm_cfft_f32.c ****                 vst1q(inA, vecTmp0);
 156:.\DSP\Source\TransformFunctions/arm_cfft_f32.c ****                 inA += 4;
 157:.\DSP\Source\TransformFunctions/arm_cfft_f32.c **** 
 158:.\DSP\Source\TransformFunctions/arm_cfft_f32.c ****                 /*
 159:.\DSP\Source\TransformFunctions/arm_cfft_f32.c ****                  * [ 1 -1 1 -1 ] * [ A B C D ]'
 160:.\DSP\Source\TransformFunctions/arm_cfft_f32.c ****                  */
 161:.\DSP\Source\TransformFunctions/arm_cfft_f32.c ****                 vecTmp0 = vecSum0 - vecSum1;
 162:.\DSP\Source\TransformFunctions/arm_cfft_f32.c ****                 /*
 163:.\DSP\Source\TransformFunctions/arm_cfft_f32.c ****                  * [ 1 -1 1 -1 ] * [ A B C D ]'.* W2
 164:.\DSP\Source\TransformFunctions/arm_cfft_f32.c ****                  */
 165:.\DSP\Source\TransformFunctions/arm_cfft_f32.c ****                 vecW = vld1q(pW2);
 166:.\DSP\Source\TransformFunctions/arm_cfft_f32.c ****                 pW2 += 4;
 167:.\DSP\Source\TransformFunctions/arm_cfft_f32.c ****                 vecTmp1 = MVE_CMPLX_MULT_FLT_Conj_AxB(vecW, vecTmp0);
 168:.\DSP\Source\TransformFunctions/arm_cfft_f32.c ****                 vst1q(inB, vecTmp1);
 169:.\DSP\Source\TransformFunctions/arm_cfft_f32.c ****                 inB += 4;
 170:.\DSP\Source\TransformFunctions/arm_cfft_f32.c **** 
 171:.\DSP\Source\TransformFunctions/arm_cfft_f32.c ****                 /*
 172:.\DSP\Source\TransformFunctions/arm_cfft_f32.c ****                  * [ 1 -i -1 +i ] * [ A B C D ]'
 173:.\DSP\Source\TransformFunctions/arm_cfft_f32.c ****                  */
 174:.\DSP\Source\TransformFunctions/arm_cfft_f32.c ****                 vecTmp0 = MVE_CMPLX_SUB_A_ixB(vecDiff0, vecDiff1);
 175:.\DSP\Source\TransformFunctions/arm_cfft_f32.c ****                 /*
 176:.\DSP\Source\TransformFunctions/arm_cfft_f32.c ****                  * [ 1 -i -1 +i ] * [ A B C D ]'.* W1
 177:.\DSP\Source\TransformFunctions/arm_cfft_f32.c ****                  */
 178:.\DSP\Source\TransformFunctions/arm_cfft_f32.c ****                 vecW = vld1q(pW1);
 179:.\DSP\Source\TransformFunctions/arm_cfft_f32.c ****                 pW1 +=4;
 180:.\DSP\Source\TransformFunctions/arm_cfft_f32.c ****                 vecTmp1 = MVE_CMPLX_MULT_FLT_Conj_AxB(vecW, vecTmp0);
 181:.\DSP\Source\TransformFunctions/arm_cfft_f32.c ****                 vst1q(inC, vecTmp1);
 182:.\DSP\Source\TransformFunctions/arm_cfft_f32.c ****                 inC += 4;
 183:.\DSP\Source\TransformFunctions/arm_cfft_f32.c **** 
 184:.\DSP\Source\TransformFunctions/arm_cfft_f32.c ****                 /*
 185:.\DSP\Source\TransformFunctions/arm_cfft_f32.c ****                  * [ 1 +i -1 -i ] * [ A B C D ]'
 186:.\DSP\Source\TransformFunctions/arm_cfft_f32.c ****                  */
 187:.\DSP\Source\TransformFunctions/arm_cfft_f32.c ****                 vecTmp0 = MVE_CMPLX_ADD_A_ixB(vecDiff0, vecDiff1);
 188:.\DSP\Source\TransformFunctions/arm_cfft_f32.c ****                 /*
 189:.\DSP\Source\TransformFunctions/arm_cfft_f32.c ****                  * [ 1 +i -1 -i ] * [ A B C D ]'.* W3
 190:.\DSP\Source\TransformFunctions/arm_cfft_f32.c ****                  */
 191:.\DSP\Source\TransformFunctions/arm_cfft_f32.c ****                 vecW = vld1q(pW3);
 192:.\DSP\Source\TransformFunctions/arm_cfft_f32.c ****                 pW3 += 4;
 193:.\DSP\Source\TransformFunctions/arm_cfft_f32.c ****                 vecTmp1 = MVE_CMPLX_MULT_FLT_Conj_AxB(vecW, vecTmp0);
 194:.\DSP\Source\TransformFunctions/arm_cfft_f32.c ****                 vst1q(inD, vecTmp1);
 195:.\DSP\Source\TransformFunctions/arm_cfft_f32.c ****                 inD += 4;
 196:.\DSP\Source\TransformFunctions/arm_cfft_f32.c **** 
 197:.\DSP\Source\TransformFunctions/arm_cfft_f32.c ****                 vecA = vldrwq_f32(inA);
 198:.\DSP\Source\TransformFunctions/arm_cfft_f32.c ****                 vecC = vldrwq_f32(inC);
 199:.\DSP\Source\TransformFunctions/arm_cfft_f32.c **** 
ARM GAS  C:\Users\IVYLIU~1\AppData\Local\Temp\ccWLNWQl.s 			page 5


 200:.\DSP\Source\TransformFunctions/arm_cfft_f32.c ****                 blkCnt--;
 201:.\DSP\Source\TransformFunctions/arm_cfft_f32.c ****             }
 202:.\DSP\Source\TransformFunctions/arm_cfft_f32.c ****             pBase +=  CMPLX_DIM * n1;
 203:.\DSP\Source\TransformFunctions/arm_cfft_f32.c ****         }
 204:.\DSP\Source\TransformFunctions/arm_cfft_f32.c ****         n1 = n2;
 205:.\DSP\Source\TransformFunctions/arm_cfft_f32.c ****         n2 >>= 2u;
 206:.\DSP\Source\TransformFunctions/arm_cfft_f32.c ****         iter = iter << 2;
 207:.\DSP\Source\TransformFunctions/arm_cfft_f32.c ****         stage++;
 208:.\DSP\Source\TransformFunctions/arm_cfft_f32.c ****     }
 209:.\DSP\Source\TransformFunctions/arm_cfft_f32.c **** 
 210:.\DSP\Source\TransformFunctions/arm_cfft_f32.c ****     /*
 211:.\DSP\Source\TransformFunctions/arm_cfft_f32.c ****      * start of Last stage process
 212:.\DSP\Source\TransformFunctions/arm_cfft_f32.c ****      */
 213:.\DSP\Source\TransformFunctions/arm_cfft_f32.c ****     uint32x4_t vecScGathAddr = vld1q_u32((uint32_t*)strides);
 214:.\DSP\Source\TransformFunctions/arm_cfft_f32.c ****     vecScGathAddr = vecScGathAddr + (uint32_t) pSrc;
 215:.\DSP\Source\TransformFunctions/arm_cfft_f32.c **** 
 216:.\DSP\Source\TransformFunctions/arm_cfft_f32.c ****     /* load scheduling */
 217:.\DSP\Source\TransformFunctions/arm_cfft_f32.c ****     vecA = vldrwq_gather_base_wb_f32(&vecScGathAddr, 64);
 218:.\DSP\Source\TransformFunctions/arm_cfft_f32.c ****     vecC = vldrwq_gather_base_f32(vecScGathAddr, 16);
 219:.\DSP\Source\TransformFunctions/arm_cfft_f32.c **** 
 220:.\DSP\Source\TransformFunctions/arm_cfft_f32.c ****     blkCnt = (fftLen >> 3);
 221:.\DSP\Source\TransformFunctions/arm_cfft_f32.c ****     while (blkCnt > 0U)
 222:.\DSP\Source\TransformFunctions/arm_cfft_f32.c ****     {
 223:.\DSP\Source\TransformFunctions/arm_cfft_f32.c ****         vecSum0 = vecA + vecC;  /* vecSum0 = vaddq(vecA, vecC) */
 224:.\DSP\Source\TransformFunctions/arm_cfft_f32.c ****         vecDiff0 = vecA - vecC; /* vecSum0 = vsubq(vecA, vecC) */
 225:.\DSP\Source\TransformFunctions/arm_cfft_f32.c **** 
 226:.\DSP\Source\TransformFunctions/arm_cfft_f32.c ****         vecB = vldrwq_gather_base_f32(vecScGathAddr, 8);
 227:.\DSP\Source\TransformFunctions/arm_cfft_f32.c ****         vecD = vldrwq_gather_base_f32(vecScGathAddr, 24);
 228:.\DSP\Source\TransformFunctions/arm_cfft_f32.c **** 
 229:.\DSP\Source\TransformFunctions/arm_cfft_f32.c ****         vecSum1 = vecB + vecD;
 230:.\DSP\Source\TransformFunctions/arm_cfft_f32.c ****         vecDiff1 = vecB - vecD;
 231:.\DSP\Source\TransformFunctions/arm_cfft_f32.c **** 
 232:.\DSP\Source\TransformFunctions/arm_cfft_f32.c ****         /* pre-load for next iteration */
 233:.\DSP\Source\TransformFunctions/arm_cfft_f32.c ****         vecA = vldrwq_gather_base_wb_f32(&vecScGathAddr, 64);
 234:.\DSP\Source\TransformFunctions/arm_cfft_f32.c ****         vecC = vldrwq_gather_base_f32(vecScGathAddr, 16);
 235:.\DSP\Source\TransformFunctions/arm_cfft_f32.c **** 
 236:.\DSP\Source\TransformFunctions/arm_cfft_f32.c ****         vecTmp0 = vecSum0 + vecSum1;
 237:.\DSP\Source\TransformFunctions/arm_cfft_f32.c ****         vstrwq_scatter_base_f32(vecScGathAddr, -64, vecTmp0);
 238:.\DSP\Source\TransformFunctions/arm_cfft_f32.c **** 
 239:.\DSP\Source\TransformFunctions/arm_cfft_f32.c ****         vecTmp0 = vecSum0 - vecSum1;
 240:.\DSP\Source\TransformFunctions/arm_cfft_f32.c ****         vstrwq_scatter_base_f32(vecScGathAddr, -64 + 8, vecTmp0);
 241:.\DSP\Source\TransformFunctions/arm_cfft_f32.c **** 
 242:.\DSP\Source\TransformFunctions/arm_cfft_f32.c ****         vecTmp0 = MVE_CMPLX_SUB_A_ixB(vecDiff0, vecDiff1);
 243:.\DSP\Source\TransformFunctions/arm_cfft_f32.c ****         vstrwq_scatter_base_f32(vecScGathAddr, -64 + 16, vecTmp0);
 244:.\DSP\Source\TransformFunctions/arm_cfft_f32.c **** 
 245:.\DSP\Source\TransformFunctions/arm_cfft_f32.c ****         vecTmp0 = MVE_CMPLX_ADD_A_ixB(vecDiff0, vecDiff1);
 246:.\DSP\Source\TransformFunctions/arm_cfft_f32.c ****         vstrwq_scatter_base_f32(vecScGathAddr, -64 + 24, vecTmp0);
 247:.\DSP\Source\TransformFunctions/arm_cfft_f32.c **** 
 248:.\DSP\Source\TransformFunctions/arm_cfft_f32.c ****         blkCnt--;
 249:.\DSP\Source\TransformFunctions/arm_cfft_f32.c ****     }
 250:.\DSP\Source\TransformFunctions/arm_cfft_f32.c **** 
 251:.\DSP\Source\TransformFunctions/arm_cfft_f32.c ****     /*
 252:.\DSP\Source\TransformFunctions/arm_cfft_f32.c ****      * End of last stage process
 253:.\DSP\Source\TransformFunctions/arm_cfft_f32.c ****      */
 254:.\DSP\Source\TransformFunctions/arm_cfft_f32.c **** }
 255:.\DSP\Source\TransformFunctions/arm_cfft_f32.c **** 
 256:.\DSP\Source\TransformFunctions/arm_cfft_f32.c **** static void arm_cfft_radix4by2_f32_mve(const arm_cfft_instance_f32 * S, float32_t *pSrc, uint32_t f
ARM GAS  C:\Users\IVYLIU~1\AppData\Local\Temp\ccWLNWQl.s 			page 6


 257:.\DSP\Source\TransformFunctions/arm_cfft_f32.c **** {
 258:.\DSP\Source\TransformFunctions/arm_cfft_f32.c ****     float32_t const *pCoefVec;
 259:.\DSP\Source\TransformFunctions/arm_cfft_f32.c ****     float32_t const  *pCoef = S->pTwiddle;
 260:.\DSP\Source\TransformFunctions/arm_cfft_f32.c ****     float32_t        *pIn0, *pIn1;
 261:.\DSP\Source\TransformFunctions/arm_cfft_f32.c ****     uint32_t          n2;
 262:.\DSP\Source\TransformFunctions/arm_cfft_f32.c ****     uint32_t          blkCnt;
 263:.\DSP\Source\TransformFunctions/arm_cfft_f32.c ****     f32x4_t         vecIn0, vecIn1, vecSum, vecDiff;
 264:.\DSP\Source\TransformFunctions/arm_cfft_f32.c ****     f32x4_t         vecCmplxTmp, vecTw;
 265:.\DSP\Source\TransformFunctions/arm_cfft_f32.c **** 
 266:.\DSP\Source\TransformFunctions/arm_cfft_f32.c **** 
 267:.\DSP\Source\TransformFunctions/arm_cfft_f32.c ****     n2 = fftLen >> 1;
 268:.\DSP\Source\TransformFunctions/arm_cfft_f32.c ****     pIn0 = pSrc;
 269:.\DSP\Source\TransformFunctions/arm_cfft_f32.c ****     pIn1 = pSrc + fftLen;
 270:.\DSP\Source\TransformFunctions/arm_cfft_f32.c ****     pCoefVec = pCoef;
 271:.\DSP\Source\TransformFunctions/arm_cfft_f32.c **** 
 272:.\DSP\Source\TransformFunctions/arm_cfft_f32.c ****     blkCnt = n2 / 2;
 273:.\DSP\Source\TransformFunctions/arm_cfft_f32.c ****     while (blkCnt > 0U)
 274:.\DSP\Source\TransformFunctions/arm_cfft_f32.c ****     {
 275:.\DSP\Source\TransformFunctions/arm_cfft_f32.c ****         vecIn0 = *(f32x4_t *) pIn0;
 276:.\DSP\Source\TransformFunctions/arm_cfft_f32.c ****         vecIn1 = *(f32x4_t *) pIn1;
 277:.\DSP\Source\TransformFunctions/arm_cfft_f32.c ****         vecTw = vld1q(pCoefVec);
 278:.\DSP\Source\TransformFunctions/arm_cfft_f32.c ****         pCoefVec += 4;
 279:.\DSP\Source\TransformFunctions/arm_cfft_f32.c **** 
 280:.\DSP\Source\TransformFunctions/arm_cfft_f32.c ****         vecSum = vecIn0 + vecIn1;
 281:.\DSP\Source\TransformFunctions/arm_cfft_f32.c ****         vecDiff = vecIn0 - vecIn1;
 282:.\DSP\Source\TransformFunctions/arm_cfft_f32.c **** 
 283:.\DSP\Source\TransformFunctions/arm_cfft_f32.c ****         vecCmplxTmp = MVE_CMPLX_MULT_FLT_Conj_AxB(vecTw, vecDiff);
 284:.\DSP\Source\TransformFunctions/arm_cfft_f32.c **** 
 285:.\DSP\Source\TransformFunctions/arm_cfft_f32.c ****         vst1q(pIn0, vecSum);
 286:.\DSP\Source\TransformFunctions/arm_cfft_f32.c ****         pIn0 += 4;
 287:.\DSP\Source\TransformFunctions/arm_cfft_f32.c ****         vst1q(pIn1, vecCmplxTmp);
 288:.\DSP\Source\TransformFunctions/arm_cfft_f32.c ****         pIn1 += 4;
 289:.\DSP\Source\TransformFunctions/arm_cfft_f32.c **** 
 290:.\DSP\Source\TransformFunctions/arm_cfft_f32.c ****         blkCnt--;
 291:.\DSP\Source\TransformFunctions/arm_cfft_f32.c ****     }
 292:.\DSP\Source\TransformFunctions/arm_cfft_f32.c **** 
 293:.\DSP\Source\TransformFunctions/arm_cfft_f32.c ****     _arm_radix4_butterfly_f32_mve(S, pSrc, n2);
 294:.\DSP\Source\TransformFunctions/arm_cfft_f32.c **** 
 295:.\DSP\Source\TransformFunctions/arm_cfft_f32.c ****     _arm_radix4_butterfly_f32_mve(S, pSrc + fftLen, n2);
 296:.\DSP\Source\TransformFunctions/arm_cfft_f32.c **** 
 297:.\DSP\Source\TransformFunctions/arm_cfft_f32.c ****     pIn0 = pSrc;
 298:.\DSP\Source\TransformFunctions/arm_cfft_f32.c **** }
 299:.\DSP\Source\TransformFunctions/arm_cfft_f32.c **** 
 300:.\DSP\Source\TransformFunctions/arm_cfft_f32.c **** static void _arm_radix4_butterfly_inverse_f32_mve(const arm_cfft_instance_f32 * S,float32_t * pSrc,
 301:.\DSP\Source\TransformFunctions/arm_cfft_f32.c **** {
 302:.\DSP\Source\TransformFunctions/arm_cfft_f32.c ****     f32x4_t vecTmp0, vecTmp1;
 303:.\DSP\Source\TransformFunctions/arm_cfft_f32.c ****     f32x4_t vecSum0, vecDiff0, vecSum1, vecDiff1;
 304:.\DSP\Source\TransformFunctions/arm_cfft_f32.c ****     f32x4_t vecA, vecB, vecC, vecD;
 305:.\DSP\Source\TransformFunctions/arm_cfft_f32.c ****     uint32_t  blkCnt;
 306:.\DSP\Source\TransformFunctions/arm_cfft_f32.c ****     uint32_t  n1, n2;
 307:.\DSP\Source\TransformFunctions/arm_cfft_f32.c ****     uint32_t  stage = 0;
 308:.\DSP\Source\TransformFunctions/arm_cfft_f32.c ****     int32_t  iter = 1;
 309:.\DSP\Source\TransformFunctions/arm_cfft_f32.c ****     static const int32_t strides[4] = {
 310:.\DSP\Source\TransformFunctions/arm_cfft_f32.c ****         (0 - 16) * (int32_t)sizeof(q31_t *),
 311:.\DSP\Source\TransformFunctions/arm_cfft_f32.c ****         (1 - 16) * (int32_t)sizeof(q31_t *),
 312:.\DSP\Source\TransformFunctions/arm_cfft_f32.c ****         (8 - 16) * (int32_t)sizeof(q31_t *),
 313:.\DSP\Source\TransformFunctions/arm_cfft_f32.c ****         (9 - 16) * (int32_t)sizeof(q31_t *)
ARM GAS  C:\Users\IVYLIU~1\AppData\Local\Temp\ccWLNWQl.s 			page 7


 314:.\DSP\Source\TransformFunctions/arm_cfft_f32.c ****     };
 315:.\DSP\Source\TransformFunctions/arm_cfft_f32.c **** 
 316:.\DSP\Source\TransformFunctions/arm_cfft_f32.c ****     n2 = fftLen;
 317:.\DSP\Source\TransformFunctions/arm_cfft_f32.c ****     n1 = n2;
 318:.\DSP\Source\TransformFunctions/arm_cfft_f32.c ****     n2 >>= 2u;
 319:.\DSP\Source\TransformFunctions/arm_cfft_f32.c ****     for (int k = fftLen / 4; k > 1; k >>= 2)
 320:.\DSP\Source\TransformFunctions/arm_cfft_f32.c ****     {
 321:.\DSP\Source\TransformFunctions/arm_cfft_f32.c ****         float32_t const *p_rearranged_twiddle_tab_stride1 =
 322:.\DSP\Source\TransformFunctions/arm_cfft_f32.c ****                 &S->rearranged_twiddle_stride1[
 323:.\DSP\Source\TransformFunctions/arm_cfft_f32.c ****                 S->rearranged_twiddle_tab_stride1_arr[stage]];
 324:.\DSP\Source\TransformFunctions/arm_cfft_f32.c ****         float32_t const *p_rearranged_twiddle_tab_stride2 =
 325:.\DSP\Source\TransformFunctions/arm_cfft_f32.c ****                 &S->rearranged_twiddle_stride2[
 326:.\DSP\Source\TransformFunctions/arm_cfft_f32.c ****                 S->rearranged_twiddle_tab_stride2_arr[stage]];
 327:.\DSP\Source\TransformFunctions/arm_cfft_f32.c ****         float32_t const *p_rearranged_twiddle_tab_stride3 =
 328:.\DSP\Source\TransformFunctions/arm_cfft_f32.c ****                 &S->rearranged_twiddle_stride3[
 329:.\DSP\Source\TransformFunctions/arm_cfft_f32.c ****                 S->rearranged_twiddle_tab_stride3_arr[stage]];
 330:.\DSP\Source\TransformFunctions/arm_cfft_f32.c **** 
 331:.\DSP\Source\TransformFunctions/arm_cfft_f32.c ****         float32_t * pBase = pSrc;
 332:.\DSP\Source\TransformFunctions/arm_cfft_f32.c ****         for (int i = 0; i < iter; i++)
 333:.\DSP\Source\TransformFunctions/arm_cfft_f32.c ****         {
 334:.\DSP\Source\TransformFunctions/arm_cfft_f32.c ****             float32_t    *inA = pBase;
 335:.\DSP\Source\TransformFunctions/arm_cfft_f32.c ****             float32_t    *inB = inA + n2 * CMPLX_DIM;
 336:.\DSP\Source\TransformFunctions/arm_cfft_f32.c ****             float32_t    *inC = inB + n2 * CMPLX_DIM;
 337:.\DSP\Source\TransformFunctions/arm_cfft_f32.c ****             float32_t    *inD = inC + n2 * CMPLX_DIM;
 338:.\DSP\Source\TransformFunctions/arm_cfft_f32.c ****             float32_t const *pW1 = p_rearranged_twiddle_tab_stride1;
 339:.\DSP\Source\TransformFunctions/arm_cfft_f32.c ****             float32_t const *pW2 = p_rearranged_twiddle_tab_stride2;
 340:.\DSP\Source\TransformFunctions/arm_cfft_f32.c ****             float32_t const *pW3 = p_rearranged_twiddle_tab_stride3;
 341:.\DSP\Source\TransformFunctions/arm_cfft_f32.c ****             f32x4_t       vecW;
 342:.\DSP\Source\TransformFunctions/arm_cfft_f32.c **** 
 343:.\DSP\Source\TransformFunctions/arm_cfft_f32.c ****             blkCnt = n2 / 2;
 344:.\DSP\Source\TransformFunctions/arm_cfft_f32.c ****             /*
 345:.\DSP\Source\TransformFunctions/arm_cfft_f32.c ****              * load 2 f32 complex pair
 346:.\DSP\Source\TransformFunctions/arm_cfft_f32.c ****              */
 347:.\DSP\Source\TransformFunctions/arm_cfft_f32.c ****             vecA = vldrwq_f32(inA);
 348:.\DSP\Source\TransformFunctions/arm_cfft_f32.c ****             vecC = vldrwq_f32(inC);
 349:.\DSP\Source\TransformFunctions/arm_cfft_f32.c ****             while (blkCnt > 0U)
 350:.\DSP\Source\TransformFunctions/arm_cfft_f32.c ****             {
 351:.\DSP\Source\TransformFunctions/arm_cfft_f32.c ****                 vecB = vldrwq_f32(inB);
 352:.\DSP\Source\TransformFunctions/arm_cfft_f32.c ****                 vecD = vldrwq_f32(inD);
 353:.\DSP\Source\TransformFunctions/arm_cfft_f32.c **** 
 354:.\DSP\Source\TransformFunctions/arm_cfft_f32.c ****                 vecSum0 = vecA + vecC;  /* vecSum0 = vaddq(vecA, vecC) */
 355:.\DSP\Source\TransformFunctions/arm_cfft_f32.c ****                 vecDiff0 = vecA - vecC; /* vecSum0 = vsubq(vecA, vecC) */
 356:.\DSP\Source\TransformFunctions/arm_cfft_f32.c **** 
 357:.\DSP\Source\TransformFunctions/arm_cfft_f32.c ****                 vecSum1 = vecB + vecD;
 358:.\DSP\Source\TransformFunctions/arm_cfft_f32.c ****                 vecDiff1 = vecB - vecD;
 359:.\DSP\Source\TransformFunctions/arm_cfft_f32.c ****                 /*
 360:.\DSP\Source\TransformFunctions/arm_cfft_f32.c ****                  * [ 1 1 1 1 ] * [ A B C D ]' .* 1
 361:.\DSP\Source\TransformFunctions/arm_cfft_f32.c ****                  */
 362:.\DSP\Source\TransformFunctions/arm_cfft_f32.c ****                 vecTmp0 = vecSum0 + vecSum1;
 363:.\DSP\Source\TransformFunctions/arm_cfft_f32.c ****                 vst1q(inA, vecTmp0);
 364:.\DSP\Source\TransformFunctions/arm_cfft_f32.c ****                 inA += 4;
 365:.\DSP\Source\TransformFunctions/arm_cfft_f32.c ****                 /*
 366:.\DSP\Source\TransformFunctions/arm_cfft_f32.c ****                  * [ 1 -1 1 -1 ] * [ A B C D ]'
 367:.\DSP\Source\TransformFunctions/arm_cfft_f32.c ****                  */
 368:.\DSP\Source\TransformFunctions/arm_cfft_f32.c ****                 vecTmp0 = vecSum0 - vecSum1;
 369:.\DSP\Source\TransformFunctions/arm_cfft_f32.c ****                 /*
 370:.\DSP\Source\TransformFunctions/arm_cfft_f32.c ****                  * [ 1 -1 1 -1 ] * [ A B C D ]'.* W1
ARM GAS  C:\Users\IVYLIU~1\AppData\Local\Temp\ccWLNWQl.s 			page 8


 371:.\DSP\Source\TransformFunctions/arm_cfft_f32.c ****                  */
 372:.\DSP\Source\TransformFunctions/arm_cfft_f32.c ****                 vecW = vld1q(pW2);
 373:.\DSP\Source\TransformFunctions/arm_cfft_f32.c ****                 pW2 += 4;
 374:.\DSP\Source\TransformFunctions/arm_cfft_f32.c ****                 vecTmp1 = MVE_CMPLX_MULT_FLT_AxB(vecW, vecTmp0);
 375:.\DSP\Source\TransformFunctions/arm_cfft_f32.c ****                 vst1q(inB, vecTmp1);
 376:.\DSP\Source\TransformFunctions/arm_cfft_f32.c ****                 inB += 4;
 377:.\DSP\Source\TransformFunctions/arm_cfft_f32.c **** 
 378:.\DSP\Source\TransformFunctions/arm_cfft_f32.c ****                 /*
 379:.\DSP\Source\TransformFunctions/arm_cfft_f32.c ****                  * [ 1 -i -1 +i ] * [ A B C D ]'
 380:.\DSP\Source\TransformFunctions/arm_cfft_f32.c ****                  */
 381:.\DSP\Source\TransformFunctions/arm_cfft_f32.c ****                 vecTmp0 = MVE_CMPLX_ADD_A_ixB(vecDiff0, vecDiff1);
 382:.\DSP\Source\TransformFunctions/arm_cfft_f32.c ****                 /*
 383:.\DSP\Source\TransformFunctions/arm_cfft_f32.c ****                  * [ 1 -i -1 +i ] * [ A B C D ]'.* W2
 384:.\DSP\Source\TransformFunctions/arm_cfft_f32.c ****                  */
 385:.\DSP\Source\TransformFunctions/arm_cfft_f32.c ****                 vecW = vld1q(pW1);
 386:.\DSP\Source\TransformFunctions/arm_cfft_f32.c ****                 pW1 += 4;
 387:.\DSP\Source\TransformFunctions/arm_cfft_f32.c ****                 vecTmp1 = MVE_CMPLX_MULT_FLT_AxB(vecW, vecTmp0);
 388:.\DSP\Source\TransformFunctions/arm_cfft_f32.c ****                 vst1q(inC, vecTmp1);
 389:.\DSP\Source\TransformFunctions/arm_cfft_f32.c ****                 inC += 4;
 390:.\DSP\Source\TransformFunctions/arm_cfft_f32.c **** 
 391:.\DSP\Source\TransformFunctions/arm_cfft_f32.c ****                 /*
 392:.\DSP\Source\TransformFunctions/arm_cfft_f32.c ****                  * [ 1 +i -1 -i ] * [ A B C D ]'
 393:.\DSP\Source\TransformFunctions/arm_cfft_f32.c ****                  */
 394:.\DSP\Source\TransformFunctions/arm_cfft_f32.c ****                 vecTmp0 = MVE_CMPLX_SUB_A_ixB(vecDiff0, vecDiff1);
 395:.\DSP\Source\TransformFunctions/arm_cfft_f32.c ****                 /*
 396:.\DSP\Source\TransformFunctions/arm_cfft_f32.c ****                  * [ 1 +i -1 -i ] * [ A B C D ]'.* W3
 397:.\DSP\Source\TransformFunctions/arm_cfft_f32.c ****                  */
 398:.\DSP\Source\TransformFunctions/arm_cfft_f32.c ****                 vecW = vld1q(pW3);
 399:.\DSP\Source\TransformFunctions/arm_cfft_f32.c ****                 pW3 += 4;
 400:.\DSP\Source\TransformFunctions/arm_cfft_f32.c ****                 vecTmp1 = MVE_CMPLX_MULT_FLT_AxB(vecW, vecTmp0);
 401:.\DSP\Source\TransformFunctions/arm_cfft_f32.c ****                 vst1q(inD, vecTmp1);
 402:.\DSP\Source\TransformFunctions/arm_cfft_f32.c ****                 inD += 4;
 403:.\DSP\Source\TransformFunctions/arm_cfft_f32.c **** 
 404:.\DSP\Source\TransformFunctions/arm_cfft_f32.c ****                 vecA = vldrwq_f32(inA);
 405:.\DSP\Source\TransformFunctions/arm_cfft_f32.c ****                 vecC = vldrwq_f32(inC);
 406:.\DSP\Source\TransformFunctions/arm_cfft_f32.c **** 
 407:.\DSP\Source\TransformFunctions/arm_cfft_f32.c ****                 blkCnt--;
 408:.\DSP\Source\TransformFunctions/arm_cfft_f32.c ****             }
 409:.\DSP\Source\TransformFunctions/arm_cfft_f32.c ****             pBase +=  CMPLX_DIM * n1;
 410:.\DSP\Source\TransformFunctions/arm_cfft_f32.c ****         }
 411:.\DSP\Source\TransformFunctions/arm_cfft_f32.c ****         n1 = n2;
 412:.\DSP\Source\TransformFunctions/arm_cfft_f32.c ****         n2 >>= 2u;
 413:.\DSP\Source\TransformFunctions/arm_cfft_f32.c ****         iter = iter << 2;
 414:.\DSP\Source\TransformFunctions/arm_cfft_f32.c ****         stage++;
 415:.\DSP\Source\TransformFunctions/arm_cfft_f32.c ****     }
 416:.\DSP\Source\TransformFunctions/arm_cfft_f32.c **** 
 417:.\DSP\Source\TransformFunctions/arm_cfft_f32.c ****     /*
 418:.\DSP\Source\TransformFunctions/arm_cfft_f32.c ****      * start of Last stage process
 419:.\DSP\Source\TransformFunctions/arm_cfft_f32.c ****      */
 420:.\DSP\Source\TransformFunctions/arm_cfft_f32.c ****     uint32x4_t vecScGathAddr = vld1q_u32 ((uint32_t*)strides);
 421:.\DSP\Source\TransformFunctions/arm_cfft_f32.c ****     vecScGathAddr = vecScGathAddr + (uint32_t) pSrc;
 422:.\DSP\Source\TransformFunctions/arm_cfft_f32.c **** 
 423:.\DSP\Source\TransformFunctions/arm_cfft_f32.c ****     /*
 424:.\DSP\Source\TransformFunctions/arm_cfft_f32.c ****      * load scheduling
 425:.\DSP\Source\TransformFunctions/arm_cfft_f32.c ****      */
 426:.\DSP\Source\TransformFunctions/arm_cfft_f32.c ****     vecA = vldrwq_gather_base_wb_f32(&vecScGathAddr, 64);
 427:.\DSP\Source\TransformFunctions/arm_cfft_f32.c ****     vecC = vldrwq_gather_base_f32(vecScGathAddr, 16);
ARM GAS  C:\Users\IVYLIU~1\AppData\Local\Temp\ccWLNWQl.s 			page 9


 428:.\DSP\Source\TransformFunctions/arm_cfft_f32.c **** 
 429:.\DSP\Source\TransformFunctions/arm_cfft_f32.c ****     blkCnt = (fftLen >> 3);
 430:.\DSP\Source\TransformFunctions/arm_cfft_f32.c ****     while (blkCnt > 0U)
 431:.\DSP\Source\TransformFunctions/arm_cfft_f32.c ****     {
 432:.\DSP\Source\TransformFunctions/arm_cfft_f32.c ****         vecSum0 = vecA + vecC;  /* vecSum0 = vaddq(vecA, vecC) */
 433:.\DSP\Source\TransformFunctions/arm_cfft_f32.c ****         vecDiff0 = vecA - vecC; /* vecSum0 = vsubq(vecA, vecC) */
 434:.\DSP\Source\TransformFunctions/arm_cfft_f32.c **** 
 435:.\DSP\Source\TransformFunctions/arm_cfft_f32.c ****         vecB = vldrwq_gather_base_f32(vecScGathAddr, 8);
 436:.\DSP\Source\TransformFunctions/arm_cfft_f32.c ****         vecD = vldrwq_gather_base_f32(vecScGathAddr, 24);
 437:.\DSP\Source\TransformFunctions/arm_cfft_f32.c **** 
 438:.\DSP\Source\TransformFunctions/arm_cfft_f32.c ****         vecSum1 = vecB + vecD;
 439:.\DSP\Source\TransformFunctions/arm_cfft_f32.c ****         vecDiff1 = vecB - vecD;
 440:.\DSP\Source\TransformFunctions/arm_cfft_f32.c **** 
 441:.\DSP\Source\TransformFunctions/arm_cfft_f32.c ****         vecA = vldrwq_gather_base_wb_f32(&vecScGathAddr, 64);
 442:.\DSP\Source\TransformFunctions/arm_cfft_f32.c ****         vecC = vldrwq_gather_base_f32(vecScGathAddr, 16);
 443:.\DSP\Source\TransformFunctions/arm_cfft_f32.c **** 
 444:.\DSP\Source\TransformFunctions/arm_cfft_f32.c ****         vecTmp0 = vecSum0 + vecSum1;
 445:.\DSP\Source\TransformFunctions/arm_cfft_f32.c ****         vecTmp0 = vecTmp0 * onebyfftLen;
 446:.\DSP\Source\TransformFunctions/arm_cfft_f32.c ****         vstrwq_scatter_base_f32(vecScGathAddr, -64, vecTmp0);
 447:.\DSP\Source\TransformFunctions/arm_cfft_f32.c **** 
 448:.\DSP\Source\TransformFunctions/arm_cfft_f32.c ****         vecTmp0 = vecSum0 - vecSum1;
 449:.\DSP\Source\TransformFunctions/arm_cfft_f32.c ****         vecTmp0 = vecTmp0 * onebyfftLen;
 450:.\DSP\Source\TransformFunctions/arm_cfft_f32.c ****         vstrwq_scatter_base_f32(vecScGathAddr, -64 + 8, vecTmp0);
 451:.\DSP\Source\TransformFunctions/arm_cfft_f32.c **** 
 452:.\DSP\Source\TransformFunctions/arm_cfft_f32.c ****         vecTmp0 = MVE_CMPLX_ADD_A_ixB(vecDiff0, vecDiff1);
 453:.\DSP\Source\TransformFunctions/arm_cfft_f32.c ****         vecTmp0 = vecTmp0 * onebyfftLen;
 454:.\DSP\Source\TransformFunctions/arm_cfft_f32.c ****         vstrwq_scatter_base_f32(vecScGathAddr, -64 + 16, vecTmp0);
 455:.\DSP\Source\TransformFunctions/arm_cfft_f32.c **** 
 456:.\DSP\Source\TransformFunctions/arm_cfft_f32.c ****         vecTmp0 = MVE_CMPLX_SUB_A_ixB(vecDiff0, vecDiff1);
 457:.\DSP\Source\TransformFunctions/arm_cfft_f32.c ****         vecTmp0 = vecTmp0 * onebyfftLen;
 458:.\DSP\Source\TransformFunctions/arm_cfft_f32.c ****         vstrwq_scatter_base_f32(vecScGathAddr, -64 + 24, vecTmp0);
 459:.\DSP\Source\TransformFunctions/arm_cfft_f32.c **** 
 460:.\DSP\Source\TransformFunctions/arm_cfft_f32.c ****         blkCnt--;
 461:.\DSP\Source\TransformFunctions/arm_cfft_f32.c ****     }
 462:.\DSP\Source\TransformFunctions/arm_cfft_f32.c **** 
 463:.\DSP\Source\TransformFunctions/arm_cfft_f32.c ****     /*
 464:.\DSP\Source\TransformFunctions/arm_cfft_f32.c ****      * End of last stage process
 465:.\DSP\Source\TransformFunctions/arm_cfft_f32.c ****      */
 466:.\DSP\Source\TransformFunctions/arm_cfft_f32.c **** }
 467:.\DSP\Source\TransformFunctions/arm_cfft_f32.c **** 
 468:.\DSP\Source\TransformFunctions/arm_cfft_f32.c **** static void arm_cfft_radix4by2_inverse_f32_mve(const arm_cfft_instance_f32 * S,float32_t *pSrc, uin
 469:.\DSP\Source\TransformFunctions/arm_cfft_f32.c **** {
 470:.\DSP\Source\TransformFunctions/arm_cfft_f32.c ****     float32_t const *pCoefVec;
 471:.\DSP\Source\TransformFunctions/arm_cfft_f32.c ****     float32_t const  *pCoef = S->pTwiddle;
 472:.\DSP\Source\TransformFunctions/arm_cfft_f32.c ****     float32_t        *pIn0, *pIn1;
 473:.\DSP\Source\TransformFunctions/arm_cfft_f32.c ****     uint32_t          n2;
 474:.\DSP\Source\TransformFunctions/arm_cfft_f32.c ****     float32_t         onebyfftLen = arm_inverse_fft_length_f32(fftLen);
 475:.\DSP\Source\TransformFunctions/arm_cfft_f32.c ****     uint32_t          blkCnt;
 476:.\DSP\Source\TransformFunctions/arm_cfft_f32.c ****     f32x4_t         vecIn0, vecIn1, vecSum, vecDiff;
 477:.\DSP\Source\TransformFunctions/arm_cfft_f32.c ****     f32x4_t         vecCmplxTmp, vecTw;
 478:.\DSP\Source\TransformFunctions/arm_cfft_f32.c **** 
 479:.\DSP\Source\TransformFunctions/arm_cfft_f32.c **** 
 480:.\DSP\Source\TransformFunctions/arm_cfft_f32.c ****     n2 = fftLen >> 1;
 481:.\DSP\Source\TransformFunctions/arm_cfft_f32.c ****     pIn0 = pSrc;
 482:.\DSP\Source\TransformFunctions/arm_cfft_f32.c ****     pIn1 = pSrc + fftLen;
 483:.\DSP\Source\TransformFunctions/arm_cfft_f32.c ****     pCoefVec = pCoef;
 484:.\DSP\Source\TransformFunctions/arm_cfft_f32.c **** 
ARM GAS  C:\Users\IVYLIU~1\AppData\Local\Temp\ccWLNWQl.s 			page 10


 485:.\DSP\Source\TransformFunctions/arm_cfft_f32.c ****     blkCnt = n2 / 2;
 486:.\DSP\Source\TransformFunctions/arm_cfft_f32.c ****     while (blkCnt > 0U)
 487:.\DSP\Source\TransformFunctions/arm_cfft_f32.c ****     {
 488:.\DSP\Source\TransformFunctions/arm_cfft_f32.c ****         vecIn0 = *(f32x4_t *) pIn0;
 489:.\DSP\Source\TransformFunctions/arm_cfft_f32.c ****         vecIn1 = *(f32x4_t *) pIn1;
 490:.\DSP\Source\TransformFunctions/arm_cfft_f32.c ****         vecTw = vld1q(pCoefVec);
 491:.\DSP\Source\TransformFunctions/arm_cfft_f32.c ****         pCoefVec += 4;
 492:.\DSP\Source\TransformFunctions/arm_cfft_f32.c **** 
 493:.\DSP\Source\TransformFunctions/arm_cfft_f32.c ****         vecSum = vecIn0 + vecIn1;
 494:.\DSP\Source\TransformFunctions/arm_cfft_f32.c ****         vecDiff = vecIn0 - vecIn1;
 495:.\DSP\Source\TransformFunctions/arm_cfft_f32.c **** 
 496:.\DSP\Source\TransformFunctions/arm_cfft_f32.c ****         vecCmplxTmp = MVE_CMPLX_MULT_FLT_AxB(vecTw, vecDiff);
 497:.\DSP\Source\TransformFunctions/arm_cfft_f32.c **** 
 498:.\DSP\Source\TransformFunctions/arm_cfft_f32.c ****         vst1q(pIn0, vecSum);
 499:.\DSP\Source\TransformFunctions/arm_cfft_f32.c ****         pIn0 += 4;
 500:.\DSP\Source\TransformFunctions/arm_cfft_f32.c ****         vst1q(pIn1, vecCmplxTmp);
 501:.\DSP\Source\TransformFunctions/arm_cfft_f32.c ****         pIn1 += 4;
 502:.\DSP\Source\TransformFunctions/arm_cfft_f32.c **** 
 503:.\DSP\Source\TransformFunctions/arm_cfft_f32.c ****         blkCnt--;
 504:.\DSP\Source\TransformFunctions/arm_cfft_f32.c ****     }
 505:.\DSP\Source\TransformFunctions/arm_cfft_f32.c **** 
 506:.\DSP\Source\TransformFunctions/arm_cfft_f32.c ****     _arm_radix4_butterfly_inverse_f32_mve(S, pSrc, n2, onebyfftLen);
 507:.\DSP\Source\TransformFunctions/arm_cfft_f32.c **** 
 508:.\DSP\Source\TransformFunctions/arm_cfft_f32.c ****     _arm_radix4_butterfly_inverse_f32_mve(S, pSrc + fftLen, n2, onebyfftLen);
 509:.\DSP\Source\TransformFunctions/arm_cfft_f32.c **** }
 510:.\DSP\Source\TransformFunctions/arm_cfft_f32.c **** 
 511:.\DSP\Source\TransformFunctions/arm_cfft_f32.c **** 
 512:.\DSP\Source\TransformFunctions/arm_cfft_f32.c **** /**
 513:.\DSP\Source\TransformFunctions/arm_cfft_f32.c ****   @addtogroup ComplexFFT
 514:.\DSP\Source\TransformFunctions/arm_cfft_f32.c ****   @{
 515:.\DSP\Source\TransformFunctions/arm_cfft_f32.c ****  */
 516:.\DSP\Source\TransformFunctions/arm_cfft_f32.c **** 
 517:.\DSP\Source\TransformFunctions/arm_cfft_f32.c **** /**
 518:.\DSP\Source\TransformFunctions/arm_cfft_f32.c ****   @brief         Processing function for the floating-point complex FFT.
 519:.\DSP\Source\TransformFunctions/arm_cfft_f32.c ****   @param[in]     S              points to an instance of the floating-point CFFT structure
 520:.\DSP\Source\TransformFunctions/arm_cfft_f32.c ****   @param[in,out] p1             points to the complex data buffer of size <code>2*fftLen</code>. Pr
 521:.\DSP\Source\TransformFunctions/arm_cfft_f32.c ****   @param[in]     ifftFlag       flag that selects transform direction
 522:.\DSP\Source\TransformFunctions/arm_cfft_f32.c ****                    - value = 0: forward transform
 523:.\DSP\Source\TransformFunctions/arm_cfft_f32.c ****                    - value = 1: inverse transform
 524:.\DSP\Source\TransformFunctions/arm_cfft_f32.c ****   @param[in]     bitReverseFlag flag that enables / disables bit reversal of output
 525:.\DSP\Source\TransformFunctions/arm_cfft_f32.c ****                    - value = 0: disables bit reversal of output
 526:.\DSP\Source\TransformFunctions/arm_cfft_f32.c ****                    - value = 1: enables bit reversal of output
 527:.\DSP\Source\TransformFunctions/arm_cfft_f32.c ****   @return        none
 528:.\DSP\Source\TransformFunctions/arm_cfft_f32.c ****  */
 529:.\DSP\Source\TransformFunctions/arm_cfft_f32.c **** 
 530:.\DSP\Source\TransformFunctions/arm_cfft_f32.c **** 
 531:.\DSP\Source\TransformFunctions/arm_cfft_f32.c **** void arm_cfft_f32(
 532:.\DSP\Source\TransformFunctions/arm_cfft_f32.c ****   const arm_cfft_instance_f32 * S,
 533:.\DSP\Source\TransformFunctions/arm_cfft_f32.c ****         float32_t * pSrc,
 534:.\DSP\Source\TransformFunctions/arm_cfft_f32.c ****         uint8_t ifftFlag,
 535:.\DSP\Source\TransformFunctions/arm_cfft_f32.c ****         uint8_t bitReverseFlag)
 536:.\DSP\Source\TransformFunctions/arm_cfft_f32.c **** {
 537:.\DSP\Source\TransformFunctions/arm_cfft_f32.c ****         uint32_t fftLen = S->fftLen;
 538:.\DSP\Source\TransformFunctions/arm_cfft_f32.c **** 
 539:.\DSP\Source\TransformFunctions/arm_cfft_f32.c ****         if (ifftFlag == 1U) {
 540:.\DSP\Source\TransformFunctions/arm_cfft_f32.c **** 
 541:.\DSP\Source\TransformFunctions/arm_cfft_f32.c ****             switch (fftLen) {
ARM GAS  C:\Users\IVYLIU~1\AppData\Local\Temp\ccWLNWQl.s 			page 11


 542:.\DSP\Source\TransformFunctions/arm_cfft_f32.c ****             case 16:
 543:.\DSP\Source\TransformFunctions/arm_cfft_f32.c ****             case 64:
 544:.\DSP\Source\TransformFunctions/arm_cfft_f32.c ****             case 256:
 545:.\DSP\Source\TransformFunctions/arm_cfft_f32.c ****             case 1024:
 546:.\DSP\Source\TransformFunctions/arm_cfft_f32.c ****             case 4096:
 547:.\DSP\Source\TransformFunctions/arm_cfft_f32.c ****                 _arm_radix4_butterfly_inverse_f32_mve(S, pSrc, fftLen, arm_inverse_fft_length_f32(S
 548:.\DSP\Source\TransformFunctions/arm_cfft_f32.c ****                 break;
 549:.\DSP\Source\TransformFunctions/arm_cfft_f32.c **** 
 550:.\DSP\Source\TransformFunctions/arm_cfft_f32.c ****             case 32:
 551:.\DSP\Source\TransformFunctions/arm_cfft_f32.c ****             case 128:
 552:.\DSP\Source\TransformFunctions/arm_cfft_f32.c ****             case 512:
 553:.\DSP\Source\TransformFunctions/arm_cfft_f32.c ****             case 2048:
 554:.\DSP\Source\TransformFunctions/arm_cfft_f32.c ****                 arm_cfft_radix4by2_inverse_f32_mve(S, pSrc, fftLen);
 555:.\DSP\Source\TransformFunctions/arm_cfft_f32.c ****                 break;
 556:.\DSP\Source\TransformFunctions/arm_cfft_f32.c ****             }
 557:.\DSP\Source\TransformFunctions/arm_cfft_f32.c ****         } else {
 558:.\DSP\Source\TransformFunctions/arm_cfft_f32.c ****             switch (fftLen) {
 559:.\DSP\Source\TransformFunctions/arm_cfft_f32.c ****             case 16:
 560:.\DSP\Source\TransformFunctions/arm_cfft_f32.c ****             case 64:
 561:.\DSP\Source\TransformFunctions/arm_cfft_f32.c ****             case 256:
 562:.\DSP\Source\TransformFunctions/arm_cfft_f32.c ****             case 1024:
 563:.\DSP\Source\TransformFunctions/arm_cfft_f32.c ****             case 4096:
 564:.\DSP\Source\TransformFunctions/arm_cfft_f32.c ****                 _arm_radix4_butterfly_f32_mve(S, pSrc, fftLen);
 565:.\DSP\Source\TransformFunctions/arm_cfft_f32.c ****                 break;
 566:.\DSP\Source\TransformFunctions/arm_cfft_f32.c **** 
 567:.\DSP\Source\TransformFunctions/arm_cfft_f32.c ****             case 32:
 568:.\DSP\Source\TransformFunctions/arm_cfft_f32.c ****             case 128:
 569:.\DSP\Source\TransformFunctions/arm_cfft_f32.c ****             case 512:
 570:.\DSP\Source\TransformFunctions/arm_cfft_f32.c ****             case 2048:
 571:.\DSP\Source\TransformFunctions/arm_cfft_f32.c ****                 arm_cfft_radix4by2_f32_mve(S, pSrc, fftLen);
 572:.\DSP\Source\TransformFunctions/arm_cfft_f32.c ****                 break;
 573:.\DSP\Source\TransformFunctions/arm_cfft_f32.c ****             }
 574:.\DSP\Source\TransformFunctions/arm_cfft_f32.c ****         }
 575:.\DSP\Source\TransformFunctions/arm_cfft_f32.c **** 
 576:.\DSP\Source\TransformFunctions/arm_cfft_f32.c **** 
 577:.\DSP\Source\TransformFunctions/arm_cfft_f32.c ****         if (bitReverseFlag)
 578:.\DSP\Source\TransformFunctions/arm_cfft_f32.c ****         {
 579:.\DSP\Source\TransformFunctions/arm_cfft_f32.c **** 
 580:.\DSP\Source\TransformFunctions/arm_cfft_f32.c ****             arm_bitreversal_32_inpl_mve((uint32_t*)pSrc, S->bitRevLength, S->pBitRevTable);
 581:.\DSP\Source\TransformFunctions/arm_cfft_f32.c **** 
 582:.\DSP\Source\TransformFunctions/arm_cfft_f32.c ****         }
 583:.\DSP\Source\TransformFunctions/arm_cfft_f32.c **** }
 584:.\DSP\Source\TransformFunctions/arm_cfft_f32.c **** 
 585:.\DSP\Source\TransformFunctions/arm_cfft_f32.c **** 
 586:.\DSP\Source\TransformFunctions/arm_cfft_f32.c **** #else
 587:.\DSP\Source\TransformFunctions/arm_cfft_f32.c **** extern void arm_radix8_butterfly_f32(
 588:.\DSP\Source\TransformFunctions/arm_cfft_f32.c ****         float32_t * pSrc,
 589:.\DSP\Source\TransformFunctions/arm_cfft_f32.c ****         uint16_t fftLen,
 590:.\DSP\Source\TransformFunctions/arm_cfft_f32.c ****   const float32_t * pCoef,
 591:.\DSP\Source\TransformFunctions/arm_cfft_f32.c ****         uint16_t twidCoefModifier);
 592:.\DSP\Source\TransformFunctions/arm_cfft_f32.c **** 
 593:.\DSP\Source\TransformFunctions/arm_cfft_f32.c **** extern void arm_bitreversal_32(
 594:.\DSP\Source\TransformFunctions/arm_cfft_f32.c ****         uint32_t * pSrc,
 595:.\DSP\Source\TransformFunctions/arm_cfft_f32.c ****   const uint16_t bitRevLen,
 596:.\DSP\Source\TransformFunctions/arm_cfft_f32.c ****   const uint16_t * pBitRevTable);
 597:.\DSP\Source\TransformFunctions/arm_cfft_f32.c **** 
 598:.\DSP\Source\TransformFunctions/arm_cfft_f32.c **** /**
ARM GAS  C:\Users\IVYLIU~1\AppData\Local\Temp\ccWLNWQl.s 			page 12


 599:.\DSP\Source\TransformFunctions/arm_cfft_f32.c ****   @ingroup groupTransforms
 600:.\DSP\Source\TransformFunctions/arm_cfft_f32.c ****  */
 601:.\DSP\Source\TransformFunctions/arm_cfft_f32.c **** 
 602:.\DSP\Source\TransformFunctions/arm_cfft_f32.c **** /**
 603:.\DSP\Source\TransformFunctions/arm_cfft_f32.c ****   @defgroup ComplexFFT Complex FFT Functions
 604:.\DSP\Source\TransformFunctions/arm_cfft_f32.c **** 
 605:.\DSP\Source\TransformFunctions/arm_cfft_f32.c ****   @par
 606:.\DSP\Source\TransformFunctions/arm_cfft_f32.c ****                    The Fast Fourier Transform (FFT) is an efficient algorithm for computing the
 607:.\DSP\Source\TransformFunctions/arm_cfft_f32.c ****                    Discrete Fourier Transform (DFT).  The FFT can be orders of magnitude faster
 608:.\DSP\Source\TransformFunctions/arm_cfft_f32.c ****                    than the DFT, especially for long lengths.
 609:.\DSP\Source\TransformFunctions/arm_cfft_f32.c ****                    The algorithms described in this section
 610:.\DSP\Source\TransformFunctions/arm_cfft_f32.c ****                    operate on complex data.  A separate set of functions is devoted to handling
 611:.\DSP\Source\TransformFunctions/arm_cfft_f32.c ****                    of real sequences.
 612:.\DSP\Source\TransformFunctions/arm_cfft_f32.c ****   @par
 613:.\DSP\Source\TransformFunctions/arm_cfft_f32.c ****                    There are separate algorithms for handling floating-point, Q15, and Q31 data
 614:.\DSP\Source\TransformFunctions/arm_cfft_f32.c ****                    types.  The algorithms available for each data type are described next.
 615:.\DSP\Source\TransformFunctions/arm_cfft_f32.c ****   @par
 616:.\DSP\Source\TransformFunctions/arm_cfft_f32.c ****                    The FFT functions operate in-place.  That is, the array holding the input data
 617:.\DSP\Source\TransformFunctions/arm_cfft_f32.c ****                    will also be used to hold the corresponding result.  The input data is complex
 618:.\DSP\Source\TransformFunctions/arm_cfft_f32.c ****                    and contains <code>2*fftLen</code> interleaved values as shown below.
 619:.\DSP\Source\TransformFunctions/arm_cfft_f32.c ****                    <pre>{real[0], imag[0], real[1], imag[1], ...} </pre>
 620:.\DSP\Source\TransformFunctions/arm_cfft_f32.c ****                    The FFT result will be contained in the same array and the frequency domain
 621:.\DSP\Source\TransformFunctions/arm_cfft_f32.c ****                    values will have the same interleaving.
 622:.\DSP\Source\TransformFunctions/arm_cfft_f32.c **** 
 623:.\DSP\Source\TransformFunctions/arm_cfft_f32.c ****   @par Floating-point
 624:.\DSP\Source\TransformFunctions/arm_cfft_f32.c ****                    The floating-point complex FFT uses a mixed-radix algorithm.  Multiple radix-8
 625:.\DSP\Source\TransformFunctions/arm_cfft_f32.c ****                    stages are performed along with a single radix-2 or radix-4 stage, as needed.
 626:.\DSP\Source\TransformFunctions/arm_cfft_f32.c ****                    The algorithm supports lengths of [16, 32, 64, ..., 4096] and each length uses
 627:.\DSP\Source\TransformFunctions/arm_cfft_f32.c ****                    a different twiddle factor table.
 628:.\DSP\Source\TransformFunctions/arm_cfft_f32.c ****   @par
 629:.\DSP\Source\TransformFunctions/arm_cfft_f32.c ****                    The function uses the standard FFT definition and output values may grow by a
 630:.\DSP\Source\TransformFunctions/arm_cfft_f32.c ****                    factor of <code>fftLen</code> when computing the forward transform.  The
 631:.\DSP\Source\TransformFunctions/arm_cfft_f32.c ****                    inverse transform includes a scale of <code>1/fftLen</code> as part of the
 632:.\DSP\Source\TransformFunctions/arm_cfft_f32.c ****                    calculation and this matches the textbook definition of the inverse FFT.
 633:.\DSP\Source\TransformFunctions/arm_cfft_f32.c ****   @par
 634:.\DSP\Source\TransformFunctions/arm_cfft_f32.c ****                    For the MVE version, the new arm_cfft_init_f32 initialization function is
 635:.\DSP\Source\TransformFunctions/arm_cfft_f32.c ****                    <b>mandatory</b>. <b>Compilation flags are available to include only the require
 636:.\DSP\Source\TransformFunctions/arm_cfft_f32.c ****                    needed FFTs.</b> Other FFT versions can continue to be initialized as
 637:.\DSP\Source\TransformFunctions/arm_cfft_f32.c ****                    explained below.
 638:.\DSP\Source\TransformFunctions/arm_cfft_f32.c ****   @par
 639:.\DSP\Source\TransformFunctions/arm_cfft_f32.c ****                    For not MVE versions, pre-initialized data structures containing twiddle factors
 640:.\DSP\Source\TransformFunctions/arm_cfft_f32.c ****                    and bit reversal tables are provided and defined in <code>arm_const_structs.h</c
 641:.\DSP\Source\TransformFunctions/arm_cfft_f32.c ****                    this header in your function and then pass one of the constant structures as
 642:.\DSP\Source\TransformFunctions/arm_cfft_f32.c ****                    an argument to arm_cfft_f32.  For example:
 643:.\DSP\Source\TransformFunctions/arm_cfft_f32.c ****   @par
 644:.\DSP\Source\TransformFunctions/arm_cfft_f32.c ****                    <code>arm_cfft_f32(arm_cfft_sR_f32_len64, pSrc, 1, 1)</code>
 645:.\DSP\Source\TransformFunctions/arm_cfft_f32.c ****   @par
 646:.\DSP\Source\TransformFunctions/arm_cfft_f32.c ****                    computes a 64-point inverse complex FFT including bit reversal.
 647:.\DSP\Source\TransformFunctions/arm_cfft_f32.c ****                    The data structures are treated as constant data and not modified during the
 648:.\DSP\Source\TransformFunctions/arm_cfft_f32.c ****                    calculation.  The same data structure can be reused for multiple transforms
 649:.\DSP\Source\TransformFunctions/arm_cfft_f32.c ****                    including mixing forward and inverse transforms.
 650:.\DSP\Source\TransformFunctions/arm_cfft_f32.c ****   @par
 651:.\DSP\Source\TransformFunctions/arm_cfft_f32.c ****                    Earlier releases of the library provided separate radix-2 and radix-4
 652:.\DSP\Source\TransformFunctions/arm_cfft_f32.c ****                    algorithms that operated on floating-point data.  These functions are still
 653:.\DSP\Source\TransformFunctions/arm_cfft_f32.c ****                    provided but are deprecated.  The older functions are slower and less general
 654:.\DSP\Source\TransformFunctions/arm_cfft_f32.c ****                    than the new functions.
 655:.\DSP\Source\TransformFunctions/arm_cfft_f32.c ****   @par
ARM GAS  C:\Users\IVYLIU~1\AppData\Local\Temp\ccWLNWQl.s 			page 13


 656:.\DSP\Source\TransformFunctions/arm_cfft_f32.c ****                    An example of initialization of the constants for the arm_cfft_f32 function foll
 657:.\DSP\Source\TransformFunctions/arm_cfft_f32.c ****   @code
 658:.\DSP\Source\TransformFunctions/arm_cfft_f32.c ****                    const static arm_cfft_instance_f32 *S;
 659:.\DSP\Source\TransformFunctions/arm_cfft_f32.c ****                    ...
 660:.\DSP\Source\TransformFunctions/arm_cfft_f32.c ****                      switch (length) {
 661:.\DSP\Source\TransformFunctions/arm_cfft_f32.c ****                        case 16:
 662:.\DSP\Source\TransformFunctions/arm_cfft_f32.c ****                          S = &arm_cfft_sR_f32_len16;
 663:.\DSP\Source\TransformFunctions/arm_cfft_f32.c ****                          break;
 664:.\DSP\Source\TransformFunctions/arm_cfft_f32.c ****                        case 32:
 665:.\DSP\Source\TransformFunctions/arm_cfft_f32.c ****                          S = &arm_cfft_sR_f32_len32;
 666:.\DSP\Source\TransformFunctions/arm_cfft_f32.c ****                          break;
 667:.\DSP\Source\TransformFunctions/arm_cfft_f32.c ****                        case 64:
 668:.\DSP\Source\TransformFunctions/arm_cfft_f32.c ****                          S = &arm_cfft_sR_f32_len64;
 669:.\DSP\Source\TransformFunctions/arm_cfft_f32.c ****                          break;
 670:.\DSP\Source\TransformFunctions/arm_cfft_f32.c ****                        case 128:
 671:.\DSP\Source\TransformFunctions/arm_cfft_f32.c ****                          S = &arm_cfft_sR_f32_len128;
 672:.\DSP\Source\TransformFunctions/arm_cfft_f32.c ****                          break;
 673:.\DSP\Source\TransformFunctions/arm_cfft_f32.c ****                        case 256:
 674:.\DSP\Source\TransformFunctions/arm_cfft_f32.c ****                          S = &arm_cfft_sR_f32_len256;
 675:.\DSP\Source\TransformFunctions/arm_cfft_f32.c ****                          break;
 676:.\DSP\Source\TransformFunctions/arm_cfft_f32.c ****                        case 512:
 677:.\DSP\Source\TransformFunctions/arm_cfft_f32.c ****                          S = &arm_cfft_sR_f32_len512;
 678:.\DSP\Source\TransformFunctions/arm_cfft_f32.c ****                          break;
 679:.\DSP\Source\TransformFunctions/arm_cfft_f32.c ****                        case 1024:
 680:.\DSP\Source\TransformFunctions/arm_cfft_f32.c ****                          S = &arm_cfft_sR_f32_len1024;
 681:.\DSP\Source\TransformFunctions/arm_cfft_f32.c ****                          break;
 682:.\DSP\Source\TransformFunctions/arm_cfft_f32.c ****                        case 2048:
 683:.\DSP\Source\TransformFunctions/arm_cfft_f32.c ****                          S = &arm_cfft_sR_f32_len2048;
 684:.\DSP\Source\TransformFunctions/arm_cfft_f32.c ****                          break;
 685:.\DSP\Source\TransformFunctions/arm_cfft_f32.c ****                        case 4096:
 686:.\DSP\Source\TransformFunctions/arm_cfft_f32.c ****                          S = &arm_cfft_sR_f32_len4096;
 687:.\DSP\Source\TransformFunctions/arm_cfft_f32.c ****                          break;
 688:.\DSP\Source\TransformFunctions/arm_cfft_f32.c ****                      }
 689:.\DSP\Source\TransformFunctions/arm_cfft_f32.c ****   @endcode
 690:.\DSP\Source\TransformFunctions/arm_cfft_f32.c ****   @par
 691:.\DSP\Source\TransformFunctions/arm_cfft_f32.c ****                    The new arm_cfft_init_f32 can also be used.
 692:.\DSP\Source\TransformFunctions/arm_cfft_f32.c ****   @par Q15 and Q31
 693:.\DSP\Source\TransformFunctions/arm_cfft_f32.c ****                    The floating-point complex FFT uses a mixed-radix algorithm.  Multiple radix-4
 694:.\DSP\Source\TransformFunctions/arm_cfft_f32.c ****                    stages are performed along with a single radix-2 stage, as needed.
 695:.\DSP\Source\TransformFunctions/arm_cfft_f32.c ****                    The algorithm supports lengths of [16, 32, 64, ..., 4096] and each length uses
 696:.\DSP\Source\TransformFunctions/arm_cfft_f32.c ****                    a different twiddle factor table.
 697:.\DSP\Source\TransformFunctions/arm_cfft_f32.c ****   @par
 698:.\DSP\Source\TransformFunctions/arm_cfft_f32.c ****                    The function uses the standard FFT definition and output values may grow by a
 699:.\DSP\Source\TransformFunctions/arm_cfft_f32.c ****                    factor of <code>fftLen</code> when computing the forward transform.  The
 700:.\DSP\Source\TransformFunctions/arm_cfft_f32.c ****                    inverse transform includes a scale of <code>1/fftLen</code> as part of the
 701:.\DSP\Source\TransformFunctions/arm_cfft_f32.c ****                    calculation and this matches the textbook definition of the inverse FFT.
 702:.\DSP\Source\TransformFunctions/arm_cfft_f32.c ****   @par
 703:.\DSP\Source\TransformFunctions/arm_cfft_f32.c ****                    Pre-initialized data structures containing twiddle factors and bit reversal
 704:.\DSP\Source\TransformFunctions/arm_cfft_f32.c ****                    tables are provided and defined in <code>arm_const_structs.h</code>.  Include
 705:.\DSP\Source\TransformFunctions/arm_cfft_f32.c ****                    this header in your function and then pass one of the constant structures as
 706:.\DSP\Source\TransformFunctions/arm_cfft_f32.c ****                    an argument to arm_cfft_q31. For example:
 707:.\DSP\Source\TransformFunctions/arm_cfft_f32.c ****   @par
 708:.\DSP\Source\TransformFunctions/arm_cfft_f32.c ****                    <code>arm_cfft_q31(arm_cfft_sR_q31_len64, pSrc, 1, 1)</code>
 709:.\DSP\Source\TransformFunctions/arm_cfft_f32.c ****   @par
 710:.\DSP\Source\TransformFunctions/arm_cfft_f32.c ****                    computes a 64-point inverse complex FFT including bit reversal.
 711:.\DSP\Source\TransformFunctions/arm_cfft_f32.c ****                    The data structures are treated as constant data and not modified during the
 712:.\DSP\Source\TransformFunctions/arm_cfft_f32.c ****                    calculation.  The same data structure can be reused for multiple transforms
ARM GAS  C:\Users\IVYLIU~1\AppData\Local\Temp\ccWLNWQl.s 			page 14


 713:.\DSP\Source\TransformFunctions/arm_cfft_f32.c ****                    including mixing forward and inverse transforms.
 714:.\DSP\Source\TransformFunctions/arm_cfft_f32.c ****   @par
 715:.\DSP\Source\TransformFunctions/arm_cfft_f32.c ****                    Earlier releases of the library provided separate radix-2 and radix-4
 716:.\DSP\Source\TransformFunctions/arm_cfft_f32.c ****                    algorithms that operated on floating-point data.  These functions are still
 717:.\DSP\Source\TransformFunctions/arm_cfft_f32.c ****                    provided but are deprecated.  The older functions are slower and less general
 718:.\DSP\Source\TransformFunctions/arm_cfft_f32.c ****                    than the new functions.
 719:.\DSP\Source\TransformFunctions/arm_cfft_f32.c ****   @par
 720:.\DSP\Source\TransformFunctions/arm_cfft_f32.c ****                    An example of initialization of the constants for the arm_cfft_q31 function foll
 721:.\DSP\Source\TransformFunctions/arm_cfft_f32.c ****   @code
 722:.\DSP\Source\TransformFunctions/arm_cfft_f32.c ****                    const static arm_cfft_instance_q31 *S;
 723:.\DSP\Source\TransformFunctions/arm_cfft_f32.c ****                    ...
 724:.\DSP\Source\TransformFunctions/arm_cfft_f32.c ****                      switch (length) {
 725:.\DSP\Source\TransformFunctions/arm_cfft_f32.c ****                        case 16:
 726:.\DSP\Source\TransformFunctions/arm_cfft_f32.c ****                          S = &arm_cfft_sR_q31_len16;
 727:.\DSP\Source\TransformFunctions/arm_cfft_f32.c ****                          break;
 728:.\DSP\Source\TransformFunctions/arm_cfft_f32.c ****                        case 32:
 729:.\DSP\Source\TransformFunctions/arm_cfft_f32.c ****                          S = &arm_cfft_sR_q31_len32;
 730:.\DSP\Source\TransformFunctions/arm_cfft_f32.c ****                          break;
 731:.\DSP\Source\TransformFunctions/arm_cfft_f32.c ****                        case 64:
 732:.\DSP\Source\TransformFunctions/arm_cfft_f32.c ****                          S = &arm_cfft_sR_q31_len64;
 733:.\DSP\Source\TransformFunctions/arm_cfft_f32.c ****                          break;
 734:.\DSP\Source\TransformFunctions/arm_cfft_f32.c ****                        case 128:
 735:.\DSP\Source\TransformFunctions/arm_cfft_f32.c ****                          S = &arm_cfft_sR_q31_len128;
 736:.\DSP\Source\TransformFunctions/arm_cfft_f32.c ****                          break;
 737:.\DSP\Source\TransformFunctions/arm_cfft_f32.c ****                        case 256:
 738:.\DSP\Source\TransformFunctions/arm_cfft_f32.c ****                          S = &arm_cfft_sR_q31_len256;
 739:.\DSP\Source\TransformFunctions/arm_cfft_f32.c ****                          break;
 740:.\DSP\Source\TransformFunctions/arm_cfft_f32.c ****                        case 512:
 741:.\DSP\Source\TransformFunctions/arm_cfft_f32.c ****                          S = &arm_cfft_sR_q31_len512;
 742:.\DSP\Source\TransformFunctions/arm_cfft_f32.c ****                          break;
 743:.\DSP\Source\TransformFunctions/arm_cfft_f32.c ****                        case 1024:
 744:.\DSP\Source\TransformFunctions/arm_cfft_f32.c ****                          S = &arm_cfft_sR_q31_len1024;
 745:.\DSP\Source\TransformFunctions/arm_cfft_f32.c ****                          break;
 746:.\DSP\Source\TransformFunctions/arm_cfft_f32.c ****                        case 2048:
 747:.\DSP\Source\TransformFunctions/arm_cfft_f32.c ****                          S = &arm_cfft_sR_q31_len2048;
 748:.\DSP\Source\TransformFunctions/arm_cfft_f32.c ****                          break;
 749:.\DSP\Source\TransformFunctions/arm_cfft_f32.c ****                        case 4096:
 750:.\DSP\Source\TransformFunctions/arm_cfft_f32.c ****                          S = &arm_cfft_sR_q31_len4096;
 751:.\DSP\Source\TransformFunctions/arm_cfft_f32.c ****                          break;
 752:.\DSP\Source\TransformFunctions/arm_cfft_f32.c ****                      }
 753:.\DSP\Source\TransformFunctions/arm_cfft_f32.c ****   @endcode
 754:.\DSP\Source\TransformFunctions/arm_cfft_f32.c **** 
 755:.\DSP\Source\TransformFunctions/arm_cfft_f32.c ****  */
 756:.\DSP\Source\TransformFunctions/arm_cfft_f32.c **** 
 757:.\DSP\Source\TransformFunctions/arm_cfft_f32.c **** void arm_cfft_radix8by2_f32 (arm_cfft_instance_f32 * S, float32_t * p1)
 758:.\DSP\Source\TransformFunctions/arm_cfft_f32.c **** {
  30              		.loc 1 758 0
  31              		.cfi_startproc
  32              		@ args = 0, pretend = 0, frame = 80
  33              		@ frame_needed = 0, uses_anonymous_args = 0
  34              	.LVL0:
  35 0000 8C46     		mov	ip, r1
  36 0002 2DE9F04F 		push	{r4, r5, r6, r7, r8, r9, r10, fp, lr}
  37              		.cfi_def_cfa_offset 36
  38              		.cfi_offset 4, -36
  39              		.cfi_offset 5, -32
  40              		.cfi_offset 6, -28
ARM GAS  C:\Users\IVYLIU~1\AppData\Local\Temp\ccWLNWQl.s 			page 15


  41              		.cfi_offset 7, -24
  42              		.cfi_offset 8, -20
  43              		.cfi_offset 9, -16
  44              		.cfi_offset 10, -12
  45              		.cfi_offset 11, -8
  46              		.cfi_offset 14, -4
 759:.\DSP\Source\TransformFunctions/arm_cfft_f32.c ****   uint32_t    L  = S->fftLen;
  47              		.loc 1 759 0
  48 0006 0288     		ldrh	r2, [r0]
  49              	.LVL1:
 758:.\DSP\Source\TransformFunctions/arm_cfft_f32.c ****   uint32_t    L  = S->fftLen;
  50              		.loc 1 758 0
  51 0008 95B0     		sub	sp, sp, #84
  52              		.cfi_def_cfa_offset 120
 760:.\DSP\Source\TransformFunctions/arm_cfft_f32.c ****   float32_t * pCol1, * pCol2, * pMid1, * pMid2;
 761:.\DSP\Source\TransformFunctions/arm_cfft_f32.c ****   float32_t * p2 = p1 + L;
  53              		.loc 1 761 0
  54 000a 01EB8203 		add	r3, r1, r2, lsl #2
  55 000e 0293     		str	r3, [sp, #8]
  56              	.LVL2:
 762:.\DSP\Source\TransformFunctions/arm_cfft_f32.c ****   const float32_t * tw = (float32_t *) S->pTwiddle;
 763:.\DSP\Source\TransformFunctions/arm_cfft_f32.c ****   float32_t t1[4], t2[4], t3[4], t4[4], twR, twI;
 764:.\DSP\Source\TransformFunctions/arm_cfft_f32.c ****   float32_t m0, m1, m2, m3;
 765:.\DSP\Source\TransformFunctions/arm_cfft_f32.c ****   uint32_t l;
 766:.\DSP\Source\TransformFunctions/arm_cfft_f32.c **** 
 767:.\DSP\Source\TransformFunctions/arm_cfft_f32.c ****   pCol1 = p1;
 768:.\DSP\Source\TransformFunctions/arm_cfft_f32.c ****   pCol2 = p2;
 769:.\DSP\Source\TransformFunctions/arm_cfft_f32.c **** 
 770:.\DSP\Source\TransformFunctions/arm_cfft_f32.c ****   /* Define new length */
 771:.\DSP\Source\TransformFunctions/arm_cfft_f32.c ****   L >>= 1;
  57              		.loc 1 771 0
  58 0010 5108     		lsrs	r1, r2, #1
  59              	.LVL3:
 772:.\DSP\Source\TransformFunctions/arm_cfft_f32.c **** 
 773:.\DSP\Source\TransformFunctions/arm_cfft_f32.c ****   /* Initialize mid pointers */
 774:.\DSP\Source\TransformFunctions/arm_cfft_f32.c ****   pMid1 = p1 + L;
  60              		.loc 1 774 0
  61 0012 8C00     		lsls	r4, r1, #2
 771:.\DSP\Source\TransformFunctions/arm_cfft_f32.c **** 
  62              		.loc 1 771 0
  63 0014 0491     		str	r1, [sp, #16]
 775:.\DSP\Source\TransformFunctions/arm_cfft_f32.c ****   pMid2 = p2 + L;
  64              		.loc 1 775 0
  65 0016 0299     		ldr	r1, [sp, #8]
  66 0018 E346     		mov	fp, ip
  67 001a 8946     		mov	r9, r1
 762:.\DSP\Source\TransformFunctions/arm_cfft_f32.c ****   float32_t t1[4], t2[4], t3[4], t4[4], twR, twI;
  68              		.loc 1 762 0
  69 001c 4368     		ldr	r3, [r0, #4]
  70              	.LVL4:
 776:.\DSP\Source\TransformFunctions/arm_cfft_f32.c **** 
 777:.\DSP\Source\TransformFunctions/arm_cfft_f32.c ****   /* do two dot Fourier transform */
 778:.\DSP\Source\TransformFunctions/arm_cfft_f32.c ****   for (l = L >> 2; l > 0; l-- )
  71              		.loc 1 778 0
  72 001e D208     		lsrs	r2, r2, #3
  73 0020 03EB0212 		add	r2, r3, r2, lsl #4
 774:.\DSP\Source\TransformFunctions/arm_cfft_f32.c ****   pMid2 = p2 + L;
ARM GAS  C:\Users\IVYLIU~1\AppData\Local\Temp\ccWLNWQl.s 			page 16


  74              		.loc 1 774 0
  75 0024 0CEB0405 		add	r5, ip, r4
  76              	.LVL5:
 758:.\DSP\Source\TransformFunctions/arm_cfft_f32.c ****   uint32_t    L  = S->fftLen;
  77              		.loc 1 758 0
  78 0028 0390     		str	r0, [sp, #12]
 775:.\DSP\Source\TransformFunctions/arm_cfft_f32.c **** 
  79              		.loc 1 775 0
  80 002a 0C44     		add	r4, r4, r1
  81              	.LVL6:
  82 002c 1092     		str	r2, [sp, #64]
 762:.\DSP\Source\TransformFunctions/arm_cfft_f32.c ****   float32_t t1[4], t2[4], t3[4], t4[4], twR, twI;
  83              		.loc 1 762 0
  84 002e 0193     		str	r3, [sp, #4]
  85              	.LVL7:
  86              	.L2:
  87              		.loc 1 778 0 discriminator 1
  88 0030 019A     		ldr	r2, [sp, #4]
  89 0032 1099     		ldr	r1, [sp, #64]
  90 0034 0BF1100B 		add	fp, fp, #16
  91 0038 8A42     		cmp	r2, r1
  92 003a 05F11005 		add	r5, r5, #16
  93 003e 04F11004 		add	r4, r4, #16
  94 0042 09F11009 		add	r9, r9, #16
  95 0046 00F00E81 		beq	.L5
  96 004a 1293     		str	r3, [sp, #72]
 779:.\DSP\Source\TransformFunctions/arm_cfft_f32.c ****   {
 780:.\DSP\Source\TransformFunctions/arm_cfft_f32.c ****     t1[0] = p1[0];
  97              		.loc 1 780 0 discriminator 3
  98 004c 5BF8103C 		ldr	r3, [fp, #-16]	@ float
 781:.\DSP\Source\TransformFunctions/arm_cfft_f32.c ****     t1[1] = p1[1];
 782:.\DSP\Source\TransformFunctions/arm_cfft_f32.c ****     t1[2] = p1[2];
 783:.\DSP\Source\TransformFunctions/arm_cfft_f32.c ****     t1[3] = p1[3];
 784:.\DSP\Source\TransformFunctions/arm_cfft_f32.c **** 
 785:.\DSP\Source\TransformFunctions/arm_cfft_f32.c ****     t2[0] = p2[0];
  99              		.loc 1 785 0 discriminator 3
 100 0050 59F8102C 		ldr	r2, [r9, #-16]	@ float
 780:.\DSP\Source\TransformFunctions/arm_cfft_f32.c ****     t1[1] = p1[1];
 101              		.loc 1 780 0 discriminator 3
 102 0054 0593     		str	r3, [sp, #20]	@ float
 103              	.LVL8:
 781:.\DSP\Source\TransformFunctions/arm_cfft_f32.c ****     t1[1] = p1[1];
 104              		.loc 1 781 0 discriminator 3
 105 0056 5BF80C3C 		ldr	r3, [fp, #-12]	@ float
 106              	.LVL9:
 786:.\DSP\Source\TransformFunctions/arm_cfft_f32.c ****     t2[1] = p2[1];
 787:.\DSP\Source\TransformFunctions/arm_cfft_f32.c ****     t2[2] = p2[2];
 788:.\DSP\Source\TransformFunctions/arm_cfft_f32.c ****     t2[3] = p2[3];
 789:.\DSP\Source\TransformFunctions/arm_cfft_f32.c **** 
 790:.\DSP\Source\TransformFunctions/arm_cfft_f32.c ****     t3[0] = pMid1[0];
 791:.\DSP\Source\TransformFunctions/arm_cfft_f32.c ****     t3[1] = pMid1[1];
 792:.\DSP\Source\TransformFunctions/arm_cfft_f32.c ****     t3[2] = pMid1[2];
 793:.\DSP\Source\TransformFunctions/arm_cfft_f32.c ****     t3[3] = pMid1[3];
 794:.\DSP\Source\TransformFunctions/arm_cfft_f32.c **** 
 795:.\DSP\Source\TransformFunctions/arm_cfft_f32.c ****     t4[0] = pMid2[0];
 796:.\DSP\Source\TransformFunctions/arm_cfft_f32.c ****     t4[1] = pMid2[1];
 797:.\DSP\Source\TransformFunctions/arm_cfft_f32.c ****     t4[2] = pMid2[2];
ARM GAS  C:\Users\IVYLIU~1\AppData\Local\Temp\ccWLNWQl.s 			page 17


 798:.\DSP\Source\TransformFunctions/arm_cfft_f32.c ****     t4[3] = pMid2[3];
 799:.\DSP\Source\TransformFunctions/arm_cfft_f32.c **** 
 800:.\DSP\Source\TransformFunctions/arm_cfft_f32.c ****     *p1++ = t1[0] + t2[0];
 107              		.loc 1 800 0 discriminator 3
 108 005a 1146     		mov	r1, r2
 781:.\DSP\Source\TransformFunctions/arm_cfft_f32.c ****     t1[2] = p1[2];
 109              		.loc 1 781 0 discriminator 3
 110 005c 0693     		str	r3, [sp, #24]	@ float
 111              	.LVL10:
 782:.\DSP\Source\TransformFunctions/arm_cfft_f32.c ****     t1[3] = p1[3];
 112              		.loc 1 782 0 discriminator 3
 113 005e 5BF8083C 		ldr	r3, [fp, #-8]	@ float
 114              	.LVL11:
 115              		.loc 1 800 0 discriminator 3
 116 0062 0598     		ldr	r0, [sp, #20]	@ float
 782:.\DSP\Source\TransformFunctions/arm_cfft_f32.c ****     t1[3] = p1[3];
 117              		.loc 1 782 0 discriminator 3
 118 0064 0793     		str	r3, [sp, #28]	@ float
 119              	.LVL12:
 790:.\DSP\Source\TransformFunctions/arm_cfft_f32.c ****     t3[1] = pMid1[1];
 120              		.loc 1 790 0 discriminator 3
 121 0066 55F8103C 		ldr	r3, [r5, #-16]	@ float
 122              	.LVL13:
 123 006a CDF84CC0 		str	ip, [sp, #76]
 124 006e 0893     		str	r3, [sp, #32]	@ float
 791:.\DSP\Source\TransformFunctions/arm_cfft_f32.c ****     t3[2] = pMid1[2];
 125              		.loc 1 791 0 discriminator 3
 126 0070 55F80C3C 		ldr	r3, [r5, #-12]	@ float
 127              		.loc 1 800 0 discriminator 3
 128 0074 1192     		str	r2, [sp, #68]
 791:.\DSP\Source\TransformFunctions/arm_cfft_f32.c ****     t3[2] = pMid1[2];
 129              		.loc 1 791 0 discriminator 3
 130 0076 0993     		str	r3, [sp, #36]	@ float
 792:.\DSP\Source\TransformFunctions/arm_cfft_f32.c ****     t3[3] = pMid1[3];
 131              		.loc 1 792 0 discriminator 3
 132 0078 55F8083C 		ldr	r3, [r5, #-8]	@ float
 786:.\DSP\Source\TransformFunctions/arm_cfft_f32.c ****     t2[2] = p2[2];
 133              		.loc 1 786 0 discriminator 3
 134 007c 59F80CAC 		ldr	r10, [r9, #-12]	@ float
 792:.\DSP\Source\TransformFunctions/arm_cfft_f32.c ****     t3[3] = pMid1[3];
 135              		.loc 1 792 0 discriminator 3
 136 0080 0A93     		str	r3, [sp, #40]	@ float
 793:.\DSP\Source\TransformFunctions/arm_cfft_f32.c **** 
 137              		.loc 1 793 0 discriminator 3
 138 0082 55F8043C 		ldr	r3, [r5, #-4]	@ float
 787:.\DSP\Source\TransformFunctions/arm_cfft_f32.c ****     t2[3] = p2[3];
 139              		.loc 1 787 0 discriminator 3
 140 0086 59F8088C 		ldr	r8, [r9, #-8]	@ float
 793:.\DSP\Source\TransformFunctions/arm_cfft_f32.c **** 
 141              		.loc 1 793 0 discriminator 3
 142 008a 0B93     		str	r3, [sp, #44]	@ float
 795:.\DSP\Source\TransformFunctions/arm_cfft_f32.c ****     t4[1] = pMid2[1];
 143              		.loc 1 795 0 discriminator 3
 144 008c 54F8103C 		ldr	r3, [r4, #-16]	@ float
 788:.\DSP\Source\TransformFunctions/arm_cfft_f32.c **** 
 145              		.loc 1 788 0 discriminator 3
 146 0090 59F8046C 		ldr	r6, [r9, #-4]	@ float
ARM GAS  C:\Users\IVYLIU~1\AppData\Local\Temp\ccWLNWQl.s 			page 18


 795:.\DSP\Source\TransformFunctions/arm_cfft_f32.c ****     t4[1] = pMid2[1];
 147              		.loc 1 795 0 discriminator 3
 148 0094 0C93     		str	r3, [sp, #48]	@ float
 796:.\DSP\Source\TransformFunctions/arm_cfft_f32.c ****     t4[2] = pMid2[2];
 149              		.loc 1 796 0 discriminator 3
 150 0096 54F80C3C 		ldr	r3, [r4, #-12]	@ float
 783:.\DSP\Source\TransformFunctions/arm_cfft_f32.c **** 
 151              		.loc 1 783 0 discriminator 3
 152 009a 5BF8047C 		ldr	r7, [fp, #-4]	@ float
 153              	.LVL14:
 796:.\DSP\Source\TransformFunctions/arm_cfft_f32.c ****     t4[2] = pMid2[2];
 154              		.loc 1 796 0 discriminator 3
 155 009e 0D93     		str	r3, [sp, #52]	@ float
 156              	.LVL15:
 797:.\DSP\Source\TransformFunctions/arm_cfft_f32.c ****     t4[3] = pMid2[3];
 157              		.loc 1 797 0 discriminator 3
 158 00a0 54F8083C 		ldr	r3, [r4, #-8]	@ float
 159              	.LVL16:
 160 00a4 0E93     		str	r3, [sp, #56]	@ float
 161              	.LVL17:
 798:.\DSP\Source\TransformFunctions/arm_cfft_f32.c **** 
 162              		.loc 1 798 0 discriminator 3
 163 00a6 54F8043C 		ldr	r3, [r4, #-4]	@ float
 164              	.LVL18:
 165 00aa 0F93     		str	r3, [sp, #60]	@ float
 166              	.LVL19:
 167              		.loc 1 800 0 discriminator 3
 168 00ac FFF7FEFF 		bl	__aeabi_fadd
 169              	.LVL20:
 801:.\DSP\Source\TransformFunctions/arm_cfft_f32.c ****     *p1++ = t1[1] + t2[1];
 170              		.loc 1 801 0 discriminator 3
 171 00b0 5146     		mov	r1, r10
 800:.\DSP\Source\TransformFunctions/arm_cfft_f32.c ****     *p1++ = t1[1] + t2[1];
 172              		.loc 1 800 0 discriminator 3
 173 00b2 4BF8100C 		str	r0, [fp, #-16]	@ float
 174              		.loc 1 801 0 discriminator 3
 175 00b6 0698     		ldr	r0, [sp, #24]	@ float
 176 00b8 FFF7FEFF 		bl	__aeabi_fadd
 177              	.LVL21:
 802:.\DSP\Source\TransformFunctions/arm_cfft_f32.c ****     *p1++ = t1[2] + t2[2];
 178              		.loc 1 802 0 discriminator 3
 179 00bc 4146     		mov	r1, r8
 801:.\DSP\Source\TransformFunctions/arm_cfft_f32.c ****     *p1++ = t1[1] + t2[1];
 180              		.loc 1 801 0 discriminator 3
 181 00be 4BF80C0C 		str	r0, [fp, #-12]	@ float
 182              		.loc 1 802 0 discriminator 3
 183 00c2 0798     		ldr	r0, [sp, #28]	@ float
 184 00c4 FFF7FEFF 		bl	__aeabi_fadd
 185              	.LVL22:
 803:.\DSP\Source\TransformFunctions/arm_cfft_f32.c ****     *p1++ = t1[3] + t2[3];    /* col 1 */
 186              		.loc 1 803 0 discriminator 3
 187 00c8 3146     		mov	r1, r6
 802:.\DSP\Source\TransformFunctions/arm_cfft_f32.c ****     *p1++ = t1[2] + t2[2];
 188              		.loc 1 802 0 discriminator 3
 189 00ca 4BF8080C 		str	r0, [fp, #-8]	@ float
 190              		.loc 1 803 0 discriminator 3
 191 00ce 3846     		mov	r0, r7
ARM GAS  C:\Users\IVYLIU~1\AppData\Local\Temp\ccWLNWQl.s 			page 19


 192 00d0 FFF7FEFF 		bl	__aeabi_fadd
 193              	.LVL23:
 804:.\DSP\Source\TransformFunctions/arm_cfft_f32.c **** 
 805:.\DSP\Source\TransformFunctions/arm_cfft_f32.c ****     t2[0] = t1[0] - t2[0];
 194              		.loc 1 805 0 discriminator 3
 195 00d4 119A     		ldr	r2, [sp, #68]
 803:.\DSP\Source\TransformFunctions/arm_cfft_f32.c ****     *p1++ = t1[3] + t2[3];    /* col 1 */
 196              		.loc 1 803 0 discriminator 3
 197 00d6 4BF8040C 		str	r0, [fp, #-4]	@ float
 198              		.loc 1 805 0 discriminator 3
 199 00da 1146     		mov	r1, r2
 200 00dc 0598     		ldr	r0, [sp, #20]	@ float
 201 00de FFF7FEFF 		bl	__aeabi_fsub
 202              	.LVL24:
 806:.\DSP\Source\TransformFunctions/arm_cfft_f32.c ****     t2[1] = t1[1] - t2[1];
 203              		.loc 1 806 0 discriminator 3
 204 00e2 5146     		mov	r1, r10
 805:.\DSP\Source\TransformFunctions/arm_cfft_f32.c ****     t2[1] = t1[1] - t2[1];
 205              		.loc 1 805 0 discriminator 3
 206 00e4 0590     		str	r0, [sp, #20]	@ float
 207              	.LVL25:
 208              		.loc 1 806 0 discriminator 3
 209 00e6 0698     		ldr	r0, [sp, #24]	@ float
 210              	.LVL26:
 211 00e8 FFF7FEFF 		bl	__aeabi_fsub
 212              	.LVL27:
 807:.\DSP\Source\TransformFunctions/arm_cfft_f32.c ****     t2[2] = t1[2] - t2[2];
 213              		.loc 1 807 0 discriminator 3
 214 00ec 4146     		mov	r1, r8
 806:.\DSP\Source\TransformFunctions/arm_cfft_f32.c ****     t2[1] = t1[1] - t2[1];
 215              		.loc 1 806 0 discriminator 3
 216 00ee 8246     		mov	r10, r0
 217              	.LVL28:
 218              		.loc 1 807 0 discriminator 3
 219 00f0 0798     		ldr	r0, [sp, #28]	@ float
 220              	.LVL29:
 221 00f2 FFF7FEFF 		bl	__aeabi_fsub
 222              	.LVL30:
 808:.\DSP\Source\TransformFunctions/arm_cfft_f32.c ****     t2[3] = t1[3] - t2[3];    /* for col 2 */
 223              		.loc 1 808 0 discriminator 3
 224 00f6 3146     		mov	r1, r6
 807:.\DSP\Source\TransformFunctions/arm_cfft_f32.c ****     t2[2] = t1[2] - t2[2];
 225              		.loc 1 807 0 discriminator 3
 226 00f8 0690     		str	r0, [sp, #24]	@ float
 227              	.LVL31:
 228              		.loc 1 808 0 discriminator 3
 229 00fa 3846     		mov	r0, r7
 230              	.LVL32:
 231 00fc FFF7FEFF 		bl	__aeabi_fsub
 232              	.LVL33:
 233 0100 0790     		str	r0, [sp, #28]	@ float
 234              	.LVL34:
 809:.\DSP\Source\TransformFunctions/arm_cfft_f32.c **** 
 810:.\DSP\Source\TransformFunctions/arm_cfft_f32.c ****     *pMid1++ = t3[0] + t4[0];
 235              		.loc 1 810 0 discriminator 3
 236 0102 0898     		ldr	r0, [sp, #32]	@ float
 237              	.LVL35:
ARM GAS  C:\Users\IVYLIU~1\AppData\Local\Temp\ccWLNWQl.s 			page 20


 238 0104 0C99     		ldr	r1, [sp, #48]	@ float
 239 0106 FFF7FEFF 		bl	__aeabi_fadd
 240              	.LVL36:
 811:.\DSP\Source\TransformFunctions/arm_cfft_f32.c ****     *pMid1++ = t3[1] + t4[1];
 241              		.loc 1 811 0 discriminator 3
 242 010a 0D99     		ldr	r1, [sp, #52]	@ float
 810:.\DSP\Source\TransformFunctions/arm_cfft_f32.c ****     *pMid1++ = t3[1] + t4[1];
 243              		.loc 1 810 0 discriminator 3
 244 010c 45F8100C 		str	r0, [r5, #-16]	@ float
 245              		.loc 1 811 0 discriminator 3
 246 0110 0998     		ldr	r0, [sp, #36]	@ float
 247 0112 FFF7FEFF 		bl	__aeabi_fadd
 248              	.LVL37:
 812:.\DSP\Source\TransformFunctions/arm_cfft_f32.c ****     *pMid1++ = t3[2] + t4[2];
 249              		.loc 1 812 0 discriminator 3
 250 0116 0E99     		ldr	r1, [sp, #56]	@ float
 811:.\DSP\Source\TransformFunctions/arm_cfft_f32.c ****     *pMid1++ = t3[1] + t4[1];
 251              		.loc 1 811 0 discriminator 3
 252 0118 45F80C0C 		str	r0, [r5, #-12]	@ float
 253              		.loc 1 812 0 discriminator 3
 254 011c 0A98     		ldr	r0, [sp, #40]	@ float
 255 011e FFF7FEFF 		bl	__aeabi_fadd
 256              	.LVL38:
 813:.\DSP\Source\TransformFunctions/arm_cfft_f32.c ****     *pMid1++ = t3[3] + t4[3]; /* col 1 */
 257              		.loc 1 813 0 discriminator 3
 258 0122 0F99     		ldr	r1, [sp, #60]	@ float
 812:.\DSP\Source\TransformFunctions/arm_cfft_f32.c ****     *pMid1++ = t3[2] + t4[2];
 259              		.loc 1 812 0 discriminator 3
 260 0124 45F8080C 		str	r0, [r5, #-8]	@ float
 261              		.loc 1 813 0 discriminator 3
 262 0128 0B98     		ldr	r0, [sp, #44]	@ float
 263 012a FFF7FEFF 		bl	__aeabi_fadd
 264              	.LVL39:
 814:.\DSP\Source\TransformFunctions/arm_cfft_f32.c **** 
 815:.\DSP\Source\TransformFunctions/arm_cfft_f32.c ****     t4[0] = t4[0] - t3[0];
 265              		.loc 1 815 0 discriminator 3
 266 012e 0899     		ldr	r1, [sp, #32]	@ float
 813:.\DSP\Source\TransformFunctions/arm_cfft_f32.c ****     *pMid1++ = t3[3] + t4[3]; /* col 1 */
 267              		.loc 1 813 0 discriminator 3
 268 0130 45F8040C 		str	r0, [r5, #-4]	@ float
 269              		.loc 1 815 0 discriminator 3
 270 0134 0C98     		ldr	r0, [sp, #48]	@ float
 271 0136 FFF7FEFF 		bl	__aeabi_fsub
 272              	.LVL40:
 816:.\DSP\Source\TransformFunctions/arm_cfft_f32.c ****     t4[1] = t4[1] - t3[1];
 273              		.loc 1 816 0 discriminator 3
 274 013a 0999     		ldr	r1, [sp, #36]	@ float
 815:.\DSP\Source\TransformFunctions/arm_cfft_f32.c ****     t4[1] = t4[1] - t3[1];
 275              		.loc 1 815 0 discriminator 3
 276 013c 8046     		mov	r8, r0
 277              	.LVL41:
 278              		.loc 1 816 0 discriminator 3
 279 013e 0D98     		ldr	r0, [sp, #52]	@ float
 280              	.LVL42:
 281 0140 FFF7FEFF 		bl	__aeabi_fsub
 282              	.LVL43:
 817:.\DSP\Source\TransformFunctions/arm_cfft_f32.c ****     t4[2] = t4[2] - t3[2];
ARM GAS  C:\Users\IVYLIU~1\AppData\Local\Temp\ccWLNWQl.s 			page 21


 283              		.loc 1 817 0 discriminator 3
 284 0144 0A99     		ldr	r1, [sp, #40]	@ float
 816:.\DSP\Source\TransformFunctions/arm_cfft_f32.c ****     t4[1] = t4[1] - t3[1];
 285              		.loc 1 816 0 discriminator 3
 286 0146 0890     		str	r0, [sp, #32]	@ float
 287              	.LVL44:
 288              		.loc 1 817 0 discriminator 3
 289 0148 0E98     		ldr	r0, [sp, #56]	@ float
 290              	.LVL45:
 291 014a FFF7FEFF 		bl	__aeabi_fsub
 292              	.LVL46:
 818:.\DSP\Source\TransformFunctions/arm_cfft_f32.c ****     t4[3] = t4[3] - t3[3];    /* for col 2 */
 293              		.loc 1 818 0 discriminator 3
 294 014e 0B99     		ldr	r1, [sp, #44]	@ float
 817:.\DSP\Source\TransformFunctions/arm_cfft_f32.c ****     t4[2] = t4[2] - t3[2];
 295              		.loc 1 817 0 discriminator 3
 296 0150 0990     		str	r0, [sp, #36]	@ float
 297              	.LVL47:
 298              		.loc 1 818 0 discriminator 3
 299 0152 0F98     		ldr	r0, [sp, #60]	@ float
 300              	.LVL48:
 301 0154 FFF7FEFF 		bl	__aeabi_fsub
 302              	.LVL49:
 819:.\DSP\Source\TransformFunctions/arm_cfft_f32.c **** 
 820:.\DSP\Source\TransformFunctions/arm_cfft_f32.c ****     twR = *tw++;
 303              		.loc 1 820 0 discriminator 3
 304 0158 019B     		ldr	r3, [sp, #4]
 818:.\DSP\Source\TransformFunctions/arm_cfft_f32.c ****     t4[3] = t4[3] - t3[3];    /* for col 2 */
 305              		.loc 1 818 0 discriminator 3
 306 015a 0A90     		str	r0, [sp, #40]	@ float
 307              	.LVL50:
 308              		.loc 1 820 0 discriminator 3
 309 015c 1E68     		ldr	r6, [r3]	@ float
 310              	.LVL51:
 821:.\DSP\Source\TransformFunctions/arm_cfft_f32.c ****     twI = *tw++;
 822:.\DSP\Source\TransformFunctions/arm_cfft_f32.c **** 
 823:.\DSP\Source\TransformFunctions/arm_cfft_f32.c ****     /* multiply by twiddle factors */
 824:.\DSP\Source\TransformFunctions/arm_cfft_f32.c ****     m0 = t2[0] * twR;
 311              		.loc 1 824 0 discriminator 3
 312 015e 0598     		ldr	r0, [sp, #20]	@ float
 313              	.LVL52:
 314 0160 3146     		mov	r1, r6
 821:.\DSP\Source\TransformFunctions/arm_cfft_f32.c ****     twI = *tw++;
 315              		.loc 1 821 0 discriminator 3
 316 0162 5F68     		ldr	r7, [r3, #4]	@ float
 317              	.LVL53:
 318              		.loc 1 824 0 discriminator 3
 319 0164 FFF7FEFF 		bl	__aeabi_fmul
 320              	.LVL54:
 825:.\DSP\Source\TransformFunctions/arm_cfft_f32.c ****     m1 = t2[1] * twI;
 321              		.loc 1 825 0 discriminator 3
 322 0168 3946     		mov	r1, r7
 824:.\DSP\Source\TransformFunctions/arm_cfft_f32.c ****     m1 = t2[1] * twI;
 323              		.loc 1 824 0 discriminator 3
 324 016a 0B90     		str	r0, [sp, #44]
 325              	.LVL55:
 326              		.loc 1 825 0 discriminator 3
ARM GAS  C:\Users\IVYLIU~1\AppData\Local\Temp\ccWLNWQl.s 			page 22


 327 016c 5046     		mov	r0, r10
 328 016e FFF7FEFF 		bl	__aeabi_fmul
 329              	.LVL56:
 826:.\DSP\Source\TransformFunctions/arm_cfft_f32.c ****     m2 = t2[1] * twR;
 827:.\DSP\Source\TransformFunctions/arm_cfft_f32.c ****     m3 = t2[0] * twI;
 828:.\DSP\Source\TransformFunctions/arm_cfft_f32.c **** 
 829:.\DSP\Source\TransformFunctions/arm_cfft_f32.c ****     /* R  =  R  *  Tr - I * Ti */
 830:.\DSP\Source\TransformFunctions/arm_cfft_f32.c ****     *p2++ = m0 + m1;
 330              		.loc 1 830 0 discriminator 3
 331 0172 0B9A     		ldr	r2, [sp, #44]
 825:.\DSP\Source\TransformFunctions/arm_cfft_f32.c ****     m2 = t2[1] * twR;
 332              		.loc 1 825 0 discriminator 3
 333 0174 0146     		mov	r1, r0
 334              		.loc 1 830 0 discriminator 3
 335 0176 1046     		mov	r0, r2
 336 0178 FFF7FEFF 		bl	__aeabi_fadd
 337              	.LVL57:
 826:.\DSP\Source\TransformFunctions/arm_cfft_f32.c ****     m2 = t2[1] * twR;
 338              		.loc 1 826 0 discriminator 3
 339 017c 3146     		mov	r1, r6
 340              		.loc 1 830 0 discriminator 3
 341 017e 49F8100C 		str	r0, [r9, #-16]	@ float
 826:.\DSP\Source\TransformFunctions/arm_cfft_f32.c ****     m2 = t2[1] * twR;
 342              		.loc 1 826 0 discriminator 3
 343 0182 5046     		mov	r0, r10
 344 0184 FFF7FEFF 		bl	__aeabi_fmul
 345              	.LVL58:
 827:.\DSP\Source\TransformFunctions/arm_cfft_f32.c **** 
 346              		.loc 1 827 0 discriminator 3
 347 0188 3946     		mov	r1, r7
 826:.\DSP\Source\TransformFunctions/arm_cfft_f32.c ****     m2 = t2[1] * twR;
 348              		.loc 1 826 0 discriminator 3
 349 018a 8246     		mov	r10, r0
 350              	.LVL59:
 827:.\DSP\Source\TransformFunctions/arm_cfft_f32.c **** 
 351              		.loc 1 827 0 discriminator 3
 352 018c 0598     		ldr	r0, [sp, #20]	@ float
 353 018e FFF7FEFF 		bl	__aeabi_fmul
 354              	.LVL60:
 355 0192 0146     		mov	r1, r0
 831:.\DSP\Source\TransformFunctions/arm_cfft_f32.c ****     /* I  =  I  *  Tr + R * Ti */
 832:.\DSP\Source\TransformFunctions/arm_cfft_f32.c ****     *p2++ = m2 - m3;
 356              		.loc 1 832 0 discriminator 3
 357 0194 5046     		mov	r0, r10
 358 0196 FFF7FEFF 		bl	__aeabi_fsub
 359              	.LVL61:
 833:.\DSP\Source\TransformFunctions/arm_cfft_f32.c **** 
 834:.\DSP\Source\TransformFunctions/arm_cfft_f32.c ****     /* use vertical symmetry */
 835:.\DSP\Source\TransformFunctions/arm_cfft_f32.c ****     /*  0.9988 - 0.0491i <==> -0.0491 - 0.9988i */
 836:.\DSP\Source\TransformFunctions/arm_cfft_f32.c ****     m0 = t4[0] * twI;
 360              		.loc 1 836 0 discriminator 3
 361 019a 3946     		mov	r1, r7
 832:.\DSP\Source\TransformFunctions/arm_cfft_f32.c **** 
 362              		.loc 1 832 0 discriminator 3
 363 019c 49F80C0C 		str	r0, [r9, #-12]	@ float
 364              	.LVL62:
 365              		.loc 1 836 0 discriminator 3
ARM GAS  C:\Users\IVYLIU~1\AppData\Local\Temp\ccWLNWQl.s 			page 23


 366 01a0 4046     		mov	r0, r8
 367 01a2 FFF7FEFF 		bl	__aeabi_fmul
 368              	.LVL63:
 837:.\DSP\Source\TransformFunctions/arm_cfft_f32.c ****     m1 = t4[1] * twR;
 369              		.loc 1 837 0 discriminator 3
 370 01a6 3146     		mov	r1, r6
 836:.\DSP\Source\TransformFunctions/arm_cfft_f32.c ****     m1 = t4[1] * twR;
 371              		.loc 1 836 0 discriminator 3
 372 01a8 8246     		mov	r10, r0
 373              		.loc 1 837 0 discriminator 3
 374 01aa 0898     		ldr	r0, [sp, #32]	@ float
 375 01ac FFF7FEFF 		bl	__aeabi_fmul
 376              	.LVL64:
 377 01b0 0146     		mov	r1, r0
 838:.\DSP\Source\TransformFunctions/arm_cfft_f32.c ****     m2 = t4[1] * twI;
 839:.\DSP\Source\TransformFunctions/arm_cfft_f32.c ****     m3 = t4[0] * twR;
 840:.\DSP\Source\TransformFunctions/arm_cfft_f32.c **** 
 841:.\DSP\Source\TransformFunctions/arm_cfft_f32.c ****     *pMid2++ = m0 - m1;
 378              		.loc 1 841 0 discriminator 3
 379 01b2 5046     		mov	r0, r10
 380 01b4 FFF7FEFF 		bl	__aeabi_fsub
 381              	.LVL65:
 838:.\DSP\Source\TransformFunctions/arm_cfft_f32.c ****     m2 = t4[1] * twI;
 382              		.loc 1 838 0 discriminator 3
 383 01b8 3946     		mov	r1, r7
 384              		.loc 1 841 0 discriminator 3
 385 01ba 44F8100C 		str	r0, [r4, #-16]	@ float
 838:.\DSP\Source\TransformFunctions/arm_cfft_f32.c ****     m2 = t4[1] * twI;
 386              		.loc 1 838 0 discriminator 3
 387 01be 0898     		ldr	r0, [sp, #32]	@ float
 388 01c0 FFF7FEFF 		bl	__aeabi_fmul
 389              	.LVL66:
 839:.\DSP\Source\TransformFunctions/arm_cfft_f32.c **** 
 390              		.loc 1 839 0 discriminator 3
 391 01c4 3146     		mov	r1, r6
 838:.\DSP\Source\TransformFunctions/arm_cfft_f32.c ****     m2 = t4[1] * twI;
 392              		.loc 1 838 0 discriminator 3
 393 01c6 0746     		mov	r7, r0
 394              	.LVL67:
 839:.\DSP\Source\TransformFunctions/arm_cfft_f32.c **** 
 395              		.loc 1 839 0 discriminator 3
 396 01c8 4046     		mov	r0, r8
 397 01ca FFF7FEFF 		bl	__aeabi_fmul
 398              	.LVL68:
 399 01ce 0146     		mov	r1, r0
 842:.\DSP\Source\TransformFunctions/arm_cfft_f32.c ****     *pMid2++ = m2 + m3;
 400              		.loc 1 842 0 discriminator 3
 401 01d0 3846     		mov	r0, r7
 402 01d2 FFF7FEFF 		bl	__aeabi_fadd
 403              	.LVL69:
 843:.\DSP\Source\TransformFunctions/arm_cfft_f32.c **** 
 844:.\DSP\Source\TransformFunctions/arm_cfft_f32.c ****     twR = *tw++;
 404              		.loc 1 844 0 discriminator 3
 405 01d6 019B     		ldr	r3, [sp, #4]
 842:.\DSP\Source\TransformFunctions/arm_cfft_f32.c ****     *pMid2++ = m2 + m3;
 406              		.loc 1 842 0 discriminator 3
 407 01d8 44F80C0C 		str	r0, [r4, #-12]	@ float
ARM GAS  C:\Users\IVYLIU~1\AppData\Local\Temp\ccWLNWQl.s 			page 24


 408              	.LVL70:
 409              		.loc 1 844 0 discriminator 3
 410 01dc 9E68     		ldr	r6, [r3, #8]	@ float
 411              	.LVL71:
 845:.\DSP\Source\TransformFunctions/arm_cfft_f32.c ****     twI = *tw++;
 846:.\DSP\Source\TransformFunctions/arm_cfft_f32.c **** 
 847:.\DSP\Source\TransformFunctions/arm_cfft_f32.c ****     m0 = t2[2] * twR;
 412              		.loc 1 847 0 discriminator 3
 413 01de 0698     		ldr	r0, [sp, #24]	@ float
 414 01e0 1033     		adds	r3, r3, #16
 415 01e2 3146     		mov	r1, r6
 845:.\DSP\Source\TransformFunctions/arm_cfft_f32.c ****     twI = *tw++;
 416              		.loc 1 845 0 discriminator 3
 417 01e4 53F8047C 		ldr	r7, [r3, #-4]	@ float
 418 01e8 0193     		str	r3, [sp, #4]
 419              	.LVL72:
 420              		.loc 1 847 0 discriminator 3
 421 01ea FFF7FEFF 		bl	__aeabi_fmul
 422              	.LVL73:
 848:.\DSP\Source\TransformFunctions/arm_cfft_f32.c ****     m1 = t2[3] * twI;
 423              		.loc 1 848 0 discriminator 3
 424 01ee 3946     		mov	r1, r7
 847:.\DSP\Source\TransformFunctions/arm_cfft_f32.c ****     m1 = t2[3] * twI;
 425              		.loc 1 847 0 discriminator 3
 426 01f0 8046     		mov	r8, r0
 427              	.LVL74:
 428              		.loc 1 848 0 discriminator 3
 429 01f2 0798     		ldr	r0, [sp, #28]	@ float
 430 01f4 FFF7FEFF 		bl	__aeabi_fmul
 431              	.LVL75:
 432 01f8 0146     		mov	r1, r0
 849:.\DSP\Source\TransformFunctions/arm_cfft_f32.c ****     m2 = t2[3] * twR;
 850:.\DSP\Source\TransformFunctions/arm_cfft_f32.c ****     m3 = t2[2] * twI;
 851:.\DSP\Source\TransformFunctions/arm_cfft_f32.c **** 
 852:.\DSP\Source\TransformFunctions/arm_cfft_f32.c ****     *p2++ = m0 + m1;
 433              		.loc 1 852 0 discriminator 3
 434 01fa 4046     		mov	r0, r8
 435 01fc FFF7FEFF 		bl	__aeabi_fadd
 436              	.LVL76:
 849:.\DSP\Source\TransformFunctions/arm_cfft_f32.c ****     m2 = t2[3] * twR;
 437              		.loc 1 849 0 discriminator 3
 438 0200 3146     		mov	r1, r6
 439              		.loc 1 852 0 discriminator 3
 440 0202 49F8080C 		str	r0, [r9, #-8]	@ float
 849:.\DSP\Source\TransformFunctions/arm_cfft_f32.c ****     m2 = t2[3] * twR;
 441              		.loc 1 849 0 discriminator 3
 442 0206 0798     		ldr	r0, [sp, #28]	@ float
 443 0208 FFF7FEFF 		bl	__aeabi_fmul
 444              	.LVL77:
 850:.\DSP\Source\TransformFunctions/arm_cfft_f32.c **** 
 445              		.loc 1 850 0 discriminator 3
 446 020c 3946     		mov	r1, r7
 849:.\DSP\Source\TransformFunctions/arm_cfft_f32.c ****     m2 = t2[3] * twR;
 447              		.loc 1 849 0 discriminator 3
 448 020e 8046     		mov	r8, r0
 850:.\DSP\Source\TransformFunctions/arm_cfft_f32.c **** 
 449              		.loc 1 850 0 discriminator 3
ARM GAS  C:\Users\IVYLIU~1\AppData\Local\Temp\ccWLNWQl.s 			page 25


 450 0210 0698     		ldr	r0, [sp, #24]	@ float
 451 0212 FFF7FEFF 		bl	__aeabi_fmul
 452              	.LVL78:
 453 0216 0146     		mov	r1, r0
 853:.\DSP\Source\TransformFunctions/arm_cfft_f32.c ****     *p2++ = m2 - m3;
 454              		.loc 1 853 0 discriminator 3
 455 0218 4046     		mov	r0, r8
 456 021a FFF7FEFF 		bl	__aeabi_fsub
 457              	.LVL79:
 854:.\DSP\Source\TransformFunctions/arm_cfft_f32.c **** 
 855:.\DSP\Source\TransformFunctions/arm_cfft_f32.c ****     m0 = t4[2] * twI;
 458              		.loc 1 855 0 discriminator 3
 459 021e 3946     		mov	r1, r7
 853:.\DSP\Source\TransformFunctions/arm_cfft_f32.c ****     *p2++ = m2 - m3;
 460              		.loc 1 853 0 discriminator 3
 461 0220 49F8040C 		str	r0, [r9, #-4]	@ float
 462              	.LVL80:
 463              		.loc 1 855 0 discriminator 3
 464 0224 0998     		ldr	r0, [sp, #36]	@ float
 465 0226 FFF7FEFF 		bl	__aeabi_fmul
 466              	.LVL81:
 856:.\DSP\Source\TransformFunctions/arm_cfft_f32.c ****     m1 = t4[3] * twR;
 467              		.loc 1 856 0 discriminator 3
 468 022a 3146     		mov	r1, r6
 855:.\DSP\Source\TransformFunctions/arm_cfft_f32.c ****     m1 = t4[3] * twR;
 469              		.loc 1 855 0 discriminator 3
 470 022c 8046     		mov	r8, r0
 471              		.loc 1 856 0 discriminator 3
 472 022e 0A98     		ldr	r0, [sp, #40]	@ float
 473 0230 FFF7FEFF 		bl	__aeabi_fmul
 474              	.LVL82:
 475 0234 0146     		mov	r1, r0
 857:.\DSP\Source\TransformFunctions/arm_cfft_f32.c ****     m2 = t4[3] * twI;
 858:.\DSP\Source\TransformFunctions/arm_cfft_f32.c ****     m3 = t4[2] * twR;
 859:.\DSP\Source\TransformFunctions/arm_cfft_f32.c **** 
 860:.\DSP\Source\TransformFunctions/arm_cfft_f32.c ****     *pMid2++ = m0 - m1;
 476              		.loc 1 860 0 discriminator 3
 477 0236 4046     		mov	r0, r8
 478 0238 FFF7FEFF 		bl	__aeabi_fsub
 479              	.LVL83:
 857:.\DSP\Source\TransformFunctions/arm_cfft_f32.c ****     m2 = t4[3] * twI;
 480              		.loc 1 857 0 discriminator 3
 481 023c 3946     		mov	r1, r7
 482              		.loc 1 860 0 discriminator 3
 483 023e 44F8080C 		str	r0, [r4, #-8]	@ float
 857:.\DSP\Source\TransformFunctions/arm_cfft_f32.c ****     m2 = t4[3] * twI;
 484              		.loc 1 857 0 discriminator 3
 485 0242 0A98     		ldr	r0, [sp, #40]	@ float
 486 0244 FFF7FEFF 		bl	__aeabi_fmul
 487              	.LVL84:
 858:.\DSP\Source\TransformFunctions/arm_cfft_f32.c **** 
 488              		.loc 1 858 0 discriminator 3
 489 0248 3146     		mov	r1, r6
 857:.\DSP\Source\TransformFunctions/arm_cfft_f32.c ****     m2 = t4[3] * twI;
 490              		.loc 1 857 0 discriminator 3
 491 024a 0746     		mov	r7, r0
 492              	.LVL85:
ARM GAS  C:\Users\IVYLIU~1\AppData\Local\Temp\ccWLNWQl.s 			page 26


 858:.\DSP\Source\TransformFunctions/arm_cfft_f32.c **** 
 493              		.loc 1 858 0 discriminator 3
 494 024c 0998     		ldr	r0, [sp, #36]	@ float
 495 024e FFF7FEFF 		bl	__aeabi_fmul
 496              	.LVL86:
 497 0252 0146     		mov	r1, r0
 861:.\DSP\Source\TransformFunctions/arm_cfft_f32.c ****     *pMid2++ = m2 + m3;
 498              		.loc 1 861 0 discriminator 3
 499 0254 3846     		mov	r0, r7
 500 0256 FFF7FEFF 		bl	__aeabi_fadd
 501              	.LVL87:
 502 025a 44F8040C 		str	r0, [r4, #-4]	@ float
 503 025e DDF84CC0 		ldr	ip, [sp, #76]
 504 0262 129B     		ldr	r3, [sp, #72]
 505 0264 E4E6     		b	.L2
 506              	.LVL88:
 507              	.L5:
 862:.\DSP\Source\TransformFunctions/arm_cfft_f32.c ****   }
 863:.\DSP\Source\TransformFunctions/arm_cfft_f32.c **** 
 864:.\DSP\Source\TransformFunctions/arm_cfft_f32.c ****   /* first col */
 865:.\DSP\Source\TransformFunctions/arm_cfft_f32.c ****   arm_radix8_butterfly_f32 (pCol1, L, (float32_t *) S->pTwiddle, 2U);
 508              		.loc 1 865 0
 509 0266 BDF81040 		ldrh	r4, [sp, #16]
 510 026a 6046     		mov	r0, ip
 511 026c 2146     		mov	r1, r4
 512 026e 1A46     		mov	r2, r3
 513              	.LVL89:
 514 0270 0223     		movs	r3, #2
 515 0272 FFF7FEFF 		bl	arm_radix8_butterfly_f32
 516              	.LVL90:
 866:.\DSP\Source\TransformFunctions/arm_cfft_f32.c **** 
 867:.\DSP\Source\TransformFunctions/arm_cfft_f32.c ****   /* second col */
 868:.\DSP\Source\TransformFunctions/arm_cfft_f32.c ****   arm_radix8_butterfly_f32 (pCol2, L, (float32_t *) S->pTwiddle, 2U);
 517              		.loc 1 868 0
 518 0276 2146     		mov	r1, r4
 519 0278 039B     		ldr	r3, [sp, #12]
 520 027a 0298     		ldr	r0, [sp, #8]
 521 027c 5A68     		ldr	r2, [r3, #4]
 522 027e 0223     		movs	r3, #2
 869:.\DSP\Source\TransformFunctions/arm_cfft_f32.c **** }
 523              		.loc 1 869 0
 524 0280 15B0     		add	sp, sp, #84
 525              		.cfi_def_cfa_offset 36
 526              		@ sp needed
 527 0282 BDE8F04F 		pop	{r4, r5, r6, r7, r8, r9, r10, fp, lr}
 528              		.cfi_restore 14
 529              		.cfi_restore 11
 530              		.cfi_restore 10
 531              		.cfi_restore 9
 532              		.cfi_restore 8
 533              		.cfi_restore 7
 534              		.cfi_restore 6
 535              		.cfi_restore 5
 536              		.cfi_restore 4
 537              		.cfi_def_cfa_offset 0
 538              	.LVL91:
 868:.\DSP\Source\TransformFunctions/arm_cfft_f32.c **** }
ARM GAS  C:\Users\IVYLIU~1\AppData\Local\Temp\ccWLNWQl.s 			page 27


 539              		.loc 1 868 0
 540 0286 FFF7FEBF 		b	arm_radix8_butterfly_f32
 541              	.LVL92:
 542              		.cfi_endproc
 543              	.LFE84:
 544              		.size	arm_cfft_radix8by2_f32, .-arm_cfft_radix8by2_f32
 545              		.section	.text.arm_cfft_radix8by4_f32,"ax",%progbits
 546              		.align	1
 547              		.global	arm_cfft_radix8by4_f32
 548              		.thumb
 549              		.thumb_func
 550              		.type	arm_cfft_radix8by4_f32, %function
 551              	arm_cfft_radix8by4_f32:
 552              	.LFB85:
 870:.\DSP\Source\TransformFunctions/arm_cfft_f32.c **** 
 871:.\DSP\Source\TransformFunctions/arm_cfft_f32.c **** void arm_cfft_radix8by4_f32 (arm_cfft_instance_f32 * S, float32_t * p1)
 872:.\DSP\Source\TransformFunctions/arm_cfft_f32.c **** {
 553              		.loc 1 872 0
 554              		.cfi_startproc
 555              		@ args = 0, pretend = 0, frame = 144
 556              		@ frame_needed = 0, uses_anonymous_args = 0
 557              	.LVL93:
 873:.\DSP\Source\TransformFunctions/arm_cfft_f32.c ****     uint32_t    L  = S->fftLen >> 1;
 558              		.loc 1 873 0
 559 0000 0388     		ldrh	r3, [r0]
 872:.\DSP\Source\TransformFunctions/arm_cfft_f32.c ****     uint32_t    L  = S->fftLen >> 1;
 560              		.loc 1 872 0
 561 0002 2DE9F04F 		push	{r4, r5, r6, r7, r8, r9, r10, fp, lr}
 562              		.cfi_def_cfa_offset 36
 563              		.cfi_offset 4, -36
 564              		.cfi_offset 5, -32
 565              		.cfi_offset 6, -28
 566              		.cfi_offset 7, -24
 567              		.cfi_offset 8, -20
 568              		.cfi_offset 9, -16
 569              		.cfi_offset 10, -12
 570              		.cfi_offset 11, -8
 571              		.cfi_offset 14, -4
 572              		.loc 1 873 0
 573 0006 4FEA5308 		lsr	r8, r3, #1
 574              	.LVL94:
 874:.\DSP\Source\TransformFunctions/arm_cfft_f32.c ****     float32_t * pCol1, *pCol2, *pCol3, *pCol4, *pEnd1, *pEnd2, *pEnd3, *pEnd4;
 875:.\DSP\Source\TransformFunctions/arm_cfft_f32.c ****     const float32_t *tw2, *tw3, *tw4;
 876:.\DSP\Source\TransformFunctions/arm_cfft_f32.c ****     float32_t * p2 = p1 + L;
 575              		.loc 1 876 0
 576 000a 0B46     		mov	r3, r1
 577 000c 4FEA8802 		lsl	r2, r8, #2
 872:.\DSP\Source\TransformFunctions/arm_cfft_f32.c ****     uint32_t    L  = S->fftLen >> 1;
 578              		.loc 1 872 0
 579 0010 A5B0     		sub	sp, sp, #148
 580              		.cfi_def_cfa_offset 184
 581              		.loc 1 876 0
 582 0012 1344     		add	r3, r3, r2
 583 0014 0093     		str	r3, [sp]
 584              	.LVL95:
 877:.\DSP\Source\TransformFunctions/arm_cfft_f32.c ****     float32_t * p3 = p2 + L;
 585              		.loc 1 877 0
ARM GAS  C:\Users\IVYLIU~1\AppData\Local\Temp\ccWLNWQl.s 			page 28


 586 0016 1344     		add	r3, r3, r2
 587              	.LVL96:
 588 0018 0393     		str	r3, [sp, #12]
 589              	.LVL97:
 878:.\DSP\Source\TransformFunctions/arm_cfft_f32.c ****     float32_t * p4 = p3 + L;
 590              		.loc 1 878 0
 591 001a 1344     		add	r3, r3, r2
 592              	.LVL98:
 593 001c 0293     		str	r3, [sp, #8]
 594              	.LVL99:
 879:.\DSP\Source\TransformFunctions/arm_cfft_f32.c ****     float32_t t2[4], t3[4], t4[4], twR, twI;
 880:.\DSP\Source\TransformFunctions/arm_cfft_f32.c ****     float32_t p1ap3_0, p1sp3_0, p1ap3_1, p1sp3_1;
 881:.\DSP\Source\TransformFunctions/arm_cfft_f32.c ****     float32_t m0, m1, m2, m3;
 882:.\DSP\Source\TransformFunctions/arm_cfft_f32.c ****     uint32_t l, twMod2, twMod3, twMod4;
 883:.\DSP\Source\TransformFunctions/arm_cfft_f32.c **** 
 884:.\DSP\Source\TransformFunctions/arm_cfft_f32.c ****     pCol1 = p1;         /* points to real values by default */
 885:.\DSP\Source\TransformFunctions/arm_cfft_f32.c ****     pCol2 = p2;
 886:.\DSP\Source\TransformFunctions/arm_cfft_f32.c ****     pCol3 = p3;
 887:.\DSP\Source\TransformFunctions/arm_cfft_f32.c ****     pCol4 = p4;
 888:.\DSP\Source\TransformFunctions/arm_cfft_f32.c ****     pEnd1 = p2 - 1;     /* points to imaginary values by default */
 889:.\DSP\Source\TransformFunctions/arm_cfft_f32.c ****     pEnd2 = p3 - 1;
 890:.\DSP\Source\TransformFunctions/arm_cfft_f32.c ****     pEnd3 = p4 - 1;
 891:.\DSP\Source\TransformFunctions/arm_cfft_f32.c ****     pEnd4 = pEnd3 + L;
 892:.\DSP\Source\TransformFunctions/arm_cfft_f32.c **** 
 893:.\DSP\Source\TransformFunctions/arm_cfft_f32.c ****     tw2 = tw3 = tw4 = (float32_t *) S->pTwiddle;
 595              		.loc 1 893 0
 596 001e 4368     		ldr	r3, [r0, #4]
 597              	.LVL100:
 894:.\DSP\Source\TransformFunctions/arm_cfft_f32.c **** 
 895:.\DSP\Source\TransformFunctions/arm_cfft_f32.c ****     L >>= 1;
 896:.\DSP\Source\TransformFunctions/arm_cfft_f32.c **** 
 897:.\DSP\Source\TransformFunctions/arm_cfft_f32.c ****     /* do four dot Fourier transform */
 898:.\DSP\Source\TransformFunctions/arm_cfft_f32.c **** 
 899:.\DSP\Source\TransformFunctions/arm_cfft_f32.c ****     twMod2 = 2;
 900:.\DSP\Source\TransformFunctions/arm_cfft_f32.c ****     twMod3 = 4;
 901:.\DSP\Source\TransformFunctions/arm_cfft_f32.c ****     twMod4 = 6;
 902:.\DSP\Source\TransformFunctions/arm_cfft_f32.c **** 
 903:.\DSP\Source\TransformFunctions/arm_cfft_f32.c ****     /* TOP */
 904:.\DSP\Source\TransformFunctions/arm_cfft_f32.c ****     p1ap3_0 = p1[0] + p3[0];
 598              		.loc 1 904 0
 599 0020 0D68     		ldr	r5, [r1]	@ float
 893:.\DSP\Source\TransformFunctions/arm_cfft_f32.c **** 
 600              		.loc 1 893 0
 601 0022 0193     		str	r3, [sp, #4]
 602              	.LVL101:
 895:.\DSP\Source\TransformFunctions/arm_cfft_f32.c **** 
 603              		.loc 1 895 0
 604 0024 4FEA5803 		lsr	r3, r8, #1
 605              	.LVL102:
 606 0028 1293     		str	r3, [sp, #72]
 607              	.LVL103:
 608              		.loc 1 904 0
 609 002a 009B     		ldr	r3, [sp]
 610              	.LVL104:
 872:.\DSP\Source\TransformFunctions/arm_cfft_f32.c ****     uint32_t    L  = S->fftLen >> 1;
 611              		.loc 1 872 0
 612 002c 0D90     		str	r0, [sp, #52]
ARM GAS  C:\Users\IVYLIU~1\AppData\Local\Temp\ccWLNWQl.s 			page 29


 613              		.loc 1 904 0
 614 002e 53F82840 		ldr	r4, [r3, r8, lsl #2]	@ float
 872:.\DSP\Source\TransformFunctions/arm_cfft_f32.c ****     uint32_t    L  = S->fftLen >> 1;
 615              		.loc 1 872 0
 616 0032 0491     		str	r1, [sp, #16]
 617              	.LVL105:
 618              		.loc 1 904 0
 619 0034 2846     		mov	r0, r5
 620              	.LVL106:
 621 0036 2146     		mov	r1, r4
 622              	.LVL107:
 878:.\DSP\Source\TransformFunctions/arm_cfft_f32.c ****     float32_t t2[4], t3[4], t4[4], twR, twI;
 623              		.loc 1 878 0
 624 0038 0692     		str	r2, [sp, #24]
 625              	.LVL108:
 626              		.loc 1 904 0
 627 003a FFF7FEFF 		bl	__aeabi_fadd
 628              	.LVL109:
 905:.\DSP\Source\TransformFunctions/arm_cfft_f32.c ****     p1sp3_0 = p1[0] - p3[0];
 629              		.loc 1 905 0
 630 003e 2146     		mov	r1, r4
 904:.\DSP\Source\TransformFunctions/arm_cfft_f32.c ****     p1sp3_0 = p1[0] - p3[0];
 631              		.loc 1 904 0
 632 0040 8346     		mov	fp, r0
 633              	.LVL110:
 634              		.loc 1 905 0
 635 0042 2846     		mov	r0, r5
 636              	.LVL111:
 637 0044 FFF7FEFF 		bl	__aeabi_fsub
 638              	.LVL112:
 906:.\DSP\Source\TransformFunctions/arm_cfft_f32.c ****     p1ap3_1 = p1[1] + p3[1];
 639              		.loc 1 906 0
 640 0048 049B     		ldr	r3, [sp, #16]
 905:.\DSP\Source\TransformFunctions/arm_cfft_f32.c ****     p1sp3_0 = p1[0] - p3[0];
 641              		.loc 1 905 0
 642 004a 8146     		mov	r9, r0
 643              	.LVL113:
 644              		.loc 1 906 0
 645 004c 5D68     		ldr	r5, [r3, #4]	@ float
 646 004e 039B     		ldr	r3, [sp, #12]
 647 0050 2846     		mov	r0, r5
 648              	.LVL114:
 649 0052 5C68     		ldr	r4, [r3, #4]	@ float
 650 0054 2146     		mov	r1, r4
 651 0056 FFF7FEFF 		bl	__aeabi_fadd
 652              	.LVL115:
 907:.\DSP\Source\TransformFunctions/arm_cfft_f32.c ****     p1sp3_1 = p1[1] - p3[1];
 653              		.loc 1 907 0
 654 005a 2146     		mov	r1, r4
 906:.\DSP\Source\TransformFunctions/arm_cfft_f32.c ****     p1ap3_1 = p1[1] + p3[1];
 655              		.loc 1 906 0
 656 005c 8246     		mov	r10, r0
 657              	.LVL116:
 658              		.loc 1 907 0
 659 005e 2846     		mov	r0, r5
 660              	.LVL117:
 661 0060 FFF7FEFF 		bl	__aeabi_fsub
ARM GAS  C:\Users\IVYLIU~1\AppData\Local\Temp\ccWLNWQl.s 			page 30


 662              	.LVL118:
 908:.\DSP\Source\TransformFunctions/arm_cfft_f32.c **** 
 909:.\DSP\Source\TransformFunctions/arm_cfft_f32.c ****     /* col 2 */
 910:.\DSP\Source\TransformFunctions/arm_cfft_f32.c ****     t2[0] = p1sp3_0 + p2[1] - p4[1];
 663              		.loc 1 910 0
 664 0064 009B     		ldr	r3, [sp]
 907:.\DSP\Source\TransformFunctions/arm_cfft_f32.c ****     p1sp3_1 = p1[1] - p3[1];
 665              		.loc 1 907 0
 666 0066 0590     		str	r0, [sp, #20]	@ float
 667              	.LVL119:
 668              		.loc 1 910 0
 669 0068 5F68     		ldr	r7, [r3, #4]	@ float
 670 006a 029B     		ldr	r3, [sp, #8]
 911:.\DSP\Source\TransformFunctions/arm_cfft_f32.c ****     t2[1] = p1sp3_1 - p2[0] + p4[0];
 912:.\DSP\Source\TransformFunctions/arm_cfft_f32.c ****     /* col 3 */
 913:.\DSP\Source\TransformFunctions/arm_cfft_f32.c ****     t3[0] = p1ap3_0 - p2[0] - p4[0];
 914:.\DSP\Source\TransformFunctions/arm_cfft_f32.c ****     t3[1] = p1ap3_1 - p2[1] - p4[1];
 915:.\DSP\Source\TransformFunctions/arm_cfft_f32.c ****     /* col 4 */
 916:.\DSP\Source\TransformFunctions/arm_cfft_f32.c ****     t4[0] = p1sp3_0 - p2[1] + p4[1];
 917:.\DSP\Source\TransformFunctions/arm_cfft_f32.c ****     t4[1] = p1sp3_1 + p2[0] - p4[0];
 918:.\DSP\Source\TransformFunctions/arm_cfft_f32.c ****     /* col 1 */
 919:.\DSP\Source\TransformFunctions/arm_cfft_f32.c ****     *p1++ = p1ap3_0 + p2[0] + p4[0];
 671              		.loc 1 919 0
 672 006c 5846     		mov	r0, fp
 673              	.LVL120:
 910:.\DSP\Source\TransformFunctions/arm_cfft_f32.c ****     t2[1] = p1sp3_1 - p2[0] + p4[0];
 674              		.loc 1 910 0
 675 006e 5E68     		ldr	r6, [r3, #4]	@ float
 676              	.LVL121:
 911:.\DSP\Source\TransformFunctions/arm_cfft_f32.c ****     t2[1] = p1sp3_1 - p2[0] + p4[0];
 677              		.loc 1 911 0
 678 0070 049B     		ldr	r3, [sp, #16]
 679 0072 53F82850 		ldr	r5, [r3, r8, lsl #2]	@ float
 680 0076 039B     		ldr	r3, [sp, #12]
 681              		.loc 1 919 0
 682 0078 2946     		mov	r1, r5
 911:.\DSP\Source\TransformFunctions/arm_cfft_f32.c ****     t2[1] = p1sp3_1 - p2[0] + p4[0];
 683              		.loc 1 911 0
 684 007a 53F82840 		ldr	r4, [r3, r8, lsl #2]	@ float
 685              	.LVL122:
 686              		.loc 1 919 0
 687 007e FFF7FEFF 		bl	__aeabi_fadd
 688              	.LVL123:
 689 0082 2146     		mov	r1, r4
 690 0084 FFF7FEFF 		bl	__aeabi_fadd
 691              	.LVL124:
 692 0088 049B     		ldr	r3, [sp, #16]
 693 008a 43F8080B 		str	r0, [r3], #8	@ float
 694 008e 0993     		str	r3, [sp, #36]
 695              	.LVL125:
 920:.\DSP\Source\TransformFunctions/arm_cfft_f32.c ****     *p1++ = p1ap3_1 + p2[1] + p4[1];
 696              		.loc 1 920 0
 697 0090 009B     		ldr	r3, [sp]
 698              	.LVL126:
 699 0092 5046     		mov	r0, r10
 700 0094 5968     		ldr	r1, [r3, #4]	@ float
 701 0096 FFF7FEFF 		bl	__aeabi_fadd
ARM GAS  C:\Users\IVYLIU~1\AppData\Local\Temp\ccWLNWQl.s 			page 31


 702              	.LVL127:
 703 009a 029B     		ldr	r3, [sp, #8]
 704 009c 5968     		ldr	r1, [r3, #4]	@ float
 705 009e FFF7FEFF 		bl	__aeabi_fadd
 706              	.LVL128:
 707 00a2 049B     		ldr	r3, [sp, #16]
 910:.\DSP\Source\TransformFunctions/arm_cfft_f32.c ****     t2[1] = p1sp3_1 - p2[0] + p4[0];
 708              		.loc 1 910 0
 709 00a4 3946     		mov	r1, r7
 710              		.loc 1 920 0
 711 00a6 5860     		str	r0, [r3, #4]	@ float
 712              	.LVL129:
 910:.\DSP\Source\TransformFunctions/arm_cfft_f32.c ****     t2[1] = p1sp3_1 - p2[0] + p4[0];
 713              		.loc 1 910 0
 714 00a8 4846     		mov	r0, r9
 715 00aa FFF7FEFF 		bl	__aeabi_fadd
 716              	.LVL130:
 717 00ae 3146     		mov	r1, r6
 718 00b0 FFF7FEFF 		bl	__aeabi_fsub
 719              	.LVL131:
 921:.\DSP\Source\TransformFunctions/arm_cfft_f32.c **** 
 922:.\DSP\Source\TransformFunctions/arm_cfft_f32.c ****     /* Twiddle factors are ones */
 923:.\DSP\Source\TransformFunctions/arm_cfft_f32.c ****     *p2++ = t2[0];
 720              		.loc 1 923 0
 721 00b4 049B     		ldr	r3, [sp, #16]
 911:.\DSP\Source\TransformFunctions/arm_cfft_f32.c ****     /* col 3 */
 722              		.loc 1 911 0
 723 00b6 2946     		mov	r1, r5
 724              		.loc 1 923 0
 725 00b8 43F82800 		str	r0, [r3, r8, lsl #2]	@ float
 924:.\DSP\Source\TransformFunctions/arm_cfft_f32.c ****     *p2++ = t2[1];
 726              		.loc 1 924 0
 727 00bc 009B     		ldr	r3, [sp]
 911:.\DSP\Source\TransformFunctions/arm_cfft_f32.c ****     /* col 3 */
 728              		.loc 1 911 0
 729 00be 0598     		ldr	r0, [sp, #20]	@ float
 730              		.loc 1 924 0
 731 00c0 0833     		adds	r3, r3, #8
 732 00c2 0E93     		str	r3, [sp, #56]
 733              	.LVL132:
 911:.\DSP\Source\TransformFunctions/arm_cfft_f32.c ****     /* col 3 */
 734              		.loc 1 911 0
 735 00c4 FFF7FEFF 		bl	__aeabi_fsub
 736              	.LVL133:
 737 00c8 2146     		mov	r1, r4
 738 00ca FFF7FEFF 		bl	__aeabi_fadd
 739              	.LVL134:
 740              		.loc 1 924 0
 741 00ce 009B     		ldr	r3, [sp]
 913:.\DSP\Source\TransformFunctions/arm_cfft_f32.c ****     t3[1] = p1ap3_1 - p2[1] - p4[1];
 742              		.loc 1 913 0
 743 00d0 2946     		mov	r1, r5
 744              		.loc 1 924 0
 745 00d2 5860     		str	r0, [r3, #4]	@ float
 746              	.LVL135:
 913:.\DSP\Source\TransformFunctions/arm_cfft_f32.c ****     t3[1] = p1ap3_1 - p2[1] - p4[1];
 747              		.loc 1 913 0
ARM GAS  C:\Users\IVYLIU~1\AppData\Local\Temp\ccWLNWQl.s 			page 32


 748 00d4 5846     		mov	r0, fp
 749 00d6 FFF7FEFF 		bl	__aeabi_fsub
 750              	.LVL136:
 751 00da 2146     		mov	r1, r4
 752 00dc FFF7FEFF 		bl	__aeabi_fsub
 753              	.LVL137:
 925:.\DSP\Source\TransformFunctions/arm_cfft_f32.c ****     *p3++ = t3[0];
 754              		.loc 1 925 0
 755 00e0 009B     		ldr	r3, [sp]
 914:.\DSP\Source\TransformFunctions/arm_cfft_f32.c ****     /* col 4 */
 756              		.loc 1 914 0
 757 00e2 3946     		mov	r1, r7
 758              		.loc 1 925 0
 759 00e4 43F82800 		str	r0, [r3, r8, lsl #2]	@ float
 926:.\DSP\Source\TransformFunctions/arm_cfft_f32.c ****     *p3++ = t3[1];
 760              		.loc 1 926 0
 761 00e8 039B     		ldr	r3, [sp, #12]
 914:.\DSP\Source\TransformFunctions/arm_cfft_f32.c ****     /* col 4 */
 762              		.loc 1 914 0
 763 00ea 5046     		mov	r0, r10
 764              		.loc 1 926 0
 765 00ec 0833     		adds	r3, r3, #8
 766 00ee 0F93     		str	r3, [sp, #60]
 767              	.LVL138:
 914:.\DSP\Source\TransformFunctions/arm_cfft_f32.c ****     /* col 4 */
 768              		.loc 1 914 0
 769 00f0 FFF7FEFF 		bl	__aeabi_fsub
 770              	.LVL139:
 771 00f4 3146     		mov	r1, r6
 772 00f6 FFF7FEFF 		bl	__aeabi_fsub
 773              	.LVL140:
 774              		.loc 1 926 0
 775 00fa 039B     		ldr	r3, [sp, #12]
 916:.\DSP\Source\TransformFunctions/arm_cfft_f32.c ****     t4[1] = p1sp3_1 + p2[0] - p4[0];
 776              		.loc 1 916 0
 777 00fc 3946     		mov	r1, r7
 778              		.loc 1 926 0
 779 00fe 5860     		str	r0, [r3, #4]	@ float
 780              	.LVL141:
 916:.\DSP\Source\TransformFunctions/arm_cfft_f32.c ****     t4[1] = p1sp3_1 + p2[0] - p4[0];
 781              		.loc 1 916 0
 782 0100 4846     		mov	r0, r9
 783 0102 FFF7FEFF 		bl	__aeabi_fsub
 784              	.LVL142:
 785 0106 3146     		mov	r1, r6
 786 0108 FFF7FEFF 		bl	__aeabi_fadd
 787              	.LVL143:
 927:.\DSP\Source\TransformFunctions/arm_cfft_f32.c ****     *p4++ = t4[0];
 788              		.loc 1 927 0
 789 010c 039B     		ldr	r3, [sp, #12]
 917:.\DSP\Source\TransformFunctions/arm_cfft_f32.c ****     /* col 1 */
 790              		.loc 1 917 0
 791 010e 2946     		mov	r1, r5
 792              		.loc 1 927 0
 793 0110 43F82800 		str	r0, [r3, r8, lsl #2]	@ float
 928:.\DSP\Source\TransformFunctions/arm_cfft_f32.c ****     *p4++ = t4[1];
 794              		.loc 1 928 0
ARM GAS  C:\Users\IVYLIU~1\AppData\Local\Temp\ccWLNWQl.s 			page 33


 795 0114 029B     		ldr	r3, [sp, #8]
 917:.\DSP\Source\TransformFunctions/arm_cfft_f32.c ****     /* col 1 */
 796              		.loc 1 917 0
 797 0116 0598     		ldr	r0, [sp, #20]	@ float
 798              		.loc 1 928 0
 799 0118 0833     		adds	r3, r3, #8
 800 011a 1093     		str	r3, [sp, #64]
 801              	.LVL144:
 917:.\DSP\Source\TransformFunctions/arm_cfft_f32.c ****     /* col 1 */
 802              		.loc 1 917 0
 803 011c FFF7FEFF 		bl	__aeabi_fadd
 804              	.LVL145:
 805 0120 2146     		mov	r1, r4
 806 0122 FFF7FEFF 		bl	__aeabi_fsub
 807              	.LVL146:
 929:.\DSP\Source\TransformFunctions/arm_cfft_f32.c **** 
 930:.\DSP\Source\TransformFunctions/arm_cfft_f32.c ****     tw2 += twMod2;
 931:.\DSP\Source\TransformFunctions/arm_cfft_f32.c ****     tw3 += twMod3;
 932:.\DSP\Source\TransformFunctions/arm_cfft_f32.c ****     tw4 += twMod4;
 933:.\DSP\Source\TransformFunctions/arm_cfft_f32.c **** 
 934:.\DSP\Source\TransformFunctions/arm_cfft_f32.c ****     for (l = (L - 2) >> 1; l > 0; l-- )
 808              		.loc 1 934 0
 809 0126 4FF00009 		mov	r9, #0
 810              	.LVL147:
 811 012a CA46     		mov	r10, r9
 812              	.LVL148:
 928:.\DSP\Source\TransformFunctions/arm_cfft_f32.c ****     *p4++ = t4[1];
 813              		.loc 1 928 0
 814 012c 029B     		ldr	r3, [sp, #8]
 815 012e 069A     		ldr	r2, [sp, #24]
 816 0130 5860     		str	r0, [r3, #4]	@ float
 817              	.LVL149:
 932:.\DSP\Source\TransformFunctions/arm_cfft_f32.c **** 
 818              		.loc 1 932 0
 819 0132 019B     		ldr	r3, [sp, #4]
 820 0134 043A     		subs	r2, r2, #4
 821 0136 1833     		adds	r3, r3, #24
 822 0138 1193     		str	r3, [sp, #68]
 823              	.LVL150:
 824              		.loc 1 934 0
 825 013a 129B     		ldr	r3, [sp, #72]
 826              	.LVL151:
 827 013c 023B     		subs	r3, r3, #2
 828 013e 5B08     		lsrs	r3, r3, #1
 829 0140 2093     		str	r3, [sp, #128]
 830              	.LVL152:
 831 0142 099B     		ldr	r3, [sp, #36]
 832              	.LVL153:
 833 0144 0B93     		str	r3, [sp, #44]
 889:.\DSP\Source\TransformFunctions/arm_cfft_f32.c ****     pEnd3 = p4 - 1;
 834              		.loc 1 889 0
 835 0146 039B     		ldr	r3, [sp, #12]
 836 0148 043B     		subs	r3, r3, #4
 837              	.LVL154:
 838 014a 0893     		str	r3, [sp, #32]
 891:.\DSP\Source\TransformFunctions/arm_cfft_f32.c **** 
 839              		.loc 1 891 0
ARM GAS  C:\Users\IVYLIU~1\AppData\Local\Temp\ccWLNWQl.s 			page 34


 840 014c 029B     		ldr	r3, [sp, #8]
 841              	.LVL155:
 842 014e 1344     		add	r3, r3, r2
 843 0150 0793     		str	r3, [sp, #28]
 844 0152 DDF844C0 		ldr	ip, [sp, #68]
 845 0156 0E9B     		ldr	r3, [sp, #56]
 846              		.loc 1 934 0
 847 0158 CDF83090 		str	r9, [sp, #48]
 848 015c 0693     		str	r3, [sp, #24]
 849 015e 0F9B     		ldr	r3, [sp, #60]
 850 0160 0A93     		str	r3, [sp, #40]
 851 0162 109B     		ldr	r3, [sp, #64]
 852 0164 0593     		str	r3, [sp, #20]
 853              	.LVL156:
 854              	.L7:
 855 0166 0B9B     		ldr	r3, [sp, #44]
 856 0168 A9F10809 		sub	r9, r9, #8
 857 016c 0833     		adds	r3, r3, #8
 858 016e 0B93     		str	r3, [sp, #44]
 859 0170 0C9B     		ldr	r3, [sp, #48]
 860 0172 0CF1180C 		add	ip, ip, #24
 861              	.LVL157:
 862 0176 0833     		adds	r3, r3, #8
 863 0178 0C93     		str	r3, [sp, #48]
 864 017a 089B     		ldr	r3, [sp, #32]
 865 017c 083B     		subs	r3, r3, #8
 866 017e 0893     		str	r3, [sp, #32]
 867 0180 079B     		ldr	r3, [sp, #28]
 868 0182 083B     		subs	r3, r3, #8
 869 0184 0793     		str	r3, [sp, #28]
 870 0186 069B     		ldr	r3, [sp, #24]
 871 0188 0833     		adds	r3, r3, #8
 872 018a 0693     		str	r3, [sp, #24]
 873 018c 0A9B     		ldr	r3, [sp, #40]
 874 018e 0833     		adds	r3, r3, #8
 875 0190 0A93     		str	r3, [sp, #40]
 876 0192 059B     		ldr	r3, [sp, #20]
 877 0194 0833     		adds	r3, r3, #8
 878 0196 0593     		str	r3, [sp, #20]
 879              		.loc 1 934 0 is_stmt 0 discriminator 1
 880 0198 209B     		ldr	r3, [sp, #128]
 881 019a 9A45     		cmp	r10, r3
 882 019c 00F0BB81 		beq	.L9
 935:.\DSP\Source\TransformFunctions/arm_cfft_f32.c ****     {
 936:.\DSP\Source\TransformFunctions/arm_cfft_f32.c ****       /* TOP */
 937:.\DSP\Source\TransformFunctions/arm_cfft_f32.c ****       p1ap3_0 = p1[0] + p3[0];
 883              		.loc 1 937 0 is_stmt 1 discriminator 3
 884 01a0 0B9B     		ldr	r3, [sp, #44]
 885 01a2 CDF88CC0 		str	ip, [sp, #140]
 886 01a6 53F8085C 		ldr	r5, [r3, #-8]	@ float
 887 01aa 0A9B     		ldr	r3, [sp, #40]
 888 01ac 2846     		mov	r0, r5
 889 01ae 53F8084C 		ldr	r4, [r3, #-8]	@ float
 890 01b2 2146     		mov	r1, r4
 891 01b4 FFF7FEFF 		bl	__aeabi_fadd
 892              	.LVL158:
 938:.\DSP\Source\TransformFunctions/arm_cfft_f32.c ****       p1sp3_0 = p1[0] - p3[0];
ARM GAS  C:\Users\IVYLIU~1\AppData\Local\Temp\ccWLNWQl.s 			page 35


 893              		.loc 1 938 0 discriminator 3
 894 01b8 2146     		mov	r1, r4
 937:.\DSP\Source\TransformFunctions/arm_cfft_f32.c ****       p1sp3_0 = p1[0] - p3[0];
 895              		.loc 1 937 0 discriminator 3
 896 01ba 8046     		mov	r8, r0
 897              	.LVL159:
 898              		.loc 1 938 0 discriminator 3
 899 01bc 2846     		mov	r0, r5
 900              	.LVL160:
 901 01be FFF7FEFF 		bl	__aeabi_fsub
 902              	.LVL161:
 939:.\DSP\Source\TransformFunctions/arm_cfft_f32.c ****       p1ap3_1 = p1[1] + p3[1];
 903              		.loc 1 939 0 discriminator 3
 904 01c2 0B9B     		ldr	r3, [sp, #44]
 938:.\DSP\Source\TransformFunctions/arm_cfft_f32.c ****       p1sp3_0 = p1[0] - p3[0];
 905              		.loc 1 938 0 discriminator 3
 906 01c4 1390     		str	r0, [sp, #76]	@ float
 907              	.LVL162:
 908              		.loc 1 939 0 discriminator 3
 909 01c6 53F8045C 		ldr	r5, [r3, #-4]	@ float
 910 01ca 0A9B     		ldr	r3, [sp, #40]
 911 01cc 2846     		mov	r0, r5
 912              	.LVL163:
 913 01ce 53F8044C 		ldr	r4, [r3, #-4]	@ float
 914 01d2 2146     		mov	r1, r4
 915 01d4 FFF7FEFF 		bl	__aeabi_fadd
 916              	.LVL164:
 940:.\DSP\Source\TransformFunctions/arm_cfft_f32.c ****       p1sp3_1 = p1[1] - p3[1];
 917              		.loc 1 940 0 discriminator 3
 918 01d8 2146     		mov	r1, r4
 939:.\DSP\Source\TransformFunctions/arm_cfft_f32.c ****       p1ap3_1 = p1[1] + p3[1];
 919              		.loc 1 939 0 discriminator 3
 920 01da 0746     		mov	r7, r0
 921              	.LVL165:
 922              		.loc 1 940 0 discriminator 3
 923 01dc 2846     		mov	r0, r5
 924              	.LVL166:
 925 01de FFF7FEFF 		bl	__aeabi_fsub
 926              	.LVL167:
 941:.\DSP\Source\TransformFunctions/arm_cfft_f32.c ****       /* col 2 */
 942:.\DSP\Source\TransformFunctions/arm_cfft_f32.c ****       t2[0] = p1sp3_0 + p2[1] - p4[1];
 927              		.loc 1 942 0 discriminator 3
 928 01e2 069B     		ldr	r3, [sp, #24]
 940:.\DSP\Source\TransformFunctions/arm_cfft_f32.c ****       p1sp3_1 = p1[1] - p3[1];
 929              		.loc 1 940 0 discriminator 3
 930 01e4 1490     		str	r0, [sp, #80]	@ float
 931              	.LVL168:
 932              		.loc 1 942 0 discriminator 3
 933 01e6 53F804BC 		ldr	fp, [r3, #-4]	@ float
 934 01ea 059B     		ldr	r3, [sp, #20]
 935 01ec 5946     		mov	r1, fp
 936 01ee 53F8046C 		ldr	r6, [r3, #-4]	@ float
 937 01f2 1398     		ldr	r0, [sp, #76]	@ float
 938              	.LVL169:
 939 01f4 FFF7FEFF 		bl	__aeabi_fadd
 940              	.LVL170:
 941 01f8 3146     		mov	r1, r6
ARM GAS  C:\Users\IVYLIU~1\AppData\Local\Temp\ccWLNWQl.s 			page 36


 942 01fa FFF7FEFF 		bl	__aeabi_fsub
 943              	.LVL171:
 943:.\DSP\Source\TransformFunctions/arm_cfft_f32.c ****       t2[1] = p1sp3_1 - p2[0] + p4[0];
 944              		.loc 1 943 0 discriminator 3
 945 01fe 069B     		ldr	r3, [sp, #24]
 942:.\DSP\Source\TransformFunctions/arm_cfft_f32.c ****       t2[1] = p1sp3_1 - p2[0] + p4[0];
 946              		.loc 1 942 0 discriminator 3
 947 0200 1590     		str	r0, [sp, #84]	@ float
 948              	.LVL172:
 949              		.loc 1 943 0 discriminator 3
 950 0202 53F8085C 		ldr	r5, [r3, #-8]	@ float
 951 0206 059B     		ldr	r3, [sp, #20]
 952 0208 2946     		mov	r1, r5
 953 020a 53F8084C 		ldr	r4, [r3, #-8]	@ float
 954 020e 1498     		ldr	r0, [sp, #80]	@ float
 955              	.LVL173:
 956 0210 FFF7FEFF 		bl	__aeabi_fsub
 957              	.LVL174:
 958 0214 2146     		mov	r1, r4
 959 0216 FFF7FEFF 		bl	__aeabi_fadd
 960              	.LVL175:
 944:.\DSP\Source\TransformFunctions/arm_cfft_f32.c ****       /* col 3 */
 945:.\DSP\Source\TransformFunctions/arm_cfft_f32.c ****       t3[0] = p1ap3_0 - p2[0] - p4[0];
 961              		.loc 1 945 0 discriminator 3
 962 021a 2946     		mov	r1, r5
 943:.\DSP\Source\TransformFunctions/arm_cfft_f32.c ****       /* col 3 */
 963              		.loc 1 943 0 discriminator 3
 964 021c 1690     		str	r0, [sp, #88]	@ float
 965              	.LVL176:
 966              		.loc 1 945 0 discriminator 3
 967 021e 4046     		mov	r0, r8
 968              	.LVL177:
 969 0220 FFF7FEFF 		bl	__aeabi_fsub
 970              	.LVL178:
 971 0224 2146     		mov	r1, r4
 972 0226 FFF7FEFF 		bl	__aeabi_fsub
 973              	.LVL179:
 946:.\DSP\Source\TransformFunctions/arm_cfft_f32.c ****       t3[1] = p1ap3_1 - p2[1] - p4[1];
 974              		.loc 1 946 0 discriminator 3
 975 022a 5946     		mov	r1, fp
 945:.\DSP\Source\TransformFunctions/arm_cfft_f32.c ****       t3[1] = p1ap3_1 - p2[1] - p4[1];
 976              		.loc 1 945 0 discriminator 3
 977 022c 1790     		str	r0, [sp, #92]	@ float
 978              	.LVL180:
 979              		.loc 1 946 0 discriminator 3
 980 022e 3846     		mov	r0, r7
 981              	.LVL181:
 982 0230 FFF7FEFF 		bl	__aeabi_fsub
 983              	.LVL182:
 984 0234 3146     		mov	r1, r6
 985 0236 FFF7FEFF 		bl	__aeabi_fsub
 986              	.LVL183:
 947:.\DSP\Source\TransformFunctions/arm_cfft_f32.c ****       /* col 4 */
 948:.\DSP\Source\TransformFunctions/arm_cfft_f32.c ****       t4[0] = p1sp3_0 - p2[1] + p4[1];
 987              		.loc 1 948 0 discriminator 3
 988 023a 5946     		mov	r1, fp
 946:.\DSP\Source\TransformFunctions/arm_cfft_f32.c ****       /* col 4 */
ARM GAS  C:\Users\IVYLIU~1\AppData\Local\Temp\ccWLNWQl.s 			page 37


 989              		.loc 1 946 0 discriminator 3
 990 023c 1890     		str	r0, [sp, #96]	@ float
 991              	.LVL184:
 992              		.loc 1 948 0 discriminator 3
 993 023e 1398     		ldr	r0, [sp, #76]	@ float
 994              	.LVL185:
 995 0240 FFF7FEFF 		bl	__aeabi_fsub
 996              	.LVL186:
 997 0244 3146     		mov	r1, r6
 998 0246 FFF7FEFF 		bl	__aeabi_fadd
 999              	.LVL187:
 949:.\DSP\Source\TransformFunctions/arm_cfft_f32.c ****       t4[1] = p1sp3_1 + p2[0] - p4[0];
 1000              		.loc 1 949 0 discriminator 3
 1001 024a 2946     		mov	r1, r5
 948:.\DSP\Source\TransformFunctions/arm_cfft_f32.c ****       t4[1] = p1sp3_1 + p2[0] - p4[0];
 1002              		.loc 1 948 0 discriminator 3
 1003 024c 1990     		str	r0, [sp, #100]	@ float
 1004              	.LVL188:
 1005              		.loc 1 949 0 discriminator 3
 1006 024e 1498     		ldr	r0, [sp, #80]	@ float
 1007              	.LVL189:
 1008 0250 FFF7FEFF 		bl	__aeabi_fadd
 1009              	.LVL190:
 1010 0254 2146     		mov	r1, r4
 1011 0256 FFF7FEFF 		bl	__aeabi_fsub
 1012              	.LVL191:
 950:.\DSP\Source\TransformFunctions/arm_cfft_f32.c ****       /* col 1 - top */
 951:.\DSP\Source\TransformFunctions/arm_cfft_f32.c ****       *p1++ = p1ap3_0 + p2[0] + p4[0];
 1013              		.loc 1 951 0 discriminator 3
 1014 025a 2946     		mov	r1, r5
 949:.\DSP\Source\TransformFunctions/arm_cfft_f32.c ****       /* col 1 - top */
 1015              		.loc 1 949 0 discriminator 3
 1016 025c 1490     		str	r0, [sp, #80]	@ float
 1017              	.LVL192:
 1018              		.loc 1 951 0 discriminator 3
 1019 025e 4046     		mov	r0, r8
 1020              	.LVL193:
 1021 0260 FFF7FEFF 		bl	__aeabi_fadd
 1022              	.LVL194:
 1023 0264 2146     		mov	r1, r4
 1024 0266 FFF7FEFF 		bl	__aeabi_fadd
 1025              	.LVL195:
 1026 026a 0B9B     		ldr	r3, [sp, #44]
 1027 026c 43F8080C 		str	r0, [r3, #-8]	@ float
 952:.\DSP\Source\TransformFunctions/arm_cfft_f32.c ****       *p1++ = p1ap3_1 + p2[1] + p4[1];
 1028              		.loc 1 952 0 discriminator 3
 1029 0270 069B     		ldr	r3, [sp, #24]
 1030 0272 3846     		mov	r0, r7
 1031 0274 53F8041C 		ldr	r1, [r3, #-4]	@ float
 1032 0278 FFF7FEFF 		bl	__aeabi_fadd
 1033              	.LVL196:
 1034 027c 059B     		ldr	r3, [sp, #20]
 1035 027e 53F8041C 		ldr	r1, [r3, #-4]	@ float
 1036 0282 FFF7FEFF 		bl	__aeabi_fadd
 1037              	.LVL197:
 1038 0286 0B9B     		ldr	r3, [sp, #44]
 1039 0288 43F8040C 		str	r0, [r3, #-4]	@ float
ARM GAS  C:\Users\IVYLIU~1\AppData\Local\Temp\ccWLNWQl.s 			page 38


 953:.\DSP\Source\TransformFunctions/arm_cfft_f32.c **** 
 954:.\DSP\Source\TransformFunctions/arm_cfft_f32.c ****       /* BOTTOM */
 955:.\DSP\Source\TransformFunctions/arm_cfft_f32.c ****       p1ap3_1 = pEnd1[-1] + pEnd3[-1];
 1040              		.loc 1 955 0 discriminator 3
 1041 028c 009B     		ldr	r3, [sp]
 1042 028e 53F80950 		ldr	r5, [r3, r9]	@ float
 1043 0292 029B     		ldr	r3, [sp, #8]
 1044 0294 2846     		mov	r0, r5
 1045 0296 53F80940 		ldr	r4, [r3, r9]	@ float
 1046 029a 2146     		mov	r1, r4
 1047 029c FFF7FEFF 		bl	__aeabi_fadd
 1048              	.LVL198:
 956:.\DSP\Source\TransformFunctions/arm_cfft_f32.c ****       p1sp3_1 = pEnd1[-1] - pEnd3[-1];
 1049              		.loc 1 956 0 discriminator 3
 1050 02a0 2146     		mov	r1, r4
 955:.\DSP\Source\TransformFunctions/arm_cfft_f32.c ****       p1sp3_1 = pEnd1[-1] - pEnd3[-1];
 1051              		.loc 1 955 0 discriminator 3
 1052 02a2 8046     		mov	r8, r0
 1053              	.LVL199:
 1054              		.loc 1 956 0 discriminator 3
 1055 02a4 2846     		mov	r0, r5
 1056              	.LVL200:
 1057 02a6 FFF7FEFF 		bl	__aeabi_fsub
 1058              	.LVL201:
 1059 02aa 009B     		ldr	r3, [sp]
 1060 02ac 8346     		mov	fp, r0
 1061              	.LVL202:
 1062 02ae 03EB0902 		add	r2, r3, r9
 1063 02b2 029B     		ldr	r3, [sp, #8]
 957:.\DSP\Source\TransformFunctions/arm_cfft_f32.c ****       p1ap3_0 = pEnd1[ 0] + pEnd3[0];
 1064              		.loc 1 957 0 discriminator 3
 1065 02b4 5568     		ldr	r5, [r2, #4]	@ float
 1066 02b6 4B44     		add	r3, r3, r9
 1067 02b8 5C68     		ldr	r4, [r3, #4]	@ float
 1068 02ba 2846     		mov	r0, r5
 1069              	.LVL203:
 1070 02bc 2146     		mov	r1, r4
 1071 02be 2292     		str	r2, [sp, #136]
 1072 02c0 1393     		str	r3, [sp, #76]
 1073              	.LVL204:
 1074 02c2 FFF7FEFF 		bl	__aeabi_fadd
 1075              	.LVL205:
 958:.\DSP\Source\TransformFunctions/arm_cfft_f32.c ****       p1sp3_0 = pEnd1[ 0] - pEnd3[0];
 1076              		.loc 1 958 0 discriminator 3
 1077 02c6 2146     		mov	r1, r4
 957:.\DSP\Source\TransformFunctions/arm_cfft_f32.c ****       p1ap3_0 = pEnd1[ 0] + pEnd3[0];
 1078              		.loc 1 957 0 discriminator 3
 1079 02c8 1A90     		str	r0, [sp, #104]	@ float
 1080              	.LVL206:
 1081              		.loc 1 958 0 discriminator 3
 1082 02ca 2846     		mov	r0, r5
 1083              	.LVL207:
 1084 02cc FFF7FEFF 		bl	__aeabi_fsub
 1085              	.LVL208:
 959:.\DSP\Source\TransformFunctions/arm_cfft_f32.c ****       /* col 2 */
 960:.\DSP\Source\TransformFunctions/arm_cfft_f32.c ****       t2[2] = pEnd2[0] - pEnd4[0] + p1sp3_1;
 1086              		.loc 1 960 0 discriminator 3
ARM GAS  C:\Users\IVYLIU~1\AppData\Local\Temp\ccWLNWQl.s 			page 39


 1087 02d0 089B     		ldr	r3, [sp, #32]
 958:.\DSP\Source\TransformFunctions/arm_cfft_f32.c ****       p1sp3_0 = pEnd1[ 0] - pEnd3[0];
 1088              		.loc 1 958 0 discriminator 3
 1089 02d2 1B90     		str	r0, [sp, #108]	@ float
 1090              	.LVL209:
 1091              		.loc 1 960 0 discriminator 3
 1092 02d4 9D68     		ldr	r5, [r3, #8]	@ float
 1093 02d6 079B     		ldr	r3, [sp, #28]
 1094 02d8 2846     		mov	r0, r5
 1095              	.LVL210:
 1096 02da 9C68     		ldr	r4, [r3, #8]	@ float
 1097 02dc 2146     		mov	r1, r4
 1098 02de FFF7FEFF 		bl	__aeabi_fsub
 1099              	.LVL211:
 1100 02e2 5946     		mov	r1, fp
 1101 02e4 2190     		str	r0, [sp, #132]
 1102 02e6 FFF7FEFF 		bl	__aeabi_fadd
 1103              	.LVL212:
 961:.\DSP\Source\TransformFunctions/arm_cfft_f32.c ****       t2[3] = pEnd1[0] - pEnd3[0] - pEnd2[-1] + pEnd4[-1];
 1104              		.loc 1 961 0 discriminator 3
 1105 02ea 089B     		ldr	r3, [sp, #32]
 960:.\DSP\Source\TransformFunctions/arm_cfft_f32.c ****       t2[3] = pEnd1[0] - pEnd3[0] - pEnd2[-1] + pEnd4[-1];
 1106              		.loc 1 960 0 discriminator 3
 1107 02ec 1C90     		str	r0, [sp, #112]	@ float
 1108              	.LVL213:
 1109              		.loc 1 961 0 discriminator 3
 1110 02ee 5F68     		ldr	r7, [r3, #4]	@ float
 1111 02f0 079B     		ldr	r3, [sp, #28]
 1112 02f2 3946     		mov	r1, r7
 1113 02f4 5E68     		ldr	r6, [r3, #4]	@ float
 1114 02f6 1B98     		ldr	r0, [sp, #108]	@ float
 1115              	.LVL214:
 1116 02f8 FFF7FEFF 		bl	__aeabi_fsub
 1117              	.LVL215:
 1118 02fc 3146     		mov	r1, r6
 1119 02fe FFF7FEFF 		bl	__aeabi_fadd
 1120              	.LVL216:
 962:.\DSP\Source\TransformFunctions/arm_cfft_f32.c ****       /* col 3 */
 963:.\DSP\Source\TransformFunctions/arm_cfft_f32.c ****       t3[2] = p1ap3_1 - pEnd2[-1] - pEnd4[-1];
 1121              		.loc 1 963 0 discriminator 3
 1122 0302 3946     		mov	r1, r7
 961:.\DSP\Source\TransformFunctions/arm_cfft_f32.c ****       /* col 3 */
 1123              		.loc 1 961 0 discriminator 3
 1124 0304 1D90     		str	r0, [sp, #116]	@ float
 1125              	.LVL217:
 1126              		.loc 1 963 0 discriminator 3
 1127 0306 4046     		mov	r0, r8
 1128              	.LVL218:
 1129 0308 FFF7FEFF 		bl	__aeabi_fsub
 1130              	.LVL219:
 1131 030c 3146     		mov	r1, r6
 1132 030e FFF7FEFF 		bl	__aeabi_fsub
 1133              	.LVL220:
 964:.\DSP\Source\TransformFunctions/arm_cfft_f32.c ****       t3[3] = p1ap3_0 - pEnd2[ 0] - pEnd4[ 0];
 1134              		.loc 1 964 0 discriminator 3
 1135 0312 2946     		mov	r1, r5
 963:.\DSP\Source\TransformFunctions/arm_cfft_f32.c ****       t3[3] = p1ap3_0 - pEnd2[ 0] - pEnd4[ 0];
ARM GAS  C:\Users\IVYLIU~1\AppData\Local\Temp\ccWLNWQl.s 			page 40


 1136              		.loc 1 963 0 discriminator 3
 1137 0314 1E90     		str	r0, [sp, #120]	@ float
 1138              	.LVL221:
 1139              		.loc 1 964 0 discriminator 3
 1140 0316 1A98     		ldr	r0, [sp, #104]	@ float
 1141              	.LVL222:
 1142 0318 FFF7FEFF 		bl	__aeabi_fsub
 1143              	.LVL223:
 1144 031c 2146     		mov	r1, r4
 1145 031e FFF7FEFF 		bl	__aeabi_fsub
 1146              	.LVL224:
 965:.\DSP\Source\TransformFunctions/arm_cfft_f32.c ****       /* col 4 */
 966:.\DSP\Source\TransformFunctions/arm_cfft_f32.c ****       t4[2] = pEnd2[ 0] - pEnd4[ 0] - p1sp3_1;
 1147              		.loc 1 966 0 discriminator 3
 1148 0322 219B     		ldr	r3, [sp, #132]
 1149 0324 5946     		mov	r1, fp
 964:.\DSP\Source\TransformFunctions/arm_cfft_f32.c ****       /* col 4 */
 1150              		.loc 1 964 0 discriminator 3
 1151 0326 1F90     		str	r0, [sp, #124]	@ float
 1152              	.LVL225:
 1153              		.loc 1 966 0 discriminator 3
 1154 0328 1846     		mov	r0, r3
 1155              	.LVL226:
 1156 032a FFF7FEFF 		bl	__aeabi_fsub
 1157              	.LVL227:
 967:.\DSP\Source\TransformFunctions/arm_cfft_f32.c ****       t4[3] = pEnd4[-1] - pEnd2[-1] - p1sp3_0;
 1158              		.loc 1 967 0 discriminator 3
 1159 032e 3946     		mov	r1, r7
 966:.\DSP\Source\TransformFunctions/arm_cfft_f32.c ****       t4[3] = pEnd4[-1] - pEnd2[-1] - p1sp3_0;
 1160              		.loc 1 966 0 discriminator 3
 1161 0330 8346     		mov	fp, r0
 1162              	.LVL228:
 1163              		.loc 1 967 0 discriminator 3
 1164 0332 3046     		mov	r0, r6
 1165              	.LVL229:
 1166 0334 FFF7FEFF 		bl	__aeabi_fsub
 1167              	.LVL230:
 1168 0338 1B99     		ldr	r1, [sp, #108]	@ float
 1169 033a FFF7FEFF 		bl	__aeabi_fsub
 1170              	.LVL231:
 968:.\DSP\Source\TransformFunctions/arm_cfft_f32.c ****       /* col 1 - Bottom */
 969:.\DSP\Source\TransformFunctions/arm_cfft_f32.c ****       *pEnd1-- = p1ap3_0 + pEnd2[ 0] + pEnd4[ 0];
 1171              		.loc 1 969 0 discriminator 3
 1172 033e 2946     		mov	r1, r5
 967:.\DSP\Source\TransformFunctions/arm_cfft_f32.c ****       /* col 1 - Bottom */
 1173              		.loc 1 967 0 discriminator 3
 1174 0340 0646     		mov	r6, r0
 1175              	.LVL232:
 1176              		.loc 1 969 0 discriminator 3
 1177 0342 1A98     		ldr	r0, [sp, #104]	@ float
 1178              	.LVL233:
 1179 0344 FFF7FEFF 		bl	__aeabi_fadd
 1180              	.LVL234:
 1181 0348 2146     		mov	r1, r4
 1182 034a FFF7FEFF 		bl	__aeabi_fadd
 1183              	.LVL235:
 1184 034e 229A     		ldr	r2, [sp, #136]
ARM GAS  C:\Users\IVYLIU~1\AppData\Local\Temp\ccWLNWQl.s 			page 41


 970:.\DSP\Source\TransformFunctions/arm_cfft_f32.c ****       *pEnd1-- = p1ap3_1 + pEnd2[-1] + pEnd4[-1];
 1185              		.loc 1 970 0 discriminator 3
 1186 0350 089B     		ldr	r3, [sp, #32]
 969:.\DSP\Source\TransformFunctions/arm_cfft_f32.c ****       *pEnd1-- = p1ap3_1 + pEnd2[-1] + pEnd4[-1];
 1187              		.loc 1 969 0 discriminator 3
 1188 0352 5060     		str	r0, [r2, #4]	@ float
 1189              	.LVL236:
 1190              		.loc 1 970 0 discriminator 3
 1191 0354 5968     		ldr	r1, [r3, #4]	@ float
 1192 0356 4046     		mov	r0, r8
 1193 0358 FFF7FEFF 		bl	__aeabi_fadd
 1194              	.LVL237:
 1195 035c 079B     		ldr	r3, [sp, #28]
 1196 035e 5968     		ldr	r1, [r3, #4]	@ float
 1197 0360 FFF7FEFF 		bl	__aeabi_fadd
 1198              	.LVL238:
 1199 0364 009B     		ldr	r3, [sp]
 971:.\DSP\Source\TransformFunctions/arm_cfft_f32.c **** 
 972:.\DSP\Source\TransformFunctions/arm_cfft_f32.c ****       /* COL 2 */
 973:.\DSP\Source\TransformFunctions/arm_cfft_f32.c ****       /* read twiddle factors */
 974:.\DSP\Source\TransformFunctions/arm_cfft_f32.c ****       twR = *tw2++;
 1200              		.loc 1 974 0 discriminator 3
 1201 0366 0C9A     		ldr	r2, [sp, #48]
 970:.\DSP\Source\TransformFunctions/arm_cfft_f32.c **** 
 1202              		.loc 1 970 0 discriminator 3
 1203 0368 43F80900 		str	r0, [r3, r9]	@ float
 1204              		.loc 1 974 0 discriminator 3
 1205 036c 019B     		ldr	r3, [sp, #4]
 975:.\DSP\Source\TransformFunctions/arm_cfft_f32.c ****       twI = *tw2++;
 976:.\DSP\Source\TransformFunctions/arm_cfft_f32.c ****       /* multiply by twiddle factors */
 977:.\DSP\Source\TransformFunctions/arm_cfft_f32.c ****       /*  let    Z1 = a + i(b),   Z2 = c + i(d) */
 978:.\DSP\Source\TransformFunctions/arm_cfft_f32.c ****       /*   =>  Z1 * Z2  =  (a*c - b*d) + i(b*c + a*d) */
 979:.\DSP\Source\TransformFunctions/arm_cfft_f32.c **** 
 980:.\DSP\Source\TransformFunctions/arm_cfft_f32.c ****       /* Top */
 981:.\DSP\Source\TransformFunctions/arm_cfft_f32.c ****       m0 = t2[0] * twR;
 1206              		.loc 1 981 0 discriminator 3
 1207 036e 1598     		ldr	r0, [sp, #84]	@ float
 974:.\DSP\Source\TransformFunctions/arm_cfft_f32.c ****       twI = *tw2++;
 1208              		.loc 1 974 0 discriminator 3
 1209 0370 9C58     		ldr	r4, [r3, r2]	@ float
 1210              	.LVL239:
 1211 0372 1344     		add	r3, r3, r2
 1212              	.LVL240:
 1213              		.loc 1 981 0 discriminator 3
 1214 0374 2146     		mov	r1, r4
 975:.\DSP\Source\TransformFunctions/arm_cfft_f32.c ****       twI = *tw2++;
 1215              		.loc 1 975 0 discriminator 3
 1216 0376 5D68     		ldr	r5, [r3, #4]	@ float
 1217              	.LVL241:
 1218              		.loc 1 981 0 discriminator 3
 1219 0378 FFF7FEFF 		bl	__aeabi_fmul
 1220              	.LVL242:
 982:.\DSP\Source\TransformFunctions/arm_cfft_f32.c ****       m1 = t2[1] * twI;
 1221              		.loc 1 982 0 discriminator 3
 1222 037c 2946     		mov	r1, r5
 981:.\DSP\Source\TransformFunctions/arm_cfft_f32.c ****       m1 = t2[1] * twI;
 1223              		.loc 1 981 0 discriminator 3
ARM GAS  C:\Users\IVYLIU~1\AppData\Local\Temp\ccWLNWQl.s 			page 42


 1224 037e 8046     		mov	r8, r0
 1225              	.LVL243:
 1226              		.loc 1 982 0 discriminator 3
 1227 0380 1698     		ldr	r0, [sp, #88]	@ float
 1228 0382 FFF7FEFF 		bl	__aeabi_fmul
 1229              	.LVL244:
 1230 0386 0146     		mov	r1, r0
 983:.\DSP\Source\TransformFunctions/arm_cfft_f32.c ****       m2 = t2[1] * twR;
 984:.\DSP\Source\TransformFunctions/arm_cfft_f32.c ****       m3 = t2[0] * twI;
 985:.\DSP\Source\TransformFunctions/arm_cfft_f32.c **** 
 986:.\DSP\Source\TransformFunctions/arm_cfft_f32.c ****       *p2++ = m0 + m1;
 1231              		.loc 1 986 0 discriminator 3
 1232 0388 4046     		mov	r0, r8
 1233 038a FFF7FEFF 		bl	__aeabi_fadd
 1234              	.LVL245:
 1235 038e 069B     		ldr	r3, [sp, #24]
 983:.\DSP\Source\TransformFunctions/arm_cfft_f32.c ****       m2 = t2[1] * twR;
 1236              		.loc 1 983 0 discriminator 3
 1237 0390 2146     		mov	r1, r4
 1238              		.loc 1 986 0 discriminator 3
 1239 0392 43F8080C 		str	r0, [r3, #-8]	@ float
 983:.\DSP\Source\TransformFunctions/arm_cfft_f32.c ****       m2 = t2[1] * twR;
 1240              		.loc 1 983 0 discriminator 3
 1241 0396 1698     		ldr	r0, [sp, #88]	@ float
 1242 0398 FFF7FEFF 		bl	__aeabi_fmul
 1243              	.LVL246:
 984:.\DSP\Source\TransformFunctions/arm_cfft_f32.c **** 
 1244              		.loc 1 984 0 discriminator 3
 1245 039c 2946     		mov	r1, r5
 983:.\DSP\Source\TransformFunctions/arm_cfft_f32.c ****       m2 = t2[1] * twR;
 1246              		.loc 1 983 0 discriminator 3
 1247 039e 8046     		mov	r8, r0
 984:.\DSP\Source\TransformFunctions/arm_cfft_f32.c **** 
 1248              		.loc 1 984 0 discriminator 3
 1249 03a0 1598     		ldr	r0, [sp, #84]	@ float
 1250 03a2 FFF7FEFF 		bl	__aeabi_fmul
 1251              	.LVL247:
 1252 03a6 0146     		mov	r1, r0
 987:.\DSP\Source\TransformFunctions/arm_cfft_f32.c ****       *p2++ = m2 - m3;
 1253              		.loc 1 987 0 discriminator 3
 1254 03a8 4046     		mov	r0, r8
 1255 03aa FFF7FEFF 		bl	__aeabi_fsub
 1256              	.LVL248:
 1257 03ae 069B     		ldr	r3, [sp, #24]
 988:.\DSP\Source\TransformFunctions/arm_cfft_f32.c ****       /* use vertical symmetry col 2 */
 989:.\DSP\Source\TransformFunctions/arm_cfft_f32.c ****       /* 0.9997 - 0.0245i  <==>  0.0245 - 0.9997i */
 990:.\DSP\Source\TransformFunctions/arm_cfft_f32.c ****       /* Bottom */
 991:.\DSP\Source\TransformFunctions/arm_cfft_f32.c ****       m0 = t2[3] * twI;
 1258              		.loc 1 991 0 discriminator 3
 1259 03b0 2946     		mov	r1, r5
 987:.\DSP\Source\TransformFunctions/arm_cfft_f32.c ****       *p2++ = m2 - m3;
 1260              		.loc 1 987 0 discriminator 3
 1261 03b2 43F8040C 		str	r0, [r3, #-4]	@ float
 1262              	.LVL249:
 1263              		.loc 1 991 0 discriminator 3
 1264 03b6 1D98     		ldr	r0, [sp, #116]	@ float
 1265 03b8 FFF7FEFF 		bl	__aeabi_fmul
ARM GAS  C:\Users\IVYLIU~1\AppData\Local\Temp\ccWLNWQl.s 			page 43


 1266              	.LVL250:
 992:.\DSP\Source\TransformFunctions/arm_cfft_f32.c ****       m1 = t2[2] * twR;
 1267              		.loc 1 992 0 discriminator 3
 1268 03bc 2146     		mov	r1, r4
 991:.\DSP\Source\TransformFunctions/arm_cfft_f32.c ****       m1 = t2[2] * twR;
 1269              		.loc 1 991 0 discriminator 3
 1270 03be 8046     		mov	r8, r0
 1271              		.loc 1 992 0 discriminator 3
 1272 03c0 1C98     		ldr	r0, [sp, #112]	@ float
 1273 03c2 FFF7FEFF 		bl	__aeabi_fmul
 1274              	.LVL251:
 1275 03c6 0146     		mov	r1, r0
 993:.\DSP\Source\TransformFunctions/arm_cfft_f32.c ****       m2 = t2[2] * twI;
 994:.\DSP\Source\TransformFunctions/arm_cfft_f32.c ****       m3 = t2[3] * twR;
 995:.\DSP\Source\TransformFunctions/arm_cfft_f32.c **** 
 996:.\DSP\Source\TransformFunctions/arm_cfft_f32.c ****       *pEnd2-- = m0 - m1;
 1276              		.loc 1 996 0 discriminator 3
 1277 03c8 4046     		mov	r0, r8
 1278 03ca FFF7FEFF 		bl	__aeabi_fsub
 1279              	.LVL252:
 1280 03ce 089B     		ldr	r3, [sp, #32]
 993:.\DSP\Source\TransformFunctions/arm_cfft_f32.c ****       m2 = t2[2] * twI;
 1281              		.loc 1 993 0 discriminator 3
 1282 03d0 2946     		mov	r1, r5
 1283              		.loc 1 996 0 discriminator 3
 1284 03d2 9860     		str	r0, [r3, #8]	@ float
 993:.\DSP\Source\TransformFunctions/arm_cfft_f32.c ****       m2 = t2[2] * twI;
 1285              		.loc 1 993 0 discriminator 3
 1286 03d4 1C98     		ldr	r0, [sp, #112]	@ float
 1287 03d6 FFF7FEFF 		bl	__aeabi_fmul
 1288              	.LVL253:
 994:.\DSP\Source\TransformFunctions/arm_cfft_f32.c **** 
 1289              		.loc 1 994 0 discriminator 3
 1290 03da 2146     		mov	r1, r4
 993:.\DSP\Source\TransformFunctions/arm_cfft_f32.c ****       m2 = t2[2] * twI;
 1291              		.loc 1 993 0 discriminator 3
 1292 03dc 0546     		mov	r5, r0
 1293              	.LVL254:
 994:.\DSP\Source\TransformFunctions/arm_cfft_f32.c **** 
 1294              		.loc 1 994 0 discriminator 3
 1295 03de 1D98     		ldr	r0, [sp, #116]	@ float
 1296 03e0 FFF7FEFF 		bl	__aeabi_fmul
 1297              	.LVL255:
 1298 03e4 0146     		mov	r1, r0
 997:.\DSP\Source\TransformFunctions/arm_cfft_f32.c ****       *pEnd2-- = m2 + m3;
 1299              		.loc 1 997 0 discriminator 3
 1300 03e6 2846     		mov	r0, r5
 1301 03e8 FFF7FEFF 		bl	__aeabi_fadd
 1302              	.LVL256:
 1303 03ec 089B     		ldr	r3, [sp, #32]
 998:.\DSP\Source\TransformFunctions/arm_cfft_f32.c **** 
 999:.\DSP\Source\TransformFunctions/arm_cfft_f32.c ****       /* COL 3 */
1000:.\DSP\Source\TransformFunctions/arm_cfft_f32.c ****       twR = tw3[0];
 1304              		.loc 1 1000 0 discriminator 3
 1305 03ee 0C9A     		ldr	r2, [sp, #48]
 997:.\DSP\Source\TransformFunctions/arm_cfft_f32.c ****       *pEnd2-- = m2 + m3;
 1306              		.loc 1 997 0 discriminator 3
ARM GAS  C:\Users\IVYLIU~1\AppData\Local\Temp\ccWLNWQl.s 			page 44


 1307 03f0 5860     		str	r0, [r3, #4]	@ float
 1308              		.loc 1 1000 0 discriminator 3
 1309 03f2 019B     		ldr	r3, [sp, #4]
1001:.\DSP\Source\TransformFunctions/arm_cfft_f32.c ****       twI = tw3[1];
1002:.\DSP\Source\TransformFunctions/arm_cfft_f32.c ****       tw3 += twMod3;
1003:.\DSP\Source\TransformFunctions/arm_cfft_f32.c ****       /* Top */
1004:.\DSP\Source\TransformFunctions/arm_cfft_f32.c ****       m0 = t3[0] * twR;
 1310              		.loc 1 1004 0 discriminator 3
 1311 03f4 1798     		ldr	r0, [sp, #92]	@ float
1000:.\DSP\Source\TransformFunctions/arm_cfft_f32.c ****       twI = tw3[1];
 1312              		.loc 1 1000 0 discriminator 3
 1313 03f6 53F81240 		ldr	r4, [r3, r2, lsl #1]	@ float
 1314              	.LVL257:
 1315 03fa 03EB0A13 		add	r3, r3, r10, lsl #4
 1316              		.loc 1 1004 0 discriminator 3
 1317 03fe 2146     		mov	r1, r4
1001:.\DSP\Source\TransformFunctions/arm_cfft_f32.c ****       twI = tw3[1];
 1318              		.loc 1 1001 0 discriminator 3
 1319 0400 5D69     		ldr	r5, [r3, #20]	@ float
 1320              	.LVL258:
 1321              		.loc 1 1004 0 discriminator 3
 1322 0402 FFF7FEFF 		bl	__aeabi_fmul
 1323              	.LVL259:
1005:.\DSP\Source\TransformFunctions/arm_cfft_f32.c ****       m1 = t3[1] * twI;
 1324              		.loc 1 1005 0 discriminator 3
 1325 0406 2946     		mov	r1, r5
1004:.\DSP\Source\TransformFunctions/arm_cfft_f32.c ****       m1 = t3[1] * twI;
 1326              		.loc 1 1004 0 discriminator 3
 1327 0408 0746     		mov	r7, r0
 1328              		.loc 1 1005 0 discriminator 3
 1329 040a 1898     		ldr	r0, [sp, #96]	@ float
 1330 040c FFF7FEFF 		bl	__aeabi_fmul
 1331              	.LVL260:
 1332 0410 0146     		mov	r1, r0
1006:.\DSP\Source\TransformFunctions/arm_cfft_f32.c ****       m2 = t3[1] * twR;
1007:.\DSP\Source\TransformFunctions/arm_cfft_f32.c ****       m3 = t3[0] * twI;
1008:.\DSP\Source\TransformFunctions/arm_cfft_f32.c **** 
1009:.\DSP\Source\TransformFunctions/arm_cfft_f32.c ****       *p3++ = m0 + m1;
 1333              		.loc 1 1009 0 discriminator 3
 1334 0412 3846     		mov	r0, r7
 1335 0414 FFF7FEFF 		bl	__aeabi_fadd
 1336              	.LVL261:
 1337 0418 0A9B     		ldr	r3, [sp, #40]
1006:.\DSP\Source\TransformFunctions/arm_cfft_f32.c ****       m2 = t3[1] * twR;
 1338              		.loc 1 1006 0 discriminator 3
 1339 041a 2146     		mov	r1, r4
 1340              		.loc 1 1009 0 discriminator 3
 1341 041c 43F8080C 		str	r0, [r3, #-8]	@ float
1006:.\DSP\Source\TransformFunctions/arm_cfft_f32.c ****       m2 = t3[1] * twR;
 1342              		.loc 1 1006 0 discriminator 3
 1343 0420 1898     		ldr	r0, [sp, #96]	@ float
 1344 0422 FFF7FEFF 		bl	__aeabi_fmul
 1345              	.LVL262:
1007:.\DSP\Source\TransformFunctions/arm_cfft_f32.c **** 
 1346              		.loc 1 1007 0 discriminator 3
 1347 0426 2946     		mov	r1, r5
1006:.\DSP\Source\TransformFunctions/arm_cfft_f32.c ****       m2 = t3[1] * twR;
ARM GAS  C:\Users\IVYLIU~1\AppData\Local\Temp\ccWLNWQl.s 			page 45


 1348              		.loc 1 1006 0 discriminator 3
 1349 0428 0746     		mov	r7, r0
1007:.\DSP\Source\TransformFunctions/arm_cfft_f32.c **** 
 1350              		.loc 1 1007 0 discriminator 3
 1351 042a 1798     		ldr	r0, [sp, #92]	@ float
 1352 042c FFF7FEFF 		bl	__aeabi_fmul
 1353              	.LVL263:
 1354 0430 0146     		mov	r1, r0
1010:.\DSP\Source\TransformFunctions/arm_cfft_f32.c ****       *p3++ = m2 - m3;
 1355              		.loc 1 1010 0 discriminator 3
 1356 0432 3846     		mov	r0, r7
 1357 0434 FFF7FEFF 		bl	__aeabi_fsub
 1358              	.LVL264:
 1359 0438 0A9B     		ldr	r3, [sp, #40]
1011:.\DSP\Source\TransformFunctions/arm_cfft_f32.c ****       /* use vertical symmetry col 3 */
1012:.\DSP\Source\TransformFunctions/arm_cfft_f32.c ****       /* 0.9988 - 0.0491i  <==>  -0.9988 - 0.0491i */
1013:.\DSP\Source\TransformFunctions/arm_cfft_f32.c ****       /* Bottom */
1014:.\DSP\Source\TransformFunctions/arm_cfft_f32.c ****       m0 = -t3[3] * twR;
 1360              		.loc 1 1014 0 discriminator 3
 1361 043a 2146     		mov	r1, r4
1010:.\DSP\Source\TransformFunctions/arm_cfft_f32.c ****       *p3++ = m2 - m3;
 1362              		.loc 1 1010 0 discriminator 3
 1363 043c 43F8040C 		str	r0, [r3, #-4]	@ float
 1364              	.LVL265:
 1365              		.loc 1 1014 0 discriminator 3
 1366 0440 1F9B     		ldr	r3, [sp, #124]
 1367 0442 0AF1010A 		add	r10, r10, #1
 1368              	.LVL266:
 1369 0446 03F10040 		add	r0, r3, #-2147483648
 1370 044a FFF7FEFF 		bl	__aeabi_fmul
 1371              	.LVL267:
1015:.\DSP\Source\TransformFunctions/arm_cfft_f32.c ****       m1 =  t3[2] * twI;
 1372              		.loc 1 1015 0 discriminator 3
 1373 044e 2946     		mov	r1, r5
1014:.\DSP\Source\TransformFunctions/arm_cfft_f32.c ****       m1 =  t3[2] * twI;
 1374              		.loc 1 1014 0 discriminator 3
 1375 0450 0746     		mov	r7, r0
 1376              		.loc 1 1015 0 discriminator 3
 1377 0452 1E98     		ldr	r0, [sp, #120]	@ float
 1378 0454 FFF7FEFF 		bl	__aeabi_fmul
 1379              	.LVL268:
 1380 0458 0146     		mov	r1, r0
1016:.\DSP\Source\TransformFunctions/arm_cfft_f32.c ****       m2 =  t3[2] * twR;
1017:.\DSP\Source\TransformFunctions/arm_cfft_f32.c ****       m3 =  t3[3] * twI;
1018:.\DSP\Source\TransformFunctions/arm_cfft_f32.c **** 
1019:.\DSP\Source\TransformFunctions/arm_cfft_f32.c ****       *pEnd3-- = m0 - m1;
 1381              		.loc 1 1019 0 discriminator 3
 1382 045a 3846     		mov	r0, r7
 1383 045c FFF7FEFF 		bl	__aeabi_fsub
 1384              	.LVL269:
 1385 0460 139B     		ldr	r3, [sp, #76]
1017:.\DSP\Source\TransformFunctions/arm_cfft_f32.c **** 
 1386              		.loc 1 1017 0 discriminator 3
 1387 0462 2946     		mov	r1, r5
 1388              		.loc 1 1019 0 discriminator 3
 1389 0464 5860     		str	r0, [r3, #4]	@ float
 1390              	.LVL270:
ARM GAS  C:\Users\IVYLIU~1\AppData\Local\Temp\ccWLNWQl.s 			page 46


1017:.\DSP\Source\TransformFunctions/arm_cfft_f32.c **** 
 1391              		.loc 1 1017 0 discriminator 3
 1392 0466 1F98     		ldr	r0, [sp, #124]	@ float
 1393 0468 FFF7FEFF 		bl	__aeabi_fmul
 1394              	.LVL271:
1016:.\DSP\Source\TransformFunctions/arm_cfft_f32.c ****       m2 =  t3[2] * twR;
 1395              		.loc 1 1016 0 discriminator 3
 1396 046c 2146     		mov	r1, r4
1017:.\DSP\Source\TransformFunctions/arm_cfft_f32.c **** 
 1397              		.loc 1 1017 0 discriminator 3
 1398 046e 0546     		mov	r5, r0
 1399              	.LVL272:
1016:.\DSP\Source\TransformFunctions/arm_cfft_f32.c ****       m2 =  t3[2] * twR;
 1400              		.loc 1 1016 0 discriminator 3
 1401 0470 1E98     		ldr	r0, [sp, #120]	@ float
 1402 0472 FFF7FEFF 		bl	__aeabi_fmul
 1403              	.LVL273:
 1404 0476 0146     		mov	r1, r0
1020:.\DSP\Source\TransformFunctions/arm_cfft_f32.c ****       *pEnd3-- = m3 - m2;
 1405              		.loc 1 1020 0 discriminator 3
 1406 0478 2846     		mov	r0, r5
 1407 047a FFF7FEFF 		bl	__aeabi_fsub
 1408              	.LVL274:
 1409 047e 029B     		ldr	r3, [sp, #8]
1021:.\DSP\Source\TransformFunctions/arm_cfft_f32.c **** 
1022:.\DSP\Source\TransformFunctions/arm_cfft_f32.c ****       /* COL 4 */
1023:.\DSP\Source\TransformFunctions/arm_cfft_f32.c ****       twR = tw4[0];
 1410              		.loc 1 1023 0 discriminator 3
 1411 0480 DDF88CC0 		ldr	ip, [sp, #140]
1020:.\DSP\Source\TransformFunctions/arm_cfft_f32.c ****       *pEnd3-- = m3 - m2;
 1412              		.loc 1 1020 0 discriminator 3
 1413 0484 43F80900 		str	r0, [r3, r9]	@ float
 1414              		.loc 1 1023 0 discriminator 3
 1415 0488 5CF8184C 		ldr	r4, [ip, #-24]	@ float
 1416              	.LVL275:
1024:.\DSP\Source\TransformFunctions/arm_cfft_f32.c ****       twI = tw4[1];
1025:.\DSP\Source\TransformFunctions/arm_cfft_f32.c ****       tw4 += twMod4;
1026:.\DSP\Source\TransformFunctions/arm_cfft_f32.c ****       /* Top */
1027:.\DSP\Source\TransformFunctions/arm_cfft_f32.c ****       m0 = t4[0] * twR;
 1417              		.loc 1 1027 0 discriminator 3
 1418 048c 1998     		ldr	r0, [sp, #100]	@ float
 1419 048e 2146     		mov	r1, r4
1024:.\DSP\Source\TransformFunctions/arm_cfft_f32.c ****       twI = tw4[1];
 1420              		.loc 1 1024 0 discriminator 3
 1421 0490 5CF8145C 		ldr	r5, [ip, #-20]	@ float
 1422 0494 CDF84CC0 		str	ip, [sp, #76]
 1423              	.LVL276:
 1424              		.loc 1 1027 0 discriminator 3
 1425 0498 FFF7FEFF 		bl	__aeabi_fmul
 1426              	.LVL277:
1028:.\DSP\Source\TransformFunctions/arm_cfft_f32.c ****       m1 = t4[1] * twI;
 1427              		.loc 1 1028 0 discriminator 3
 1428 049c 2946     		mov	r1, r5
1027:.\DSP\Source\TransformFunctions/arm_cfft_f32.c ****       m1 = t4[1] * twI;
 1429              		.loc 1 1027 0 discriminator 3
 1430 049e 0746     		mov	r7, r0
 1431              		.loc 1 1028 0 discriminator 3
ARM GAS  C:\Users\IVYLIU~1\AppData\Local\Temp\ccWLNWQl.s 			page 47


 1432 04a0 1498     		ldr	r0, [sp, #80]	@ float
 1433 04a2 FFF7FEFF 		bl	__aeabi_fmul
 1434              	.LVL278:
 1435 04a6 0146     		mov	r1, r0
1029:.\DSP\Source\TransformFunctions/arm_cfft_f32.c ****       m2 = t4[1] * twR;
1030:.\DSP\Source\TransformFunctions/arm_cfft_f32.c ****       m3 = t4[0] * twI;
1031:.\DSP\Source\TransformFunctions/arm_cfft_f32.c **** 
1032:.\DSP\Source\TransformFunctions/arm_cfft_f32.c ****       *p4++ = m0 + m1;
 1436              		.loc 1 1032 0 discriminator 3
 1437 04a8 3846     		mov	r0, r7
 1438 04aa FFF7FEFF 		bl	__aeabi_fadd
 1439              	.LVL279:
 1440 04ae 059B     		ldr	r3, [sp, #20]
1029:.\DSP\Source\TransformFunctions/arm_cfft_f32.c ****       m2 = t4[1] * twR;
 1441              		.loc 1 1029 0 discriminator 3
 1442 04b0 2146     		mov	r1, r4
 1443              		.loc 1 1032 0 discriminator 3
 1444 04b2 43F8080C 		str	r0, [r3, #-8]	@ float
1029:.\DSP\Source\TransformFunctions/arm_cfft_f32.c ****       m2 = t4[1] * twR;
 1445              		.loc 1 1029 0 discriminator 3
 1446 04b6 1498     		ldr	r0, [sp, #80]	@ float
 1447 04b8 FFF7FEFF 		bl	__aeabi_fmul
 1448              	.LVL280:
1030:.\DSP\Source\TransformFunctions/arm_cfft_f32.c **** 
 1449              		.loc 1 1030 0 discriminator 3
 1450 04bc 2946     		mov	r1, r5
1029:.\DSP\Source\TransformFunctions/arm_cfft_f32.c ****       m2 = t4[1] * twR;
 1451              		.loc 1 1029 0 discriminator 3
 1452 04be 0746     		mov	r7, r0
1030:.\DSP\Source\TransformFunctions/arm_cfft_f32.c **** 
 1453              		.loc 1 1030 0 discriminator 3
 1454 04c0 1998     		ldr	r0, [sp, #100]	@ float
 1455 04c2 FFF7FEFF 		bl	__aeabi_fmul
 1456              	.LVL281:
 1457 04c6 0146     		mov	r1, r0
1033:.\DSP\Source\TransformFunctions/arm_cfft_f32.c ****       *p4++ = m2 - m3;
 1458              		.loc 1 1033 0 discriminator 3
 1459 04c8 3846     		mov	r0, r7
 1460 04ca FFF7FEFF 		bl	__aeabi_fsub
 1461              	.LVL282:
 1462 04ce 059B     		ldr	r3, [sp, #20]
1034:.\DSP\Source\TransformFunctions/arm_cfft_f32.c ****       /* use vertical symmetry col 4 */
1035:.\DSP\Source\TransformFunctions/arm_cfft_f32.c ****       /* 0.9973 - 0.0736i  <==>  -0.0736 + 0.9973i */
1036:.\DSP\Source\TransformFunctions/arm_cfft_f32.c ****       /* Bottom */
1037:.\DSP\Source\TransformFunctions/arm_cfft_f32.c ****       m0 = t4[3] * twI;
 1463              		.loc 1 1037 0 discriminator 3
 1464 04d0 2946     		mov	r1, r5
1033:.\DSP\Source\TransformFunctions/arm_cfft_f32.c ****       *p4++ = m2 - m3;
 1465              		.loc 1 1033 0 discriminator 3
 1466 04d2 43F8040C 		str	r0, [r3, #-4]	@ float
 1467              	.LVL283:
 1468              		.loc 1 1037 0 discriminator 3
 1469 04d6 3046     		mov	r0, r6
 1470 04d8 FFF7FEFF 		bl	__aeabi_fmul
 1471              	.LVL284:
1038:.\DSP\Source\TransformFunctions/arm_cfft_f32.c ****       m1 = t4[2] * twR;
 1472              		.loc 1 1038 0 discriminator 3
ARM GAS  C:\Users\IVYLIU~1\AppData\Local\Temp\ccWLNWQl.s 			page 48


 1473 04dc 2146     		mov	r1, r4
1037:.\DSP\Source\TransformFunctions/arm_cfft_f32.c ****       m1 = t4[2] * twR;
 1474              		.loc 1 1037 0 discriminator 3
 1475 04de 0746     		mov	r7, r0
 1476              		.loc 1 1038 0 discriminator 3
 1477 04e0 5846     		mov	r0, fp
 1478 04e2 FFF7FEFF 		bl	__aeabi_fmul
 1479              	.LVL285:
 1480 04e6 0146     		mov	r1, r0
1039:.\DSP\Source\TransformFunctions/arm_cfft_f32.c ****       m2 = t4[2] * twI;
1040:.\DSP\Source\TransformFunctions/arm_cfft_f32.c ****       m3 = t4[3] * twR;
1041:.\DSP\Source\TransformFunctions/arm_cfft_f32.c **** 
1042:.\DSP\Source\TransformFunctions/arm_cfft_f32.c ****       *pEnd4-- = m0 - m1;
 1481              		.loc 1 1042 0 discriminator 3
 1482 04e8 3846     		mov	r0, r7
 1483 04ea FFF7FEFF 		bl	__aeabi_fsub
 1484              	.LVL286:
 1485 04ee 079B     		ldr	r3, [sp, #28]
1039:.\DSP\Source\TransformFunctions/arm_cfft_f32.c ****       m2 = t4[2] * twI;
 1486              		.loc 1 1039 0 discriminator 3
 1487 04f0 2946     		mov	r1, r5
 1488              		.loc 1 1042 0 discriminator 3
 1489 04f2 9860     		str	r0, [r3, #8]	@ float
1039:.\DSP\Source\TransformFunctions/arm_cfft_f32.c ****       m2 = t4[2] * twI;
 1490              		.loc 1 1039 0 discriminator 3
 1491 04f4 5846     		mov	r0, fp
 1492 04f6 FFF7FEFF 		bl	__aeabi_fmul
 1493              	.LVL287:
1040:.\DSP\Source\TransformFunctions/arm_cfft_f32.c **** 
 1494              		.loc 1 1040 0 discriminator 3
 1495 04fa 2146     		mov	r1, r4
1039:.\DSP\Source\TransformFunctions/arm_cfft_f32.c ****       m2 = t4[2] * twI;
 1496              		.loc 1 1039 0 discriminator 3
 1497 04fc 0546     		mov	r5, r0
 1498              	.LVL288:
1040:.\DSP\Source\TransformFunctions/arm_cfft_f32.c **** 
 1499              		.loc 1 1040 0 discriminator 3
 1500 04fe 3046     		mov	r0, r6
 1501 0500 FFF7FEFF 		bl	__aeabi_fmul
 1502              	.LVL289:
 1503 0504 0146     		mov	r1, r0
1043:.\DSP\Source\TransformFunctions/arm_cfft_f32.c ****       *pEnd4-- = m2 + m3;
 1504              		.loc 1 1043 0 discriminator 3
 1505 0506 2846     		mov	r0, r5
 1506 0508 FFF7FEFF 		bl	__aeabi_fadd
 1507              	.LVL290:
 1508 050c 079B     		ldr	r3, [sp, #28]
 1509 050e DDF84CC0 		ldr	ip, [sp, #76]
 1510 0512 5860     		str	r0, [r3, #4]	@ float
 1511              	.LVL291:
 1512 0514 27E6     		b	.L7
 1513              	.LVL292:
 1514              	.L9:
 1515 0516 099A     		ldr	r2, [sp, #36]
 1516 0518 4FEACA03 		lsl	r3, r10, #3
 1517              	.LVL293:
 1518 051c 1A44     		add	r2, r2, r3
ARM GAS  C:\Users\IVYLIU~1\AppData\Local\Temp\ccWLNWQl.s 			page 49


 1519 051e 0199     		ldr	r1, [sp, #4]
 1520 0520 0692     		str	r2, [sp, #24]
 1521 0522 03F10802 		add	r2, r3, #8
 1522 0526 1144     		add	r1, r1, r2
 1523 0528 1A92     		str	r2, [sp, #104]
 1524 052a 4FEA0A1C 		lsl	ip, r10, #4
 1525              	.LVL294:
 1526 052e 019A     		ldr	r2, [sp, #4]
 1527 0530 0CF1100C 		add	ip, ip, #16
 1528 0534 6244     		add	r2, r2, ip
 1529 0536 1891     		str	r1, [sp, #96]
 1530 0538 1821     		movs	r1, #24
 1531 053a 1792     		str	r2, [sp, #92]
 1532 053c 01FB0AF2 		mul	r2, r1, r10
 1533 0540 0792     		str	r2, [sp, #28]
 1534 0542 0799     		ldr	r1, [sp, #28]
 1535 0544 119A     		ldr	r2, [sp, #68]
 1536 0546 CDF864C0 		str	ip, [sp, #100]
 1537 054a 0A44     		add	r2, r2, r1
 1538 054c 1692     		str	r2, [sp, #88]
 1539 054e 0E9A     		ldr	r2, [sp, #56]
 1540 0550 D718     		adds	r7, r2, r3
 1541 0552 0F9A     		ldr	r2, [sp, #60]
 1542 0554 1A44     		add	r2, r2, r3
 1543 0556 0592     		str	r2, [sp, #20]
 1544 0558 109A     		ldr	r2, [sp, #64]
 1545 055a 02EB0309 		add	r9, r2, r3
1044:.\DSP\Source\TransformFunctions/arm_cfft_f32.c ****     }
1045:.\DSP\Source\TransformFunctions/arm_cfft_f32.c **** 
1046:.\DSP\Source\TransformFunctions/arm_cfft_f32.c ****     /* MIDDLE */
1047:.\DSP\Source\TransformFunctions/arm_cfft_f32.c ****     /* Twiddle factors are */
1048:.\DSP\Source\TransformFunctions/arm_cfft_f32.c ****     /*  1.0000  0.7071-0.7071i  -1.0000i  -0.7071-0.7071i */
1049:.\DSP\Source\TransformFunctions/arm_cfft_f32.c ****     p1ap3_0 = p1[0] + p3[0];
 1546              		.loc 1 1049 0
 1547 055e 099B     		ldr	r3, [sp, #36]
 1548 0560 53F83A50 		ldr	r5, [r3, r10, lsl #3]	@ float
 1549 0564 0F9B     		ldr	r3, [sp, #60]
 1550 0566 2846     		mov	r0, r5
 1551 0568 53F83A40 		ldr	r4, [r3, r10, lsl #3]	@ float
 1552 056c 2146     		mov	r1, r4
 1553 056e FFF7FEFF 		bl	__aeabi_fadd
 1554              	.LVL295:
1050:.\DSP\Source\TransformFunctions/arm_cfft_f32.c ****     p1sp3_0 = p1[0] - p3[0];
 1555              		.loc 1 1050 0
 1556 0572 2146     		mov	r1, r4
1049:.\DSP\Source\TransformFunctions/arm_cfft_f32.c ****     p1sp3_0 = p1[0] - p3[0];
 1557              		.loc 1 1049 0
 1558 0574 0890     		str	r0, [sp, #32]	@ float
 1559              	.LVL296:
 1560              		.loc 1 1050 0
 1561 0576 2846     		mov	r0, r5
 1562              	.LVL297:
 1563 0578 FFF7FEFF 		bl	__aeabi_fsub
 1564              	.LVL298:
1051:.\DSP\Source\TransformFunctions/arm_cfft_f32.c ****     p1ap3_1 = p1[1] + p3[1];
 1565              		.loc 1 1051 0
 1566 057c 069B     		ldr	r3, [sp, #24]
ARM GAS  C:\Users\IVYLIU~1\AppData\Local\Temp\ccWLNWQl.s 			page 50


1050:.\DSP\Source\TransformFunctions/arm_cfft_f32.c ****     p1sp3_0 = p1[0] - p3[0];
 1567              		.loc 1 1050 0
 1568 057e 8346     		mov	fp, r0
 1569              	.LVL299:
 1570              		.loc 1 1051 0
 1571 0580 5D68     		ldr	r5, [r3, #4]	@ float
 1572 0582 059B     		ldr	r3, [sp, #20]
 1573 0584 2846     		mov	r0, r5
 1574              	.LVL300:
 1575 0586 5C68     		ldr	r4, [r3, #4]	@ float
 1576 0588 2146     		mov	r1, r4
 1577 058a FFF7FEFF 		bl	__aeabi_fadd
 1578              	.LVL301:
1052:.\DSP\Source\TransformFunctions/arm_cfft_f32.c ****     p1sp3_1 = p1[1] - p3[1];
 1579              		.loc 1 1052 0
 1580 058e 2146     		mov	r1, r4
1051:.\DSP\Source\TransformFunctions/arm_cfft_f32.c ****     p1ap3_1 = p1[1] + p3[1];
 1581              		.loc 1 1051 0
 1582 0590 0A90     		str	r0, [sp, #40]	@ float
 1583              	.LVL302:
 1584              		.loc 1 1052 0
 1585 0592 2846     		mov	r0, r5
 1586              	.LVL303:
 1587 0594 FFF7FEFF 		bl	__aeabi_fsub
 1588              	.LVL304:
1053:.\DSP\Source\TransformFunctions/arm_cfft_f32.c **** 
1054:.\DSP\Source\TransformFunctions/arm_cfft_f32.c ****     /* col 2 */
1055:.\DSP\Source\TransformFunctions/arm_cfft_f32.c ****     t2[0] = p1sp3_0 + p2[1] - p4[1];
 1589              		.loc 1 1055 0
 1590 0598 D7F80480 		ldr	r8, [r7, #4]	@ float
 1591 059c D9F80460 		ldr	r6, [r9, #4]	@ float
1052:.\DSP\Source\TransformFunctions/arm_cfft_f32.c ****     p1sp3_1 = p1[1] - p3[1];
 1592              		.loc 1 1052 0
 1593 05a0 0B90     		str	r0, [sp, #44]	@ float
 1594              	.LVL305:
 1595              		.loc 1 1055 0
 1596 05a2 4146     		mov	r1, r8
 1597 05a4 5846     		mov	r0, fp
 1598              	.LVL306:
 1599 05a6 FFF7FEFF 		bl	__aeabi_fadd
 1600              	.LVL307:
 1601 05aa 3146     		mov	r1, r6
 1602 05ac FFF7FEFF 		bl	__aeabi_fsub
 1603              	.LVL308:
1056:.\DSP\Source\TransformFunctions/arm_cfft_f32.c ****     t2[1] = p1sp3_1 - p2[0] + p4[0];
 1604              		.loc 1 1056 0
 1605 05b0 0E9B     		ldr	r3, [sp, #56]
1055:.\DSP\Source\TransformFunctions/arm_cfft_f32.c ****     t2[1] = p1sp3_1 - p2[0] + p4[0];
 1606              		.loc 1 1055 0
 1607 05b2 0C90     		str	r0, [sp, #48]	@ float
 1608              	.LVL309:
 1609              		.loc 1 1056 0
 1610 05b4 53F83A50 		ldr	r5, [r3, r10, lsl #3]	@ float
 1611 05b8 109B     		ldr	r3, [sp, #64]
 1612 05ba 0B98     		ldr	r0, [sp, #44]	@ float
 1613              	.LVL310:
 1614 05bc 53F83A40 		ldr	r4, [r3, r10, lsl #3]	@ float
ARM GAS  C:\Users\IVYLIU~1\AppData\Local\Temp\ccWLNWQl.s 			page 51


 1615 05c0 2946     		mov	r1, r5
 1616 05c2 FFF7FEFF 		bl	__aeabi_fsub
 1617              	.LVL311:
 1618 05c6 2146     		mov	r1, r4
 1619 05c8 FFF7FEFF 		bl	__aeabi_fadd
 1620              	.LVL312:
1057:.\DSP\Source\TransformFunctions/arm_cfft_f32.c ****     /* col 3 */
1058:.\DSP\Source\TransformFunctions/arm_cfft_f32.c ****     t3[0] = p1ap3_0 - p2[0] - p4[0];
 1621              		.loc 1 1058 0
 1622 05cc 2946     		mov	r1, r5
1056:.\DSP\Source\TransformFunctions/arm_cfft_f32.c ****     /* col 3 */
 1623              		.loc 1 1056 0
 1624 05ce 1390     		str	r0, [sp, #76]	@ float
 1625              	.LVL313:
 1626              		.loc 1 1058 0
 1627 05d0 0898     		ldr	r0, [sp, #32]	@ float
 1628              	.LVL314:
 1629 05d2 FFF7FEFF 		bl	__aeabi_fsub
 1630              	.LVL315:
 1631 05d6 2146     		mov	r1, r4
 1632 05d8 FFF7FEFF 		bl	__aeabi_fsub
 1633              	.LVL316:
1059:.\DSP\Source\TransformFunctions/arm_cfft_f32.c ****     t3[1] = p1ap3_1 - p2[1] - p4[1];
 1634              		.loc 1 1059 0
 1635 05dc 4146     		mov	r1, r8
1058:.\DSP\Source\TransformFunctions/arm_cfft_f32.c ****     t3[1] = p1ap3_1 - p2[1] - p4[1];
 1636              		.loc 1 1058 0
 1637 05de 1490     		str	r0, [sp, #80]	@ float
 1638              	.LVL317:
 1639              		.loc 1 1059 0
 1640 05e0 0A98     		ldr	r0, [sp, #40]	@ float
 1641              	.LVL318:
 1642 05e2 FFF7FEFF 		bl	__aeabi_fsub
 1643              	.LVL319:
 1644 05e6 3146     		mov	r1, r6
 1645 05e8 FFF7FEFF 		bl	__aeabi_fsub
 1646              	.LVL320:
1060:.\DSP\Source\TransformFunctions/arm_cfft_f32.c ****     /* col 4 */
1061:.\DSP\Source\TransformFunctions/arm_cfft_f32.c ****     t4[0] = p1sp3_0 - p2[1] + p4[1];
 1647              		.loc 1 1061 0
 1648 05ec 4146     		mov	r1, r8
1059:.\DSP\Source\TransformFunctions/arm_cfft_f32.c ****     /* col 4 */
 1649              		.loc 1 1059 0
 1650 05ee 1590     		str	r0, [sp, #84]	@ float
 1651              	.LVL321:
 1652              		.loc 1 1061 0
 1653 05f0 5846     		mov	r0, fp
 1654              	.LVL322:
 1655 05f2 FFF7FEFF 		bl	__aeabi_fsub
 1656              	.LVL323:
 1657 05f6 3146     		mov	r1, r6
 1658 05f8 FFF7FEFF 		bl	__aeabi_fadd
 1659              	.LVL324:
1062:.\DSP\Source\TransformFunctions/arm_cfft_f32.c ****     t4[1] = p1sp3_1 + p2[0] - p4[0];
 1660              		.loc 1 1062 0
 1661 05fc 2946     		mov	r1, r5
1061:.\DSP\Source\TransformFunctions/arm_cfft_f32.c ****     t4[1] = p1sp3_1 + p2[0] - p4[0];
ARM GAS  C:\Users\IVYLIU~1\AppData\Local\Temp\ccWLNWQl.s 			page 52


 1662              		.loc 1 1061 0
 1663 05fe 8346     		mov	fp, r0
 1664              	.LVL325:
 1665              		.loc 1 1062 0
 1666 0600 0B98     		ldr	r0, [sp, #44]	@ float
 1667              	.LVL326:
 1668 0602 FFF7FEFF 		bl	__aeabi_fadd
 1669              	.LVL327:
 1670 0606 2146     		mov	r1, r4
 1671 0608 FFF7FEFF 		bl	__aeabi_fsub
 1672              	.LVL328:
1063:.\DSP\Source\TransformFunctions/arm_cfft_f32.c ****     /* col 1 - Top */
1064:.\DSP\Source\TransformFunctions/arm_cfft_f32.c ****     *p1++ = p1ap3_0 + p2[0] + p4[0];
 1673              		.loc 1 1064 0
 1674 060c 2946     		mov	r1, r5
1062:.\DSP\Source\TransformFunctions/arm_cfft_f32.c ****     /* col 1 - Top */
 1675              		.loc 1 1062 0
 1676 060e 0646     		mov	r6, r0
 1677              	.LVL329:
 1678              		.loc 1 1064 0
 1679 0610 0898     		ldr	r0, [sp, #32]	@ float
 1680              	.LVL330:
 1681 0612 FFF7FEFF 		bl	__aeabi_fadd
 1682              	.LVL331:
 1683 0616 2146     		mov	r1, r4
 1684 0618 FFF7FEFF 		bl	__aeabi_fadd
 1685              	.LVL332:
 1686 061c 099B     		ldr	r3, [sp, #36]
 1687 061e 43F83A00 		str	r0, [r3, r10, lsl #3]	@ float
 1688              	.LVL333:
1065:.\DSP\Source\TransformFunctions/arm_cfft_f32.c ****     *p1++ = p1ap3_1 + p2[1] + p4[1];
 1689              		.loc 1 1065 0
 1690 0622 7968     		ldr	r1, [r7, #4]	@ float
 1691 0624 0A98     		ldr	r0, [sp, #40]	@ float
 1692 0626 FFF7FEFF 		bl	__aeabi_fadd
 1693              	.LVL334:
 1694 062a D9F80410 		ldr	r1, [r9, #4]	@ float
 1695 062e FFF7FEFF 		bl	__aeabi_fadd
 1696              	.LVL335:
 1697 0632 069B     		ldr	r3, [sp, #24]
1066:.\DSP\Source\TransformFunctions/arm_cfft_f32.c **** 
1067:.\DSP\Source\TransformFunctions/arm_cfft_f32.c ****     /* COL 2 */
1068:.\DSP\Source\TransformFunctions/arm_cfft_f32.c ****     twR = tw2[0];
 1698              		.loc 1 1068 0
 1699 0634 1A9A     		ldr	r2, [sp, #104]
1065:.\DSP\Source\TransformFunctions/arm_cfft_f32.c ****     *p1++ = p1ap3_1 + p2[1] + p4[1];
 1700              		.loc 1 1065 0
 1701 0636 5860     		str	r0, [r3, #4]	@ float
 1702              		.loc 1 1068 0
 1703 0638 019B     		ldr	r3, [sp, #4]
1069:.\DSP\Source\TransformFunctions/arm_cfft_f32.c ****     twI = tw2[1];
1070:.\DSP\Source\TransformFunctions/arm_cfft_f32.c **** 
1071:.\DSP\Source\TransformFunctions/arm_cfft_f32.c ****     m0 = t2[0] * twR;
 1704              		.loc 1 1071 0
 1705 063a 0C98     		ldr	r0, [sp, #48]	@ float
1068:.\DSP\Source\TransformFunctions/arm_cfft_f32.c ****     twI = tw2[1];
 1706              		.loc 1 1068 0
ARM GAS  C:\Users\IVYLIU~1\AppData\Local\Temp\ccWLNWQl.s 			page 53


 1707 063c 9D58     		ldr	r5, [r3, r2]	@ float
 1708              	.LVL336:
1069:.\DSP\Source\TransformFunctions/arm_cfft_f32.c ****     twI = tw2[1];
 1709              		.loc 1 1069 0
 1710 063e 189B     		ldr	r3, [sp, #96]
 1711              		.loc 1 1071 0
 1712 0640 2946     		mov	r1, r5
1069:.\DSP\Source\TransformFunctions/arm_cfft_f32.c ****     twI = tw2[1];
 1713              		.loc 1 1069 0
 1714 0642 5C68     		ldr	r4, [r3, #4]	@ float
 1715              	.LVL337:
 1716              		.loc 1 1071 0
 1717 0644 FFF7FEFF 		bl	__aeabi_fmul
 1718              	.LVL338:
1072:.\DSP\Source\TransformFunctions/arm_cfft_f32.c ****     m1 = t2[1] * twI;
 1719              		.loc 1 1072 0
 1720 0648 2146     		mov	r1, r4
1071:.\DSP\Source\TransformFunctions/arm_cfft_f32.c ****     m1 = t2[1] * twI;
 1721              		.loc 1 1071 0
 1722 064a 8046     		mov	r8, r0
 1723              		.loc 1 1072 0
 1724 064c 1398     		ldr	r0, [sp, #76]	@ float
 1725 064e FFF7FEFF 		bl	__aeabi_fmul
 1726              	.LVL339:
 1727 0652 0146     		mov	r1, r0
1073:.\DSP\Source\TransformFunctions/arm_cfft_f32.c ****     m2 = t2[1] * twR;
1074:.\DSP\Source\TransformFunctions/arm_cfft_f32.c ****     m3 = t2[0] * twI;
1075:.\DSP\Source\TransformFunctions/arm_cfft_f32.c **** 
1076:.\DSP\Source\TransformFunctions/arm_cfft_f32.c ****     *p2++ = m0 + m1;
 1728              		.loc 1 1076 0
 1729 0654 4046     		mov	r0, r8
 1730 0656 FFF7FEFF 		bl	__aeabi_fadd
 1731              	.LVL340:
 1732 065a 0E9B     		ldr	r3, [sp, #56]
1073:.\DSP\Source\TransformFunctions/arm_cfft_f32.c ****     m2 = t2[1] * twR;
 1733              		.loc 1 1073 0
 1734 065c 2946     		mov	r1, r5
 1735              		.loc 1 1076 0
 1736 065e 43F83A00 		str	r0, [r3, r10, lsl #3]	@ float
 1737              	.LVL341:
1073:.\DSP\Source\TransformFunctions/arm_cfft_f32.c ****     m2 = t2[1] * twR;
 1738              		.loc 1 1073 0
 1739 0662 1398     		ldr	r0, [sp, #76]	@ float
 1740 0664 FFF7FEFF 		bl	__aeabi_fmul
 1741              	.LVL342:
1074:.\DSP\Source\TransformFunctions/arm_cfft_f32.c **** 
 1742              		.loc 1 1074 0
 1743 0668 2146     		mov	r1, r4
1073:.\DSP\Source\TransformFunctions/arm_cfft_f32.c ****     m2 = t2[1] * twR;
 1744              		.loc 1 1073 0
 1745 066a 0546     		mov	r5, r0
 1746              	.LVL343:
1074:.\DSP\Source\TransformFunctions/arm_cfft_f32.c **** 
 1747              		.loc 1 1074 0
 1748 066c 0C98     		ldr	r0, [sp, #48]	@ float
 1749 066e FFF7FEFF 		bl	__aeabi_fmul
 1750              	.LVL344:
ARM GAS  C:\Users\IVYLIU~1\AppData\Local\Temp\ccWLNWQl.s 			page 54


 1751 0672 0146     		mov	r1, r0
1077:.\DSP\Source\TransformFunctions/arm_cfft_f32.c ****     *p2++ = m2 - m3;
 1752              		.loc 1 1077 0
 1753 0674 2846     		mov	r0, r5
 1754 0676 FFF7FEFF 		bl	__aeabi_fsub
 1755              	.LVL345:
1078:.\DSP\Source\TransformFunctions/arm_cfft_f32.c ****     /* COL 3 */
1079:.\DSP\Source\TransformFunctions/arm_cfft_f32.c ****     twR = tw3[0];
 1756              		.loc 1 1079 0
 1757 067a DDF864C0 		ldr	ip, [sp, #100]
 1758 067e 019B     		ldr	r3, [sp, #4]
1077:.\DSP\Source\TransformFunctions/arm_cfft_f32.c ****     *p2++ = m2 - m3;
 1759              		.loc 1 1077 0
 1760 0680 7860     		str	r0, [r7, #4]	@ float
 1761              		.loc 1 1079 0
 1762 0682 53F80C50 		ldr	r5, [r3, ip]	@ float
 1763              	.LVL346:
1080:.\DSP\Source\TransformFunctions/arm_cfft_f32.c ****     twI = tw3[1];
 1764              		.loc 1 1080 0
 1765 0686 179B     		ldr	r3, [sp, #92]
1081:.\DSP\Source\TransformFunctions/arm_cfft_f32.c **** 
1082:.\DSP\Source\TransformFunctions/arm_cfft_f32.c ****     m0 = t3[0] * twR;
 1766              		.loc 1 1082 0
 1767 0688 1498     		ldr	r0, [sp, #80]	@ float
 1768 068a 2946     		mov	r1, r5
1080:.\DSP\Source\TransformFunctions/arm_cfft_f32.c ****     twI = tw3[1];
 1769              		.loc 1 1080 0
 1770 068c 5C68     		ldr	r4, [r3, #4]	@ float
 1771              	.LVL347:
 1772              		.loc 1 1082 0
 1773 068e FFF7FEFF 		bl	__aeabi_fmul
 1774              	.LVL348:
1083:.\DSP\Source\TransformFunctions/arm_cfft_f32.c ****     m1 = t3[1] * twI;
 1775              		.loc 1 1083 0
 1776 0692 2146     		mov	r1, r4
1082:.\DSP\Source\TransformFunctions/arm_cfft_f32.c ****     m1 = t3[1] * twI;
 1777              		.loc 1 1082 0
 1778 0694 0746     		mov	r7, r0
 1779              	.LVL349:
 1780              		.loc 1 1083 0
 1781 0696 1598     		ldr	r0, [sp, #84]	@ float
 1782 0698 FFF7FEFF 		bl	__aeabi_fmul
 1783              	.LVL350:
 1784 069c 0146     		mov	r1, r0
1084:.\DSP\Source\TransformFunctions/arm_cfft_f32.c ****     m2 = t3[1] * twR;
1085:.\DSP\Source\TransformFunctions/arm_cfft_f32.c ****     m3 = t3[0] * twI;
1086:.\DSP\Source\TransformFunctions/arm_cfft_f32.c **** 
1087:.\DSP\Source\TransformFunctions/arm_cfft_f32.c ****     *p3++ = m0 + m1;
 1785              		.loc 1 1087 0
 1786 069e 3846     		mov	r0, r7
 1787 06a0 FFF7FEFF 		bl	__aeabi_fadd
 1788              	.LVL351:
 1789 06a4 0F9B     		ldr	r3, [sp, #60]
1084:.\DSP\Source\TransformFunctions/arm_cfft_f32.c ****     m2 = t3[1] * twR;
 1790              		.loc 1 1084 0
 1791 06a6 2946     		mov	r1, r5
 1792              		.loc 1 1087 0
ARM GAS  C:\Users\IVYLIU~1\AppData\Local\Temp\ccWLNWQl.s 			page 55


 1793 06a8 43F83A00 		str	r0, [r3, r10, lsl #3]	@ float
 1794              	.LVL352:
1084:.\DSP\Source\TransformFunctions/arm_cfft_f32.c ****     m2 = t3[1] * twR;
 1795              		.loc 1 1084 0
 1796 06ac 1598     		ldr	r0, [sp, #84]	@ float
 1797 06ae FFF7FEFF 		bl	__aeabi_fmul
 1798              	.LVL353:
1085:.\DSP\Source\TransformFunctions/arm_cfft_f32.c **** 
 1799              		.loc 1 1085 0
 1800 06b2 2146     		mov	r1, r4
1084:.\DSP\Source\TransformFunctions/arm_cfft_f32.c ****     m2 = t3[1] * twR;
 1801              		.loc 1 1084 0
 1802 06b4 0546     		mov	r5, r0
 1803              	.LVL354:
1085:.\DSP\Source\TransformFunctions/arm_cfft_f32.c **** 
 1804              		.loc 1 1085 0
 1805 06b6 1498     		ldr	r0, [sp, #80]	@ float
 1806 06b8 FFF7FEFF 		bl	__aeabi_fmul
 1807              	.LVL355:
 1808 06bc 0146     		mov	r1, r0
1088:.\DSP\Source\TransformFunctions/arm_cfft_f32.c ****     *p3++ = m2 - m3;
 1809              		.loc 1 1088 0
 1810 06be 2846     		mov	r0, r5
 1811 06c0 FFF7FEFF 		bl	__aeabi_fsub
 1812              	.LVL356:
 1813 06c4 059B     		ldr	r3, [sp, #20]
1089:.\DSP\Source\TransformFunctions/arm_cfft_f32.c ****     /* COL 4 */
1090:.\DSP\Source\TransformFunctions/arm_cfft_f32.c ****     twR = tw4[0];
 1814              		.loc 1 1090 0
 1815 06c6 079A     		ldr	r2, [sp, #28]
1088:.\DSP\Source\TransformFunctions/arm_cfft_f32.c ****     *p3++ = m2 - m3;
 1816              		.loc 1 1088 0
 1817 06c8 5860     		str	r0, [r3, #4]	@ float
 1818              		.loc 1 1090 0
 1819 06ca 119B     		ldr	r3, [sp, #68]
1091:.\DSP\Source\TransformFunctions/arm_cfft_f32.c ****     twI = tw4[1];
1092:.\DSP\Source\TransformFunctions/arm_cfft_f32.c **** 
1093:.\DSP\Source\TransformFunctions/arm_cfft_f32.c ****     m0 = t4[0] * twR;
 1820              		.loc 1 1093 0
 1821 06cc 5846     		mov	r0, fp
1090:.\DSP\Source\TransformFunctions/arm_cfft_f32.c ****     twI = tw4[1];
 1822              		.loc 1 1090 0
 1823 06ce 9D58     		ldr	r5, [r3, r2]	@ float
 1824              	.LVL357:
1091:.\DSP\Source\TransformFunctions/arm_cfft_f32.c ****     twI = tw4[1];
 1825              		.loc 1 1091 0
 1826 06d0 169B     		ldr	r3, [sp, #88]
 1827              		.loc 1 1093 0
 1828 06d2 2946     		mov	r1, r5
1091:.\DSP\Source\TransformFunctions/arm_cfft_f32.c ****     twI = tw4[1];
 1829              		.loc 1 1091 0
 1830 06d4 5C68     		ldr	r4, [r3, #4]	@ float
 1831              	.LVL358:
 1832              		.loc 1 1093 0
 1833 06d6 FFF7FEFF 		bl	__aeabi_fmul
 1834              	.LVL359:
1094:.\DSP\Source\TransformFunctions/arm_cfft_f32.c ****     m1 = t4[1] * twI;
ARM GAS  C:\Users\IVYLIU~1\AppData\Local\Temp\ccWLNWQl.s 			page 56


 1835              		.loc 1 1094 0
 1836 06da 2146     		mov	r1, r4
1093:.\DSP\Source\TransformFunctions/arm_cfft_f32.c ****     m1 = t4[1] * twI;
 1837              		.loc 1 1093 0
 1838 06dc 0746     		mov	r7, r0
 1839              		.loc 1 1094 0
 1840 06de 3046     		mov	r0, r6
 1841 06e0 FFF7FEFF 		bl	__aeabi_fmul
 1842              	.LVL360:
 1843 06e4 0146     		mov	r1, r0
1095:.\DSP\Source\TransformFunctions/arm_cfft_f32.c ****     m2 = t4[1] * twR;
1096:.\DSP\Source\TransformFunctions/arm_cfft_f32.c ****     m3 = t4[0] * twI;
1097:.\DSP\Source\TransformFunctions/arm_cfft_f32.c **** 
1098:.\DSP\Source\TransformFunctions/arm_cfft_f32.c ****     *p4++ = m0 + m1;
 1844              		.loc 1 1098 0
 1845 06e6 3846     		mov	r0, r7
 1846 06e8 FFF7FEFF 		bl	__aeabi_fadd
 1847              	.LVL361:
 1848 06ec 109B     		ldr	r3, [sp, #64]
1095:.\DSP\Source\TransformFunctions/arm_cfft_f32.c ****     m2 = t4[1] * twR;
 1849              		.loc 1 1095 0
 1850 06ee 2946     		mov	r1, r5
 1851              		.loc 1 1098 0
 1852 06f0 43F83A00 		str	r0, [r3, r10, lsl #3]	@ float
 1853              	.LVL362:
1095:.\DSP\Source\TransformFunctions/arm_cfft_f32.c ****     m2 = t4[1] * twR;
 1854              		.loc 1 1095 0
 1855 06f4 3046     		mov	r0, r6
 1856 06f6 FFF7FEFF 		bl	__aeabi_fmul
 1857              	.LVL363:
1096:.\DSP\Source\TransformFunctions/arm_cfft_f32.c **** 
 1858              		.loc 1 1096 0
 1859 06fa 2146     		mov	r1, r4
1095:.\DSP\Source\TransformFunctions/arm_cfft_f32.c ****     m2 = t4[1] * twR;
 1860              		.loc 1 1095 0
 1861 06fc 0546     		mov	r5, r0
 1862              	.LVL364:
1096:.\DSP\Source\TransformFunctions/arm_cfft_f32.c **** 
 1863              		.loc 1 1096 0
 1864 06fe 5846     		mov	r0, fp
 1865 0700 FFF7FEFF 		bl	__aeabi_fmul
 1866              	.LVL365:
 1867 0704 0146     		mov	r1, r0
1099:.\DSP\Source\TransformFunctions/arm_cfft_f32.c ****     *p4++ = m2 - m3;
 1868              		.loc 1 1099 0
 1869 0706 2846     		mov	r0, r5
 1870 0708 FFF7FEFF 		bl	__aeabi_fsub
 1871              	.LVL366:
 1872 070c C9F80400 		str	r0, [r9, #4]	@ float
1100:.\DSP\Source\TransformFunctions/arm_cfft_f32.c **** 
1101:.\DSP\Source\TransformFunctions/arm_cfft_f32.c ****     /* first col */
1102:.\DSP\Source\TransformFunctions/arm_cfft_f32.c ****     arm_radix8_butterfly_f32 (pCol1, L, (float32_t *) S->pTwiddle, 4U);
 1873              		.loc 1 1102 0
 1874 0710 BDF84840 		ldrh	r4, [sp, #72]
 1875              	.LVL367:
 1876 0714 0498     		ldr	r0, [sp, #16]
 1877 0716 2146     		mov	r1, r4
ARM GAS  C:\Users\IVYLIU~1\AppData\Local\Temp\ccWLNWQl.s 			page 57


 1878 0718 019A     		ldr	r2, [sp, #4]
 1879 071a 0423     		movs	r3, #4
 1880 071c FFF7FEFF 		bl	arm_radix8_butterfly_f32
 1881              	.LVL368:
1103:.\DSP\Source\TransformFunctions/arm_cfft_f32.c **** 
1104:.\DSP\Source\TransformFunctions/arm_cfft_f32.c ****     /* second col */
1105:.\DSP\Source\TransformFunctions/arm_cfft_f32.c ****     arm_radix8_butterfly_f32 (pCol2, L, (float32_t *) S->pTwiddle, 4U);
 1882              		.loc 1 1105 0
 1883 0720 0D9B     		ldr	r3, [sp, #52]
 1884 0722 0098     		ldr	r0, [sp]
 1885 0724 2146     		mov	r1, r4
 1886 0726 5A68     		ldr	r2, [r3, #4]
 1887 0728 0423     		movs	r3, #4
 1888 072a FFF7FEFF 		bl	arm_radix8_butterfly_f32
 1889              	.LVL369:
1106:.\DSP\Source\TransformFunctions/arm_cfft_f32.c **** 
1107:.\DSP\Source\TransformFunctions/arm_cfft_f32.c ****     /* third col */
1108:.\DSP\Source\TransformFunctions/arm_cfft_f32.c ****     arm_radix8_butterfly_f32 (pCol3, L, (float32_t *) S->pTwiddle, 4U);
 1890              		.loc 1 1108 0
 1891 072e 0D9B     		ldr	r3, [sp, #52]
 1892 0730 0398     		ldr	r0, [sp, #12]
 1893 0732 2146     		mov	r1, r4
 1894 0734 5A68     		ldr	r2, [r3, #4]
 1895 0736 0423     		movs	r3, #4
 1896 0738 FFF7FEFF 		bl	arm_radix8_butterfly_f32
 1897              	.LVL370:
1109:.\DSP\Source\TransformFunctions/arm_cfft_f32.c **** 
1110:.\DSP\Source\TransformFunctions/arm_cfft_f32.c ****     /* fourth col */
1111:.\DSP\Source\TransformFunctions/arm_cfft_f32.c ****     arm_radix8_butterfly_f32 (pCol4, L, (float32_t *) S->pTwiddle, 4U);
 1898              		.loc 1 1111 0
 1899 073c 2146     		mov	r1, r4
 1900 073e 0D9B     		ldr	r3, [sp, #52]
 1901 0740 0298     		ldr	r0, [sp, #8]
 1902 0742 5A68     		ldr	r2, [r3, #4]
 1903 0744 0423     		movs	r3, #4
1112:.\DSP\Source\TransformFunctions/arm_cfft_f32.c **** }
 1904              		.loc 1 1112 0
 1905 0746 25B0     		add	sp, sp, #148
 1906              		.cfi_def_cfa_offset 36
 1907              	.LVL371:
 1908              		@ sp needed
 1909 0748 BDE8F04F 		pop	{r4, r5, r6, r7, r8, r9, r10, fp, lr}
 1910              		.cfi_restore 14
 1911              		.cfi_restore 11
 1912              		.cfi_restore 10
 1913              		.cfi_restore 9
 1914              		.cfi_restore 8
 1915              		.cfi_restore 7
 1916              		.cfi_restore 6
 1917              		.cfi_restore 5
 1918              		.cfi_restore 4
 1919              		.cfi_def_cfa_offset 0
 1920              	.LVL372:
1111:.\DSP\Source\TransformFunctions/arm_cfft_f32.c **** }
 1921              		.loc 1 1111 0
 1922 074c FFF7FEBF 		b	arm_radix8_butterfly_f32
 1923              	.LVL373:
ARM GAS  C:\Users\IVYLIU~1\AppData\Local\Temp\ccWLNWQl.s 			page 58


 1924              		.cfi_endproc
 1925              	.LFE85:
 1926              		.size	arm_cfft_radix8by4_f32, .-arm_cfft_radix8by4_f32
 1927              		.global	__aeabi_ui2f
 1928              		.global	__aeabi_fdiv
 1929              		.section	.text.arm_cfft_f32,"ax",%progbits
 1930              		.align	1
 1931              		.global	arm_cfft_f32
 1932              		.thumb
 1933              		.thumb_func
 1934              		.type	arm_cfft_f32, %function
 1935              	arm_cfft_f32:
 1936              	.LFB86:
1113:.\DSP\Source\TransformFunctions/arm_cfft_f32.c **** 
1114:.\DSP\Source\TransformFunctions/arm_cfft_f32.c **** /**
1115:.\DSP\Source\TransformFunctions/arm_cfft_f32.c ****   @addtogroup ComplexFFT
1116:.\DSP\Source\TransformFunctions/arm_cfft_f32.c ****   @{
1117:.\DSP\Source\TransformFunctions/arm_cfft_f32.c ****  */
1118:.\DSP\Source\TransformFunctions/arm_cfft_f32.c **** 
1119:.\DSP\Source\TransformFunctions/arm_cfft_f32.c **** /**
1120:.\DSP\Source\TransformFunctions/arm_cfft_f32.c ****   @brief         Processing function for the floating-point complex FFT.
1121:.\DSP\Source\TransformFunctions/arm_cfft_f32.c ****   @param[in]     S              points to an instance of the floating-point CFFT structure
1122:.\DSP\Source\TransformFunctions/arm_cfft_f32.c ****   @param[in,out] p1             points to the complex data buffer of size <code>2*fftLen</code>. Pr
1123:.\DSP\Source\TransformFunctions/arm_cfft_f32.c ****   @param[in]     ifftFlag       flag that selects transform direction
1124:.\DSP\Source\TransformFunctions/arm_cfft_f32.c ****                    - value = 0: forward transform
1125:.\DSP\Source\TransformFunctions/arm_cfft_f32.c ****                    - value = 1: inverse transform
1126:.\DSP\Source\TransformFunctions/arm_cfft_f32.c ****   @param[in]     bitReverseFlag flag that enables / disables bit reversal of output
1127:.\DSP\Source\TransformFunctions/arm_cfft_f32.c ****                    - value = 0: disables bit reversal of output
1128:.\DSP\Source\TransformFunctions/arm_cfft_f32.c ****                    - value = 1: enables bit reversal of output
1129:.\DSP\Source\TransformFunctions/arm_cfft_f32.c ****   @return        none
1130:.\DSP\Source\TransformFunctions/arm_cfft_f32.c ****  */
1131:.\DSP\Source\TransformFunctions/arm_cfft_f32.c **** 
1132:.\DSP\Source\TransformFunctions/arm_cfft_f32.c **** void arm_cfft_f32(
1133:.\DSP\Source\TransformFunctions/arm_cfft_f32.c ****   const arm_cfft_instance_f32 * S,
1134:.\DSP\Source\TransformFunctions/arm_cfft_f32.c ****         float32_t * p1,
1135:.\DSP\Source\TransformFunctions/arm_cfft_f32.c ****         uint8_t ifftFlag,
1136:.\DSP\Source\TransformFunctions/arm_cfft_f32.c ****         uint8_t bitReverseFlag)
1137:.\DSP\Source\TransformFunctions/arm_cfft_f32.c **** {
 1937              		.loc 1 1137 0
 1938              		.cfi_startproc
 1939              		@ args = 0, pretend = 0, frame = 0
 1940              		@ frame_needed = 0, uses_anonymous_args = 0
 1941              	.LVL374:
1138:.\DSP\Source\TransformFunctions/arm_cfft_f32.c ****   uint32_t  L = S->fftLen, l;
1139:.\DSP\Source\TransformFunctions/arm_cfft_f32.c ****   float32_t invL, * pSrc;
1140:.\DSP\Source\TransformFunctions/arm_cfft_f32.c **** 
1141:.\DSP\Source\TransformFunctions/arm_cfft_f32.c ****   if (ifftFlag == 1U)
 1942              		.loc 1 1141 0
 1943 0000 012A     		cmp	r2, #1
1137:.\DSP\Source\TransformFunctions/arm_cfft_f32.c ****   uint32_t  L = S->fftLen, l;
 1944              		.loc 1 1137 0
 1945 0002 2DE9F041 		push	{r4, r5, r6, r7, r8, lr}
 1946              		.cfi_def_cfa_offset 24
 1947              		.cfi_offset 4, -24
 1948              		.cfi_offset 5, -20
 1949              		.cfi_offset 6, -16
 1950              		.cfi_offset 7, -12
ARM GAS  C:\Users\IVYLIU~1\AppData\Local\Temp\ccWLNWQl.s 			page 59


 1951              		.cfi_offset 8, -8
 1952              		.cfi_offset 14, -4
1137:.\DSP\Source\TransformFunctions/arm_cfft_f32.c ****   uint32_t  L = S->fftLen, l;
 1953              		.loc 1 1137 0
 1954 0006 0646     		mov	r6, r0
 1955 0008 0D46     		mov	r5, r1
 1956 000a 1746     		mov	r7, r2
 1957 000c 9846     		mov	r8, r3
1138:.\DSP\Source\TransformFunctions/arm_cfft_f32.c ****   uint32_t  L = S->fftLen, l;
 1958              		.loc 1 1138 0
 1959 000e 0488     		ldrh	r4, [r0]
 1960              	.LVL375:
 1961              		.loc 1 1141 0
 1962 0010 1BD0     		beq	.L11
 1963              	.LVL376:
 1964              	.L21:
1142:.\DSP\Source\TransformFunctions/arm_cfft_f32.c ****   {
1143:.\DSP\Source\TransformFunctions/arm_cfft_f32.c ****     /* Conjugate input data */
1144:.\DSP\Source\TransformFunctions/arm_cfft_f32.c ****     pSrc = p1 + 1;
1145:.\DSP\Source\TransformFunctions/arm_cfft_f32.c ****     for (l = 0; l < L; l++)
1146:.\DSP\Source\TransformFunctions/arm_cfft_f32.c ****     {
1147:.\DSP\Source\TransformFunctions/arm_cfft_f32.c ****       *pSrc = -*pSrc;
1148:.\DSP\Source\TransformFunctions/arm_cfft_f32.c ****       pSrc += 2;
1149:.\DSP\Source\TransformFunctions/arm_cfft_f32.c ****     }
1150:.\DSP\Source\TransformFunctions/arm_cfft_f32.c ****   }
1151:.\DSP\Source\TransformFunctions/arm_cfft_f32.c **** 
1152:.\DSP\Source\TransformFunctions/arm_cfft_f32.c ****   switch (L)
 1965              		.loc 1 1152 0
 1966 0012 B4F5807F 		cmp	r4, #256
 1967 0016 2BD0     		beq	.L13
 1968 0018 09D8     		bhi	.L14
 1969 001a 202C     		cmp	r4, #32
 1970 001c 28D0     		beq	.L13
 1971 001e 01D8     		bhi	.L15
 1972 0020 102C     		cmp	r4, #16
 1973 0022 02E0     		b	.L57
 1974              	.L15:
 1975 0024 402C     		cmp	r4, #64
 1976 0026 28D0     		beq	.L17
 1977 0028 802C     		cmp	r4, #128
 1978              	.L57:
 1979 002a 1CD0     		beq	.L16
 1980 002c 2BE0     		b	.L12
 1981              	.L14:
 1982 002e B4F5806F 		cmp	r4, #1024
 1983 0032 18D0     		beq	.L16
 1984 0034 02D8     		bhi	.L18
 1985 0036 B4F5007F 		cmp	r4, #512
 1986 003a 04E0     		b	.L58
 1987              	.L18:
 1988 003c B4F5006F 		cmp	r4, #2048
 1989 0040 16D0     		beq	.L13
 1990 0042 B4F5805F 		cmp	r4, #4096
 1991              	.L58:
 1992 0046 18D0     		beq	.L17
 1993 0048 1DE0     		b	.L12
 1994              	.LVL377:
ARM GAS  C:\Users\IVYLIU~1\AppData\Local\Temp\ccWLNWQl.s 			page 60


 1995              	.L11:
1144:.\DSP\Source\TransformFunctions/arm_cfft_f32.c ****     for (l = 0; l < L; l++)
 1996              		.loc 1 1144 0
 1997 004a 0B1D     		adds	r3, r1, #4
 1998              	.LVL378:
1145:.\DSP\Source\TransformFunctions/arm_cfft_f32.c ****     {
 1999              		.loc 1 1145 0
 2000 004c 0022     		movs	r2, #0
 2001              	.LVL379:
 2002              	.L19:
1145:.\DSP\Source\TransformFunctions/arm_cfft_f32.c ****     {
 2003              		.loc 1 1145 0 is_stmt 0 discriminator 1
 2004 004e A242     		cmp	r2, r4
 2005 0050 03F10803 		add	r3, r3, #8
 2006              	.LVL380:
 2007 0054 DDD2     		bcs	.L21
1147:.\DSP\Source\TransformFunctions/arm_cfft_f32.c ****       pSrc += 2;
 2008              		.loc 1 1147 0 is_stmt 1 discriminator 3
 2009 0056 53F8081C 		ldr	r1, [r3, #-8]
1145:.\DSP\Source\TransformFunctions/arm_cfft_f32.c ****     {
 2010              		.loc 1 1145 0 discriminator 3
 2011 005a 0132     		adds	r2, r2, #1
 2012              	.LVL381:
1147:.\DSP\Source\TransformFunctions/arm_cfft_f32.c ****       pSrc += 2;
 2013              		.loc 1 1147 0 discriminator 3
 2014 005c 01F10041 		add	r1, r1, #-2147483648
 2015 0060 43F8081C 		str	r1, [r3, #-8]	@ float
 2016              	.LVL382:
 2017 0064 F3E7     		b	.L19
 2018              	.LVL383:
 2019              	.L16:
1153:.\DSP\Source\TransformFunctions/arm_cfft_f32.c ****   {
1154:.\DSP\Source\TransformFunctions/arm_cfft_f32.c ****   case 16:
1155:.\DSP\Source\TransformFunctions/arm_cfft_f32.c ****   case 128:
1156:.\DSP\Source\TransformFunctions/arm_cfft_f32.c ****   case 1024:
1157:.\DSP\Source\TransformFunctions/arm_cfft_f32.c ****     arm_cfft_radix8by2_f32 ( (arm_cfft_instance_f32 *) S, p1);
 2020              		.loc 1 1157 0
 2021 0066 3046     		mov	r0, r6
 2022              	.LVL384:
 2023 0068 2946     		mov	r1, r5
 2024 006a FFF7FEFF 		bl	arm_cfft_radix8by2_f32
 2025              	.LVL385:
1158:.\DSP\Source\TransformFunctions/arm_cfft_f32.c ****     break;
 2026              		.loc 1 1158 0
 2027 006e 0AE0     		b	.L12
 2028              	.LVL386:
 2029              	.L13:
1159:.\DSP\Source\TransformFunctions/arm_cfft_f32.c ****   case 32:
1160:.\DSP\Source\TransformFunctions/arm_cfft_f32.c ****   case 256:
1161:.\DSP\Source\TransformFunctions/arm_cfft_f32.c ****   case 2048:
1162:.\DSP\Source\TransformFunctions/arm_cfft_f32.c ****     arm_cfft_radix8by4_f32 ( (arm_cfft_instance_f32 *) S, p1);
 2030              		.loc 1 1162 0
 2031 0070 3046     		mov	r0, r6
 2032              	.LVL387:
 2033 0072 2946     		mov	r1, r5
 2034 0074 FFF7FEFF 		bl	arm_cfft_radix8by4_f32
 2035              	.LVL388:
ARM GAS  C:\Users\IVYLIU~1\AppData\Local\Temp\ccWLNWQl.s 			page 61


1163:.\DSP\Source\TransformFunctions/arm_cfft_f32.c ****     break;
 2036              		.loc 1 1163 0
 2037 0078 05E0     		b	.L12
 2038              	.LVL389:
 2039              	.L17:
1164:.\DSP\Source\TransformFunctions/arm_cfft_f32.c ****   case 64:
1165:.\DSP\Source\TransformFunctions/arm_cfft_f32.c ****   case 512:
1166:.\DSP\Source\TransformFunctions/arm_cfft_f32.c ****   case 4096:
1167:.\DSP\Source\TransformFunctions/arm_cfft_f32.c ****     arm_radix8_butterfly_f32 ( p1, L, (float32_t *) S->pTwiddle, 1);
 2040              		.loc 1 1167 0
 2041 007a 2846     		mov	r0, r5
 2042              	.LVL390:
 2043 007c 2146     		mov	r1, r4
 2044 007e 7268     		ldr	r2, [r6, #4]
 2045 0080 0123     		movs	r3, #1
 2046 0082 FFF7FEFF 		bl	arm_radix8_butterfly_f32
 2047              	.LVL391:
 2048              	.L12:
1168:.\DSP\Source\TransformFunctions/arm_cfft_f32.c ****     break;
1169:.\DSP\Source\TransformFunctions/arm_cfft_f32.c ****   }
1170:.\DSP\Source\TransformFunctions/arm_cfft_f32.c **** 
1171:.\DSP\Source\TransformFunctions/arm_cfft_f32.c ****   if ( bitReverseFlag )
 2049              		.loc 1 1171 0
 2050 0086 B8F1000F 		cmp	r8, #0
 2051 008a 04D0     		beq	.L22
1172:.\DSP\Source\TransformFunctions/arm_cfft_f32.c ****     arm_bitreversal_32 ((uint32_t*) p1, S->bitRevLength, S->pBitRevTable);
 2052              		.loc 1 1172 0
 2053 008c 2846     		mov	r0, r5
 2054 008e B189     		ldrh	r1, [r6, #12]
 2055 0090 B268     		ldr	r2, [r6, #8]
 2056 0092 FFF7FEFF 		bl	arm_bitreversal_32
 2057              	.LVL392:
 2058              	.L22:
1173:.\DSP\Source\TransformFunctions/arm_cfft_f32.c **** 
1174:.\DSP\Source\TransformFunctions/arm_cfft_f32.c ****   if (ifftFlag == 1U)
 2059              		.loc 1 1174 0
 2060 0096 012F     		cmp	r7, #1
 2061 0098 1FD1     		bne	.L10
1175:.\DSP\Source\TransformFunctions/arm_cfft_f32.c ****   {
1176:.\DSP\Source\TransformFunctions/arm_cfft_f32.c ****     invL = 1.0f / (float32_t)L;
 2062              		.loc 1 1176 0
 2063 009a 2046     		mov	r0, r4
 2064 009c FFF7FEFF 		bl	__aeabi_ui2f
 2065              	.LVL393:
 2066 00a0 0146     		mov	r1, r0
 2067 00a2 4FF07E50 		mov	r0, #1065353216
 2068 00a6 FFF7FEFF 		bl	__aeabi_fdiv
 2069              	.LVL394:
 2070 00aa 0746     		mov	r7, r0
 2071              	.LVL395:
1177:.\DSP\Source\TransformFunctions/arm_cfft_f32.c **** 
1178:.\DSP\Source\TransformFunctions/arm_cfft_f32.c ****     /* Conjugate and scale output data */
1179:.\DSP\Source\TransformFunctions/arm_cfft_f32.c ****     pSrc = p1;
1180:.\DSP\Source\TransformFunctions/arm_cfft_f32.c ****     for (l= 0; l < L; l++)
 2072              		.loc 1 1180 0
 2073 00ac 0026     		movs	r6, #0
 2074              	.LVL396:
ARM GAS  C:\Users\IVYLIU~1\AppData\Local\Temp\ccWLNWQl.s 			page 62


 2075              	.L24:
 2076              		.loc 1 1180 0 is_stmt 0 discriminator 1
 2077 00ae A642     		cmp	r6, r4
 2078 00b0 05F10805 		add	r5, r5, #8
 2079              	.LVL397:
 2080 00b4 11D2     		bcs	.L10
 2081              	.LVL398:
1181:.\DSP\Source\TransformFunctions/arm_cfft_f32.c ****     {
1182:.\DSP\Source\TransformFunctions/arm_cfft_f32.c ****       *pSrc++ *=   invL ;
 2082              		.loc 1 1182 0 is_stmt 1 discriminator 3
 2083 00b6 55F8080C 		ldr	r0, [r5, #-8]	@ float
 2084 00ba 3946     		mov	r1, r7
 2085 00bc FFF7FEFF 		bl	__aeabi_fmul
 2086              	.LVL399:
 2087 00c0 45F8080C 		str	r0, [r5, #-8]	@ float
1183:.\DSP\Source\TransformFunctions/arm_cfft_f32.c ****       *pSrc    = -(*pSrc) * invL;
 2088              		.loc 1 1183 0 discriminator 3
 2089 00c4 55F8040C 		ldr	r0, [r5, #-4]
 2090 00c8 3946     		mov	r1, r7
 2091 00ca 00F10040 		add	r0, r0, #-2147483648
 2092 00ce FFF7FEFF 		bl	__aeabi_fmul
 2093              	.LVL400:
1180:.\DSP\Source\TransformFunctions/arm_cfft_f32.c ****     {
 2094              		.loc 1 1180 0 discriminator 3
 2095 00d2 0136     		adds	r6, r6, #1
 2096              	.LVL401:
 2097              		.loc 1 1183 0 discriminator 3
 2098 00d4 45F8040C 		str	r0, [r5, #-4]	@ float
 2099              	.LVL402:
 2100 00d8 E9E7     		b	.L24
 2101              	.LVL403:
 2102              	.L10:
 2103 00da BDE8F081 		pop	{r4, r5, r6, r7, r8, pc}
 2104              		.cfi_endproc
 2105              	.LFE86:
 2106              		.size	arm_cfft_f32, .-arm_cfft_f32
 2107              		.text
 2108              	.Letext0:
 2109              		.file 2 "c:\\program files (x86)\\cypress\\psoc creator\\3.3\\psoc creator\\import\\gnu\\arm\\4.9.
 2110              		.file 3 "c:\\program files (x86)\\cypress\\psoc creator\\3.3\\psoc creator\\import\\gnu\\arm\\4.9.
 2111              		.file 4 ".\\DSP\\Include/arm_math_types.h"
 2112              		.file 5 ".\\DSP\\Include/dsp/transform_functions.h"
 2113              		.file 6 ".\\Core\\Include/cmsis_gcc.h"
 2114              		.section	.debug_info,"",%progbits
 2115              	.Ldebug_info0:
 2116 0000 62070000 		.4byte	0x762
 2117 0004 0400     		.2byte	0x4
 2118 0006 00000000 		.4byte	.Ldebug_abbrev0
 2119 000a 04       		.byte	0x4
 2120 000b 01       		.uleb128 0x1
 2121 000c 24020000 		.4byte	.LASF58
 2122 0010 01       		.byte	0x1
 2123 0011 61030000 		.4byte	.LASF59
 2124 0015 44000000 		.4byte	.LASF60
 2125 0019 00000000 		.4byte	.Ldebug_ranges0+0
 2126 001d 00000000 		.4byte	0
 2127 0021 00000000 		.4byte	.Ldebug_line0
ARM GAS  C:\Users\IVYLIU~1\AppData\Local\Temp\ccWLNWQl.s 			page 63


 2128 0025 02       		.uleb128 0x2
 2129 0026 04       		.byte	0x4
 2130 0027 04       		.byte	0x4
 2131 0028 F2010000 		.4byte	.LASF0
 2132 002c 02       		.uleb128 0x2
 2133 002d 01       		.byte	0x1
 2134 002e 06       		.byte	0x6
 2135 002f F0000000 		.4byte	.LASF1
 2136 0033 03       		.uleb128 0x3
 2137 0034 25000000 		.4byte	.LASF4
 2138 0038 02       		.byte	0x2
 2139 0039 1D       		.byte	0x1d
 2140 003a 3E000000 		.4byte	0x3e
 2141 003e 02       		.uleb128 0x2
 2142 003f 01       		.byte	0x1
 2143 0040 08       		.byte	0x8
 2144 0041 C3020000 		.4byte	.LASF2
 2145 0045 02       		.uleb128 0x2
 2146 0046 02       		.byte	0x2
 2147 0047 05       		.byte	0x5
 2148 0048 D6020000 		.4byte	.LASF3
 2149 004c 03       		.uleb128 0x3
 2150 004d 18030000 		.4byte	.LASF5
 2151 0051 02       		.byte	0x2
 2152 0052 2B       		.byte	0x2b
 2153 0053 57000000 		.4byte	0x57
 2154 0057 02       		.uleb128 0x2
 2155 0058 02       		.byte	0x2
 2156 0059 07       		.byte	0x7
 2157 005a 7C010000 		.4byte	.LASF6
 2158 005e 02       		.uleb128 0x2
 2159 005f 04       		.byte	0x4
 2160 0060 05       		.byte	0x5
 2161 0061 FC000000 		.4byte	.LASF7
 2162 0065 03       		.uleb128 0x3
 2163 0066 22010000 		.4byte	.LASF8
 2164 006a 02       		.byte	0x2
 2165 006b 41       		.byte	0x41
 2166 006c 70000000 		.4byte	0x70
 2167 0070 02       		.uleb128 0x2
 2168 0071 04       		.byte	0x4
 2169 0072 07       		.byte	0x7
 2170 0073 6A010000 		.4byte	.LASF9
 2171 0077 02       		.uleb128 0x2
 2172 0078 08       		.byte	0x8
 2173 0079 05       		.byte	0x5
 2174 007a E2000000 		.4byte	.LASF10
 2175 007e 02       		.uleb128 0x2
 2176 007f 08       		.byte	0x8
 2177 0080 07       		.byte	0x7
 2178 0081 93000000 		.4byte	.LASF11
 2179 0085 04       		.uleb128 0x4
 2180 0086 04       		.byte	0x4
 2181 0087 05       		.byte	0x5
 2182 0088 696E7400 		.ascii	"int\000"
 2183 008c 02       		.uleb128 0x2
 2184 008d 04       		.byte	0x4
ARM GAS  C:\Users\IVYLIU~1\AppData\Local\Temp\ccWLNWQl.s 			page 64


 2185 008e 07       		.byte	0x7
 2186 008f 49010000 		.4byte	.LASF12
 2187 0093 03       		.uleb128 0x3
 2188 0094 A7030000 		.4byte	.LASF13
 2189 0098 03       		.byte	0x3
 2190 0099 15       		.byte	0x15
 2191 009a 33000000 		.4byte	0x33
 2192 009e 03       		.uleb128 0x3
 2193 009f 12010000 		.4byte	.LASF14
 2194 00a3 03       		.byte	0x3
 2195 00a4 21       		.byte	0x21
 2196 00a5 4C000000 		.4byte	0x4c
 2197 00a9 03       		.uleb128 0x3
 2198 00aa FD020000 		.4byte	.LASF15
 2199 00ae 03       		.byte	0x3
 2200 00af 2D       		.byte	0x2d
 2201 00b0 65000000 		.4byte	0x65
 2202 00b4 02       		.uleb128 0x2
 2203 00b5 04       		.byte	0x4
 2204 00b6 07       		.byte	0x7
 2205 00b7 C9010000 		.4byte	.LASF16
 2206 00bb 02       		.uleb128 0x2
 2207 00bc 01       		.byte	0x1
 2208 00bd 08       		.byte	0x8
 2209 00be 13030000 		.4byte	.LASF17
 2210 00c2 02       		.uleb128 0x2
 2211 00c3 08       		.byte	0x8
 2212 00c4 04       		.byte	0x4
 2213 00c5 1B010000 		.4byte	.LASF18
 2214 00c9 02       		.uleb128 0x2
 2215 00ca 08       		.byte	0x8
 2216 00cb 04       		.byte	0x4
 2217 00cc D2010000 		.4byte	.LASF19
 2218 00d0 05       		.uleb128 0x5
 2219 00d1 44030000 		.4byte	.LASF20
 2220 00d5 04       		.byte	0x4
 2221 00d6 2F01     		.2byte	0x12f
 2222 00d8 25000000 		.4byte	0x25
 2223 00dc 06       		.uleb128 0x6
 2224 00dd 04       		.byte	0x4
 2225 00de E2000000 		.4byte	0xe2
 2226 00e2 07       		.uleb128 0x7
 2227 00e3 9E000000 		.4byte	0x9e
 2228 00e7 06       		.uleb128 0x6
 2229 00e8 04       		.byte	0x4
 2230 00e9 ED000000 		.4byte	0xed
 2231 00ed 07       		.uleb128 0x7
 2232 00ee D0000000 		.4byte	0xd0
 2233 00f2 08       		.uleb128 0x8
 2234 00f3 10       		.byte	0x10
 2235 00f4 05       		.byte	0x5
 2236 00f5 1101     		.2byte	0x111
 2237 00f7 30010000 		.4byte	0x130
 2238 00fb 09       		.uleb128 0x9
 2239 00fc 2D010000 		.4byte	.LASF21
 2240 0100 05       		.byte	0x5
 2241 0101 1301     		.2byte	0x113
ARM GAS  C:\Users\IVYLIU~1\AppData\Local\Temp\ccWLNWQl.s 			page 65


 2242 0103 9E000000 		.4byte	0x9e
 2243 0107 00       		.byte	0
 2244 0108 09       		.uleb128 0x9
 2245 0109 90030000 		.4byte	.LASF22
 2246 010d 05       		.byte	0x5
 2247 010e 1401     		.2byte	0x114
 2248 0110 E7000000 		.4byte	0xe7
 2249 0114 04       		.byte	0x4
 2250 0115 09       		.uleb128 0x9
 2251 0116 05010000 		.4byte	.LASF23
 2252 011a 05       		.byte	0x5
 2253 011b 1501     		.2byte	0x115
 2254 011d DC000000 		.4byte	0xdc
 2255 0121 08       		.byte	0x8
 2256 0122 09       		.uleb128 0x9
 2257 0123 17020000 		.4byte	.LASF24
 2258 0127 05       		.byte	0x5
 2259 0128 1601     		.2byte	0x116
 2260 012a 9E000000 		.4byte	0x9e
 2261 012e 0C       		.byte	0xc
 2262 012f 00       		.byte	0
 2263 0130 05       		.uleb128 0x5
 2264 0131 00000000 		.4byte	.LASF25
 2265 0135 05       		.byte	0x5
 2266 0136 1F01     		.2byte	0x11f
 2267 0138 F2000000 		.4byte	0xf2
 2268 013c 06       		.uleb128 0x6
 2269 013d 04       		.byte	0x4
 2270 013e 42010000 		.4byte	0x142
 2271 0142 07       		.uleb128 0x7
 2272 0143 A9000000 		.4byte	0xa9
 2273 0147 0A       		.uleb128 0xa
 2274 0148 CB000000 		.4byte	.LASF30
 2275 014c 01       		.byte	0x1
 2276 014d F502     		.2byte	0x2f5
 2277 014f 00000000 		.4byte	.LFB84
 2278 0153 8A020000 		.4byte	.LFE84-.LFB84
 2279 0157 01       		.uleb128 0x1
 2280 0158 9C       		.byte	0x9c
 2281 0159 CD020000 		.4byte	0x2cd
 2282 015d 0B       		.uleb128 0xb
 2283 015e 5300     		.ascii	"S\000"
 2284 0160 01       		.byte	0x1
 2285 0161 F502     		.2byte	0x2f5
 2286 0163 CD020000 		.4byte	0x2cd
 2287 0167 00000000 		.4byte	.LLST0
 2288 016b 0B       		.uleb128 0xb
 2289 016c 703100   		.ascii	"p1\000"
 2290 016f 01       		.byte	0x1
 2291 0170 F502     		.2byte	0x2f5
 2292 0172 D3020000 		.4byte	0x2d3
 2293 0176 2D000000 		.4byte	.LLST1
 2294 017a 0C       		.uleb128 0xc
 2295 017b 4C00     		.ascii	"L\000"
 2296 017d 01       		.byte	0x1
 2297 017e F702     		.2byte	0x2f7
 2298 0180 A9000000 		.4byte	0xa9
ARM GAS  C:\Users\IVYLIU~1\AppData\Local\Temp\ccWLNWQl.s 			page 66


 2299 0184 4B000000 		.4byte	.LLST2
 2300 0188 0D       		.uleb128 0xd
 2301 0189 E5020000 		.4byte	.LASF26
 2302 018d 01       		.byte	0x1
 2303 018e F802     		.2byte	0x2f8
 2304 0190 D3020000 		.4byte	0x2d3
 2305 0194 78000000 		.4byte	.LLST3
 2306 0198 0D       		.uleb128 0xd
 2307 0199 EB020000 		.4byte	.LASF27
 2308 019d 01       		.byte	0x1
 2309 019e F802     		.2byte	0x2f8
 2310 01a0 D3020000 		.4byte	0x2d3
 2311 01a4 B0000000 		.4byte	.LLST4
 2312 01a8 0D       		.uleb128 0xd
 2313 01a9 B2000000 		.4byte	.LASF28
 2314 01ad 01       		.byte	0x1
 2315 01ae F802     		.2byte	0x2f8
 2316 01b0 D3020000 		.4byte	0x2d3
 2317 01b4 DD000000 		.4byte	.LLST5
 2318 01b8 0D       		.uleb128 0xd
 2319 01b9 BD020000 		.4byte	.LASF29
 2320 01bd 01       		.byte	0x1
 2321 01be F802     		.2byte	0x2f8
 2322 01c0 D3020000 		.4byte	0x2d3
 2323 01c4 00010000 		.4byte	.LLST6
 2324 01c8 0C       		.uleb128 0xc
 2325 01c9 703200   		.ascii	"p2\000"
 2326 01cc 01       		.byte	0x1
 2327 01cd F902     		.2byte	0x2f9
 2328 01cf D3020000 		.4byte	0x2d3
 2329 01d3 23010000 		.4byte	.LLST7
 2330 01d7 0C       		.uleb128 0xc
 2331 01d8 747700   		.ascii	"tw\000"
 2332 01db 01       		.byte	0x1
 2333 01dc FA02     		.2byte	0x2fa
 2334 01de E7000000 		.4byte	0xe7
 2335 01e2 41010000 		.4byte	.LLST8
 2336 01e6 0C       		.uleb128 0xc
 2337 01e7 743100   		.ascii	"t1\000"
 2338 01ea 01       		.byte	0x1
 2339 01eb FB02     		.2byte	0x2fb
 2340 01ed D9020000 		.4byte	0x2d9
 2341 01f1 D1010000 		.4byte	.LLST9
 2342 01f5 0C       		.uleb128 0xc
 2343 01f6 743200   		.ascii	"t2\000"
 2344 01f9 01       		.byte	0x1
 2345 01fa FB02     		.2byte	0x2fb
 2346 01fc D9020000 		.4byte	0x2d9
 2347 0200 BF020000 		.4byte	.LLST10
 2348 0204 0C       		.uleb128 0xc
 2349 0205 743300   		.ascii	"t3\000"
 2350 0208 01       		.byte	0x1
 2351 0209 FB02     		.2byte	0x2fb
 2352 020b D9020000 		.4byte	0x2d9
 2353 020f D3030000 		.4byte	.LLST11
 2354 0213 0C       		.uleb128 0xc
 2355 0214 743400   		.ascii	"t4\000"
ARM GAS  C:\Users\IVYLIU~1\AppData\Local\Temp\ccWLNWQl.s 			page 67


 2356 0217 01       		.byte	0x1
 2357 0218 FB02     		.2byte	0x2fb
 2358 021a D9020000 		.4byte	0x2d9
 2359 021e 55040000 		.4byte	.LLST12
 2360 0222 0C       		.uleb128 0xc
 2361 0223 74775200 		.ascii	"twR\000"
 2362 0227 01       		.byte	0x1
 2363 0228 FB02     		.2byte	0x2fb
 2364 022a D0000000 		.4byte	0xd0
 2365 022e E3050000 		.4byte	.LLST13
 2366 0232 0C       		.uleb128 0xc
 2367 0233 74774900 		.ascii	"twI\000"
 2368 0237 01       		.byte	0x1
 2369 0238 FB02     		.2byte	0x2fb
 2370 023a D0000000 		.4byte	0xd0
 2371 023e F6050000 		.4byte	.LLST14
 2372 0242 0C       		.uleb128 0xc
 2373 0243 6D3000   		.ascii	"m0\000"
 2374 0246 01       		.byte	0x1
 2375 0247 FC02     		.2byte	0x2fc
 2376 0249 D0000000 		.4byte	0xd0
 2377 024d 14060000 		.4byte	.LLST15
 2378 0251 0C       		.uleb128 0xc
 2379 0252 6D3100   		.ascii	"m1\000"
 2380 0255 01       		.byte	0x1
 2381 0256 FC02     		.2byte	0x2fc
 2382 0258 D0000000 		.4byte	0xd0
 2383 025c 6D060000 		.4byte	.LLST16
 2384 0260 0C       		.uleb128 0xc
 2385 0261 6D3200   		.ascii	"m2\000"
 2386 0264 01       		.byte	0x1
 2387 0265 FC02     		.2byte	0x2fc
 2388 0267 D0000000 		.4byte	0xd0
 2389 026b C6060000 		.4byte	.LLST17
 2390 026f 0C       		.uleb128 0xc
 2391 0270 6D3300   		.ascii	"m3\000"
 2392 0273 01       		.byte	0x1
 2393 0274 FC02     		.2byte	0x2fc
 2394 0276 D0000000 		.4byte	0xd0
 2395 027a 1F070000 		.4byte	.LLST18
 2396 027e 0C       		.uleb128 0xc
 2397 027f 6C00     		.ascii	"l\000"
 2398 0281 01       		.byte	0x1
 2399 0282 FD02     		.2byte	0x2fd
 2400 0284 A9000000 		.4byte	0xa9
 2401 0288 78070000 		.4byte	.LLST19
 2402 028c 0E       		.uleb128 0xe
 2403 028d 76020000 		.4byte	.LVL90
 2404 0291 2C070000 		.4byte	0x72c
 2405 0295 AC020000 		.4byte	0x2ac
 2406 0299 0F       		.uleb128 0xf
 2407 029a 01       		.uleb128 0x1
 2408 029b 53       		.byte	0x53
 2409 029c 01       		.uleb128 0x1
 2410 029d 32       		.byte	0x32
 2411 029e 0F       		.uleb128 0xf
 2412 029f 01       		.uleb128 0x1
ARM GAS  C:\Users\IVYLIU~1\AppData\Local\Temp\ccWLNWQl.s 			page 68


 2413 02a0 51       		.byte	0x51
 2414 02a1 02       		.uleb128 0x2
 2415 02a2 74       		.byte	0x74
 2416 02a3 00       		.sleb128 0
 2417 02a4 0F       		.uleb128 0xf
 2418 02a5 01       		.uleb128 0x1
 2419 02a6 50       		.byte	0x50
 2420 02a7 03       		.uleb128 0x3
 2421 02a8 F3       		.byte	0xf3
 2422 02a9 01       		.uleb128 0x1
 2423 02aa 51       		.byte	0x51
 2424 02ab 00       		.byte	0
 2425 02ac 10       		.uleb128 0x10
 2426 02ad 8A020000 		.4byte	.LVL92
 2427 02b1 2C070000 		.4byte	0x72c
 2428 02b5 0F       		.uleb128 0xf
 2429 02b6 01       		.uleb128 0x1
 2430 02b7 53       		.byte	0x53
 2431 02b8 01       		.uleb128 0x1
 2432 02b9 32       		.byte	0x32
 2433 02ba 0F       		.uleb128 0xf
 2434 02bb 01       		.uleb128 0x1
 2435 02bc 51       		.byte	0x51
 2436 02bd 05       		.uleb128 0x5
 2437 02be 7D       		.byte	0x7d
 2438 02bf 987F     		.sleb128 -104
 2439 02c1 94       		.byte	0x94
 2440 02c2 02       		.byte	0x2
 2441 02c3 0F       		.uleb128 0xf
 2442 02c4 01       		.uleb128 0x1
 2443 02c5 50       		.byte	0x50
 2444 02c6 04       		.uleb128 0x4
 2445 02c7 7D       		.byte	0x7d
 2446 02c8 907F     		.sleb128 -112
 2447 02ca 06       		.byte	0x6
 2448 02cb 00       		.byte	0
 2449 02cc 00       		.byte	0
 2450 02cd 06       		.uleb128 0x6
 2451 02ce 04       		.byte	0x4
 2452 02cf 30010000 		.4byte	0x130
 2453 02d3 06       		.uleb128 0x6
 2454 02d4 04       		.byte	0x4
 2455 02d5 D0000000 		.4byte	0xd0
 2456 02d9 11       		.uleb128 0x11
 2457 02da D0000000 		.4byte	0xd0
 2458 02de E9020000 		.4byte	0x2e9
 2459 02e2 12       		.uleb128 0x12
 2460 02e3 B4000000 		.4byte	0xb4
 2461 02e7 03       		.byte	0x3
 2462 02e8 00       		.byte	0
 2463 02e9 0A       		.uleb128 0xa
 2464 02ea 8F010000 		.4byte	.LASF31
 2465 02ee 01       		.byte	0x1
 2466 02ef 6703     		.2byte	0x367
 2467 02f1 00000000 		.4byte	.LFB85
 2468 02f5 50070000 		.4byte	.LFE85-.LFB85
 2469 02f9 01       		.uleb128 0x1
ARM GAS  C:\Users\IVYLIU~1\AppData\Local\Temp\ccWLNWQl.s 			page 69


 2470 02fa 9C       		.byte	0x9c
 2471 02fb 90050000 		.4byte	0x590
 2472 02ff 0B       		.uleb128 0xb
 2473 0300 5300     		.ascii	"S\000"
 2474 0302 01       		.byte	0x1
 2475 0303 6703     		.2byte	0x367
 2476 0305 CD020000 		.4byte	0x2cd
 2477 0309 91070000 		.4byte	.LLST20
 2478 030d 0B       		.uleb128 0xb
 2479 030e 703100   		.ascii	"p1\000"
 2480 0311 01       		.byte	0x1
 2481 0312 6703     		.2byte	0x367
 2482 0314 D3020000 		.4byte	0x2d3
 2483 0318 BE070000 		.4byte	.LLST21
 2484 031c 0C       		.uleb128 0xc
 2485 031d 4C00     		.ascii	"L\000"
 2486 031f 01       		.byte	0x1
 2487 0320 6903     		.2byte	0x369
 2488 0322 A9000000 		.4byte	0xa9
 2489 0326 3A080000 		.4byte	.LLST22
 2490 032a 0D       		.uleb128 0xd
 2491 032b E5020000 		.4byte	.LASF26
 2492 032f 01       		.byte	0x1
 2493 0330 6A03     		.2byte	0x36a
 2494 0332 D3020000 		.4byte	0x2d3
 2495 0336 72080000 		.4byte	.LLST23
 2496 033a 0D       		.uleb128 0xd
 2497 033b EB020000 		.4byte	.LASF27
 2498 033f 01       		.byte	0x1
 2499 0340 6A03     		.2byte	0x36a
 2500 0342 D3020000 		.4byte	0x2d3
 2501 0346 87080000 		.4byte	.LLST24
 2502 034a 0D       		.uleb128 0xd
 2503 034b F1020000 		.4byte	.LASF32
 2504 034f 01       		.byte	0x1
 2505 0350 6A03     		.2byte	0x36a
 2506 0352 D3020000 		.4byte	0x2d3
 2507 0356 B5080000 		.4byte	.LLST25
 2508 035a 0D       		.uleb128 0xd
 2509 035b F7020000 		.4byte	.LASF33
 2510 035f 01       		.byte	0x1
 2511 0360 6A03     		.2byte	0x36a
 2512 0362 D3020000 		.4byte	0x2d3
 2513 0366 D7080000 		.4byte	.LLST26
 2514 036a 0D       		.uleb128 0xd
 2515 036b F8010000 		.4byte	.LASF34
 2516 036f 01       		.byte	0x1
 2517 0370 6A03     		.2byte	0x36a
 2518 0372 D3020000 		.4byte	0x2d3
 2519 0376 04090000 		.4byte	.LLST27
 2520 037a 0D       		.uleb128 0xd
 2521 037b FE010000 		.4byte	.LASF35
 2522 037f 01       		.byte	0x1
 2523 0380 6A03     		.2byte	0x36a
 2524 0382 D3020000 		.4byte	0x2d3
 2525 0386 2F090000 		.4byte	.LLST28
 2526 038a 0D       		.uleb128 0xd
ARM GAS  C:\Users\IVYLIU~1\AppData\Local\Temp\ccWLNWQl.s 			page 70


 2527 038b 04020000 		.4byte	.LASF36
 2528 038f 01       		.byte	0x1
 2529 0390 6A03     		.2byte	0x36a
 2530 0392 D3020000 		.4byte	0x2d3
 2531 0396 60090000 		.4byte	.LLST29
 2532 039a 0D       		.uleb128 0xd
 2533 039b 0A020000 		.4byte	.LASF37
 2534 039f 01       		.byte	0x1
 2535 03a0 6A03     		.2byte	0x36a
 2536 03a2 D3020000 		.4byte	0x2d3
 2537 03a6 9A090000 		.4byte	.LLST30
 2538 03aa 0C       		.uleb128 0xc
 2539 03ab 74773200 		.ascii	"tw2\000"
 2540 03af 01       		.byte	0x1
 2541 03b0 6B03     		.2byte	0x36b
 2542 03b2 E7000000 		.4byte	0xe7
 2543 03b6 CC090000 		.4byte	.LLST31
 2544 03ba 0C       		.uleb128 0xc
 2545 03bb 74773300 		.ascii	"tw3\000"
 2546 03bf 01       		.byte	0x1
 2547 03c0 6B03     		.2byte	0x36b
 2548 03c2 E7000000 		.4byte	0xe7
 2549 03c6 550A0000 		.4byte	.LLST32
 2550 03ca 0C       		.uleb128 0xc
 2551 03cb 74773400 		.ascii	"tw4\000"
 2552 03cf 01       		.byte	0x1
 2553 03d0 6B03     		.2byte	0x36b
 2554 03d2 E7000000 		.4byte	0xe7
 2555 03d6 CA0A0000 		.4byte	.LLST33
 2556 03da 0C       		.uleb128 0xc
 2557 03db 703200   		.ascii	"p2\000"
 2558 03de 01       		.byte	0x1
 2559 03df 6C03     		.2byte	0x36c
 2560 03e1 D3020000 		.4byte	0x2d3
 2561 03e5 5F0B0000 		.4byte	.LLST34
 2562 03e9 0C       		.uleb128 0xc
 2563 03ea 703300   		.ascii	"p3\000"
 2564 03ed 01       		.byte	0x1
 2565 03ee 6D03     		.2byte	0x36d
 2566 03f0 D3020000 		.4byte	0x2d3
 2567 03f4 E80B0000 		.4byte	.LLST35
 2568 03f8 0C       		.uleb128 0xc
 2569 03f9 703400   		.ascii	"p4\000"
 2570 03fc 01       		.byte	0x1
 2571 03fd 6E03     		.2byte	0x36e
 2572 03ff D3020000 		.4byte	0x2d3
 2573 0403 640C0000 		.4byte	.LLST36
 2574 0407 0C       		.uleb128 0xc
 2575 0408 743200   		.ascii	"t2\000"
 2576 040b 01       		.byte	0x1
 2577 040c 6F03     		.2byte	0x36f
 2578 040e D9020000 		.4byte	0x2d9
 2579 0412 DB0C0000 		.4byte	.LLST37
 2580 0416 0C       		.uleb128 0xc
 2581 0417 743300   		.ascii	"t3\000"
 2582 041a 01       		.byte	0x1
 2583 041b 6F03     		.2byte	0x36f
ARM GAS  C:\Users\IVYLIU~1\AppData\Local\Temp\ccWLNWQl.s 			page 71


 2584 041d D9020000 		.4byte	0x2d9
 2585 0421 8A0E0000 		.4byte	.LLST38
 2586 0425 0C       		.uleb128 0xc
 2587 0426 743400   		.ascii	"t4\000"
 2588 0429 01       		.byte	0x1
 2589 042a 6F03     		.2byte	0x36f
 2590 042c D9020000 		.4byte	0x2d9
 2591 0430 10100000 		.4byte	.LLST39
 2592 0434 0C       		.uleb128 0xc
 2593 0435 74775200 		.ascii	"twR\000"
 2594 0439 01       		.byte	0x1
 2595 043a 6F03     		.2byte	0x36f
 2596 043c D0000000 		.4byte	0xd0
 2597 0440 7F110000 		.4byte	.LLST40
 2598 0444 0C       		.uleb128 0xc
 2599 0445 74774900 		.ascii	"twI\000"
 2600 0449 01       		.byte	0x1
 2601 044a 6F03     		.2byte	0x36f
 2602 044c D0000000 		.4byte	0xd0
 2603 0450 B3110000 		.4byte	.LLST41
 2604 0454 0D       		.uleb128 0xd
 2605 0455 AA000000 		.4byte	.LASF38
 2606 0459 01       		.byte	0x1
 2607 045a 7003     		.2byte	0x370
 2608 045c D0000000 		.4byte	0xd0
 2609 0460 E7110000 		.4byte	.LLST42
 2610 0464 0D       		.uleb128 0xd
 2611 0465 A6010000 		.4byte	.LASF39
 2612 0469 01       		.byte	0x1
 2613 046a 7003     		.2byte	0x370
 2614 046c D0000000 		.4byte	0xd0
 2615 0470 58120000 		.4byte	.LLST43
 2616 0474 0D       		.uleb128 0xd
 2617 0475 3C030000 		.4byte	.LASF40
 2618 0479 01       		.byte	0x1
 2619 047a 7003     		.2byte	0x370
 2620 047c D0000000 		.4byte	0xd0
 2621 0480 BC120000 		.4byte	.LLST44
 2622 0484 0D       		.uleb128 0xd
 2623 0485 AE010000 		.4byte	.LASF41
 2624 0489 01       		.byte	0x1
 2625 048a 7003     		.2byte	0x370
 2626 048c D0000000 		.4byte	0xd0
 2627 0490 2B130000 		.4byte	.LLST45
 2628 0494 0C       		.uleb128 0xc
 2629 0495 6D3000   		.ascii	"m0\000"
 2630 0498 01       		.byte	0x1
 2631 0499 7103     		.2byte	0x371
 2632 049b D0000000 		.4byte	0xd0
 2633 049f 9E130000 		.4byte	.LLST46
 2634 04a3 0C       		.uleb128 0xc
 2635 04a4 6D3100   		.ascii	"m1\000"
 2636 04a7 01       		.byte	0x1
 2637 04a8 7103     		.2byte	0x371
 2638 04aa D0000000 		.4byte	0xd0
 2639 04ae 5D140000 		.4byte	.LLST47
 2640 04b2 0C       		.uleb128 0xc
ARM GAS  C:\Users\IVYLIU~1\AppData\Local\Temp\ccWLNWQl.s 			page 72


 2641 04b3 6D3200   		.ascii	"m2\000"
 2642 04b6 01       		.byte	0x1
 2643 04b7 7103     		.2byte	0x371
 2644 04b9 D0000000 		.4byte	0xd0
 2645 04bd 1B150000 		.4byte	.LLST48
 2646 04c1 0C       		.uleb128 0xc
 2647 04c2 6D3300   		.ascii	"m3\000"
 2648 04c5 01       		.byte	0x1
 2649 04c6 7103     		.2byte	0x371
 2650 04c8 D0000000 		.4byte	0xd0
 2651 04cc D9150000 		.4byte	.LLST49
 2652 04d0 0C       		.uleb128 0xc
 2653 04d1 6C00     		.ascii	"l\000"
 2654 04d3 01       		.byte	0x1
 2655 04d4 7203     		.2byte	0x372
 2656 04d6 A9000000 		.4byte	0xa9
 2657 04da 97160000 		.4byte	.LLST50
 2658 04de 13       		.uleb128 0x13
 2659 04df 99030000 		.4byte	.LASF42
 2660 04e3 01       		.byte	0x1
 2661 04e4 7203     		.2byte	0x372
 2662 04e6 A9000000 		.4byte	0xa9
 2663 04ea 02       		.byte	0x2
 2664 04eb 13       		.uleb128 0x13
 2665 04ec 10020000 		.4byte	.LASF43
 2666 04f0 01       		.byte	0x1
 2667 04f1 7203     		.2byte	0x372
 2668 04f3 A9000000 		.4byte	0xa9
 2669 04f7 04       		.byte	0x4
 2670 04f8 13       		.uleb128 0x13
 2671 04f9 A0030000 		.4byte	.LASF44
 2672 04fd 01       		.byte	0x1
 2673 04fe 7203     		.2byte	0x372
 2674 0500 A9000000 		.4byte	0xa9
 2675 0504 06       		.byte	0x6
 2676 0505 0E       		.uleb128 0xe
 2677 0506 20070000 		.4byte	.LVL368
 2678 050a 2C070000 		.4byte	0x72c
 2679 050e 2E050000 		.4byte	0x52e
 2680 0512 0F       		.uleb128 0xf
 2681 0513 01       		.uleb128 0x1
 2682 0514 53       		.byte	0x53
 2683 0515 01       		.uleb128 0x1
 2684 0516 34       		.byte	0x34
 2685 0517 0F       		.uleb128 0xf
 2686 0518 01       		.uleb128 0x1
 2687 0519 52       		.byte	0x52
 2688 051a 04       		.uleb128 0x4
 2689 051b 91       		.byte	0x91
 2690 051c CC7E     		.sleb128 -180
 2691 051e 06       		.byte	0x6
 2692 051f 0F       		.uleb128 0xf
 2693 0520 01       		.uleb128 0x1
 2694 0521 51       		.byte	0x51
 2695 0522 02       		.uleb128 0x2
 2696 0523 74       		.byte	0x74
 2697 0524 00       		.sleb128 0
ARM GAS  C:\Users\IVYLIU~1\AppData\Local\Temp\ccWLNWQl.s 			page 73


 2698 0525 0F       		.uleb128 0xf
 2699 0526 01       		.uleb128 0x1
 2700 0527 50       		.byte	0x50
 2701 0528 04       		.uleb128 0x4
 2702 0529 91       		.byte	0x91
 2703 052a D87E     		.sleb128 -168
 2704 052c 06       		.byte	0x6
 2705 052d 00       		.byte	0
 2706 052e 0E       		.uleb128 0xe
 2707 052f 2E070000 		.4byte	.LVL369
 2708 0533 2C070000 		.4byte	0x72c
 2709 0537 4E050000 		.4byte	0x54e
 2710 053b 0F       		.uleb128 0xf
 2711 053c 01       		.uleb128 0x1
 2712 053d 53       		.byte	0x53
 2713 053e 01       		.uleb128 0x1
 2714 053f 34       		.byte	0x34
 2715 0540 0F       		.uleb128 0xf
 2716 0541 01       		.uleb128 0x1
 2717 0542 51       		.byte	0x51
 2718 0543 02       		.uleb128 0x2
 2719 0544 74       		.byte	0x74
 2720 0545 00       		.sleb128 0
 2721 0546 0F       		.uleb128 0xf
 2722 0547 01       		.uleb128 0x1
 2723 0548 50       		.byte	0x50
 2724 0549 03       		.uleb128 0x3
 2725 054a 7D       		.byte	0x7d
 2726 054b 00       		.sleb128 0
 2727 054c 06       		.byte	0x6
 2728 054d 00       		.byte	0
 2729 054e 0E       		.uleb128 0xe
 2730 054f 3C070000 		.4byte	.LVL370
 2731 0553 2C070000 		.4byte	0x72c
 2732 0557 6F050000 		.4byte	0x56f
 2733 055b 0F       		.uleb128 0xf
 2734 055c 01       		.uleb128 0x1
 2735 055d 53       		.byte	0x53
 2736 055e 01       		.uleb128 0x1
 2737 055f 34       		.byte	0x34
 2738 0560 0F       		.uleb128 0xf
 2739 0561 01       		.uleb128 0x1
 2740 0562 51       		.byte	0x51
 2741 0563 02       		.uleb128 0x2
 2742 0564 74       		.byte	0x74
 2743 0565 00       		.sleb128 0
 2744 0566 0F       		.uleb128 0xf
 2745 0567 01       		.uleb128 0x1
 2746 0568 50       		.byte	0x50
 2747 0569 04       		.uleb128 0x4
 2748 056a 91       		.byte	0x91
 2749 056b D47E     		.sleb128 -172
 2750 056d 06       		.byte	0x6
 2751 056e 00       		.byte	0
 2752 056f 10       		.uleb128 0x10
 2753 0570 50070000 		.4byte	.LVL373
 2754 0574 2C070000 		.4byte	0x72c
ARM GAS  C:\Users\IVYLIU~1\AppData\Local\Temp\ccWLNWQl.s 			page 74


 2755 0578 0F       		.uleb128 0xf
 2756 0579 01       		.uleb128 0x1
 2757 057a 53       		.byte	0x53
 2758 057b 01       		.uleb128 0x1
 2759 057c 34       		.byte	0x34
 2760 057d 0F       		.uleb128 0xf
 2761 057e 01       		.uleb128 0x1
 2762 057f 51       		.byte	0x51
 2763 0580 05       		.uleb128 0x5
 2764 0581 7D       		.byte	0x7d
 2765 0582 907F     		.sleb128 -112
 2766 0584 94       		.byte	0x94
 2767 0585 02       		.byte	0x2
 2768 0586 0F       		.uleb128 0xf
 2769 0587 01       		.uleb128 0x1
 2770 0588 50       		.byte	0x50
 2771 0589 04       		.uleb128 0x4
 2772 058a 7D       		.byte	0x7d
 2773 058b D07E     		.sleb128 -176
 2774 058d 06       		.byte	0x6
 2775 058e 00       		.byte	0
 2776 058f 00       		.byte	0
 2777 0590 0A       		.uleb128 0xa
 2778 0591 06030000 		.4byte	.LASF45
 2779 0595 01       		.byte	0x1
 2780 0596 6C04     		.2byte	0x46c
 2781 0598 00000000 		.4byte	.LFB86
 2782 059c DE000000 		.4byte	.LFE86-.LFB86
 2783 05a0 01       		.uleb128 0x1
 2784 05a1 9C       		.byte	0x9c
 2785 05a2 81060000 		.4byte	0x681
 2786 05a6 0B       		.uleb128 0xb
 2787 05a7 5300     		.ascii	"S\000"
 2788 05a9 01       		.byte	0x1
 2789 05aa 6D04     		.2byte	0x46d
 2790 05ac 81060000 		.4byte	0x681
 2791 05b0 FB160000 		.4byte	.LLST51
 2792 05b4 0B       		.uleb128 0xb
 2793 05b5 703100   		.ascii	"p1\000"
 2794 05b8 01       		.byte	0x1
 2795 05b9 6E04     		.2byte	0x46e
 2796 05bb D3020000 		.4byte	0x2d3
 2797 05bf 53170000 		.4byte	.LLST52
 2798 05c3 14       		.uleb128 0x14
 2799 05c4 AF030000 		.4byte	.LASF46
 2800 05c8 01       		.byte	0x1
 2801 05c9 6F04     		.2byte	0x46f
 2802 05cb 93000000 		.4byte	0x93
 2803 05cf 95170000 		.4byte	.LLST53
 2804 05d3 14       		.uleb128 0x14
 2805 05d4 DE010000 		.4byte	.LASF47
 2806 05d8 01       		.byte	0x1
 2807 05d9 7004     		.2byte	0x470
 2808 05db 93000000 		.4byte	0x93
 2809 05df CF170000 		.4byte	.LLST54
 2810 05e3 15       		.uleb128 0x15
 2811 05e4 4C00     		.ascii	"L\000"
ARM GAS  C:\Users\IVYLIU~1\AppData\Local\Temp\ccWLNWQl.s 			page 75


 2812 05e6 01       		.byte	0x1
 2813 05e7 7204     		.2byte	0x472
 2814 05e9 A9000000 		.4byte	0xa9
 2815 05ed 01       		.uleb128 0x1
 2816 05ee 54       		.byte	0x54
 2817 05ef 0C       		.uleb128 0xc
 2818 05f0 6C00     		.ascii	"l\000"
 2819 05f2 01       		.byte	0x1
 2820 05f3 7204     		.2byte	0x472
 2821 05f5 A9000000 		.4byte	0xa9
 2822 05f9 09180000 		.4byte	.LLST55
 2823 05fd 0D       		.uleb128 0xd
 2824 05fe E0020000 		.4byte	.LASF48
 2825 0602 01       		.byte	0x1
 2826 0603 7304     		.2byte	0x473
 2827 0605 D0000000 		.4byte	0xd0
 2828 0609 6F180000 		.4byte	.LLST56
 2829 060d 0D       		.uleb128 0xd
 2830 060e 65010000 		.4byte	.LASF49
 2831 0612 01       		.byte	0x1
 2832 0613 7304     		.2byte	0x473
 2833 0615 D3020000 		.4byte	0x2d3
 2834 0619 8D180000 		.4byte	.LLST57
 2835 061d 0E       		.uleb128 0xe
 2836 061e 6E000000 		.4byte	.LVL385
 2837 0622 47010000 		.4byte	0x147
 2838 0626 37060000 		.4byte	0x637
 2839 062a 0F       		.uleb128 0xf
 2840 062b 01       		.uleb128 0x1
 2841 062c 51       		.byte	0x51
 2842 062d 02       		.uleb128 0x2
 2843 062e 75       		.byte	0x75
 2844 062f 00       		.sleb128 0
 2845 0630 0F       		.uleb128 0xf
 2846 0631 01       		.uleb128 0x1
 2847 0632 50       		.byte	0x50
 2848 0633 02       		.uleb128 0x2
 2849 0634 76       		.byte	0x76
 2850 0635 00       		.sleb128 0
 2851 0636 00       		.byte	0
 2852 0637 0E       		.uleb128 0xe
 2853 0638 78000000 		.4byte	.LVL388
 2854 063c E9020000 		.4byte	0x2e9
 2855 0640 51060000 		.4byte	0x651
 2856 0644 0F       		.uleb128 0xf
 2857 0645 01       		.uleb128 0x1
 2858 0646 51       		.byte	0x51
 2859 0647 02       		.uleb128 0x2
 2860 0648 75       		.byte	0x75
 2861 0649 00       		.sleb128 0
 2862 064a 0F       		.uleb128 0xf
 2863 064b 01       		.uleb128 0x1
 2864 064c 50       		.byte	0x50
 2865 064d 02       		.uleb128 0x2
 2866 064e 76       		.byte	0x76
 2867 064f 00       		.sleb128 0
 2868 0650 00       		.byte	0
ARM GAS  C:\Users\IVYLIU~1\AppData\Local\Temp\ccWLNWQl.s 			page 76


 2869 0651 0E       		.uleb128 0xe
 2870 0652 86000000 		.4byte	.LVL391
 2871 0656 2C070000 		.4byte	0x72c
 2872 065a 70060000 		.4byte	0x670
 2873 065e 0F       		.uleb128 0xf
 2874 065f 01       		.uleb128 0x1
 2875 0660 53       		.byte	0x53
 2876 0661 01       		.uleb128 0x1
 2877 0662 31       		.byte	0x31
 2878 0663 0F       		.uleb128 0xf
 2879 0664 01       		.uleb128 0x1
 2880 0665 51       		.byte	0x51
 2881 0666 02       		.uleb128 0x2
 2882 0667 74       		.byte	0x74
 2883 0668 00       		.sleb128 0
 2884 0669 0F       		.uleb128 0xf
 2885 066a 01       		.uleb128 0x1
 2886 066b 50       		.byte	0x50
 2887 066c 02       		.uleb128 0x2
 2888 066d 75       		.byte	0x75
 2889 066e 00       		.sleb128 0
 2890 066f 00       		.byte	0
 2891 0670 16       		.uleb128 0x16
 2892 0671 96000000 		.4byte	.LVL392
 2893 0675 4D070000 		.4byte	0x74d
 2894 0679 0F       		.uleb128 0xf
 2895 067a 01       		.uleb128 0x1
 2896 067b 50       		.byte	0x50
 2897 067c 02       		.uleb128 0x2
 2898 067d 75       		.byte	0x75
 2899 067e 00       		.sleb128 0
 2900 067f 00       		.byte	0
 2901 0680 00       		.byte	0
 2902 0681 06       		.uleb128 0x6
 2903 0682 04       		.byte	0x4
 2904 0683 87060000 		.4byte	0x687
 2905 0687 07       		.uleb128 0x7
 2906 0688 30010000 		.4byte	0x130
 2907 068c 03       		.uleb128 0x3
 2908 068d 16000000 		.4byte	.LASF50
 2909 0691 06       		.byte	0x6
 2910 0692 8B       		.byte	0x8b
 2911 0693 FF060000 		.4byte	0x6ff
 2912 0697 06       		.uleb128 0x6
 2913 0698 04       		.byte	0x4
 2914 0699 A9000000 		.4byte	0xa9
 2915 069d 17       		.uleb128 0x17
 2916 069e 34010000 		.4byte	.LASF51
 2917 06a2 06       		.byte	0x6
 2918 06a3 92       		.byte	0x92
 2919 06a4 A8060000 		.4byte	0x6a8
 2920 06a8 07       		.uleb128 0x7
 2921 06a9 8C060000 		.4byte	0x68c
 2922 06ad 17       		.uleb128 0x17
 2923 06ae B8000000 		.4byte	.LASF52
 2924 06b2 06       		.byte	0x6
 2925 06b3 93       		.byte	0x93
ARM GAS  C:\Users\IVYLIU~1\AppData\Local\Temp\ccWLNWQl.s 			page 77


 2926 06b4 A8060000 		.4byte	0x6a8
 2927 06b8 03       		.uleb128 0x3
 2928 06b9 56010000 		.4byte	.LASF53
 2929 06bd 06       		.byte	0x6
 2930 06be 90       		.byte	0x90
 2931 06bf DE060000 		.4byte	0x6de
 2932 06c3 17       		.uleb128 0x17
 2933 06c4 2F000000 		.4byte	.LASF54
 2934 06c8 06       		.byte	0x6
 2935 06c9 94       		.byte	0x94
 2936 06ca CE060000 		.4byte	0x6ce
 2937 06ce 07       		.uleb128 0x7
 2938 06cf B8060000 		.4byte	0x6b8
 2939 06d3 17       		.uleb128 0x17
 2940 06d4 4E030000 		.4byte	.LASF55
 2941 06d8 06       		.byte	0x6
 2942 06d9 95       		.byte	0x95
 2943 06da CE060000 		.4byte	0x6ce
 2944 06de 18       		.uleb128 0x18
 2945 06df 08       		.byte	0x8
 2946 06e0 06       		.byte	0x6
 2947 06e1 8D       		.byte	0x8d
 2948 06e2 FF060000 		.4byte	0x6ff
 2949 06e6 19       		.uleb128 0x19
 2950 06e7 ED010000 		.4byte	.LASF56
 2951 06eb 06       		.byte	0x6
 2952 06ec 8E       		.byte	0x8e
 2953 06ed 97060000 		.4byte	0x697
 2954 06f1 00       		.byte	0
 2955 06f2 19       		.uleb128 0x19
 2956 06f3 D1020000 		.4byte	.LASF57
 2957 06f7 06       		.byte	0x6
 2958 06f8 8F       		.byte	0x8f
 2959 06f9 A9000000 		.4byte	0xa9
 2960 06fd 04       		.byte	0x4
 2961 06fe 00       		.byte	0
 2962 06ff 18       		.uleb128 0x18
 2963 0700 0C       		.byte	0xc
 2964 0701 06       		.byte	0x6
 2965 0702 87       		.byte	0x87
 2966 0703 2C070000 		.4byte	0x72c
 2967 0707 1A       		.uleb128 0x1a
 2968 0708 73726300 		.ascii	"src\000"
 2969 070c 06       		.byte	0x6
 2970 070d 88       		.byte	0x88
 2971 070e 3C010000 		.4byte	0x13c
 2972 0712 00       		.byte	0
 2973 0713 19       		.uleb128 0x19
 2974 0714 ED010000 		.4byte	.LASF56
 2975 0718 06       		.byte	0x6
 2976 0719 89       		.byte	0x89
 2977 071a 97060000 		.4byte	0x697
 2978 071e 04       		.byte	0x4
 2979 071f 19       		.uleb128 0x19
 2980 0720 D1020000 		.4byte	.LASF57
 2981 0724 06       		.byte	0x6
 2982 0725 8A       		.byte	0x8a
ARM GAS  C:\Users\IVYLIU~1\AppData\Local\Temp\ccWLNWQl.s 			page 78


 2983 0726 A9000000 		.4byte	0xa9
 2984 072a 08       		.byte	0x8
 2985 072b 00       		.byte	0
 2986 072c 1B       		.uleb128 0x1b
 2987 072d 23030000 		.4byte	.LASF61
 2988 0731 01       		.byte	0x1
 2989 0732 4B02     		.2byte	0x24b
 2990 0734 4D070000 		.4byte	0x74d
 2991 0738 1C       		.uleb128 0x1c
 2992 0739 D3020000 		.4byte	0x2d3
 2993 073d 1C       		.uleb128 0x1c
 2994 073e 9E000000 		.4byte	0x9e
 2995 0742 1C       		.uleb128 0x1c
 2996 0743 E7000000 		.4byte	0xe7
 2997 0747 1C       		.uleb128 0x1c
 2998 0748 9E000000 		.4byte	0x9e
 2999 074c 00       		.byte	0
 3000 074d 1D       		.uleb128 0x1d
 3001 074e B6010000 		.4byte	.LASF62
 3002 0752 01       		.byte	0x1
 3003 0753 5102     		.2byte	0x251
 3004 0755 1C       		.uleb128 0x1c
 3005 0756 97060000 		.4byte	0x697
 3006 075a 1C       		.uleb128 0x1c
 3007 075b E2000000 		.4byte	0xe2
 3008 075f 1C       		.uleb128 0x1c
 3009 0760 DC000000 		.4byte	0xdc
 3010 0764 00       		.byte	0
 3011 0765 00       		.byte	0
 3012              		.section	.debug_abbrev,"",%progbits
 3013              	.Ldebug_abbrev0:
 3014 0000 01       		.uleb128 0x1
 3015 0001 11       		.uleb128 0x11
 3016 0002 01       		.byte	0x1
 3017 0003 25       		.uleb128 0x25
 3018 0004 0E       		.uleb128 0xe
 3019 0005 13       		.uleb128 0x13
 3020 0006 0B       		.uleb128 0xb
 3021 0007 03       		.uleb128 0x3
 3022 0008 0E       		.uleb128 0xe
 3023 0009 1B       		.uleb128 0x1b
 3024 000a 0E       		.uleb128 0xe
 3025 000b 55       		.uleb128 0x55
 3026 000c 17       		.uleb128 0x17
 3027 000d 11       		.uleb128 0x11
 3028 000e 01       		.uleb128 0x1
 3029 000f 10       		.uleb128 0x10
 3030 0010 17       		.uleb128 0x17
 3031 0011 00       		.byte	0
 3032 0012 00       		.byte	0
 3033 0013 02       		.uleb128 0x2
 3034 0014 24       		.uleb128 0x24
 3035 0015 00       		.byte	0
 3036 0016 0B       		.uleb128 0xb
 3037 0017 0B       		.uleb128 0xb
 3038 0018 3E       		.uleb128 0x3e
 3039 0019 0B       		.uleb128 0xb
ARM GAS  C:\Users\IVYLIU~1\AppData\Local\Temp\ccWLNWQl.s 			page 79


 3040 001a 03       		.uleb128 0x3
 3041 001b 0E       		.uleb128 0xe
 3042 001c 00       		.byte	0
 3043 001d 00       		.byte	0
 3044 001e 03       		.uleb128 0x3
 3045 001f 16       		.uleb128 0x16
 3046 0020 00       		.byte	0
 3047 0021 03       		.uleb128 0x3
 3048 0022 0E       		.uleb128 0xe
 3049 0023 3A       		.uleb128 0x3a
 3050 0024 0B       		.uleb128 0xb
 3051 0025 3B       		.uleb128 0x3b
 3052 0026 0B       		.uleb128 0xb
 3053 0027 49       		.uleb128 0x49
 3054 0028 13       		.uleb128 0x13
 3055 0029 00       		.byte	0
 3056 002a 00       		.byte	0
 3057 002b 04       		.uleb128 0x4
 3058 002c 24       		.uleb128 0x24
 3059 002d 00       		.byte	0
 3060 002e 0B       		.uleb128 0xb
 3061 002f 0B       		.uleb128 0xb
 3062 0030 3E       		.uleb128 0x3e
 3063 0031 0B       		.uleb128 0xb
 3064 0032 03       		.uleb128 0x3
 3065 0033 08       		.uleb128 0x8
 3066 0034 00       		.byte	0
 3067 0035 00       		.byte	0
 3068 0036 05       		.uleb128 0x5
 3069 0037 16       		.uleb128 0x16
 3070 0038 00       		.byte	0
 3071 0039 03       		.uleb128 0x3
 3072 003a 0E       		.uleb128 0xe
 3073 003b 3A       		.uleb128 0x3a
 3074 003c 0B       		.uleb128 0xb
 3075 003d 3B       		.uleb128 0x3b
 3076 003e 05       		.uleb128 0x5
 3077 003f 49       		.uleb128 0x49
 3078 0040 13       		.uleb128 0x13
 3079 0041 00       		.byte	0
 3080 0042 00       		.byte	0
 3081 0043 06       		.uleb128 0x6
 3082 0044 0F       		.uleb128 0xf
 3083 0045 00       		.byte	0
 3084 0046 0B       		.uleb128 0xb
 3085 0047 0B       		.uleb128 0xb
 3086 0048 49       		.uleb128 0x49
 3087 0049 13       		.uleb128 0x13
 3088 004a 00       		.byte	0
 3089 004b 00       		.byte	0
 3090 004c 07       		.uleb128 0x7
 3091 004d 26       		.uleb128 0x26
 3092 004e 00       		.byte	0
 3093 004f 49       		.uleb128 0x49
 3094 0050 13       		.uleb128 0x13
 3095 0051 00       		.byte	0
 3096 0052 00       		.byte	0
ARM GAS  C:\Users\IVYLIU~1\AppData\Local\Temp\ccWLNWQl.s 			page 80


 3097 0053 08       		.uleb128 0x8
 3098 0054 13       		.uleb128 0x13
 3099 0055 01       		.byte	0x1
 3100 0056 0B       		.uleb128 0xb
 3101 0057 0B       		.uleb128 0xb
 3102 0058 3A       		.uleb128 0x3a
 3103 0059 0B       		.uleb128 0xb
 3104 005a 3B       		.uleb128 0x3b
 3105 005b 05       		.uleb128 0x5
 3106 005c 01       		.uleb128 0x1
 3107 005d 13       		.uleb128 0x13
 3108 005e 00       		.byte	0
 3109 005f 00       		.byte	0
 3110 0060 09       		.uleb128 0x9
 3111 0061 0D       		.uleb128 0xd
 3112 0062 00       		.byte	0
 3113 0063 03       		.uleb128 0x3
 3114 0064 0E       		.uleb128 0xe
 3115 0065 3A       		.uleb128 0x3a
 3116 0066 0B       		.uleb128 0xb
 3117 0067 3B       		.uleb128 0x3b
 3118 0068 05       		.uleb128 0x5
 3119 0069 49       		.uleb128 0x49
 3120 006a 13       		.uleb128 0x13
 3121 006b 38       		.uleb128 0x38
 3122 006c 0B       		.uleb128 0xb
 3123 006d 00       		.byte	0
 3124 006e 00       		.byte	0
 3125 006f 0A       		.uleb128 0xa
 3126 0070 2E       		.uleb128 0x2e
 3127 0071 01       		.byte	0x1
 3128 0072 3F       		.uleb128 0x3f
 3129 0073 19       		.uleb128 0x19
 3130 0074 03       		.uleb128 0x3
 3131 0075 0E       		.uleb128 0xe
 3132 0076 3A       		.uleb128 0x3a
 3133 0077 0B       		.uleb128 0xb
 3134 0078 3B       		.uleb128 0x3b
 3135 0079 05       		.uleb128 0x5
 3136 007a 27       		.uleb128 0x27
 3137 007b 19       		.uleb128 0x19
 3138 007c 11       		.uleb128 0x11
 3139 007d 01       		.uleb128 0x1
 3140 007e 12       		.uleb128 0x12
 3141 007f 06       		.uleb128 0x6
 3142 0080 40       		.uleb128 0x40
 3143 0081 18       		.uleb128 0x18
 3144 0082 9642     		.uleb128 0x2116
 3145 0084 19       		.uleb128 0x19
 3146 0085 01       		.uleb128 0x1
 3147 0086 13       		.uleb128 0x13
 3148 0087 00       		.byte	0
 3149 0088 00       		.byte	0
 3150 0089 0B       		.uleb128 0xb
 3151 008a 05       		.uleb128 0x5
 3152 008b 00       		.byte	0
 3153 008c 03       		.uleb128 0x3
ARM GAS  C:\Users\IVYLIU~1\AppData\Local\Temp\ccWLNWQl.s 			page 81


 3154 008d 08       		.uleb128 0x8
 3155 008e 3A       		.uleb128 0x3a
 3156 008f 0B       		.uleb128 0xb
 3157 0090 3B       		.uleb128 0x3b
 3158 0091 05       		.uleb128 0x5
 3159 0092 49       		.uleb128 0x49
 3160 0093 13       		.uleb128 0x13
 3161 0094 02       		.uleb128 0x2
 3162 0095 17       		.uleb128 0x17
 3163 0096 00       		.byte	0
 3164 0097 00       		.byte	0
 3165 0098 0C       		.uleb128 0xc
 3166 0099 34       		.uleb128 0x34
 3167 009a 00       		.byte	0
 3168 009b 03       		.uleb128 0x3
 3169 009c 08       		.uleb128 0x8
 3170 009d 3A       		.uleb128 0x3a
 3171 009e 0B       		.uleb128 0xb
 3172 009f 3B       		.uleb128 0x3b
 3173 00a0 05       		.uleb128 0x5
 3174 00a1 49       		.uleb128 0x49
 3175 00a2 13       		.uleb128 0x13
 3176 00a3 02       		.uleb128 0x2
 3177 00a4 17       		.uleb128 0x17
 3178 00a5 00       		.byte	0
 3179 00a6 00       		.byte	0
 3180 00a7 0D       		.uleb128 0xd
 3181 00a8 34       		.uleb128 0x34
 3182 00a9 00       		.byte	0
 3183 00aa 03       		.uleb128 0x3
 3184 00ab 0E       		.uleb128 0xe
 3185 00ac 3A       		.uleb128 0x3a
 3186 00ad 0B       		.uleb128 0xb
 3187 00ae 3B       		.uleb128 0x3b
 3188 00af 05       		.uleb128 0x5
 3189 00b0 49       		.uleb128 0x49
 3190 00b1 13       		.uleb128 0x13
 3191 00b2 02       		.uleb128 0x2
 3192 00b3 17       		.uleb128 0x17
 3193 00b4 00       		.byte	0
 3194 00b5 00       		.byte	0
 3195 00b6 0E       		.uleb128 0xe
 3196 00b7 898201   		.uleb128 0x4109
 3197 00ba 01       		.byte	0x1
 3198 00bb 11       		.uleb128 0x11
 3199 00bc 01       		.uleb128 0x1
 3200 00bd 31       		.uleb128 0x31
 3201 00be 13       		.uleb128 0x13
 3202 00bf 01       		.uleb128 0x1
 3203 00c0 13       		.uleb128 0x13
 3204 00c1 00       		.byte	0
 3205 00c2 00       		.byte	0
 3206 00c3 0F       		.uleb128 0xf
 3207 00c4 8A8201   		.uleb128 0x410a
 3208 00c7 00       		.byte	0
 3209 00c8 02       		.uleb128 0x2
 3210 00c9 18       		.uleb128 0x18
ARM GAS  C:\Users\IVYLIU~1\AppData\Local\Temp\ccWLNWQl.s 			page 82


 3211 00ca 9142     		.uleb128 0x2111
 3212 00cc 18       		.uleb128 0x18
 3213 00cd 00       		.byte	0
 3214 00ce 00       		.byte	0
 3215 00cf 10       		.uleb128 0x10
 3216 00d0 898201   		.uleb128 0x4109
 3217 00d3 01       		.byte	0x1
 3218 00d4 11       		.uleb128 0x11
 3219 00d5 01       		.uleb128 0x1
 3220 00d6 9542     		.uleb128 0x2115
 3221 00d8 19       		.uleb128 0x19
 3222 00d9 31       		.uleb128 0x31
 3223 00da 13       		.uleb128 0x13
 3224 00db 00       		.byte	0
 3225 00dc 00       		.byte	0
 3226 00dd 11       		.uleb128 0x11
 3227 00de 01       		.uleb128 0x1
 3228 00df 01       		.byte	0x1
 3229 00e0 49       		.uleb128 0x49
 3230 00e1 13       		.uleb128 0x13
 3231 00e2 01       		.uleb128 0x1
 3232 00e3 13       		.uleb128 0x13
 3233 00e4 00       		.byte	0
 3234 00e5 00       		.byte	0
 3235 00e6 12       		.uleb128 0x12
 3236 00e7 21       		.uleb128 0x21
 3237 00e8 00       		.byte	0
 3238 00e9 49       		.uleb128 0x49
 3239 00ea 13       		.uleb128 0x13
 3240 00eb 2F       		.uleb128 0x2f
 3241 00ec 0B       		.uleb128 0xb
 3242 00ed 00       		.byte	0
 3243 00ee 00       		.byte	0
 3244 00ef 13       		.uleb128 0x13
 3245 00f0 34       		.uleb128 0x34
 3246 00f1 00       		.byte	0
 3247 00f2 03       		.uleb128 0x3
 3248 00f3 0E       		.uleb128 0xe
 3249 00f4 3A       		.uleb128 0x3a
 3250 00f5 0B       		.uleb128 0xb
 3251 00f6 3B       		.uleb128 0x3b
 3252 00f7 05       		.uleb128 0x5
 3253 00f8 49       		.uleb128 0x49
 3254 00f9 13       		.uleb128 0x13
 3255 00fa 1C       		.uleb128 0x1c
 3256 00fb 0B       		.uleb128 0xb
 3257 00fc 00       		.byte	0
 3258 00fd 00       		.byte	0
 3259 00fe 14       		.uleb128 0x14
 3260 00ff 05       		.uleb128 0x5
 3261 0100 00       		.byte	0
 3262 0101 03       		.uleb128 0x3
 3263 0102 0E       		.uleb128 0xe
 3264 0103 3A       		.uleb128 0x3a
 3265 0104 0B       		.uleb128 0xb
 3266 0105 3B       		.uleb128 0x3b
 3267 0106 05       		.uleb128 0x5
ARM GAS  C:\Users\IVYLIU~1\AppData\Local\Temp\ccWLNWQl.s 			page 83


 3268 0107 49       		.uleb128 0x49
 3269 0108 13       		.uleb128 0x13
 3270 0109 02       		.uleb128 0x2
 3271 010a 17       		.uleb128 0x17
 3272 010b 00       		.byte	0
 3273 010c 00       		.byte	0
 3274 010d 15       		.uleb128 0x15
 3275 010e 34       		.uleb128 0x34
 3276 010f 00       		.byte	0
 3277 0110 03       		.uleb128 0x3
 3278 0111 08       		.uleb128 0x8
 3279 0112 3A       		.uleb128 0x3a
 3280 0113 0B       		.uleb128 0xb
 3281 0114 3B       		.uleb128 0x3b
 3282 0115 05       		.uleb128 0x5
 3283 0116 49       		.uleb128 0x49
 3284 0117 13       		.uleb128 0x13
 3285 0118 02       		.uleb128 0x2
 3286 0119 18       		.uleb128 0x18
 3287 011a 00       		.byte	0
 3288 011b 00       		.byte	0
 3289 011c 16       		.uleb128 0x16
 3290 011d 898201   		.uleb128 0x4109
 3291 0120 01       		.byte	0x1
 3292 0121 11       		.uleb128 0x11
 3293 0122 01       		.uleb128 0x1
 3294 0123 31       		.uleb128 0x31
 3295 0124 13       		.uleb128 0x13
 3296 0125 00       		.byte	0
 3297 0126 00       		.byte	0
 3298 0127 17       		.uleb128 0x17
 3299 0128 34       		.uleb128 0x34
 3300 0129 00       		.byte	0
 3301 012a 03       		.uleb128 0x3
 3302 012b 0E       		.uleb128 0xe
 3303 012c 3A       		.uleb128 0x3a
 3304 012d 0B       		.uleb128 0xb
 3305 012e 3B       		.uleb128 0x3b
 3306 012f 0B       		.uleb128 0xb
 3307 0130 49       		.uleb128 0x49
 3308 0131 13       		.uleb128 0x13
 3309 0132 3F       		.uleb128 0x3f
 3310 0133 19       		.uleb128 0x19
 3311 0134 3C       		.uleb128 0x3c
 3312 0135 19       		.uleb128 0x19
 3313 0136 00       		.byte	0
 3314 0137 00       		.byte	0
 3315 0138 18       		.uleb128 0x18
 3316 0139 13       		.uleb128 0x13
 3317 013a 01       		.byte	0x1
 3318 013b 0B       		.uleb128 0xb
 3319 013c 0B       		.uleb128 0xb
 3320 013d 3A       		.uleb128 0x3a
 3321 013e 0B       		.uleb128 0xb
 3322 013f 3B       		.uleb128 0x3b
 3323 0140 0B       		.uleb128 0xb
 3324 0141 01       		.uleb128 0x1
ARM GAS  C:\Users\IVYLIU~1\AppData\Local\Temp\ccWLNWQl.s 			page 84


 3325 0142 13       		.uleb128 0x13
 3326 0143 00       		.byte	0
 3327 0144 00       		.byte	0
 3328 0145 19       		.uleb128 0x19
 3329 0146 0D       		.uleb128 0xd
 3330 0147 00       		.byte	0
 3331 0148 03       		.uleb128 0x3
 3332 0149 0E       		.uleb128 0xe
 3333 014a 3A       		.uleb128 0x3a
 3334 014b 0B       		.uleb128 0xb
 3335 014c 3B       		.uleb128 0x3b
 3336 014d 0B       		.uleb128 0xb
 3337 014e 49       		.uleb128 0x49
 3338 014f 13       		.uleb128 0x13
 3339 0150 38       		.uleb128 0x38
 3340 0151 0B       		.uleb128 0xb
 3341 0152 00       		.byte	0
 3342 0153 00       		.byte	0
 3343 0154 1A       		.uleb128 0x1a
 3344 0155 0D       		.uleb128 0xd
 3345 0156 00       		.byte	0
 3346 0157 03       		.uleb128 0x3
 3347 0158 08       		.uleb128 0x8
 3348 0159 3A       		.uleb128 0x3a
 3349 015a 0B       		.uleb128 0xb
 3350 015b 3B       		.uleb128 0x3b
 3351 015c 0B       		.uleb128 0xb
 3352 015d 49       		.uleb128 0x49
 3353 015e 13       		.uleb128 0x13
 3354 015f 38       		.uleb128 0x38
 3355 0160 0B       		.uleb128 0xb
 3356 0161 00       		.byte	0
 3357 0162 00       		.byte	0
 3358 0163 1B       		.uleb128 0x1b
 3359 0164 2E       		.uleb128 0x2e
 3360 0165 01       		.byte	0x1
 3361 0166 3F       		.uleb128 0x3f
 3362 0167 19       		.uleb128 0x19
 3363 0168 03       		.uleb128 0x3
 3364 0169 0E       		.uleb128 0xe
 3365 016a 3A       		.uleb128 0x3a
 3366 016b 0B       		.uleb128 0xb
 3367 016c 3B       		.uleb128 0x3b
 3368 016d 05       		.uleb128 0x5
 3369 016e 27       		.uleb128 0x27
 3370 016f 19       		.uleb128 0x19
 3371 0170 3C       		.uleb128 0x3c
 3372 0171 19       		.uleb128 0x19
 3373 0172 01       		.uleb128 0x1
 3374 0173 13       		.uleb128 0x13
 3375 0174 00       		.byte	0
 3376 0175 00       		.byte	0
 3377 0176 1C       		.uleb128 0x1c
 3378 0177 05       		.uleb128 0x5
 3379 0178 00       		.byte	0
 3380 0179 49       		.uleb128 0x49
 3381 017a 13       		.uleb128 0x13
ARM GAS  C:\Users\IVYLIU~1\AppData\Local\Temp\ccWLNWQl.s 			page 85


 3382 017b 00       		.byte	0
 3383 017c 00       		.byte	0
 3384 017d 1D       		.uleb128 0x1d
 3385 017e 2E       		.uleb128 0x2e
 3386 017f 01       		.byte	0x1
 3387 0180 3F       		.uleb128 0x3f
 3388 0181 19       		.uleb128 0x19
 3389 0182 03       		.uleb128 0x3
 3390 0183 0E       		.uleb128 0xe
 3391 0184 3A       		.uleb128 0x3a
 3392 0185 0B       		.uleb128 0xb
 3393 0186 3B       		.uleb128 0x3b
 3394 0187 05       		.uleb128 0x5
 3395 0188 27       		.uleb128 0x27
 3396 0189 19       		.uleb128 0x19
 3397 018a 3C       		.uleb128 0x3c
 3398 018b 19       		.uleb128 0x19
 3399 018c 00       		.byte	0
 3400 018d 00       		.byte	0
 3401 018e 00       		.byte	0
 3402              		.section	.debug_loc,"",%progbits
 3403              	.Ldebug_loc0:
 3404              	.LLST0:
 3405 0000 00000000 		.4byte	.LVL0
 3406 0004 30000000 		.4byte	.LVL7
 3407 0008 0100     		.2byte	0x1
 3408 000a 50       		.byte	0x50
 3409 000b 30000000 		.4byte	.LVL7
 3410 000f 86020000 		.4byte	.LVL91
 3411 0013 0300     		.2byte	0x3
 3412 0015 91       		.byte	0x91
 3413 0016 947F     		.sleb128 -108
 3414 0018 86020000 		.4byte	.LVL91
 3415 001c 8A020000 		.4byte	.LFE84
 3416 0020 0300     		.2byte	0x3
 3417 0022 7D       		.byte	0x7d
 3418 0023 947F     		.sleb128 -108
 3419 0025 00000000 		.4byte	0
 3420 0029 00000000 		.4byte	0
 3421              	.LLST1:
 3422 002d 00000000 		.4byte	.LVL0
 3423 0031 12000000 		.4byte	.LVL3
 3424 0035 0100     		.2byte	0x1
 3425 0037 51       		.byte	0x51
 3426 0038 12000000 		.4byte	.LVL3
 3427 003c 30000000 		.4byte	.LVL7
 3428 0040 0100     		.2byte	0x1
 3429 0042 5C       		.byte	0x5c
 3430 0043 00000000 		.4byte	0
 3431 0047 00000000 		.4byte	0
 3432              	.LLST2:
 3433 004b 08000000 		.4byte	.LVL1
 3434 004f 1E000000 		.4byte	.LVL4
 3435 0053 0100     		.2byte	0x1
 3436 0055 52       		.byte	0x52
 3437 0056 1E000000 		.4byte	.LVL4
 3438 005a 86020000 		.4byte	.LVL91
ARM GAS  C:\Users\IVYLIU~1\AppData\Local\Temp\ccWLNWQl.s 			page 86


 3439 005e 0300     		.2byte	0x3
 3440 0060 91       		.byte	0x91
 3441 0061 987F     		.sleb128 -104
 3442 0063 86020000 		.4byte	.LVL91
 3443 0067 8A020000 		.4byte	.LFE84
 3444 006b 0300     		.2byte	0x3
 3445 006d 7D       		.byte	0x7d
 3446 006e 987F     		.sleb128 -104
 3447 0070 00000000 		.4byte	0
 3448 0074 00000000 		.4byte	0
 3449              	.LLST3:
 3450 0078 1E000000 		.4byte	.LVL4
 3451 007c AF000000 		.4byte	.LVL20-1
 3452 0080 0100     		.2byte	0x1
 3453 0082 5C       		.byte	0x5c
 3454 0083 AF000000 		.4byte	.LVL20-1
 3455 0087 66020000 		.4byte	.LVL88
 3456 008b 0200     		.2byte	0x2
 3457 008d 91       		.byte	0x91
 3458 008e 54       		.sleb128 -44
 3459 008f 66020000 		.4byte	.LVL88
 3460 0093 75020000 		.4byte	.LVL90-1
 3461 0097 0100     		.2byte	0x1
 3462 0099 5C       		.byte	0x5c
 3463 009a 75020000 		.4byte	.LVL90-1
 3464 009e 8A020000 		.4byte	.LFE84
 3465 00a2 0400     		.2byte	0x4
 3466 00a4 F3       		.byte	0xf3
 3467 00a5 01       		.uleb128 0x1
 3468 00a6 51       		.byte	0x51
 3469 00a7 9F       		.byte	0x9f
 3470 00a8 00000000 		.4byte	0
 3471 00ac 00000000 		.4byte	0
 3472              	.LLST4:
 3473 00b0 1E000000 		.4byte	.LVL4
 3474 00b4 30000000 		.4byte	.LVL7
 3475 00b8 0100     		.2byte	0x1
 3476 00ba 51       		.byte	0x51
 3477 00bb 30000000 		.4byte	.LVL7
 3478 00bf 86020000 		.4byte	.LVL91
 3479 00c3 0300     		.2byte	0x3
 3480 00c5 91       		.byte	0x91
 3481 00c6 907F     		.sleb128 -112
 3482 00c8 86020000 		.4byte	.LVL91
 3483 00cc 8A020000 		.4byte	.LFE84
 3484 00d0 0300     		.2byte	0x3
 3485 00d2 7D       		.byte	0x7d
 3486 00d3 907F     		.sleb128 -112
 3487 00d5 00000000 		.4byte	0
 3488 00d9 00000000 		.4byte	0
 3489              	.LLST5:
 3490 00dd 1E000000 		.4byte	.LVL4
 3491 00e1 28000000 		.4byte	.LVL5
 3492 00e5 0600     		.2byte	0x6
 3493 00e7 7C       		.byte	0x7c
 3494 00e8 00       		.sleb128 0
 3495 00e9 74       		.byte	0x74
ARM GAS  C:\Users\IVYLIU~1\AppData\Local\Temp\ccWLNWQl.s 			page 87


 3496 00ea 00       		.sleb128 0
 3497 00eb 22       		.byte	0x22
 3498 00ec 9F       		.byte	0x9f
 3499 00ed 28000000 		.4byte	.LVL5
 3500 00f1 30000000 		.4byte	.LVL7
 3501 00f5 0100     		.2byte	0x1
 3502 00f7 55       		.byte	0x55
 3503 00f8 00000000 		.4byte	0
 3504 00fc 00000000 		.4byte	0
 3505              	.LLST6:
 3506 0100 1E000000 		.4byte	.LVL4
 3507 0104 2C000000 		.4byte	.LVL6
 3508 0108 0600     		.2byte	0x6
 3509 010a 71       		.byte	0x71
 3510 010b 00       		.sleb128 0
 3511 010c 74       		.byte	0x74
 3512 010d 00       		.sleb128 0
 3513 010e 22       		.byte	0x22
 3514 010f 9F       		.byte	0x9f
 3515 0110 2C000000 		.4byte	.LVL6
 3516 0114 30000000 		.4byte	.LVL7
 3517 0118 0100     		.2byte	0x1
 3518 011a 54       		.byte	0x54
 3519 011b 00000000 		.4byte	0
 3520 011f 00000000 		.4byte	0
 3521              	.LLST7:
 3522 0123 10000000 		.4byte	.LVL2
 3523 0127 1E000000 		.4byte	.LVL4
 3524 012b 0100     		.2byte	0x1
 3525 012d 53       		.byte	0x53
 3526 012e 1E000000 		.4byte	.LVL4
 3527 0132 30000000 		.4byte	.LVL7
 3528 0136 0100     		.2byte	0x1
 3529 0138 51       		.byte	0x51
 3530 0139 00000000 		.4byte	0
 3531 013d 00000000 		.4byte	0
 3532              	.LLST8:
 3533 0141 1E000000 		.4byte	.LVL4
 3534 0145 30000000 		.4byte	.LVL7
 3535 0149 0100     		.2byte	0x1
 3536 014b 53       		.byte	0x53
 3537 014c 30000000 		.4byte	.LVL7
 3538 0150 5C010000 		.4byte	.LVL50
 3539 0154 0300     		.2byte	0x3
 3540 0156 91       		.byte	0x91
 3541 0157 8C7F     		.sleb128 -116
 3542 0159 5C010000 		.4byte	.LVL50
 3543 015d 5E010000 		.4byte	.LVL51
 3544 0161 0700     		.2byte	0x7
 3545 0163 91       		.byte	0x91
 3546 0164 8C7F     		.sleb128 -116
 3547 0166 06       		.byte	0x6
 3548 0167 23       		.byte	0x23
 3549 0168 04       		.uleb128 0x4
 3550 0169 9F       		.byte	0x9f
 3551 016a 5E010000 		.4byte	.LVL51
 3552 016e DC010000 		.4byte	.LVL70
ARM GAS  C:\Users\IVYLIU~1\AppData\Local\Temp\ccWLNWQl.s 			page 88


 3553 0172 0700     		.2byte	0x7
 3554 0174 91       		.byte	0x91
 3555 0175 8C7F     		.sleb128 -116
 3556 0177 06       		.byte	0x6
 3557 0178 23       		.byte	0x23
 3558 0179 08       		.uleb128 0x8
 3559 017a 9F       		.byte	0x9f
 3560 017b DC010000 		.4byte	.LVL70
 3561 017f EA010000 		.4byte	.LVL72
 3562 0183 0700     		.2byte	0x7
 3563 0185 91       		.byte	0x91
 3564 0186 8C7F     		.sleb128 -116
 3565 0188 06       		.byte	0x6
 3566 0189 23       		.byte	0x23
 3567 018a 0C       		.uleb128 0xc
 3568 018b 9F       		.byte	0x9f
 3569 018c EA010000 		.4byte	.LVL72
 3570 0190 ED010000 		.4byte	.LVL73-1
 3571 0194 0100     		.2byte	0x1
 3572 0196 53       		.byte	0x53
 3573 0197 ED010000 		.4byte	.LVL73-1
 3574 019b 66020000 		.4byte	.LVL88
 3575 019f 0300     		.2byte	0x3
 3576 01a1 91       		.byte	0x91
 3577 01a2 8C7F     		.sleb128 -116
 3578 01a4 66020000 		.4byte	.LVL88
 3579 01a8 70020000 		.4byte	.LVL89
 3580 01ac 0100     		.2byte	0x1
 3581 01ae 52       		.byte	0x52
 3582 01af 70020000 		.4byte	.LVL89
 3583 01b3 86020000 		.4byte	.LVL91
 3584 01b7 0300     		.2byte	0x3
 3585 01b9 91       		.byte	0x91
 3586 01ba 8C7F     		.sleb128 -116
 3587 01bc 86020000 		.4byte	.LVL91
 3588 01c0 8A020000 		.4byte	.LFE84
 3589 01c4 0300     		.2byte	0x3
 3590 01c6 7D       		.byte	0x7d
 3591 01c7 8C7F     		.sleb128 -116
 3592 01c9 00000000 		.4byte	0
 3593 01cd 00000000 		.4byte	0
 3594              	.LLST9:
 3595 01d1 56000000 		.4byte	.LVL8
 3596 01d5 5A000000 		.4byte	.LVL9
 3597 01d9 0500     		.2byte	0x5
 3598 01db 53       		.byte	0x53
 3599 01dc 93       		.byte	0x93
 3600 01dd 04       		.uleb128 0x4
 3601 01de 93       		.byte	0x93
 3602 01df 0C       		.uleb128 0xc
 3603 01e0 5A000000 		.4byte	.LVL9
 3604 01e4 5E000000 		.4byte	.LVL10
 3605 01e8 0600     		.2byte	0x6
 3606 01ea 7B       		.byte	0x7b
 3607 01eb 70       		.sleb128 -16
 3608 01ec 93       		.byte	0x93
 3609 01ed 04       		.uleb128 0x4
ARM GAS  C:\Users\IVYLIU~1\AppData\Local\Temp\ccWLNWQl.s 			page 89


 3610 01ee 93       		.byte	0x93
 3611 01ef 0C       		.uleb128 0xc
 3612 01f0 5E000000 		.4byte	.LVL10
 3613 01f4 62000000 		.4byte	.LVL11
 3614 01f8 0900     		.2byte	0x9
 3615 01fa 7B       		.byte	0x7b
 3616 01fb 70       		.sleb128 -16
 3617 01fc 93       		.byte	0x93
 3618 01fd 04       		.uleb128 0x4
 3619 01fe 53       		.byte	0x53
 3620 01ff 93       		.byte	0x93
 3621 0200 04       		.uleb128 0x4
 3622 0201 93       		.byte	0x93
 3623 0202 08       		.uleb128 0x8
 3624 0203 62000000 		.4byte	.LVL11
 3625 0207 66000000 		.4byte	.LVL12
 3626 020b 0A00     		.2byte	0xa
 3627 020d 7B       		.byte	0x7b
 3628 020e 70       		.sleb128 -16
 3629 020f 93       		.byte	0x93
 3630 0210 04       		.uleb128 0x4
 3631 0211 7B       		.byte	0x7b
 3632 0212 74       		.sleb128 -12
 3633 0213 93       		.byte	0x93
 3634 0214 04       		.uleb128 0x4
 3635 0215 93       		.byte	0x93
 3636 0216 08       		.uleb128 0x8
 3637 0217 66000000 		.4byte	.LVL12
 3638 021b 6A000000 		.4byte	.LVL13
 3639 021f 0D00     		.2byte	0xd
 3640 0221 7B       		.byte	0x7b
 3641 0222 70       		.sleb128 -16
 3642 0223 93       		.byte	0x93
 3643 0224 04       		.uleb128 0x4
 3644 0225 7B       		.byte	0x7b
 3645 0226 74       		.sleb128 -12
 3646 0227 93       		.byte	0x93
 3647 0228 04       		.uleb128 0x4
 3648 0229 53       		.byte	0x53
 3649 022a 93       		.byte	0x93
 3650 022b 04       		.uleb128 0x4
 3651 022c 93       		.byte	0x93
 3652 022d 04       		.uleb128 0x4
 3653 022e 6A000000 		.4byte	.LVL13
 3654 0232 9E000000 		.4byte	.LVL14
 3655 0236 0E00     		.2byte	0xe
 3656 0238 7B       		.byte	0x7b
 3657 0239 70       		.sleb128 -16
 3658 023a 93       		.byte	0x93
 3659 023b 04       		.uleb128 0x4
 3660 023c 7B       		.byte	0x7b
 3661 023d 74       		.sleb128 -12
 3662 023e 93       		.byte	0x93
 3663 023f 04       		.uleb128 0x4
 3664 0240 7B       		.byte	0x7b
 3665 0241 78       		.sleb128 -8
 3666 0242 93       		.byte	0x93
ARM GAS  C:\Users\IVYLIU~1\AppData\Local\Temp\ccWLNWQl.s 			page 90


 3667 0243 04       		.uleb128 0x4
 3668 0244 93       		.byte	0x93
 3669 0245 04       		.uleb128 0x4
 3670 0246 9E000000 		.4byte	.LVL14
 3671 024a AF000000 		.4byte	.LVL20-1
 3672 024e 0F00     		.2byte	0xf
 3673 0250 7B       		.byte	0x7b
 3674 0251 70       		.sleb128 -16
 3675 0252 93       		.byte	0x93
 3676 0253 04       		.uleb128 0x4
 3677 0254 7B       		.byte	0x7b
 3678 0255 74       		.sleb128 -12
 3679 0256 93       		.byte	0x93
 3680 0257 04       		.uleb128 0x4
 3681 0258 7B       		.byte	0x7b
 3682 0259 78       		.sleb128 -8
 3683 025a 93       		.byte	0x93
 3684 025b 04       		.uleb128 0x4
 3685 025c 57       		.byte	0x57
 3686 025d 93       		.byte	0x93
 3687 025e 04       		.uleb128 0x4
 3688 025f AF000000 		.4byte	.LVL20-1
 3689 0263 E6000000 		.4byte	.LVL25
 3690 0267 1200     		.2byte	0x12
 3691 0269 91       		.byte	0x91
 3692 026a 9C7F     		.sleb128 -100
 3693 026c 93       		.byte	0x93
 3694 026d 04       		.uleb128 0x4
 3695 026e 91       		.byte	0x91
 3696 026f A07F     		.sleb128 -96
 3697 0271 93       		.byte	0x93
 3698 0272 04       		.uleb128 0x4
 3699 0273 91       		.byte	0x91
 3700 0274 A47F     		.sleb128 -92
 3701 0276 93       		.byte	0x93
 3702 0277 04       		.uleb128 0x4
 3703 0278 57       		.byte	0x57
 3704 0279 93       		.byte	0x93
 3705 027a 04       		.uleb128 0x4
 3706 027b E6000000 		.4byte	.LVL25
 3707 027f FA000000 		.4byte	.LVL31
 3708 0283 0F00     		.2byte	0xf
 3709 0285 93       		.byte	0x93
 3710 0286 04       		.uleb128 0x4
 3711 0287 91       		.byte	0x91
 3712 0288 A07F     		.sleb128 -96
 3713 028a 93       		.byte	0x93
 3714 028b 04       		.uleb128 0x4
 3715 028c 91       		.byte	0x91
 3716 028d A47F     		.sleb128 -92
 3717 028f 93       		.byte	0x93
 3718 0290 04       		.uleb128 0x4
 3719 0291 57       		.byte	0x57
 3720 0292 93       		.byte	0x93
 3721 0293 04       		.uleb128 0x4
 3722 0294 FA000000 		.4byte	.LVL31
 3723 0298 02010000 		.4byte	.LVL34
ARM GAS  C:\Users\IVYLIU~1\AppData\Local\Temp\ccWLNWQl.s 			page 91


 3724 029c 0A00     		.2byte	0xa
 3725 029e 93       		.byte	0x93
 3726 029f 08       		.uleb128 0x8
 3727 02a0 91       		.byte	0x91
 3728 02a1 A47F     		.sleb128 -92
 3729 02a3 93       		.byte	0x93
 3730 02a4 04       		.uleb128 0x4
 3731 02a5 57       		.byte	0x57
 3732 02a6 93       		.byte	0x93
 3733 02a7 04       		.uleb128 0x4
 3734 02a8 02010000 		.4byte	.LVL34
 3735 02ac 64010000 		.4byte	.LVL53
 3736 02b0 0500     		.2byte	0x5
 3737 02b2 93       		.byte	0x93
 3738 02b3 0C       		.uleb128 0xc
 3739 02b4 57       		.byte	0x57
 3740 02b5 93       		.byte	0x93
 3741 02b6 04       		.uleb128 0x4
 3742 02b7 00000000 		.4byte	0
 3743 02bb 00000000 		.4byte	0
 3744              	.LLST10:
 3745 02bf 9E000000 		.4byte	.LVL14
 3746 02c3 AF000000 		.4byte	.LVL20-1
 3747 02c7 0C00     		.2byte	0xc
 3748 02c9 51       		.byte	0x51
 3749 02ca 93       		.byte	0x93
 3750 02cb 04       		.uleb128 0x4
 3751 02cc 5A       		.byte	0x5a
 3752 02cd 93       		.byte	0x93
 3753 02ce 04       		.uleb128 0x4
 3754 02cf 58       		.byte	0x58
 3755 02d0 93       		.byte	0x93
 3756 02d1 04       		.uleb128 0x4
 3757 02d2 56       		.byte	0x56
 3758 02d3 93       		.byte	0x93
 3759 02d4 04       		.uleb128 0x4
 3760 02d5 AF000000 		.4byte	.LVL20-1
 3761 02d9 E6000000 		.4byte	.LVL25
 3762 02dd 0B00     		.2byte	0xb
 3763 02df 93       		.byte	0x93
 3764 02e0 04       		.uleb128 0x4
 3765 02e1 5A       		.byte	0x5a
 3766 02e2 93       		.byte	0x93
 3767 02e3 04       		.uleb128 0x4
 3768 02e4 58       		.byte	0x58
 3769 02e5 93       		.byte	0x93
 3770 02e6 04       		.uleb128 0x4
 3771 02e7 56       		.byte	0x56
 3772 02e8 93       		.byte	0x93
 3773 02e9 04       		.uleb128 0x4
 3774 02ea E6000000 		.4byte	.LVL25
 3775 02ee E8000000 		.4byte	.LVL26
 3776 02f2 0C00     		.2byte	0xc
 3777 02f4 50       		.byte	0x50
 3778 02f5 93       		.byte	0x93
 3779 02f6 04       		.uleb128 0x4
 3780 02f7 5A       		.byte	0x5a
ARM GAS  C:\Users\IVYLIU~1\AppData\Local\Temp\ccWLNWQl.s 			page 92


 3781 02f8 93       		.byte	0x93
 3782 02f9 04       		.uleb128 0x4
 3783 02fa 58       		.byte	0x58
 3784 02fb 93       		.byte	0x93
 3785 02fc 04       		.uleb128 0x4
 3786 02fd 56       		.byte	0x56
 3787 02fe 93       		.byte	0x93
 3788 02ff 04       		.uleb128 0x4
 3789 0300 E8000000 		.4byte	.LVL26
 3790 0304 F0000000 		.4byte	.LVL28
 3791 0308 0E00     		.2byte	0xe
 3792 030a 91       		.byte	0x91
 3793 030b 9C7F     		.sleb128 -100
 3794 030d 93       		.byte	0x93
 3795 030e 04       		.uleb128 0x4
 3796 030f 5A       		.byte	0x5a
 3797 0310 93       		.byte	0x93
 3798 0311 04       		.uleb128 0x4
 3799 0312 58       		.byte	0x58
 3800 0313 93       		.byte	0x93
 3801 0314 04       		.uleb128 0x4
 3802 0315 56       		.byte	0x56
 3803 0316 93       		.byte	0x93
 3804 0317 04       		.uleb128 0x4
 3805 0318 F0000000 		.4byte	.LVL28
 3806 031c F2000000 		.4byte	.LVL29
 3807 0320 0E00     		.2byte	0xe
 3808 0322 91       		.byte	0x91
 3809 0323 9C7F     		.sleb128 -100
 3810 0325 93       		.byte	0x93
 3811 0326 04       		.uleb128 0x4
 3812 0327 50       		.byte	0x50
 3813 0328 93       		.byte	0x93
 3814 0329 04       		.uleb128 0x4
 3815 032a 58       		.byte	0x58
 3816 032b 93       		.byte	0x93
 3817 032c 04       		.uleb128 0x4
 3818 032d 56       		.byte	0x56
 3819 032e 93       		.byte	0x93
 3820 032f 04       		.uleb128 0x4
 3821 0330 F2000000 		.4byte	.LVL29
 3822 0334 FA000000 		.4byte	.LVL31
 3823 0338 0E00     		.2byte	0xe
 3824 033a 91       		.byte	0x91
 3825 033b 9C7F     		.sleb128 -100
 3826 033d 93       		.byte	0x93
 3827 033e 04       		.uleb128 0x4
 3828 033f 5A       		.byte	0x5a
 3829 0340 93       		.byte	0x93
 3830 0341 04       		.uleb128 0x4
 3831 0342 58       		.byte	0x58
 3832 0343 93       		.byte	0x93
 3833 0344 04       		.uleb128 0x4
 3834 0345 56       		.byte	0x56
 3835 0346 93       		.byte	0x93
 3836 0347 04       		.uleb128 0x4
 3837 0348 FA000000 		.4byte	.LVL31
ARM GAS  C:\Users\IVYLIU~1\AppData\Local\Temp\ccWLNWQl.s 			page 93


 3838 034c FC000000 		.4byte	.LVL32
 3839 0350 0E00     		.2byte	0xe
 3840 0352 91       		.byte	0x91
 3841 0353 9C7F     		.sleb128 -100
 3842 0355 93       		.byte	0x93
 3843 0356 04       		.uleb128 0x4
 3844 0357 5A       		.byte	0x5a
 3845 0358 93       		.byte	0x93
 3846 0359 04       		.uleb128 0x4
 3847 035a 50       		.byte	0x50
 3848 035b 93       		.byte	0x93
 3849 035c 04       		.uleb128 0x4
 3850 035d 56       		.byte	0x56
 3851 035e 93       		.byte	0x93
 3852 035f 04       		.uleb128 0x4
 3853 0360 FC000000 		.4byte	.LVL32
 3854 0364 02010000 		.4byte	.LVL34
 3855 0368 1000     		.2byte	0x10
 3856 036a 91       		.byte	0x91
 3857 036b 9C7F     		.sleb128 -100
 3858 036d 93       		.byte	0x93
 3859 036e 04       		.uleb128 0x4
 3860 036f 5A       		.byte	0x5a
 3861 0370 93       		.byte	0x93
 3862 0371 04       		.uleb128 0x4
 3863 0372 91       		.byte	0x91
 3864 0373 A07F     		.sleb128 -96
 3865 0375 93       		.byte	0x93
 3866 0376 04       		.uleb128 0x4
 3867 0377 56       		.byte	0x56
 3868 0378 93       		.byte	0x93
 3869 0379 04       		.uleb128 0x4
 3870 037a 02010000 		.4byte	.LVL34
 3871 037e 04010000 		.4byte	.LVL35
 3872 0382 1000     		.2byte	0x10
 3873 0384 91       		.byte	0x91
 3874 0385 9C7F     		.sleb128 -100
 3875 0387 93       		.byte	0x93
 3876 0388 04       		.uleb128 0x4
 3877 0389 5A       		.byte	0x5a
 3878 038a 93       		.byte	0x93
 3879 038b 04       		.uleb128 0x4
 3880 038c 91       		.byte	0x91
 3881 038d A07F     		.sleb128 -96
 3882 038f 93       		.byte	0x93
 3883 0390 04       		.uleb128 0x4
 3884 0391 50       		.byte	0x50
 3885 0392 93       		.byte	0x93
 3886 0393 04       		.uleb128 0x4
 3887 0394 04010000 		.4byte	.LVL35
 3888 0398 8C010000 		.4byte	.LVL59
 3889 039c 1200     		.2byte	0x12
 3890 039e 91       		.byte	0x91
 3891 039f 9C7F     		.sleb128 -100
 3892 03a1 93       		.byte	0x93
 3893 03a2 04       		.uleb128 0x4
 3894 03a3 5A       		.byte	0x5a
ARM GAS  C:\Users\IVYLIU~1\AppData\Local\Temp\ccWLNWQl.s 			page 94


 3895 03a4 93       		.byte	0x93
 3896 03a5 04       		.uleb128 0x4
 3897 03a6 91       		.byte	0x91
 3898 03a7 A07F     		.sleb128 -96
 3899 03a9 93       		.byte	0x93
 3900 03aa 04       		.uleb128 0x4
 3901 03ab 91       		.byte	0x91
 3902 03ac A47F     		.sleb128 -92
 3903 03ae 93       		.byte	0x93
 3904 03af 04       		.uleb128 0x4
 3905 03b0 8C010000 		.4byte	.LVL59
 3906 03b4 66020000 		.4byte	.LVL88
 3907 03b8 1100     		.2byte	0x11
 3908 03ba 91       		.byte	0x91
 3909 03bb 9C7F     		.sleb128 -100
 3910 03bd 93       		.byte	0x93
 3911 03be 04       		.uleb128 0x4
 3912 03bf 93       		.byte	0x93
 3913 03c0 04       		.uleb128 0x4
 3914 03c1 91       		.byte	0x91
 3915 03c2 A07F     		.sleb128 -96
 3916 03c4 93       		.byte	0x93
 3917 03c5 04       		.uleb128 0x4
 3918 03c6 91       		.byte	0x91
 3919 03c7 A47F     		.sleb128 -92
 3920 03c9 93       		.byte	0x93
 3921 03ca 04       		.uleb128 0x4
 3922 03cb 00000000 		.4byte	0
 3923 03cf 00000000 		.4byte	0
 3924              	.LLST11:
 3925 03d3 9E000000 		.4byte	.LVL14
 3926 03d7 AF000000 		.4byte	.LVL20-1
 3927 03db 1000     		.2byte	0x10
 3928 03dd 75       		.byte	0x75
 3929 03de 70       		.sleb128 -16
 3930 03df 93       		.byte	0x93
 3931 03e0 04       		.uleb128 0x4
 3932 03e1 75       		.byte	0x75
 3933 03e2 74       		.sleb128 -12
 3934 03e3 93       		.byte	0x93
 3935 03e4 04       		.uleb128 0x4
 3936 03e5 75       		.byte	0x75
 3937 03e6 78       		.sleb128 -8
 3938 03e7 93       		.byte	0x93
 3939 03e8 04       		.uleb128 0x4
 3940 03e9 75       		.byte	0x75
 3941 03ea 7C       		.sleb128 -4
 3942 03eb 93       		.byte	0x93
 3943 03ec 04       		.uleb128 0x4
 3944 03ed AF000000 		.4byte	.LVL20-1
 3945 03f1 48010000 		.4byte	.LVL44
 3946 03f5 1400     		.2byte	0x14
 3947 03f7 91       		.byte	0x91
 3948 03f8 A87F     		.sleb128 -88
 3949 03fa 93       		.byte	0x93
 3950 03fb 04       		.uleb128 0x4
 3951 03fc 91       		.byte	0x91
ARM GAS  C:\Users\IVYLIU~1\AppData\Local\Temp\ccWLNWQl.s 			page 95


 3952 03fd AC7F     		.sleb128 -84
 3953 03ff 93       		.byte	0x93
 3954 0400 04       		.uleb128 0x4
 3955 0401 91       		.byte	0x91
 3956 0402 B07F     		.sleb128 -80
 3957 0404 93       		.byte	0x93
 3958 0405 04       		.uleb128 0x4
 3959 0406 91       		.byte	0x91
 3960 0407 B47F     		.sleb128 -76
 3961 0409 93       		.byte	0x93
 3962 040a 04       		.uleb128 0x4
 3963 040b 48010000 		.4byte	.LVL44
 3964 040f 52010000 		.4byte	.LVL47
 3965 0413 1100     		.2byte	0x11
 3966 0415 93       		.byte	0x93
 3967 0416 04       		.uleb128 0x4
 3968 0417 91       		.byte	0x91
 3969 0418 AC7F     		.sleb128 -84
 3970 041a 93       		.byte	0x93
 3971 041b 04       		.uleb128 0x4
 3972 041c 91       		.byte	0x91
 3973 041d B07F     		.sleb128 -80
 3974 041f 93       		.byte	0x93
 3975 0420 04       		.uleb128 0x4
 3976 0421 91       		.byte	0x91
 3977 0422 B47F     		.sleb128 -76
 3978 0424 93       		.byte	0x93
 3979 0425 04       		.uleb128 0x4
 3980 0426 52010000 		.4byte	.LVL47
 3981 042a 5C010000 		.4byte	.LVL50
 3982 042e 0C00     		.2byte	0xc
 3983 0430 93       		.byte	0x93
 3984 0431 08       		.uleb128 0x8
 3985 0432 91       		.byte	0x91
 3986 0433 B07F     		.sleb128 -80
 3987 0435 93       		.byte	0x93
 3988 0436 04       		.uleb128 0x4
 3989 0437 91       		.byte	0x91
 3990 0438 B47F     		.sleb128 -76
 3991 043a 93       		.byte	0x93
 3992 043b 04       		.uleb128 0x4
 3993 043c 5C010000 		.4byte	.LVL50
 3994 0440 6C010000 		.4byte	.LVL55
 3995 0444 0700     		.2byte	0x7
 3996 0446 93       		.byte	0x93
 3997 0447 0C       		.uleb128 0xc
 3998 0448 91       		.byte	0x91
 3999 0449 B47F     		.sleb128 -76
 4000 044b 93       		.byte	0x93
 4001 044c 04       		.uleb128 0x4
 4002 044d 00000000 		.4byte	0
 4003 0451 00000000 		.4byte	0
 4004              	.LLST12:
 4005 0455 9E000000 		.4byte	.LVL14
 4006 0459 A0000000 		.4byte	.LVL15
 4007 045d 0600     		.2byte	0x6
 4008 045f 74       		.byte	0x74
ARM GAS  C:\Users\IVYLIU~1\AppData\Local\Temp\ccWLNWQl.s 			page 96


 4009 0460 70       		.sleb128 -16
 4010 0461 93       		.byte	0x93
 4011 0462 04       		.uleb128 0x4
 4012 0463 93       		.byte	0x93
 4013 0464 0C       		.uleb128 0xc
 4014 0465 A0000000 		.4byte	.LVL15
 4015 0469 A4000000 		.4byte	.LVL16
 4016 046d 0900     		.2byte	0x9
 4017 046f 74       		.byte	0x74
 4018 0470 70       		.sleb128 -16
 4019 0471 93       		.byte	0x93
 4020 0472 04       		.uleb128 0x4
 4021 0473 53       		.byte	0x53
 4022 0474 93       		.byte	0x93
 4023 0475 04       		.uleb128 0x4
 4024 0476 93       		.byte	0x93
 4025 0477 08       		.uleb128 0x8
 4026 0478 A4000000 		.4byte	.LVL16
 4027 047c A6000000 		.4byte	.LVL17
 4028 0480 0A00     		.2byte	0xa
 4029 0482 74       		.byte	0x74
 4030 0483 70       		.sleb128 -16
 4031 0484 93       		.byte	0x93
 4032 0485 04       		.uleb128 0x4
 4033 0486 74       		.byte	0x74
 4034 0487 74       		.sleb128 -12
 4035 0488 93       		.byte	0x93
 4036 0489 04       		.uleb128 0x4
 4037 048a 93       		.byte	0x93
 4038 048b 08       		.uleb128 0x8
 4039 048c A6000000 		.4byte	.LVL17
 4040 0490 AA000000 		.4byte	.LVL18
 4041 0494 0D00     		.2byte	0xd
 4042 0496 74       		.byte	0x74
 4043 0497 70       		.sleb128 -16
 4044 0498 93       		.byte	0x93
 4045 0499 04       		.uleb128 0x4
 4046 049a 74       		.byte	0x74
 4047 049b 74       		.sleb128 -12
 4048 049c 93       		.byte	0x93
 4049 049d 04       		.uleb128 0x4
 4050 049e 53       		.byte	0x53
 4051 049f 93       		.byte	0x93
 4052 04a0 04       		.uleb128 0x4
 4053 04a1 93       		.byte	0x93
 4054 04a2 04       		.uleb128 0x4
 4055 04a3 AA000000 		.4byte	.LVL18
 4056 04a7 AC000000 		.4byte	.LVL19
 4057 04ab 0E00     		.2byte	0xe
 4058 04ad 74       		.byte	0x74
 4059 04ae 70       		.sleb128 -16
 4060 04af 93       		.byte	0x93
 4061 04b0 04       		.uleb128 0x4
 4062 04b1 74       		.byte	0x74
 4063 04b2 74       		.sleb128 -12
 4064 04b3 93       		.byte	0x93
 4065 04b4 04       		.uleb128 0x4
ARM GAS  C:\Users\IVYLIU~1\AppData\Local\Temp\ccWLNWQl.s 			page 97


 4066 04b5 74       		.byte	0x74
 4067 04b6 78       		.sleb128 -8
 4068 04b7 93       		.byte	0x93
 4069 04b8 04       		.uleb128 0x4
 4070 04b9 93       		.byte	0x93
 4071 04ba 04       		.uleb128 0x4
 4072 04bb AC000000 		.4byte	.LVL19
 4073 04bf AF000000 		.4byte	.LVL20-1
 4074 04c3 0F00     		.2byte	0xf
 4075 04c5 74       		.byte	0x74
 4076 04c6 70       		.sleb128 -16
 4077 04c7 93       		.byte	0x93
 4078 04c8 04       		.uleb128 0x4
 4079 04c9 74       		.byte	0x74
 4080 04ca 74       		.sleb128 -12
 4081 04cb 93       		.byte	0x93
 4082 04cc 04       		.uleb128 0x4
 4083 04cd 74       		.byte	0x74
 4084 04ce 78       		.sleb128 -8
 4085 04cf 93       		.byte	0x93
 4086 04d0 04       		.uleb128 0x4
 4087 04d1 53       		.byte	0x53
 4088 04d2 93       		.byte	0x93
 4089 04d3 04       		.uleb128 0x4
 4090 04d4 AF000000 		.4byte	.LVL20-1
 4091 04d8 3E010000 		.4byte	.LVL41
 4092 04dc 1200     		.2byte	0x12
 4093 04de 91       		.byte	0x91
 4094 04df B87F     		.sleb128 -72
 4095 04e1 93       		.byte	0x93
 4096 04e2 04       		.uleb128 0x4
 4097 04e3 91       		.byte	0x91
 4098 04e4 BC7F     		.sleb128 -68
 4099 04e6 93       		.byte	0x93
 4100 04e7 04       		.uleb128 0x4
 4101 04e8 91       		.byte	0x91
 4102 04e9 40       		.sleb128 -64
 4103 04ea 93       		.byte	0x93
 4104 04eb 04       		.uleb128 0x4
 4105 04ec 91       		.byte	0x91
 4106 04ed 44       		.sleb128 -60
 4107 04ee 93       		.byte	0x93
 4108 04ef 04       		.uleb128 0x4
 4109 04f0 3E010000 		.4byte	.LVL41
 4110 04f4 40010000 		.4byte	.LVL42
 4111 04f8 1000     		.2byte	0x10
 4112 04fa 50       		.byte	0x50
 4113 04fb 93       		.byte	0x93
 4114 04fc 04       		.uleb128 0x4
 4115 04fd 91       		.byte	0x91
 4116 04fe BC7F     		.sleb128 -68
 4117 0500 93       		.byte	0x93
 4118 0501 04       		.uleb128 0x4
 4119 0502 91       		.byte	0x91
 4120 0503 40       		.sleb128 -64
 4121 0504 93       		.byte	0x93
 4122 0505 04       		.uleb128 0x4
ARM GAS  C:\Users\IVYLIU~1\AppData\Local\Temp\ccWLNWQl.s 			page 98


 4123 0506 91       		.byte	0x91
 4124 0507 44       		.sleb128 -60
 4125 0508 93       		.byte	0x93
 4126 0509 04       		.uleb128 0x4
 4127 050a 40010000 		.4byte	.LVL42
 4128 050e 48010000 		.4byte	.LVL44
 4129 0512 1000     		.2byte	0x10
 4130 0514 58       		.byte	0x58
 4131 0515 93       		.byte	0x93
 4132 0516 04       		.uleb128 0x4
 4133 0517 91       		.byte	0x91
 4134 0518 BC7F     		.sleb128 -68
 4135 051a 93       		.byte	0x93
 4136 051b 04       		.uleb128 0x4
 4137 051c 91       		.byte	0x91
 4138 051d 40       		.sleb128 -64
 4139 051e 93       		.byte	0x93
 4140 051f 04       		.uleb128 0x4
 4141 0520 91       		.byte	0x91
 4142 0521 44       		.sleb128 -60
 4143 0522 93       		.byte	0x93
 4144 0523 04       		.uleb128 0x4
 4145 0524 48010000 		.4byte	.LVL44
 4146 0528 4A010000 		.4byte	.LVL45
 4147 052c 0E00     		.2byte	0xe
 4148 052e 58       		.byte	0x58
 4149 052f 93       		.byte	0x93
 4150 0530 04       		.uleb128 0x4
 4151 0531 50       		.byte	0x50
 4152 0532 93       		.byte	0x93
 4153 0533 04       		.uleb128 0x4
 4154 0534 91       		.byte	0x91
 4155 0535 40       		.sleb128 -64
 4156 0536 93       		.byte	0x93
 4157 0537 04       		.uleb128 0x4
 4158 0538 91       		.byte	0x91
 4159 0539 44       		.sleb128 -60
 4160 053a 93       		.byte	0x93
 4161 053b 04       		.uleb128 0x4
 4162 053c 4A010000 		.4byte	.LVL45
 4163 0540 52010000 		.4byte	.LVL47
 4164 0544 1000     		.2byte	0x10
 4165 0546 58       		.byte	0x58
 4166 0547 93       		.byte	0x93
 4167 0548 04       		.uleb128 0x4
 4168 0549 91       		.byte	0x91
 4169 054a A87F     		.sleb128 -88
 4170 054c 93       		.byte	0x93
 4171 054d 04       		.uleb128 0x4
 4172 054e 91       		.byte	0x91
 4173 054f 40       		.sleb128 -64
 4174 0550 93       		.byte	0x93
 4175 0551 04       		.uleb128 0x4
 4176 0552 91       		.byte	0x91
 4177 0553 44       		.sleb128 -60
 4178 0554 93       		.byte	0x93
 4179 0555 04       		.uleb128 0x4
ARM GAS  C:\Users\IVYLIU~1\AppData\Local\Temp\ccWLNWQl.s 			page 99


 4180 0556 52010000 		.4byte	.LVL47
 4181 055a 54010000 		.4byte	.LVL48
 4182 055e 0F00     		.2byte	0xf
 4183 0560 58       		.byte	0x58
 4184 0561 93       		.byte	0x93
 4185 0562 04       		.uleb128 0x4
 4186 0563 91       		.byte	0x91
 4187 0564 A87F     		.sleb128 -88
 4188 0566 93       		.byte	0x93
 4189 0567 04       		.uleb128 0x4
 4190 0568 50       		.byte	0x50
 4191 0569 93       		.byte	0x93
 4192 056a 04       		.uleb128 0x4
 4193 056b 91       		.byte	0x91
 4194 056c 44       		.sleb128 -60
 4195 056d 93       		.byte	0x93
 4196 056e 04       		.uleb128 0x4
 4197 056f 54010000 		.4byte	.LVL48
 4198 0573 5C010000 		.4byte	.LVL50
 4199 0577 1100     		.2byte	0x11
 4200 0579 58       		.byte	0x58
 4201 057a 93       		.byte	0x93
 4202 057b 04       		.uleb128 0x4
 4203 057c 91       		.byte	0x91
 4204 057d A87F     		.sleb128 -88
 4205 057f 93       		.byte	0x93
 4206 0580 04       		.uleb128 0x4
 4207 0581 91       		.byte	0x91
 4208 0582 AC7F     		.sleb128 -84
 4209 0584 93       		.byte	0x93
 4210 0585 04       		.uleb128 0x4
 4211 0586 91       		.byte	0x91
 4212 0587 44       		.sleb128 -60
 4213 0588 93       		.byte	0x93
 4214 0589 04       		.uleb128 0x4
 4215 058a 5C010000 		.4byte	.LVL50
 4216 058e 60010000 		.4byte	.LVL52
 4217 0592 1000     		.2byte	0x10
 4218 0594 58       		.byte	0x58
 4219 0595 93       		.byte	0x93
 4220 0596 04       		.uleb128 0x4
 4221 0597 91       		.byte	0x91
 4222 0598 A87F     		.sleb128 -88
 4223 059a 93       		.byte	0x93
 4224 059b 04       		.uleb128 0x4
 4225 059c 91       		.byte	0x91
 4226 059d AC7F     		.sleb128 -84
 4227 059f 93       		.byte	0x93
 4228 05a0 04       		.uleb128 0x4
 4229 05a1 50       		.byte	0x50
 4230 05a2 93       		.byte	0x93
 4231 05a3 04       		.uleb128 0x4
 4232 05a4 60010000 		.4byte	.LVL52
 4233 05a8 F2010000 		.4byte	.LVL74
 4234 05ac 1200     		.2byte	0x12
 4235 05ae 58       		.byte	0x58
 4236 05af 93       		.byte	0x93
ARM GAS  C:\Users\IVYLIU~1\AppData\Local\Temp\ccWLNWQl.s 			page 100


 4237 05b0 04       		.uleb128 0x4
 4238 05b1 91       		.byte	0x91
 4239 05b2 A87F     		.sleb128 -88
 4240 05b4 93       		.byte	0x93
 4241 05b5 04       		.uleb128 0x4
 4242 05b6 91       		.byte	0x91
 4243 05b7 AC7F     		.sleb128 -84
 4244 05b9 93       		.byte	0x93
 4245 05ba 04       		.uleb128 0x4
 4246 05bb 91       		.byte	0x91
 4247 05bc B07F     		.sleb128 -80
 4248 05be 93       		.byte	0x93
 4249 05bf 04       		.uleb128 0x4
 4250 05c0 F2010000 		.4byte	.LVL74
 4251 05c4 66020000 		.4byte	.LVL88
 4252 05c8 1100     		.2byte	0x11
 4253 05ca 93       		.byte	0x93
 4254 05cb 04       		.uleb128 0x4
 4255 05cc 91       		.byte	0x91
 4256 05cd A87F     		.sleb128 -88
 4257 05cf 93       		.byte	0x93
 4258 05d0 04       		.uleb128 0x4
 4259 05d1 91       		.byte	0x91
 4260 05d2 AC7F     		.sleb128 -84
 4261 05d4 93       		.byte	0x93
 4262 05d5 04       		.uleb128 0x4
 4263 05d6 91       		.byte	0x91
 4264 05d7 B07F     		.sleb128 -80
 4265 05d9 93       		.byte	0x93
 4266 05da 04       		.uleb128 0x4
 4267 05db 00000000 		.4byte	0
 4268 05df 00000000 		.4byte	0
 4269              	.LLST13:
 4270 05e3 5E010000 		.4byte	.LVL51
 4271 05e7 66020000 		.4byte	.LVL88
 4272 05eb 0100     		.2byte	0x1
 4273 05ed 56       		.byte	0x56
 4274 05ee 00000000 		.4byte	0
 4275 05f2 00000000 		.4byte	0
 4276              	.LLST14:
 4277 05f6 64010000 		.4byte	.LVL53
 4278 05fa C8010000 		.4byte	.LVL67
 4279 05fe 0100     		.2byte	0x1
 4280 0600 57       		.byte	0x57
 4281 0601 EA010000 		.4byte	.LVL72
 4282 0605 4C020000 		.4byte	.LVL85
 4283 0609 0100     		.2byte	0x1
 4284 060b 57       		.byte	0x57
 4285 060c 00000000 		.4byte	0
 4286 0610 00000000 		.4byte	0
 4287              	.LLST15:
 4288 0614 64010000 		.4byte	.LVL53
 4289 0618 A0010000 		.4byte	.LVL62
 4290 061c 0B00     		.2byte	0xb
 4291 061e 91       		.byte	0x91
 4292 061f 9C7F     		.sleb128 -100
 4293 0621 F6       		.byte	0xf6
ARM GAS  C:\Users\IVYLIU~1\AppData\Local\Temp\ccWLNWQl.s 			page 101


 4294 0622 04       		.byte	0x4
 4295 0623 25       		.uleb128 0x25
 4296 0624 F5       		.byte	0xf5
 4297 0625 06       		.uleb128 0x6
 4298 0626 25       		.uleb128 0x25
 4299 0627 1E       		.byte	0x1e
 4300 0628 9F       		.byte	0x9f
 4301 0629 A0010000 		.4byte	.LVL62
 4302 062d C8010000 		.4byte	.LVL67
 4303 0631 0800     		.2byte	0x8
 4304 0633 F5       		.byte	0xf5
 4305 0634 08       		.uleb128 0x8
 4306 0635 25       		.uleb128 0x25
 4307 0636 F5       		.byte	0xf5
 4308 0637 07       		.uleb128 0x7
 4309 0638 25       		.uleb128 0x25
 4310 0639 1E       		.byte	0x1e
 4311 063a 9F       		.byte	0x9f
 4312 063b EA010000 		.4byte	.LVL72
 4313 063f 24020000 		.4byte	.LVL80
 4314 0643 0B00     		.2byte	0xb
 4315 0645 91       		.byte	0x91
 4316 0646 A07F     		.sleb128 -96
 4317 0648 F6       		.byte	0xf6
 4318 0649 04       		.byte	0x4
 4319 064a 25       		.uleb128 0x25
 4320 064b F5       		.byte	0xf5
 4321 064c 06       		.uleb128 0x6
 4322 064d 25       		.uleb128 0x25
 4323 064e 1E       		.byte	0x1e
 4324 064f 9F       		.byte	0x9f
 4325 0650 24020000 		.4byte	.LVL80
 4326 0654 4C020000 		.4byte	.LVL85
 4327 0658 0B00     		.2byte	0xb
 4328 065a 91       		.byte	0x91
 4329 065b AC7F     		.sleb128 -84
 4330 065d F6       		.byte	0xf6
 4331 065e 04       		.byte	0x4
 4332 065f 25       		.uleb128 0x25
 4333 0660 F5       		.byte	0xf5
 4334 0661 07       		.uleb128 0x7
 4335 0662 25       		.uleb128 0x25
 4336 0663 1E       		.byte	0x1e
 4337 0664 9F       		.byte	0x9f
 4338 0665 00000000 		.4byte	0
 4339 0669 00000000 		.4byte	0
 4340              	.LLST16:
 4341 066d 64010000 		.4byte	.LVL53
 4342 0671 8C010000 		.4byte	.LVL59
 4343 0675 0800     		.2byte	0x8
 4344 0677 F5       		.byte	0xf5
 4345 0678 0A       		.uleb128 0xa
 4346 0679 25       		.uleb128 0x25
 4347 067a F5       		.byte	0xf5
 4348 067b 07       		.uleb128 0x7
 4349 067c 25       		.uleb128 0x25
 4350 067d 1E       		.byte	0x1e
ARM GAS  C:\Users\IVYLIU~1\AppData\Local\Temp\ccWLNWQl.s 			page 102


 4351 067e 9F       		.byte	0x9f
 4352 067f A0010000 		.4byte	.LVL62
 4353 0683 DE010000 		.4byte	.LVL71
 4354 0687 0B00     		.2byte	0xb
 4355 0689 91       		.byte	0x91
 4356 068a A87F     		.sleb128 -88
 4357 068c F6       		.byte	0xf6
 4358 068d 04       		.byte	0x4
 4359 068e 25       		.uleb128 0x25
 4360 068f F5       		.byte	0xf5
 4361 0690 06       		.uleb128 0x6
 4362 0691 25       		.uleb128 0x25
 4363 0692 1E       		.byte	0x1e
 4364 0693 9F       		.byte	0x9f
 4365 0694 EA010000 		.4byte	.LVL72
 4366 0698 24020000 		.4byte	.LVL80
 4367 069c 0B00     		.2byte	0xb
 4368 069e 91       		.byte	0x91
 4369 069f A47F     		.sleb128 -92
 4370 06a1 F6       		.byte	0xf6
 4371 06a2 04       		.byte	0x4
 4372 06a3 25       		.uleb128 0x25
 4373 06a4 F5       		.byte	0xf5
 4374 06a5 07       		.uleb128 0x7
 4375 06a6 25       		.uleb128 0x25
 4376 06a7 1E       		.byte	0x1e
 4377 06a8 9F       		.byte	0x9f
 4378 06a9 24020000 		.4byte	.LVL80
 4379 06ad 66020000 		.4byte	.LVL88
 4380 06b1 0B00     		.2byte	0xb
 4381 06b3 91       		.byte	0x91
 4382 06b4 B07F     		.sleb128 -80
 4383 06b6 F6       		.byte	0xf6
 4384 06b7 04       		.byte	0x4
 4385 06b8 25       		.uleb128 0x25
 4386 06b9 F5       		.byte	0xf5
 4387 06ba 06       		.uleb128 0x6
 4388 06bb 25       		.uleb128 0x25
 4389 06bc 1E       		.byte	0x1e
 4390 06bd 9F       		.byte	0x9f
 4391 06be 00000000 		.4byte	0
 4392 06c2 00000000 		.4byte	0
 4393              	.LLST17:
 4394 06c6 64010000 		.4byte	.LVL53
 4395 06ca 8C010000 		.4byte	.LVL59
 4396 06ce 0800     		.2byte	0x8
 4397 06d0 F5       		.byte	0xf5
 4398 06d1 0A       		.uleb128 0xa
 4399 06d2 25       		.uleb128 0x25
 4400 06d3 F5       		.byte	0xf5
 4401 06d4 06       		.uleb128 0x6
 4402 06d5 25       		.uleb128 0x25
 4403 06d6 1E       		.byte	0x1e
 4404 06d7 9F       		.byte	0x9f
 4405 06d8 A0010000 		.4byte	.LVL62
 4406 06dc C8010000 		.4byte	.LVL67
 4407 06e0 0B00     		.2byte	0xb
ARM GAS  C:\Users\IVYLIU~1\AppData\Local\Temp\ccWLNWQl.s 			page 103


 4408 06e2 91       		.byte	0x91
 4409 06e3 A87F     		.sleb128 -88
 4410 06e5 F6       		.byte	0xf6
 4411 06e6 04       		.byte	0x4
 4412 06e7 25       		.uleb128 0x25
 4413 06e8 F5       		.byte	0xf5
 4414 06e9 07       		.uleb128 0x7
 4415 06ea 25       		.uleb128 0x25
 4416 06eb 1E       		.byte	0x1e
 4417 06ec 9F       		.byte	0x9f
 4418 06ed EA010000 		.4byte	.LVL72
 4419 06f1 24020000 		.4byte	.LVL80
 4420 06f5 0B00     		.2byte	0xb
 4421 06f7 91       		.byte	0x91
 4422 06f8 A47F     		.sleb128 -92
 4423 06fa F6       		.byte	0xf6
 4424 06fb 04       		.byte	0x4
 4425 06fc 25       		.uleb128 0x25
 4426 06fd F5       		.byte	0xf5
 4427 06fe 06       		.uleb128 0x6
 4428 06ff 25       		.uleb128 0x25
 4429 0700 1E       		.byte	0x1e
 4430 0701 9F       		.byte	0x9f
 4431 0702 24020000 		.4byte	.LVL80
 4432 0706 4C020000 		.4byte	.LVL85
 4433 070a 0B00     		.2byte	0xb
 4434 070c 91       		.byte	0x91
 4435 070d B07F     		.sleb128 -80
 4436 070f F6       		.byte	0xf6
 4437 0710 04       		.byte	0x4
 4438 0711 25       		.uleb128 0x25
 4439 0712 F5       		.byte	0xf5
 4440 0713 07       		.uleb128 0x7
 4441 0714 25       		.uleb128 0x25
 4442 0715 1E       		.byte	0x1e
 4443 0716 9F       		.byte	0x9f
 4444 0717 00000000 		.4byte	0
 4445 071b 00000000 		.4byte	0
 4446              	.LLST18:
 4447 071f 64010000 		.4byte	.LVL53
 4448 0723 A0010000 		.4byte	.LVL62
 4449 0727 0B00     		.2byte	0xb
 4450 0729 91       		.byte	0x91
 4451 072a 9C7F     		.sleb128 -100
 4452 072c F6       		.byte	0xf6
 4453 072d 04       		.byte	0x4
 4454 072e 25       		.uleb128 0x25
 4455 072f F5       		.byte	0xf5
 4456 0730 07       		.uleb128 0x7
 4457 0731 25       		.uleb128 0x25
 4458 0732 1E       		.byte	0x1e
 4459 0733 9F       		.byte	0x9f
 4460 0734 A0010000 		.4byte	.LVL62
 4461 0738 DE010000 		.4byte	.LVL71
 4462 073c 0800     		.2byte	0x8
 4463 073e F5       		.byte	0xf5
 4464 073f 08       		.uleb128 0x8
ARM GAS  C:\Users\IVYLIU~1\AppData\Local\Temp\ccWLNWQl.s 			page 104


 4465 0740 25       		.uleb128 0x25
 4466 0741 F5       		.byte	0xf5
 4467 0742 06       		.uleb128 0x6
 4468 0743 25       		.uleb128 0x25
 4469 0744 1E       		.byte	0x1e
 4470 0745 9F       		.byte	0x9f
 4471 0746 EA010000 		.4byte	.LVL72
 4472 074a 24020000 		.4byte	.LVL80
 4473 074e 0B00     		.2byte	0xb
 4474 0750 91       		.byte	0x91
 4475 0751 A07F     		.sleb128 -96
 4476 0753 F6       		.byte	0xf6
 4477 0754 04       		.byte	0x4
 4478 0755 25       		.uleb128 0x25
 4479 0756 F5       		.byte	0xf5
 4480 0757 07       		.uleb128 0x7
 4481 0758 25       		.uleb128 0x25
 4482 0759 1E       		.byte	0x1e
 4483 075a 9F       		.byte	0x9f
 4484 075b 24020000 		.4byte	.LVL80
 4485 075f 66020000 		.4byte	.LVL88
 4486 0763 0B00     		.2byte	0xb
 4487 0765 91       		.byte	0x91
 4488 0766 AC7F     		.sleb128 -84
 4489 0768 F6       		.byte	0xf6
 4490 0769 04       		.byte	0x4
 4491 076a 25       		.uleb128 0x25
 4492 076b F5       		.byte	0xf5
 4493 076c 06       		.uleb128 0x6
 4494 076d 25       		.uleb128 0x25
 4495 076e 1E       		.byte	0x1e
 4496 076f 9F       		.byte	0x9f
 4497 0770 00000000 		.4byte	0
 4498 0774 00000000 		.4byte	0
 4499              	.LLST19:
 4500 0778 1E000000 		.4byte	.LVL4
 4501 077c 30000000 		.4byte	.LVL7
 4502 0780 0700     		.2byte	0x7
 4503 0782 91       		.byte	0x91
 4504 0783 987F     		.sleb128 -104
 4505 0785 06       		.byte	0x6
 4506 0786 32       		.byte	0x32
 4507 0787 25       		.byte	0x25
 4508 0788 9F       		.byte	0x9f
 4509 0789 00000000 		.4byte	0
 4510 078d 00000000 		.4byte	0
 4511              	.LLST20:
 4512 0791 00000000 		.4byte	.LVL93
 4513 0795 36000000 		.4byte	.LVL106
 4514 0799 0100     		.2byte	0x1
 4515 079b 50       		.byte	0x50
 4516 079c 36000000 		.4byte	.LVL106
 4517 07a0 4C070000 		.4byte	.LVL372
 4518 07a4 0300     		.2byte	0x3
 4519 07a6 91       		.byte	0x91
 4520 07a7 FC7E     		.sleb128 -132
 4521 07a9 4C070000 		.4byte	.LVL372
ARM GAS  C:\Users\IVYLIU~1\AppData\Local\Temp\ccWLNWQl.s 			page 105


 4522 07ad 50070000 		.4byte	.LFE85
 4523 07b1 0300     		.2byte	0x3
 4524 07b3 7D       		.byte	0x7d
 4525 07b4 FC7E     		.sleb128 -132
 4526 07b6 00000000 		.4byte	0
 4527 07ba 00000000 		.4byte	0
 4528              	.LLST21:
 4529 07be 00000000 		.4byte	.LVL93
 4530 07c2 38000000 		.4byte	.LVL107
 4531 07c6 0100     		.2byte	0x1
 4532 07c8 51       		.byte	0x51
 4533 07c9 38000000 		.4byte	.LVL107
 4534 07cd 7E000000 		.4byte	.LVL122
 4535 07d1 0300     		.2byte	0x3
 4536 07d3 91       		.byte	0x91
 4537 07d4 D87E     		.sleb128 -168
 4538 07d6 7E000000 		.4byte	.LVL122
 4539 07da 90000000 		.4byte	.LVL125
 4540 07de 0700     		.2byte	0x7
 4541 07e0 91       		.byte	0x91
 4542 07e1 D87E     		.sleb128 -168
 4543 07e3 06       		.byte	0x6
 4544 07e4 23       		.byte	0x23
 4545 07e5 04       		.uleb128 0x4
 4546 07e6 9F       		.byte	0x9f
 4547 07e7 90000000 		.4byte	.LVL125
 4548 07eb 92000000 		.4byte	.LVL126
 4549 07ef 0100     		.2byte	0x1
 4550 07f1 53       		.byte	0x53
 4551 07f2 92000000 		.4byte	.LVL126
 4552 07f6 66010000 		.4byte	.LVL156
 4553 07fa 0300     		.2byte	0x3
 4554 07fc 91       		.byte	0x91
 4555 07fd EC7E     		.sleb128 -148
 4556 07ff 10060000 		.4byte	.LVL329
 4557 0803 22060000 		.4byte	.LVL333
 4558 0807 0700     		.2byte	0x7
 4559 0809 91       		.byte	0x91
 4560 080a E07E     		.sleb128 -160
 4561 080c 06       		.byte	0x6
 4562 080d 23       		.byte	0x23
 4563 080e 04       		.uleb128 0x4
 4564 080f 9F       		.byte	0x9f
 4565 0810 22060000 		.4byte	.LVL333
 4566 0814 4C070000 		.4byte	.LVL372
 4567 0818 0700     		.2byte	0x7
 4568 081a 91       		.byte	0x91
 4569 081b E07E     		.sleb128 -160
 4570 081d 06       		.byte	0x6
 4571 081e 23       		.byte	0x23
 4572 081f 08       		.uleb128 0x8
 4573 0820 9F       		.byte	0x9f
 4574 0821 4C070000 		.4byte	.LVL372
 4575 0825 50070000 		.4byte	.LFE85
 4576 0829 0700     		.2byte	0x7
 4577 082b 7D       		.byte	0x7d
 4578 082c E07E     		.sleb128 -160
ARM GAS  C:\Users\IVYLIU~1\AppData\Local\Temp\ccWLNWQl.s 			page 106


 4579 082e 06       		.byte	0x6
 4580 082f 23       		.byte	0x23
 4581 0830 08       		.uleb128 0x8
 4582 0831 9F       		.byte	0x9f
 4583 0832 00000000 		.4byte	0
 4584 0836 00000000 		.4byte	0
 4585              	.LLST22:
 4586 083a 0A000000 		.4byte	.LVL94
 4587 083e 2A000000 		.4byte	.LVL103
 4588 0842 0100     		.2byte	0x1
 4589 0844 58       		.byte	0x58
 4590 0845 2A000000 		.4byte	.LVL103
 4591 0849 2C000000 		.4byte	.LVL104
 4592 084d 0100     		.2byte	0x1
 4593 084f 53       		.byte	0x53
 4594 0850 2C000000 		.4byte	.LVL104
 4595 0854 4C070000 		.4byte	.LVL372
 4596 0858 0300     		.2byte	0x3
 4597 085a 91       		.byte	0x91
 4598 085b 907F     		.sleb128 -112
 4599 085d 4C070000 		.4byte	.LVL372
 4600 0861 50070000 		.4byte	.LFE85
 4601 0865 0300     		.2byte	0x3
 4602 0867 7D       		.byte	0x7d
 4603 0868 907F     		.sleb128 -112
 4604 086a 00000000 		.4byte	0
 4605 086e 00000000 		.4byte	0
 4606              	.LLST23:
 4607 0872 1E000000 		.4byte	.LVL99
 4608 0876 34000000 		.4byte	.LVL105
 4609 087a 0300     		.2byte	0x3
 4610 087c 91       		.byte	0x91
 4611 087d D87E     		.sleb128 -168
 4612 087f 00000000 		.4byte	0
 4613 0883 00000000 		.4byte	0
 4614              	.LLST24:
 4615 0887 1E000000 		.4byte	.LVL99
 4616 088b 48070000 		.4byte	.LVL371
 4617 088f 0200     		.2byte	0x2
 4618 0891 7D       		.byte	0x7d
 4619 0892 00       		.sleb128 0
 4620 0893 48070000 		.4byte	.LVL371
 4621 0897 4C070000 		.4byte	.LVL372
 4622 089b 0300     		.2byte	0x3
 4623 089d 91       		.byte	0x91
 4624 089e C87E     		.sleb128 -184
 4625 08a0 4C070000 		.4byte	.LVL372
 4626 08a4 50070000 		.4byte	.LFE85
 4627 08a8 0300     		.2byte	0x3
 4628 08aa 7D       		.byte	0x7d
 4629 08ab C87E     		.sleb128 -184
 4630 08ad 00000000 		.4byte	0
 4631 08b1 00000000 		.4byte	0
 4632              	.LLST25:
 4633 08b5 1E000000 		.4byte	.LVL99
 4634 08b9 4C070000 		.4byte	.LVL372
 4635 08bd 0300     		.2byte	0x3
ARM GAS  C:\Users\IVYLIU~1\AppData\Local\Temp\ccWLNWQl.s 			page 107


 4636 08bf 91       		.byte	0x91
 4637 08c0 D47E     		.sleb128 -172
 4638 08c2 4C070000 		.4byte	.LVL372
 4639 08c6 50070000 		.4byte	.LFE85
 4640 08ca 0300     		.2byte	0x3
 4641 08cc 7D       		.byte	0x7d
 4642 08cd D47E     		.sleb128 -172
 4643 08cf 00000000 		.4byte	0
 4644 08d3 00000000 		.4byte	0
 4645              	.LLST26:
 4646 08d7 1E000000 		.4byte	.LVL99
 4647 08db 20000000 		.4byte	.LVL100
 4648 08df 0100     		.2byte	0x1
 4649 08e1 53       		.byte	0x53
 4650 08e2 20000000 		.4byte	.LVL100
 4651 08e6 4C070000 		.4byte	.LVL372
 4652 08ea 0300     		.2byte	0x3
 4653 08ec 91       		.byte	0x91
 4654 08ed D07E     		.sleb128 -176
 4655 08ef 4C070000 		.4byte	.LVL372
 4656 08f3 50070000 		.4byte	.LFE85
 4657 08f7 0300     		.2byte	0x3
 4658 08f9 7D       		.byte	0x7d
 4659 08fa D07E     		.sleb128 -176
 4660 08fc 00000000 		.4byte	0
 4661 0900 00000000 		.4byte	0
 4662              	.LLST27:
 4663 0904 1E000000 		.4byte	.LVL99
 4664 0908 66010000 		.4byte	.LVL156
 4665 090c 0600     		.2byte	0x6
 4666 090e 7D       		.byte	0x7d
 4667 090f 00       		.sleb128 0
 4668 0910 06       		.byte	0x6
 4669 0911 34       		.byte	0x34
 4670 0912 1C       		.byte	0x1c
 4671 0913 9F       		.byte	0x9f
 4672 0914 54030000 		.4byte	.LVL236
 4673 0918 16050000 		.4byte	.LVL292
 4674 091c 0900     		.2byte	0x9
 4675 091e 7D       		.byte	0x7d
 4676 091f 00       		.sleb128 0
 4677 0920 06       		.byte	0x6
 4678 0921 79       		.byte	0x79
 4679 0922 00       		.sleb128 0
 4680 0923 22       		.byte	0x22
 4681 0924 34       		.byte	0x34
 4682 0925 1C       		.byte	0x1c
 4683 0926 9F       		.byte	0x9f
 4684 0927 00000000 		.4byte	0
 4685 092b 00000000 		.4byte	0
 4686              	.LLST28:
 4687 092f 1E000000 		.4byte	.LVL99
 4688 0933 4A010000 		.4byte	.LVL154
 4689 0937 0700     		.2byte	0x7
 4690 0939 91       		.byte	0x91
 4691 093a D47E     		.sleb128 -172
 4692 093c 06       		.byte	0x6
ARM GAS  C:\Users\IVYLIU~1\AppData\Local\Temp\ccWLNWQl.s 			page 108


 4693 093d 34       		.byte	0x34
 4694 093e 1C       		.byte	0x1c
 4695 093f 9F       		.byte	0x9f
 4696 0940 4A010000 		.4byte	.LVL154
 4697 0944 4E010000 		.4byte	.LVL155
 4698 0948 0100     		.2byte	0x1
 4699 094a 53       		.byte	0x53
 4700 094b 4E010000 		.4byte	.LVL155
 4701 094f 66010000 		.4byte	.LVL156
 4702 0953 0300     		.2byte	0x3
 4703 0955 91       		.byte	0x91
 4704 0956 E87E     		.sleb128 -152
 4705 0958 00000000 		.4byte	0
 4706 095c 00000000 		.4byte	0
 4707              	.LLST29:
 4708 0960 1E000000 		.4byte	.LVL99
 4709 0964 20000000 		.4byte	.LVL100
 4710 0968 0300     		.2byte	0x3
 4711 096a 73       		.byte	0x73
 4712 096b 7C       		.sleb128 -4
 4713 096c 9F       		.byte	0x9f
 4714 096d 20000000 		.4byte	.LVL100
 4715 0971 66010000 		.4byte	.LVL156
 4716 0975 0700     		.2byte	0x7
 4717 0977 91       		.byte	0x91
 4718 0978 D07E     		.sleb128 -176
 4719 097a 06       		.byte	0x6
 4720 097b 34       		.byte	0x34
 4721 097c 1C       		.byte	0x1c
 4722 097d 9F       		.byte	0x9f
 4723 097e 66040000 		.4byte	.LVL270
 4724 0982 16050000 		.4byte	.LVL292
 4725 0986 0A00     		.2byte	0xa
 4726 0988 91       		.byte	0x91
 4727 0989 D07E     		.sleb128 -176
 4728 098b 06       		.byte	0x6
 4729 098c 79       		.byte	0x79
 4730 098d 00       		.sleb128 0
 4731 098e 22       		.byte	0x22
 4732 098f 34       		.byte	0x34
 4733 0990 1C       		.byte	0x1c
 4734 0991 9F       		.byte	0x9f
 4735 0992 00000000 		.4byte	0
 4736 0996 00000000 		.4byte	0
 4737              	.LLST30:
 4738 099a 1E000000 		.4byte	.LVL99
 4739 099e 20000000 		.4byte	.LVL100
 4740 09a2 0A00     		.2byte	0xa
 4741 09a4 73       		.byte	0x73
 4742 09a5 00       		.sleb128 0
 4743 09a6 91       		.byte	0x91
 4744 09a7 E07E     		.sleb128 -160
 4745 09a9 06       		.byte	0x6
 4746 09aa 22       		.byte	0x22
 4747 09ab 34       		.byte	0x34
 4748 09ac 1C       		.byte	0x1c
 4749 09ad 9F       		.byte	0x9f
ARM GAS  C:\Users\IVYLIU~1\AppData\Local\Temp\ccWLNWQl.s 			page 109


 4750 09ae 20000000 		.4byte	.LVL100
 4751 09b2 3A000000 		.4byte	.LVL108
 4752 09b6 0C00     		.2byte	0xc
 4753 09b8 91       		.byte	0x91
 4754 09b9 D07E     		.sleb128 -176
 4755 09bb 06       		.byte	0x6
 4756 09bc 91       		.byte	0x91
 4757 09bd E07E     		.sleb128 -160
 4758 09bf 06       		.byte	0x6
 4759 09c0 22       		.byte	0x22
 4760 09c1 34       		.byte	0x34
 4761 09c2 1C       		.byte	0x1c
 4762 09c3 9F       		.byte	0x9f
 4763 09c4 00000000 		.4byte	0
 4764 09c8 00000000 		.4byte	0
 4765              	.LLST31:
 4766 09cc 24000000 		.4byte	.LVL101
 4767 09d0 28000000 		.4byte	.LVL102
 4768 09d4 0100     		.2byte	0x1
 4769 09d6 53       		.byte	0x53
 4770 09d7 28000000 		.4byte	.LVL102
 4771 09db 36000000 		.4byte	.LVL106
 4772 09df 0200     		.2byte	0x2
 4773 09e1 70       		.byte	0x70
 4774 09e2 04       		.sleb128 4
 4775 09e3 36000000 		.4byte	.LVL106
 4776 09e7 3D000000 		.4byte	.LVL109-1
 4777 09eb 0600     		.2byte	0x6
 4778 09ed 91       		.byte	0x91
 4779 09ee FC7E     		.sleb128 -132
 4780 09f0 06       		.byte	0x6
 4781 09f1 23       		.byte	0x23
 4782 09f2 04       		.uleb128 0x4
 4783 09f3 3D000000 		.4byte	.LVL109-1
 4784 09f7 32010000 		.4byte	.LVL149
 4785 09fb 0300     		.2byte	0x3
 4786 09fd 91       		.byte	0x91
 4787 09fe CC7E     		.sleb128 -180
 4788 0a00 32010000 		.4byte	.LVL149
 4789 0a04 66010000 		.4byte	.LVL156
 4790 0a08 0700     		.2byte	0x7
 4791 0a0a 91       		.byte	0x91
 4792 0a0b CC7E     		.sleb128 -180
 4793 0a0d 06       		.byte	0x6
 4794 0a0e 23       		.byte	0x23
 4795 0a0f 08       		.uleb128 0x8
 4796 0a10 9F       		.byte	0x9f
 4797 0a11 72030000 		.4byte	.LVL239
 4798 0a15 74030000 		.4byte	.LVL240
 4799 0a19 0800     		.2byte	0x8
 4800 0a1b 73       		.byte	0x73
 4801 0a1c 00       		.sleb128 0
 4802 0a1d 72       		.byte	0x72
 4803 0a1e 00       		.sleb128 0
 4804 0a1f 22       		.byte	0x22
 4805 0a20 23       		.byte	0x23
 4806 0a21 08       		.uleb128 0x8
ARM GAS  C:\Users\IVYLIU~1\AppData\Local\Temp\ccWLNWQl.s 			page 110


 4807 0a22 9F       		.byte	0x9f
 4808 0a23 74030000 		.4byte	.LVL240
 4809 0a27 7B030000 		.4byte	.LVL242-1
 4810 0a2b 0A00     		.2byte	0xa
 4811 0a2d 91       		.byte	0x91
 4812 0a2e CC7E     		.sleb128 -180
 4813 0a30 06       		.byte	0x6
 4814 0a31 72       		.byte	0x72
 4815 0a32 00       		.sleb128 0
 4816 0a33 22       		.byte	0x22
 4817 0a34 23       		.byte	0x23
 4818 0a35 08       		.uleb128 0x8
 4819 0a36 9F       		.byte	0x9f
 4820 0a37 7B030000 		.4byte	.LVL242-1
 4821 0a3b 16050000 		.4byte	.LVL292
 4822 0a3f 0C00     		.2byte	0xc
 4823 0a41 91       		.byte	0x91
 4824 0a42 CC7E     		.sleb128 -180
 4825 0a44 06       		.byte	0x6
 4826 0a45 91       		.byte	0x91
 4827 0a46 F87E     		.sleb128 -136
 4828 0a48 06       		.byte	0x6
 4829 0a49 22       		.byte	0x22
 4830 0a4a 23       		.byte	0x23
 4831 0a4b 08       		.uleb128 0x8
 4832 0a4c 9F       		.byte	0x9f
 4833 0a4d 00000000 		.4byte	0
 4834 0a51 00000000 		.4byte	0
 4835              	.LLST32:
 4836 0a55 24000000 		.4byte	.LVL101
 4837 0a59 28000000 		.4byte	.LVL102
 4838 0a5d 0100     		.2byte	0x1
 4839 0a5f 53       		.byte	0x53
 4840 0a60 28000000 		.4byte	.LVL102
 4841 0a64 36000000 		.4byte	.LVL106
 4842 0a68 0200     		.2byte	0x2
 4843 0a6a 70       		.byte	0x70
 4844 0a6b 04       		.sleb128 4
 4845 0a6c 36000000 		.4byte	.LVL106
 4846 0a70 3D000000 		.4byte	.LVL109-1
 4847 0a74 0600     		.2byte	0x6
 4848 0a76 91       		.byte	0x91
 4849 0a77 FC7E     		.sleb128 -132
 4850 0a79 06       		.byte	0x6
 4851 0a7a 23       		.byte	0x23
 4852 0a7b 04       		.uleb128 0x4
 4853 0a7c 3D000000 		.4byte	.LVL109-1
 4854 0a80 32010000 		.4byte	.LVL149
 4855 0a84 0300     		.2byte	0x3
 4856 0a86 91       		.byte	0x91
 4857 0a87 CC7E     		.sleb128 -180
 4858 0a89 32010000 		.4byte	.LVL149
 4859 0a8d 66010000 		.4byte	.LVL156
 4860 0a91 0700     		.2byte	0x7
 4861 0a93 91       		.byte	0x91
 4862 0a94 CC7E     		.sleb128 -180
 4863 0a96 06       		.byte	0x6
ARM GAS  C:\Users\IVYLIU~1\AppData\Local\Temp\ccWLNWQl.s 			page 111


 4864 0a97 23       		.byte	0x23
 4865 0a98 10       		.uleb128 0x10
 4866 0a99 9F       		.byte	0x9f
 4867 0a9a 02040000 		.4byte	.LVL258
 4868 0a9e 46040000 		.4byte	.LVL266
 4869 0aa2 0A00     		.2byte	0xa
 4870 0aa4 7A       		.byte	0x7a
 4871 0aa5 02       		.sleb128 2
 4872 0aa6 34       		.byte	0x34
 4873 0aa7 24       		.byte	0x24
 4874 0aa8 91       		.byte	0x91
 4875 0aa9 CC7E     		.sleb128 -180
 4876 0aab 06       		.byte	0x6
 4877 0aac 22       		.byte	0x22
 4878 0aad 9F       		.byte	0x9f
 4879 0aae 46040000 		.4byte	.LVL266
 4880 0ab2 16050000 		.4byte	.LVL292
 4881 0ab6 0A00     		.2byte	0xa
 4882 0ab8 7A       		.byte	0x7a
 4883 0ab9 01       		.sleb128 1
 4884 0aba 34       		.byte	0x34
 4885 0abb 24       		.byte	0x24
 4886 0abc 91       		.byte	0x91
 4887 0abd CC7E     		.sleb128 -180
 4888 0abf 06       		.byte	0x6
 4889 0ac0 22       		.byte	0x22
 4890 0ac1 9F       		.byte	0x9f
 4891 0ac2 00000000 		.4byte	0
 4892 0ac6 00000000 		.4byte	0
 4893              	.LLST33:
 4894 0aca 24000000 		.4byte	.LVL101
 4895 0ace 28000000 		.4byte	.LVL102
 4896 0ad2 0100     		.2byte	0x1
 4897 0ad4 53       		.byte	0x53
 4898 0ad5 28000000 		.4byte	.LVL102
 4899 0ad9 36000000 		.4byte	.LVL106
 4900 0add 0200     		.2byte	0x2
 4901 0adf 70       		.byte	0x70
 4902 0ae0 04       		.sleb128 4
 4903 0ae1 36000000 		.4byte	.LVL106
 4904 0ae5 3D000000 		.4byte	.LVL109-1
 4905 0ae9 0600     		.2byte	0x6
 4906 0aeb 91       		.byte	0x91
 4907 0aec FC7E     		.sleb128 -132
 4908 0aee 06       		.byte	0x6
 4909 0aef 23       		.byte	0x23
 4910 0af0 04       		.uleb128 0x4
 4911 0af1 3D000000 		.4byte	.LVL109-1
 4912 0af5 3A010000 		.4byte	.LVL150
 4913 0af9 0300     		.2byte	0x3
 4914 0afb 91       		.byte	0x91
 4915 0afc CC7E     		.sleb128 -180
 4916 0afe 3A010000 		.4byte	.LVL150
 4917 0b02 3C010000 		.4byte	.LVL151
 4918 0b06 0100     		.2byte	0x1
 4919 0b08 53       		.byte	0x53
 4920 0b09 3C010000 		.4byte	.LVL151
ARM GAS  C:\Users\IVYLIU~1\AppData\Local\Temp\ccWLNWQl.s 			page 112


 4921 0b0d 66010000 		.4byte	.LVL156
 4922 0b11 0300     		.2byte	0x3
 4923 0b13 91       		.byte	0x91
 4924 0b14 8C7F     		.sleb128 -116
 4925 0b16 66010000 		.4byte	.LVL156
 4926 0b1a 76010000 		.4byte	.LVL157
 4927 0b1e 0100     		.2byte	0x1
 4928 0b20 5C       		.byte	0x5c
 4929 0b21 76010000 		.4byte	.LVL157
 4930 0b25 B7010000 		.4byte	.LVL158-1
 4931 0b29 0300     		.2byte	0x3
 4932 0b2b 7C       		.byte	0x7c
 4933 0b2c 68       		.sleb128 -24
 4934 0b2d 9F       		.byte	0x9f
 4935 0b2e B7010000 		.4byte	.LVL158-1
 4936 0b32 98040000 		.4byte	.LVL276
 4937 0b36 0600     		.2byte	0x6
 4938 0b38 91       		.byte	0x91
 4939 0b39 54       		.sleb128 -44
 4940 0b3a 06       		.byte	0x6
 4941 0b3b 48       		.byte	0x48
 4942 0b3c 1C       		.byte	0x1c
 4943 0b3d 9F       		.byte	0x9f
 4944 0b3e 98040000 		.4byte	.LVL276
 4945 0b42 16050000 		.4byte	.LVL292
 4946 0b46 0200     		.2byte	0x2
 4947 0b48 91       		.byte	0x91
 4948 0b49 54       		.sleb128 -44
 4949 0b4a 16050000 		.4byte	.LVL292
 4950 0b4e 2E050000 		.4byte	.LVL294
 4951 0b52 0300     		.2byte	0x3
 4952 0b54 7C       		.byte	0x7c
 4953 0b55 68       		.sleb128 -24
 4954 0b56 9F       		.byte	0x9f
 4955 0b57 00000000 		.4byte	0
 4956 0b5b 00000000 		.4byte	0
 4957              	.LLST34:
 4958 0b5f 16000000 		.4byte	.LVL95
 4959 0b63 18000000 		.4byte	.LVL96
 4960 0b67 0100     		.2byte	0x1
 4961 0b69 53       		.byte	0x53
 4962 0b6a 18000000 		.4byte	.LVL96
 4963 0b6e A8000000 		.4byte	.LVL129
 4964 0b72 0200     		.2byte	0x2
 4965 0b74 7D       		.byte	0x7d
 4966 0b75 00       		.sleb128 0
 4967 0b76 A8000000 		.4byte	.LVL129
 4968 0b7a C4000000 		.4byte	.LVL132
 4969 0b7e 0600     		.2byte	0x6
 4970 0b80 7D       		.byte	0x7d
 4971 0b81 00       		.sleb128 0
 4972 0b82 06       		.byte	0x6
 4973 0b83 23       		.byte	0x23
 4974 0b84 04       		.uleb128 0x4
 4975 0b85 9F       		.byte	0x9f
 4976 0b86 C4000000 		.4byte	.LVL132
 4977 0b8a C7000000 		.4byte	.LVL133-1
ARM GAS  C:\Users\IVYLIU~1\AppData\Local\Temp\ccWLNWQl.s 			page 113


 4978 0b8e 0100     		.2byte	0x1
 4979 0b90 53       		.byte	0x53
 4980 0b91 C7000000 		.4byte	.LVL133-1
 4981 0b95 66010000 		.4byte	.LVL156
 4982 0b99 0300     		.2byte	0x3
 4983 0b9b 91       		.byte	0x91
 4984 0b9c 807F     		.sleb128 -128
 4985 0b9e 44060000 		.4byte	.LVL337
 4986 0ba2 62060000 		.4byte	.LVL341
 4987 0ba6 0300     		.2byte	0x3
 4988 0ba8 77       		.byte	0x77
 4989 0ba9 04       		.sleb128 4
 4990 0baa 9F       		.byte	0x9f
 4991 0bab 62060000 		.4byte	.LVL341
 4992 0baf 96060000 		.4byte	.LVL349
 4993 0bb3 0300     		.2byte	0x3
 4994 0bb5 77       		.byte	0x77
 4995 0bb6 08       		.sleb128 8
 4996 0bb7 9F       		.byte	0x9f
 4997 0bb8 96060000 		.4byte	.LVL349
 4998 0bbc 4C070000 		.4byte	.LVL372
 4999 0bc0 0A00     		.2byte	0xa
 5000 0bc2 91       		.byte	0x91
 5001 0bc3 B07F     		.sleb128 -80
 5002 0bc5 06       		.byte	0x6
 5003 0bc6 91       		.byte	0x91
 5004 0bc7 807F     		.sleb128 -128
 5005 0bc9 06       		.byte	0x6
 5006 0bca 22       		.byte	0x22
 5007 0bcb 9F       		.byte	0x9f
 5008 0bcc 4C070000 		.4byte	.LVL372
 5009 0bd0 50070000 		.4byte	.LFE85
 5010 0bd4 0A00     		.2byte	0xa
 5011 0bd6 7D       		.byte	0x7d
 5012 0bd7 B07F     		.sleb128 -80
 5013 0bd9 06       		.byte	0x6
 5014 0bda 7D       		.byte	0x7d
 5015 0bdb 807F     		.sleb128 -128
 5016 0bdd 06       		.byte	0x6
 5017 0bde 22       		.byte	0x22
 5018 0bdf 9F       		.byte	0x9f
 5019 0be0 00000000 		.4byte	0
 5020 0be4 00000000 		.4byte	0
 5021              	.LLST35:
 5022 0be8 1A000000 		.4byte	.LVL97
 5023 0bec 1C000000 		.4byte	.LVL98
 5024 0bf0 0100     		.2byte	0x1
 5025 0bf2 53       		.byte	0x53
 5026 0bf3 1C000000 		.4byte	.LVL98
 5027 0bf7 D4000000 		.4byte	.LVL135
 5028 0bfb 0300     		.2byte	0x3
 5029 0bfd 91       		.byte	0x91
 5030 0bfe D47E     		.sleb128 -172
 5031 0c00 D4000000 		.4byte	.LVL135
 5032 0c04 F0000000 		.4byte	.LVL138
 5033 0c08 0700     		.2byte	0x7
 5034 0c0a 91       		.byte	0x91
ARM GAS  C:\Users\IVYLIU~1\AppData\Local\Temp\ccWLNWQl.s 			page 114


 5035 0c0b D47E     		.sleb128 -172
 5036 0c0d 06       		.byte	0x6
 5037 0c0e 23       		.byte	0x23
 5038 0c0f 04       		.uleb128 0x4
 5039 0c10 9F       		.byte	0x9f
 5040 0c11 F0000000 		.4byte	.LVL138
 5041 0c15 F3000000 		.4byte	.LVL139-1
 5042 0c19 0100     		.2byte	0x1
 5043 0c1b 53       		.byte	0x53
 5044 0c1c F3000000 		.4byte	.LVL139-1
 5045 0c20 66010000 		.4byte	.LVL156
 5046 0c24 0300     		.2byte	0x3
 5047 0c26 91       		.byte	0x91
 5048 0c27 847F     		.sleb128 -124
 5049 0c29 8E060000 		.4byte	.LVL347
 5050 0c2d AC060000 		.4byte	.LVL352
 5051 0c31 0700     		.2byte	0x7
 5052 0c33 91       		.byte	0x91
 5053 0c34 DC7E     		.sleb128 -164
 5054 0c36 06       		.byte	0x6
 5055 0c37 23       		.byte	0x23
 5056 0c38 04       		.uleb128 0x4
 5057 0c39 9F       		.byte	0x9f
 5058 0c3a AC060000 		.4byte	.LVL352
 5059 0c3e 4C070000 		.4byte	.LVL372
 5060 0c42 0700     		.2byte	0x7
 5061 0c44 91       		.byte	0x91
 5062 0c45 DC7E     		.sleb128 -164
 5063 0c47 06       		.byte	0x6
 5064 0c48 23       		.byte	0x23
 5065 0c49 08       		.uleb128 0x8
 5066 0c4a 9F       		.byte	0x9f
 5067 0c4b 4C070000 		.4byte	.LVL372
 5068 0c4f 50070000 		.4byte	.LFE85
 5069 0c53 0700     		.2byte	0x7
 5070 0c55 7D       		.byte	0x7d
 5071 0c56 DC7E     		.sleb128 -164
 5072 0c58 06       		.byte	0x6
 5073 0c59 23       		.byte	0x23
 5074 0c5a 08       		.uleb128 0x8
 5075 0c5b 9F       		.byte	0x9f
 5076 0c5c 00000000 		.4byte	0
 5077 0c60 00000000 		.4byte	0
 5078              	.LLST36:
 5079 0c64 1E000000 		.4byte	.LVL99
 5080 0c68 20000000 		.4byte	.LVL100
 5081 0c6c 0100     		.2byte	0x1
 5082 0c6e 53       		.byte	0x53
 5083 0c6f 20000000 		.4byte	.LVL100
 5084 0c73 00010000 		.4byte	.LVL141
 5085 0c77 0300     		.2byte	0x3
 5086 0c79 91       		.byte	0x91
 5087 0c7a D07E     		.sleb128 -176
 5088 0c7c 00010000 		.4byte	.LVL141
 5089 0c80 1C010000 		.4byte	.LVL144
 5090 0c84 0700     		.2byte	0x7
 5091 0c86 91       		.byte	0x91
ARM GAS  C:\Users\IVYLIU~1\AppData\Local\Temp\ccWLNWQl.s 			page 115


 5092 0c87 D07E     		.sleb128 -176
 5093 0c89 06       		.byte	0x6
 5094 0c8a 23       		.byte	0x23
 5095 0c8b 04       		.uleb128 0x4
 5096 0c8c 9F       		.byte	0x9f
 5097 0c8d 1C010000 		.4byte	.LVL144
 5098 0c91 1F010000 		.4byte	.LVL145-1
 5099 0c95 0100     		.2byte	0x1
 5100 0c97 53       		.byte	0x53
 5101 0c98 1F010000 		.4byte	.LVL145-1
 5102 0c9c 66010000 		.4byte	.LVL156
 5103 0ca0 0300     		.2byte	0x3
 5104 0ca2 91       		.byte	0x91
 5105 0ca3 887F     		.sleb128 -120
 5106 0ca5 D6060000 		.4byte	.LVL358
 5107 0ca9 F4060000 		.4byte	.LVL362
 5108 0cad 0300     		.2byte	0x3
 5109 0caf 79       		.byte	0x79
 5110 0cb0 04       		.sleb128 4
 5111 0cb1 9F       		.byte	0x9f
 5112 0cb2 F4060000 		.4byte	.LVL362
 5113 0cb6 4C070000 		.4byte	.LVL372
 5114 0cba 0300     		.2byte	0x3
 5115 0cbc 79       		.byte	0x79
 5116 0cbd 08       		.sleb128 8
 5117 0cbe 9F       		.byte	0x9f
 5118 0cbf 4C070000 		.4byte	.LVL372
 5119 0cc3 50070000 		.4byte	.LFE85
 5120 0cc7 0A00     		.2byte	0xa
 5121 0cc9 7D       		.byte	0x7d
 5122 0cca B07F     		.sleb128 -80
 5123 0ccc 06       		.byte	0x6
 5124 0ccd 7D       		.byte	0x7d
 5125 0cce 887F     		.sleb128 -120
 5126 0cd0 06       		.byte	0x6
 5127 0cd1 22       		.byte	0x22
 5128 0cd2 9F       		.byte	0x9f
 5129 0cd3 00000000 		.4byte	0
 5130 0cd7 00000000 		.4byte	0
 5131              	.LLST37:
 5132 0cdb 70000000 		.4byte	.LVL121
 5133 0cdf 7E000000 		.4byte	.LVL122
 5134 0ce3 1000     		.2byte	0x10
 5135 0ce5 F5       		.byte	0xf5
 5136 0ce6 09       		.uleb128 0x9
 5137 0ce7 25       		.uleb128 0x25
 5138 0ce8 F5       		.byte	0xf5
 5139 0ce9 07       		.uleb128 0x7
 5140 0cea 25       		.uleb128 0x25
 5141 0ceb 22       		.byte	0x22
 5142 0cec F5       		.byte	0xf5
 5143 0ced 06       		.uleb128 0x6
 5144 0cee 25       		.uleb128 0x25
 5145 0cef 1C       		.byte	0x1c
 5146 0cf0 9F       		.byte	0x9f
 5147 0cf1 93       		.byte	0x93
 5148 0cf2 04       		.uleb128 0x4
ARM GAS  C:\Users\IVYLIU~1\AppData\Local\Temp\ccWLNWQl.s 			page 116


 5149 0cf3 93       		.byte	0x93
 5150 0cf4 0C       		.uleb128 0xc
 5151 0cf5 7E000000 		.4byte	.LVL122
 5152 0cf9 81000000 		.4byte	.LVL123-1
 5153 0cfd 2100     		.2byte	0x21
 5154 0cff F5       		.byte	0xf5
 5155 0d00 09       		.uleb128 0x9
 5156 0d01 25       		.uleb128 0x25
 5157 0d02 F5       		.byte	0xf5
 5158 0d03 07       		.uleb128 0x7
 5159 0d04 25       		.uleb128 0x25
 5160 0d05 22       		.byte	0x22
 5161 0d06 F5       		.byte	0xf5
 5162 0d07 06       		.uleb128 0x6
 5163 0d08 25       		.uleb128 0x25
 5164 0d09 1C       		.byte	0x1c
 5165 0d0a 9F       		.byte	0x9f
 5166 0d0b 93       		.byte	0x93
 5167 0d0c 04       		.uleb128 0x4
 5168 0d0d 91       		.byte	0x91
 5169 0d0e DC7E     		.sleb128 -164
 5170 0d10 F6       		.byte	0xf6
 5171 0d11 04       		.byte	0x4
 5172 0d12 25       		.uleb128 0x25
 5173 0d13 F5       		.byte	0xf5
 5174 0d14 01       		.uleb128 0x1
 5175 0d15 25       		.uleb128 0x25
 5176 0d16 1C       		.byte	0x1c
 5177 0d17 F5       		.byte	0xf5
 5178 0d18 04       		.uleb128 0x4
 5179 0d19 25       		.uleb128 0x25
 5180 0d1a 22       		.byte	0x22
 5181 0d1b 9F       		.byte	0x9f
 5182 0d1c 93       		.byte	0x93
 5183 0d1d 04       		.uleb128 0x4
 5184 0d1e 93       		.byte	0x93
 5185 0d1f 08       		.uleb128 0x8
 5186 0d20 81000000 		.4byte	.LVL123-1
 5187 0d24 2A010000 		.4byte	.LVL147
 5188 0d28 2100     		.2byte	0x21
 5189 0d2a F5       		.byte	0xf5
 5190 0d2b 09       		.uleb128 0x9
 5191 0d2c 25       		.uleb128 0x25
 5192 0d2d F5       		.byte	0xf5
 5193 0d2e 07       		.uleb128 0x7
 5194 0d2f 25       		.uleb128 0x25
 5195 0d30 22       		.byte	0x22
 5196 0d31 F5       		.byte	0xf5
 5197 0d32 06       		.uleb128 0x6
 5198 0d33 25       		.uleb128 0x25
 5199 0d34 1C       		.byte	0x1c
 5200 0d35 9F       		.byte	0x9f
 5201 0d36 93       		.byte	0x93
 5202 0d37 04       		.uleb128 0x4
 5203 0d38 91       		.byte	0x91
 5204 0d39 DC7E     		.sleb128 -164
 5205 0d3b F6       		.byte	0xf6
ARM GAS  C:\Users\IVYLIU~1\AppData\Local\Temp\ccWLNWQl.s 			page 117


 5206 0d3c 04       		.byte	0x4
 5207 0d3d 25       		.uleb128 0x25
 5208 0d3e F5       		.byte	0xf5
 5209 0d3f 05       		.uleb128 0x5
 5210 0d40 25       		.uleb128 0x25
 5211 0d41 1C       		.byte	0x1c
 5212 0d42 F5       		.byte	0xf5
 5213 0d43 04       		.uleb128 0x4
 5214 0d44 25       		.uleb128 0x25
 5215 0d45 22       		.byte	0x22
 5216 0d46 9F       		.byte	0x9f
 5217 0d47 93       		.byte	0x93
 5218 0d48 04       		.uleb128 0x4
 5219 0d49 93       		.byte	0x93
 5220 0d4a 08       		.uleb128 0x8
 5221 0d4b 2A010000 		.4byte	.LVL147
 5222 0d4f 66010000 		.4byte	.LVL156
 5223 0d53 1500     		.2byte	0x15
 5224 0d55 93       		.byte	0x93
 5225 0d56 04       		.uleb128 0x4
 5226 0d57 91       		.byte	0x91
 5227 0d58 DC7E     		.sleb128 -164
 5228 0d5a F6       		.byte	0xf6
 5229 0d5b 04       		.byte	0x4
 5230 0d5c 25       		.uleb128 0x25
 5231 0d5d F5       		.byte	0xf5
 5232 0d5e 05       		.uleb128 0x5
 5233 0d5f 25       		.uleb128 0x25
 5234 0d60 1C       		.byte	0x1c
 5235 0d61 F5       		.byte	0xf5
 5236 0d62 04       		.uleb128 0x4
 5237 0d63 25       		.uleb128 0x25
 5238 0d64 22       		.byte	0x22
 5239 0d65 9F       		.byte	0x9f
 5240 0d66 93       		.byte	0x93
 5241 0d67 04       		.uleb128 0x4
 5242 0d68 93       		.byte	0x93
 5243 0d69 08       		.uleb128 0x8
 5244 0d6a 02020000 		.4byte	.LVL172
 5245 0d6e 10020000 		.4byte	.LVL173
 5246 0d72 0500     		.2byte	0x5
 5247 0d74 50       		.byte	0x50
 5248 0d75 93       		.byte	0x93
 5249 0d76 04       		.uleb128 0x4
 5250 0d77 93       		.byte	0x93
 5251 0d78 0C       		.uleb128 0xc
 5252 0d79 10020000 		.4byte	.LVL173
 5253 0d7d 1E020000 		.4byte	.LVL176
 5254 0d81 0700     		.2byte	0x7
 5255 0d83 91       		.byte	0x91
 5256 0d84 9C7F     		.sleb128 -100
 5257 0d86 93       		.byte	0x93
 5258 0d87 04       		.uleb128 0x4
 5259 0d88 93       		.byte	0x93
 5260 0d89 0C       		.uleb128 0xc
 5261 0d8a 1E020000 		.4byte	.LVL176
 5262 0d8e 20020000 		.4byte	.LVL177
ARM GAS  C:\Users\IVYLIU~1\AppData\Local\Temp\ccWLNWQl.s 			page 118


 5263 0d92 0A00     		.2byte	0xa
 5264 0d94 91       		.byte	0x91
 5265 0d95 9C7F     		.sleb128 -100
 5266 0d97 93       		.byte	0x93
 5267 0d98 04       		.uleb128 0x4
 5268 0d99 50       		.byte	0x50
 5269 0d9a 93       		.byte	0x93
 5270 0d9b 04       		.uleb128 0x4
 5271 0d9c 93       		.byte	0x93
 5272 0d9d 08       		.uleb128 0x8
 5273 0d9e 20020000 		.4byte	.LVL177
 5274 0da2 EE020000 		.4byte	.LVL213
 5275 0da6 0C00     		.2byte	0xc
 5276 0da8 91       		.byte	0x91
 5277 0da9 9C7F     		.sleb128 -100
 5278 0dab 93       		.byte	0x93
 5279 0dac 04       		.uleb128 0x4
 5280 0dad 91       		.byte	0x91
 5281 0dae A07F     		.sleb128 -96
 5282 0db0 93       		.byte	0x93
 5283 0db1 04       		.uleb128 0x4
 5284 0db2 93       		.byte	0x93
 5285 0db3 08       		.uleb128 0x8
 5286 0db4 EE020000 		.4byte	.LVL213
 5287 0db8 F8020000 		.4byte	.LVL214
 5288 0dbc 0F00     		.2byte	0xf
 5289 0dbe 91       		.byte	0x91
 5290 0dbf 9C7F     		.sleb128 -100
 5291 0dc1 93       		.byte	0x93
 5292 0dc2 04       		.uleb128 0x4
 5293 0dc3 91       		.byte	0x91
 5294 0dc4 A07F     		.sleb128 -96
 5295 0dc6 93       		.byte	0x93
 5296 0dc7 04       		.uleb128 0x4
 5297 0dc8 50       		.byte	0x50
 5298 0dc9 93       		.byte	0x93
 5299 0dca 04       		.uleb128 0x4
 5300 0dcb 93       		.byte	0x93
 5301 0dcc 04       		.uleb128 0x4
 5302 0dcd F8020000 		.4byte	.LVL214
 5303 0dd1 06030000 		.4byte	.LVL217
 5304 0dd5 1100     		.2byte	0x11
 5305 0dd7 91       		.byte	0x91
 5306 0dd8 9C7F     		.sleb128 -100
 5307 0dda 93       		.byte	0x93
 5308 0ddb 04       		.uleb128 0x4
 5309 0ddc 91       		.byte	0x91
 5310 0ddd A07F     		.sleb128 -96
 5311 0ddf 93       		.byte	0x93
 5312 0de0 04       		.uleb128 0x4
 5313 0de1 91       		.byte	0x91
 5314 0de2 B87F     		.sleb128 -72
 5315 0de4 93       		.byte	0x93
 5316 0de5 04       		.uleb128 0x4
 5317 0de6 93       		.byte	0x93
 5318 0de7 04       		.uleb128 0x4
 5319 0de8 06030000 		.4byte	.LVL217
ARM GAS  C:\Users\IVYLIU~1\AppData\Local\Temp\ccWLNWQl.s 			page 119


 5320 0dec 08030000 		.4byte	.LVL218
 5321 0df0 1200     		.2byte	0x12
 5322 0df2 91       		.byte	0x91
 5323 0df3 9C7F     		.sleb128 -100
 5324 0df5 93       		.byte	0x93
 5325 0df6 04       		.uleb128 0x4
 5326 0df7 91       		.byte	0x91
 5327 0df8 A07F     		.sleb128 -96
 5328 0dfa 93       		.byte	0x93
 5329 0dfb 04       		.uleb128 0x4
 5330 0dfc 91       		.byte	0x91
 5331 0dfd B87F     		.sleb128 -72
 5332 0dff 93       		.byte	0x93
 5333 0e00 04       		.uleb128 0x4
 5334 0e01 50       		.byte	0x50
 5335 0e02 93       		.byte	0x93
 5336 0e03 04       		.uleb128 0x4
 5337 0e04 08030000 		.4byte	.LVL218
 5338 0e08 16050000 		.4byte	.LVL292
 5339 0e0c 1400     		.2byte	0x14
 5340 0e0e 91       		.byte	0x91
 5341 0e0f 9C7F     		.sleb128 -100
 5342 0e11 93       		.byte	0x93
 5343 0e12 04       		.uleb128 0x4
 5344 0e13 91       		.byte	0x91
 5345 0e14 A07F     		.sleb128 -96
 5346 0e16 93       		.byte	0x93
 5347 0e17 04       		.uleb128 0x4
 5348 0e18 91       		.byte	0x91
 5349 0e19 B87F     		.sleb128 -72
 5350 0e1b 93       		.byte	0x93
 5351 0e1c 04       		.uleb128 0x4
 5352 0e1d 91       		.byte	0x91
 5353 0e1e BC7F     		.sleb128 -68
 5354 0e20 93       		.byte	0x93
 5355 0e21 04       		.uleb128 0x4
 5356 0e22 B4050000 		.4byte	.LVL309
 5357 0e26 BC050000 		.4byte	.LVL310
 5358 0e2a 0500     		.2byte	0x5
 5359 0e2c 50       		.byte	0x50
 5360 0e2d 93       		.byte	0x93
 5361 0e2e 04       		.uleb128 0x4
 5362 0e2f 93       		.byte	0x93
 5363 0e30 0C       		.uleb128 0xc
 5364 0e31 BC050000 		.4byte	.LVL310
 5365 0e35 D0050000 		.4byte	.LVL313
 5366 0e39 0700     		.2byte	0x7
 5367 0e3b 91       		.byte	0x91
 5368 0e3c F87E     		.sleb128 -136
 5369 0e3e 93       		.byte	0x93
 5370 0e3f 04       		.uleb128 0x4
 5371 0e40 93       		.byte	0x93
 5372 0e41 0C       		.uleb128 0xc
 5373 0e42 D0050000 		.4byte	.LVL313
 5374 0e46 D2050000 		.4byte	.LVL314
 5375 0e4a 0A00     		.2byte	0xa
 5376 0e4c 91       		.byte	0x91
ARM GAS  C:\Users\IVYLIU~1\AppData\Local\Temp\ccWLNWQl.s 			page 120


 5377 0e4d F87E     		.sleb128 -136
 5378 0e4f 93       		.byte	0x93
 5379 0e50 04       		.uleb128 0x4
 5380 0e51 50       		.byte	0x50
 5381 0e52 93       		.byte	0x93
 5382 0e53 04       		.uleb128 0x4
 5383 0e54 93       		.byte	0x93
 5384 0e55 08       		.uleb128 0x8
 5385 0e56 D2050000 		.4byte	.LVL314
 5386 0e5a 4C070000 		.4byte	.LVL372
 5387 0e5e 0C00     		.2byte	0xc
 5388 0e60 91       		.byte	0x91
 5389 0e61 F87E     		.sleb128 -136
 5390 0e63 93       		.byte	0x93
 5391 0e64 04       		.uleb128 0x4
 5392 0e65 91       		.byte	0x91
 5393 0e66 947F     		.sleb128 -108
 5394 0e68 93       		.byte	0x93
 5395 0e69 04       		.uleb128 0x4
 5396 0e6a 93       		.byte	0x93
 5397 0e6b 08       		.uleb128 0x8
 5398 0e6c 4C070000 		.4byte	.LVL372
 5399 0e70 50070000 		.4byte	.LFE85
 5400 0e74 0C00     		.2byte	0xc
 5401 0e76 7D       		.byte	0x7d
 5402 0e77 F87E     		.sleb128 -136
 5403 0e79 93       		.byte	0x93
 5404 0e7a 04       		.uleb128 0x4
 5405 0e7b 7D       		.byte	0x7d
 5406 0e7c 947F     		.sleb128 -108
 5407 0e7e 93       		.byte	0x93
 5408 0e7f 04       		.uleb128 0x4
 5409 0e80 93       		.byte	0x93
 5410 0e81 08       		.uleb128 0x8
 5411 0e82 00000000 		.4byte	0
 5412 0e86 00000000 		.4byte	0
 5413              	.LLST38:
 5414 0e8a 7E000000 		.4byte	.LVL122
 5415 0e8e 81000000 		.4byte	.LVL123-1
 5416 0e92 1E00     		.2byte	0x1e
 5417 0e94 F5       		.byte	0xf5
 5418 0e95 0B       		.uleb128 0xb
 5419 0e96 25       		.uleb128 0x25
 5420 0e97 F5       		.byte	0xf5
 5421 0e98 01       		.uleb128 0x1
 5422 0e99 25       		.uleb128 0x25
 5423 0e9a 1C       		.byte	0x1c
 5424 0e9b F5       		.byte	0xf5
 5425 0e9c 04       		.uleb128 0x4
 5426 0e9d 25       		.uleb128 0x25
 5427 0e9e 1C       		.byte	0x1c
 5428 0e9f 9F       		.byte	0x9f
 5429 0ea0 93       		.byte	0x93
 5430 0ea1 04       		.uleb128 0x4
 5431 0ea2 F5       		.byte	0xf5
 5432 0ea3 0A       		.uleb128 0xa
 5433 0ea4 25       		.uleb128 0x25
ARM GAS  C:\Users\IVYLIU~1\AppData\Local\Temp\ccWLNWQl.s 			page 121


 5434 0ea5 F5       		.byte	0xf5
 5435 0ea6 07       		.uleb128 0x7
 5436 0ea7 25       		.uleb128 0x25
 5437 0ea8 1C       		.byte	0x1c
 5438 0ea9 F5       		.byte	0xf5
 5439 0eaa 06       		.uleb128 0x6
 5440 0eab 25       		.uleb128 0x25
 5441 0eac 1C       		.byte	0x1c
 5442 0ead 9F       		.byte	0x9f
 5443 0eae 93       		.byte	0x93
 5444 0eaf 04       		.uleb128 0x4
 5445 0eb0 93       		.byte	0x93
 5446 0eb1 08       		.uleb128 0x8
 5447 0eb2 81000000 		.4byte	.LVL123-1
 5448 0eb6 2C010000 		.4byte	.LVL148
 5449 0eba 1E00     		.2byte	0x1e
 5450 0ebc F5       		.byte	0xf5
 5451 0ebd 0B       		.uleb128 0xb
 5452 0ebe 25       		.uleb128 0x25
 5453 0ebf F5       		.byte	0xf5
 5454 0ec0 05       		.uleb128 0x5
 5455 0ec1 25       		.uleb128 0x25
 5456 0ec2 1C       		.byte	0x1c
 5457 0ec3 F5       		.byte	0xf5
 5458 0ec4 04       		.uleb128 0x4
 5459 0ec5 25       		.uleb128 0x25
 5460 0ec6 1C       		.byte	0x1c
 5461 0ec7 9F       		.byte	0x9f
 5462 0ec8 93       		.byte	0x93
 5463 0ec9 04       		.uleb128 0x4
 5464 0eca F5       		.byte	0xf5
 5465 0ecb 0A       		.uleb128 0xa
 5466 0ecc 25       		.uleb128 0x25
 5467 0ecd F5       		.byte	0xf5
 5468 0ece 07       		.uleb128 0x7
 5469 0ecf 25       		.uleb128 0x25
 5470 0ed0 1C       		.byte	0x1c
 5471 0ed1 F5       		.byte	0xf5
 5472 0ed2 06       		.uleb128 0x6
 5473 0ed3 25       		.uleb128 0x25
 5474 0ed4 1C       		.byte	0x1c
 5475 0ed5 9F       		.byte	0x9f
 5476 0ed6 93       		.byte	0x93
 5477 0ed7 04       		.uleb128 0x4
 5478 0ed8 93       		.byte	0x93
 5479 0ed9 08       		.uleb128 0x8
 5480 0eda 2C010000 		.4byte	.LVL148
 5481 0ede 66010000 		.4byte	.LVL156
 5482 0ee2 1000     		.2byte	0x10
 5483 0ee4 F5       		.byte	0xf5
 5484 0ee5 0B       		.uleb128 0xb
 5485 0ee6 25       		.uleb128 0x25
 5486 0ee7 F5       		.byte	0xf5
 5487 0ee8 05       		.uleb128 0x5
 5488 0ee9 25       		.uleb128 0x25
 5489 0eea 1C       		.byte	0x1c
 5490 0eeb F5       		.byte	0xf5
ARM GAS  C:\Users\IVYLIU~1\AppData\Local\Temp\ccWLNWQl.s 			page 122


 5491 0eec 04       		.uleb128 0x4
 5492 0eed 25       		.uleb128 0x25
 5493 0eee 1C       		.byte	0x1c
 5494 0eef 9F       		.byte	0x9f
 5495 0ef0 93       		.byte	0x93
 5496 0ef1 04       		.uleb128 0x4
 5497 0ef2 93       		.byte	0x93
 5498 0ef3 0C       		.uleb128 0xc
 5499 0ef4 2E020000 		.4byte	.LVL180
 5500 0ef8 30020000 		.4byte	.LVL181
 5501 0efc 0500     		.2byte	0x5
 5502 0efe 50       		.byte	0x50
 5503 0eff 93       		.byte	0x93
 5504 0f00 04       		.uleb128 0x4
 5505 0f01 93       		.byte	0x93
 5506 0f02 0C       		.uleb128 0xc
 5507 0f03 30020000 		.4byte	.LVL181
 5508 0f07 3E020000 		.4byte	.LVL184
 5509 0f0b 0700     		.2byte	0x7
 5510 0f0d 91       		.byte	0x91
 5511 0f0e A47F     		.sleb128 -92
 5512 0f10 93       		.byte	0x93
 5513 0f11 04       		.uleb128 0x4
 5514 0f12 93       		.byte	0x93
 5515 0f13 0C       		.uleb128 0xc
 5516 0f14 3E020000 		.4byte	.LVL184
 5517 0f18 40020000 		.4byte	.LVL185
 5518 0f1c 0A00     		.2byte	0xa
 5519 0f1e 91       		.byte	0x91
 5520 0f1f A47F     		.sleb128 -92
 5521 0f21 93       		.byte	0x93
 5522 0f22 04       		.uleb128 0x4
 5523 0f23 50       		.byte	0x50
 5524 0f24 93       		.byte	0x93
 5525 0f25 04       		.uleb128 0x4
 5526 0f26 93       		.byte	0x93
 5527 0f27 08       		.uleb128 0x8
 5528 0f28 40020000 		.4byte	.LVL185
 5529 0f2c 16030000 		.4byte	.LVL221
 5530 0f30 0C00     		.2byte	0xc
 5531 0f32 91       		.byte	0x91
 5532 0f33 A47F     		.sleb128 -92
 5533 0f35 93       		.byte	0x93
 5534 0f36 04       		.uleb128 0x4
 5535 0f37 91       		.byte	0x91
 5536 0f38 A87F     		.sleb128 -88
 5537 0f3a 93       		.byte	0x93
 5538 0f3b 04       		.uleb128 0x4
 5539 0f3c 93       		.byte	0x93
 5540 0f3d 08       		.uleb128 0x8
 5541 0f3e 16030000 		.4byte	.LVL221
 5542 0f42 18030000 		.4byte	.LVL222
 5543 0f46 0F00     		.2byte	0xf
 5544 0f48 91       		.byte	0x91
 5545 0f49 A47F     		.sleb128 -92
 5546 0f4b 93       		.byte	0x93
 5547 0f4c 04       		.uleb128 0x4
ARM GAS  C:\Users\IVYLIU~1\AppData\Local\Temp\ccWLNWQl.s 			page 123


 5548 0f4d 91       		.byte	0x91
 5549 0f4e A87F     		.sleb128 -88
 5550 0f50 93       		.byte	0x93
 5551 0f51 04       		.uleb128 0x4
 5552 0f52 50       		.byte	0x50
 5553 0f53 93       		.byte	0x93
 5554 0f54 04       		.uleb128 0x4
 5555 0f55 93       		.byte	0x93
 5556 0f56 04       		.uleb128 0x4
 5557 0f57 18030000 		.4byte	.LVL222
 5558 0f5b 28030000 		.4byte	.LVL225
 5559 0f5f 1000     		.2byte	0x10
 5560 0f61 91       		.byte	0x91
 5561 0f62 A47F     		.sleb128 -92
 5562 0f64 93       		.byte	0x93
 5563 0f65 04       		.uleb128 0x4
 5564 0f66 91       		.byte	0x91
 5565 0f67 A87F     		.sleb128 -88
 5566 0f69 93       		.byte	0x93
 5567 0f6a 04       		.uleb128 0x4
 5568 0f6b 91       		.byte	0x91
 5569 0f6c 40       		.sleb128 -64
 5570 0f6d 93       		.byte	0x93
 5571 0f6e 04       		.uleb128 0x4
 5572 0f6f 93       		.byte	0x93
 5573 0f70 04       		.uleb128 0x4
 5574 0f71 28030000 		.4byte	.LVL225
 5575 0f75 2A030000 		.4byte	.LVL226
 5576 0f79 1100     		.2byte	0x11
 5577 0f7b 91       		.byte	0x91
 5578 0f7c A47F     		.sleb128 -92
 5579 0f7e 93       		.byte	0x93
 5580 0f7f 04       		.uleb128 0x4
 5581 0f80 91       		.byte	0x91
 5582 0f81 A87F     		.sleb128 -88
 5583 0f83 93       		.byte	0x93
 5584 0f84 04       		.uleb128 0x4
 5585 0f85 91       		.byte	0x91
 5586 0f86 40       		.sleb128 -64
 5587 0f87 93       		.byte	0x93
 5588 0f88 04       		.uleb128 0x4
 5589 0f89 50       		.byte	0x50
 5590 0f8a 93       		.byte	0x93
 5591 0f8b 04       		.uleb128 0x4
 5592 0f8c 2A030000 		.4byte	.LVL226
 5593 0f90 16050000 		.4byte	.LVL292
 5594 0f94 1200     		.2byte	0x12
 5595 0f96 91       		.byte	0x91
 5596 0f97 A47F     		.sleb128 -92
 5597 0f99 93       		.byte	0x93
 5598 0f9a 04       		.uleb128 0x4
 5599 0f9b 91       		.byte	0x91
 5600 0f9c A87F     		.sleb128 -88
 5601 0f9e 93       		.byte	0x93
 5602 0f9f 04       		.uleb128 0x4
 5603 0fa0 91       		.byte	0x91
 5604 0fa1 40       		.sleb128 -64
ARM GAS  C:\Users\IVYLIU~1\AppData\Local\Temp\ccWLNWQl.s 			page 124


 5605 0fa2 93       		.byte	0x93
 5606 0fa3 04       		.uleb128 0x4
 5607 0fa4 91       		.byte	0x91
 5608 0fa5 44       		.sleb128 -60
 5609 0fa6 93       		.byte	0x93
 5610 0fa7 04       		.uleb128 0x4
 5611 0fa8 E0050000 		.4byte	.LVL317
 5612 0fac E2050000 		.4byte	.LVL318
 5613 0fb0 0500     		.2byte	0x5
 5614 0fb2 50       		.byte	0x50
 5615 0fb3 93       		.byte	0x93
 5616 0fb4 04       		.uleb128 0x4
 5617 0fb5 93       		.byte	0x93
 5618 0fb6 0C       		.uleb128 0xc
 5619 0fb7 E2050000 		.4byte	.LVL318
 5620 0fbb F0050000 		.4byte	.LVL321
 5621 0fbf 0700     		.2byte	0x7
 5622 0fc1 91       		.byte	0x91
 5623 0fc2 987F     		.sleb128 -104
 5624 0fc4 93       		.byte	0x93
 5625 0fc5 04       		.uleb128 0x4
 5626 0fc6 93       		.byte	0x93
 5627 0fc7 0C       		.uleb128 0xc
 5628 0fc8 F0050000 		.4byte	.LVL321
 5629 0fcc F2050000 		.4byte	.LVL322
 5630 0fd0 0A00     		.2byte	0xa
 5631 0fd2 91       		.byte	0x91
 5632 0fd3 987F     		.sleb128 -104
 5633 0fd5 93       		.byte	0x93
 5634 0fd6 04       		.uleb128 0x4
 5635 0fd7 50       		.byte	0x50
 5636 0fd8 93       		.byte	0x93
 5637 0fd9 04       		.uleb128 0x4
 5638 0fda 93       		.byte	0x93
 5639 0fdb 08       		.uleb128 0x8
 5640 0fdc F2050000 		.4byte	.LVL322
 5641 0fe0 4C070000 		.4byte	.LVL372
 5642 0fe4 0C00     		.2byte	0xc
 5643 0fe6 91       		.byte	0x91
 5644 0fe7 987F     		.sleb128 -104
 5645 0fe9 93       		.byte	0x93
 5646 0fea 04       		.uleb128 0x4
 5647 0feb 91       		.byte	0x91
 5648 0fec 9C7F     		.sleb128 -100
 5649 0fee 93       		.byte	0x93
 5650 0fef 04       		.uleb128 0x4
 5651 0ff0 93       		.byte	0x93
 5652 0ff1 08       		.uleb128 0x8
 5653 0ff2 4C070000 		.4byte	.LVL372
 5654 0ff6 50070000 		.4byte	.LFE85
 5655 0ffa 0C00     		.2byte	0xc
 5656 0ffc 7D       		.byte	0x7d
 5657 0ffd 987F     		.sleb128 -104
 5658 0fff 93       		.byte	0x93
 5659 1000 04       		.uleb128 0x4
 5660 1001 7D       		.byte	0x7d
 5661 1002 9C7F     		.sleb128 -100
ARM GAS  C:\Users\IVYLIU~1\AppData\Local\Temp\ccWLNWQl.s 			page 125


 5662 1004 93       		.byte	0x93
 5663 1005 04       		.uleb128 0x4
 5664 1006 93       		.byte	0x93
 5665 1007 08       		.uleb128 0x8
 5666 1008 00000000 		.4byte	0
 5667 100c 00000000 		.4byte	0
 5668              	.LLST39:
 5669 1010 7E000000 		.4byte	.LVL122
 5670 1014 81000000 		.4byte	.LVL123-1
 5671 1018 2100     		.2byte	0x21
 5672 101a F5       		.byte	0xf5
 5673 101b 09       		.uleb128 0x9
 5674 101c 25       		.uleb128 0x25
 5675 101d F5       		.byte	0xf5
 5676 101e 07       		.uleb128 0x7
 5677 101f 25       		.uleb128 0x25
 5678 1020 1C       		.byte	0x1c
 5679 1021 F5       		.byte	0xf5
 5680 1022 06       		.uleb128 0x6
 5681 1023 25       		.uleb128 0x25
 5682 1024 22       		.byte	0x22
 5683 1025 9F       		.byte	0x9f
 5684 1026 93       		.byte	0x93
 5685 1027 04       		.uleb128 0x4
 5686 1028 91       		.byte	0x91
 5687 1029 DC7E     		.sleb128 -164
 5688 102b F6       		.byte	0xf6
 5689 102c 04       		.byte	0x4
 5690 102d 25       		.uleb128 0x25
 5691 102e F5       		.byte	0xf5
 5692 102f 01       		.uleb128 0x1
 5693 1030 25       		.uleb128 0x25
 5694 1031 22       		.byte	0x22
 5695 1032 F5       		.byte	0xf5
 5696 1033 04       		.uleb128 0x4
 5697 1034 25       		.uleb128 0x25
 5698 1035 1C       		.byte	0x1c
 5699 1036 9F       		.byte	0x9f
 5700 1037 93       		.byte	0x93
 5701 1038 04       		.uleb128 0x4
 5702 1039 93       		.byte	0x93
 5703 103a 08       		.uleb128 0x8
 5704 103b 81000000 		.4byte	.LVL123-1
 5705 103f 2A010000 		.4byte	.LVL147
 5706 1043 2100     		.2byte	0x21
 5707 1045 F5       		.byte	0xf5
 5708 1046 09       		.uleb128 0x9
 5709 1047 25       		.uleb128 0x25
 5710 1048 F5       		.byte	0xf5
 5711 1049 07       		.uleb128 0x7
 5712 104a 25       		.uleb128 0x25
 5713 104b 1C       		.byte	0x1c
 5714 104c F5       		.byte	0xf5
 5715 104d 06       		.uleb128 0x6
 5716 104e 25       		.uleb128 0x25
 5717 104f 22       		.byte	0x22
 5718 1050 9F       		.byte	0x9f
ARM GAS  C:\Users\IVYLIU~1\AppData\Local\Temp\ccWLNWQl.s 			page 126


 5719 1051 93       		.byte	0x93
 5720 1052 04       		.uleb128 0x4
 5721 1053 91       		.byte	0x91
 5722 1054 DC7E     		.sleb128 -164
 5723 1056 F6       		.byte	0xf6
 5724 1057 04       		.byte	0x4
 5725 1058 25       		.uleb128 0x25
 5726 1059 F5       		.byte	0xf5
 5727 105a 05       		.uleb128 0x5
 5728 105b 25       		.uleb128 0x25
 5729 105c 22       		.byte	0x22
 5730 105d F5       		.byte	0xf5
 5731 105e 04       		.uleb128 0x4
 5732 105f 25       		.uleb128 0x25
 5733 1060 1C       		.byte	0x1c
 5734 1061 9F       		.byte	0x9f
 5735 1062 93       		.byte	0x93
 5736 1063 04       		.uleb128 0x4
 5737 1064 93       		.byte	0x93
 5738 1065 08       		.uleb128 0x8
 5739 1066 2A010000 		.4byte	.LVL147
 5740 106a 66010000 		.4byte	.LVL156
 5741 106e 1500     		.2byte	0x15
 5742 1070 93       		.byte	0x93
 5743 1071 04       		.uleb128 0x4
 5744 1072 91       		.byte	0x91
 5745 1073 DC7E     		.sleb128 -164
 5746 1075 F6       		.byte	0xf6
 5747 1076 04       		.byte	0x4
 5748 1077 25       		.uleb128 0x25
 5749 1078 F5       		.byte	0xf5
 5750 1079 05       		.uleb128 0x5
 5751 107a 25       		.uleb128 0x25
 5752 107b 22       		.byte	0x22
 5753 107c F5       		.byte	0xf5
 5754 107d 04       		.uleb128 0x4
 5755 107e 25       		.uleb128 0x25
 5756 107f 1C       		.byte	0x1c
 5757 1080 9F       		.byte	0x9f
 5758 1081 93       		.byte	0x93
 5759 1082 04       		.uleb128 0x4
 5760 1083 93       		.byte	0x93
 5761 1084 08       		.uleb128 0x8
 5762 1085 4E020000 		.4byte	.LVL188
 5763 1089 50020000 		.4byte	.LVL189
 5764 108d 0500     		.2byte	0x5
 5765 108f 50       		.byte	0x50
 5766 1090 93       		.byte	0x93
 5767 1091 04       		.uleb128 0x4
 5768 1092 93       		.byte	0x93
 5769 1093 0C       		.uleb128 0xc
 5770 1094 50020000 		.4byte	.LVL189
 5771 1098 5E020000 		.4byte	.LVL192
 5772 109c 0700     		.2byte	0x7
 5773 109e 91       		.byte	0x91
 5774 109f AC7F     		.sleb128 -84
 5775 10a1 93       		.byte	0x93
ARM GAS  C:\Users\IVYLIU~1\AppData\Local\Temp\ccWLNWQl.s 			page 127


 5776 10a2 04       		.uleb128 0x4
 5777 10a3 93       		.byte	0x93
 5778 10a4 0C       		.uleb128 0xc
 5779 10a5 5E020000 		.4byte	.LVL192
 5780 10a9 60020000 		.4byte	.LVL193
 5781 10ad 0A00     		.2byte	0xa
 5782 10af 91       		.byte	0x91
 5783 10b0 AC7F     		.sleb128 -84
 5784 10b2 93       		.byte	0x93
 5785 10b3 04       		.uleb128 0x4
 5786 10b4 50       		.byte	0x50
 5787 10b5 93       		.byte	0x93
 5788 10b6 04       		.uleb128 0x4
 5789 10b7 93       		.byte	0x93
 5790 10b8 08       		.uleb128 0x8
 5791 10b9 60020000 		.4byte	.LVL193
 5792 10bd 32030000 		.4byte	.LVL228
 5793 10c1 0C00     		.2byte	0xc
 5794 10c3 91       		.byte	0x91
 5795 10c4 AC7F     		.sleb128 -84
 5796 10c6 93       		.byte	0x93
 5797 10c7 04       		.uleb128 0x4
 5798 10c8 91       		.byte	0x91
 5799 10c9 987F     		.sleb128 -104
 5800 10cb 93       		.byte	0x93
 5801 10cc 04       		.uleb128 0x4
 5802 10cd 93       		.byte	0x93
 5803 10ce 08       		.uleb128 0x8
 5804 10cf 32030000 		.4byte	.LVL228
 5805 10d3 34030000 		.4byte	.LVL229
 5806 10d7 0F00     		.2byte	0xf
 5807 10d9 91       		.byte	0x91
 5808 10da AC7F     		.sleb128 -84
 5809 10dc 93       		.byte	0x93
 5810 10dd 04       		.uleb128 0x4
 5811 10de 91       		.byte	0x91
 5812 10df 987F     		.sleb128 -104
 5813 10e1 93       		.byte	0x93
 5814 10e2 04       		.uleb128 0x4
 5815 10e3 50       		.byte	0x50
 5816 10e4 93       		.byte	0x93
 5817 10e5 04       		.uleb128 0x4
 5818 10e6 93       		.byte	0x93
 5819 10e7 04       		.uleb128 0x4
 5820 10e8 34030000 		.4byte	.LVL229
 5821 10ec 42030000 		.4byte	.LVL232
 5822 10f0 0F00     		.2byte	0xf
 5823 10f2 91       		.byte	0x91
 5824 10f3 AC7F     		.sleb128 -84
 5825 10f5 93       		.byte	0x93
 5826 10f6 04       		.uleb128 0x4
 5827 10f7 91       		.byte	0x91
 5828 10f8 987F     		.sleb128 -104
 5829 10fa 93       		.byte	0x93
 5830 10fb 04       		.uleb128 0x4
 5831 10fc 5B       		.byte	0x5b
 5832 10fd 93       		.byte	0x93
ARM GAS  C:\Users\IVYLIU~1\AppData\Local\Temp\ccWLNWQl.s 			page 128


 5833 10fe 04       		.uleb128 0x4
 5834 10ff 93       		.byte	0x93
 5835 1100 04       		.uleb128 0x4
 5836 1101 42030000 		.4byte	.LVL232
 5837 1105 44030000 		.4byte	.LVL233
 5838 1109 1000     		.2byte	0x10
 5839 110b 91       		.byte	0x91
 5840 110c AC7F     		.sleb128 -84
 5841 110e 93       		.byte	0x93
 5842 110f 04       		.uleb128 0x4
 5843 1110 91       		.byte	0x91
 5844 1111 987F     		.sleb128 -104
 5845 1113 93       		.byte	0x93
 5846 1114 04       		.uleb128 0x4
 5847 1115 5B       		.byte	0x5b
 5848 1116 93       		.byte	0x93
 5849 1117 04       		.uleb128 0x4
 5850 1118 50       		.byte	0x50
 5851 1119 93       		.byte	0x93
 5852 111a 04       		.uleb128 0x4
 5853 111b 44030000 		.4byte	.LVL233
 5854 111f 16050000 		.4byte	.LVL292
 5855 1123 1000     		.2byte	0x10
 5856 1125 91       		.byte	0x91
 5857 1126 AC7F     		.sleb128 -84
 5858 1128 93       		.byte	0x93
 5859 1129 04       		.uleb128 0x4
 5860 112a 91       		.byte	0x91
 5861 112b 987F     		.sleb128 -104
 5862 112d 93       		.byte	0x93
 5863 112e 04       		.uleb128 0x4
 5864 112f 5B       		.byte	0x5b
 5865 1130 93       		.byte	0x93
 5866 1131 04       		.uleb128 0x4
 5867 1132 56       		.byte	0x56
 5868 1133 93       		.byte	0x93
 5869 1134 04       		.uleb128 0x4
 5870 1135 00060000 		.4byte	.LVL325
 5871 1139 02060000 		.4byte	.LVL326
 5872 113d 0500     		.2byte	0x5
 5873 113f 50       		.byte	0x50
 5874 1140 93       		.byte	0x93
 5875 1141 04       		.uleb128 0x4
 5876 1142 93       		.byte	0x93
 5877 1143 0C       		.uleb128 0xc
 5878 1144 02060000 		.4byte	.LVL326
 5879 1148 10060000 		.4byte	.LVL329
 5880 114c 0500     		.2byte	0x5
 5881 114e 5B       		.byte	0x5b
 5882 114f 93       		.byte	0x93
 5883 1150 04       		.uleb128 0x4
 5884 1151 93       		.byte	0x93
 5885 1152 0C       		.uleb128 0xc
 5886 1153 10060000 		.4byte	.LVL329
 5887 1157 12060000 		.4byte	.LVL330
 5888 115b 0800     		.2byte	0x8
 5889 115d 5B       		.byte	0x5b
ARM GAS  C:\Users\IVYLIU~1\AppData\Local\Temp\ccWLNWQl.s 			page 129


 5890 115e 93       		.byte	0x93
 5891 115f 04       		.uleb128 0x4
 5892 1160 50       		.byte	0x50
 5893 1161 93       		.byte	0x93
 5894 1162 04       		.uleb128 0x4
 5895 1163 93       		.byte	0x93
 5896 1164 08       		.uleb128 0x8
 5897 1165 12060000 		.4byte	.LVL330
 5898 1169 4C070000 		.4byte	.LVL372
 5899 116d 0800     		.2byte	0x8
 5900 116f 5B       		.byte	0x5b
 5901 1170 93       		.byte	0x93
 5902 1171 04       		.uleb128 0x4
 5903 1172 56       		.byte	0x56
 5904 1173 93       		.byte	0x93
 5905 1174 04       		.uleb128 0x4
 5906 1175 93       		.byte	0x93
 5907 1176 08       		.uleb128 0x8
 5908 1177 00000000 		.4byte	0
 5909 117b 00000000 		.4byte	0
 5910              	.LLST40:
 5911 117f 72030000 		.4byte	.LVL239
 5912 1183 16050000 		.4byte	.LVL292
 5913 1187 0100     		.2byte	0x1
 5914 1189 54       		.byte	0x54
 5915 118a 3E060000 		.4byte	.LVL336
 5916 118e 6C060000 		.4byte	.LVL343
 5917 1192 0100     		.2byte	0x1
 5918 1194 55       		.byte	0x55
 5919 1195 86060000 		.4byte	.LVL346
 5920 1199 B6060000 		.4byte	.LVL354
 5921 119d 0100     		.2byte	0x1
 5922 119f 55       		.byte	0x55
 5923 11a0 D0060000 		.4byte	.LVL357
 5924 11a4 FE060000 		.4byte	.LVL364
 5925 11a8 0100     		.2byte	0x1
 5926 11aa 55       		.byte	0x55
 5927 11ab 00000000 		.4byte	0
 5928 11af 00000000 		.4byte	0
 5929              	.LLST41:
 5930 11b3 78030000 		.4byte	.LVL241
 5931 11b7 DE030000 		.4byte	.LVL254
 5932 11bb 0100     		.2byte	0x1
 5933 11bd 55       		.byte	0x55
 5934 11be 02040000 		.4byte	.LVL258
 5935 11c2 70040000 		.4byte	.LVL272
 5936 11c6 0100     		.2byte	0x1
 5937 11c8 55       		.byte	0x55
 5938 11c9 98040000 		.4byte	.LVL276
 5939 11cd FE040000 		.4byte	.LVL288
 5940 11d1 0100     		.2byte	0x1
 5941 11d3 55       		.byte	0x55
 5942 11d4 44060000 		.4byte	.LVL337
 5943 11d8 14070000 		.4byte	.LVL367
 5944 11dc 0100     		.2byte	0x1
 5945 11de 54       		.byte	0x54
 5946 11df 00000000 		.4byte	0
ARM GAS  C:\Users\IVYLIU~1\AppData\Local\Temp\ccWLNWQl.s 			page 130


 5947 11e3 00000000 		.4byte	0
 5948              	.LLST42:
 5949 11e7 42000000 		.4byte	.LVL110
 5950 11eb 44000000 		.4byte	.LVL111
 5951 11ef 0100     		.2byte	0x1
 5952 11f1 50       		.byte	0x50
 5953 11f2 44000000 		.4byte	.LVL111
 5954 11f6 66010000 		.4byte	.LVL156
 5955 11fa 0100     		.2byte	0x1
 5956 11fc 5B       		.byte	0x5b
 5957 11fd BC010000 		.4byte	.LVL159
 5958 1201 BE010000 		.4byte	.LVL160
 5959 1205 0100     		.2byte	0x1
 5960 1207 50       		.byte	0x50
 5961 1208 BE010000 		.4byte	.LVL160
 5962 120c A4020000 		.4byte	.LVL199
 5963 1210 0100     		.2byte	0x1
 5964 1212 58       		.byte	0x58
 5965 1213 CA020000 		.4byte	.LVL206
 5966 1217 CC020000 		.4byte	.LVL207
 5967 121b 0100     		.2byte	0x1
 5968 121d 50       		.byte	0x50
 5969 121e CC020000 		.4byte	.LVL207
 5970 1222 16050000 		.4byte	.LVL292
 5971 1226 0300     		.2byte	0x3
 5972 1228 91       		.byte	0x91
 5973 1229 B07F     		.sleb128 -80
 5974 122b 76050000 		.4byte	.LVL296
 5975 122f 78050000 		.4byte	.LVL297
 5976 1233 0100     		.2byte	0x1
 5977 1235 50       		.byte	0x50
 5978 1236 78050000 		.4byte	.LVL297
 5979 123a 4C070000 		.4byte	.LVL372
 5980 123e 0300     		.2byte	0x3
 5981 1240 91       		.byte	0x91
 5982 1241 E87E     		.sleb128 -152
 5983 1243 4C070000 		.4byte	.LVL372
 5984 1247 50070000 		.4byte	.LFE85
 5985 124b 0300     		.2byte	0x3
 5986 124d 7D       		.byte	0x7d
 5987 124e E87E     		.sleb128 -152
 5988 1250 00000000 		.4byte	0
 5989 1254 00000000 		.4byte	0
 5990              	.LLST43:
 5991 1258 4C000000 		.4byte	.LVL113
 5992 125c 52000000 		.4byte	.LVL114
 5993 1260 0100     		.2byte	0x1
 5994 1262 50       		.byte	0x50
 5995 1263 52000000 		.4byte	.LVL114
 5996 1267 2A010000 		.4byte	.LVL147
 5997 126b 0100     		.2byte	0x1
 5998 126d 59       		.byte	0x59
 5999 126e C6010000 		.4byte	.LVL162
 6000 1272 CE010000 		.4byte	.LVL163
 6001 1276 0100     		.2byte	0x1
 6002 1278 50       		.byte	0x50
 6003 1279 CE010000 		.4byte	.LVL163
ARM GAS  C:\Users\IVYLIU~1\AppData\Local\Temp\ccWLNWQl.s 			page 131


 6004 127d C2020000 		.4byte	.LVL204
 6005 1281 0300     		.2byte	0x3
 6006 1283 91       		.byte	0x91
 6007 1284 947F     		.sleb128 -108
 6008 1286 D4020000 		.4byte	.LVL209
 6009 128a DA020000 		.4byte	.LVL210
 6010 128e 0100     		.2byte	0x1
 6011 1290 50       		.byte	0x50
 6012 1291 DA020000 		.4byte	.LVL210
 6013 1295 16050000 		.4byte	.LVL292
 6014 1299 0300     		.2byte	0x3
 6015 129b 91       		.byte	0x91
 6016 129c B47F     		.sleb128 -76
 6017 129e 80050000 		.4byte	.LVL299
 6018 12a2 86050000 		.4byte	.LVL300
 6019 12a6 0100     		.2byte	0x1
 6020 12a8 50       		.byte	0x50
 6021 12a9 86050000 		.4byte	.LVL300
 6022 12ad 00060000 		.4byte	.LVL325
 6023 12b1 0100     		.2byte	0x1
 6024 12b3 5B       		.byte	0x5b
 6025 12b4 00000000 		.4byte	0
 6026 12b8 00000000 		.4byte	0
 6027              	.LLST44:
 6028 12bc 5E000000 		.4byte	.LVL116
 6029 12c0 60000000 		.4byte	.LVL117
 6030 12c4 0100     		.2byte	0x1
 6031 12c6 50       		.byte	0x50
 6032 12c7 60000000 		.4byte	.LVL117
 6033 12cb 2C010000 		.4byte	.LVL148
 6034 12cf 0100     		.2byte	0x1
 6035 12d1 5A       		.byte	0x5a
 6036 12d2 DC010000 		.4byte	.LVL165
 6037 12d6 DE010000 		.4byte	.LVL166
 6038 12da 0100     		.2byte	0x1
 6039 12dc 50       		.byte	0x50
 6040 12dd DE010000 		.4byte	.LVL166
 6041 12e1 A4020000 		.4byte	.LVL199
 6042 12e5 0100     		.2byte	0x1
 6043 12e7 57       		.byte	0x57
 6044 12e8 A4020000 		.4byte	.LVL199
 6045 12ec A6020000 		.4byte	.LVL200
 6046 12f0 0100     		.2byte	0x1
 6047 12f2 50       		.byte	0x50
 6048 12f3 A6020000 		.4byte	.LVL200
 6049 12f7 80030000 		.4byte	.LVL243
 6050 12fb 0100     		.2byte	0x1
 6051 12fd 58       		.byte	0x58
 6052 12fe 92050000 		.4byte	.LVL302
 6053 1302 94050000 		.4byte	.LVL303
 6054 1306 0100     		.2byte	0x1
 6055 1308 50       		.byte	0x50
 6056 1309 94050000 		.4byte	.LVL303
 6057 130d 4C070000 		.4byte	.LVL372
 6058 1311 0300     		.2byte	0x3
 6059 1313 91       		.byte	0x91
 6060 1314 F07E     		.sleb128 -144
ARM GAS  C:\Users\IVYLIU~1\AppData\Local\Temp\ccWLNWQl.s 			page 132


 6061 1316 4C070000 		.4byte	.LVL372
 6062 131a 50070000 		.4byte	.LFE85
 6063 131e 0300     		.2byte	0x3
 6064 1320 7D       		.byte	0x7d
 6065 1321 F07E     		.sleb128 -144
 6066 1323 00000000 		.4byte	0
 6067 1327 00000000 		.4byte	0
 6068              	.LLST45:
 6069 132b 68000000 		.4byte	.LVL119
 6070 132f 6E000000 		.4byte	.LVL120
 6071 1333 0100     		.2byte	0x1
 6072 1335 50       		.byte	0x50
 6073 1336 6E000000 		.4byte	.LVL120
 6074 133a 66010000 		.4byte	.LVL156
 6075 133e 0300     		.2byte	0x3
 6076 1340 91       		.byte	0x91
 6077 1341 DC7E     		.sleb128 -164
 6078 1343 E6010000 		.4byte	.LVL168
 6079 1347 F4010000 		.4byte	.LVL169
 6080 134b 0100     		.2byte	0x1
 6081 134d 50       		.byte	0x50
 6082 134e F4010000 		.4byte	.LVL169
 6083 1352 5E020000 		.4byte	.LVL192
 6084 1356 0300     		.2byte	0x3
 6085 1358 91       		.byte	0x91
 6086 1359 987F     		.sleb128 -104
 6087 135b AE020000 		.4byte	.LVL202
 6088 135f BC020000 		.4byte	.LVL203
 6089 1363 0100     		.2byte	0x1
 6090 1365 50       		.byte	0x50
 6091 1366 BC020000 		.4byte	.LVL203
 6092 136a 32030000 		.4byte	.LVL228
 6093 136e 0100     		.2byte	0x1
 6094 1370 5B       		.byte	0x5b
 6095 1371 A2050000 		.4byte	.LVL305
 6096 1375 A6050000 		.4byte	.LVL306
 6097 1379 0100     		.2byte	0x1
 6098 137b 50       		.byte	0x50
 6099 137c A6050000 		.4byte	.LVL306
 6100 1380 4C070000 		.4byte	.LVL372
 6101 1384 0300     		.2byte	0x3
 6102 1386 91       		.byte	0x91
 6103 1387 F47E     		.sleb128 -140
 6104 1389 4C070000 		.4byte	.LVL372
 6105 138d 50070000 		.4byte	.LFE85
 6106 1391 0300     		.2byte	0x3
 6107 1393 7D       		.byte	0x7d
 6108 1394 F47E     		.sleb128 -140
 6109 1396 00000000 		.4byte	0
 6110 139a 00000000 		.4byte	0
 6111              	.LLST46:
 6112 139e 78030000 		.4byte	.LVL241
 6113 13a2 B6030000 		.4byte	.LVL249
 6114 13a6 0B00     		.2byte	0xb
 6115 13a8 91       		.byte	0x91
 6116 13a9 9C7F     		.sleb128 -100
 6117 13ab F6       		.byte	0xf6
ARM GAS  C:\Users\IVYLIU~1\AppData\Local\Temp\ccWLNWQl.s 			page 133


 6118 13ac 04       		.byte	0x4
 6119 13ad 25       		.uleb128 0x25
 6120 13ae F5       		.byte	0xf5
 6121 13af 04       		.uleb128 0x4
 6122 13b0 25       		.uleb128 0x25
 6123 13b1 1E       		.byte	0x1e
 6124 13b2 9F       		.byte	0x9f
 6125 13b3 B6030000 		.4byte	.LVL249
 6126 13b7 DE030000 		.4byte	.LVL254
 6127 13bb 0B00     		.2byte	0xb
 6128 13bd 91       		.byte	0x91
 6129 13be BC7F     		.sleb128 -68
 6130 13c0 F6       		.byte	0xf6
 6131 13c1 04       		.byte	0x4
 6132 13c2 25       		.uleb128 0x25
 6133 13c3 F5       		.byte	0xf5
 6134 13c4 05       		.uleb128 0x5
 6135 13c5 25       		.uleb128 0x25
 6136 13c6 1E       		.byte	0x1e
 6137 13c7 9F       		.byte	0x9f
 6138 13c8 02040000 		.4byte	.LVL258
 6139 13cc 40040000 		.4byte	.LVL265
 6140 13d0 0B00     		.2byte	0xb
 6141 13d2 91       		.byte	0x91
 6142 13d3 A47F     		.sleb128 -92
 6143 13d5 F6       		.byte	0xf6
 6144 13d6 04       		.byte	0x4
 6145 13d7 25       		.uleb128 0x25
 6146 13d8 F5       		.byte	0xf5
 6147 13d9 04       		.uleb128 0x4
 6148 13da 25       		.uleb128 0x25
 6149 13db 1E       		.byte	0x1e
 6150 13dc 9F       		.byte	0x9f
 6151 13dd 40040000 		.4byte	.LVL265
 6152 13e1 8C040000 		.4byte	.LVL275
 6153 13e5 0B00     		.2byte	0xb
 6154 13e7 91       		.byte	0x91
 6155 13e8 44       		.sleb128 -60
 6156 13e9 F6       		.byte	0xf6
 6157 13ea 04       		.byte	0x4
 6158 13eb 25       		.uleb128 0x25
 6159 13ec 1F       		.byte	0x1f
 6160 13ed F5       		.byte	0xf5
 6161 13ee 04       		.uleb128 0x4
 6162 13ef 25       		.uleb128 0x25
 6163 13f0 1E       		.byte	0x1e
 6164 13f1 9F       		.byte	0x9f
 6165 13f2 98040000 		.4byte	.LVL276
 6166 13f6 D6040000 		.4byte	.LVL283
 6167 13fa 0B00     		.2byte	0xb
 6168 13fc 91       		.byte	0x91
 6169 13fd AC7F     		.sleb128 -84
 6170 13ff F6       		.byte	0xf6
 6171 1400 04       		.byte	0x4
 6172 1401 25       		.uleb128 0x25
 6173 1402 F5       		.byte	0xf5
 6174 1403 04       		.uleb128 0x4
ARM GAS  C:\Users\IVYLIU~1\AppData\Local\Temp\ccWLNWQl.s 			page 134


 6175 1404 25       		.uleb128 0x25
 6176 1405 1E       		.byte	0x1e
 6177 1406 9F       		.byte	0x9f
 6178 1407 D6040000 		.4byte	.LVL283
 6179 140b FE040000 		.4byte	.LVL288
 6180 140f 0800     		.2byte	0x8
 6181 1411 F5       		.byte	0xf5
 6182 1412 06       		.uleb128 0x6
 6183 1413 25       		.uleb128 0x25
 6184 1414 F5       		.byte	0xf5
 6185 1415 05       		.uleb128 0x5
 6186 1416 25       		.uleb128 0x25
 6187 1417 1E       		.byte	0x1e
 6188 1418 9F       		.byte	0x9f
 6189 1419 44060000 		.4byte	.LVL337
 6190 141d 6C060000 		.4byte	.LVL343
 6191 1421 0B00     		.2byte	0xb
 6192 1423 91       		.byte	0x91
 6193 1424 F87E     		.sleb128 -136
 6194 1426 F6       		.byte	0xf6
 6195 1427 04       		.byte	0x4
 6196 1428 25       		.uleb128 0x25
 6197 1429 F5       		.byte	0xf5
 6198 142a 05       		.uleb128 0x5
 6199 142b 25       		.uleb128 0x25
 6200 142c 1E       		.byte	0x1e
 6201 142d 9F       		.byte	0x9f
 6202 142e 8E060000 		.4byte	.LVL347
 6203 1432 B6060000 		.4byte	.LVL354
 6204 1436 0B00     		.2byte	0xb
 6205 1438 91       		.byte	0x91
 6206 1439 987F     		.sleb128 -104
 6207 143b F6       		.byte	0xf6
 6208 143c 04       		.byte	0x4
 6209 143d 25       		.uleb128 0x25
 6210 143e F5       		.byte	0xf5
 6211 143f 05       		.uleb128 0x5
 6212 1440 25       		.uleb128 0x25
 6213 1441 1E       		.byte	0x1e
 6214 1442 9F       		.byte	0x9f
 6215 1443 D6060000 		.4byte	.LVL358
 6216 1447 FE060000 		.4byte	.LVL364
 6217 144b 0800     		.2byte	0x8
 6218 144d F5       		.byte	0xf5
 6219 144e 0B       		.uleb128 0xb
 6220 144f 25       		.uleb128 0x25
 6221 1450 F5       		.byte	0xf5
 6222 1451 05       		.uleb128 0x5
 6223 1452 25       		.uleb128 0x25
 6224 1453 1E       		.byte	0x1e
 6225 1454 9F       		.byte	0x9f
 6226 1455 00000000 		.4byte	0
 6227 1459 00000000 		.4byte	0
 6228              	.LLST47:
 6229 145d 78030000 		.4byte	.LVL241
 6230 1461 B6030000 		.4byte	.LVL249
 6231 1465 0B00     		.2byte	0xb
ARM GAS  C:\Users\IVYLIU~1\AppData\Local\Temp\ccWLNWQl.s 			page 135


 6232 1467 91       		.byte	0x91
 6233 1468 A07F     		.sleb128 -96
 6234 146a F6       		.byte	0xf6
 6235 146b 04       		.byte	0x4
 6236 146c 25       		.uleb128 0x25
 6237 146d F5       		.byte	0xf5
 6238 146e 05       		.uleb128 0x5
 6239 146f 25       		.uleb128 0x25
 6240 1470 1E       		.byte	0x1e
 6241 1471 9F       		.byte	0x9f
 6242 1472 B6030000 		.4byte	.LVL249
 6243 1476 FA030000 		.4byte	.LVL257
 6244 147a 0B00     		.2byte	0xb
 6245 147c 91       		.byte	0x91
 6246 147d B87F     		.sleb128 -72
 6247 147f F6       		.byte	0xf6
 6248 1480 04       		.byte	0x4
 6249 1481 25       		.uleb128 0x25
 6250 1482 F5       		.byte	0xf5
 6251 1483 04       		.uleb128 0x4
 6252 1484 25       		.uleb128 0x25
 6253 1485 1E       		.byte	0x1e
 6254 1486 9F       		.byte	0x9f
 6255 1487 02040000 		.4byte	.LVL258
 6256 148b 40040000 		.4byte	.LVL265
 6257 148f 0B00     		.2byte	0xb
 6258 1491 91       		.byte	0x91
 6259 1492 A87F     		.sleb128 -88
 6260 1494 F6       		.byte	0xf6
 6261 1495 04       		.byte	0x4
 6262 1496 25       		.uleb128 0x25
 6263 1497 F5       		.byte	0xf5
 6264 1498 05       		.uleb128 0x5
 6265 1499 25       		.uleb128 0x25
 6266 149a 1E       		.byte	0x1e
 6267 149b 9F       		.byte	0x9f
 6268 149c 40040000 		.4byte	.LVL265
 6269 14a0 70040000 		.4byte	.LVL272
 6270 14a4 0A00     		.2byte	0xa
 6271 14a6 91       		.byte	0x91
 6272 14a7 40       		.sleb128 -64
 6273 14a8 F6       		.byte	0xf6
 6274 14a9 04       		.byte	0x4
 6275 14aa 25       		.uleb128 0x25
 6276 14ab F5       		.byte	0xf5
 6277 14ac 05       		.uleb128 0x5
 6278 14ad 25       		.uleb128 0x25
 6279 14ae 1E       		.byte	0x1e
 6280 14af 9F       		.byte	0x9f
 6281 14b0 98040000 		.4byte	.LVL276
 6282 14b4 D6040000 		.4byte	.LVL283
 6283 14b8 0B00     		.2byte	0xb
 6284 14ba 91       		.byte	0x91
 6285 14bb 987F     		.sleb128 -104
 6286 14bd F6       		.byte	0xf6
 6287 14be 04       		.byte	0x4
 6288 14bf 25       		.uleb128 0x25
ARM GAS  C:\Users\IVYLIU~1\AppData\Local\Temp\ccWLNWQl.s 			page 136


 6289 14c0 F5       		.byte	0xf5
 6290 14c1 05       		.uleb128 0x5
 6291 14c2 25       		.uleb128 0x25
 6292 14c3 1E       		.byte	0x1e
 6293 14c4 9F       		.byte	0x9f
 6294 14c5 D6040000 		.4byte	.LVL283
 6295 14c9 16050000 		.4byte	.LVL292
 6296 14cd 0800     		.2byte	0x8
 6297 14cf F5       		.byte	0xf5
 6298 14d0 0B       		.uleb128 0xb
 6299 14d1 25       		.uleb128 0x25
 6300 14d2 F5       		.byte	0xf5
 6301 14d3 04       		.uleb128 0x4
 6302 14d4 25       		.uleb128 0x25
 6303 14d5 1E       		.byte	0x1e
 6304 14d6 9F       		.byte	0x9f
 6305 14d7 44060000 		.4byte	.LVL337
 6306 14db 8E060000 		.4byte	.LVL347
 6307 14df 0B00     		.2byte	0xb
 6308 14e1 91       		.byte	0x91
 6309 14e2 947F     		.sleb128 -108
 6310 14e4 F6       		.byte	0xf6
 6311 14e5 04       		.byte	0x4
 6312 14e6 25       		.uleb128 0x25
 6313 14e7 F5       		.byte	0xf5
 6314 14e8 04       		.uleb128 0x4
 6315 14e9 25       		.uleb128 0x25
 6316 14ea 1E       		.byte	0x1e
 6317 14eb 9F       		.byte	0x9f
 6318 14ec 8E060000 		.4byte	.LVL347
 6319 14f0 D6060000 		.4byte	.LVL358
 6320 14f4 0B00     		.2byte	0xb
 6321 14f6 91       		.byte	0x91
 6322 14f7 9C7F     		.sleb128 -100
 6323 14f9 F6       		.byte	0xf6
 6324 14fa 04       		.byte	0x4
 6325 14fb 25       		.uleb128 0x25
 6326 14fc F5       		.byte	0xf5
 6327 14fd 04       		.uleb128 0x4
 6328 14fe 25       		.uleb128 0x25
 6329 14ff 1E       		.byte	0x1e
 6330 1500 9F       		.byte	0x9f
 6331 1501 D6060000 		.4byte	.LVL358
 6332 1505 14070000 		.4byte	.LVL367
 6333 1509 0800     		.2byte	0x8
 6334 150b F5       		.byte	0xf5
 6335 150c 06       		.uleb128 0x6
 6336 150d 25       		.uleb128 0x25
 6337 150e F5       		.byte	0xf5
 6338 150f 04       		.uleb128 0x4
 6339 1510 25       		.uleb128 0x25
 6340 1511 1E       		.byte	0x1e
 6341 1512 9F       		.byte	0x9f
 6342 1513 00000000 		.4byte	0
 6343 1517 00000000 		.4byte	0
 6344              	.LLST48:
 6345 151b 78030000 		.4byte	.LVL241
ARM GAS  C:\Users\IVYLIU~1\AppData\Local\Temp\ccWLNWQl.s 			page 137


 6346 151f B6030000 		.4byte	.LVL249
 6347 1523 0B00     		.2byte	0xb
 6348 1525 91       		.byte	0x91
 6349 1526 A07F     		.sleb128 -96
 6350 1528 F6       		.byte	0xf6
 6351 1529 04       		.byte	0x4
 6352 152a 25       		.uleb128 0x25
 6353 152b F5       		.byte	0xf5
 6354 152c 04       		.uleb128 0x4
 6355 152d 25       		.uleb128 0x25
 6356 152e 1E       		.byte	0x1e
 6357 152f 9F       		.byte	0x9f
 6358 1530 B6030000 		.4byte	.LVL249
 6359 1534 DE030000 		.4byte	.LVL254
 6360 1538 0B00     		.2byte	0xb
 6361 153a 91       		.byte	0x91
 6362 153b B87F     		.sleb128 -72
 6363 153d F6       		.byte	0xf6
 6364 153e 04       		.byte	0x4
 6365 153f 25       		.uleb128 0x25
 6366 1540 F5       		.byte	0xf5
 6367 1541 05       		.uleb128 0x5
 6368 1542 25       		.uleb128 0x25
 6369 1543 1E       		.byte	0x1e
 6370 1544 9F       		.byte	0x9f
 6371 1545 02040000 		.4byte	.LVL258
 6372 1549 40040000 		.4byte	.LVL265
 6373 154d 0B00     		.2byte	0xb
 6374 154f 91       		.byte	0x91
 6375 1550 A87F     		.sleb128 -88
 6376 1552 F6       		.byte	0xf6
 6377 1553 04       		.byte	0x4
 6378 1554 25       		.uleb128 0x25
 6379 1555 F5       		.byte	0xf5
 6380 1556 04       		.uleb128 0x4
 6381 1557 25       		.uleb128 0x25
 6382 1558 1E       		.byte	0x1e
 6383 1559 9F       		.byte	0x9f
 6384 155a 40040000 		.4byte	.LVL265
 6385 155e 8C040000 		.4byte	.LVL275
 6386 1562 0A00     		.2byte	0xa
 6387 1564 91       		.byte	0x91
 6388 1565 40       		.sleb128 -64
 6389 1566 F6       		.byte	0xf6
 6390 1567 04       		.byte	0x4
 6391 1568 25       		.uleb128 0x25
 6392 1569 F5       		.byte	0xf5
 6393 156a 04       		.uleb128 0x4
 6394 156b 25       		.uleb128 0x25
 6395 156c 1E       		.byte	0x1e
 6396 156d 9F       		.byte	0x9f
 6397 156e 98040000 		.4byte	.LVL276
 6398 1572 D6040000 		.4byte	.LVL283
 6399 1576 0B00     		.2byte	0xb
 6400 1578 91       		.byte	0x91
 6401 1579 987F     		.sleb128 -104
 6402 157b F6       		.byte	0xf6
ARM GAS  C:\Users\IVYLIU~1\AppData\Local\Temp\ccWLNWQl.s 			page 138


 6403 157c 04       		.byte	0x4
 6404 157d 25       		.uleb128 0x25
 6405 157e F5       		.byte	0xf5
 6406 157f 04       		.uleb128 0x4
 6407 1580 25       		.uleb128 0x25
 6408 1581 1E       		.byte	0x1e
 6409 1582 9F       		.byte	0x9f
 6410 1583 D6040000 		.4byte	.LVL283
 6411 1587 FE040000 		.4byte	.LVL288
 6412 158b 0800     		.2byte	0x8
 6413 158d F5       		.byte	0xf5
 6414 158e 0B       		.uleb128 0xb
 6415 158f 25       		.uleb128 0x25
 6416 1590 F5       		.byte	0xf5
 6417 1591 05       		.uleb128 0x5
 6418 1592 25       		.uleb128 0x25
 6419 1593 1E       		.byte	0x1e
 6420 1594 9F       		.byte	0x9f
 6421 1595 44060000 		.4byte	.LVL337
 6422 1599 6C060000 		.4byte	.LVL343
 6423 159d 0B00     		.2byte	0xb
 6424 159f 91       		.byte	0x91
 6425 15a0 947F     		.sleb128 -108
 6426 15a2 F6       		.byte	0xf6
 6427 15a3 04       		.byte	0x4
 6428 15a4 25       		.uleb128 0x25
 6429 15a5 F5       		.byte	0xf5
 6430 15a6 05       		.uleb128 0x5
 6431 15a7 25       		.uleb128 0x25
 6432 15a8 1E       		.byte	0x1e
 6433 15a9 9F       		.byte	0x9f
 6434 15aa 8E060000 		.4byte	.LVL347
 6435 15ae B6060000 		.4byte	.LVL354
 6436 15b2 0B00     		.2byte	0xb
 6437 15b4 91       		.byte	0x91
 6438 15b5 9C7F     		.sleb128 -100
 6439 15b7 F6       		.byte	0xf6
 6440 15b8 04       		.byte	0x4
 6441 15b9 25       		.uleb128 0x25
 6442 15ba F5       		.byte	0xf5
 6443 15bb 05       		.uleb128 0x5
 6444 15bc 25       		.uleb128 0x25
 6445 15bd 1E       		.byte	0x1e
 6446 15be 9F       		.byte	0x9f
 6447 15bf D6060000 		.4byte	.LVL358
 6448 15c3 FE060000 		.4byte	.LVL364
 6449 15c7 0800     		.2byte	0x8
 6450 15c9 F5       		.byte	0xf5
 6451 15ca 06       		.uleb128 0x6
 6452 15cb 25       		.uleb128 0x25
 6453 15cc F5       		.byte	0xf5
 6454 15cd 05       		.uleb128 0x5
 6455 15ce 25       		.uleb128 0x25
 6456 15cf 1E       		.byte	0x1e
 6457 15d0 9F       		.byte	0x9f
 6458 15d1 00000000 		.4byte	0
 6459 15d5 00000000 		.4byte	0
ARM GAS  C:\Users\IVYLIU~1\AppData\Local\Temp\ccWLNWQl.s 			page 139


 6460              	.LLST49:
 6461 15d9 78030000 		.4byte	.LVL241
 6462 15dd B6030000 		.4byte	.LVL249
 6463 15e1 0B00     		.2byte	0xb
 6464 15e3 91       		.byte	0x91
 6465 15e4 9C7F     		.sleb128 -100
 6466 15e6 F6       		.byte	0xf6
 6467 15e7 04       		.byte	0x4
 6468 15e8 25       		.uleb128 0x25
 6469 15e9 F5       		.byte	0xf5
 6470 15ea 05       		.uleb128 0x5
 6471 15eb 25       		.uleb128 0x25
 6472 15ec 1E       		.byte	0x1e
 6473 15ed 9F       		.byte	0x9f
 6474 15ee B6030000 		.4byte	.LVL249
 6475 15f2 FA030000 		.4byte	.LVL257
 6476 15f6 0B00     		.2byte	0xb
 6477 15f8 91       		.byte	0x91
 6478 15f9 BC7F     		.sleb128 -68
 6479 15fb F6       		.byte	0xf6
 6480 15fc 04       		.byte	0x4
 6481 15fd 25       		.uleb128 0x25
 6482 15fe F5       		.byte	0xf5
 6483 15ff 04       		.uleb128 0x4
 6484 1600 25       		.uleb128 0x25
 6485 1601 1E       		.byte	0x1e
 6486 1602 9F       		.byte	0x9f
 6487 1603 02040000 		.4byte	.LVL258
 6488 1607 40040000 		.4byte	.LVL265
 6489 160b 0B00     		.2byte	0xb
 6490 160d 91       		.byte	0x91
 6491 160e A47F     		.sleb128 -92
 6492 1610 F6       		.byte	0xf6
 6493 1611 04       		.byte	0x4
 6494 1612 25       		.uleb128 0x25
 6495 1613 F5       		.byte	0xf5
 6496 1614 05       		.uleb128 0x5
 6497 1615 25       		.uleb128 0x25
 6498 1616 1E       		.byte	0x1e
 6499 1617 9F       		.byte	0x9f
 6500 1618 40040000 		.4byte	.LVL265
 6501 161c 70040000 		.4byte	.LVL272
 6502 1620 0A00     		.2byte	0xa
 6503 1622 91       		.byte	0x91
 6504 1623 44       		.sleb128 -60
 6505 1624 F6       		.byte	0xf6
 6506 1625 04       		.byte	0x4
 6507 1626 25       		.uleb128 0x25
 6508 1627 F5       		.byte	0xf5
 6509 1628 05       		.uleb128 0x5
 6510 1629 25       		.uleb128 0x25
 6511 162a 1E       		.byte	0x1e
 6512 162b 9F       		.byte	0x9f
 6513 162c 98040000 		.4byte	.LVL276
 6514 1630 D6040000 		.4byte	.LVL283
 6515 1634 0B00     		.2byte	0xb
 6516 1636 91       		.byte	0x91
ARM GAS  C:\Users\IVYLIU~1\AppData\Local\Temp\ccWLNWQl.s 			page 140


 6517 1637 AC7F     		.sleb128 -84
 6518 1639 F6       		.byte	0xf6
 6519 163a 04       		.byte	0x4
 6520 163b 25       		.uleb128 0x25
 6521 163c F5       		.byte	0xf5
 6522 163d 05       		.uleb128 0x5
 6523 163e 25       		.uleb128 0x25
 6524 163f 1E       		.byte	0x1e
 6525 1640 9F       		.byte	0x9f
 6526 1641 D6040000 		.4byte	.LVL283
 6527 1645 16050000 		.4byte	.LVL292
 6528 1649 0800     		.2byte	0x8
 6529 164b F5       		.byte	0xf5
 6530 164c 06       		.uleb128 0x6
 6531 164d 25       		.uleb128 0x25
 6532 164e F5       		.byte	0xf5
 6533 164f 04       		.uleb128 0x4
 6534 1650 25       		.uleb128 0x25
 6535 1651 1E       		.byte	0x1e
 6536 1652 9F       		.byte	0x9f
 6537 1653 44060000 		.4byte	.LVL337
 6538 1657 8E060000 		.4byte	.LVL347
 6539 165b 0B00     		.2byte	0xb
 6540 165d 91       		.byte	0x91
 6541 165e F87E     		.sleb128 -136
 6542 1660 F6       		.byte	0xf6
 6543 1661 04       		.byte	0x4
 6544 1662 25       		.uleb128 0x25
 6545 1663 F5       		.byte	0xf5
 6546 1664 04       		.uleb128 0x4
 6547 1665 25       		.uleb128 0x25
 6548 1666 1E       		.byte	0x1e
 6549 1667 9F       		.byte	0x9f
 6550 1668 8E060000 		.4byte	.LVL347
 6551 166c D6060000 		.4byte	.LVL358
 6552 1670 0B00     		.2byte	0xb
 6553 1672 91       		.byte	0x91
 6554 1673 987F     		.sleb128 -104
 6555 1675 F6       		.byte	0xf6
 6556 1676 04       		.byte	0x4
 6557 1677 25       		.uleb128 0x25
 6558 1678 F5       		.byte	0xf5
 6559 1679 04       		.uleb128 0x4
 6560 167a 25       		.uleb128 0x25
 6561 167b 1E       		.byte	0x1e
 6562 167c 9F       		.byte	0x9f
 6563 167d D6060000 		.4byte	.LVL358
 6564 1681 14070000 		.4byte	.LVL367
 6565 1685 0800     		.2byte	0x8
 6566 1687 F5       		.byte	0xf5
 6567 1688 0B       		.uleb128 0xb
 6568 1689 25       		.uleb128 0x25
 6569 168a F5       		.byte	0xf5
 6570 168b 04       		.uleb128 0x4
 6571 168c 25       		.uleb128 0x25
 6572 168d 1E       		.byte	0x1e
 6573 168e 9F       		.byte	0x9f
ARM GAS  C:\Users\IVYLIU~1\AppData\Local\Temp\ccWLNWQl.s 			page 141


 6574 168f 00000000 		.4byte	0
 6575 1693 00000000 		.4byte	0
 6576              	.LLST50:
 6577 1697 42010000 		.4byte	.LVL152
 6578 169b 44010000 		.4byte	.LVL153
 6579 169f 0100     		.2byte	0x1
 6580 16a1 53       		.byte	0x53
 6581 16a2 44010000 		.4byte	.LVL153
 6582 16a6 66010000 		.4byte	.LVL156
 6583 16aa 0200     		.2byte	0x2
 6584 16ac 91       		.byte	0x91
 6585 16ad 48       		.sleb128 -56
 6586 16ae 66010000 		.4byte	.LVL156
 6587 16b2 46040000 		.4byte	.LVL266
 6588 16b6 0700     		.2byte	0x7
 6589 16b8 91       		.byte	0x91
 6590 16b9 48       		.sleb128 -56
 6591 16ba 06       		.byte	0x6
 6592 16bb 7A       		.byte	0x7a
 6593 16bc 00       		.sleb128 0
 6594 16bd 1C       		.byte	0x1c
 6595 16be 9F       		.byte	0x9f
 6596 16bf 46040000 		.4byte	.LVL266
 6597 16c3 14050000 		.4byte	.LVL291
 6598 16c7 0900     		.2byte	0x9
 6599 16c9 91       		.byte	0x91
 6600 16ca 48       		.sleb128 -56
 6601 16cb 06       		.byte	0x6
 6602 16cc 7A       		.byte	0x7a
 6603 16cd 00       		.sleb128 0
 6604 16ce 1C       		.byte	0x1c
 6605 16cf 23       		.byte	0x23
 6606 16d0 01       		.uleb128 0x1
 6607 16d1 9F       		.byte	0x9f
 6608 16d2 16050000 		.4byte	.LVL292
 6609 16d6 1C050000 		.4byte	.LVL293
 6610 16da 0600     		.2byte	0x6
 6611 16dc 73       		.byte	0x73
 6612 16dd 00       		.sleb128 0
 6613 16de 7A       		.byte	0x7a
 6614 16df 00       		.sleb128 0
 6615 16e0 1C       		.byte	0x1c
 6616 16e1 9F       		.byte	0x9f
 6617 16e2 1C050000 		.4byte	.LVL293
 6618 16e6 4C070000 		.4byte	.LVL372
 6619 16ea 0700     		.2byte	0x7
 6620 16ec 91       		.byte	0x91
 6621 16ed 48       		.sleb128 -56
 6622 16ee 06       		.byte	0x6
 6623 16ef 7A       		.byte	0x7a
 6624 16f0 00       		.sleb128 0
 6625 16f1 1C       		.byte	0x1c
 6626 16f2 9F       		.byte	0x9f
 6627 16f3 00000000 		.4byte	0
 6628 16f7 00000000 		.4byte	0
 6629              	.LLST51:
 6630 16fb 00000000 		.4byte	.LVL374
ARM GAS  C:\Users\IVYLIU~1\AppData\Local\Temp\ccWLNWQl.s 			page 142


 6631 16ff 68000000 		.4byte	.LVL384
 6632 1703 0100     		.2byte	0x1
 6633 1705 50       		.byte	0x50
 6634 1706 68000000 		.4byte	.LVL384
 6635 170a 70000000 		.4byte	.LVL386
 6636 170e 0100     		.2byte	0x1
 6637 1710 56       		.byte	0x56
 6638 1711 70000000 		.4byte	.LVL386
 6639 1715 72000000 		.4byte	.LVL387
 6640 1719 0100     		.2byte	0x1
 6641 171b 50       		.byte	0x50
 6642 171c 72000000 		.4byte	.LVL387
 6643 1720 7A000000 		.4byte	.LVL389
 6644 1724 0100     		.2byte	0x1
 6645 1726 56       		.byte	0x56
 6646 1727 7A000000 		.4byte	.LVL389
 6647 172b 7C000000 		.4byte	.LVL390
 6648 172f 0100     		.2byte	0x1
 6649 1731 50       		.byte	0x50
 6650 1732 7C000000 		.4byte	.LVL390
 6651 1736 AE000000 		.4byte	.LVL396
 6652 173a 0100     		.2byte	0x1
 6653 173c 56       		.byte	0x56
 6654 173d AE000000 		.4byte	.LVL396
 6655 1741 DE000000 		.4byte	.LFE86
 6656 1745 0400     		.2byte	0x4
 6657 1747 F3       		.byte	0xf3
 6658 1748 01       		.uleb128 0x1
 6659 1749 50       		.byte	0x50
 6660 174a 9F       		.byte	0x9f
 6661 174b 00000000 		.4byte	0
 6662 174f 00000000 		.4byte	0
 6663              	.LLST52:
 6664 1753 00000000 		.4byte	.LVL374
 6665 1757 12000000 		.4byte	.LVL376
 6666 175b 0100     		.2byte	0x1
 6667 175d 51       		.byte	0x51
 6668 175e 12000000 		.4byte	.LVL376
 6669 1762 4A000000 		.4byte	.LVL377
 6670 1766 0100     		.2byte	0x1
 6671 1768 55       		.byte	0x55
 6672 1769 4A000000 		.4byte	.LVL377
 6673 176d 4E000000 		.4byte	.LVL379
 6674 1771 0100     		.2byte	0x1
 6675 1773 51       		.byte	0x51
 6676 1774 4E000000 		.4byte	.LVL379
 6677 1778 AE000000 		.4byte	.LVL396
 6678 177c 0100     		.2byte	0x1
 6679 177e 55       		.byte	0x55
 6680 177f AE000000 		.4byte	.LVL396
 6681 1783 DE000000 		.4byte	.LFE86
 6682 1787 0400     		.2byte	0x4
 6683 1789 F3       		.byte	0xf3
 6684 178a 01       		.uleb128 0x1
 6685 178b 51       		.byte	0x51
 6686 178c 9F       		.byte	0x9f
 6687 178d 00000000 		.4byte	0
ARM GAS  C:\Users\IVYLIU~1\AppData\Local\Temp\ccWLNWQl.s 			page 143


 6688 1791 00000000 		.4byte	0
 6689              	.LLST53:
 6690 1795 00000000 		.4byte	.LVL374
 6691 1799 12000000 		.4byte	.LVL376
 6692 179d 0100     		.2byte	0x1
 6693 179f 52       		.byte	0x52
 6694 17a0 12000000 		.4byte	.LVL376
 6695 17a4 4A000000 		.4byte	.LVL377
 6696 17a8 0400     		.2byte	0x4
 6697 17aa F3       		.byte	0xf3
 6698 17ab 01       		.uleb128 0x1
 6699 17ac 52       		.byte	0x52
 6700 17ad 9F       		.byte	0x9f
 6701 17ae 4A000000 		.4byte	.LVL377
 6702 17b2 4E000000 		.4byte	.LVL379
 6703 17b6 0100     		.2byte	0x1
 6704 17b8 52       		.byte	0x52
 6705 17b9 4E000000 		.4byte	.LVL379
 6706 17bd DE000000 		.4byte	.LFE86
 6707 17c1 0400     		.2byte	0x4
 6708 17c3 F3       		.byte	0xf3
 6709 17c4 01       		.uleb128 0x1
 6710 17c5 52       		.byte	0x52
 6711 17c6 9F       		.byte	0x9f
 6712 17c7 00000000 		.4byte	0
 6713 17cb 00000000 		.4byte	0
 6714              	.LLST54:
 6715 17cf 00000000 		.4byte	.LVL374
 6716 17d3 12000000 		.4byte	.LVL376
 6717 17d7 0100     		.2byte	0x1
 6718 17d9 53       		.byte	0x53
 6719 17da 12000000 		.4byte	.LVL376
 6720 17de 4A000000 		.4byte	.LVL377
 6721 17e2 0400     		.2byte	0x4
 6722 17e4 F3       		.byte	0xf3
 6723 17e5 01       		.uleb128 0x1
 6724 17e6 53       		.byte	0x53
 6725 17e7 9F       		.byte	0x9f
 6726 17e8 4A000000 		.4byte	.LVL377
 6727 17ec 4C000000 		.4byte	.LVL378
 6728 17f0 0100     		.2byte	0x1
 6729 17f2 53       		.byte	0x53
 6730 17f3 4C000000 		.4byte	.LVL378
 6731 17f7 DE000000 		.4byte	.LFE86
 6732 17fb 0400     		.2byte	0x4
 6733 17fd F3       		.byte	0xf3
 6734 17fe 01       		.uleb128 0x1
 6735 17ff 53       		.byte	0x53
 6736 1800 9F       		.byte	0x9f
 6737 1801 00000000 		.4byte	0
 6738 1805 00000000 		.4byte	0
 6739              	.LLST55:
 6740 1809 4A000000 		.4byte	.LVL377
 6741 180d 4E000000 		.4byte	.LVL379
 6742 1811 0200     		.2byte	0x2
 6743 1813 30       		.byte	0x30
 6744 1814 9F       		.byte	0x9f
ARM GAS  C:\Users\IVYLIU~1\AppData\Local\Temp\ccWLNWQl.s 			page 144


 6745 1815 4E000000 		.4byte	.LVL379
 6746 1819 5C000000 		.4byte	.LVL381
 6747 181d 0100     		.2byte	0x1
 6748 181f 52       		.byte	0x52
 6749 1820 5C000000 		.4byte	.LVL381
 6750 1824 64000000 		.4byte	.LVL382
 6751 1828 0300     		.2byte	0x3
 6752 182a 72       		.byte	0x72
 6753 182b 7F       		.sleb128 -1
 6754 182c 9F       		.byte	0x9f
 6755 182d 64000000 		.4byte	.LVL382
 6756 1831 66000000 		.4byte	.LVL383
 6757 1835 0100     		.2byte	0x1
 6758 1837 52       		.byte	0x52
 6759 1838 AC000000 		.4byte	.LVL395
 6760 183c AE000000 		.4byte	.LVL396
 6761 1840 0200     		.2byte	0x2
 6762 1842 30       		.byte	0x30
 6763 1843 9F       		.byte	0x9f
 6764 1844 AE000000 		.4byte	.LVL396
 6765 1848 D4000000 		.4byte	.LVL401
 6766 184c 0100     		.2byte	0x1
 6767 184e 56       		.byte	0x56
 6768 184f D4000000 		.4byte	.LVL401
 6769 1853 D8000000 		.4byte	.LVL402
 6770 1857 0300     		.2byte	0x3
 6771 1859 76       		.byte	0x76
 6772 185a 7F       		.sleb128 -1
 6773 185b 9F       		.byte	0x9f
 6774 185c D8000000 		.4byte	.LVL402
 6775 1860 DA000000 		.4byte	.LVL403
 6776 1864 0100     		.2byte	0x1
 6777 1866 56       		.byte	0x56
 6778 1867 00000000 		.4byte	0
 6779 186b 00000000 		.4byte	0
 6780              	.LLST56:
 6781 186f AC000000 		.4byte	.LVL395
 6782 1873 AE000000 		.4byte	.LVL396
 6783 1877 0100     		.2byte	0x1
 6784 1879 50       		.byte	0x50
 6785 187a AE000000 		.4byte	.LVL396
 6786 187e DA000000 		.4byte	.LVL403
 6787 1882 0100     		.2byte	0x1
 6788 1884 57       		.byte	0x57
 6789 1885 00000000 		.4byte	0
 6790 1889 00000000 		.4byte	0
 6791              	.LLST57:
 6792 188d 4A000000 		.4byte	.LVL377
 6793 1891 4C000000 		.4byte	.LVL378
 6794 1895 0300     		.2byte	0x3
 6795 1897 71       		.byte	0x71
 6796 1898 04       		.sleb128 4
 6797 1899 9F       		.byte	0x9f
 6798 189a 4C000000 		.4byte	.LVL378
 6799 189e 54000000 		.4byte	.LVL380
 6800 18a2 0100     		.2byte	0x1
 6801 18a4 53       		.byte	0x53
ARM GAS  C:\Users\IVYLIU~1\AppData\Local\Temp\ccWLNWQl.s 			page 145


 6802 18a5 54000000 		.4byte	.LVL380
 6803 18a9 64000000 		.4byte	.LVL382
 6804 18ad 0300     		.2byte	0x3
 6805 18af 73       		.byte	0x73
 6806 18b0 78       		.sleb128 -8
 6807 18b1 9F       		.byte	0x9f
 6808 18b2 64000000 		.4byte	.LVL382
 6809 18b6 66000000 		.4byte	.LVL383
 6810 18ba 0100     		.2byte	0x1
 6811 18bc 53       		.byte	0x53
 6812 18bd AC000000 		.4byte	.LVL395
 6813 18c1 B4000000 		.4byte	.LVL397
 6814 18c5 0100     		.2byte	0x1
 6815 18c7 55       		.byte	0x55
 6816 18c8 B4000000 		.4byte	.LVL397
 6817 18cc B6000000 		.4byte	.LVL398
 6818 18d0 0300     		.2byte	0x3
 6819 18d2 75       		.byte	0x75
 6820 18d3 78       		.sleb128 -8
 6821 18d4 9F       		.byte	0x9f
 6822 18d5 B6000000 		.4byte	.LVL398
 6823 18d9 D8000000 		.4byte	.LVL402
 6824 18dd 0300     		.2byte	0x3
 6825 18df 75       		.byte	0x75
 6826 18e0 7C       		.sleb128 -4
 6827 18e1 9F       		.byte	0x9f
 6828 18e2 D8000000 		.4byte	.LVL402
 6829 18e6 DA000000 		.4byte	.LVL403
 6830 18ea 0100     		.2byte	0x1
 6831 18ec 55       		.byte	0x55
 6832 18ed 00000000 		.4byte	0
 6833 18f1 00000000 		.4byte	0
 6834              		.section	.debug_aranges,"",%progbits
 6835 0000 2C000000 		.4byte	0x2c
 6836 0004 0200     		.2byte	0x2
 6837 0006 00000000 		.4byte	.Ldebug_info0
 6838 000a 04       		.byte	0x4
 6839 000b 00       		.byte	0
 6840 000c 0000     		.2byte	0
 6841 000e 0000     		.2byte	0
 6842 0010 00000000 		.4byte	.LFB84
 6843 0014 8A020000 		.4byte	.LFE84-.LFB84
 6844 0018 00000000 		.4byte	.LFB85
 6845 001c 50070000 		.4byte	.LFE85-.LFB85
 6846 0020 00000000 		.4byte	.LFB86
 6847 0024 DE000000 		.4byte	.LFE86-.LFB86
 6848 0028 00000000 		.4byte	0
 6849 002c 00000000 		.4byte	0
 6850              		.section	.debug_ranges,"",%progbits
 6851              	.Ldebug_ranges0:
 6852 0000 00000000 		.4byte	.LFB84
 6853 0004 8A020000 		.4byte	.LFE84
 6854 0008 00000000 		.4byte	.LFB85
 6855 000c 50070000 		.4byte	.LFE85
 6856 0010 00000000 		.4byte	.LFB86
 6857 0014 DE000000 		.4byte	.LFE86
 6858 0018 00000000 		.4byte	0
ARM GAS  C:\Users\IVYLIU~1\AppData\Local\Temp\ccWLNWQl.s 			page 146


 6859 001c 00000000 		.4byte	0
 6860              		.section	.debug_line,"",%progbits
 6861              	.Ldebug_line0:
 6862 0000 41090000 		.section	.debug_str,"MS",%progbits,1
 6862      0200A801 
 6862      00000201 
 6862      FB0E0D00 
 6862      01010101 
 6863              	.LASF25:
 6864 0000 61726D5F 		.ascii	"arm_cfft_instance_f32\000"
 6864      63666674 
 6864      5F696E73 
 6864      74616E63 
 6864      655F6633 
 6865              	.LASF50:
 6866 0016 5F5F636F 		.ascii	"__copy_table_t\000"
 6866      70795F74 
 6866      61626C65 
 6866      5F7400
 6867              	.LASF4:
 6868 0025 5F5F7569 		.ascii	"__uint8_t\000"
 6868      6E74385F 
 6868      7400
 6869              	.LASF54:
 6870 002f 5F5F7A65 		.ascii	"__zero_table_start__\000"
 6870      726F5F74 
 6870      61626C65 
 6870      5F737461 
 6870      72745F5F 
 6871              	.LASF60:
 6872 0044 5C5C766D 		.ascii	"\\\\vmware-host\\Shared Folders\\Documents\\PSoC Cr"
 6872      77617265 
 6872      2D686F73 
 6872      745C5368 
 6872      61726564 
 6873 0072 6561746F 		.ascii	"eator\\FinalProject\\FinalV2.cydsn\000"
 6873      725C4669 
 6873      6E616C50 
 6873      726F6A65 
 6873      63745C46 
 6874              	.LASF11:
 6875 0093 6C6F6E67 		.ascii	"long long unsigned int\000"
 6875      206C6F6E 
 6875      6720756E 
 6875      7369676E 
 6875      65642069 
 6876              	.LASF38:
 6877 00aa 70316170 		.ascii	"p1ap3_0\000"
 6877      335F3000 
 6878              	.LASF28:
 6879 00b2 704D6964 		.ascii	"pMid1\000"
 6879      3100
 6880              	.LASF52:
 6881 00b8 5F5F636F 		.ascii	"__copy_table_end__\000"
 6881      70795F74 
 6881      61626C65 
 6881      5F656E64 
ARM GAS  C:\Users\IVYLIU~1\AppData\Local\Temp\ccWLNWQl.s 			page 147


 6881      5F5F00
 6882              	.LASF30:
 6883 00cb 61726D5F 		.ascii	"arm_cfft_radix8by2_f32\000"
 6883      63666674 
 6883      5F726164 
 6883      69783862 
 6883      79325F66 
 6884              	.LASF10:
 6885 00e2 6C6F6E67 		.ascii	"long long int\000"
 6885      206C6F6E 
 6885      6720696E 
 6885      7400
 6886              	.LASF1:
 6887 00f0 7369676E 		.ascii	"signed char\000"
 6887      65642063 
 6887      68617200 
 6888              	.LASF7:
 6889 00fc 6C6F6E67 		.ascii	"long int\000"
 6889      20696E74 
 6889      00
 6890              	.LASF23:
 6891 0105 70426974 		.ascii	"pBitRevTable\000"
 6891      52657654 
 6891      61626C65 
 6891      00
 6892              	.LASF14:
 6893 0112 75696E74 		.ascii	"uint16_t\000"
 6893      31365F74 
 6893      00
 6894              	.LASF18:
 6895 011b 646F7562 		.ascii	"double\000"
 6895      6C6500
 6896              	.LASF8:
 6897 0122 5F5F7569 		.ascii	"__uint32_t\000"
 6897      6E743332 
 6897      5F7400
 6898              	.LASF21:
 6899 012d 6666744C 		.ascii	"fftLen\000"
 6899      656E00
 6900              	.LASF51:
 6901 0134 5F5F636F 		.ascii	"__copy_table_start__\000"
 6901      70795F74 
 6901      61626C65 
 6901      5F737461 
 6901      72745F5F 
 6902              	.LASF12:
 6903 0149 756E7369 		.ascii	"unsigned int\000"
 6903      676E6564 
 6903      20696E74 
 6903      00
 6904              	.LASF53:
 6905 0156 5F5F7A65 		.ascii	"__zero_table_t\000"
 6905      726F5F74 
 6905      61626C65 
 6905      5F7400
 6906              	.LASF49:
 6907 0165 70537263 		.ascii	"pSrc\000"
ARM GAS  C:\Users\IVYLIU~1\AppData\Local\Temp\ccWLNWQl.s 			page 148


 6907      00
 6908              	.LASF9:
 6909 016a 6C6F6E67 		.ascii	"long unsigned int\000"
 6909      20756E73 
 6909      69676E65 
 6909      6420696E 
 6909      7400
 6910              	.LASF6:
 6911 017c 73686F72 		.ascii	"short unsigned int\000"
 6911      7420756E 
 6911      7369676E 
 6911      65642069 
 6911      6E7400
 6912              	.LASF31:
 6913 018f 61726D5F 		.ascii	"arm_cfft_radix8by4_f32\000"
 6913      63666674 
 6913      5F726164 
 6913      69783862 
 6913      79345F66 
 6914              	.LASF39:
 6915 01a6 70317370 		.ascii	"p1sp3_0\000"
 6915      335F3000 
 6916              	.LASF41:
 6917 01ae 70317370 		.ascii	"p1sp3_1\000"
 6917      335F3100 
 6918              	.LASF62:
 6919 01b6 61726D5F 		.ascii	"arm_bitreversal_32\000"
 6919      62697472 
 6919      65766572 
 6919      73616C5F 
 6919      333200
 6920              	.LASF16:
 6921 01c9 73697A65 		.ascii	"sizetype\000"
 6921      74797065 
 6921      00
 6922              	.LASF19:
 6923 01d2 6C6F6E67 		.ascii	"long double\000"
 6923      20646F75 
 6923      626C6500 
 6924              	.LASF47:
 6925 01de 62697452 		.ascii	"bitReverseFlag\000"
 6925      65766572 
 6925      7365466C 
 6925      616700
 6926              	.LASF56:
 6927 01ed 64657374 		.ascii	"dest\000"
 6927      00
 6928              	.LASF0:
 6929 01f2 666C6F61 		.ascii	"float\000"
 6929      7400
 6930              	.LASF34:
 6931 01f8 70456E64 		.ascii	"pEnd1\000"
 6931      3100
 6932              	.LASF35:
 6933 01fe 70456E64 		.ascii	"pEnd2\000"
 6933      3200
 6934              	.LASF36:
ARM GAS  C:\Users\IVYLIU~1\AppData\Local\Temp\ccWLNWQl.s 			page 149


 6935 0204 70456E64 		.ascii	"pEnd3\000"
 6935      3300
 6936              	.LASF37:
 6937 020a 70456E64 		.ascii	"pEnd4\000"
 6937      3400
 6938              	.LASF43:
 6939 0210 74774D6F 		.ascii	"twMod3\000"
 6939      643300
 6940              	.LASF24:
 6941 0217 62697452 		.ascii	"bitRevLength\000"
 6941      65764C65 
 6941      6E677468 
 6941      00
 6942              	.LASF58:
 6943 0224 474E5520 		.ascii	"GNU C 4.9.3 20150303 (release) [ARM/embedded-4_9-br"
 6943      4320342E 
 6943      392E3320 
 6943      32303135 
 6943      30333033 
 6944 0257 616E6368 		.ascii	"anch revision 221220] -mcpu=cortex-m3 -mthumb -g -O"
 6944      20726576 
 6944      6973696F 
 6944      6E203232 
 6944      31323230 
 6945 028a 73202D73 		.ascii	"s -std=gnu99 -ffunction-sections -ffat-lto-objects\000"
 6945      74643D67 
 6945      6E753939 
 6945      202D6666 
 6945      756E6374 
 6946              	.LASF29:
 6947 02bd 704D6964 		.ascii	"pMid2\000"
 6947      3200
 6948              	.LASF2:
 6949 02c3 756E7369 		.ascii	"unsigned char\000"
 6949      676E6564 
 6949      20636861 
 6949      7200
 6950              	.LASF57:
 6951 02d1 776C656E 		.ascii	"wlen\000"
 6951      00
 6952              	.LASF3:
 6953 02d6 73686F72 		.ascii	"short int\000"
 6953      7420696E 
 6953      7400
 6954              	.LASF48:
 6955 02e0 696E764C 		.ascii	"invL\000"
 6955      00
 6956              	.LASF26:
 6957 02e5 70436F6C 		.ascii	"pCol1\000"
 6957      3100
 6958              	.LASF27:
 6959 02eb 70436F6C 		.ascii	"pCol2\000"
 6959      3200
 6960              	.LASF32:
 6961 02f1 70436F6C 		.ascii	"pCol3\000"
 6961      3300
 6962              	.LASF33:
ARM GAS  C:\Users\IVYLIU~1\AppData\Local\Temp\ccWLNWQl.s 			page 150


 6963 02f7 70436F6C 		.ascii	"pCol4\000"
 6963      3400
 6964              	.LASF15:
 6965 02fd 75696E74 		.ascii	"uint32_t\000"
 6965      33325F74 
 6965      00
 6966              	.LASF45:
 6967 0306 61726D5F 		.ascii	"arm_cfft_f32\000"
 6967      63666674 
 6967      5F663332 
 6967      00
 6968              	.LASF17:
 6969 0313 63686172 		.ascii	"char\000"
 6969      00
 6970              	.LASF5:
 6971 0318 5F5F7569 		.ascii	"__uint16_t\000"
 6971      6E743136 
 6971      5F7400
 6972              	.LASF61:
 6973 0323 61726D5F 		.ascii	"arm_radix8_butterfly_f32\000"
 6973      72616469 
 6973      78385F62 
 6973      75747465 
 6973      72666C79 
 6974              	.LASF40:
 6975 033c 70316170 		.ascii	"p1ap3_1\000"
 6975      335F3100 
 6976              	.LASF20:
 6977 0344 666C6F61 		.ascii	"float32_t\000"
 6977      7433325F 
 6977      7400
 6978              	.LASF55:
 6979 034e 5F5F7A65 		.ascii	"__zero_table_end__\000"
 6979      726F5F74 
 6979      61626C65 
 6979      5F656E64 
 6979      5F5F00
 6980              	.LASF59:
 6981 0361 2E5C4453 		.ascii	".\\DSP\\Source\\TransformFunctions\\arm_cfft_f32.c\000"
 6981      505C536F 
 6981      75726365 
 6981      5C547261 
 6981      6E73666F 
 6982              	.LASF22:
 6983 0390 70547769 		.ascii	"pTwiddle\000"
 6983      64646C65 
 6983      00
 6984              	.LASF42:
 6985 0399 74774D6F 		.ascii	"twMod2\000"
 6985      643200
 6986              	.LASF44:
 6987 03a0 74774D6F 		.ascii	"twMod4\000"
 6987      643400
 6988              	.LASF13:
 6989 03a7 75696E74 		.ascii	"uint8_t\000"
 6989      385F7400 
 6990              	.LASF46:
ARM GAS  C:\Users\IVYLIU~1\AppData\Local\Temp\ccWLNWQl.s 			page 151


 6991 03af 69666674 		.ascii	"ifftFlag\000"
 6991      466C6167 
 6991      00
 6992              		.ident	"GCC: (GNU Tools for ARM Embedded Processors) 4.9.3 20150303 (release) [ARM/embedded-4_9-br
