ARM GAS  C:\Users\IVYLIU~1\AppData\Local\Temp\ccZx1vXn.s 			page 1


   1              		.syntax unified
   2              		.cpu cortex-m3
   3              		.fpu softvfp
   4              		.eabi_attribute 20, 1
   5              		.eabi_attribute 21, 1
   6              		.eabi_attribute 23, 3
   7              		.eabi_attribute 24, 1
   8              		.eabi_attribute 25, 1
   9              		.eabi_attribute 26, 1
  10              		.eabi_attribute 30, 4
  11              		.eabi_attribute 34, 1
  12              		.eabi_attribute 18, 4
  13              		.thumb
  14              		.file	"CyDmac.c"
  15              		.text
  16              	.Ltext0:
  17              		.cfi_sections	.debug_frame
  18              		.section	.text.CyDmacConfigure,"ax",%progbits
  19              		.align	1
  20              		.global	CyDmacConfigure
  21              		.thumb
  22              		.thumb_func
  23              		.type	CyDmacConfigure, %function
  24              	CyDmacConfigure:
  25              	.LFB0:
  26              		.file 1 ".\\Generated_Source\\PSoC5\\CyDmac.c"
   1:.\Generated_Source\PSoC5/CyDmac.c **** /***************************************************************************//**
   2:.\Generated_Source\PSoC5/CyDmac.c **** * \file CyDmac.c
   3:.\Generated_Source\PSoC5/CyDmac.c **** * \version 5.40
   4:.\Generated_Source\PSoC5/CyDmac.c **** *
   5:.\Generated_Source\PSoC5/CyDmac.c **** * \brief
   6:.\Generated_Source\PSoC5/CyDmac.c **** * Provides an API for the DMAC component. The API includes functions for the
   7:.\Generated_Source\PSoC5/CyDmac.c **** * DMA controller, DMA channels and Transfer Descriptors. This API is the library
   8:.\Generated_Source\PSoC5/CyDmac.c **** * version not the auto generated code that gets generated when the user places a
   9:.\Generated_Source\PSoC5/CyDmac.c **** * DMA component on the schematic.
  10:.\Generated_Source\PSoC5/CyDmac.c **** *
  11:.\Generated_Source\PSoC5/CyDmac.c **** * The auto generated code would use the APi's in this module.
  12:.\Generated_Source\PSoC5/CyDmac.c **** *
  13:.\Generated_Source\PSoC5/CyDmac.c **** * \note This code is endian agnostic.
  14:.\Generated_Source\PSoC5/CyDmac.c **** *
  15:.\Generated_Source\PSoC5/CyDmac.c **** * \note The Transfer Descriptor memory can be used as regular memory if the
  16:.\Generated_Source\PSoC5/CyDmac.c **** * TD's are not being used.
  17:.\Generated_Source\PSoC5/CyDmac.c **** *
  18:.\Generated_Source\PSoC5/CyDmac.c **** * \note This code uses the first byte of each TD to manage the free list of
  19:.\Generated_Source\PSoC5/CyDmac.c **** * TD's. The user can overwrite this once the TD is allocated.
  20:.\Generated_Source\PSoC5/CyDmac.c **** *
  21:.\Generated_Source\PSoC5/CyDmac.c **** ********************************************************************************
  22:.\Generated_Source\PSoC5/CyDmac.c **** * \copyright
  23:.\Generated_Source\PSoC5/CyDmac.c **** * Copyright 2008-2016, Cypress Semiconductor Corporation.  All rights reserved.
  24:.\Generated_Source\PSoC5/CyDmac.c **** * You may use this file only in accordance with the license, terms, conditions,
  25:.\Generated_Source\PSoC5/CyDmac.c **** * disclaimers, and limitations in the end user license agreement accompanying
  26:.\Generated_Source\PSoC5/CyDmac.c **** * the software package with which this file was provided.
  27:.\Generated_Source\PSoC5/CyDmac.c **** *******************************************************************************/
  28:.\Generated_Source\PSoC5/CyDmac.c **** 
  29:.\Generated_Source\PSoC5/CyDmac.c **** #include "CyDmac.h"
  30:.\Generated_Source\PSoC5/CyDmac.c **** 
  31:.\Generated_Source\PSoC5/CyDmac.c **** 
ARM GAS  C:\Users\IVYLIU~1\AppData\Local\Temp\ccZx1vXn.s 			page 2


  32:.\Generated_Source\PSoC5/CyDmac.c **** /*******************************************************************************
  33:.\Generated_Source\PSoC5/CyDmac.c **** * The following variables are initialized from CyDmacConfigure() function that
  34:.\Generated_Source\PSoC5/CyDmac.c **** * is executed from initialize_psoc() at the early initialization stage.
  35:.\Generated_Source\PSoC5/CyDmac.c **** * In case of IAR EW IDE, initialize_psoc() is executed before the data sections
  36:.\Generated_Source\PSoC5/CyDmac.c **** * are initialized. To avoid zeroing, these variables should be initialized
  37:.\Generated_Source\PSoC5/CyDmac.c **** * properly during segments initialization as well.
  38:.\Generated_Source\PSoC5/CyDmac.c **** *******************************************************************************/
  39:.\Generated_Source\PSoC5/CyDmac.c **** static uint8  CyDmaTdCurrentNumber = CY_DMA_NUMBEROF_TDS;           /* Current Number of free eleme
  40:.\Generated_Source\PSoC5/CyDmac.c **** static uint8  CyDmaTdFreeIndex = (uint8)(CY_DMA_NUMBEROF_TDS - 1u); /* Index of first available TD 
  41:.\Generated_Source\PSoC5/CyDmac.c **** static uint32 CyDmaChannels = DMA_CHANNELS_USED__MASK0;              /* Bit map of DMA channel owne
  42:.\Generated_Source\PSoC5/CyDmac.c **** 
  43:.\Generated_Source\PSoC5/CyDmac.c **** 
  44:.\Generated_Source\PSoC5/CyDmac.c **** /*******************************************************************************
  45:.\Generated_Source\PSoC5/CyDmac.c **** * Function Name: CyDmacConfigure
  46:.\Generated_Source\PSoC5/CyDmac.c **** ****************************************************************************//**
  47:.\Generated_Source\PSoC5/CyDmac.c **** *
  48:.\Generated_Source\PSoC5/CyDmac.c **** * Creates a linked list of all the TDs to be allocated. This function is called
  49:.\Generated_Source\PSoC5/CyDmac.c **** * by the startup code; you do not normally need to call it. You can call this
  50:.\Generated_Source\PSoC5/CyDmac.c **** * function if all of the DMA channels are inactive.
  51:.\Generated_Source\PSoC5/CyDmac.c **** *
  52:.\Generated_Source\PSoC5/CyDmac.c **** *******************************************************************************/
  53:.\Generated_Source\PSoC5/CyDmac.c **** void CyDmacConfigure(void) 
  54:.\Generated_Source\PSoC5/CyDmac.c **** {
  27              		.loc 1 54 0
  28              		.cfi_startproc
  29              		@ args = 0, pretend = 0, frame = 0
  30              		@ frame_needed = 0, uses_anonymous_args = 0
  31              		@ link register save eliminated.
  55:.\Generated_Source\PSoC5/CyDmac.c ****     uint8 dmaIndex;
  56:.\Generated_Source\PSoC5/CyDmac.c **** 
  57:.\Generated_Source\PSoC5/CyDmac.c ****     /* Set TD list variables. */
  58:.\Generated_Source\PSoC5/CyDmac.c ****     CyDmaTdFreeIndex     = (uint8)(CY_DMA_NUMBEROF_TDS - 1u);
  32              		.loc 1 58 0
  33 0000 074A     		ldr	r2, .L5
  34 0002 7F23     		movs	r3, #127
  59:.\Generated_Source\PSoC5/CyDmac.c ****     CyDmaTdCurrentNumber = CY_DMA_NUMBEROF_TDS;
  35              		.loc 1 59 0
  36 0004 8021     		movs	r1, #128
  58:.\Generated_Source\PSoC5/CyDmac.c ****     CyDmaTdCurrentNumber = CY_DMA_NUMBEROF_TDS;
  37              		.loc 1 58 0
  38 0006 1370     		strb	r3, [r2]
  39              		.loc 1 59 0
  40 0008 5170     		strb	r1, [r2, #1]
  41              	.LVL0:
  42 000a 064A     		ldr	r2, .L5+4
  43              	.LVL1:
  44              	.L2:
  60:.\Generated_Source\PSoC5/CyDmac.c **** 
  61:.\Generated_Source\PSoC5/CyDmac.c ****     /* Make TD free list. */
  62:.\Generated_Source\PSoC5/CyDmac.c ****     for(dmaIndex = (uint8)(CY_DMA_NUMBEROF_TDS - 1u); dmaIndex != 0u; dmaIndex--)
  63:.\Generated_Source\PSoC5/CyDmac.c ****     {
  64:.\Generated_Source\PSoC5/CyDmac.c ****         CY_DMA_TDMEM_STRUCT_PTR[dmaIndex].TD0[0u] = (uint8)(dmaIndex - 1u);
  45              		.loc 1 64 0 discriminator 3
  46 000c 013B     		subs	r3, r3, #1
  47              	.LVL2:
  48 000e DBB2     		uxtb	r3, r3
  49 0010 02F80839 		strb	r3, [r2], #-8
ARM GAS  C:\Users\IVYLIU~1\AppData\Local\Temp\ccZx1vXn.s 			page 3


  50              	.LVL3:
  62:.\Generated_Source\PSoC5/CyDmac.c ****     {
  51              		.loc 1 62 0 discriminator 3
  52 0014 002B     		cmp	r3, #0
  53 0016 F9D1     		bne	.L2
  65:.\Generated_Source\PSoC5/CyDmac.c ****     }
  66:.\Generated_Source\PSoC5/CyDmac.c **** 
  67:.\Generated_Source\PSoC5/CyDmac.c ****     /* Make last one point to zero. */
  68:.\Generated_Source\PSoC5/CyDmac.c ****     CY_DMA_TDMEM_STRUCT_PTR[dmaIndex].TD0[0u] = 0u;
  54              		.loc 1 68 0
  55 0018 034A     		ldr	r2, .L5+8
  56 001a 1370     		strb	r3, [r2]
  57 001c 7047     		bx	lr
  58              	.L6:
  59 001e 00BF     		.align	2
  60              	.L5:
  61 0020 00000000 		.word	.LANCHOR0
  62 0024 F87B0040 		.word	1073773560
  63 0028 00780040 		.word	1073772544
  64              		.cfi_endproc
  65              	.LFE0:
  66              		.size	CyDmacConfigure, .-CyDmacConfigure
  67              		.section	.text.CyDmacError,"ax",%progbits
  68              		.align	1
  69              		.global	CyDmacError
  70              		.thumb
  71              		.thumb_func
  72              		.type	CyDmacError, %function
  73              	CyDmacError:
  74              	.LFB1:
  69:.\Generated_Source\PSoC5/CyDmac.c **** }
  70:.\Generated_Source\PSoC5/CyDmac.c **** 
  71:.\Generated_Source\PSoC5/CyDmac.c **** 
  72:.\Generated_Source\PSoC5/CyDmac.c **** /*******************************************************************************
  73:.\Generated_Source\PSoC5/CyDmac.c **** * Function Name: CyDmacError
  74:.\Generated_Source\PSoC5/CyDmac.c **** ****************************************************************************//**
  75:.\Generated_Source\PSoC5/CyDmac.c **** *
  76:.\Generated_Source\PSoC5/CyDmac.c **** *  Returns errors of the last failed DMA transaction.
  77:.\Generated_Source\PSoC5/CyDmac.c **** *
  78:.\Generated_Source\PSoC5/CyDmac.c **** * \return Errors of the last failed DMA transaction.
  79:.\Generated_Source\PSoC5/CyDmac.c **** *
  80:.\Generated_Source\PSoC5/CyDmac.c **** *  DMAC_PERIPH_ERR:
  81:.\Generated_Source\PSoC5/CyDmac.c **** *   Set to 1 when a peripheral responds to a bus transaction with an error
  82:.\Generated_Source\PSoC5/CyDmac.c **** *   response.
  83:.\Generated_Source\PSoC5/CyDmac.c **** *
  84:.\Generated_Source\PSoC5/CyDmac.c **** *  DMAC_UNPOP_ACC:
  85:.\Generated_Source\PSoC5/CyDmac.c **** *   Set to 1 when an access is attempted to an invalid address.
  86:.\Generated_Source\PSoC5/CyDmac.c **** *
  87:.\Generated_Source\PSoC5/CyDmac.c **** *  DMAC_BUS_TIMEOUT:
  88:.\Generated_Source\PSoC5/CyDmac.c **** *   Set to 1 when a bus timeout occurs. Cleared by writing a 1. Timeout values
  89:.\Generated_Source\PSoC5/CyDmac.c **** *   are determined by the BUS_TIMEOUT field in the PHUBCFG register.
  90:.\Generated_Source\PSoC5/CyDmac.c **** *
  91:.\Generated_Source\PSoC5/CyDmac.c **** * Theory:
  92:.\Generated_Source\PSoC5/CyDmac.c **** *  Once an error occurs the error bits are sticky and are only cleared by
  93:.\Generated_Source\PSoC5/CyDmac.c **** *  writing 1 to the error register.
  94:.\Generated_Source\PSoC5/CyDmac.c **** *
  95:.\Generated_Source\PSoC5/CyDmac.c **** *******************************************************************************/
ARM GAS  C:\Users\IVYLIU~1\AppData\Local\Temp\ccZx1vXn.s 			page 4


  96:.\Generated_Source\PSoC5/CyDmac.c **** uint8 CyDmacError(void) 
  97:.\Generated_Source\PSoC5/CyDmac.c **** {
  75              		.loc 1 97 0
  76              		.cfi_startproc
  77              		@ args = 0, pretend = 0, frame = 0
  78              		@ frame_needed = 0, uses_anonymous_args = 0
  79              		@ link register save eliminated.
  98:.\Generated_Source\PSoC5/CyDmac.c ****     return((uint8)(((uint32) 0x0Eu) & *CY_DMA_ERR_PTR));
  80              		.loc 1 98 0
  81 0000 024B     		ldr	r3, .L8
  82 0002 1868     		ldr	r0, [r3]
  99:.\Generated_Source\PSoC5/CyDmac.c **** }
  83              		.loc 1 99 0
  84 0004 00F00E00 		and	r0, r0, #14
  85 0008 7047     		bx	lr
  86              	.L9:
  87 000a 00BF     		.align	2
  88              	.L8:
  89 000c 04700040 		.word	1073770500
  90              		.cfi_endproc
  91              	.LFE1:
  92              		.size	CyDmacError, .-CyDmacError
  93              		.section	.text.CyDmacClearError,"ax",%progbits
  94              		.align	1
  95              		.global	CyDmacClearError
  96              		.thumb
  97              		.thumb_func
  98              		.type	CyDmacClearError, %function
  99              	CyDmacClearError:
 100              	.LFB2:
 100:.\Generated_Source\PSoC5/CyDmac.c **** 
 101:.\Generated_Source\PSoC5/CyDmac.c **** 
 102:.\Generated_Source\PSoC5/CyDmac.c **** /*******************************************************************************
 103:.\Generated_Source\PSoC5/CyDmac.c **** * Function Name: CyDmacClearError
 104:.\Generated_Source\PSoC5/CyDmac.c **** ****************************************************************************//**
 105:.\Generated_Source\PSoC5/CyDmac.c **** *
 106:.\Generated_Source\PSoC5/CyDmac.c **** *  Clears the error bits in the error register of the DMAC.
 107:.\Generated_Source\PSoC5/CyDmac.c **** *
 108:.\Generated_Source\PSoC5/CyDmac.c **** * \param error:
 109:.\Generated_Source\PSoC5/CyDmac.c **** *   Clears the error bits in the DMAC error register.
 110:.\Generated_Source\PSoC5/CyDmac.c **** *
 111:.\Generated_Source\PSoC5/CyDmac.c **** *  \param DMAC_PERIPH_ERR:
 112:.\Generated_Source\PSoC5/CyDmac.c **** *   Set to 1 when a peripheral responds to a bus transaction with an error
 113:.\Generated_Source\PSoC5/CyDmac.c **** *   response.
 114:.\Generated_Source\PSoC5/CyDmac.c **** *
 115:.\Generated_Source\PSoC5/CyDmac.c **** *  \param DMAC_UNPOP_ACC:
 116:.\Generated_Source\PSoC5/CyDmac.c **** *   Set to 1 when an access is attempted to an invalid address.
 117:.\Generated_Source\PSoC5/CyDmac.c **** *
 118:.\Generated_Source\PSoC5/CyDmac.c **** *  \param DMAC_BUS_TIMEOUT:
 119:.\Generated_Source\PSoC5/CyDmac.c **** *   Set to 1 when a bus timeout occurs. Cleared by writing 1. Timeout values
 120:.\Generated_Source\PSoC5/CyDmac.c **** *   are determined by the BUS_TIMEOUT field in the PHUBCFG register.
 121:.\Generated_Source\PSoC5/CyDmac.c **** *
 122:.\Generated_Source\PSoC5/CyDmac.c **** * Theory:
 123:.\Generated_Source\PSoC5/CyDmac.c **** *  Once an error occurs the error bits are sticky and are only cleared by
 124:.\Generated_Source\PSoC5/CyDmac.c **** *  writing 1 to the error register.
 125:.\Generated_Source\PSoC5/CyDmac.c **** *
 126:.\Generated_Source\PSoC5/CyDmac.c **** *******************************************************************************/
ARM GAS  C:\Users\IVYLIU~1\AppData\Local\Temp\ccZx1vXn.s 			page 5


 127:.\Generated_Source\PSoC5/CyDmac.c **** void CyDmacClearError(uint8 error) 
 128:.\Generated_Source\PSoC5/CyDmac.c **** {
 101              		.loc 1 128 0
 102              		.cfi_startproc
 103              		@ args = 0, pretend = 0, frame = 0
 104              		@ frame_needed = 0, uses_anonymous_args = 0
 105              		@ link register save eliminated.
 106              	.LVL4:
 129:.\Generated_Source\PSoC5/CyDmac.c ****     *CY_DMA_ERR_PTR = (((uint32)0x0Fu) & ((uint32)error));
 107              		.loc 1 129 0
 108 0000 024B     		ldr	r3, .L11
 109 0002 00F00F00 		and	r0, r0, #15
 110              	.LVL5:
 111 0006 1860     		str	r0, [r3]
 112 0008 7047     		bx	lr
 113              	.L12:
 114 000a 00BF     		.align	2
 115              	.L11:
 116 000c 04700040 		.word	1073770500
 117              		.cfi_endproc
 118              	.LFE2:
 119              		.size	CyDmacClearError, .-CyDmacClearError
 120              		.section	.text.CyDmacErrorAddress,"ax",%progbits
 121              		.align	1
 122              		.global	CyDmacErrorAddress
 123              		.thumb
 124              		.thumb_func
 125              		.type	CyDmacErrorAddress, %function
 126              	CyDmacErrorAddress:
 127              	.LFB3:
 130:.\Generated_Source\PSoC5/CyDmac.c **** }
 131:.\Generated_Source\PSoC5/CyDmac.c **** 
 132:.\Generated_Source\PSoC5/CyDmac.c **** 
 133:.\Generated_Source\PSoC5/CyDmac.c **** /*******************************************************************************
 134:.\Generated_Source\PSoC5/CyDmac.c **** * Function Name: CyDmacErrorAddress
 135:.\Generated_Source\PSoC5/CyDmac.c **** ****************************************************************************//**
 136:.\Generated_Source\PSoC5/CyDmac.c **** *
 137:.\Generated_Source\PSoC5/CyDmac.c **** *  When DMAC_BUS_TIMEOUT, DMAC_UNPOP_ACC, and DMAC_PERIPH_ERR occur the
 138:.\Generated_Source\PSoC5/CyDmac.c **** *  address of the error is written to the error address register and can be read
 139:.\Generated_Source\PSoC5/CyDmac.c **** *  with this function.
 140:.\Generated_Source\PSoC5/CyDmac.c **** *
 141:.\Generated_Source\PSoC5/CyDmac.c **** *  If there are multiple errors, only the address of the first is saved.
 142:.\Generated_Source\PSoC5/CyDmac.c **** *
 143:.\Generated_Source\PSoC5/CyDmac.c **** * \return The address that caused the error.
 144:.\Generated_Source\PSoC5/CyDmac.c **** *
 145:.\Generated_Source\PSoC5/CyDmac.c **** *******************************************************************************/
 146:.\Generated_Source\PSoC5/CyDmac.c **** uint32 CyDmacErrorAddress(void) 
 147:.\Generated_Source\PSoC5/CyDmac.c **** {
 128              		.loc 1 147 0
 129              		.cfi_startproc
 130              		@ args = 0, pretend = 0, frame = 0
 131              		@ frame_needed = 0, uses_anonymous_args = 0
 132              		@ link register save eliminated.
 148:.\Generated_Source\PSoC5/CyDmac.c ****     return(CY_GET_REG32(CY_DMA_ERR_ADR_PTR));
 133              		.loc 1 148 0
 134 0000 014B     		ldr	r3, .L14
 135 0002 1868     		ldr	r0, [r3]
ARM GAS  C:\Users\IVYLIU~1\AppData\Local\Temp\ccZx1vXn.s 			page 6


 149:.\Generated_Source\PSoC5/CyDmac.c **** }
 136              		.loc 1 149 0
 137 0004 7047     		bx	lr
 138              	.L15:
 139 0006 00BF     		.align	2
 140              	.L14:
 141 0008 08700040 		.word	1073770504
 142              		.cfi_endproc
 143              	.LFE3:
 144              		.size	CyDmacErrorAddress, .-CyDmacErrorAddress
 145              		.section	.text.CyDmaChAlloc,"ax",%progbits
 146              		.align	1
 147              		.global	CyDmaChAlloc
 148              		.thumb
 149              		.thumb_func
 150              		.type	CyDmaChAlloc, %function
 151              	CyDmaChAlloc:
 152              	.LFB4:
 150:.\Generated_Source\PSoC5/CyDmac.c **** 
 151:.\Generated_Source\PSoC5/CyDmac.c **** 
 152:.\Generated_Source\PSoC5/CyDmac.c **** /*******************************************************************************
 153:.\Generated_Source\PSoC5/CyDmac.c **** * Function Name: CyDmaChAlloc
 154:.\Generated_Source\PSoC5/CyDmac.c **** ****************************************************************************//**
 155:.\Generated_Source\PSoC5/CyDmac.c **** *
 156:.\Generated_Source\PSoC5/CyDmac.c **** *  Allocates a channel from the DMAC to be used in all functions that require a
 157:.\Generated_Source\PSoC5/CyDmac.c **** *  channel handle.
 158:.\Generated_Source\PSoC5/CyDmac.c **** *
 159:.\Generated_Source\PSoC5/CyDmac.c **** * \return The allocated channel number. Zero is a valid channel number.
 160:.\Generated_Source\PSoC5/CyDmac.c **** *  DMA_INVALID_CHANNEL is returned if there are no channels available.
 161:.\Generated_Source\PSoC5/CyDmac.c **** *
 162:.\Generated_Source\PSoC5/CyDmac.c **** *******************************************************************************/
 163:.\Generated_Source\PSoC5/CyDmac.c **** uint8 CyDmaChAlloc(void) 
 164:.\Generated_Source\PSoC5/CyDmac.c **** {
 153              		.loc 1 164 0
 154              		.cfi_startproc
 155              		@ args = 0, pretend = 0, frame = 0
 156              		@ frame_needed = 0, uses_anonymous_args = 0
 157              	.LVL6:
 158 0000 38B5     		push	{r3, r4, r5, lr}
 159              		.cfi_def_cfa_offset 16
 160              		.cfi_offset 3, -16
 161              		.cfi_offset 4, -12
 162              		.cfi_offset 5, -8
 163              		.cfi_offset 14, -4
 165:.\Generated_Source\PSoC5/CyDmac.c ****     uint8 interruptState;
 166:.\Generated_Source\PSoC5/CyDmac.c ****     uint8 dmaIndex;
 167:.\Generated_Source\PSoC5/CyDmac.c ****     uint32 channel = 1u;
 168:.\Generated_Source\PSoC5/CyDmac.c **** 
 169:.\Generated_Source\PSoC5/CyDmac.c **** 
 170:.\Generated_Source\PSoC5/CyDmac.c ****     /* Enter critical section! */
 171:.\Generated_Source\PSoC5/CyDmac.c ****     interruptState = CyEnterCriticalSection();
 164              		.loc 1 171 0
 165 0002 FFF7FEFF 		bl	CyEnterCriticalSection
 166              	.LVL7:
 172:.\Generated_Source\PSoC5/CyDmac.c **** 
 173:.\Generated_Source\PSoC5/CyDmac.c ****     /* Look for free channel. */
 174:.\Generated_Source\PSoC5/CyDmac.c ****     for(dmaIndex = 0u; dmaIndex < CY_DMA_NUMBEROF_CHANNELS; dmaIndex++)
ARM GAS  C:\Users\IVYLIU~1\AppData\Local\Temp\ccZx1vXn.s 			page 7


 175:.\Generated_Source\PSoC5/CyDmac.c ****     {
 176:.\Generated_Source\PSoC5/CyDmac.c ****         if(0uL == (CyDmaChannels & channel))
 167              		.loc 1 176 0
 168 0006 0A49     		ldr	r1, .L21
 169 0008 0022     		movs	r2, #0
 170 000a 4D68     		ldr	r5, [r1, #4]
 167:.\Generated_Source\PSoC5/CyDmac.c **** 
 171              		.loc 1 167 0
 172 000c 0123     		movs	r3, #1
 173              	.LVL8:
 174              	.L19:
 175              		.loc 1 176 0
 176 000e 2B42     		tst	r3, r5
 177 0010 D4B2     		uxtb	r4, r2
 178              	.LVL9:
 179 0012 02D1     		bne	.L17
 177:.\Generated_Source\PSoC5/CyDmac.c ****         {
 178:.\Generated_Source\PSoC5/CyDmac.c ****             /* Mark channel as used. */
 179:.\Generated_Source\PSoC5/CyDmac.c ****             CyDmaChannels |= channel;
 180              		.loc 1 179 0
 181 0014 2B43     		orrs	r3, r3, r5
 182              	.LVL10:
 183 0016 4B60     		str	r3, [r1, #4]
 184 0018 05E0     		b	.L18
 185              	.LVL11:
 186              	.L17:
 187 001a 0132     		adds	r2, r2, #1
 174:.\Generated_Source\PSoC5/CyDmac.c ****     {
 188              		.loc 1 174 0 discriminator 2
 189 001c 182A     		cmp	r2, #24
 180:.\Generated_Source\PSoC5/CyDmac.c ****             break;
 181:.\Generated_Source\PSoC5/CyDmac.c ****         }
 182:.\Generated_Source\PSoC5/CyDmac.c **** 
 183:.\Generated_Source\PSoC5/CyDmac.c ****         channel <<= 1u;
 190              		.loc 1 183 0 discriminator 2
 191 001e 4FEA4303 		lsl	r3, r3, #1
 192              	.LVL12:
 174:.\Generated_Source\PSoC5/CyDmac.c ****     {
 193              		.loc 1 174 0 discriminator 2
 194 0022 F4D1     		bne	.L19
 184:.\Generated_Source\PSoC5/CyDmac.c ****     }
 185:.\Generated_Source\PSoC5/CyDmac.c **** 
 186:.\Generated_Source\PSoC5/CyDmac.c ****     if(dmaIndex >= CY_DMA_NUMBEROF_CHANNELS)
 187:.\Generated_Source\PSoC5/CyDmac.c ****     {
 188:.\Generated_Source\PSoC5/CyDmac.c ****         dmaIndex = CY_DMA_INVALID_CHANNEL;
 195              		.loc 1 188 0
 196 0024 FF24     		movs	r4, #255
 197              	.LVL13:
 198              	.L18:
 189:.\Generated_Source\PSoC5/CyDmac.c ****     }
 190:.\Generated_Source\PSoC5/CyDmac.c **** 
 191:.\Generated_Source\PSoC5/CyDmac.c ****     /* Exit critical section! */
 192:.\Generated_Source\PSoC5/CyDmac.c ****     CyExitCriticalSection(interruptState);
 199              		.loc 1 192 0
 200 0026 FFF7FEFF 		bl	CyExitCriticalSection
 201              	.LVL14:
 193:.\Generated_Source\PSoC5/CyDmac.c **** 
ARM GAS  C:\Users\IVYLIU~1\AppData\Local\Temp\ccZx1vXn.s 			page 8


 194:.\Generated_Source\PSoC5/CyDmac.c ****     return(dmaIndex);
 195:.\Generated_Source\PSoC5/CyDmac.c **** }
 202              		.loc 1 195 0
 203 002a 2046     		mov	r0, r4
 204 002c 38BD     		pop	{r3, r4, r5, pc}
 205              	.LVL15:
 206              	.L22:
 207 002e 00BF     		.align	2
 208              	.L21:
 209 0030 00000000 		.word	.LANCHOR0
 210              		.cfi_endproc
 211              	.LFE4:
 212              		.size	CyDmaChAlloc, .-CyDmaChAlloc
 213              		.section	.text.CyDmaChFree,"ax",%progbits
 214              		.align	1
 215              		.global	CyDmaChFree
 216              		.thumb
 217              		.thumb_func
 218              		.type	CyDmaChFree, %function
 219              	CyDmaChFree:
 220              	.LFB5:
 196:.\Generated_Source\PSoC5/CyDmac.c **** 
 197:.\Generated_Source\PSoC5/CyDmac.c **** 
 198:.\Generated_Source\PSoC5/CyDmac.c **** /*******************************************************************************
 199:.\Generated_Source\PSoC5/CyDmac.c **** * Function Name: CyDmaChFree
 200:.\Generated_Source\PSoC5/CyDmac.c **** ****************************************************************************//**
 201:.\Generated_Source\PSoC5/CyDmac.c **** *
 202:.\Generated_Source\PSoC5/CyDmac.c **** * Frees a channel allocated by \ref DmaChAlloc().
 203:.\Generated_Source\PSoC5/CyDmac.c **** *
 204:.\Generated_Source\PSoC5/CyDmac.c **** * \param chHandle The handle previously returned by \ref CyDmaChAlloc() or \ref
 205:.\Generated_Source\PSoC5/CyDmac.c **** * DMA_DmaInitalize().
 206:.\Generated_Source\PSoC5/CyDmac.c **** *
 207:.\Generated_Source\PSoC5/CyDmac.c **** * \return CYRET_SUCCESS if successful.
 208:.\Generated_Source\PSoC5/CyDmac.c **** * \return CYRET_BAD_PARAM if chHandle is invalid.
 209:.\Generated_Source\PSoC5/CyDmac.c **** *
 210:.\Generated_Source\PSoC5/CyDmac.c **** *******************************************************************************/
 211:.\Generated_Source\PSoC5/CyDmac.c **** cystatus CyDmaChFree(uint8 chHandle) 
 212:.\Generated_Source\PSoC5/CyDmac.c **** {
 221              		.loc 1 212 0
 222              		.cfi_startproc
 223              		@ args = 0, pretend = 0, frame = 0
 224              		@ frame_needed = 0, uses_anonymous_args = 0
 225              	.LVL16:
 213:.\Generated_Source\PSoC5/CyDmac.c ****     cystatus status = CYRET_BAD_PARAM;
 214:.\Generated_Source\PSoC5/CyDmac.c ****     uint8 interruptState;
 215:.\Generated_Source\PSoC5/CyDmac.c **** 
 216:.\Generated_Source\PSoC5/CyDmac.c ****     if(chHandle < CY_DMA_NUMBEROF_CHANNELS)
 226              		.loc 1 216 0
 227 0000 1728     		cmp	r0, #23
 212:.\Generated_Source\PSoC5/CyDmac.c ****     cystatus status = CYRET_BAD_PARAM;
 228              		.loc 1 212 0
 229 0002 38B5     		push	{r3, r4, r5, lr}
 230              		.cfi_def_cfa_offset 16
 231              		.cfi_offset 3, -16
 232              		.cfi_offset 4, -12
 233              		.cfi_offset 5, -8
 234              		.cfi_offset 14, -4
ARM GAS  C:\Users\IVYLIU~1\AppData\Local\Temp\ccZx1vXn.s 			page 9


 212:.\Generated_Source\PSoC5/CyDmac.c ****     cystatus status = CYRET_BAD_PARAM;
 235              		.loc 1 212 0
 236 0004 0546     		mov	r5, r0
 237 0006 4FF00104 		mov	r4, #1
 238              		.loc 1 216 0
 239 000a 0BD8     		bhi	.L25
 217:.\Generated_Source\PSoC5/CyDmac.c ****     {
 218:.\Generated_Source\PSoC5/CyDmac.c ****         /* Enter critical section */
 219:.\Generated_Source\PSoC5/CyDmac.c ****         interruptState = CyEnterCriticalSection();
 240              		.loc 1 219 0
 241 000c FFF7FEFF 		bl	CyEnterCriticalSection
 242              	.LVL17:
 220:.\Generated_Source\PSoC5/CyDmac.c **** 
 221:.\Generated_Source\PSoC5/CyDmac.c ****         /* Clear bit mask that keeps track of ownership. */
 222:.\Generated_Source\PSoC5/CyDmac.c ****         CyDmaChannels &= ~(((uint32) 1u) << chHandle);
 243              		.loc 1 222 0
 244 0010 054A     		ldr	r2, .L26
 245 0012 AC40     		lsls	r4, r4, r5
 246 0014 5368     		ldr	r3, [r2, #4]
 247 0016 23EA0404 		bic	r4, r3, r4
 248 001a 5460     		str	r4, [r2, #4]
 223:.\Generated_Source\PSoC5/CyDmac.c **** 
 224:.\Generated_Source\PSoC5/CyDmac.c ****         /* Exit critical section */
 225:.\Generated_Source\PSoC5/CyDmac.c ****         CyExitCriticalSection(interruptState);
 249              		.loc 1 225 0
 250 001c FFF7FEFF 		bl	CyExitCriticalSection
 251              	.LVL18:
 226:.\Generated_Source\PSoC5/CyDmac.c ****         status = CYRET_SUCCESS;
 252              		.loc 1 226 0
 253 0020 0020     		movs	r0, #0
 254 0022 38BD     		pop	{r3, r4, r5, pc}
 255              	.LVL19:
 256              	.L25:
 213:.\Generated_Source\PSoC5/CyDmac.c ****     uint8 interruptState;
 257              		.loc 1 213 0
 258 0024 2046     		mov	r0, r4
 259              	.LVL20:
 227:.\Generated_Source\PSoC5/CyDmac.c ****     }
 228:.\Generated_Source\PSoC5/CyDmac.c **** 
 229:.\Generated_Source\PSoC5/CyDmac.c ****     return(status);
 230:.\Generated_Source\PSoC5/CyDmac.c **** }
 260              		.loc 1 230 0
 261 0026 38BD     		pop	{r3, r4, r5, pc}
 262              	.L27:
 263              		.align	2
 264              	.L26:
 265 0028 00000000 		.word	.LANCHOR0
 266              		.cfi_endproc
 267              	.LFE5:
 268              		.size	CyDmaChFree, .-CyDmaChFree
 269              		.section	.text.CyDmaChEnable,"ax",%progbits
 270              		.align	1
 271              		.global	CyDmaChEnable
 272              		.thumb
 273              		.thumb_func
 274              		.type	CyDmaChEnable, %function
 275              	CyDmaChEnable:
ARM GAS  C:\Users\IVYLIU~1\AppData\Local\Temp\ccZx1vXn.s 			page 10


 276              	.LFB6:
 231:.\Generated_Source\PSoC5/CyDmac.c **** 
 232:.\Generated_Source\PSoC5/CyDmac.c **** 
 233:.\Generated_Source\PSoC5/CyDmac.c **** /*******************************************************************************
 234:.\Generated_Source\PSoC5/CyDmac.c **** * Function Name: CyDmaChEnable
 235:.\Generated_Source\PSoC5/CyDmac.c **** ****************************************************************************//**
 236:.\Generated_Source\PSoC5/CyDmac.c **** *
 237:.\Generated_Source\PSoC5/CyDmac.c **** *  Enables the DMA channel. A software or hardware request still must happen
 238:.\Generated_Source\PSoC5/CyDmac.c **** *  before the channel is executed.
 239:.\Generated_Source\PSoC5/CyDmac.c **** *
 240:.\Generated_Source\PSoC5/CyDmac.c **** *  \param chHandle A handle previously returned by \ref CyDmaChAlloc() or \ref
 241:.\Generated_Source\PSoC5/CyDmac.c **** *  DMA_DmaInitalize().
 242:.\Generated_Source\PSoC5/CyDmac.c **** *
 243:.\Generated_Source\PSoC5/CyDmac.c **** *  \param preserveTds Preserves the original TD state when the TD has completed.
 244:.\Generated_Source\PSoC5/CyDmac.c **** *  This parameter applies to all TDs in the channel.
 245:.\Generated_Source\PSoC5/CyDmac.c **** *
 246:.\Generated_Source\PSoC5/CyDmac.c **** *   0 - When TD is completed, the DMAC leaves the TD configuration values in
 247:.\Generated_Source\PSoC5/CyDmac.c **** *   their current state, and does not restore them to their original state.
 248:.\Generated_Source\PSoC5/CyDmac.c **** *
 249:.\Generated_Source\PSoC5/CyDmac.c **** *   1 - When TD is completed, the DMAC restores the original configuration
 250:.\Generated_Source\PSoC5/CyDmac.c **** *   values of the TD.
 251:.\Generated_Source\PSoC5/CyDmac.c **** *
 252:.\Generated_Source\PSoC5/CyDmac.c **** *  When preserveTds is set, the TD slot that equals the channel number becomes
 253:.\Generated_Source\PSoC5/CyDmac.c **** *  RESERVED and that becomes where the working registers exist. So, for example,
 254:.\Generated_Source\PSoC5/CyDmac.c **** *  if you are using CH06 and preserveTds is set, you are not allowed to use TD
 255:.\Generated_Source\PSoC5/CyDmac.c **** *  slot 6. That is reclaimed by the DMA engine for its private use.
 256:.\Generated_Source\PSoC5/CyDmac.c **** *
 257:.\Generated_Source\PSoC5/CyDmac.c **** *  \note Do not chain back to a completed TD if the preserveTds for the channel
 258:.\Generated_Source\PSoC5/CyDmac.c **** *  is set to 0. When a TD has completed preserveTds for the channel set to 0,
 259:.\Generated_Source\PSoC5/CyDmac.c **** *  the transfer count will be at 0. If a TD with a transfer count of 0 is
 260:.\Generated_Source\PSoC5/CyDmac.c **** *  started, the TD will transfer an indefinite amount of data.
 261:.\Generated_Source\PSoC5/CyDmac.c **** *
 262:.\Generated_Source\PSoC5/CyDmac.c **** *  Take extra precautions when using the hardware request (DRQ) option when the
 263:.\Generated_Source\PSoC5/CyDmac.c **** *  preserveTds is set to 0, as you might be requesting the wrong data.
 264:.\Generated_Source\PSoC5/CyDmac.c **** *
 265:.\Generated_Source\PSoC5/CyDmac.c **** * \return CYRET_SUCCESS if successful.
 266:.\Generated_Source\PSoC5/CyDmac.c **** * \return CYRET_BAD_PARAM if chHandle is invalid.
 267:.\Generated_Source\PSoC5/CyDmac.c **** *
 268:.\Generated_Source\PSoC5/CyDmac.c **** *******************************************************************************/
 269:.\Generated_Source\PSoC5/CyDmac.c **** cystatus CyDmaChEnable(uint8 chHandle, uint8 preserveTds) 
 270:.\Generated_Source\PSoC5/CyDmac.c **** {
 277              		.loc 1 270 0
 278              		.cfi_startproc
 279              		@ args = 0, pretend = 0, frame = 0
 280              		@ frame_needed = 0, uses_anonymous_args = 0
 281              		@ link register save eliminated.
 282              	.LVL21:
 271:.\Generated_Source\PSoC5/CyDmac.c ****     cystatus status = CYRET_BAD_PARAM;
 272:.\Generated_Source\PSoC5/CyDmac.c **** 
 273:.\Generated_Source\PSoC5/CyDmac.c ****     if(chHandle < CY_DMA_NUMBEROF_CHANNELS)
 283              		.loc 1 273 0
 284 0000 1728     		cmp	r0, #23
 285 0002 0FD8     		bhi	.L32
 286 0004 084B     		ldr	r3, .L34
 287 0006 0001     		lsls	r0, r0, #4
 288              	.LVL22:
 274:.\Generated_Source\PSoC5/CyDmac.c ****     {
ARM GAS  C:\Users\IVYLIU~1\AppData\Local\Temp\ccZx1vXn.s 			page 11


 275:.\Generated_Source\PSoC5/CyDmac.c ****         if (0u != preserveTds)
 276:.\Generated_Source\PSoC5/CyDmac.c ****         {
 277:.\Generated_Source\PSoC5/CyDmac.c ****             /* Store intermediate TD states separately in CHn_SEP_TD0/1 to
 278:.\Generated_Source\PSoC5/CyDmac.c ****             *  preserve original TD chain
 279:.\Generated_Source\PSoC5/CyDmac.c ****             */
 280:.\Generated_Source\PSoC5/CyDmac.c ****             CY_DMA_CH_STRUCT_PTR[chHandle].basic_cfg[0u] |= CY_DMA_CH_BASIC_CFG_WORK_SEP;
 289              		.loc 1 280 0
 290 0008 C25C     		ldrb	r2, [r0, r3]	@ zero_extendqisi2
 275:.\Generated_Source\PSoC5/CyDmac.c ****         {
 291              		.loc 1 275 0
 292 000a 11B1     		cbz	r1, .L30
 293              		.loc 1 280 0
 294 000c 42F02002 		orr	r2, r2, #32
 295 0010 01E0     		b	.L33
 296              	.L30:
 281:.\Generated_Source\PSoC5/CyDmac.c ****         }
 282:.\Generated_Source\PSoC5/CyDmac.c ****         else
 283:.\Generated_Source\PSoC5/CyDmac.c ****         {
 284:.\Generated_Source\PSoC5/CyDmac.c ****             /* Store intermediate and final TD states on top of original TD chain */
 285:.\Generated_Source\PSoC5/CyDmac.c ****             CY_DMA_CH_STRUCT_PTR[chHandle].basic_cfg[0u] &= (uint8)(~CY_DMA_CH_BASIC_CFG_WORK_SEP);
 297              		.loc 1 285 0
 298 0012 02F0DF02 		and	r2, r2, #223
 299              	.L33:
 300 0016 C254     		strb	r2, [r0, r3]
 286:.\Generated_Source\PSoC5/CyDmac.c ****         }
 287:.\Generated_Source\PSoC5/CyDmac.c **** 
 288:.\Generated_Source\PSoC5/CyDmac.c ****         /* Enable channel */
 289:.\Generated_Source\PSoC5/CyDmac.c ****         CY_DMA_CH_STRUCT_PTR[chHandle].basic_cfg[0u] |= CY_DMA_CH_BASIC_CFG_EN;
 301              		.loc 1 289 0
 302 0018 C25C     		ldrb	r2, [r0, r3]	@ zero_extendqisi2
 303 001a 42F00102 		orr	r2, r2, #1
 304 001e C254     		strb	r2, [r0, r3]
 305              	.LVL23:
 290:.\Generated_Source\PSoC5/CyDmac.c **** 
 291:.\Generated_Source\PSoC5/CyDmac.c ****         status = CYRET_SUCCESS;
 306              		.loc 1 291 0
 307 0020 0020     		movs	r0, #0
 308 0022 7047     		bx	lr
 309              	.LVL24:
 310              	.L32:
 271:.\Generated_Source\PSoC5/CyDmac.c **** 
 311              		.loc 1 271 0
 312 0024 0120     		movs	r0, #1
 313              	.LVL25:
 292:.\Generated_Source\PSoC5/CyDmac.c ****     }
 293:.\Generated_Source\PSoC5/CyDmac.c **** 
 294:.\Generated_Source\PSoC5/CyDmac.c ****     return(status);
 295:.\Generated_Source\PSoC5/CyDmac.c **** }
 314              		.loc 1 295 0
 315 0026 7047     		bx	lr
 316              	.L35:
 317              		.align	2
 318              	.L34:
 319 0028 10700040 		.word	1073770512
 320              		.cfi_endproc
 321              	.LFE6:
 322              		.size	CyDmaChEnable, .-CyDmaChEnable
ARM GAS  C:\Users\IVYLIU~1\AppData\Local\Temp\ccZx1vXn.s 			page 12


 323              		.section	.text.CyDmaChDisable,"ax",%progbits
 324              		.align	1
 325              		.global	CyDmaChDisable
 326              		.thumb
 327              		.thumb_func
 328              		.type	CyDmaChDisable, %function
 329              	CyDmaChDisable:
 330              	.LFB7:
 296:.\Generated_Source\PSoC5/CyDmac.c **** 
 297:.\Generated_Source\PSoC5/CyDmac.c **** 
 298:.\Generated_Source\PSoC5/CyDmac.c **** /*******************************************************************************
 299:.\Generated_Source\PSoC5/CyDmac.c **** * Function Name: CyDmaChDisable
 300:.\Generated_Source\PSoC5/CyDmac.c **** ****************************************************************************//**
 301:.\Generated_Source\PSoC5/CyDmac.c **** *
 302:.\Generated_Source\PSoC5/CyDmac.c **** * Disables the DMA channel. Once this function is called, CyDmaChStatus() may
 303:.\Generated_Source\PSoC5/CyDmac.c **** * be called to determine when the channel is disabled and which TDs were being
 304:.\Generated_Source\PSoC5/CyDmac.c **** * executed.
 305:.\Generated_Source\PSoC5/CyDmac.c **** *
 306:.\Generated_Source\PSoC5/CyDmac.c **** * If it is currently executing it will allow the current burst to finish
 307:.\Generated_Source\PSoC5/CyDmac.c **** * naturally.
 308:.\Generated_Source\PSoC5/CyDmac.c **** *
 309:.\Generated_Source\PSoC5/CyDmac.c **** * \param chHandle A handle previously returned by \ref CyDmaChAlloc() or \ref
 310:.\Generated_Source\PSoC5/CyDmac.c **** * DMA_DmaInitalize().
 311:.\Generated_Source\PSoC5/CyDmac.c **** *
 312:.\Generated_Source\PSoC5/CyDmac.c **** * \return CYRET_SUCCESS if successful.
 313:.\Generated_Source\PSoC5/CyDmac.c **** * \return CYRET_BAD_PARAM if chHandle is invalid.
 314:.\Generated_Source\PSoC5/CyDmac.c **** *
 315:.\Generated_Source\PSoC5/CyDmac.c **** *******************************************************************************/
 316:.\Generated_Source\PSoC5/CyDmac.c **** cystatus CyDmaChDisable(uint8 chHandle) 
 317:.\Generated_Source\PSoC5/CyDmac.c **** {
 331              		.loc 1 317 0
 332              		.cfi_startproc
 333              		@ args = 0, pretend = 0, frame = 0
 334              		@ frame_needed = 0, uses_anonymous_args = 0
 335              		@ link register save eliminated.
 336              	.LVL26:
 318:.\Generated_Source\PSoC5/CyDmac.c ****     cystatus status = CYRET_BAD_PARAM;
 319:.\Generated_Source\PSoC5/CyDmac.c **** 
 320:.\Generated_Source\PSoC5/CyDmac.c ****     if(chHandle < CY_DMA_NUMBEROF_CHANNELS)
 337              		.loc 1 320 0
 338 0000 1728     		cmp	r0, #23
 321:.\Generated_Source\PSoC5/CyDmac.c ****     {
 322:.\Generated_Source\PSoC5/CyDmac.c ****         /***********************************************************************
 323:.\Generated_Source\PSoC5/CyDmac.c ****         * Should not change configuration information of a DMA channel when it
 324:.\Generated_Source\PSoC5/CyDmac.c ****         * is active (or vulnerable to becoming active).
 325:.\Generated_Source\PSoC5/CyDmac.c ****         ***********************************************************************/
 326:.\Generated_Source\PSoC5/CyDmac.c **** 
 327:.\Generated_Source\PSoC5/CyDmac.c ****         /* Disable channel */
 328:.\Generated_Source\PSoC5/CyDmac.c ****         CY_DMA_CH_STRUCT_PTR[chHandle].basic_cfg[0] &= ((uint8) (~CY_DMA_CH_BASIC_CFG_EN));
 339              		.loc 1 328 0
 340 0002 9FBF     		itttt	ls
 341 0004 074B     		ldrls	r3, .L39
 342 0006 0001     		lslls	r0, r0, #4
 343              	.LVL27:
 344 0008 C25C     		ldrbls	r2, [r0, r3]	@ zero_extendqisi2
 345 000a 02F0FE02 		andls	r2, r2, #254
 346 000e 9FBF     		itttt	ls
ARM GAS  C:\Users\IVYLIU~1\AppData\Local\Temp\ccZx1vXn.s 			page 13


 347 0010 C254     		strbls	r2, [r0, r3]
 329:.\Generated_Source\PSoC5/CyDmac.c **** 
 330:.\Generated_Source\PSoC5/CyDmac.c ****         /* Store intermediate and final TD states on top of original TD chain */
 331:.\Generated_Source\PSoC5/CyDmac.c ****         CY_DMA_CH_STRUCT_PTR[chHandle].basic_cfg[0] &= ((uint8) (~CY_DMA_CH_BASIC_CFG_WORK_SEP));
 348              		.loc 1 331 0
 349 0012 C25C     		ldrbls	r2, [r0, r3]	@ zero_extendqisi2
 350 0014 02F0DF02 		andls	r2, r2, #223
 351 0018 C254     		strbls	r2, [r0, r3]
 352              	.LVL28:
 332:.\Generated_Source\PSoC5/CyDmac.c ****         status = CYRET_SUCCESS;
 353              		.loc 1 332 0
 354 001a 94BF     		ite	ls
 355 001c 0020     		movls	r0, #0
 318:.\Generated_Source\PSoC5/CyDmac.c **** 
 356              		.loc 1 318 0
 357 001e 0120     		movhi	r0, #1
 358              	.LVL29:
 333:.\Generated_Source\PSoC5/CyDmac.c ****     }
 334:.\Generated_Source\PSoC5/CyDmac.c **** 
 335:.\Generated_Source\PSoC5/CyDmac.c ****     return(status);
 336:.\Generated_Source\PSoC5/CyDmac.c **** }
 359              		.loc 1 336 0
 360 0020 7047     		bx	lr
 361              	.L40:
 362 0022 00BF     		.align	2
 363              	.L39:
 364 0024 10700040 		.word	1073770512
 365              		.cfi_endproc
 366              	.LFE7:
 367              		.size	CyDmaChDisable, .-CyDmaChDisable
 368              		.section	.text.CyDmaClearPendingDrq,"ax",%progbits
 369              		.align	1
 370              		.global	CyDmaClearPendingDrq
 371              		.thumb
 372              		.thumb_func
 373              		.type	CyDmaClearPendingDrq, %function
 374              	CyDmaClearPendingDrq:
 375              	.LFB8:
 337:.\Generated_Source\PSoC5/CyDmac.c **** 
 338:.\Generated_Source\PSoC5/CyDmac.c **** 
 339:.\Generated_Source\PSoC5/CyDmac.c **** /*******************************************************************************
 340:.\Generated_Source\PSoC5/CyDmac.c **** * Function Name: CyDmaClearPendingDrq
 341:.\Generated_Source\PSoC5/CyDmac.c **** ****************************************************************************//**
 342:.\Generated_Source\PSoC5/CyDmac.c **** *
 343:.\Generated_Source\PSoC5/CyDmac.c **** * Clears pending the DMA data request.
 344:.\Generated_Source\PSoC5/CyDmac.c **** *
 345:.\Generated_Source\PSoC5/CyDmac.c **** * \param chHandle Handle to the dma channel.
 346:.\Generated_Source\PSoC5/CyDmac.c **** *
 347:.\Generated_Source\PSoC5/CyDmac.c **** * \return CYRET_SUCCESS if successful.
 348:.\Generated_Source\PSoC5/CyDmac.c **** * \return CYRET_BAD_PARAM if chHandle is invalid.
 349:.\Generated_Source\PSoC5/CyDmac.c **** *
 350:.\Generated_Source\PSoC5/CyDmac.c **** *******************************************************************************/
 351:.\Generated_Source\PSoC5/CyDmac.c **** cystatus CyDmaClearPendingDrq(uint8 chHandle) 
 352:.\Generated_Source\PSoC5/CyDmac.c **** {
 376              		.loc 1 352 0
 377              		.cfi_startproc
 378              		@ args = 0, pretend = 0, frame = 0
ARM GAS  C:\Users\IVYLIU~1\AppData\Local\Temp\ccZx1vXn.s 			page 14


 379              		@ frame_needed = 0, uses_anonymous_args = 0
 380              		@ link register save eliminated.
 381              	.LVL30:
 353:.\Generated_Source\PSoC5/CyDmac.c ****     cystatus status = CYRET_BAD_PARAM;
 354:.\Generated_Source\PSoC5/CyDmac.c **** 
 355:.\Generated_Source\PSoC5/CyDmac.c ****     if(chHandle < CY_DMA_NUMBEROF_CHANNELS)
 382              		.loc 1 355 0
 383 0000 1728     		cmp	r0, #23
 356:.\Generated_Source\PSoC5/CyDmac.c ****     {
 357:.\Generated_Source\PSoC5/CyDmac.c ****         CY_DMA_CH_STRUCT_PTR[chHandle].action[0] |= CY_DMA_CPU_TERM_CHAIN;
 384              		.loc 1 357 0
 385 0002 9FBF     		itttt	ls
 386 0004 0849     		ldrls	r1, .L44
 387 0006 0001     		lslls	r0, r0, #4
 388              	.LVL31:
 389 0008 0B46     		movls	r3, r1
 390 000a 1B18     		addls	r3, r3, r0
 391 000c 9FBF     		itttt	ls
 392 000e 1A79     		ldrbls	r2, [r3, #4]	@ zero_extendqisi2
 393 0010 42F00402 		orrls	r2, r2, #4
 394 0014 1A71     		strbls	r2, [r3, #4]
 358:.\Generated_Source\PSoC5/CyDmac.c ****         CY_DMA_CH_STRUCT_PTR[chHandle].basic_cfg[0] |= 0x01u;
 395              		.loc 1 358 0
 396 0016 435C     		ldrbls	r3, [r0, r1]	@ zero_extendqisi2
 397 0018 9DBF     		ittte	ls
 398 001a 43F00103 		orrls	r3, r3, #1
 399 001e 4354     		strbls	r3, [r0, r1]
 400              	.LVL32:
 359:.\Generated_Source\PSoC5/CyDmac.c ****         status = CYRET_SUCCESS;
 401              		.loc 1 359 0
 402 0020 0020     		movls	r0, #0
 353:.\Generated_Source\PSoC5/CyDmac.c **** 
 403              		.loc 1 353 0
 404 0022 0120     		movhi	r0, #1
 405              	.LVL33:
 360:.\Generated_Source\PSoC5/CyDmac.c ****     }
 361:.\Generated_Source\PSoC5/CyDmac.c **** 
 362:.\Generated_Source\PSoC5/CyDmac.c ****     return(status);
 363:.\Generated_Source\PSoC5/CyDmac.c **** }
 406              		.loc 1 363 0
 407 0024 7047     		bx	lr
 408              	.L45:
 409 0026 00BF     		.align	2
 410              	.L44:
 411 0028 10700040 		.word	1073770512
 412              		.cfi_endproc
 413              	.LFE8:
 414              		.size	CyDmaClearPendingDrq, .-CyDmaClearPendingDrq
 415              		.section	.text.CyDmaChPriority,"ax",%progbits
 416              		.align	1
 417              		.global	CyDmaChPriority
 418              		.thumb
 419              		.thumb_func
 420              		.type	CyDmaChPriority, %function
 421              	CyDmaChPriority:
 422              	.LFB9:
 364:.\Generated_Source\PSoC5/CyDmac.c **** 
ARM GAS  C:\Users\IVYLIU~1\AppData\Local\Temp\ccZx1vXn.s 			page 15


 365:.\Generated_Source\PSoC5/CyDmac.c **** 
 366:.\Generated_Source\PSoC5/CyDmac.c **** /*******************************************************************************
 367:.\Generated_Source\PSoC5/CyDmac.c **** * Function Name: CyDmaChPriority
 368:.\Generated_Source\PSoC5/CyDmac.c **** ****************************************************************************//**
 369:.\Generated_Source\PSoC5/CyDmac.c **** *
 370:.\Generated_Source\PSoC5/CyDmac.c **** *  Sets the priority of a DMA channel. You can use this function when you want
 371:.\Generated_Source\PSoC5/CyDmac.c **** *  to change the priority at run time. If the priority remains the same for a
 372:.\Generated_Source\PSoC5/CyDmac.c **** *  DMA channel, then you can configure the priority in the .cydwr file.
 373:.\Generated_Source\PSoC5/CyDmac.c **** *
 374:.\Generated_Source\PSoC5/CyDmac.c **** *  \param chHandle A handle previously returned by \ref CyDmaChAlloc() or \ref
 375:.\Generated_Source\PSoC5/CyDmac.c **** *  DMA_DmaInitalize().
 376:.\Generated_Source\PSoC5/CyDmac.c **** *
 377:.\Generated_Source\PSoC5/CyDmac.c **** *  \param priority Priority to set the channel to, 0 - 7.
 378:.\Generated_Source\PSoC5/CyDmac.c **** *
 379:.\Generated_Source\PSoC5/CyDmac.c **** * \return CYRET_SUCCESS if successful.
 380:.\Generated_Source\PSoC5/CyDmac.c **** *  \return CYRET_BAD_PARAM if chHandle is invalid.
 381:.\Generated_Source\PSoC5/CyDmac.c **** *
 382:.\Generated_Source\PSoC5/CyDmac.c **** *******************************************************************************/
 383:.\Generated_Source\PSoC5/CyDmac.c **** cystatus CyDmaChPriority(uint8 chHandle, uint8 priority) 
 384:.\Generated_Source\PSoC5/CyDmac.c **** {
 423              		.loc 1 384 0
 424              		.cfi_startproc
 425              		@ args = 0, pretend = 0, frame = 0
 426              		@ frame_needed = 0, uses_anonymous_args = 0
 427              		@ link register save eliminated.
 428              	.LVL34:
 385:.\Generated_Source\PSoC5/CyDmac.c ****     uint8 value;
 386:.\Generated_Source\PSoC5/CyDmac.c ****     cystatus status = CYRET_BAD_PARAM;
 387:.\Generated_Source\PSoC5/CyDmac.c **** 
 388:.\Generated_Source\PSoC5/CyDmac.c ****     if(chHandle < CY_DMA_NUMBEROF_CHANNELS)
 429              		.loc 1 388 0
 430 0000 1728     		cmp	r0, #23
 389:.\Generated_Source\PSoC5/CyDmac.c ****     {
 390:.\Generated_Source\PSoC5/CyDmac.c ****         value = CY_DMA_CH_STRUCT_PTR[chHandle].basic_cfg[0u] & ((uint8)(~(0x0Eu)));
 431              		.loc 1 390 0
 432 0002 9FBF     		itttt	ls
 433 0004 074A     		ldrls	r2, .L49
 434 0006 0001     		lslls	r0, r0, #4
 435              	.LVL35:
 436 0008 835C     		ldrbls	r3, [r0, r2]	@ zero_extendqisi2
 437              	.LVL36:
 391:.\Generated_Source\PSoC5/CyDmac.c **** 
 392:.\Generated_Source\PSoC5/CyDmac.c ****         CY_DMA_CH_STRUCT_PTR[chHandle].basic_cfg[0u] = value | ((uint8) ((priority & 0x7u) << 0x01u
 438              		.loc 1 392 0
 439 000a 01F00701 		andls	r1, r1, #7
 440              	.LVL37:
 390:.\Generated_Source\PSoC5/CyDmac.c **** 
 441              		.loc 1 390 0
 442 000e 9FBF     		itttt	ls
 443 0010 03F0F103 		andls	r3, r3, #241
 444              	.LVL38:
 445              		.loc 1 392 0
 446 0014 43EA4101 		orrls	r1, r3, r1, lsl #1
 447 0018 8154     		strbls	r1, [r0, r2]
 448              	.LVL39:
 393:.\Generated_Source\PSoC5/CyDmac.c **** 
 394:.\Generated_Source\PSoC5/CyDmac.c ****         status = CYRET_SUCCESS;
ARM GAS  C:\Users\IVYLIU~1\AppData\Local\Temp\ccZx1vXn.s 			page 16


 449              		.loc 1 394 0
 450 001a 0020     		movls	r0, #0
 386:.\Generated_Source\PSoC5/CyDmac.c **** 
 451              		.loc 1 386 0
 452 001c 88BF     		it	hi
 453 001e 0120     		movhi	r0, #1
 454              	.LVL40:
 395:.\Generated_Source\PSoC5/CyDmac.c ****     }
 396:.\Generated_Source\PSoC5/CyDmac.c **** 
 397:.\Generated_Source\PSoC5/CyDmac.c ****     return(status);
 398:.\Generated_Source\PSoC5/CyDmac.c **** }
 455              		.loc 1 398 0
 456 0020 7047     		bx	lr
 457              	.L50:
 458 0022 00BF     		.align	2
 459              	.L49:
 460 0024 10700040 		.word	1073770512
 461              		.cfi_endproc
 462              	.LFE9:
 463              		.size	CyDmaChPriority, .-CyDmaChPriority
 464              		.section	.text.CyDmaChSetExtendedAddress,"ax",%progbits
 465              		.align	1
 466              		.global	CyDmaChSetExtendedAddress
 467              		.thumb
 468              		.thumb_func
 469              		.type	CyDmaChSetExtendedAddress, %function
 470              	CyDmaChSetExtendedAddress:
 471              	.LFB10:
 399:.\Generated_Source\PSoC5/CyDmac.c **** 
 400:.\Generated_Source\PSoC5/CyDmac.c **** 
 401:.\Generated_Source\PSoC5/CyDmac.c **** /*******************************************************************************
 402:.\Generated_Source\PSoC5/CyDmac.c **** * Function Name: CyDmaChSetExtendedAddress
 403:.\Generated_Source\PSoC5/CyDmac.c **** ****************************************************************************//**
 404:.\Generated_Source\PSoC5/CyDmac.c **** *
 405:.\Generated_Source\PSoC5/CyDmac.c **** *  Sets the high 16 bits of the source and destination addresses for the DMA
 406:.\Generated_Source\PSoC5/CyDmac.c **** *  channel (valid for all TDs in the chain).
 407:.\Generated_Source\PSoC5/CyDmac.c **** *
 408:.\Generated_Source\PSoC5/CyDmac.c **** *  \param chHandle A handle previously returned by \ref CyDmaChAlloc() or \ref
 409:.\Generated_Source\PSoC5/CyDmac.c **** *  DMA_DmaInitalize().
 410:.\Generated_Source\PSoC5/CyDmac.c **** *
 411:.\Generated_Source\PSoC5/CyDmac.c **** *  \param source Upper 16 bit address of the DMA transfer source.
 412:.\Generated_Source\PSoC5/CyDmac.c **** *
 413:.\Generated_Source\PSoC5/CyDmac.c **** *  \param destination Upper 16 bit address of the DMA transfer destination.
 414:.\Generated_Source\PSoC5/CyDmac.c **** *
 415:.\Generated_Source\PSoC5/CyDmac.c **** * \return CYRET_SUCCESS if successful.
 416:.\Generated_Source\PSoC5/CyDmac.c **** * \return CYRET_BAD_PARAM if chHandle is invalid.
 417:.\Generated_Source\PSoC5/CyDmac.c **** *
 418:.\Generated_Source\PSoC5/CyDmac.c **** *******************************************************************************/
 419:.\Generated_Source\PSoC5/CyDmac.c **** cystatus CyDmaChSetExtendedAddress(uint8 chHandle, uint16 source, uint16 destination) \
 420:.\Generated_Source\PSoC5/CyDmac.c ****     
 421:.\Generated_Source\PSoC5/CyDmac.c **** {
 472              		.loc 1 421 0
 473              		.cfi_startproc
 474              		@ args = 0, pretend = 0, frame = 0
 475              		@ frame_needed = 0, uses_anonymous_args = 0
 476              		@ link register save eliminated.
 477              	.LVL41:
ARM GAS  C:\Users\IVYLIU~1\AppData\Local\Temp\ccZx1vXn.s 			page 17


 422:.\Generated_Source\PSoC5/CyDmac.c ****     cystatus status = CYRET_BAD_PARAM;
 423:.\Generated_Source\PSoC5/CyDmac.c ****     reg16 *convert;
 424:.\Generated_Source\PSoC5/CyDmac.c **** 
 425:.\Generated_Source\PSoC5/CyDmac.c ****     #if(CY_PSOC5)
 426:.\Generated_Source\PSoC5/CyDmac.c **** 
 427:.\Generated_Source\PSoC5/CyDmac.c ****         /* 0x1FFF8000-0x1FFFFFFF needs to use alias at 0x20008000-0x2000FFFF */
 428:.\Generated_Source\PSoC5/CyDmac.c ****         if(source == 0x1FFFu)
 478              		.loc 1 428 0
 479 0000 41F6FF73 		movw	r3, #8191
 429:.\Generated_Source\PSoC5/CyDmac.c ****         {
 430:.\Generated_Source\PSoC5/CyDmac.c ****             source = 0x2000u;
 480              		.loc 1 430 0
 481 0004 9942     		cmp	r1, r3
 482 0006 08BF     		it	eq
 483 0008 4FF40051 		moveq	r1, #8192
 484              	.LVL42:
 431:.\Generated_Source\PSoC5/CyDmac.c ****         }
 432:.\Generated_Source\PSoC5/CyDmac.c **** 
 433:.\Generated_Source\PSoC5/CyDmac.c ****         if(destination == 0x1FFFu)
 434:.\Generated_Source\PSoC5/CyDmac.c ****         {
 435:.\Generated_Source\PSoC5/CyDmac.c ****             destination = 0x2000u;
 485              		.loc 1 435 0
 486 000c 9A42     		cmp	r2, r3
 487 000e 08BF     		it	eq
 488 0010 4FF40052 		moveq	r2, #8192
 489              	.LVL43:
 436:.\Generated_Source\PSoC5/CyDmac.c ****         }
 437:.\Generated_Source\PSoC5/CyDmac.c **** 
 438:.\Generated_Source\PSoC5/CyDmac.c ****     #endif  /* (CY_PSOC5) */
 439:.\Generated_Source\PSoC5/CyDmac.c **** 
 440:.\Generated_Source\PSoC5/CyDmac.c **** 
 441:.\Generated_Source\PSoC5/CyDmac.c ****     if(chHandle < CY_DMA_NUMBEROF_CHANNELS)
 490              		.loc 1 441 0
 491 0014 1728     		cmp	r0, #23
 442:.\Generated_Source\PSoC5/CyDmac.c ****     {
 443:.\Generated_Source\PSoC5/CyDmac.c ****         /* Set source address */
 444:.\Generated_Source\PSoC5/CyDmac.c ****         convert = (reg16 *) &CY_DMA_CFGMEM_STRUCT_PTR[chHandle].CFG1[0];
 492              		.loc 1 444 0
 493 0016 9FBF     		itttt	ls
 494 0018 C000     		lslls	r0, r0, #3
 495              	.LVL44:
 496 001a 00F18040 		addls	r0, r0, #1073741824
 497 001e 00F5EC40 		addls	r0, r0, #30208
 498              	.LVL45:
 445:.\Generated_Source\PSoC5/CyDmac.c ****         CY_SET_REG16(convert, source);
 499              		.loc 1 445 0
 500 0022 8180     		strhls	r1, [r0, #4]	@ movhi
 501              	.LVL46:
 446:.\Generated_Source\PSoC5/CyDmac.c **** 
 447:.\Generated_Source\PSoC5/CyDmac.c ****         /* Set destination address */
 448:.\Generated_Source\PSoC5/CyDmac.c ****         convert = (reg16 *) &CY_DMA_CFGMEM_STRUCT_PTR[chHandle].CFG1[2u];
 449:.\Generated_Source\PSoC5/CyDmac.c ****         CY_SET_REG16(convert, destination);
 502              		.loc 1 449 0
 503 0024 9ABF     		itte	ls
 504 0026 C280     		strhls	r2, [r0, #6]	@ movhi
 505              	.LVL47:
 450:.\Generated_Source\PSoC5/CyDmac.c ****         status = CYRET_SUCCESS;
ARM GAS  C:\Users\IVYLIU~1\AppData\Local\Temp\ccZx1vXn.s 			page 18


 506              		.loc 1 450 0
 507 0028 0020     		movls	r0, #0
 508              	.LVL48:
 422:.\Generated_Source\PSoC5/CyDmac.c ****     reg16 *convert;
 509              		.loc 1 422 0
 510 002a 0120     		movhi	r0, #1
 511              	.LVL49:
 451:.\Generated_Source\PSoC5/CyDmac.c ****     }
 452:.\Generated_Source\PSoC5/CyDmac.c **** 
 453:.\Generated_Source\PSoC5/CyDmac.c ****     return(status);
 454:.\Generated_Source\PSoC5/CyDmac.c **** }
 512              		.loc 1 454 0
 513 002c 7047     		bx	lr
 514              		.cfi_endproc
 515              	.LFE10:
 516              		.size	CyDmaChSetExtendedAddress, .-CyDmaChSetExtendedAddress
 517              		.section	.text.CyDmaChSetInitialTd,"ax",%progbits
 518              		.align	1
 519              		.global	CyDmaChSetInitialTd
 520              		.thumb
 521              		.thumb_func
 522              		.type	CyDmaChSetInitialTd, %function
 523              	CyDmaChSetInitialTd:
 524              	.LFB11:
 455:.\Generated_Source\PSoC5/CyDmac.c **** 
 456:.\Generated_Source\PSoC5/CyDmac.c **** 
 457:.\Generated_Source\PSoC5/CyDmac.c **** /*******************************************************************************
 458:.\Generated_Source\PSoC5/CyDmac.c **** * Function Name: CyDmaChSetInitialTd
 459:.\Generated_Source\PSoC5/CyDmac.c **** ****************************************************************************//**
 460:.\Generated_Source\PSoC5/CyDmac.c **** *
 461:.\Generated_Source\PSoC5/CyDmac.c **** * Sets the initial TD to be executed for the channel when the \ref CyDmaChEnable()
 462:.\Generated_Source\PSoC5/CyDmac.c **** * function is called.
 463:.\Generated_Source\PSoC5/CyDmac.c **** *
 464:.\Generated_Source\PSoC5/CyDmac.c **** * \param chHandle A handle previously returned by \ref CyDmaChAlloc() or
 465:.\Generated_Source\PSoC5/CyDmac.c **** * \ref DMA_DmaInitialize().
 466:.\Generated_Source\PSoC5/CyDmac.c **** *
 467:.\Generated_Source\PSoC5/CyDmac.c **** * \param startTd Set the TD index as the first TD associated with the
 468:.\Generated_Source\PSoC5/CyDmac.c **** * channel. Zero is a valid TD index.
 469:.\Generated_Source\PSoC5/CyDmac.c **** *
 470:.\Generated_Source\PSoC5/CyDmac.c **** * \return CYRET_SUCCESS if successful.
 471:.\Generated_Source\PSoC5/CyDmac.c **** * \return CYRET_BAD_PARAM if chHandle is invalid.
 472:.\Generated_Source\PSoC5/CyDmac.c **** *
 473:.\Generated_Source\PSoC5/CyDmac.c **** *******************************************************************************/
 474:.\Generated_Source\PSoC5/CyDmac.c **** cystatus CyDmaChSetInitialTd(uint8 chHandle, uint8 startTd) 
 475:.\Generated_Source\PSoC5/CyDmac.c **** {
 525              		.loc 1 475 0
 526              		.cfi_startproc
 527              		@ args = 0, pretend = 0, frame = 0
 528              		@ frame_needed = 0, uses_anonymous_args = 0
 529              		@ link register save eliminated.
 530              	.LVL50:
 476:.\Generated_Source\PSoC5/CyDmac.c ****     cystatus status = CYRET_BAD_PARAM;
 477:.\Generated_Source\PSoC5/CyDmac.c **** 
 478:.\Generated_Source\PSoC5/CyDmac.c ****     if(chHandle < CY_DMA_NUMBEROF_CHANNELS)
 531              		.loc 1 478 0
 532 0000 1728     		cmp	r0, #23
 479:.\Generated_Source\PSoC5/CyDmac.c ****     {
ARM GAS  C:\Users\IVYLIU~1\AppData\Local\Temp\ccZx1vXn.s 			page 19


 480:.\Generated_Source\PSoC5/CyDmac.c ****         CY_DMA_CH_STRUCT_PTR[chHandle].basic_status[1u] = startTd;
 533              		.loc 1 480 0
 534 0002 9FBF     		itttt	ls
 535 0004 034B     		ldrls	r3, .L59
 536 0006 0001     		lslls	r0, r0, #4
 537              	.LVL51:
 538 0008 1954     		strbls	r1, [r3, r0]
 539              	.LVL52:
 481:.\Generated_Source\PSoC5/CyDmac.c ****         status = CYRET_SUCCESS;
 540              		.loc 1 481 0
 541 000a 0020     		movls	r0, #0
 476:.\Generated_Source\PSoC5/CyDmac.c ****     cystatus status = CYRET_BAD_PARAM;
 542              		.loc 1 476 0
 543 000c 88BF     		it	hi
 544 000e 0120     		movhi	r0, #1
 545              	.LVL53:
 482:.\Generated_Source\PSoC5/CyDmac.c ****     }
 483:.\Generated_Source\PSoC5/CyDmac.c **** 
 484:.\Generated_Source\PSoC5/CyDmac.c ****     return(status);
 485:.\Generated_Source\PSoC5/CyDmac.c **** }
 546              		.loc 1 485 0
 547 0010 7047     		bx	lr
 548              	.L60:
 549 0012 00BF     		.align	2
 550              	.L59:
 551 0014 19700040 		.word	1073770521
 552              		.cfi_endproc
 553              	.LFE11:
 554              		.size	CyDmaChSetInitialTd, .-CyDmaChSetInitialTd
 555              		.section	.text.CyDmaChSetRequest,"ax",%progbits
 556              		.align	1
 557              		.global	CyDmaChSetRequest
 558              		.thumb
 559              		.thumb_func
 560              		.type	CyDmaChSetRequest, %function
 561              	CyDmaChSetRequest:
 562              	.LFB12:
 486:.\Generated_Source\PSoC5/CyDmac.c **** 
 487:.\Generated_Source\PSoC5/CyDmac.c **** 
 488:.\Generated_Source\PSoC5/CyDmac.c **** /*******************************************************************************
 489:.\Generated_Source\PSoC5/CyDmac.c **** * Function Name: CyDmaChSetRequest
 490:.\Generated_Source\PSoC5/CyDmac.c **** ****************************************************************************//**
 491:.\Generated_Source\PSoC5/CyDmac.c **** *
 492:.\Generated_Source\PSoC5/CyDmac.c **** *  Allows the caller to terminate a chain of TDs, terminate one TD, or create a
 493:.\Generated_Source\PSoC5/CyDmac.c **** *  direct request to start the DMA channel.
 494:.\Generated_Source\PSoC5/CyDmac.c **** *
 495:.\Generated_Source\PSoC5/CyDmac.c **** *  \param chHandle A handle previously returned by \ref CyDmaChAlloc() or \ref
 496:.\Generated_Source\PSoC5/CyDmac.c **** *  DMA_DmaInitalize().
 497:.\Generated_Source\PSoC5/CyDmac.c **** *
 498:.\Generated_Source\PSoC5/CyDmac.c **** *  \param request One of the following constants. Each of the constants is a
 499:.\Generated_Source\PSoC5/CyDmac.c **** *  three-bit value.
 500:.\Generated_Source\PSoC5/CyDmac.c **** *   CPU_REQ         - Create a direct request to start the DMA channel
 501:.\Generated_Source\PSoC5/CyDmac.c **** *   CPU_TERM_TD     - Terminate one TD
 502:.\Generated_Source\PSoC5/CyDmac.c **** *   CPU_TERM_CHAIN  - Terminate a chain of TDs
 503:.\Generated_Source\PSoC5/CyDmac.c **** *
 504:.\Generated_Source\PSoC5/CyDmac.c **** * \return CYRET_SUCCESS if successful.
 505:.\Generated_Source\PSoC5/CyDmac.c **** * \return CYRET_BAD_PARAM if chHandle is invalid.
ARM GAS  C:\Users\IVYLIU~1\AppData\Local\Temp\ccZx1vXn.s 			page 20


 506:.\Generated_Source\PSoC5/CyDmac.c **** *
 507:.\Generated_Source\PSoC5/CyDmac.c **** *******************************************************************************/
 508:.\Generated_Source\PSoC5/CyDmac.c **** cystatus CyDmaChSetRequest(uint8 chHandle, uint8 request) 
 509:.\Generated_Source\PSoC5/CyDmac.c **** {
 563              		.loc 1 509 0
 564              		.cfi_startproc
 565              		@ args = 0, pretend = 0, frame = 0
 566              		@ frame_needed = 0, uses_anonymous_args = 0
 567              		@ link register save eliminated.
 568              	.LVL54:
 510:.\Generated_Source\PSoC5/CyDmac.c ****     cystatus status = CYRET_BAD_PARAM;
 511:.\Generated_Source\PSoC5/CyDmac.c **** 
 512:.\Generated_Source\PSoC5/CyDmac.c ****     if(chHandle < CY_DMA_NUMBEROF_CHANNELS)
 569              		.loc 1 512 0
 570 0000 1728     		cmp	r0, #23
 513:.\Generated_Source\PSoC5/CyDmac.c ****     {
 514:.\Generated_Source\PSoC5/CyDmac.c ****         CY_DMA_CH_STRUCT_PTR[chHandle].action[0u] |= (request & (CPU_REQ | CPU_TERM_TD | CPU_TERM_C
 571              		.loc 1 514 0
 572 0002 9FBF     		itttt	ls
 573 0004 054B     		ldrls	r3, .L64
 574 0006 0001     		lslls	r0, r0, #4
 575              	.LVL55:
 576 0008 1A5C     		ldrbls	r2, [r3, r0]	@ zero_extendqisi2
 577 000a 01F00701 		andls	r1, r1, #7
 578              	.LVL56:
 579 000e 9DBF     		ittte	ls
 580 0010 1143     		orrls	r1, r1, r2
 581 0012 1954     		strbls	r1, [r3, r0]
 582              	.LVL57:
 515:.\Generated_Source\PSoC5/CyDmac.c ****         status = CYRET_SUCCESS;
 583              		.loc 1 515 0
 584 0014 0020     		movls	r0, #0
 510:.\Generated_Source\PSoC5/CyDmac.c ****     cystatus status = CYRET_BAD_PARAM;
 585              		.loc 1 510 0
 586 0016 0120     		movhi	r0, #1
 587              	.LVL58:
 516:.\Generated_Source\PSoC5/CyDmac.c ****     }
 517:.\Generated_Source\PSoC5/CyDmac.c **** 
 518:.\Generated_Source\PSoC5/CyDmac.c ****     return(status);
 519:.\Generated_Source\PSoC5/CyDmac.c **** }
 588              		.loc 1 519 0
 589 0018 7047     		bx	lr
 590              	.L65:
 591 001a 00BF     		.align	2
 592              	.L64:
 593 001c 14700040 		.word	1073770516
 594              		.cfi_endproc
 595              	.LFE12:
 596              		.size	CyDmaChSetRequest, .-CyDmaChSetRequest
 597              		.section	.text.CyDmaChGetRequest,"ax",%progbits
 598              		.align	1
 599              		.global	CyDmaChGetRequest
 600              		.thumb
 601              		.thumb_func
 602              		.type	CyDmaChGetRequest, %function
 603              	CyDmaChGetRequest:
 604              	.LFB13:
ARM GAS  C:\Users\IVYLIU~1\AppData\Local\Temp\ccZx1vXn.s 			page 21


 520:.\Generated_Source\PSoC5/CyDmac.c **** 
 521:.\Generated_Source\PSoC5/CyDmac.c **** 
 522:.\Generated_Source\PSoC5/CyDmac.c **** /*******************************************************************************
 523:.\Generated_Source\PSoC5/CyDmac.c **** * Function Name: CyDmaChGetRequest
 524:.\Generated_Source\PSoC5/CyDmac.c **** ****************************************************************************//**
 525:.\Generated_Source\PSoC5/CyDmac.c **** *
 526:.\Generated_Source\PSoC5/CyDmac.c **** * This function allows the caller of \ref CyDmaChSetRequest() to determine if the
 527:.\Generated_Source\PSoC5/CyDmac.c **** * request was completed.
 528:.\Generated_Source\PSoC5/CyDmac.c **** *
 529:.\Generated_Source\PSoC5/CyDmac.c **** * \param chHandle A handle previously returned by \ref CyDmaChAlloc() or \ref
 530:.\Generated_Source\PSoC5/CyDmac.c **** * DMA_DmaInitalize().
 531:.\Generated_Source\PSoC5/CyDmac.c **** *
 532:.\Generated_Source\PSoC5/CyDmac.c **** * \return Returns a three-bit field, corresponding to the three bits of the
 533:.\Generated_Source\PSoC5/CyDmac.c **** * request, which describes the state of the previously posted request. If the
 534:.\Generated_Source\PSoC5/CyDmac.c **** * value is zero, the request was completed. CY_DMA_INVALID_CHANNEL if the handle
 535:.\Generated_Source\PSoC5/CyDmac.c **** * is invalid.
 536:.\Generated_Source\PSoC5/CyDmac.c **** *
 537:.\Generated_Source\PSoC5/CyDmac.c **** *******************************************************************************/
 538:.\Generated_Source\PSoC5/CyDmac.c **** cystatus CyDmaChGetRequest(uint8 chHandle) 
 539:.\Generated_Source\PSoC5/CyDmac.c **** {
 605              		.loc 1 539 0
 606              		.cfi_startproc
 607              		@ args = 0, pretend = 0, frame = 0
 608              		@ frame_needed = 0, uses_anonymous_args = 0
 609              		@ link register save eliminated.
 610              	.LVL59:
 540:.\Generated_Source\PSoC5/CyDmac.c ****     cystatus status = CY_DMA_INVALID_CHANNEL;
 541:.\Generated_Source\PSoC5/CyDmac.c **** 
 542:.\Generated_Source\PSoC5/CyDmac.c ****     if(chHandle < CY_DMA_NUMBEROF_CHANNELS)
 611              		.loc 1 542 0
 612 0000 1728     		cmp	r0, #23
 543:.\Generated_Source\PSoC5/CyDmac.c ****     {
 544:.\Generated_Source\PSoC5/CyDmac.c ****         status = (cystatus) ((uint32)CY_DMA_CH_STRUCT_PTR[chHandle].action[0u] &
 613              		.loc 1 544 0
 614 0002 9FBF     		itttt	ls
 615 0004 034B     		ldrls	r3, .L69
 616 0006 0001     		lslls	r0, r0, #4
 617              	.LVL60:
 618 0008 185C     		ldrbls	r0, [r3, r0]	@ zero_extendqisi2
 619 000a 00F00700 		andls	r0, r0, #7
 620              	.LVL61:
 540:.\Generated_Source\PSoC5/CyDmac.c ****     cystatus status = CY_DMA_INVALID_CHANNEL;
 621              		.loc 1 540 0
 622 000e 88BF     		it	hi
 623 0010 FF20     		movhi	r0, #255
 624              	.LVL62:
 545:.\Generated_Source\PSoC5/CyDmac.c ****                             (uint32)(CY_DMA_CPU_REQ | CY_DMA_CPU_TERM_TD | CY_DMA_CPU_TERM_CHAIN));
 546:.\Generated_Source\PSoC5/CyDmac.c ****     }
 547:.\Generated_Source\PSoC5/CyDmac.c **** 
 548:.\Generated_Source\PSoC5/CyDmac.c ****     return(status);
 549:.\Generated_Source\PSoC5/CyDmac.c **** }
 625              		.loc 1 549 0
 626 0012 7047     		bx	lr
 627              	.L70:
 628              		.align	2
 629              	.L69:
 630 0014 14700040 		.word	1073770516
ARM GAS  C:\Users\IVYLIU~1\AppData\Local\Temp\ccZx1vXn.s 			page 22


 631              		.cfi_endproc
 632              	.LFE13:
 633              		.size	CyDmaChGetRequest, .-CyDmaChGetRequest
 634              		.section	.text.CyDmaChStatus,"ax",%progbits
 635              		.align	1
 636              		.global	CyDmaChStatus
 637              		.thumb
 638              		.thumb_func
 639              		.type	CyDmaChStatus, %function
 640              	CyDmaChStatus:
 641              	.LFB14:
 550:.\Generated_Source\PSoC5/CyDmac.c **** 
 551:.\Generated_Source\PSoC5/CyDmac.c **** 
 552:.\Generated_Source\PSoC5/CyDmac.c **** /*******************************************************************************
 553:.\Generated_Source\PSoC5/CyDmac.c **** * Function Name: CyDmaChStatus
 554:.\Generated_Source\PSoC5/CyDmac.c **** ****************************************************************************//**
 555:.\Generated_Source\PSoC5/CyDmac.c **** *
 556:.\Generated_Source\PSoC5/CyDmac.c **** *  Determines the status of the DMA channel.
 557:.\Generated_Source\PSoC5/CyDmac.c **** *
 558:.\Generated_Source\PSoC5/CyDmac.c **** *  \param chHandle A handle previously returned by \ref CyDmaChAlloc() or \ref
 559:.\Generated_Source\PSoC5/CyDmac.c **** *  DMA_DmaInitalize().
 560:.\Generated_Source\PSoC5/CyDmac.c **** *
 561:.\Generated_Source\PSoC5/CyDmac.c **** *  \param currentTd The address to store the index of the current TD. Can be NULL
 562:.\Generated_Source\PSoC5/CyDmac.c **** *  if the value is not needed.
 563:.\Generated_Source\PSoC5/CyDmac.c **** *
 564:.\Generated_Source\PSoC5/CyDmac.c **** *  \param state The address to store the state of the channel. Can be NULL if the
 565:.\Generated_Source\PSoC5/CyDmac.c **** *  value is not needed.
 566:.\Generated_Source\PSoC5/CyDmac.c **** *
 567:.\Generated_Source\PSoC5/CyDmac.c **** *   STATUS_TD_ACTIVE
 568:.\Generated_Source\PSoC5/CyDmac.c **** *    \param 0: Channel is not currently being serviced by DMAC
 569:.\Generated_Source\PSoC5/CyDmac.c **** *    \param 1: Channel is currently being serviced by DMAC
 570:.\Generated_Source\PSoC5/CyDmac.c **** *
 571:.\Generated_Source\PSoC5/CyDmac.c **** *   STATUS_CHAIN_ACTIVE
 572:.\Generated_Source\PSoC5/CyDmac.c **** *    \param 0: TD chain is inactive; either no DMA requests have triggered a new chain
 573:.\Generated_Source\PSoC5/CyDmac.c **** *       or the previous chain has completed.
 574:.\Generated_Source\PSoC5/CyDmac.c **** *    \param 1: TD chain has been triggered by a DMA request
 575:.\Generated_Source\PSoC5/CyDmac.c **** *
 576:.\Generated_Source\PSoC5/CyDmac.c **** * \return CYRET_SUCCESS if successful.
 577:.\Generated_Source\PSoC5/CyDmac.c **** * \return CYRET_BAD_PARAM if chHandle is invalid.
 578:.\Generated_Source\PSoC5/CyDmac.c **** *
 579:.\Generated_Source\PSoC5/CyDmac.c **** * Theory:
 580:.\Generated_Source\PSoC5/CyDmac.c **** *   The caller can check on the activity of the Current TD and the Chain.
 581:.\Generated_Source\PSoC5/CyDmac.c **** *
 582:.\Generated_Source\PSoC5/CyDmac.c **** *******************************************************************************/
 583:.\Generated_Source\PSoC5/CyDmac.c **** cystatus CyDmaChStatus(uint8 chHandle, uint8 * currentTd, uint8 * state) 
 584:.\Generated_Source\PSoC5/CyDmac.c **** {
 642              		.loc 1 584 0
 643              		.cfi_startproc
 644              		@ args = 0, pretend = 0, frame = 0
 645              		@ frame_needed = 0, uses_anonymous_args = 0
 646              	.LVL63:
 585:.\Generated_Source\PSoC5/CyDmac.c ****     cystatus status = CYRET_BAD_PARAM;
 586:.\Generated_Source\PSoC5/CyDmac.c **** 
 587:.\Generated_Source\PSoC5/CyDmac.c ****     if(chHandle < CY_DMA_NUMBEROF_CHANNELS)
 647              		.loc 1 587 0
 648 0000 1728     		cmp	r0, #23
 584:.\Generated_Source\PSoC5/CyDmac.c ****     cystatus status = CYRET_BAD_PARAM;
ARM GAS  C:\Users\IVYLIU~1\AppData\Local\Temp\ccZx1vXn.s 			page 23


 649              		.loc 1 584 0
 650 0002 10B5     		push	{r4, lr}
 651              		.cfi_def_cfa_offset 8
 652              		.cfi_offset 4, -8
 653              		.cfi_offset 14, -4
 654              		.loc 1 587 0
 655 0004 0DD8     		bhi	.L74
 588:.\Generated_Source\PSoC5/CyDmac.c ****     {
 589:.\Generated_Source\PSoC5/CyDmac.c ****         if(NULL != currentTd)
 656              		.loc 1 589 0
 657 0006 29B1     		cbz	r1, .L73
 590:.\Generated_Source\PSoC5/CyDmac.c ****         {
 591:.\Generated_Source\PSoC5/CyDmac.c ****             *currentTd = CY_DMA_CH_STRUCT_PTR[chHandle].basic_status[1] & 0x7Fu;
 658              		.loc 1 591 0
 659 0008 074B     		ldr	r3, .L80
 660 000a 0401     		lsls	r4, r0, #4
 661 000c 1B5D     		ldrb	r3, [r3, r4]	@ zero_extendqisi2
 662 000e 03F07F03 		and	r3, r3, #127
 663 0012 0B70     		strb	r3, [r1]
 664              	.L73:
 592:.\Generated_Source\PSoC5/CyDmac.c ****         }
 593:.\Generated_Source\PSoC5/CyDmac.c **** 
 594:.\Generated_Source\PSoC5/CyDmac.c ****         if(NULL != state)
 665              		.loc 1 594 0
 666 0014 1AB1     		cbz	r2, .L79
 595:.\Generated_Source\PSoC5/CyDmac.c ****         {
 596:.\Generated_Source\PSoC5/CyDmac.c ****             *state= CY_DMA_CH_STRUCT_PTR[chHandle].basic_status[0];
 667              		.loc 1 596 0
 668 0016 054B     		ldr	r3, .L80+4
 669 0018 0001     		lsls	r0, r0, #4
 670              	.LVL64:
 671 001a 1B5C     		ldrb	r3, [r3, r0]	@ zero_extendqisi2
 672 001c 1370     		strb	r3, [r2]
 673              	.L79:
 597:.\Generated_Source\PSoC5/CyDmac.c ****         }
 598:.\Generated_Source\PSoC5/CyDmac.c **** 
 599:.\Generated_Source\PSoC5/CyDmac.c ****         status = CYRET_SUCCESS;
 674              		.loc 1 599 0
 675 001e 0020     		movs	r0, #0
 676 0020 10BD     		pop	{r4, pc}
 677              	.LVL65:
 678              	.L74:
 585:.\Generated_Source\PSoC5/CyDmac.c **** 
 679              		.loc 1 585 0
 680 0022 0120     		movs	r0, #1
 681              	.LVL66:
 682 0024 10BD     		pop	{r4, pc}
 683              	.L81:
 684 0026 00BF     		.align	2
 685              	.L80:
 686 0028 19700040 		.word	1073770521
 687 002c 18700040 		.word	1073770520
 688              		.cfi_endproc
 689              	.LFE14:
 690              		.size	CyDmaChStatus, .-CyDmaChStatus
 691              		.section	.text.CyDmaChSetConfiguration,"ax",%progbits
 692              		.align	1
ARM GAS  C:\Users\IVYLIU~1\AppData\Local\Temp\ccZx1vXn.s 			page 24


 693              		.global	CyDmaChSetConfiguration
 694              		.thumb
 695              		.thumb_func
 696              		.type	CyDmaChSetConfiguration, %function
 697              	CyDmaChSetConfiguration:
 698              	.LFB15:
 600:.\Generated_Source\PSoC5/CyDmac.c ****     }
 601:.\Generated_Source\PSoC5/CyDmac.c **** 
 602:.\Generated_Source\PSoC5/CyDmac.c ****     return (status);
 603:.\Generated_Source\PSoC5/CyDmac.c **** }
 604:.\Generated_Source\PSoC5/CyDmac.c **** 
 605:.\Generated_Source\PSoC5/CyDmac.c **** 
 606:.\Generated_Source\PSoC5/CyDmac.c **** /*******************************************************************************
 607:.\Generated_Source\PSoC5/CyDmac.c **** * Function Name: CyDmaChSetConfiguration
 608:.\Generated_Source\PSoC5/CyDmac.c **** ****************************************************************************//**
 609:.\Generated_Source\PSoC5/CyDmac.c **** *
 610:.\Generated_Source\PSoC5/CyDmac.c **** * Sets configuration information of the channel.
 611:.\Generated_Source\PSoC5/CyDmac.c **** *
 612:.\Generated_Source\PSoC5/CyDmac.c **** *  \param uint8 chHandle:
 613:.\Generated_Source\PSoC5/CyDmac.c **** *   A handle previously returned by CyDmaChAlloc() or DMA_DmaInitialize().
 614:.\Generated_Source\PSoC5/CyDmac.c **** *
 615:.\Generated_Source\PSoC5/CyDmac.c **** *  \param uint8 burstCount:
 616:.\Generated_Source\PSoC5/CyDmac.c **** *   Specifies the size of bursts (1 to 127) the data transfer should be divided
 617:.\Generated_Source\PSoC5/CyDmac.c **** *   into. If this value is zero then the whole transfer is done in one burst.
 618:.\Generated_Source\PSoC5/CyDmac.c **** *
 619:.\Generated_Source\PSoC5/CyDmac.c **** *  \param uint8 requestPerBurst:
 620:.\Generated_Source\PSoC5/CyDmac.c **** *   The whole of the data can be split into multiple bursts, if this is
 621:.\Generated_Source\PSoC5/CyDmac.c **** *   \param required to complete the transaction:
 622:.\Generated_Source\PSoC5/CyDmac.c **** *    \param 0: All subsequent bursts after the first burst will be automatically
 623:.\Generated_Source\PSoC5/CyDmac.c **** *       requested and carried out
 624:.\Generated_Source\PSoC5/CyDmac.c **** *    \param 1: All subsequent bursts after the first burst must also be individually
 625:.\Generated_Source\PSoC5/CyDmac.c **** *       requested.
 626:.\Generated_Source\PSoC5/CyDmac.c **** *
 627:.\Generated_Source\PSoC5/CyDmac.c **** *  \param uint8 tdDone0:
 628:.\Generated_Source\PSoC5/CyDmac.c **** *   Selects one of the TERMOUT0 interrupt lines to signal completion. The line
 629:.\Generated_Source\PSoC5/CyDmac.c **** *   connected to the nrq terminal will determine the TERMOUT0_SEL definition and
 630:.\Generated_Source\PSoC5/CyDmac.c **** *   should be used as supplied by cyfitter.h
 631:.\Generated_Source\PSoC5/CyDmac.c **** *
 632:.\Generated_Source\PSoC5/CyDmac.c **** *  \param uint8 tdDone1:
 633:.\Generated_Source\PSoC5/CyDmac.c **** *   Selects one of the TERMOUT1 interrupt lines to signal completion. The line
 634:.\Generated_Source\PSoC5/CyDmac.c **** *   connected to the nrq terminal will determine the TERMOUT1_SEL definition and
 635:.\Generated_Source\PSoC5/CyDmac.c **** *   should be used as supplied by cyfitter.h
 636:.\Generated_Source\PSoC5/CyDmac.c **** *
 637:.\Generated_Source\PSoC5/CyDmac.c **** *  \param uint8 tdStop:
 638:.\Generated_Source\PSoC5/CyDmac.c **** *   Selects one of the TERMIN interrupt lines to signal to the DMAC that the TD
 639:.\Generated_Source\PSoC5/CyDmac.c **** *   should terminate. The signal connected to the trq terminal will determine
 640:.\Generated_Source\PSoC5/CyDmac.c **** *   which TERMIN (termination request) is used.
 641:.\Generated_Source\PSoC5/CyDmac.c **** *
 642:.\Generated_Source\PSoC5/CyDmac.c **** * \return
 643:.\Generated_Source\PSoC5/CyDmac.c **** *  CYRET_SUCCESS if successful.
 644:.\Generated_Source\PSoC5/CyDmac.c **** *  CYRET_BAD_PARAM if chHandle is invalid.
 645:.\Generated_Source\PSoC5/CyDmac.c **** *
 646:.\Generated_Source\PSoC5/CyDmac.c **** *******************************************************************************/
 647:.\Generated_Source\PSoC5/CyDmac.c **** cystatus CyDmaChSetConfiguration(uint8 chHandle, uint8 burstCount, uint8 requestPerBurst,
 648:.\Generated_Source\PSoC5/CyDmac.c ****                                  uint8 tdDone0, uint8 tdDone1, uint8 tdStop) 
 649:.\Generated_Source\PSoC5/CyDmac.c **** {
 699              		.loc 1 649 0
ARM GAS  C:\Users\IVYLIU~1\AppData\Local\Temp\ccZx1vXn.s 			page 25


 700              		.cfi_startproc
 701              		@ args = 8, pretend = 0, frame = 0
 702              		@ frame_needed = 0, uses_anonymous_args = 0
 703              	.LVL67:
 650:.\Generated_Source\PSoC5/CyDmac.c ****     cystatus status = CYRET_BAD_PARAM;
 651:.\Generated_Source\PSoC5/CyDmac.c **** 
 652:.\Generated_Source\PSoC5/CyDmac.c ****     if(chHandle < CY_DMA_NUMBEROF_CHANNELS)
 704              		.loc 1 652 0
 705 0000 1728     		cmp	r0, #23
 649:.\Generated_Source\PSoC5/CyDmac.c ****     cystatus status = CYRET_BAD_PARAM;
 706              		.loc 1 649 0
 707 0002 10B5     		push	{r4, lr}
 708              		.cfi_def_cfa_offset 8
 709              		.cfi_offset 4, -8
 710              		.cfi_offset 14, -4
 711              		.loc 1 652 0
 712 0004 1AD8     		bhi	.L84
 653:.\Generated_Source\PSoC5/CyDmac.c ****     {
 654:.\Generated_Source\PSoC5/CyDmac.c ****         CY_DMA_CFGMEM_STRUCT_PTR[chHandle].CFG0[0] = (burstCount & 0x7Fu) | ((uint8)((requestPerBur
 713              		.loc 1 654 0
 714 0006 C000     		lsls	r0, r0, #3
 715              	.LVL68:
 716 0008 01F07F01 		and	r1, r1, #127
 717              	.LVL69:
 718 000c 00F18044 		add	r4, r0, #1073741824
 719 0010 41EAC212 		orr	r2, r1, r2, lsl #7
 720              	.LVL70:
 721 0014 04F5EC44 		add	r4, r4, #30208
 722 0018 D2B2     		uxtb	r2, r2
 723 001a 2270     		strb	r2, [r4]
 655:.\Generated_Source\PSoC5/CyDmac.c ****         CY_DMA_CFGMEM_STRUCT_PTR[chHandle].CFG0[1] = ((uint8)((tdDone1 & 0xFu) << 4u)) | (tdDone0 &
 724              		.loc 1 655 0
 725 001c 9DF80820 		ldrb	r2, [sp, #8]	@ zero_extendqisi2
 726 0020 03F00F03 		and	r3, r3, #15
 727              	.LVL71:
 728 0024 43EA0213 		orr	r3, r3, r2, lsl #4
 729 0028 DBB2     		uxtb	r3, r3
 730 002a 6370     		strb	r3, [r4, #1]
 656:.\Generated_Source\PSoC5/CyDmac.c ****         CY_DMA_CFGMEM_STRUCT_PTR[chHandle].CFG0[2] = 0x0Fu & tdStop;
 731              		.loc 1 656 0
 732 002c 9DF80C30 		ldrb	r3, [sp, #12]	@ zero_extendqisi2
 657:.\Generated_Source\PSoC5/CyDmac.c ****         CY_DMA_CFGMEM_STRUCT_PTR[chHandle].CFG0[3] = 0u; /* burstcount_remain. */
 733              		.loc 1 657 0
 734 0030 0020     		movs	r0, #0
 656:.\Generated_Source\PSoC5/CyDmac.c ****         CY_DMA_CFGMEM_STRUCT_PTR[chHandle].CFG0[2] = 0x0Fu & tdStop;
 735              		.loc 1 656 0
 736 0032 03F00F03 		and	r3, r3, #15
 737 0036 A370     		strb	r3, [r4, #2]
 738              		.loc 1 657 0
 739 0038 E070     		strb	r0, [r4, #3]
 740              	.LVL72:
 741 003a 10BD     		pop	{r4, pc}
 742              	.LVL73:
 743              	.L84:
 650:.\Generated_Source\PSoC5/CyDmac.c **** 
 744              		.loc 1 650 0
 745 003c 0120     		movs	r0, #1
ARM GAS  C:\Users\IVYLIU~1\AppData\Local\Temp\ccZx1vXn.s 			page 26


 746              	.LVL74:
 658:.\Generated_Source\PSoC5/CyDmac.c **** 
 659:.\Generated_Source\PSoC5/CyDmac.c ****         status = CYRET_SUCCESS;
 660:.\Generated_Source\PSoC5/CyDmac.c ****     }
 661:.\Generated_Source\PSoC5/CyDmac.c **** 
 662:.\Generated_Source\PSoC5/CyDmac.c ****     return (status);
 663:.\Generated_Source\PSoC5/CyDmac.c **** }
 747              		.loc 1 663 0
 748 003e 10BD     		pop	{r4, pc}
 749              		.cfi_endproc
 750              	.LFE15:
 751              		.size	CyDmaChSetConfiguration, .-CyDmaChSetConfiguration
 752              		.section	.text.CyDmaTdAllocate,"ax",%progbits
 753              		.align	1
 754              		.global	CyDmaTdAllocate
 755              		.thumb
 756              		.thumb_func
 757              		.type	CyDmaTdAllocate, %function
 758              	CyDmaTdAllocate:
 759              	.LFB16:
 664:.\Generated_Source\PSoC5/CyDmac.c **** 
 665:.\Generated_Source\PSoC5/CyDmac.c **** 
 666:.\Generated_Source\PSoC5/CyDmac.c **** /*******************************************************************************
 667:.\Generated_Source\PSoC5/CyDmac.c **** * Function Name: CyDmaTdAllocate
 668:.\Generated_Source\PSoC5/CyDmac.c **** ****************************************************************************//**
 669:.\Generated_Source\PSoC5/CyDmac.c **** *
 670:.\Generated_Source\PSoC5/CyDmac.c **** *  Allocates a TD for use with an allocated DMA channel.
 671:.\Generated_Source\PSoC5/CyDmac.c **** *
 672:.\Generated_Source\PSoC5/CyDmac.c **** * \return
 673:.\Generated_Source\PSoC5/CyDmac.c **** *  Zero-based index of the TD to be used by the caller. Since there are 128 TDs
 674:.\Generated_Source\PSoC5/CyDmac.c **** *  minus the reserved TDs (0 to 23), the value returned would range from 24 to
 675:.\Generated_Source\PSoC5/CyDmac.c **** *  127 not 24 to 128. DMA_INVALID_TD is returned if there are no free TDs
 676:.\Generated_Source\PSoC5/CyDmac.c **** *  available.
 677:.\Generated_Source\PSoC5/CyDmac.c **** *
 678:.\Generated_Source\PSoC5/CyDmac.c **** *******************************************************************************/
 679:.\Generated_Source\PSoC5/CyDmac.c **** uint8 CyDmaTdAllocate(void) 
 680:.\Generated_Source\PSoC5/CyDmac.c **** {
 760              		.loc 1 680 0
 761              		.cfi_startproc
 762              		@ args = 0, pretend = 0, frame = 0
 763              		@ frame_needed = 0, uses_anonymous_args = 0
 764              	.LVL75:
 765 0000 10B5     		push	{r4, lr}
 766              		.cfi_def_cfa_offset 8
 767              		.cfi_offset 4, -8
 768              		.cfi_offset 14, -4
 681:.\Generated_Source\PSoC5/CyDmac.c ****     uint8 interruptState;
 682:.\Generated_Source\PSoC5/CyDmac.c ****     uint8 element = CY_DMA_INVALID_TD;
 683:.\Generated_Source\PSoC5/CyDmac.c **** 
 684:.\Generated_Source\PSoC5/CyDmac.c ****     /* Enter critical section! */
 685:.\Generated_Source\PSoC5/CyDmac.c ****     interruptState = CyEnterCriticalSection();
 769              		.loc 1 685 0
 770 0002 FFF7FEFF 		bl	CyEnterCriticalSection
 771              	.LVL76:
 686:.\Generated_Source\PSoC5/CyDmac.c **** 
 687:.\Generated_Source\PSoC5/CyDmac.c ****     if(CyDmaTdCurrentNumber > NUMBEROF_CHANNELS)
 772              		.loc 1 687 0
ARM GAS  C:\Users\IVYLIU~1\AppData\Local\Temp\ccZx1vXn.s 			page 27


 773 0006 0B4A     		ldr	r2, .L88
 774 0008 5378     		ldrb	r3, [r2, #1]	@ zero_extendqisi2
 775 000a 182B     		cmp	r3, #24
 688:.\Generated_Source\PSoC5/CyDmac.c ****     {
 689:.\Generated_Source\PSoC5/CyDmac.c ****         /* Get pointer to Next available. */
 690:.\Generated_Source\PSoC5/CyDmac.c ****         element = CyDmaTdFreeIndex;
 776              		.loc 1 690 0
 777 000c 81BF     		itttt	hi
 778 000e 1478     		ldrbhi	r4, [r2]	@ zero_extendqisi2
 779              	.LVL77:
 691:.\Generated_Source\PSoC5/CyDmac.c **** 
 692:.\Generated_Source\PSoC5/CyDmac.c ****         /* Decrement the count. */
 693:.\Generated_Source\PSoC5/CyDmac.c ****         CyDmaTdCurrentNumber--;
 780              		.loc 1 693 0
 781 0010 03F1FF33 		addhi	r3, r3, #-1
 782 0014 5370     		strbhi	r3, [r2, #1]
 694:.\Generated_Source\PSoC5/CyDmac.c **** 
 695:.\Generated_Source\PSoC5/CyDmac.c ****         /* Update next available pointer. */
 696:.\Generated_Source\PSoC5/CyDmac.c ****         CyDmaTdFreeIndex = CY_DMA_TDMEM_STRUCT_PTR[element].TD0[0];
 783              		.loc 1 696 0
 784 0016 E300     		lslhi	r3, r4, #3
 785 0018 83BF     		ittte	hi
 786 001a 03F18043 		addhi	r3, r3, #1073741824
 787 001e 03F5F043 		addhi	r3, r3, #30720
 788 0022 1B78     		ldrbhi	r3, [r3]	@ zero_extendqisi2
 682:.\Generated_Source\PSoC5/CyDmac.c **** 
 789              		.loc 1 682 0
 790 0024 FF24     		movls	r4, #255
 791              	.LVL78:
 792              		.loc 1 696 0
 793 0026 88BF     		it	hi
 794 0028 1370     		strbhi	r3, [r2]
 697:.\Generated_Source\PSoC5/CyDmac.c ****     }
 698:.\Generated_Source\PSoC5/CyDmac.c **** 
 699:.\Generated_Source\PSoC5/CyDmac.c ****     /* Exit critical section! */
 700:.\Generated_Source\PSoC5/CyDmac.c ****     CyExitCriticalSection(interruptState);
 795              		.loc 1 700 0
 796 002a FFF7FEFF 		bl	CyExitCriticalSection
 797              	.LVL79:
 701:.\Generated_Source\PSoC5/CyDmac.c **** 
 702:.\Generated_Source\PSoC5/CyDmac.c ****     return(element);
 703:.\Generated_Source\PSoC5/CyDmac.c **** }
 798              		.loc 1 703 0
 799 002e 2046     		mov	r0, r4
 800 0030 10BD     		pop	{r4, pc}
 801              	.LVL80:
 802              	.L89:
 803 0032 00BF     		.align	2
 804              	.L88:
 805 0034 00000000 		.word	.LANCHOR0
 806              		.cfi_endproc
 807              	.LFE16:
 808              		.size	CyDmaTdAllocate, .-CyDmaTdAllocate
 809              		.section	.text.CyDmaTdFree,"ax",%progbits
 810              		.align	1
 811              		.global	CyDmaTdFree
 812              		.thumb
ARM GAS  C:\Users\IVYLIU~1\AppData\Local\Temp\ccZx1vXn.s 			page 28


 813              		.thumb_func
 814              		.type	CyDmaTdFree, %function
 815              	CyDmaTdFree:
 816              	.LFB17:
 704:.\Generated_Source\PSoC5/CyDmac.c **** 
 705:.\Generated_Source\PSoC5/CyDmac.c **** 
 706:.\Generated_Source\PSoC5/CyDmac.c **** /*******************************************************************************
 707:.\Generated_Source\PSoC5/CyDmac.c **** * Function Name: CyDmaTdFree
 708:.\Generated_Source\PSoC5/CyDmac.c **** ****************************************************************************//**
 709:.\Generated_Source\PSoC5/CyDmac.c **** *
 710:.\Generated_Source\PSoC5/CyDmac.c **** *  Returns a TD to the free list.
 711:.\Generated_Source\PSoC5/CyDmac.c **** *
 712:.\Generated_Source\PSoC5/CyDmac.c **** *  \param uint8 tdHandle:
 713:.\Generated_Source\PSoC5/CyDmac.c **** *   The TD handle returned by the CyDmaTdAllocate().
 714:.\Generated_Source\PSoC5/CyDmac.c **** *
 715:.\Generated_Source\PSoC5/CyDmac.c **** *******************************************************************************/
 716:.\Generated_Source\PSoC5/CyDmac.c **** void CyDmaTdFree(uint8 tdHandle) 
 717:.\Generated_Source\PSoC5/CyDmac.c **** {
 817              		.loc 1 717 0
 818              		.cfi_startproc
 819              		@ args = 0, pretend = 0, frame = 0
 820              		@ frame_needed = 0, uses_anonymous_args = 0
 821              	.LVL81:
 718:.\Generated_Source\PSoC5/CyDmac.c ****     if(tdHandle < CY_DMA_NUMBEROF_TDS)
 822              		.loc 1 718 0
 823 0000 0306     		lsls	r3, r0, #24
 717:.\Generated_Source\PSoC5/CyDmac.c ****     if(tdHandle < CY_DMA_NUMBEROF_TDS)
 824              		.loc 1 717 0
 825 0002 10B5     		push	{r4, lr}
 826              		.cfi_def_cfa_offset 8
 827              		.cfi_offset 4, -8
 828              		.cfi_offset 14, -4
 717:.\Generated_Source\PSoC5/CyDmac.c ****     if(tdHandle < CY_DMA_NUMBEROF_TDS)
 829              		.loc 1 717 0
 830 0004 0446     		mov	r4, r0
 831              		.loc 1 718 0
 832 0006 11D4     		bmi	.L90
 833              	.LBB2:
 719:.\Generated_Source\PSoC5/CyDmac.c ****     {
 720:.\Generated_Source\PSoC5/CyDmac.c ****         /* Enter critical section! */
 721:.\Generated_Source\PSoC5/CyDmac.c ****         uint8 interruptState = CyEnterCriticalSection();
 834              		.loc 1 721 0
 835 0008 FFF7FEFF 		bl	CyEnterCriticalSection
 836              	.LVL82:
 722:.\Generated_Source\PSoC5/CyDmac.c **** 
 723:.\Generated_Source\PSoC5/CyDmac.c ****         /* Get pointer to Next available. */
 724:.\Generated_Source\PSoC5/CyDmac.c ****         CY_DMA_TDMEM_STRUCT_PTR[tdHandle].TD0[0u] = CyDmaTdFreeIndex;
 837              		.loc 1 724 0
 838 000c 084A     		ldr	r2, .L92
 839 000e E300     		lsls	r3, r4, #3
 840 0010 1178     		ldrb	r1, [r2]	@ zero_extendqisi2
 841 0012 03F18043 		add	r3, r3, #1073741824
 842 0016 03F5F043 		add	r3, r3, #30720
 843 001a 1970     		strb	r1, [r3]
 725:.\Generated_Source\PSoC5/CyDmac.c **** 
 726:.\Generated_Source\PSoC5/CyDmac.c ****         /* Set new Next Available. */
 727:.\Generated_Source\PSoC5/CyDmac.c ****         CyDmaTdFreeIndex = tdHandle;
ARM GAS  C:\Users\IVYLIU~1\AppData\Local\Temp\ccZx1vXn.s 			page 29


 728:.\Generated_Source\PSoC5/CyDmac.c **** 
 729:.\Generated_Source\PSoC5/CyDmac.c ****         /* Keep track of how many left. */
 730:.\Generated_Source\PSoC5/CyDmac.c ****         CyDmaTdCurrentNumber++;
 844              		.loc 1 730 0
 845 001c 5378     		ldrb	r3, [r2, #1]	@ zero_extendqisi2
 727:.\Generated_Source\PSoC5/CyDmac.c **** 
 846              		.loc 1 727 0
 847 001e 1470     		strb	r4, [r2]
 848              		.loc 1 730 0
 849 0020 0133     		adds	r3, r3, #1
 850 0022 5370     		strb	r3, [r2, #1]
 851              	.LBE2:
 731:.\Generated_Source\PSoC5/CyDmac.c **** 
 732:.\Generated_Source\PSoC5/CyDmac.c ****         /* Exit critical section! */
 733:.\Generated_Source\PSoC5/CyDmac.c ****         CyExitCriticalSection(interruptState);
 734:.\Generated_Source\PSoC5/CyDmac.c ****     }
 735:.\Generated_Source\PSoC5/CyDmac.c **** }
 852              		.loc 1 735 0
 853 0024 BDE81040 		pop	{r4, lr}
 854              		.cfi_remember_state
 855              		.cfi_restore 14
 856              		.cfi_restore 4
 857              		.cfi_def_cfa_offset 0
 858              	.LBB3:
 733:.\Generated_Source\PSoC5/CyDmac.c ****     }
 859              		.loc 1 733 0
 860 0028 FFF7FEBF 		b	CyExitCriticalSection
 861              	.LVL83:
 862              	.L90:
 863              		.cfi_restore_state
 864 002c 10BD     		pop	{r4, pc}
 865              	.L93:
 866 002e 00BF     		.align	2
 867              	.L92:
 868 0030 00000000 		.word	.LANCHOR0
 869              	.LBE3:
 870              		.cfi_endproc
 871              	.LFE17:
 872              		.size	CyDmaTdFree, .-CyDmaTdFree
 873              		.section	.text.CyDmaTdFreeCount,"ax",%progbits
 874              		.align	1
 875              		.global	CyDmaTdFreeCount
 876              		.thumb
 877              		.thumb_func
 878              		.type	CyDmaTdFreeCount, %function
 879              	CyDmaTdFreeCount:
 880              	.LFB18:
 736:.\Generated_Source\PSoC5/CyDmac.c **** 
 737:.\Generated_Source\PSoC5/CyDmac.c **** 
 738:.\Generated_Source\PSoC5/CyDmac.c **** /*******************************************************************************
 739:.\Generated_Source\PSoC5/CyDmac.c **** * Function Name: CyDmaTdFreeCount
 740:.\Generated_Source\PSoC5/CyDmac.c **** ****************************************************************************//**
 741:.\Generated_Source\PSoC5/CyDmac.c **** *
 742:.\Generated_Source\PSoC5/CyDmac.c **** *  Returns the number of free TDs available to be allocated.
 743:.\Generated_Source\PSoC5/CyDmac.c **** *
 744:.\Generated_Source\PSoC5/CyDmac.c **** * \return
 745:.\Generated_Source\PSoC5/CyDmac.c **** *  The number of free TDs.
ARM GAS  C:\Users\IVYLIU~1\AppData\Local\Temp\ccZx1vXn.s 			page 30


 746:.\Generated_Source\PSoC5/CyDmac.c **** *
 747:.\Generated_Source\PSoC5/CyDmac.c **** *******************************************************************************/
 748:.\Generated_Source\PSoC5/CyDmac.c **** uint8 CyDmaTdFreeCount(void) 
 749:.\Generated_Source\PSoC5/CyDmac.c **** {
 881              		.loc 1 749 0
 882              		.cfi_startproc
 883              		@ args = 0, pretend = 0, frame = 0
 884              		@ frame_needed = 0, uses_anonymous_args = 0
 885              		@ link register save eliminated.
 750:.\Generated_Source\PSoC5/CyDmac.c ****     return(CyDmaTdCurrentNumber - CY_DMA_NUMBEROF_CHANNELS);
 886              		.loc 1 750 0
 887 0000 024B     		ldr	r3, .L95
 888 0002 5878     		ldrb	r0, [r3, #1]	@ zero_extendqisi2
 889 0004 1838     		subs	r0, r0, #24
 751:.\Generated_Source\PSoC5/CyDmac.c **** }
 890              		.loc 1 751 0
 891 0006 C0B2     		uxtb	r0, r0
 892 0008 7047     		bx	lr
 893              	.L96:
 894 000a 00BF     		.align	2
 895              	.L95:
 896 000c 00000000 		.word	.LANCHOR0
 897              		.cfi_endproc
 898              	.LFE18:
 899              		.size	CyDmaTdFreeCount, .-CyDmaTdFreeCount
 900              		.section	.text.CyDmaTdSetConfiguration,"ax",%progbits
 901              		.align	1
 902              		.global	CyDmaTdSetConfiguration
 903              		.thumb
 904              		.thumb_func
 905              		.type	CyDmaTdSetConfiguration, %function
 906              	CyDmaTdSetConfiguration:
 907              	.LFB19:
 752:.\Generated_Source\PSoC5/CyDmac.c **** 
 753:.\Generated_Source\PSoC5/CyDmac.c **** 
 754:.\Generated_Source\PSoC5/CyDmac.c **** /*******************************************************************************
 755:.\Generated_Source\PSoC5/CyDmac.c **** * Function Name: CyDmaTdSetConfiguration
 756:.\Generated_Source\PSoC5/CyDmac.c **** ****************************************************************************//**
 757:.\Generated_Source\PSoC5/CyDmac.c **** *
 758:.\Generated_Source\PSoC5/CyDmac.c **** *  Configures the TD.
 759:.\Generated_Source\PSoC5/CyDmac.c **** *
 760:.\Generated_Source\PSoC5/CyDmac.c **** *  \param uint8 tdHandle:
 761:.\Generated_Source\PSoC5/CyDmac.c **** *   A handle previously returned by CyDmaTdAlloc().
 762:.\Generated_Source\PSoC5/CyDmac.c **** *
 763:.\Generated_Source\PSoC5/CyDmac.c **** *  \param uint16 transferCount:
 764:.\Generated_Source\PSoC5/CyDmac.c **** *   The size of the data transfer (in bytes) for this TD. A size of zero will
 765:.\Generated_Source\PSoC5/CyDmac.c **** *   cause the transfer to continue indefinitely. This parameter is limited to
 766:.\Generated_Source\PSoC5/CyDmac.c **** *   4095 bytes; the TD is not initialized at all when a higher value is passed.
 767:.\Generated_Source\PSoC5/CyDmac.c **** *
 768:.\Generated_Source\PSoC5/CyDmac.c **** *  \param uint8 nextTd:
 769:.\Generated_Source\PSoC5/CyDmac.c **** *   Zero based index of the next Transfer Descriptor in the TD chain. Zero is a
 770:.\Generated_Source\PSoC5/CyDmac.c **** *   valid pointer to the next TD; DMA_END_CHAIN_TD is the end of the chain.
 771:.\Generated_Source\PSoC5/CyDmac.c **** *   DMA_DISABLE_TD indicates an end to the chain and the DMA is disabled. No
 772:.\Generated_Source\PSoC5/CyDmac.c **** *   further TDs are fetched. DMA_DISABLE_TD is only supported on PSoC3 and
 773:.\Generated_Source\PSoC5/CyDmac.c **** *   PSoC 5LP silicons.
 774:.\Generated_Source\PSoC5/CyDmac.c **** *
 775:.\Generated_Source\PSoC5/CyDmac.c **** *  \param uint8 configuration:
ARM GAS  C:\Users\IVYLIU~1\AppData\Local\Temp\ccZx1vXn.s 			page 31


 776:.\Generated_Source\PSoC5/CyDmac.c **** *   Stores the Bit field of configuration bits.
 777:.\Generated_Source\PSoC5/CyDmac.c **** *
 778:.\Generated_Source\PSoC5/CyDmac.c **** *   CY_DMA_TD_SWAP_EN        - Perform endian swap
 779:.\Generated_Source\PSoC5/CyDmac.c **** *
 780:.\Generated_Source\PSoC5/CyDmac.c **** *   CY_DMA_TD_SWAP_SIZE4     - Swap size = 4 bytes
 781:.\Generated_Source\PSoC5/CyDmac.c **** *
 782:.\Generated_Source\PSoC5/CyDmac.c **** *   CY_DMA_TD_AUTO_EXEC_NEXT - The next TD in the chain will trigger
 783:.\Generated_Source\PSoC5/CyDmac.c **** *                              automatically when the current TD completes.
 784:.\Generated_Source\PSoC5/CyDmac.c **** *
 785:.\Generated_Source\PSoC5/CyDmac.c **** *   CY_DMA_TD_TERMIN_EN      - Terminate this TD if a positive edge on the trq
 786:.\Generated_Source\PSoC5/CyDmac.c **** *                              input line occurs. The positive edge must occur
 787:.\Generated_Source\PSoC5/CyDmac.c **** *                              during a burst. That is the only time the DMAC
 788:.\Generated_Source\PSoC5/CyDmac.c **** *                              will listen for it.
 789:.\Generated_Source\PSoC5/CyDmac.c **** *
 790:.\Generated_Source\PSoC5/CyDmac.c **** *   DMA__TD_TERMOUT_EN       - When this TD completes, the TERMOUT signal will
 791:.\Generated_Source\PSoC5/CyDmac.c **** *                              generate a pulse. Note that this option is
 792:.\Generated_Source\PSoC5/CyDmac.c **** *                              instance specific with the instance name followed
 793:.\Generated_Source\PSoC5/CyDmac.c **** *                              by two underscores. In this example, the instance
 794:.\Generated_Source\PSoC5/CyDmac.c **** *                              name is DMA.
 795:.\Generated_Source\PSoC5/CyDmac.c **** *
 796:.\Generated_Source\PSoC5/CyDmac.c **** *   CY_DMA_TD_INC_DST_ADR    - Increment DST_ADR according to the size of each
 797:.\Generated_Source\PSoC5/CyDmac.c **** *                              data transaction in the burst.
 798:.\Generated_Source\PSoC5/CyDmac.c **** *
 799:.\Generated_Source\PSoC5/CyDmac.c **** *   CY_DMA_TD_INC_SRC_ADR    - Increment SRC_ADR according to the size of each
 800:.\Generated_Source\PSoC5/CyDmac.c **** *                              data transaction in the burst.
 801:.\Generated_Source\PSoC5/CyDmac.c **** *
 802:.\Generated_Source\PSoC5/CyDmac.c **** * \return
 803:.\Generated_Source\PSoC5/CyDmac.c **** *  CYRET_SUCCESS if successful.
 804:.\Generated_Source\PSoC5/CyDmac.c **** *  CYRET_BAD_PARAM if tdHandle or transferCount is invalid.
 805:.\Generated_Source\PSoC5/CyDmac.c **** *
 806:.\Generated_Source\PSoC5/CyDmac.c **** *******************************************************************************/
 807:.\Generated_Source\PSoC5/CyDmac.c **** cystatus CyDmaTdSetConfiguration(uint8 tdHandle, uint16 transferCount, uint8 nextTd, uint8 configur
 808:.\Generated_Source\PSoC5/CyDmac.c ****     
 809:.\Generated_Source\PSoC5/CyDmac.c **** {
 908              		.loc 1 809 0
 909              		.cfi_startproc
 910              		@ args = 0, pretend = 0, frame = 0
 911              		@ frame_needed = 0, uses_anonymous_args = 0
 912              	.LVL84:
 913 0000 30B5     		push	{r4, r5, lr}
 914              		.cfi_def_cfa_offset 12
 915              		.cfi_offset 4, -12
 916              		.cfi_offset 5, -8
 917              		.cfi_offset 14, -4
 810:.\Generated_Source\PSoC5/CyDmac.c ****     cystatus status = CYRET_BAD_PARAM;
 811:.\Generated_Source\PSoC5/CyDmac.c **** 
 812:.\Generated_Source\PSoC5/CyDmac.c ****     if((tdHandle < CY_DMA_NUMBEROF_TDS) && (0u == (0xF000u & transferCount)))
 918              		.loc 1 812 0
 919 0002 0406     		lsls	r4, r0, #24
 920 0004 0CD4     		bmi	.L100
 921              		.loc 1 812 0 is_stmt 0 discriminator 1
 922 0006 11F47045 		ands	r5, r1, #61440
 923 000a 09D1     		bne	.L100
 924              	.LBB4:
 813:.\Generated_Source\PSoC5/CyDmac.c ****     {
 814:.\Generated_Source\PSoC5/CyDmac.c ****         /* Set 12 bits transfer count. */
 815:.\Generated_Source\PSoC5/CyDmac.c ****         reg16 *convert = (reg16 *) &CY_DMA_TDMEM_STRUCT_PTR[tdHandle].TD0[0u];
ARM GAS  C:\Users\IVYLIU~1\AppData\Local\Temp\ccZx1vXn.s 			page 32


 925              		.loc 1 815 0 is_stmt 1
 926 000c C400     		lsls	r4, r0, #3
 927 000e 04F18044 		add	r4, r4, #1073741824
 928 0012 04F5F044 		add	r4, r4, #30720
 929              	.LVL85:
 816:.\Generated_Source\PSoC5/CyDmac.c ****         CY_SET_REG16(convert, transferCount);
 930              		.loc 1 816 0
 931 0016 2180     		strh	r1, [r4]	@ movhi
 817:.\Generated_Source\PSoC5/CyDmac.c **** 
 818:.\Generated_Source\PSoC5/CyDmac.c ****         /* Set Next TD pointer. */
 819:.\Generated_Source\PSoC5/CyDmac.c ****         CY_DMA_TDMEM_STRUCT_PTR[tdHandle].TD0[2u] = nextTd;
 932              		.loc 1 819 0
 933 0018 A270     		strb	r2, [r4, #2]
 820:.\Generated_Source\PSoC5/CyDmac.c **** 
 821:.\Generated_Source\PSoC5/CyDmac.c ****         /* Configure the TD */
 822:.\Generated_Source\PSoC5/CyDmac.c ****         CY_DMA_TDMEM_STRUCT_PTR[tdHandle].TD0[3u] = configuration;
 934              		.loc 1 822 0
 935 001a E370     		strb	r3, [r4, #3]
 936              	.LVL86:
 823:.\Generated_Source\PSoC5/CyDmac.c **** 
 824:.\Generated_Source\PSoC5/CyDmac.c ****         status = CYRET_SUCCESS;
 937              		.loc 1 824 0
 938 001c 2846     		mov	r0, r5
 939              	.LVL87:
 940 001e 30BD     		pop	{r4, r5, pc}
 941              	.LVL88:
 942              	.L100:
 943              	.LBE4:
 810:.\Generated_Source\PSoC5/CyDmac.c **** 
 944              		.loc 1 810 0
 945 0020 0120     		movs	r0, #1
 946              	.LVL89:
 825:.\Generated_Source\PSoC5/CyDmac.c ****     }
 826:.\Generated_Source\PSoC5/CyDmac.c **** 
 827:.\Generated_Source\PSoC5/CyDmac.c ****     return(status);
 828:.\Generated_Source\PSoC5/CyDmac.c **** }
 947              		.loc 1 828 0
 948 0022 30BD     		pop	{r4, r5, pc}
 949              		.cfi_endproc
 950              	.LFE19:
 951              		.size	CyDmaTdSetConfiguration, .-CyDmaTdSetConfiguration
 952              		.section	.text.CyDmaTdGetConfiguration,"ax",%progbits
 953              		.align	1
 954              		.global	CyDmaTdGetConfiguration
 955              		.thumb
 956              		.thumb_func
 957              		.type	CyDmaTdGetConfiguration, %function
 958              	CyDmaTdGetConfiguration:
 959              	.LFB20:
 829:.\Generated_Source\PSoC5/CyDmac.c **** 
 830:.\Generated_Source\PSoC5/CyDmac.c **** 
 831:.\Generated_Source\PSoC5/CyDmac.c **** /*******************************************************************************
 832:.\Generated_Source\PSoC5/CyDmac.c **** * Function Name: CyDmaTdGetConfiguration
 833:.\Generated_Source\PSoC5/CyDmac.c **** ****************************************************************************//**
 834:.\Generated_Source\PSoC5/CyDmac.c **** *
 835:.\Generated_Source\PSoC5/CyDmac.c **** *  Retrieves the configuration of the TD. If a NULL pointer is passed as a
 836:.\Generated_Source\PSoC5/CyDmac.c **** *  parameter, that parameter is skipped. You may request only the values you are
ARM GAS  C:\Users\IVYLIU~1\AppData\Local\Temp\ccZx1vXn.s 			page 33


 837:.\Generated_Source\PSoC5/CyDmac.c **** *  interested in.
 838:.\Generated_Source\PSoC5/CyDmac.c **** *
 839:.\Generated_Source\PSoC5/CyDmac.c **** *  \param uint8 tdHandle:
 840:.\Generated_Source\PSoC5/CyDmac.c **** *   A handle previously returned by CyDmaTdAlloc().
 841:.\Generated_Source\PSoC5/CyDmac.c **** *
 842:.\Generated_Source\PSoC5/CyDmac.c **** *  \param uint16 * transferCount:
 843:.\Generated_Source\PSoC5/CyDmac.c **** *   The address to store the size of the data transfer (in bytes) for this TD.
 844:.\Generated_Source\PSoC5/CyDmac.c **** *   A size of zero could indicate that the TD has completed its transfer, or
 845:.\Generated_Source\PSoC5/CyDmac.c **** *   that the TD is doing an indefinite transfer.
 846:.\Generated_Source\PSoC5/CyDmac.c **** *
 847:.\Generated_Source\PSoC5/CyDmac.c **** *  \param uint8 * nextTd:
 848:.\Generated_Source\PSoC5/CyDmac.c **** *   The address to store the index of the next TD in the TD chain.
 849:.\Generated_Source\PSoC5/CyDmac.c **** *
 850:.\Generated_Source\PSoC5/CyDmac.c **** *  \param uint8 * configuration:
 851:.\Generated_Source\PSoC5/CyDmac.c **** *   The address to store the Bit field of configuration bits.
 852:.\Generated_Source\PSoC5/CyDmac.c **** *   See CyDmaTdSetConfiguration() function description.
 853:.\Generated_Source\PSoC5/CyDmac.c **** *
 854:.\Generated_Source\PSoC5/CyDmac.c **** * \return
 855:.\Generated_Source\PSoC5/CyDmac.c **** *  CYRET_SUCCESS if successful.
 856:.\Generated_Source\PSoC5/CyDmac.c **** *  CYRET_BAD_PARAM if tdHandle is invalid.
 857:.\Generated_Source\PSoC5/CyDmac.c **** *
 858:.\Generated_Source\PSoC5/CyDmac.c **** * \sideeffect
 859:.\Generated_Source\PSoC5/CyDmac.c **** *  If TD has a transfer count of N and is executed, the transfer count becomes
 860:.\Generated_Source\PSoC5/CyDmac.c **** *  0. If it is reexecuted, the Transfer count of zero will be interpreted as a
 861:.\Generated_Source\PSoC5/CyDmac.c **** *  request for indefinite transfer. Be careful when requesting TD with a
 862:.\Generated_Source\PSoC5/CyDmac.c **** *  transfer count of zero.
 863:.\Generated_Source\PSoC5/CyDmac.c **** *
 864:.\Generated_Source\PSoC5/CyDmac.c **** *******************************************************************************/
 865:.\Generated_Source\PSoC5/CyDmac.c **** cystatus CyDmaTdGetConfiguration(uint8 tdHandle, uint16 * transferCount, uint8 * nextTd, uint8 * co
 866:.\Generated_Source\PSoC5/CyDmac.c ****     
 867:.\Generated_Source\PSoC5/CyDmac.c **** {
 960              		.loc 1 867 0
 961              		.cfi_startproc
 962              		@ args = 0, pretend = 0, frame = 0
 963              		@ frame_needed = 0, uses_anonymous_args = 0
 964              	.LVL90:
 965 0000 10B5     		push	{r4, lr}
 966              		.cfi_def_cfa_offset 8
 967              		.cfi_offset 4, -8
 968              		.cfi_offset 14, -4
 868:.\Generated_Source\PSoC5/CyDmac.c ****     cystatus status = CYRET_BAD_PARAM;
 869:.\Generated_Source\PSoC5/CyDmac.c **** 
 870:.\Generated_Source\PSoC5/CyDmac.c ****     if(tdHandle < CY_DMA_NUMBEROF_TDS)
 969              		.loc 1 870 0
 970 0002 0406     		lsls	r4, r0, #24
 971 0004 1BD4     		bmi	.L105
 871:.\Generated_Source\PSoC5/CyDmac.c ****     {
 872:.\Generated_Source\PSoC5/CyDmac.c ****         /* If we have pointer */
 873:.\Generated_Source\PSoC5/CyDmac.c ****         if(NULL != transferCount)
 972              		.loc 1 873 0
 973 0006 41B1     		cbz	r1, .L103
 974              	.LBB5:
 874:.\Generated_Source\PSoC5/CyDmac.c ****         {
 875:.\Generated_Source\PSoC5/CyDmac.c ****             /* Get 12 bits of transfer count */
 876:.\Generated_Source\PSoC5/CyDmac.c ****             reg16 *convert = (reg16 *) &CY_DMA_TDMEM_STRUCT_PTR[tdHandle].TD0[0];
 975              		.loc 1 876 0
 976 0008 C400     		lsls	r4, r0, #3
ARM GAS  C:\Users\IVYLIU~1\AppData\Local\Temp\ccZx1vXn.s 			page 34


 977 000a 04F18044 		add	r4, r4, #1073741824
 978 000e 04F5F044 		add	r4, r4, #30720
 979              	.LVL91:
 877:.\Generated_Source\PSoC5/CyDmac.c ****             *transferCount = 0x0FFFu & CY_GET_REG16(convert);
 980              		.loc 1 877 0
 981 0012 2488     		ldrh	r4, [r4]
 982              	.LVL92:
 983 0014 C4F30B04 		ubfx	r4, r4, #0, #12
 984 0018 0C80     		strh	r4, [r1]	@ movhi
 985              	.LVL93:
 986              	.L103:
 987              	.LBE5:
 878:.\Generated_Source\PSoC5/CyDmac.c ****         }
 879:.\Generated_Source\PSoC5/CyDmac.c **** 
 880:.\Generated_Source\PSoC5/CyDmac.c ****         /* If we have pointer */
 881:.\Generated_Source\PSoC5/CyDmac.c ****         if(NULL != nextTd)
 988              		.loc 1 881 0
 989 001a 32B1     		cbz	r2, .L104
 882:.\Generated_Source\PSoC5/CyDmac.c ****         {
 883:.\Generated_Source\PSoC5/CyDmac.c ****             /* Get Next TD pointer */
 884:.\Generated_Source\PSoC5/CyDmac.c ****             *nextTd = CY_DMA_TDMEM_STRUCT_PTR[tdHandle].TD0[2u];
 990              		.loc 1 884 0
 991 001c C100     		lsls	r1, r0, #3
 992              	.LVL94:
 993 001e 01F18041 		add	r1, r1, #1073741824
 994 0022 01F5F041 		add	r1, r1, #30720
 995 0026 8978     		ldrb	r1, [r1, #2]	@ zero_extendqisi2
 996 0028 1170     		strb	r1, [r2]
 997              	.L104:
 885:.\Generated_Source\PSoC5/CyDmac.c ****         }
 886:.\Generated_Source\PSoC5/CyDmac.c **** 
 887:.\Generated_Source\PSoC5/CyDmac.c ****         /* If we have pointer */
 888:.\Generated_Source\PSoC5/CyDmac.c ****         if(NULL != configuration)
 998              		.loc 1 888 0
 999 002a 33B1     		cbz	r3, .L113
 889:.\Generated_Source\PSoC5/CyDmac.c ****         {
 890:.\Generated_Source\PSoC5/CyDmac.c ****             /* Get configuration TD */
 891:.\Generated_Source\PSoC5/CyDmac.c ****             *configuration = CY_DMA_TDMEM_STRUCT_PTR[tdHandle].TD0[3u];
 1000              		.loc 1 891 0
 1001 002c C200     		lsls	r2, r0, #3
 1002              	.LVL95:
 1003 002e 02F18042 		add	r2, r2, #1073741824
 1004 0032 02F5F042 		add	r2, r2, #30720
 1005 0036 D278     		ldrb	r2, [r2, #3]	@ zero_extendqisi2
 1006 0038 1A70     		strb	r2, [r3]
 1007              	.L113:
 892:.\Generated_Source\PSoC5/CyDmac.c ****         }
 893:.\Generated_Source\PSoC5/CyDmac.c **** 
 894:.\Generated_Source\PSoC5/CyDmac.c ****         status = CYRET_SUCCESS;
 1008              		.loc 1 894 0
 1009 003a 0020     		movs	r0, #0
 1010              	.LVL96:
 1011 003c 10BD     		pop	{r4, pc}
 1012              	.LVL97:
 1013              	.L105:
 868:.\Generated_Source\PSoC5/CyDmac.c **** 
 1014              		.loc 1 868 0
ARM GAS  C:\Users\IVYLIU~1\AppData\Local\Temp\ccZx1vXn.s 			page 35


 1015 003e 0120     		movs	r0, #1
 1016              	.LVL98:
 1017 0040 10BD     		pop	{r4, pc}
 1018              		.cfi_endproc
 1019              	.LFE20:
 1020              		.size	CyDmaTdGetConfiguration, .-CyDmaTdGetConfiguration
 1021              		.section	.text.CyDmaTdSetAddress,"ax",%progbits
 1022              		.align	1
 1023              		.global	CyDmaTdSetAddress
 1024              		.thumb
 1025              		.thumb_func
 1026              		.type	CyDmaTdSetAddress, %function
 1027              	CyDmaTdSetAddress:
 1028              	.LFB21:
 895:.\Generated_Source\PSoC5/CyDmac.c ****     }
 896:.\Generated_Source\PSoC5/CyDmac.c **** 
 897:.\Generated_Source\PSoC5/CyDmac.c ****     return(status);
 898:.\Generated_Source\PSoC5/CyDmac.c **** }
 899:.\Generated_Source\PSoC5/CyDmac.c **** 
 900:.\Generated_Source\PSoC5/CyDmac.c **** 
 901:.\Generated_Source\PSoC5/CyDmac.c **** /*******************************************************************************
 902:.\Generated_Source\PSoC5/CyDmac.c **** * Function Name: CyDmaTdSetAddress
 903:.\Generated_Source\PSoC5/CyDmac.c **** ****************************************************************************//**
 904:.\Generated_Source\PSoC5/CyDmac.c **** *
 905:.\Generated_Source\PSoC5/CyDmac.c **** *  Sets the lower 16 bits of the source and destination addresses for this TD
 906:.\Generated_Source\PSoC5/CyDmac.c **** *  only.
 907:.\Generated_Source\PSoC5/CyDmac.c **** *
 908:.\Generated_Source\PSoC5/CyDmac.c **** *  \param uint8 tdHandle:
 909:.\Generated_Source\PSoC5/CyDmac.c **** *   A handle previously returned by CyDmaTdAlloc().
 910:.\Generated_Source\PSoC5/CyDmac.c **** *
 911:.\Generated_Source\PSoC5/CyDmac.c **** *  \param uint16 source:
 912:.\Generated_Source\PSoC5/CyDmac.c **** *   The lower 16 address bits of the source of the data transfer.
 913:.\Generated_Source\PSoC5/CyDmac.c **** *
 914:.\Generated_Source\PSoC5/CyDmac.c **** *  \param uint16 destination:
 915:.\Generated_Source\PSoC5/CyDmac.c **** *   The lower 16 address bits of the destination of the data transfer.
 916:.\Generated_Source\PSoC5/CyDmac.c **** *
 917:.\Generated_Source\PSoC5/CyDmac.c **** * \return
 918:.\Generated_Source\PSoC5/CyDmac.c **** *  CYRET_SUCCESS if successful.
 919:.\Generated_Source\PSoC5/CyDmac.c **** *  CYRET_BAD_PARAM if tdHandle is invalid.
 920:.\Generated_Source\PSoC5/CyDmac.c **** *
 921:.\Generated_Source\PSoC5/CyDmac.c **** *******************************************************************************/
 922:.\Generated_Source\PSoC5/CyDmac.c **** cystatus CyDmaTdSetAddress(uint8 tdHandle, uint16 source, uint16 destination) 
 923:.\Generated_Source\PSoC5/CyDmac.c **** {
 1029              		.loc 1 923 0
 1030              		.cfi_startproc
 1031              		@ args = 0, pretend = 0, frame = 0
 1032              		@ frame_needed = 0, uses_anonymous_args = 0
 1033              		@ link register save eliminated.
 1034              	.LVL99:
 924:.\Generated_Source\PSoC5/CyDmac.c ****     cystatus status = CYRET_BAD_PARAM;
 925:.\Generated_Source\PSoC5/CyDmac.c ****     reg16 *convert;
 926:.\Generated_Source\PSoC5/CyDmac.c **** 
 927:.\Generated_Source\PSoC5/CyDmac.c ****     if(tdHandle < CY_DMA_NUMBEROF_TDS)
 1035              		.loc 1 927 0
 1036 0000 0306     		lsls	r3, r0, #24
 928:.\Generated_Source\PSoC5/CyDmac.c ****     {
 929:.\Generated_Source\PSoC5/CyDmac.c ****         /* Set source address */
ARM GAS  C:\Users\IVYLIU~1\AppData\Local\Temp\ccZx1vXn.s 			page 36


 930:.\Generated_Source\PSoC5/CyDmac.c ****         convert = (reg16 *) &CY_DMA_TDMEM_STRUCT_PTR[tdHandle].TD1[0u];
 1037              		.loc 1 930 0
 1038 0002 5FBF     		itttt	pl
 1039 0004 C000     		lslpl	r0, r0, #3
 1040              	.LVL100:
 1041 0006 00F18040 		addpl	r0, r0, #1073741824
 1042 000a 00F5F040 		addpl	r0, r0, #30720
 1043              	.LVL101:
 931:.\Generated_Source\PSoC5/CyDmac.c ****         CY_SET_REG16(convert, source);
 1044              		.loc 1 931 0
 1045 000e 8180     		strhpl	r1, [r0, #4]	@ movhi
 1046              	.LVL102:
 932:.\Generated_Source\PSoC5/CyDmac.c **** 
 933:.\Generated_Source\PSoC5/CyDmac.c ****         /* Set destination address */
 934:.\Generated_Source\PSoC5/CyDmac.c ****         convert = (reg16 *) &CY_DMA_TDMEM_STRUCT_PTR[tdHandle].TD1[2u];
 935:.\Generated_Source\PSoC5/CyDmac.c ****         CY_SET_REG16(convert, destination);
 1047              		.loc 1 935 0
 1048 0010 5ABF     		itte	pl
 1049 0012 C280     		strhpl	r2, [r0, #6]	@ movhi
 1050              	.LVL103:
 936:.\Generated_Source\PSoC5/CyDmac.c **** 
 937:.\Generated_Source\PSoC5/CyDmac.c ****         status = CYRET_SUCCESS;
 1051              		.loc 1 937 0
 1052 0014 0020     		movpl	r0, #0
 1053              	.LVL104:
 924:.\Generated_Source\PSoC5/CyDmac.c ****     reg16 *convert;
 1054              		.loc 1 924 0
 1055 0016 0120     		movmi	r0, #1
 1056              	.LVL105:
 938:.\Generated_Source\PSoC5/CyDmac.c ****     }
 939:.\Generated_Source\PSoC5/CyDmac.c **** 
 940:.\Generated_Source\PSoC5/CyDmac.c ****     return(status);
 941:.\Generated_Source\PSoC5/CyDmac.c **** }
 1057              		.loc 1 941 0
 1058 0018 7047     		bx	lr
 1059              		.cfi_endproc
 1060              	.LFE21:
 1061              		.size	CyDmaTdSetAddress, .-CyDmaTdSetAddress
 1062              		.section	.text.CyDmaTdGetAddress,"ax",%progbits
 1063              		.align	1
 1064              		.global	CyDmaTdGetAddress
 1065              		.thumb
 1066              		.thumb_func
 1067              		.type	CyDmaTdGetAddress, %function
 1068              	CyDmaTdGetAddress:
 1069              	.LFB22:
 942:.\Generated_Source\PSoC5/CyDmac.c **** 
 943:.\Generated_Source\PSoC5/CyDmac.c **** 
 944:.\Generated_Source\PSoC5/CyDmac.c **** /*******************************************************************************
 945:.\Generated_Source\PSoC5/CyDmac.c **** * Function Name: CyDmaTdGetAddress
 946:.\Generated_Source\PSoC5/CyDmac.c **** ****************************************************************************//**
 947:.\Generated_Source\PSoC5/CyDmac.c **** *
 948:.\Generated_Source\PSoC5/CyDmac.c **** *  Retrieves the lower 16 bits of the source and/or destination addresses for
 949:.\Generated_Source\PSoC5/CyDmac.c **** *  this TD only. If NULL is passed for a pointer parameter, that value is
 950:.\Generated_Source\PSoC5/CyDmac.c **** *  skipped. You may request only the values of interest.
 951:.\Generated_Source\PSoC5/CyDmac.c **** *
 952:.\Generated_Source\PSoC5/CyDmac.c **** *  \param uint8 tdHandle:
ARM GAS  C:\Users\IVYLIU~1\AppData\Local\Temp\ccZx1vXn.s 			page 37


 953:.\Generated_Source\PSoC5/CyDmac.c **** *   A handle previously returned by CyDmaTdAlloc().
 954:.\Generated_Source\PSoC5/CyDmac.c **** *
 955:.\Generated_Source\PSoC5/CyDmac.c **** *  \param uint16 * source:
 956:.\Generated_Source\PSoC5/CyDmac.c **** *   The address to store the lower 16 address bits of the source of the data
 957:.\Generated_Source\PSoC5/CyDmac.c **** *   transfer.
 958:.\Generated_Source\PSoC5/CyDmac.c **** *
 959:.\Generated_Source\PSoC5/CyDmac.c **** *  \param uint16 * destination:
 960:.\Generated_Source\PSoC5/CyDmac.c **** *   The address to store the lower 16 address bits of the destination of the
 961:.\Generated_Source\PSoC5/CyDmac.c **** *   data transfer.
 962:.\Generated_Source\PSoC5/CyDmac.c **** *
 963:.\Generated_Source\PSoC5/CyDmac.c **** * \return
 964:.\Generated_Source\PSoC5/CyDmac.c **** *  CYRET_SUCCESS if successful.
 965:.\Generated_Source\PSoC5/CyDmac.c **** *  CYRET_BAD_PARAM if tdHandle is invalid.
 966:.\Generated_Source\PSoC5/CyDmac.c **** *
 967:.\Generated_Source\PSoC5/CyDmac.c **** *******************************************************************************/
 968:.\Generated_Source\PSoC5/CyDmac.c **** cystatus CyDmaTdGetAddress(uint8 tdHandle, uint16 * source, uint16 * destination) 
 969:.\Generated_Source\PSoC5/CyDmac.c **** {
 1070              		.loc 1 969 0
 1071              		.cfi_startproc
 1072              		@ args = 0, pretend = 0, frame = 0
 1073              		@ frame_needed = 0, uses_anonymous_args = 0
 1074              		@ link register save eliminated.
 1075              	.LVL106:
 970:.\Generated_Source\PSoC5/CyDmac.c ****     cystatus status = CYRET_BAD_PARAM;
 971:.\Generated_Source\PSoC5/CyDmac.c ****     reg16 *convert;
 972:.\Generated_Source\PSoC5/CyDmac.c **** 
 973:.\Generated_Source\PSoC5/CyDmac.c ****     if(tdHandle < CY_DMA_NUMBEROF_TDS)
 1076              		.loc 1 973 0
 1077 0000 0306     		lsls	r3, r0, #24
 1078 0002 11D4     		bmi	.L120
 974:.\Generated_Source\PSoC5/CyDmac.c ****     {
 975:.\Generated_Source\PSoC5/CyDmac.c ****         /* If we have a pointer. */
 976:.\Generated_Source\PSoC5/CyDmac.c ****         if(NULL != source)
 1079              		.loc 1 976 0
 1080 0004 31B1     		cbz	r1, .L119
 977:.\Generated_Source\PSoC5/CyDmac.c ****         {
 978:.\Generated_Source\PSoC5/CyDmac.c ****             /* Get source address */
 979:.\Generated_Source\PSoC5/CyDmac.c ****             convert = (reg16 *) &CY_DMA_TDMEM_STRUCT_PTR[tdHandle].TD1[0u];
 1081              		.loc 1 979 0
 1082 0006 C300     		lsls	r3, r0, #3
 1083 0008 03F18043 		add	r3, r3, #1073741824
 1084 000c 03F5F043 		add	r3, r3, #30720
 1085              	.LVL107:
 980:.\Generated_Source\PSoC5/CyDmac.c ****             *source = CY_GET_REG16(convert);
 1086              		.loc 1 980 0
 1087 0010 9B88     		ldrh	r3, [r3, #4]
 1088              	.LVL108:
 1089 0012 0B80     		strh	r3, [r1]	@ movhi
 1090              	.LVL109:
 1091              	.L119:
 981:.\Generated_Source\PSoC5/CyDmac.c ****         }
 982:.\Generated_Source\PSoC5/CyDmac.c **** 
 983:.\Generated_Source\PSoC5/CyDmac.c ****         /* If we have a pointer. */
 984:.\Generated_Source\PSoC5/CyDmac.c ****         if(NULL != destination)
 1092              		.loc 1 984 0
 1093 0014 32B1     		cbz	r2, .L125
 985:.\Generated_Source\PSoC5/CyDmac.c ****         {
ARM GAS  C:\Users\IVYLIU~1\AppData\Local\Temp\ccZx1vXn.s 			page 38


 986:.\Generated_Source\PSoC5/CyDmac.c ****             /* Get Destination address. */
 987:.\Generated_Source\PSoC5/CyDmac.c ****             convert = (reg16 *) &CY_DMA_TDMEM_STRUCT_PTR[tdHandle].TD1[2u];
 1094              		.loc 1 987 0
 1095 0016 C300     		lsls	r3, r0, #3
 1096 0018 03F18043 		add	r3, r3, #1073741824
 1097 001c 03F5F043 		add	r3, r3, #30720
 1098              	.LVL110:
 988:.\Generated_Source\PSoC5/CyDmac.c ****             *destination = CY_GET_REG16(convert);
 1099              		.loc 1 988 0
 1100 0020 DB88     		ldrh	r3, [r3, #6]
 1101              	.LVL111:
 1102 0022 1380     		strh	r3, [r2]	@ movhi
 1103              	.LVL112:
 1104              	.L125:
 989:.\Generated_Source\PSoC5/CyDmac.c ****         }
 990:.\Generated_Source\PSoC5/CyDmac.c **** 
 991:.\Generated_Source\PSoC5/CyDmac.c ****         status = CYRET_SUCCESS;
 1105              		.loc 1 991 0
 1106 0024 0020     		movs	r0, #0
 1107              	.LVL113:
 1108 0026 7047     		bx	lr
 1109              	.LVL114:
 1110              	.L120:
 970:.\Generated_Source\PSoC5/CyDmac.c ****     reg16 *convert;
 1111              		.loc 1 970 0
 1112 0028 0120     		movs	r0, #1
 1113              	.LVL115:
 1114 002a 7047     		bx	lr
 1115              		.cfi_endproc
 1116              	.LFE22:
 1117              		.size	CyDmaTdGetAddress, .-CyDmaTdGetAddress
 1118              		.section	.text.CyDmaChRoundRobin,"ax",%progbits
 1119              		.align	1
 1120              		.global	CyDmaChRoundRobin
 1121              		.thumb
 1122              		.thumb_func
 1123              		.type	CyDmaChRoundRobin, %function
 1124              	CyDmaChRoundRobin:
 1125              	.LFB23:
 992:.\Generated_Source\PSoC5/CyDmac.c ****     }
 993:.\Generated_Source\PSoC5/CyDmac.c **** 
 994:.\Generated_Source\PSoC5/CyDmac.c ****     return(status);
 995:.\Generated_Source\PSoC5/CyDmac.c **** }
 996:.\Generated_Source\PSoC5/CyDmac.c **** 
 997:.\Generated_Source\PSoC5/CyDmac.c **** 
 998:.\Generated_Source\PSoC5/CyDmac.c **** /*******************************************************************************
 999:.\Generated_Source\PSoC5/CyDmac.c **** * Function Name: CyDmaChRoundRobin
1000:.\Generated_Source\PSoC5/CyDmac.c **** ****************************************************************************//**
1001:.\Generated_Source\PSoC5/CyDmac.c **** *
1002:.\Generated_Source\PSoC5/CyDmac.c **** * Either enables or disables the Round-Robin scheduling enforcement algorithm.
1003:.\Generated_Source\PSoC5/CyDmac.c **** * Within a priority level a Round-Robin fairness algorithm is enforced.
1004:.\Generated_Source\PSoC5/CyDmac.c **** *
1005:.\Generated_Source\PSoC5/CyDmac.c **** * \param uint8 chHandle:
1006:.\Generated_Source\PSoC5/CyDmac.c **** *  A handle previously returned by CyDmaChAlloc() or Dma_DmaInitialize().
1007:.\Generated_Source\PSoC5/CyDmac.c **** *
1008:.\Generated_Source\PSoC5/CyDmac.c **** * \param uint8 enableRR:
1009:.\Generated_Source\PSoC5/CyDmac.c **** *  \param 0: Disable Round-Robin fairness algorithm
ARM GAS  C:\Users\IVYLIU~1\AppData\Local\Temp\ccZx1vXn.s 			page 39


1010:.\Generated_Source\PSoC5/CyDmac.c **** *  \param 1: Enable Round-Robin fairness algorithm
1011:.\Generated_Source\PSoC5/CyDmac.c **** *
1012:.\Generated_Source\PSoC5/CyDmac.c **** * \return
1013:.\Generated_Source\PSoC5/CyDmac.c **** * CYRET_SUCCESS if successful.
1014:.\Generated_Source\PSoC5/CyDmac.c **** * CYRET_BAD_PARAM if chHandle is invalid.
1015:.\Generated_Source\PSoC5/CyDmac.c **** *
1016:.\Generated_Source\PSoC5/CyDmac.c **** *******************************************************************************/
1017:.\Generated_Source\PSoC5/CyDmac.c **** cystatus CyDmaChRoundRobin(uint8 chHandle, uint8 enableRR) 
1018:.\Generated_Source\PSoC5/CyDmac.c **** {
 1126              		.loc 1 1018 0
 1127              		.cfi_startproc
 1128              		@ args = 0, pretend = 0, frame = 0
 1129              		@ frame_needed = 0, uses_anonymous_args = 0
 1130              		@ link register save eliminated.
 1131              	.LVL116:
1019:.\Generated_Source\PSoC5/CyDmac.c ****     cystatus status = CYRET_BAD_PARAM;
1020:.\Generated_Source\PSoC5/CyDmac.c **** 
1021:.\Generated_Source\PSoC5/CyDmac.c ****     if(chHandle < CY_DMA_NUMBEROF_CHANNELS)
 1132              		.loc 1 1021 0
 1133 0000 1728     		cmp	r0, #23
 1134 0002 0DD8     		bhi	.L129
 1135 0004 0301     		lsls	r3, r0, #4
 1136 0006 074A     		ldr	r2, .L131
1022:.\Generated_Source\PSoC5/CyDmac.c ****     {
1023:.\Generated_Source\PSoC5/CyDmac.c ****         if (0u != enableRR)
 1137              		.loc 1 1023 0
 1138 0008 29B1     		cbz	r1, .L128
1024:.\Generated_Source\PSoC5/CyDmac.c ****         {
1025:.\Generated_Source\PSoC5/CyDmac.c ****             CY_DMA_CH_STRUCT_PTR[chHandle].basic_cfg[0u] |= (uint8)CY_DMA_ROUND_ROBIN_ENABLE;
 1139              		.loc 1 1025 0
 1140 000a 995C     		ldrb	r1, [r3, r2]	@ zero_extendqisi2
 1141              	.LVL117:
 1142 000c 41F01001 		orr	r1, r1, #16
 1143 0010 9954     		strb	r1, [r3, r2]
 1144              	.LVL118:
 1145              	.L130:
1026:.\Generated_Source\PSoC5/CyDmac.c ****         }
1027:.\Generated_Source\PSoC5/CyDmac.c ****         else
1028:.\Generated_Source\PSoC5/CyDmac.c ****         {
1029:.\Generated_Source\PSoC5/CyDmac.c ****             CY_DMA_CH_STRUCT_PTR[chHandle].basic_cfg[0u] &= (uint8)(~CY_DMA_ROUND_ROBIN_ENABLE);
1030:.\Generated_Source\PSoC5/CyDmac.c ****         }
1031:.\Generated_Source\PSoC5/CyDmac.c **** 
1032:.\Generated_Source\PSoC5/CyDmac.c ****         status = CYRET_SUCCESS;
 1146              		.loc 1 1032 0
 1147 0012 0020     		movs	r0, #0
 1148 0014 7047     		bx	lr
 1149              	.LVL119:
 1150              	.L128:
1029:.\Generated_Source\PSoC5/CyDmac.c ****         }
 1151              		.loc 1 1029 0
 1152 0016 985C     		ldrb	r0, [r3, r2]	@ zero_extendqisi2
 1153              	.LVL120:
 1154 0018 00F0EF00 		and	r0, r0, #239
 1155 001c 9854     		strb	r0, [r3, r2]
 1156 001e F8E7     		b	.L130
 1157              	.LVL121:
 1158              	.L129:
ARM GAS  C:\Users\IVYLIU~1\AppData\Local\Temp\ccZx1vXn.s 			page 40


1019:.\Generated_Source\PSoC5/CyDmac.c **** 
 1159              		.loc 1 1019 0
 1160 0020 0120     		movs	r0, #1
 1161              	.LVL122:
1033:.\Generated_Source\PSoC5/CyDmac.c ****     }
1034:.\Generated_Source\PSoC5/CyDmac.c **** 
1035:.\Generated_Source\PSoC5/CyDmac.c ****     return(status);
1036:.\Generated_Source\PSoC5/CyDmac.c **** }
 1162              		.loc 1 1036 0
 1163 0022 7047     		bx	lr
 1164              	.L132:
 1165              		.align	2
 1166              	.L131:
 1167 0024 10700040 		.word	1073770512
 1168              		.cfi_endproc
 1169              	.LFE23:
 1170              		.size	CyDmaChRoundRobin, .-CyDmaChRoundRobin
 1171              		.data
 1172              		.align	2
 1173              		.set	.LANCHOR0,. + 0
 1174              		.type	CyDmaTdFreeIndex, %object
 1175              		.size	CyDmaTdFreeIndex, 1
 1176              	CyDmaTdFreeIndex:
 1177 0000 7F       		.byte	127
 1178              		.type	CyDmaTdCurrentNumber, %object
 1179              		.size	CyDmaTdCurrentNumber, 1
 1180              	CyDmaTdCurrentNumber:
 1181 0001 80       		.byte	-128
 1182 0002 0000     		.space	2
 1183              		.type	CyDmaChannels, %object
 1184              		.size	CyDmaChannels, 4
 1185              	CyDmaChannels:
 1186 0004 01000000 		.word	1
 1187              		.text
 1188              	.Letext0:
 1189              		.file 2 ".\\Generated_Source\\PSoC5\\cytypes.h"
 1190              		.file 3 ".\\Generated_Source\\PSoC5\\CyDmac.h"
 1191              		.file 4 ".\\Generated_Source\\PSoC5\\CyLib.h"