ARM GAS  C:\Users\IVYLIU~1\AppData\Local\Temp\ccMJpVqd.s 			page 1


   1              		.syntax unified
   2              		.cpu cortex-m3
   3              		.fpu softvfp
   4              		.eabi_attribute 20, 1
   5              		.eabi_attribute 21, 1
   6              		.eabi_attribute 23, 3
   7              		.eabi_attribute 24, 1
   8              		.eabi_attribute 25, 1
   9              		.eabi_attribute 26, 1
  10              		.eabi_attribute 30, 4
  11              		.eabi_attribute 34, 1
  12              		.eabi_attribute 18, 4
  13              		.thumb
  14              		.file	"GUIConf.c"
  15              		.text
  16              	.Ltext0:
  17              		.cfi_sections	.debug_frame
  18              		.section	.text.GUI_X_Config,"ax",%progbits
  19              		.align	1
  20              		.global	GUI_X_Config
  21              		.thumb
  22              		.thumb_func
  23              		.type	GUI_X_Config, %function
  24              	GUI_X_Config:
  25              	.LFB0:
  26              		.file 1 ".\\GUIConf.c"
   1:.\GUIConf.c   **** /*********************************************************************
   2:.\GUIConf.c   **** *                SEGGER Microcontroller GmbH & Co. KG                *
   3:.\GUIConf.c   **** *        Solutions for real time microcontroller applications        *
   4:.\GUIConf.c   **** **********************************************************************
   5:.\GUIConf.c   **** *                                                                    *
   6:.\GUIConf.c   **** *        (c) 1996 - 2017  SEGGER Microcontroller GmbH & Co. KG       *
   7:.\GUIConf.c   **** *                                                                    *
   8:.\GUIConf.c   **** *        Internet: www.segger.com    Support:  support@segger.com    *
   9:.\GUIConf.c   **** *                                                                    *
  10:.\GUIConf.c   **** **********************************************************************
  11:.\GUIConf.c   **** 
  12:.\GUIConf.c   **** ** emWin V5.46 - Graphical user interface for embedded applications **
  13:.\GUIConf.c   **** All  Intellectual Property rights  in the Software belongs to  SEGGER.
  14:.\GUIConf.c   **** emWin is protected by  international copyright laws.  Knowledge of the
  15:.\GUIConf.c   **** source code may not be used to write a similar product.  This file may
  16:.\GUIConf.c   **** only be used in accordance with the following terms:
  17:.\GUIConf.c   **** 
  18:.\GUIConf.c   **** The software  has been licensed to  Cypress Semiconductor Corporation,
  19:.\GUIConf.c   **** whose registered  office is situated  at 198 Champion Ct. San Jose, CA 
  20:.\GUIConf.c   **** 95134 USA  solely for the  purposes of creating  libraries for Cypress
  21:.\GUIConf.c   **** PSoC3 and  PSoC5 processor-based devices,  sublicensed and distributed
  22:.\GUIConf.c   **** under  the  terms  and  conditions  of  the  Cypress  End User License
  23:.\GUIConf.c   **** Agreement.
  24:.\GUIConf.c   **** Full source code is available at: www.segger.com
  25:.\GUIConf.c   **** 
  26:.\GUIConf.c   **** We appreciate your understanding and fairness.
  27:.\GUIConf.c   **** ----------------------------------------------------------------------
  28:.\GUIConf.c   **** Licensing information
  29:.\GUIConf.c   **** Licensor:                 SEGGER Microcontroller Systems LLC
  30:.\GUIConf.c   **** Licensed to:              Cypress Semiconductor Corp, 198 Champion Ct., San Jose, CA 95134, USA
  31:.\GUIConf.c   **** Licensed SEGGER software: emWin
ARM GAS  C:\Users\IVYLIU~1\AppData\Local\Temp\ccMJpVqd.s 			page 2


  32:.\GUIConf.c   **** License number:           GUI-00319
  33:.\GUIConf.c   **** License model:            Services and License Agreement, signed June 10th, 2009
  34:.\GUIConf.c   **** Licensed platform:        Any Cypress platform (Initial targets are: PSoC3, PSoC5)
  35:.\GUIConf.c   **** ----------------------------------------------------------------------
  36:.\GUIConf.c   **** Support and Update Agreement (SUA)
  37:.\GUIConf.c   **** SUA period:               2009-06-12 - 2022-07-27
  38:.\GUIConf.c   **** Contact to extend SUA:    sales@segger.com
  39:.\GUIConf.c   **** ----------------------------------------------------------------------
  40:.\GUIConf.c   **** File        : GUIConf.c
  41:.\GUIConf.c   **** Purpose     : Display controller initialization
  42:.\GUIConf.c   **** ---------------------------END-OF-HEADER------------------------------
  43:.\GUIConf.c   **** */
  44:.\GUIConf.c   **** 
  45:.\GUIConf.c   **** #include "GUI.h"
  46:.\GUIConf.c   **** 
  47:.\GUIConf.c   **** /*********************************************************************
  48:.\GUIConf.c   **** *
  49:.\GUIConf.c   **** *       Defines
  50:.\GUIConf.c   **** *
  51:.\GUIConf.c   **** **********************************************************************
  52:.\GUIConf.c   **** */
  53:.\GUIConf.c   **** //
  54:.\GUIConf.c   **** // Define the available number of bytes available for the GUI
  55:.\GUIConf.c   **** //
  56:.\GUIConf.c   **** #define GUI_NUMBYTES  0x2000
  57:.\GUIConf.c   **** 
  58:.\GUIConf.c   **** /*********************************************************************
  59:.\GUIConf.c   **** *
  60:.\GUIConf.c   **** *       Public code
  61:.\GUIConf.c   **** *
  62:.\GUIConf.c   **** **********************************************************************
  63:.\GUIConf.c   **** */
  64:.\GUIConf.c   **** /*********************************************************************
  65:.\GUIConf.c   **** *
  66:.\GUIConf.c   **** *       GUI_X_Config
  67:.\GUIConf.c   **** *
  68:.\GUIConf.c   **** * Purpose:
  69:.\GUIConf.c   **** *   Called during the initialization process in order to set up the
  70:.\GUIConf.c   **** *   available memory for the GUI.
  71:.\GUIConf.c   **** */
  72:.\GUIConf.c   **** void GUI_X_Config(void) {
  27              		.loc 1 72 0
  28              		.cfi_startproc
  29              		@ args = 0, pretend = 0, frame = 0
  30              		@ frame_needed = 0, uses_anonymous_args = 0
  31 0000 08B5     		push	{r3, lr}
  32              		.cfi_def_cfa_offset 8
  33              		.cfi_offset 3, -8
  34              		.cfi_offset 14, -4
  73:.\GUIConf.c   ****   //
  74:.\GUIConf.c   ****   // 32 bit aligned memory area
  75:.\GUIConf.c   ****   //
  76:.\GUIConf.c   ****   static U32 aMemory[GUI_NUMBYTES / 4];
  77:.\GUIConf.c   ****   //
  78:.\GUIConf.c   ****   // Assign memory to emWin
  79:.\GUIConf.c   ****   //
  80:.\GUIConf.c   ****   GUI_ALLOC_AssignMemory(aMemory, GUI_NUMBYTES);
ARM GAS  C:\Users\IVYLIU~1\AppData\Local\Temp\ccMJpVqd.s 			page 3


  35              		.loc 1 80 0
  36 0002 0548     		ldr	r0, .L2
  37 0004 4FF40051 		mov	r1, #8192
  38 0008 FFF7FEFF 		bl	GUI_ALLOC_AssignMemory
  39              	.LVL0:
  81:.\GUIConf.c   ****   //
  82:.\GUIConf.c   ****   // Set default font
  83:.\GUIConf.c   ****   //
  84:.\GUIConf.c   ****   GUI_SetDefaultFont(GUI_FONT_6X8);
  85:.\GUIConf.c   **** }
  40              		.loc 1 85 0
  41 000c BDE80840 		pop	{r3, lr}
  42              		.cfi_restore 14
  43              		.cfi_restore 3
  44              		.cfi_def_cfa_offset 0
  84:.\GUIConf.c   **** }
  45              		.loc 1 84 0
  46 0010 0248     		ldr	r0, .L2+4
  47 0012 FFF7FEBF 		b	GUI_SetDefaultFont
  48              	.LVL1:
  49              	.L3:
  50 0016 00BF     		.align	2
  51              	.L2:
  52 0018 00000000 		.word	.LANCHOR0
  53 001c 00000000 		.word	GUI_Font6x8
  54              		.cfi_endproc
  55              	.LFE0:
  56              		.size	GUI_X_Config, .-GUI_X_Config
  57              		.bss
  58              		.align	2
  59              		.set	.LANCHOR0,. + 0
  60              		.type	aMemory.7986, %object
  61              		.size	aMemory.7986, 8192
  62              	aMemory.7986:
  63 0000 00000000 		.space	8192
  63      00000000 
  63      00000000 
  63      00000000 
  63      00000000 
  64              		.text
  65              	.Letext0:
  66              		.file 2 "..\\emWinGraphics_v5_46\\Code\\Include\\PSoC4_5/GUI_Type.h"
  67              		.file 3 "..\\emWinGraphics_v5_46\\Code\\Include\\PSoC4_5/GUI.h"