ARM GAS  C:\Users\IVYLIU~1\AppData\Local\Temp\ccjLqhKb.s 			page 1


   1              		.syntax unified
   2              		.cpu cortex-m3
   3              		.fpu softvfp
   4              		.eabi_attribute 20, 1
   5              		.eabi_attribute 21, 1
   6              		.eabi_attribute 23, 3
   7              		.eabi_attribute 24, 1
   8              		.eabi_attribute 25, 1
   9              		.eabi_attribute 26, 1
  10              		.eabi_attribute 30, 4
  11              		.eabi_attribute 34, 1
  12              		.eabi_attribute 18, 4
  13              		.thumb
  14              		.file	"LCDConf.c"
  15              		.text
  16              	.Ltext0:
  17              		.cfi_sections	.debug_frame
  18              		.section	.text.LCD_X_Config,"ax",%progbits
  19              		.align	1
  20              		.global	LCD_X_Config
  21              		.thumb
  22              		.thumb_func
  23              		.type	LCD_X_Config, %function
  24              	LCD_X_Config:
  25              	.LFB68:
  26              		.file 1 ".\\LCDConf.c"
   1:.\LCDConf.c   **** /*********************************************************************
   2:.\LCDConf.c   **** *                SEGGER Microcontroller GmbH & Co. KG                *
   3:.\LCDConf.c   **** *        Solutions for real time microcontroller applications        *
   4:.\LCDConf.c   **** **********************************************************************
   5:.\LCDConf.c   **** *                                                                    *
   6:.\LCDConf.c   **** *        (c) 1996 - 2017  SEGGER Microcontroller GmbH & Co. KG       *
   7:.\LCDConf.c   **** *                                                                    *
   8:.\LCDConf.c   **** *        Internet: www.segger.com    Support:  support@segger.com    *
   9:.\LCDConf.c   **** *                                                                    *
  10:.\LCDConf.c   **** **********************************************************************
  11:.\LCDConf.c   **** 
  12:.\LCDConf.c   **** ** emWin V5.46 - Graphical user interface for embedded applications **
  13:.\LCDConf.c   **** All  Intellectual Property rights  in the Software belongs to  SEGGER.
  14:.\LCDConf.c   **** emWin is protected by  international copyright laws.  Knowledge of the
  15:.\LCDConf.c   **** source code may not be used to write a similar product.  This file may
  16:.\LCDConf.c   **** only be used in accordance with the following terms:
  17:.\LCDConf.c   **** 
  18:.\LCDConf.c   **** The software  has been licensed to  Cypress Semiconductor Corporation,
  19:.\LCDConf.c   **** whose registered  office is situated  at 198 Champion Ct. San Jose, CA 
  20:.\LCDConf.c   **** 95134 USA  solely for the  purposes of creating  libraries for Cypress
  21:.\LCDConf.c   **** PSoC3 and  PSoC5 processor-based devices,  sublicensed and distributed
  22:.\LCDConf.c   **** under  the  terms  and  conditions  of  the  Cypress  End User License
  23:.\LCDConf.c   **** Agreement.
  24:.\LCDConf.c   **** Full source code is available at: www.segger.com
  25:.\LCDConf.c   **** 
  26:.\LCDConf.c   **** We appreciate your understanding and fairness.
  27:.\LCDConf.c   **** ----------------------------------------------------------------------
  28:.\LCDConf.c   **** Licensing information
  29:.\LCDConf.c   **** Licensor:                 SEGGER Microcontroller Systems LLC
  30:.\LCDConf.c   **** Licensed to:              Cypress Semiconductor Corp, 198 Champion Ct., San Jose, CA 95134, USA
  31:.\LCDConf.c   **** Licensed SEGGER software: emWin
ARM GAS  C:\Users\IVYLIU~1\AppData\Local\Temp\ccjLqhKb.s 			page 2


  32:.\LCDConf.c   **** License number:           GUI-00319
  33:.\LCDConf.c   **** License model:            Services and License Agreement, signed June 10th, 2009
  34:.\LCDConf.c   **** Licensed platform:        Any Cypress platform (Initial targets are: PSoC3, PSoC5)
  35:.\LCDConf.c   **** ----------------------------------------------------------------------
  36:.\LCDConf.c   **** Support and Update Agreement (SUA)
  37:.\LCDConf.c   **** SUA period:               2009-06-12 - 2022-07-27
  38:.\LCDConf.c   **** Contact to extend SUA:    sales@segger.com
  39:.\LCDConf.c   **** ----------------------------------------------------------------------
  40:.\LCDConf.c   **** File        : LCDConf.c
  41:.\LCDConf.c   **** Purpose     : Display controller configuration (single layer)
  42:.\LCDConf.c   **** ---------------------------END-OF-HEADER------------------------------
  43:.\LCDConf.c   **** */
  44:.\LCDConf.c   **** 
  45:.\LCDConf.c   **** #include "project.h" 
  46:.\LCDConf.c   **** 
  47:.\LCDConf.c   **** #include "GUI.h"
  48:.\LCDConf.c   **** #include "GUIDRV_FlexColor.h"
  49:.\LCDConf.c   **** 
  50:.\LCDConf.c   **** #include "tft.h"
  51:.\LCDConf.c   **** 
  52:.\LCDConf.c   **** /*********************************************************************
  53:.\LCDConf.c   **** *
  54:.\LCDConf.c   **** *       Layer configuration (to be modified)
  55:.\LCDConf.c   **** *
  56:.\LCDConf.c   **** **********************************************************************
  57:.\LCDConf.c   **** */
  58:.\LCDConf.c   **** //
  59:.\LCDConf.c   **** // Physical display size
  60:.\LCDConf.c   **** //   The display size should be adapted in order to match the size of
  61:.\LCDConf.c   **** //   the target display.
  62:.\LCDConf.c   **** //
  63:.\LCDConf.c   **** #define XSIZE_PHYS 240
  64:.\LCDConf.c   **** #define YSIZE_PHYS 320
  65:.\LCDConf.c   **** #define LCD_CONTROLLER GUIDRV_FLEXCOLOR_F66709
  66:.\LCDConf.c   **** 
  67:.\LCDConf.c   **** 
  68:.\LCDConf.c   **** 
  69:.\LCDConf.c   **** //
  70:.\LCDConf.c   **** // Color conversion
  71:.\LCDConf.c   **** //   The color conversion functions should be selected according to
  72:.\LCDConf.c   **** //   the color mode of the target display. Details can be found in
  73:.\LCDConf.c   **** //   the chapter "Colors" in the emWin user manual.
  74:.\LCDConf.c   **** //
  75:.\LCDConf.c   **** #define COLOR_CONVERSION GUICC_M565
  76:.\LCDConf.c   **** 
  77:.\LCDConf.c   **** //
  78:.\LCDConf.c   **** // Display driver
  79:.\LCDConf.c   **** //
  80:.\LCDConf.c   **** #define DISPLAY_DRIVER GUIDRV_FLEXCOLOR
  81:.\LCDConf.c   **** 
  82:.\LCDConf.c   **** /*********************************************************************
  83:.\LCDConf.c   **** *
  84:.\LCDConf.c   **** *       Configuration checking
  85:.\LCDConf.c   **** *
  86:.\LCDConf.c   **** **********************************************************************
  87:.\LCDConf.c   **** */
  88:.\LCDConf.c   **** #ifndef   VXSIZE_PHYS
ARM GAS  C:\Users\IVYLIU~1\AppData\Local\Temp\ccjLqhKb.s 			page 3


  89:.\LCDConf.c   ****   #define VXSIZE_PHYS XSIZE_PHYS
  90:.\LCDConf.c   **** #endif
  91:.\LCDConf.c   **** #ifndef   VYSIZE_PHYS
  92:.\LCDConf.c   ****   #define VYSIZE_PHYS YSIZE_PHYS
  93:.\LCDConf.c   **** #endif
  94:.\LCDConf.c   **** #ifndef   XSIZE_PHYS
  95:.\LCDConf.c   ****   #error Physical X size of display is not defined!
  96:.\LCDConf.c   **** #endif
  97:.\LCDConf.c   **** #ifndef   YSIZE_PHYS
  98:.\LCDConf.c   ****   #error Physical Y size of display is not defined!
  99:.\LCDConf.c   **** #endif
 100:.\LCDConf.c   **** #ifndef   COLOR_CONVERSION
 101:.\LCDConf.c   ****   #error Color conversion not defined!
 102:.\LCDConf.c   **** #endif
 103:.\LCDConf.c   **** #ifndef   DISPLAY_DRIVER
 104:.\LCDConf.c   ****   #error No display driver defined!
 105:.\LCDConf.c   **** #endif
 106:.\LCDConf.c   **** 
 107:.\LCDConf.c   **** /********************************************************************
 108:.\LCDConf.c   **** *
 109:.\LCDConf.c   **** *       _InitController
 110:.\LCDConf.c   **** *
 111:.\LCDConf.c   **** * Purpose:
 112:.\LCDConf.c   **** *   Initializes the LCD controller
 113:.\LCDConf.c   **** *
 114:.\LCDConf.c   **** */
 115:.\LCDConf.c   **** static void _InitController(void) {
 116:.\LCDConf.c   ****   /* Set up the display controller and put it into operation. If the 
 117:.\LCDConf.c   ****   *  display controller is not initialized by any external routine 
 118:.\LCDConf.c   ****   *  this needs to be adapted by the customer.
 119:.\LCDConf.c   ****   */
 120:.\LCDConf.c   ****     tftStart();
 121:.\LCDConf.c   **** }
 122:.\LCDConf.c   **** 
 123:.\LCDConf.c   **** /*********************************************************************
 124:.\LCDConf.c   **** *
 125:.\LCDConf.c   **** *       Public code
 126:.\LCDConf.c   **** *
 127:.\LCDConf.c   **** **********************************************************************
 128:.\LCDConf.c   **** */
 129:.\LCDConf.c   **** /*********************************************************************
 130:.\LCDConf.c   **** *
 131:.\LCDConf.c   **** *       LCD_X_Config
 132:.\LCDConf.c   **** *
 133:.\LCDConf.c   **** * Function description
 134:.\LCDConf.c   **** *   Called during the initialization process in order to set up the
 135:.\LCDConf.c   **** *   display driver configuration.
 136:.\LCDConf.c   **** */
 137:.\LCDConf.c   **** void LCD_X_Config(void) {
  27              		.loc 1 137 0
  28              		.cfi_startproc
  29              		@ args = 0, pretend = 0, frame = 128
  30              		@ frame_needed = 0, uses_anonymous_args = 0
  31 0000 10B5     		push	{r4, lr}
  32              		.cfi_def_cfa_offset 8
  33              		.cfi_offset 4, -8
  34              		.cfi_offset 14, -4
ARM GAS  C:\Users\IVYLIU~1\AppData\Local\Temp\ccjLqhKb.s 			page 4


  35 0002 A0B0     		sub	sp, sp, #128
  36              		.cfi_def_cfa_offset 136
 138:.\LCDConf.c   ****   GUI_DEVICE * pDevice;
 139:.\LCDConf.c   ****   CONFIG_FLEXCOLOR Config = {0};
  37              		.loc 1 139 0
  38 0004 01A8     		add	r0, sp, #4
  39 0006 0021     		movs	r1, #0
  40 0008 1422     		movs	r2, #20
  41 000a FFF7FEFF 		bl	memset
  42              	.LVL0:
 140:.\LCDConf.c   ****   GUI_PORT_API PortAPI = {0};
  43              		.loc 1 140 0
  44 000e 06A8     		add	r0, sp, #24
  45 0010 0021     		movs	r1, #0
  46 0012 6822     		movs	r2, #104
  47 0014 FFF7FEFF 		bl	memset
  48              	.LVL1:
 141:.\LCDConf.c   ****   //
 142:.\LCDConf.c   ****   // Set the display driver and color conversion
 143:.\LCDConf.c   ****   //
 144:.\LCDConf.c   ****   pDevice = GUI_DEVICE_CreateAndLink(DISPLAY_DRIVER, COLOR_CONVERSION, 0, 0);
  49              		.loc 1 144 0
  50 0018 0022     		movs	r2, #0
  51 001a 1346     		mov	r3, r2
  52 001c 1449     		ldr	r1, .L2
  53 001e 1548     		ldr	r0, .L2+4
  54 0020 FFF7FEFF 		bl	GUI_DEVICE_CreateAndLink
  55              	.LVL2:
  56 0024 0446     		mov	r4, r0
  57              	.LVL3:
 145:.\LCDConf.c   ****   //
 146:.\LCDConf.c   ****   // Display driver configuration
 147:.\LCDConf.c   ****   //
 148:.\LCDConf.c   ****   LCD_SetSizeEx    (0, XSIZE_PHYS,   YSIZE_PHYS);
  58              		.loc 1 148 0
  59 0026 F021     		movs	r1, #240
  60 0028 4FF4A072 		mov	r2, #320
  61 002c 0020     		movs	r0, #0
  62              	.LVL4:
  63 002e FFF7FEFF 		bl	LCD_SetSizeEx
  64              	.LVL5:
 149:.\LCDConf.c   ****   LCD_SetVSizeEx   (0, VXSIZE_PHYS,  VYSIZE_PHYS);
  65              		.loc 1 149 0
  66 0032 4FF4A072 		mov	r2, #320
  67 0036 F021     		movs	r1, #240
  68 0038 0020     		movs	r0, #0
  69 003a FFF7FEFF 		bl	LCD_SetVSizeEx
  70              	.LVL6:
 150:.\LCDConf.c   ****   //
 151:.\LCDConf.c   ****   // Orientation
 152:.\LCDConf.c   ****   //
 153:.\LCDConf.c   ****   Config.Orientation = GUI_MIRROR_Y;
  71              		.loc 1 153 0
  72 003e 0223     		movs	r3, #2
 154:.\LCDConf.c   **** 
 155:.\LCDConf.c   ****   GUIDRV_FlexColor_Config(pDevice, &Config);
  73              		.loc 1 155 0
ARM GAS  C:\Users\IVYLIU~1\AppData\Local\Temp\ccjLqhKb.s 			page 5


  74 0040 2046     		mov	r0, r4
  75 0042 01A9     		add	r1, sp, #4
 153:.\LCDConf.c   **** 
  76              		.loc 1 153 0
  77 0044 0393     		str	r3, [sp, #12]
  78              		.loc 1 155 0
  79 0046 FFF7FEFF 		bl	GUIDRV_FlexColor_Config
  80              	.LVL7:
 156:.\LCDConf.c   ****   //
 157:.\LCDConf.c   ****   // Set controller and operation mode
 158:.\LCDConf.c   ****   //
 159:.\LCDConf.c   ****   PortAPI.pfWrite8_A0 = write8_a0;
  81              		.loc 1 159 0
  82 004a 0B4B     		ldr	r3, .L2+8
 160:.\LCDConf.c   ****   PortAPI.pfWrite8_A1 = write8_a1;
 161:.\LCDConf.c   ****   PortAPI.pfWriteM8_A1 = writeM8_a1;
 162:.\LCDConf.c   ****   PortAPI.pfRead8_A1 = read8_a1;
 163:.\LCDConf.c   ****   PortAPI.pfReadM8_A1 = readM8_a1;
 164:.\LCDConf.c   ****   
 165:.\LCDConf.c   ****   GUIDRV_FlexColor_SetFunc(pDevice, &PortAPI, LCD_CONTROLLER, GUIDRV_FLEXCOLOR_M16C0B8);
  83              		.loc 1 165 0
  84 004c 2046     		mov	r0, r4
 159:.\LCDConf.c   ****   PortAPI.pfWrite8_A1 = write8_a1;
  85              		.loc 1 159 0
  86 004e 0693     		str	r3, [sp, #24]
 160:.\LCDConf.c   ****   PortAPI.pfWrite8_A1 = write8_a1;
  87              		.loc 1 160 0
  88 0050 0A4B     		ldr	r3, .L2+12
  89              		.loc 1 165 0
  90 0052 06A9     		add	r1, sp, #24
 160:.\LCDConf.c   ****   PortAPI.pfWrite8_A1 = write8_a1;
  91              		.loc 1 160 0
  92 0054 0793     		str	r3, [sp, #28]
 161:.\LCDConf.c   ****   PortAPI.pfRead8_A1 = read8_a1;
  93              		.loc 1 161 0
  94 0056 0A4B     		ldr	r3, .L2+16
  95              		.loc 1 165 0
  96 0058 0A4A     		ldr	r2, .L2+20
 161:.\LCDConf.c   ****   PortAPI.pfRead8_A1 = read8_a1;
  97              		.loc 1 161 0
  98 005a 0993     		str	r3, [sp, #36]
 162:.\LCDConf.c   ****   PortAPI.pfReadM8_A1 = readM8_a1;
  99              		.loc 1 162 0
 100 005c 0A4B     		ldr	r3, .L2+24
 101 005e 0B93     		str	r3, [sp, #44]
 163:.\LCDConf.c   ****   
 102              		.loc 1 163 0
 103 0060 0A4B     		ldr	r3, .L2+28
 104 0062 0D93     		str	r3, [sp, #52]
 105              		.loc 1 165 0
 106 0064 0A4B     		ldr	r3, .L2+32
 107 0066 FFF7FEFF 		bl	GUIDRV_FlexColor_SetFunc
 108              	.LVL8:
 166:.\LCDConf.c   **** }
 109              		.loc 1 166 0
 110 006a 20B0     		add	sp, sp, #128
 111              		.cfi_def_cfa_offset 8
ARM GAS  C:\Users\IVYLIU~1\AppData\Local\Temp\ccjLqhKb.s 			page 6


 112              		@ sp needed
 113 006c 10BD     		pop	{r4, pc}
 114              	.LVL9:
 115              	.L3:
 116 006e 00BF     		.align	2
 117              	.L2:
 118 0070 00000000 		.word	LCD_API_ColorConv_M565
 119 0074 00000000 		.word	GUIDRV_FlexColor_API
 120 0078 00000000 		.word	write8_a0
 121 007c 00000000 		.word	write8_a1
 122 0080 00000000 		.word	writeM8_a1
 123 0084 00000000 		.word	GUIDRV_FlexColor_SetFunc66709
 124 0088 00000000 		.word	read8_a1
 125 008c 00000000 		.word	readM8_a1
 126 0090 00000000 		.word	GUIDRV_FlexColor_SetMode16bppC0B8
 127              		.cfi_endproc
 128              	.LFE68:
 129              		.size	LCD_X_Config, .-LCD_X_Config
 130              		.section	.text.LCD_X_DisplayDriver,"ax",%progbits
 131              		.align	1
 132              		.global	LCD_X_DisplayDriver
 133              		.thumb
 134              		.thumb_func
 135              		.type	LCD_X_DisplayDriver, %function
 136              	LCD_X_DisplayDriver:
 137              	.LFB69:
 167:.\LCDConf.c   **** 
 168:.\LCDConf.c   **** /*********************************************************************
 169:.\LCDConf.c   **** *
 170:.\LCDConf.c   **** *       LCD_X_DisplayDriver
 171:.\LCDConf.c   **** *
 172:.\LCDConf.c   **** * Purpose:
 173:.\LCDConf.c   **** *   This function is called by the display driver for several purposes.
 174:.\LCDConf.c   **** *   To support the according task, the routine needs to be adapted to
 175:.\LCDConf.c   **** *   the display controller. Note that the commands marked
 176:.\LCDConf.c   **** *   "optional" are not cogently required and should only be adapted if 
 177:.\LCDConf.c   **** *   the display controller supports these features.
 178:.\LCDConf.c   **** *
 179:.\LCDConf.c   **** * Parameter:
 180:.\LCDConf.c   **** *   LayerIndex - Zero based layer index
 181:.\LCDConf.c   **** *   Cmd        - Command to be executed
 182:.\LCDConf.c   **** *   pData      - Pointer to a data structure.
 183:.\LCDConf.c   **** * 
 184:.\LCDConf.c   **** * Return Value:
 185:.\LCDConf.c   **** *   < -1 - Error
 186:.\LCDConf.c   **** *     -1 - The command is not handled.
 187:.\LCDConf.c   **** *      0 - OK.
 188:.\LCDConf.c   **** */
 189:.\LCDConf.c   **** int LCD_X_DisplayDriver(unsigned LayerIndex, unsigned Cmd, void * pData) {
 138              		.loc 1 189 0
 139              		.cfi_startproc
 140              		@ args = 0, pretend = 0, frame = 0
 141              		@ frame_needed = 0, uses_anonymous_args = 0
 142              	.LVL10:
 190:.\LCDConf.c   ****   int r;
 191:.\LCDConf.c   ****   
 192:.\LCDConf.c   ****   GUI_USE_PARA(LayerIndex);
ARM GAS  C:\Users\IVYLIU~1\AppData\Local\Temp\ccjLqhKb.s 			page 7


 193:.\LCDConf.c   ****   GUI_USE_PARA(pData);
 194:.\LCDConf.c   ****   
 195:.\LCDConf.c   ****   switch (Cmd) {
 143              		.loc 1 195 0
 144 0000 0129     		cmp	r1, #1
 189:.\LCDConf.c   ****   int r;
 145              		.loc 1 189 0
 146 0002 08B5     		push	{r3, lr}
 147              		.cfi_def_cfa_offset 8
 148              		.cfi_offset 3, -8
 149              		.cfi_offset 14, -4
 150              		.loc 1 195 0
 151 0004 03D1     		bne	.L8
 152              	.LBB4:
 153              	.LBB5:
 120:.\LCDConf.c   **** }
 154              		.loc 1 120 0
 155 0006 FFF7FEFF 		bl	tftStart
 156              	.LVL11:
 157              	.LBE5:
 158              	.LBE4:
 196:.\LCDConf.c   ****   case LCD_X_INITCONTROLLER: {
 197:.\LCDConf.c   ****     //
 198:.\LCDConf.c   ****     // Called during the initialization process in order to set up the
 199:.\LCDConf.c   ****     // display controller and put it into operation. If the display
 200:.\LCDConf.c   ****     // controller is not initialized by any external routine, this needs
 201:.\LCDConf.c   ****     // to be adapted by the customer...
 202:.\LCDConf.c   ****     //
 203:.\LCDConf.c   ****     // ...
 204:.\LCDConf.c   ****     _InitController();
 205:.\LCDConf.c   ****     return 0;
 159              		.loc 1 205 0
 160 000a 0020     		movs	r0, #0
 161 000c 08BD     		pop	{r3, pc}
 162              	.LVL12:
 163              	.L8:
 206:.\LCDConf.c   ****   }
 207:.\LCDConf.c   ****   default:
 208:.\LCDConf.c   ****     r = -1;
 209:.\LCDConf.c   ****   }
 210:.\LCDConf.c   ****   return r;
 164              		.loc 1 210 0
 165 000e 4FF0FF30 		mov	r0, #-1
 166              	.LVL13:
 211:.\LCDConf.c   **** }
 167              		.loc 1 211 0
 168 0012 08BD     		pop	{r3, pc}
 169              		.cfi_endproc
 170              	.LFE69:
 171              		.size	LCD_X_DisplayDriver, .-LCD_X_DisplayDriver
 172              		.comm	NP_g_nFrameBufferSize,4,4
 173              		.comm	NP_g_pFrameBuffer,4,4
 174              		.comm	NP_g_bOwnsBuffer,1,1
 175              		.comm	NP_g_nDMA_TD,1,1
 176              		.comm	NP_g_nDMA_Chan,1,1
 177              		.comm	NP_g_nNumberOfPixels,4,4
 178              		.text
ARM GAS  C:\Users\IVYLIU~1\AppData\Local\Temp\ccjLqhKb.s 			page 8


 179              	.Letext0:
 180              		.file 2 "c:\\program files (x86)\\cypress\\psoc creator\\3.3\\psoc creator\\import\\gnu\\arm\\4.9.
 181              		.file 3 "c:\\program files (x86)\\cypress\\psoc creator\\3.3\\psoc creator\\import\\gnu\\arm\\4.9.
 182              		.file 4 "Generated_Source\\PSoC5/cytypes.h"
 183              		.file 5 "..\\emWinGraphics_v5_46\\Code\\Include\\PSoC4_5/LCD.h"
 184              		.file 6 "..\\emWinGraphics_v5_46\\Code\\Include\\PSoC4_5/GUI.h"
 185              		.file 7 "..\\emWinGraphics_v5_46\\Code\\Include\\PSoC4_5/GUI_Type.h"
 186              		.file 8 ".\\GUIDRV_FlexColor.h"
 187              		.file 9 "Generated_Source\\PSoC5/NP_funcs.h"
 188              		.file 10 ".\\Core\\Include/cmsis_gcc.h"
 189              		.file 11 ".\\Core\\Include/core_cm3.h"
 190              		.file 12 ".\\tft.h"