ARM GAS  C:\Users\IVYLIU~1\AppData\Local\Temp\cc0nPDNQ.s 			page 1


   1              		.syntax unified
   2              		.cpu cortex-m3
   3              		.fpu softvfp
   4              		.eabi_attribute 20, 1
   5              		.eabi_attribute 21, 1
   6              		.eabi_attribute 23, 3
   7              		.eabi_attribute 24, 1
   8              		.eabi_attribute 25, 1
   9              		.eabi_attribute 26, 1
  10              		.eabi_attribute 30, 4
  11              		.eabi_attribute 34, 1
  12              		.eabi_attribute 18, 4
  13              		.thumb
  14              		.file	"main.c"
  15              		.text
  16              	.Ltext0:
  17              		.cfi_sections	.debug_frame
  18              		.section	.text.setPixel,"ax",%progbits
  19              		.align	1
  20              		.global	setPixel
  21              		.thumb
  22              		.thumb_func
  23              		.type	setPixel, %function
  24              	setPixel:
  25              	.LFB128:
  26              		.file 1 ".\\main.c"
   1:.\main.c      **** /* ========================================
   2:.\main.c      ****  *
   3:.\main.c      ****  * Copyright YOUR COMPANY, THE YEAR
   4:.\main.c      ****  * All Rights Reserved
   5:.\main.c      ****  * UNPUBLISHED, LICENSED SOFTWARE.
   6:.\main.c      ****  *
   7:.\main.c      ****  * CONFIDENTIAL AND PROPRIETARY INFORMATION
   8:.\main.c      ****  * WHICH IS THE PROPERTY OF your company.
   9:.\main.c      ****  *
  10:.\main.c      ****  * ========================================
  11:.\main.c      **** */
  12:.\main.c      **** #include <project.h>
  13:.\main.c      **** #include <stdio.h>
  14:.\main.c      **** #include "GUI.h"
  15:.\main.c      **** #include "arm_math.h"
  16:.\main.c      **** #include <arm_const_structs.h>
  17:.\main.c      **** #include "tft.h"
  18:.\main.c      **** #include "math.h"
  19:.\main.c      **** 
  20:.\main.c      **** char test_string[16]; // TODO: remove, for writing test values to for display
  21:.\main.c      **** /* ------------------------------------------------------------------
  22:.\main.c      **** * Global variables for LEDs
  23:.\main.c      **** * ------------------------------------------------------------------- */
  24:.\main.c      **** #define LED_NUM 144
  25:.\main.c      **** //Allocate an array for LED_NUM NeoPixels
  26:.\main.c      **** unsigned char pPixelArray[LED_NUM*3];
  27:.\main.c      **** //Set up some variables for animation code
  28:.\main.c      **** float power = 1;
  29:.\main.c      **** float Deltapower = 0.005;
  30:.\main.c      **** float offset = 0;
  31:.\main.c      **** 
ARM GAS  C:\Users\IVYLIU~1\AppData\Local\Temp\cc0nPDNQ.s 			page 2


  32:.\main.c      **** void clearLEDs(void);
  33:.\main.c      **** void setPixel(int i, int r, int b, int g);
  34:.\main.c      **** 
  35:.\main.c      **** /* ------------------------------------------------------------------
  36:.\main.c      **** * Global variables for FFT Bins
  37:.\main.c      **** * ------------------------------------------------------------------- */
  38:.\main.c      **** uint32_t adcResult = 0;
  39:.\main.c      **** #define TEST_LENGTH_SAMPLES 2048
  40:.\main.c      **** uint32_t fftSize = 1024;            // number of bins
  41:.\main.c      **** uint32_t ifftFlag = 0;
  42:.\main.c      **** uint32_t doBitReverse = 1;
  43:.\main.c      **** arm_cfft_instance_f32 varInstCfftF32;
  44:.\main.c      **** uint32_t testIndex = 0;
  45:.\main.c      **** int middle_c_bin = 988;
  46:.\main.c      **** 
  47:.\main.c      **** float32_t testInput[TEST_LENGTH_SAMPLES];
  48:.\main.c      **** float32_t testOutput[TEST_LENGTH_SAMPLES/2];
  49:.\main.c      **** int detectNote(void);
  50:.\main.c      **** 
  51:.\main.c      **** /* ------------------------------------------------------------------
  52:.\main.c      **** * Global variables for TFT Display
  53:.\main.c      **** * ------------------------------------------------------------------- */
  54:.\main.c      **** #define TOP_MARGIN 20
  55:.\main.c      **** #define SCREEN_WIDTH 240
  56:.\main.c      **** #define RIGHT_MARGIN SCREEN_WIDTH - TOP_MARGIN
  57:.\main.c      **** #define BAR_SPACING 15
  58:.\main.c      **** #define NOTE_SPACING BAR_SPACING/2
  59:.\main.c      **** #define BETWEEN_CLEFS BAR_SPACING*3
  60:.\main.c      **** #define LINE_NUM 5
  61:.\main.c      **** #define LOWER_OFFSET BAR_SPACING*LINE_NUM + BETWEEN_CLEFS
  62:.\main.c      **** #define NOTE_WIDTH 12
  63:.\main.c      **** #define NOTE_HEIGHT 8
  64:.\main.c      **** enum States {
  65:.\main.c      ****     START,
  66:.\main.c      ****     MODE_SELECT,
  67:.\main.c      ****     SONG_SELECT,
  68:.\main.c      ****     SONG_DONE,
  69:.\main.c      ****     CALIBRATE_SETUP,
  70:.\main.c      ****     CALIBRATE,
  71:.\main.c      ****     RESET,
  72:.\main.c      ****     TESTING
  73:.\main.c      **** }; 
  74:.\main.c      **** 
  75:.\main.c      **** void testFunction(void);
  76:.\main.c      **** void drawClefs(void);
  77:.\main.c      **** void drawNote(char* input_name);
  78:.\main.c      **** void setNote(char* input_name, int r, int g, int b);
  79:.\main.c      **** void detectAndDrawNote(void);
  80:.\main.c      **** char* getNoteName(int input_offset);
  81:.\main.c      **** void drawStartScreen(void);
  82:.\main.c      **** void drawCalibrateScreen(void);
  83:.\main.c      **** int drawSongSelection(void);
  84:.\main.c      **** void drawPlaySong(int song_index);
  85:.\main.c      **** 
  86:.\main.c      **** // name: english name of note
  87:.\main.c      **** // offset: frequency_bin - middle_c_frequencybin
  88:.\main.c      **** // key_num: key number of note
ARM GAS  C:\Users\IVYLIU~1\AppData\Local\Temp\cc0nPDNQ.s 			page 3


  89:.\main.c      **** // led_unms: led indexes associated with note
  90:.\main.c      **** //Reference: https://stackoverflow.com/questions/47880223/how-to-programmatically-map-integers-to-c
  91:.\main.c      **** struct Notes
  92:.\main.c      **** {
  93:.\main.c      ****     const char *name;
  94:.\main.c      ****     int offset;             //fft offset from midde C/C4
  95:.\main.c      ****     int key_num;            //key number on piano, TODO: use less memory by changing from strings t
  96:.\main.c      ****     int led_nums[2];
  97:.\main.c      **** };
  98:.\main.c      **** 
  99:.\main.c      **** struct Notes notes[] = {
 100:.\main.c      ****     { .offset = -179,  .name = "G5", .key_num = 59, .led_nums = {99, 100}},
 101:.\main.c      ****     { .offset = -66,  .name = "F#5", .key_num = 58, .led_nums = {97, 98}},
 102:.\main.c      ****     { .offset = -60,  .name = "F5", .key_num = 57, .led_nums = {95, 96}},
 103:.\main.c      ****     { .offset = -54,  .name = "E5", .key_num = 56, .led_nums = {93, 94}},
 104:.\main.c      ****     { .offset = -49,  .name = "D#5", .key_num = 55, .led_nums = {91, 92}},
 105:.\main.c      ****     { .offset = -44,  .name = "D5", .key_num = 54, .led_nums = {89, 90}},
 106:.\main.c      ****     { .offset = -40,  .name = "C#5", .key_num = 53, .led_nums = {87, 88}},
 107:.\main.c      ****     { .offset = -36,  .name = "C5", .key_num = 52, .led_nums = {85, 86}},
 108:.\main.c      ****     { .offset = -32,  .name = "B4", .key_num = 51, .led_nums = {83, 84}},
 109:.\main.c      ****     { .offset = -28,  .name = "A#4", .key_num = 50, .led_nums = {82, 0}},
 110:.\main.c      ****     { .offset = -24,  .name = "A4", .key_num = 49, .led_nums = {80, 0}},
 111:.\main.c      ****     { .offset = -21,  .name = "G#4", .key_num = 48, .led_nums = {78, 0}},
 112:.\main.c      ****     { .offset = -18,  .name = "G4", .key_num = 47, .led_nums = {76, 77}},
 113:.\main.c      ****     { .offset = -15,  .name = "F#4", .key_num = 46, .led_nums = {74, 0}},
 114:.\main.c      ****     { .offset = -12,  .name = "F4", .key_num = 45, .led_nums = {72, 73}},
 115:.\main.c      ****     { .offset = -9,  .name = "E4", .key_num = 44, .led_nums = {70 ,71}},
 116:.\main.c      ****     { .offset = -7,  .name = "D#4", .key_num = 43, .led_nums = {68, 69}},
 117:.\main.c      ****     { .offset = -4,  .name = "D4", .key_num = 42, .led_nums = {66, 67}},
 118:.\main.c      ****     { .offset = -2,  .name = "C#4", .key_num = 41, .led_nums = {64, 65}},
 119:.\main.c      ****     { .offset = 0,  .name = "C4", .key_num = 40, .led_nums = {62, 63}},   // Middle C, 988 Hz
 120:.\main.c      ****     { .offset = 2,  .name = "B3", .key_num = 39, .led_nums = {60, 61}},
 121:.\main.c      ****     { .offset = 4,  .name = "A#3", .key_num = 38, .led_nums = {58, 59}},
 122:.\main.c      ****     { .offset = 7,  .name = "A3", .key_num = 37, .led_nums = {56, 57}},
 123:.\main.c      ****     { .offset = 9,  .name = "G#3", .key_num = 36, .led_nums = {55, 0}},
 124:.\main.c      ****     { .offset = 12,  .name = "G3", .key_num = 35, .led_nums = {53, 0}},
 125:.\main.c      ****     { .offset = 15,  .name = "F#3", .key_num = 34, .led_nums = {51, 0}},
 126:.\main.c      ****     { .offset = 18,  .name = "F3", .key_num = 33, .led_nums = {49, 50}},
 127:.\main.c      ****     { .offset = 21,  .name = "E3", .key_num = 32, .led_nums = {47, 48}},
 128:.\main.c      ****     { .offset = 24,  .name = "D#3", .key_num = 31, .led_nums = {45, 46}},
 129:.\main.c      ****     { .offset = 28,  .name = "D3", .key_num = 30, .led_nums = {43, 44}},
 130:.\main.c      ****     { .offset = 32,  .name = "C#3", .key_num = 29, .led_nums = {41, 0}},
 131:.\main.c      ****     { .offset = 36,  .name = "C3", .key_num = 28, .led_nums = {39, 40}},
 132:.\main.c      ****     { .offset = 40,  .name = "B2", .key_num = 27, .led_nums = {37, 38}},
 133:.\main.c      ****     { .offset = 44,  .name = "A#2", .key_num = 26, .led_nums = {35, 0}},
 134:.\main.c      ****     { .offset = 49,  .name = "A2", .key_num = 25, .led_nums = {33, 34}},
 135:.\main.c      ****     { .offset = 54,  .name = "G#2", .key_num = 24, .led_nums = {31, 32}},
 136:.\main.c      ****     { .offset = 60,  .name = "G2", .key_num = 23, .led_nums = {29, 30}},
 137:.\main.c      ****     { .offset = 66,  .name = "F#2", .key_num = 22, .led_nums = {27, 28}},
 138:.\main.c      ****     { .offset = -179,  .name = "F2", .key_num = 21, .led_nums = {25, 26}},
 139:.\main.c      ****     { .offset = -201,  .name = "E2", .key_num = 20, .led_nums = {23, 24}},
 140:.\main.c      ****     { .name = NULL }
 141:.\main.c      **** };
 142:.\main.c      **** 
 143:.\main.c      **** // song_number: index of song in songs array
 144:.\main.c      **** // name: English name of song
 145:.\main.c      **** // note_seq: array of names of notes in song
ARM GAS  C:\Users\IVYLIU~1\AppData\Local\Temp\cc0nPDNQ.s 			page 4


 146:.\main.c      **** // song_length: number of note names in song
 147:.\main.c      **** struct Songs
 148:.\main.c      **** {
 149:.\main.c      ****     const int song_number;
 150:.\main.c      ****     const char *name;
 151:.\main.c      ****     const char **note_seq;
 152:.\main.c      ****     const int song_length;
 153:.\main.c      **** };
 154:.\main.c      **** 
 155:.\main.c      **** const char *SONG0_SEQ[] = 
 156:.\main.c      ****     {"E5", "D#5", "E5", "D#5", "E5", "B4", "D5", "C5",
 157:.\main.c      ****      "A4", "C4", "E4", "A4", "B4", "E4", "G#4", "B4",
 158:.\main.c      ****      "C5", "E4", "E5", "D#5", "E5", "D#5", "E5", "B4", "D5", "C5", "A4", "C4", "E4", "A4",
 159:.\main.c      ****      "B4", "E4", "C5", "B4", "A4", "B4", "C5", "D5",
 160:.\main.c      ****      "E5", "G4", "F5", "E5", "D5", "F4", "E5", "D5", "C5", "E4", "D5", "C5",
 161:.\main.c      ****      "B4", "E5", "D#5", "E5", "D#5", "E5", "B4", "D5", "C5", "A4", "C4", "E4", "A4",
 162:.\main.c      ****      "B4", "E4", "G#4", "B4", "C5", "E4", "E5", "D#5", "E5", "D#5", "E5", "B4", "D5", "C5",
 163:.\main.c      ****      "A4", "C4", "E4", "A4", "B4", "E4", "C5", "A4"
 164:.\main.c      ****     };
 165:.\main.c      **** const char *SONG1_SEQ[] = 
 166:.\main.c      ****     {"C4", "C4", "G4", "G4", "A4", "A4", "G4",
 167:.\main.c      ****      "F4", "F4", "E4", "E4", "D4", "D4", "C4",
 168:.\main.c      ****      "G4", "G4", "F4", "F4", "E4", "E4", "D4",
 169:.\main.c      ****      "G4", "G4", "F4", "F4", "E4", "E4", "D4",
 170:.\main.c      ****      "C4", "C4", "G4", "G4", "A4", "A4", "G4",
 171:.\main.c      ****      "F4", "F4", "E4", "E4", "D4", "D4", "C4"
 172:.\main.c      ****     };
 173:.\main.c      **** 
 174:.\main.c      **** const int SONGS_LENGTH = 2;
 175:.\main.c      **** struct Songs songs[] = {
 176:.\main.c      ****     { .song_number = 0, .name = "Fur Elise", .note_seq = SONG0_SEQ, .song_length = 85},
 177:.\main.c      ****     { .song_number = 1, .name = "Twinkle, Twinkle,\nLittle Star", .note_seq = SONG1_SEQ, .song_leng
 178:.\main.c      **** };
 179:.\main.c      **** 
 180:.\main.c      **** int main()
 181:.\main.c      **** {
 182:.\main.c      ****     // Setup of hardware components
 183:.\main.c      ****     CyGlobalIntEnable;                      // Enable global interrupts
 184:.\main.c      ****     ADC_DelSig_1_Start();				    // start the ADC_DelSig_1
 185:.\main.c      ****     ADC_DelSig_1_StartConvert();		    // start the ADC_DelSig_1 conversion
 186:.\main.c      ****     SPIM_1_Start();                         // initialize SPIM component 
 187:.\main.c      ****     GUI_Init();                             // initilize graphics library
 188:.\main.c      ****     NP_Start(LED_NUM, pPixelArray, 12.8);   //Start the NeoPixel component (LED_NUM pix, User array
 189:.\main.c      **** 
 190:.\main.c      ****     int state = START;
 191:.\main.c      **** 
 192:.\main.c      ****     // Main loop, state machine
 193:.\main.c      ****     for(;;) {
 194:.\main.c      ****         switch (state) {
 195:.\main.c      ****             case START: // draw start screen
 196:.\main.c      ****                 clearLEDs();
 197:.\main.c      ****                 drawStartScreen();
 198:.\main.c      ****                 state = MODE_SELECT;    // TODO: switch back to Mode_select
 199:.\main.c      ****                 break;
 200:.\main.c      ****             case MODE_SELECT: // wait for user to select mode
 201:.\main.c      ****                 if (!SW2_Read()) {
 202:.\main.c      ****                     while(!SW2_Read());
ARM GAS  C:\Users\IVYLIU~1\AppData\Local\Temp\cc0nPDNQ.s 			page 5


 203:.\main.c      ****                     state = SONG_SELECT;
 204:.\main.c      ****                 } else if (!SW3_Read()) {
 205:.\main.c      ****                     while(!SW3_Read());
 206:.\main.c      ****                     state = CALIBRATE_SETUP;
 207:.\main.c      ****                 }
 208:.\main.c      ****                 break;
 209:.\main.c      ****             case SONG_SELECT: // draw song selection and song
 210:.\main.c      ****                 drawPlaySong(drawSongSelection());
 211:.\main.c      ****                 state = SONG_DONE;
 212:.\main.c      ****                 break;
 213:.\main.c      ****             case SONG_DONE: // wait for user to press SW3 after song is done
 214:.\main.c      ****                 if (!SW3_Read()) {
 215:.\main.c      ****                     while(!SW3_Read());
 216:.\main.c      ****                     state = START;
 217:.\main.c      ****                 }
 218:.\main.c      ****                 break;
 219:.\main.c      ****             case CALIBRATE_SETUP: // draws calibrate screen
 220:.\main.c      ****                 drawCalibrateScreen();
 221:.\main.c      ****                 setPixel(63, 0, 100, 100);      //leds associated with middle C
 222:.\main.c      ****                 setPixel(62, 0, 100, 100);
 223:.\main.c      ****                 NP_Update();
 224:.\main.c      ****                 state = CALIBRATE;
 225:.\main.c      ****                 break;
 226:.\main.c      ****             case CALIBRATE: // calibrate
 227:.\main.c      ****                 middle_c_bin = detectNote();
 228:.\main.c      ****                 
 229:.\main.c      ****                 GUI_SetBkColor(GUI_WHITE);
 230:.\main.c      ****                 GUI_SetColor(GUI_BLACK);
 231:.\main.c      ****                 GUI_SetFont(&GUI_Font24B_ASCII);
 232:.\main.c      ****                 GUI_Clear();
 233:.\main.c      ****                 
 234:.\main.c      ****                 sprintf(test_string, "Middle C Bin\n%d", middle_c_bin);
 235:.\main.c      ****                 GUI_DispStringHCenterAt(test_string, 120, 160);
 236:.\main.c      ****                    
 237:.\main.c      ****                 setPixel(63, 0, 0, 0);
 238:.\main.c      ****                 setPixel(62, 0, 0, 0);
 239:.\main.c      ****                 NP_Update();
 240:.\main.c      ****                 state = START;
 241:.\main.c      ****                 break;
 242:.\main.c      ****             case TESTING: // for switching to testing mode
 243:.\main.c      ****                 testFunction();
 244:.\main.c      ****                 break;
 245:.\main.c      ****             default: // reset to start screen if unexpected state
 246:.\main.c      ****                 state = START;
 247:.\main.c      ****                 break;
 248:.\main.c      ****         }
 249:.\main.c      ****     }                             
 250:.\main.c      **** }
 251:.\main.c      **** 
 252:.\main.c      **** // Called in TESTING mode for testing functionaliy of various systems
 253:.\main.c      **** void testFunction()
 254:.\main.c      **** {
 255:.\main.c      ****     // Function: Display Each Note (for testing purposes)
 256:.\main.c      ****     GUI_SetBkColor(GUI_WHITE);
 257:.\main.c      ****     GUI_SetColor(GUI_BLACK);
 258:.\main.c      ****     GUI_Clear();
 259:.\main.c      **** 
ARM GAS  C:\Users\IVYLIU~1\AppData\Local\Temp\cc0nPDNQ.s 			page 6


 260:.\main.c      ****     struct Notes *cur_note = notes;
 261:.\main.c      ****     const char *note = "Unrecognized note";
 262:.\main.c      **** 
 263:.\main.c      ****     while (cur_note->name) {
 264:.\main.c      ****         GUI_Clear();
 265:.\main.c      ****         drawClefs();
 266:.\main.c      ****         drawNote(cur_note->name);
 267:.\main.c      **** 
 268:.\main.c      ****         setPixel(cur_note->led_nums[0], 0, 100, 100);
 269:.\main.c      ****         setPixel(cur_note->led_nums[1], 0, 100, 100);
 270:.\main.c      ****         NP_Update();
 271:.\main.c      ****         CyDelay(1000);
 272:.\main.c      ****         setPixel(cur_note->led_nums[0], 0, 0, 0);
 273:.\main.c      ****         setPixel(cur_note->led_nums[1], 0, 0, 0);
 274:.\main.c      ****         NP_Update();
 275:.\main.c      ****         ++cur_note;
 276:.\main.c      ****     }
 277:.\main.c      **** 
 278:.\main.c      ****     return note;
 279:.\main.c      **** }
 280:.\main.c      **** 
 281:.\main.c      **** // Function: Wait for a note to be played, then display the note on clefs
 282:.\main.c      **** void detectAndDrawNote() {
 283:.\main.c      ****     GUI_SetBkColor(GUI_WHITE);
 284:.\main.c      ****     GUI_SetColor(GUI_BLACK);
 285:.\main.c      ****     GUI_Clear();
 286:.\main.c      ****     drawClefs();
 287:.\main.c      ****     drawNote(getNoteName(detectNote() - middle_c_bin));
 288:.\main.c      **** }
 289:.\main.c      **** 
 290:.\main.c      **** // Function: Turn off all LEDs on the strip
 291:.\main.c      **** void clearLEDs(void){
 292:.\main.c      ****     for(int i = 0; i < LED_NUM; i++) {
 293:.\main.c      ****         setPixel(i, 0, 0, 0);
 294:.\main.c      ****     }
 295:.\main.c      ****     NP_Update();
 296:.\main.c      **** 
 297:.\main.c      **** }
 298:.\main.c      **** 
 299:.\main.c      **** // Function: Given name of a note, sets the associated LEDs to the given color and updates
 300:.\main.c      **** // Inputs: input_name: name of note, r: red component, g: green component, b: blue component
 301:.\main.c      **** void setNote(char* input_name, int r, int g, int b) {
 302:.\main.c      ****     struct Notes *cur_note = notes;
 303:.\main.c      ****     while (cur_note->name) {
 304:.\main.c      ****         if (strcmp(cur_note->name, input_name) == 0) {
 305:.\main.c      ****             if (cur_note->led_nums[0] != 0) setPixel(cur_note->led_nums[0], r, g, b);
 306:.\main.c      ****             if (cur_note->led_nums[1] != 0) setPixel(cur_note->led_nums[1], r, g, b);
 307:.\main.c      ****             NP_Update();
 308:.\main.c      ****             break;
 309:.\main.c      ****         }
 310:.\main.c      ****         ++cur_note;
 311:.\main.c      ****     }
 312:.\main.c      **** 
 313:.\main.c      **** }
 314:.\main.c      **** 
 315:.\main.c      **** // Function: Given index of an LED, sets the associated LEDs to the given color
 316:.\main.c      **** // Inputs: i: index of LED, r: red component, g: green component, b: blue component
ARM GAS  C:\Users\IVYLIU~1\AppData\Local\Temp\cc0nPDNQ.s 			page 7


 317:.\main.c      **** void setPixel(int i, int r, int g, int b) {
  27              		.loc 1 317 0
  28              		.cfi_startproc
  29              		@ args = 0, pretend = 0, frame = 0
  30              		@ frame_needed = 0, uses_anonymous_args = 0
  31              	.LVL0:
  32 0000 10B5     		push	{r4, lr}
  33              		.cfi_def_cfa_offset 8
  34              		.cfi_offset 4, -8
  35              		.cfi_offset 14, -4
 318:.\main.c      ****     //Compute Green Component
 319:.\main.c      ****     pPixelArray[i*3] = g;
  36              		.loc 1 319 0
  37 0002 044C     		ldr	r4, .L2
  38 0004 00EB4000 		add	r0, r0, r0, lsl #1
  39              	.LVL1:
  40 0008 2254     		strb	r2, [r4, r0]
 320:.\main.c      ****     //Compute Red Component
 321:.\main.c      ****     pPixelArray[1+i*3] = r;
  41              		.loc 1 321 0
  42 000a 2044     		add	r0, r0, r4
  43 000c 4170     		strb	r1, [r0, #1]
 322:.\main.c      ****     //Compute Blue Component
 323:.\main.c      ****     pPixelArray[2+i*3] = b;
  44              		.loc 1 323 0
  45 000e 8370     		strb	r3, [r0, #2]
  46 0010 10BD     		pop	{r4, pc}
  47              	.L3:
  48 0012 00BF     		.align	2
  49              	.L2:
  50 0014 00000000 		.word	pPixelArray
  51              		.cfi_endproc
  52              	.LFE128:
  53              		.size	setPixel, .-setPixel
  54              		.section	.text.clearLEDs,"ax",%progbits
  55              		.align	1
  56              		.global	clearLEDs
  57              		.thumb
  58              		.thumb_func
  59              		.type	clearLEDs, %function
  60              	clearLEDs:
  61              	.LFB126:
 291:.\main.c      ****     for(int i = 0; i < LED_NUM; i++) {
  62              		.loc 1 291 0
  63              		.cfi_startproc
  64              		@ args = 0, pretend = 0, frame = 0
  65              		@ frame_needed = 0, uses_anonymous_args = 0
  66              	.LVL2:
  67 0000 10B5     		push	{r4, lr}
  68              		.cfi_def_cfa_offset 8
  69              		.cfi_offset 4, -8
  70              		.cfi_offset 14, -4
  71              	.LBB3:
 292:.\main.c      ****         setPixel(i, 0, 0, 0);
  72              		.loc 1 292 0
  73 0002 0024     		movs	r4, #0
  74              	.LVL3:
ARM GAS  C:\Users\IVYLIU~1\AppData\Local\Temp\cc0nPDNQ.s 			page 8


  75              	.L5:
 293:.\main.c      ****     }
  76              		.loc 1 293 0 discriminator 3
  77 0004 0021     		movs	r1, #0
  78 0006 2046     		mov	r0, r4
  79 0008 0A46     		mov	r2, r1
  80 000a 0B46     		mov	r3, r1
 292:.\main.c      ****         setPixel(i, 0, 0, 0);
  81              		.loc 1 292 0 discriminator 3
  82 000c 0134     		adds	r4, r4, #1
  83              	.LVL4:
 293:.\main.c      ****     }
  84              		.loc 1 293 0 discriminator 3
  85 000e FFF7FEFF 		bl	setPixel
  86              	.LVL5:
 292:.\main.c      ****         setPixel(i, 0, 0, 0);
  87              		.loc 1 292 0 discriminator 3
  88 0012 902C     		cmp	r4, #144
  89 0014 F6D1     		bne	.L5
  90              	.LBE3:
 297:.\main.c      **** 
  91              		.loc 1 297 0
  92 0016 BDE81040 		pop	{r4, lr}
  93              		.cfi_restore 14
  94              		.cfi_restore 4
  95              		.cfi_def_cfa_offset 0
  96              	.LVL6:
 295:.\main.c      **** 
  97              		.loc 1 295 0
  98 001a FFF7FEBF 		b	NP_Update
  99              	.LVL7:
 100              		.cfi_endproc
 101              	.LFE126:
 102              		.size	clearLEDs, .-clearLEDs
 103              		.section	.text.setNote,"ax",%progbits
 104              		.align	1
 105              		.global	setNote
 106              		.thumb
 107              		.thumb_func
 108              		.type	setNote, %function
 109              	setNote:
 110              	.LFB127:
 301:.\main.c      ****     struct Notes *cur_note = notes;
 111              		.loc 1 301 0
 112              		.cfi_startproc
 113              		@ args = 0, pretend = 0, frame = 0
 114              		@ frame_needed = 0, uses_anonymous_args = 0
 115              	.LVL8:
 116 0000 2DE9F041 		push	{r4, r5, r6, r7, r8, lr}
 117              		.cfi_def_cfa_offset 24
 118              		.cfi_offset 4, -24
 119              		.cfi_offset 5, -20
 120              		.cfi_offset 6, -16
 121              		.cfi_offset 7, -12
 122              		.cfi_offset 8, -8
 123              		.cfi_offset 14, -4
 301:.\main.c      ****     struct Notes *cur_note = notes;
ARM GAS  C:\Users\IVYLIU~1\AppData\Local\Temp\cc0nPDNQ.s 			page 9


 124              		.loc 1 301 0
 125 0004 8046     		mov	r8, r0
 126 0006 0D46     		mov	r5, r1
 127 0008 1646     		mov	r6, r2
 128 000a 1F46     		mov	r7, r3
 302:.\main.c      ****     while (cur_note->name) {
 129              		.loc 1 302 0
 130 000c 0E4C     		ldr	r4, .L21
 131              	.LVL9:
 132              	.L9:
 303:.\main.c      ****         if (strcmp(cur_note->name, input_name) == 0) {
 133              		.loc 1 303 0
 134 000e 2068     		ldr	r0, [r4]
 135 0010 B8B1     		cbz	r0, .L20
 304:.\main.c      ****             if (cur_note->led_nums[0] != 0) setPixel(cur_note->led_nums[0], r, g, b);
 136              		.loc 1 304 0
 137 0012 4146     		mov	r1, r8
 138 0014 FFF7FEFF 		bl	strcmp
 139              	.LVL10:
 140 0018 88B9     		cbnz	r0, .L10
 305:.\main.c      ****             if (cur_note->led_nums[1] != 0) setPixel(cur_note->led_nums[1], r, g, b);
 141              		.loc 1 305 0
 142 001a E068     		ldr	r0, [r4, #12]
 143 001c 20B1     		cbz	r0, .L11
 305:.\main.c      ****             if (cur_note->led_nums[1] != 0) setPixel(cur_note->led_nums[1], r, g, b);
 144              		.loc 1 305 0 is_stmt 0 discriminator 1
 145 001e 2946     		mov	r1, r5
 146 0020 3246     		mov	r2, r6
 147 0022 3B46     		mov	r3, r7
 148 0024 FFF7FEFF 		bl	setPixel
 149              	.LVL11:
 150              	.L11:
 306:.\main.c      ****             NP_Update();
 151              		.loc 1 306 0 is_stmt 1
 152 0028 2069     		ldr	r0, [r4, #16]
 153 002a 20B1     		cbz	r0, .L12
 306:.\main.c      ****             NP_Update();
 154              		.loc 1 306 0 is_stmt 0 discriminator 1
 155 002c 2946     		mov	r1, r5
 156 002e 3246     		mov	r2, r6
 157 0030 3B46     		mov	r3, r7
 158 0032 FFF7FEFF 		bl	setPixel
 159              	.LVL12:
 160              	.L12:
 313:.\main.c      **** 
 161              		.loc 1 313 0 is_stmt 1
 162 0036 BDE8F041 		pop	{r4, r5, r6, r7, r8, lr}
 163              		.cfi_remember_state
 164              		.cfi_restore 14
 165              		.cfi_restore 8
 166              		.cfi_restore 7
 167              		.cfi_restore 6
 168              		.cfi_restore 5
 169              		.cfi_restore 4
 170              		.cfi_def_cfa_offset 0
 171              	.LVL13:
 307:.\main.c      ****             break;
ARM GAS  C:\Users\IVYLIU~1\AppData\Local\Temp\cc0nPDNQ.s 			page 10


 172              		.loc 1 307 0
 173 003a FFF7FEBF 		b	NP_Update
 174              	.LVL14:
 175              	.L10:
 176              		.cfi_restore_state
 310:.\main.c      ****     }
 177              		.loc 1 310 0
 178 003e 1434     		adds	r4, r4, #20
 179              	.LVL15:
 180 0040 E5E7     		b	.L9
 181              	.L20:
 313:.\main.c      **** 
 182              		.loc 1 313 0
 183 0042 BDE8F081 		pop	{r4, r5, r6, r7, r8, pc}
 184              	.LVL16:
 185              	.L22:
 186 0046 00BF     		.align	2
 187              	.L21:
 188 0048 00000000 		.word	.LANCHOR0
 189              		.cfi_endproc
 190              	.LFE127:
 191              		.size	setNote, .-setNote
 192              		.global	__aeabi_ui2f
 193              		.section	.text.detectNote,"ax",%progbits
 194              		.align	1
 195              		.global	detectNote
 196              		.thumb
 197              		.thumb_func
 198              		.type	detectNote, %function
 199              	detectNote:
 200              	.LFB129:
 324:.\main.c      **** }
 325:.\main.c      **** 
 326:.\main.c      **** // Function: Waits for a note to be played, then 
 327:.\main.c      **** // Returns: int, which is the offset from middle C
 328:.\main.c      **** int detectNote() {
 201              		.loc 1 328 0
 202              		.cfi_startproc
 203              		@ args = 0, pretend = 0, frame = 8
 204              		@ frame_needed = 0, uses_anonymous_args = 0
 205              	.LVL17:
 206 0000 F7B5     		push	{r0, r1, r2, r4, r5, r6, r7, lr}
 207              		.cfi_def_cfa_offset 32
 208              		.cfi_offset 4, -20
 209              		.cfi_offset 5, -16
 210              		.cfi_offset 6, -12
 211              		.cfi_offset 7, -8
 212              		.cfi_offset 14, -4
 329:.\main.c      ****     int fft_start = 0;
 330:.\main.c      ****     uint16_t i = 0;
 213              		.loc 1 330 0
 214 0002 0024     		movs	r4, #0
 329:.\main.c      ****     int fft_start = 0;
 215              		.loc 1 329 0
 216 0004 2546     		mov	r5, r4
 217              	.LVL18:
 218              	.L25:
ARM GAS  C:\Users\IVYLIU~1\AppData\Local\Temp\cc0nPDNQ.s 			page 11


 331:.\main.c      **** 
 332:.\main.c      ****     while (SW3_Read()) {
 219              		.loc 1 332 0
 220 0006 FFF7FEFF 		bl	SW3_Read
 221              	.LVL19:
 222 000a 0028     		cmp	r0, #0
 223 000c 49D0     		beq	.L23
 333:.\main.c      ****         if(ADC_DelSig_1_IsEndConversion(ADC_DelSig_1_WAIT_FOR_RESULT) )
 224              		.loc 1 333 0
 225 000e 0020     		movs	r0, #0
 226 0010 FFF7FEFF 		bl	ADC_DelSig_1_IsEndConversion
 227              	.LVL20:
 228 0014 0028     		cmp	r0, #0
 229 0016 F6D0     		beq	.L25
 334:.\main.c      ****         {
 335:.\main.c      ****             adcResult = ADC_DelSig_1_GetResult32();		// read the adc and assign the value adcResult
 230              		.loc 1 335 0
 231 0018 FFF7FEFF 		bl	ADC_DelSig_1_GetResult32
 232              	.LVL21:
 336:.\main.c      ****             
 337:.\main.c      ****             // if the adc is above a certain threshold, start sampling for fft
 338:.\main.c      ****             if (adcResult > 36000 || adcResult < 30000) {
 233              		.loc 1 338 0
 234 001c 41F27073 		movw	r3, #6000
 335:.\main.c      ****             
 235              		.loc 1 335 0
 236 0020 214E     		ldr	r6, .L36
 237 0022 3060     		str	r0, [r6]
 238              		.loc 1 338 0
 239 0024 A0F5EA40 		sub	r0, r0, #29952
 240 0028 3038     		subs	r0, r0, #48
 241 002a 9842     		cmp	r0, r3
 242 002c 03D9     		bls	.L26
 339:.\main.c      ****                 adc_threshold_Write(1);
 243              		.loc 1 339 0
 244 002e 0120     		movs	r0, #1
 245 0030 FFF7FEFF 		bl	adc_threshold_Write
 246              	.LVL22:
 247 0034 01E0     		b	.L27
 248              	.LVL23:
 249              	.L26:
 340:.\main.c      ****                 fft_start = 1;
 341:.\main.c      ****             }
 342:.\main.c      ****             
 343:.\main.c      ****             if (fft_start) {
 250              		.loc 1 343 0
 251 0036 002D     		cmp	r5, #0
 252 0038 E5D0     		beq	.L25
 253              	.LVL24:
 254              	.L27:
 344:.\main.c      ****                 testInput[i] = adcResult;
 255              		.loc 1 344 0
 256 003a 3068     		ldr	r0, [r6]
 257 003c FFF7FEFF 		bl	__aeabi_ui2f
 258              	.LVL25:
 259 0040 1A4F     		ldr	r7, .L36+4
 260 0042 194D     		ldr	r5, .L36
ARM GAS  C:\Users\IVYLIU~1\AppData\Local\Temp\cc0nPDNQ.s 			page 12


 261 0044 47F82400 		str	r0, [r7, r4, lsl #2]	@ float
 345:.\main.c      ****                 i++;
 262              		.loc 1 345 0
 263 0048 0134     		adds	r4, r4, #1
 264 004a A4B2     		uxth	r4, r4
 265              	.LVL26:
 346:.\main.c      ****             
 347:.\main.c      ****                 if (i > 2047) {
 266              		.loc 1 347 0
 267 004c B4F5006F 		cmp	r4, #2048
 268 0050 25D3     		bcc	.L30
 269              	.LBB7:
 270              	.LBB8:
 271              	.LBB9:
 348:.\main.c      ****                     float32_t maxValue;
 349:.\main.c      ****                     arm_cfft_init_f32(&varInstCfftF32,fftSize);
 272              		.loc 1 349 0
 273 0052 174C     		ldr	r4, .L36+8
 274              	.LVL27:
 350:.\main.c      ****                     /* Process the data through the CFFT/CIFFT module */
 351:.\main.c      ****                     arm_cfft_f32(&varInstCfftF32, testInput, ifftFlag, doBitReverse);
 352:.\main.c      ****                     /* Process the data through the Complex Magnitude Module for
 353:.\main.c      ****                     calculating the magnitude at each bin */
 354:.\main.c      ****                     arm_cmplx_mag_f32(testInput, testOutput, fftSize);
 275              		.loc 1 354 0
 276 0054 174E     		ldr	r6, .L36+12
 349:.\main.c      ****                     /* Process the data through the CFFT/CIFFT module */
 277              		.loc 1 349 0
 278 0056 B4F83413 		ldrh	r1, [r4, #820]
 279 005a 1748     		ldr	r0, .L36+16
 280 005c FFF7FEFF 		bl	arm_cfft_init_f32
 281              	.LVL28:
 351:.\main.c      ****                     /* Process the data through the Complex Magnitude Module for
 282              		.loc 1 351 0
 283 0060 94F83833 		ldrb	r3, [r4, #824]	@ zero_extendqisi2
 284 0064 1448     		ldr	r0, .L36+16
 285 0066 3946     		mov	r1, r7
 286 0068 2A79     		ldrb	r2, [r5, #4]	@ zero_extendqisi2
 287 006a FFF7FEFF 		bl	arm_cfft_f32
 288              	.LVL29:
 289              		.loc 1 354 0
 290 006e 3846     		mov	r0, r7
 291 0070 3146     		mov	r1, r6
 292 0072 D4F83423 		ldr	r2, [r4, #820]
 293 0076 FFF7FEFF 		bl	arm_cmplx_mag_f32
 294              	.LVL30:
 355:.\main.c      ****                     /* Calculates maxValue and returns corresponding BIN value */
 356:.\main.c      ****                     testOutput[0] = 0;
 295              		.loc 1 356 0
 296 007a 0023     		movs	r3, #0
 357:.\main.c      ****                     arm_max_f32(testOutput, fftSize, &maxValue, &testIndex);
 297              		.loc 1 357 0
 298 007c D4F83413 		ldr	r1, [r4, #820]
 299 0080 01AA     		add	r2, sp, #4
 356:.\main.c      ****                     arm_max_f32(testOutput, fftSize, &maxValue, &testIndex);
 300              		.loc 1 356 0
 301 0082 3360     		str	r3, [r6]	@ float
ARM GAS  C:\Users\IVYLIU~1\AppData\Local\Temp\cc0nPDNQ.s 			page 13


 302              		.loc 1 357 0
 303 0084 3046     		mov	r0, r6
 304 0086 05F10803 		add	r3, r5, #8
 305 008a FFF7FEFF 		bl	arm_max_f32
 306              	.LVL31:
 358:.\main.c      ****                     
 359:.\main.c      ****                     i = 0;
 360:.\main.c      ****                     adc_threshold_Write(0);
 307              		.loc 1 360 0
 308 008e 0020     		movs	r0, #0
 309 0090 FFF7FEFF 		bl	adc_threshold_Write
 310              	.LVL32:
 361:.\main.c      ****                     fft_start = 0;
 362:.\main.c      ****                     CyDelay(250);									// delay in milliseconds
 311              		.loc 1 362 0
 312 0094 FA20     		movs	r0, #250
 313 0096 FFF7FEFF 		bl	CyDelay
 314              	.LVL33:
 363:.\main.c      ****                     return testIndex;
 315              		.loc 1 363 0
 316 009a A868     		ldr	r0, [r5, #8]
 317 009c 01E0     		b	.L23
 318              	.LVL34:
 319              	.L30:
 320              	.LBE9:
 321              	.LBE8:
 322              	.LBE7:
 323 009e 0125     		movs	r5, #1
 324 00a0 B1E7     		b	.L25
 325              	.LVL35:
 326              	.L23:
 364:.\main.c      ****                 }
 365:.\main.c      ****             }
 366:.\main.c      ****         }
 367:.\main.c      ****     }
 368:.\main.c      **** }
 327              		.loc 1 368 0
 328 00a2 03B0     		add	sp, sp, #12
 329              		.cfi_def_cfa_offset 20
 330              		@ sp needed
 331 00a4 F0BD     		pop	{r4, r5, r6, r7, pc}
 332              	.L37:
 333 00a6 00BF     		.align	2
 334              	.L36:
 335 00a8 00000000 		.word	.LANCHOR1
 336 00ac 00000000 		.word	testInput
 337 00b0 00000000 		.word	.LANCHOR0
 338 00b4 00000000 		.word	testOutput
 339 00b8 00000000 		.word	varInstCfftF32
 340              		.cfi_endproc
 341              	.LFE129:
 342              		.size	detectNote, .-detectNote
 343              		.section	.text.getNoteName,"ax",%progbits
 344              		.align	1
 345              		.global	getNoteName
 346              		.thumb
 347              		.thumb_func
ARM GAS  C:\Users\IVYLIU~1\AppData\Local\Temp\cc0nPDNQ.s 			page 14


 348              		.type	getNoteName, %function
 349              	getNoteName:
 350              	.LFB130:
 369:.\main.c      **** 
 370:.\main.c      **** // Function: Given offset of frequency bin from middle C, determines note name
 371:.\main.c      **** // Inputs: input_offset offset from middle C
 372:.\main.c      **** // Returns: char*, which is the name of the note
 373:.\main.c      **** char* getNoteName(int input_offset)
 374:.\main.c      **** {
 351              		.loc 1 374 0
 352              		.cfi_startproc
 353              		@ args = 0, pretend = 0, frame = 0
 354              		@ frame_needed = 0, uses_anonymous_args = 0
 355              		@ link register save eliminated.
 356              	.LVL36:
 357 0000 064B     		ldr	r3, .L43
 358              	.LVL37:
 359              	.L39:
 375:.\main.c      ****     struct Notes *cur_note = notes;
 376:.\main.c      ****     const char *note = "Unrecognized note";
 377:.\main.c      **** 
 378:.\main.c      ****     while (cur_note->name) {
 360              		.loc 1 378 0
 361 0002 53F8142C 		ldr	r2, [r3, #-20]
 362 0006 2AB1     		cbz	r2, .L42
 363 0008 1433     		adds	r3, r3, #20
 364              	.LVL38:
 379:.\main.c      ****         if (cur_note->offset == input_offset) {
 365              		.loc 1 379 0
 366 000a 53F8241C 		ldr	r1, [r3, #-36]
 367 000e 8142     		cmp	r1, r0
 368 0010 F7D1     		bne	.L39
 369 0012 00E0     		b	.L40
 370              	.LVL39:
 371              	.L42:
 376:.\main.c      **** 
 372              		.loc 1 376 0
 373 0014 024A     		ldr	r2, .L43+4
 374              	.LVL40:
 375              	.L40:
 380:.\main.c      ****                 note = cur_note->name;
 381:.\main.c      ****                 break;
 382:.\main.c      ****         }
 383:.\main.c      ****         ++cur_note;
 384:.\main.c      ****     }
 385:.\main.c      **** 
 386:.\main.c      ****     return note;
 387:.\main.c      **** }
 376              		.loc 1 387 0
 377 0016 1046     		mov	r0, r2
 378              	.LVL41:
 379 0018 7047     		bx	lr
 380              	.L44:
 381 001a 00BF     		.align	2
 382              	.L43:
 383 001c 14000000 		.word	.LANCHOR0+20
 384 0020 00000000 		.word	.LC0
ARM GAS  C:\Users\IVYLIU~1\AppData\Local\Temp\cc0nPDNQ.s 			page 15


 385              		.cfi_endproc
 386              	.LFE130:
 387              		.size	getNoteName, .-getNoteName
 388              		.section	.text.drawSongSelection,"ax",%progbits
 389              		.align	1
 390              		.global	drawSongSelection
 391              		.thumb
 392              		.thumb_func
 393              		.type	drawSongSelection, %function
 394              	drawSongSelection:
 395              	.LFB132:
 388:.\main.c      **** 
 389:.\main.c      **** // Function: Given a song index, displays each note in the song and waits for the note to be played
 390:.\main.c      **** void drawPlaySong(int song_index) {
 391:.\main.c      ****     // Setup
 392:.\main.c      ****     GUI_SetBkColor(GUI_WHITE);
 393:.\main.c      ****     GUI_SetColor(GUI_BLACK);
 394:.\main.c      ****     GUI_SetTextMode(GUI_TM_TRANS);
 395:.\main.c      ****     GUI_SetTextAlign(GUI_TA_VCENTER); // Bug: GUI_TA_HCENTER fails to center text horizontally
 396:.\main.c      **** 
 397:.\main.c      ****     GUI_Clear();
 398:.\main.c      ****     drawClefs();
 399:.\main.c      ****     
 400:.\main.c      ****     int note_index = 0;
 401:.\main.c      ****     char score_buf[3];
 402:.\main.c      ****     struct Songs cur_song = songs[song_index];
 403:.\main.c      ****     
 404:.\main.c      ****     // Display first note
 405:.\main.c      ****     drawNote(cur_song.note_seq[note_index]);
 406:.\main.c      ****     setNote(cur_song.note_seq[note_index], 0, 0, 100);
 407:.\main.c      ****     GUI_SetFont(&GUI_Font24B_ASCII);
 408:.\main.c      **** 
 409:.\main.c      ****     sprintf(score_buf, "%d", note_index);   //put index into str buffer for displaying score
 410:.\main.c      ****     GUI_DispStringHCenterAt("Score", SCREEN_WIDTH/2 - 20, 280);
 411:.\main.c      ****     GUI_DispStringHCenterAt(score_buf, SCREEN_WIDTH/2 + 40, 280);
 412:.\main.c      ****     
 413:.\main.c      ****     // Exits playing if SW3 is pressed
 414:.\main.c      ****     while (SW3_Read()) {
 415:.\main.c      ****         // Detect if note is played
 416:.\main.c      ****         // If correct note, flash LEDs green, then move onto the next note
 417:.\main.c      ****         if (strcmp(getNoteName(detectNote() - middle_c_bin), cur_song.note_seq[note_index]) == 0) {
 418:.\main.c      ****             while(!SW2_Read());
 419:.\main.c      ****             // flash LEDs green
 420:.\main.c      ****             setNote(cur_song.note_seq[note_index], 0, 100, 0);
 421:.\main.c      ****             CyDelay(50);
 422:.\main.c      **** 
 423:.\main.c      ****             // Erase current note and score drawing, turn off associated leds
 424:.\main.c      ****             GUI_SetColor(GUI_WHITE);
 425:.\main.c      ****             drawNote(cur_song.note_seq[note_index]);
 426:.\main.c      ****             clearLEDs();
 427:.\main.c      ****             
 428:.\main.c      ****             GUI_SetFont(&GUI_Font24B_ASCII);
 429:.\main.c      ****             GUI_DispStringHCenterAt("Score", SCREEN_WIDTH/2 - 20, 280);
 430:.\main.c      ****             GUI_DispStringHCenterAt(score_buf, SCREEN_WIDTH/2 + 40, 280);
 431:.\main.c      ****             
 432:.\main.c      ****             // Redraw clefs
 433:.\main.c      ****             GUI_SetColor(GUI_BLACK);
ARM GAS  C:\Users\IVYLIU~1\AppData\Local\Temp\cc0nPDNQ.s 			page 16


 434:.\main.c      ****             drawClefs();
 435:.\main.c      ****             
 436:.\main.c      ****             // Determine next note
 437:.\main.c      ****             note_index++;
 438:.\main.c      ****             sprintf(score_buf, "%d", note_index);   //put index into str buffer for displaying scor
 439:.\main.c      ****             
 440:.\main.c      ****             if (note_index >= cur_song.song_length) {
 441:.\main.c      ****                 // print final score then exit playing mode
 442:.\main.c      ****                 GUI_DispStringHCenterAt("Well Done!", SCREEN_WIDTH/2, 240);
 443:.\main.c      ****                 GUI_DispStringHCenterAt("Score", SCREEN_WIDTH/2 - 20, 280);
 444:.\main.c      ****                 GUI_DispStringHCenterAt(score_buf, SCREEN_WIDTH/2 + 40, 280);
 445:.\main.c      ****                 break;
 446:.\main.c      ****             } else {
 447:.\main.c      ****                 // show next note and display score, turn on associated leds
 448:.\main.c      ****                 GUI_DispStringHCenterAt("Score", SCREEN_WIDTH/2 - 20, 280);
 449:.\main.c      ****                 GUI_DispStringHCenterAt(score_buf, SCREEN_WIDTH/2 + 40, 280);
 450:.\main.c      ****                 drawNote(cur_song.note_seq[note_index]);
 451:.\main.c      ****                 setNote(cur_song.note_seq[note_index], 0, 0, 100);
 452:.\main.c      ****             }
 453:.\main.c      ****         } else {
 454:.\main.c      ****             // If incorrect note, flash LEDs red, then let user try again
 455:.\main.c      ****             setNote(cur_song.note_seq[note_index], 100, 0, 0);
 456:.\main.c      ****             CyDelay(50);
 457:.\main.c      ****             setNote(cur_song.note_seq[note_index], 0, 0, 100);
 458:.\main.c      ****         }
 459:.\main.c      ****     }
 460:.\main.c      **** }
 461:.\main.c      **** 
 462:.\main.c      **** // Function: Displays and controls user interface associated with song selection
 463:.\main.c      **** int drawSongSelection(){
 396              		.loc 1 463 0
 397              		.cfi_startproc
 398              		@ args = 0, pretend = 0, frame = 0
 399              		@ frame_needed = 0, uses_anonymous_args = 0
 400 0000 70B5     		push	{r4, r5, r6, lr}
 401              		.cfi_def_cfa_offset 16
 402              		.cfi_offset 4, -16
 403              		.cfi_offset 5, -12
 404              		.cfi_offset 6, -8
 405              		.cfi_offset 14, -4
 464:.\main.c      ****     // Setup
 465:.\main.c      ****     GUI_SetBkColor(GUI_WHITE);
 406              		.loc 1 465 0
 407 0002 4FF0FF30 		mov	r0, #-1
 408 0006 FFF7FEFF 		bl	GUI_SetBkColor
 409              	.LVL42:
 466:.\main.c      ****     GUI_SetColor(GUI_BLACK);
 410              		.loc 1 466 0
 411 000a 4FF07F40 		mov	r0, #-16777216
 412 000e FFF7FEFF 		bl	GUI_SetColor
 413              	.LVL43:
 467:.\main.c      ****     GUI_SetFont(&GUI_Font16B_ASCII);
 414              		.loc 1 467 0
 415 0012 3048     		ldr	r0, .L53
 416 0014 FFF7FEFF 		bl	GUI_SetFont
 417              	.LVL44:
 468:.\main.c      ****     GUI_SetTextMode(GUI_TM_TRANS);
ARM GAS  C:\Users\IVYLIU~1\AppData\Local\Temp\cc0nPDNQ.s 			page 17


 418              		.loc 1 468 0
 419 0018 0220     		movs	r0, #2
 420 001a FFF7FEFF 		bl	GUI_SetTextMode
 421              	.LVL45:
 469:.\main.c      ****     GUI_SetTextAlign(GUI_TA_VCENTER); // Bug: GUI_TA_HCENTER fails to center text horizontally
 422              		.loc 1 469 0
 423 001e 0C20     		movs	r0, #12
 424 0020 FFF7FEFF 		bl	GUI_SetTextAlign
 425              	.LVL46:
 470:.\main.c      ****     
 471:.\main.c      ****     GUI_Clear();
 426              		.loc 1 471 0
 427 0024 FFF7FEFF 		bl	GUI_Clear
 428              	.LVL47:
 472:.\main.c      **** 
 473:.\main.c      ****     // Display page title + first song name
 474:.\main.c      ****     int song_index = 0;
 475:.\main.c      ****     GUI_SetFont(&GUI_Font32B_ASCII);
 429              		.loc 1 475 0
 430 0028 2B48     		ldr	r0, .L53+4
 431 002a FFF7FEFF 		bl	GUI_SetFont
 432              	.LVL48:
 476:.\main.c      ****     GUI_DispStringHCenterAt("Song Selection", SCREEN_WIDTH/2, 20);
 433              		.loc 1 476 0
 434 002e 7821     		movs	r1, #120
 435 0030 1422     		movs	r2, #20
 436 0032 2A48     		ldr	r0, .L53+8
 437 0034 FFF7FEFF 		bl	GUI_DispStringHCenterAt
 438              	.LVL49:
 477:.\main.c      ****     
 478:.\main.c      ****     GUI_SetFont(&GUI_Font16B_ASCII);
 439              		.loc 1 478 0
 440 0038 2648     		ldr	r0, .L53
 441 003a FFF7FEFF 		bl	GUI_SetFont
 442              	.LVL50:
 479:.\main.c      ****     GUI_DispStringHCenterAt("Press SW2 for next option.", SCREEN_WIDTH/2,60);
 443              		.loc 1 479 0
 444 003e 2848     		ldr	r0, .L53+12
 445 0040 7821     		movs	r1, #120
 446 0042 3C22     		movs	r2, #60
 447 0044 FFF7FEFF 		bl	GUI_DispStringHCenterAt
 448              	.LVL51:
 480:.\main.c      ****     GUI_DispStringHCenterAt("Press SW3 to confirm selection.", SCREEN_WIDTH/2,80);
 481:.\main.c      ****     
 482:.\main.c      ****     GUI_SetFont(&GUI_Font32B_ASCII);
 483:.\main.c      ****     GUI_DispStringHCenterAt(songs[song_index].name, SCREEN_WIDTH/2, 320/2);
 449              		.loc 1 483 0
 450 0048 264D     		ldr	r5, .L53+16
 480:.\main.c      ****     GUI_DispStringHCenterAt("Press SW3 to confirm selection.", SCREEN_WIDTH/2,80);
 451              		.loc 1 480 0
 452 004a 7821     		movs	r1, #120
 453 004c 5022     		movs	r2, #80
 454 004e 2648     		ldr	r0, .L53+20
 455 0050 FFF7FEFF 		bl	GUI_DispStringHCenterAt
 456              	.LVL52:
 482:.\main.c      ****     GUI_DispStringHCenterAt(songs[song_index].name, SCREEN_WIDTH/2, 320/2);
 457              		.loc 1 482 0
ARM GAS  C:\Users\IVYLIU~1\AppData\Local\Temp\cc0nPDNQ.s 			page 18


 458 0054 2048     		ldr	r0, .L53+4
 459 0056 FFF7FEFF 		bl	GUI_SetFont
 460              	.LVL53:
 461              		.loc 1 483 0
 462 005a D5F84003 		ldr	r0, [r5, #832]
 463 005e 7821     		movs	r1, #120
 464 0060 A022     		movs	r2, #160
 465 0062 FFF7FEFF 		bl	GUI_DispStringHCenterAt
 466              	.LVL54:
 474:.\main.c      ****     GUI_SetFont(&GUI_Font32B_ASCII);
 467              		.loc 1 474 0
 468 0066 0024     		movs	r4, #0
 469              	.LVL55:
 470              	.L47:
 484:.\main.c      ****     
 485:.\main.c      ****     // Wait for song to be selected
 486:.\main.c      ****     while (SW3_Read()) {
 471              		.loc 1 486 0
 472 0068 FFF7FEFF 		bl	SW3_Read
 473              	.LVL56:
 474 006c F0B1     		cbz	r0, .L49
 487:.\main.c      ****         // Cycle to next song when SW3 pressed
 488:.\main.c      ****         if (!SW2_Read()) {
 475              		.loc 1 488 0
 476 006e FFF7FEFF 		bl	SW2_Read
 477              	.LVL57:
 478 0072 0646     		mov	r6, r0
 479 0074 0028     		cmp	r0, #0
 480 0076 F7D1     		bne	.L47
 481              	.LVL58:
 489:.\main.c      ****             song_index++;
 490:.\main.c      ****             song_index %= SONGS_LENGTH;
 491:.\main.c      ****             GUI_SetColor(GUI_GetBkColor());
 482              		.loc 1 491 0
 483 0078 FFF7FEFF 		bl	GUI_GetBkColor
 484              	.LVL59:
 485 007c FFF7FEFF 		bl	GUI_SetColor
 486              	.LVL60:
 492:.\main.c      ****             GUI_FillRect(0, 100, 240, 300);
 487              		.loc 1 492 0
 488 0080 3046     		mov	r0, r6
 489 0082 6421     		movs	r1, #100
 490 0084 F022     		movs	r2, #240
 491 0086 4FF49673 		mov	r3, #300
 492 008a FFF7FEFF 		bl	GUI_FillRect
 493              	.LVL61:
 490:.\main.c      ****             GUI_SetColor(GUI_GetBkColor());
 494              		.loc 1 490 0
 495 008e 84F00104 		eor	r4, r4, #1
 496              	.LVL62:
 493:.\main.c      ****             GUI_SetColor(GUI_BLACK);
 497              		.loc 1 493 0
 498 0092 4FF07F40 		mov	r0, #-16777216
 499 0096 FFF7FEFF 		bl	GUI_SetColor
 500              	.LVL63:
 494:.\main.c      ****             GUI_DispStringHCenterAt(songs[song_index].name, SCREEN_WIDTH/2, 160);
 501              		.loc 1 494 0
ARM GAS  C:\Users\IVYLIU~1\AppData\Local\Temp\cc0nPDNQ.s 			page 19


 502 009a 05EB0413 		add	r3, r5, r4, lsl #4
 503 009e D3F84003 		ldr	r0, [r3, #832]
 504 00a2 7821     		movs	r1, #120
 505 00a4 A022     		movs	r2, #160
 506 00a6 FFF7FEFF 		bl	GUI_DispStringHCenterAt
 507              	.LVL64:
 508 00aa DDE7     		b	.L47
 509              	.LVL65:
 510              	.L49:
 495:.\main.c      ****         }   
 496:.\main.c      ****     }
 497:.\main.c      ****     
 498:.\main.c      ****     while (!SW3_Read())
 511              		.loc 1 498 0
 512 00ac FFF7FEFF 		bl	SW3_Read
 513              	.LVL66:
 514 00b0 10B9     		cbnz	r0, .L52
 499:.\main.c      **** 
 500:.\main.c      ****     //Song Selection Confirmation
 501:.\main.c      ****     GUI_Clear();
 515              		.loc 1 501 0
 516 00b2 FFF7FEFF 		bl	GUI_Clear
 517              	.LVL67:
 518 00b6 F9E7     		b	.L49
 519              	.L52:
 502:.\main.c      ****     GUI_SetFont(&GUI_Font32B_ASCII);
 520              		.loc 1 502 0
 521 00b8 0748     		ldr	r0, .L53+4
 522 00ba FFF7FEFF 		bl	GUI_SetFont
 523              	.LVL68:
 503:.\main.c      ****     GUI_DispStringHCenterAt("Song Selected!\nPlay the keys as\nthey are shown!", SCREEN_WIDTH/2, 10
 524              		.loc 1 503 0
 525 00be 7821     		movs	r1, #120
 526 00c0 6422     		movs	r2, #100
 527 00c2 0A48     		ldr	r0, .L53+24
 528 00c4 FFF7FEFF 		bl	GUI_DispStringHCenterAt
 529              	.LVL69:
 504:.\main.c      ****     CyDelay(500);
 530              		.loc 1 504 0
 531 00c8 4FF4FA70 		mov	r0, #500
 532 00cc FFF7FEFF 		bl	CyDelay
 533              	.LVL70:
 505:.\main.c      ****     return song_index;
 506:.\main.c      **** }
 534              		.loc 1 506 0
 535 00d0 2046     		mov	r0, r4
 536 00d2 70BD     		pop	{r4, r5, r6, pc}
 537              	.L54:
 538              		.align	2
 539              	.L53:
 540 00d4 00000000 		.word	GUI_Font16B_ASCII
 541 00d8 00000000 		.word	GUI_Font32B_ASCII
 542 00dc 12000000 		.word	.LC1
 543 00e0 21000000 		.word	.LC2
 544 00e4 00000000 		.word	.LANCHOR0
 545 00e8 3C000000 		.word	.LC3
 546 00ec 5C000000 		.word	.LC4
ARM GAS  C:\Users\IVYLIU~1\AppData\Local\Temp\cc0nPDNQ.s 			page 20


 547              		.cfi_endproc
 548              	.LFE132:
 549              		.size	drawSongSelection, .-drawSongSelection
 550              		.section	.text.drawCalibrateScreen,"ax",%progbits
 551              		.align	1
 552              		.global	drawCalibrateScreen
 553              		.thumb
 554              		.thumb_func
 555              		.type	drawCalibrateScreen, %function
 556              	drawCalibrateScreen:
 557              	.LFB133:
 507:.\main.c      **** 
 508:.\main.c      **** // Function: Displays buttons and text of calibrate screen
 509:.\main.c      **** void drawCalibrateScreen(){
 558              		.loc 1 509 0
 559              		.cfi_startproc
 560              		@ args = 0, pretend = 0, frame = 0
 561              		@ frame_needed = 0, uses_anonymous_args = 0
 562 0000 08B5     		push	{r3, lr}
 563              		.cfi_def_cfa_offset 8
 564              		.cfi_offset 3, -8
 565              		.cfi_offset 14, -4
 510:.\main.c      ****     // Setup
 511:.\main.c      ****     GUI_SetBkColor(GUI_WHITE);
 566              		.loc 1 511 0
 567 0002 4FF0FF30 		mov	r0, #-1
 568 0006 FFF7FEFF 		bl	GUI_SetBkColor
 569              	.LVL71:
 512:.\main.c      ****     GUI_SetColor(GUI_BLACK);
 570              		.loc 1 512 0
 571 000a 4FF07F40 		mov	r0, #-16777216
 572 000e FFF7FEFF 		bl	GUI_SetColor
 573              	.LVL72:
 513:.\main.c      ****     GUI_SetFont(&GUI_Font20B_ASCII);
 574              		.loc 1 513 0
 575 0012 0948     		ldr	r0, .L56
 576 0014 FFF7FEFF 		bl	GUI_SetFont
 577              	.LVL73:
 514:.\main.c      ****     GUI_SetTextMode(GUI_TM_TRANS);
 578              		.loc 1 514 0
 579 0018 0220     		movs	r0, #2
 580 001a FFF7FEFF 		bl	GUI_SetTextMode
 581              	.LVL74:
 515:.\main.c      ****     GUI_SetTextAlign(GUI_TA_VCENTER); // Bug: GUI_TA_HCENTER fails to center text horizontally
 582              		.loc 1 515 0
 583 001e 0C20     		movs	r0, #12
 584 0020 FFF7FEFF 		bl	GUI_SetTextAlign
 585              	.LVL75:
 516:.\main.c      ****     
 517:.\main.c      ****     GUI_Clear();
 586              		.loc 1 517 0
 587 0024 FFF7FEFF 		bl	GUI_Clear
 588              	.LVL76:
 518:.\main.c      **** 
 519:.\main.c      ****     GUI_DispStringHCenterAt("Line up lit LEDs over\nthe middle C key.\nThen, play it.", SCREEN_WIDT
 520:.\main.c      **** }
 589              		.loc 1 520 0
ARM GAS  C:\Users\IVYLIU~1\AppData\Local\Temp\cc0nPDNQ.s 			page 21


 590 0028 BDE80840 		pop	{r3, lr}
 591              		.cfi_restore 14
 592              		.cfi_restore 3
 593              		.cfi_def_cfa_offset 0
 519:.\main.c      **** }
 594              		.loc 1 519 0
 595 002c 7821     		movs	r1, #120
 596 002e 0348     		ldr	r0, .L56+4
 597 0030 0A46     		mov	r2, r1
 598 0032 FFF7FEBF 		b	GUI_DispStringHCenterAt
 599              	.LVL77:
 600              	.L57:
 601 0036 00BF     		.align	2
 602              	.L56:
 603 0038 00000000 		.word	GUI_Font20B_ASCII
 604 003c 8C000000 		.word	.LC5
 605              		.cfi_endproc
 606              	.LFE133:
 607              		.size	drawCalibrateScreen, .-drawCalibrateScreen
 608              		.section	.text.drawStartScreen,"ax",%progbits
 609              		.align	1
 610              		.global	drawStartScreen
 611              		.thumb
 612              		.thumb_func
 613              		.type	drawStartScreen, %function
 614              	drawStartScreen:
 615              	.LFB134:
 521:.\main.c      **** 
 522:.\main.c      **** // Function: Displays buttons and text of start screen
 523:.\main.c      **** void drawStartScreen(){
 616              		.loc 1 523 0
 617              		.cfi_startproc
 618              		@ args = 0, pretend = 0, frame = 0
 619              		@ frame_needed = 0, uses_anonymous_args = 0
 620 0000 13B5     		push	{r0, r1, r4, lr}
 621              		.cfi_def_cfa_offset 16
 622              		.cfi_offset 4, -8
 623              		.cfi_offset 14, -4
 524:.\main.c      ****     // Setup
 525:.\main.c      ****     GUI_SetBkColor(GUI_WHITE);
 624              		.loc 1 525 0
 625 0002 4FF0FF30 		mov	r0, #-1
 626 0006 FFF7FEFF 		bl	GUI_SetBkColor
 627              	.LVL78:
 526:.\main.c      ****     GUI_SetColor(GUI_BLACK);
 628              		.loc 1 526 0
 629 000a 4FF07F40 		mov	r0, #-16777216
 630 000e FFF7FEFF 		bl	GUI_SetColor
 631              	.LVL79:
 527:.\main.c      ****     GUI_SetFont(&GUI_Font32B_ASCII);
 632              		.loc 1 527 0
 633 0012 1E48     		ldr	r0, .L59
 634 0014 FFF7FEFF 		bl	GUI_SetFont
 635              	.LVL80:
 528:.\main.c      ****     GUI_SetTextMode(GUI_TM_TRANS);
 636              		.loc 1 528 0
 637 0018 0220     		movs	r0, #2
ARM GAS  C:\Users\IVYLIU~1\AppData\Local\Temp\cc0nPDNQ.s 			page 22


 638 001a FFF7FEFF 		bl	GUI_SetTextMode
 639              	.LVL81:
 529:.\main.c      ****     GUI_SetTextAlign(GUI_TA_VCENTER); // Bug: GUI_TA_HCENTER fails to center text horizontally
 640              		.loc 1 529 0
 641 001e 0C20     		movs	r0, #12
 642 0020 FFF7FEFF 		bl	GUI_SetTextAlign
 643              	.LVL82:
 530:.\main.c      ****     
 531:.\main.c      ****     GUI_Clear();
 644              		.loc 1 531 0
 645 0024 FFF7FEFF 		bl	GUI_Clear
 646              	.LVL83:
 532:.\main.c      **** 
 533:.\main.c      ****     GUI_DispStringHCenterAt("Welcome to\nPiano Tiles!", SCREEN_WIDTH/2, 40);
 647              		.loc 1 533 0
 648 0028 7821     		movs	r1, #120
 649 002a 2822     		movs	r2, #40
 650 002c 1848     		ldr	r0, .L59+4
 651 002e FFF7FEFF 		bl	GUI_DispStringHCenterAt
 652              	.LVL84:
 534:.\main.c      **** 
 535:.\main.c      ****     // Button 1: Play
 536:.\main.c      ****     GUI_SetColor(GUI_GREEN);
 653              		.loc 1 536 0
 654 0032 4FF0FF20 		mov	r0, #-16711936
 655 0036 FFF7FEFF 		bl	GUI_SetColor
 656              	.LVL85:
 537:.\main.c      ****     GUI_FillRoundedRect(40, 120, 200, 200, 10);
 657              		.loc 1 537 0
 658 003a 0A24     		movs	r4, #10
 659 003c C822     		movs	r2, #200
 660 003e 1346     		mov	r3, r2
 661 0040 7821     		movs	r1, #120
 662 0042 0094     		str	r4, [sp]
 663 0044 2820     		movs	r0, #40
 664 0046 FFF7FEFF 		bl	GUI_FillRoundedRect
 665              	.LVL86:
 538:.\main.c      ****     GUI_SetColor(GUI_WHITE);
 666              		.loc 1 538 0
 667 004a 4FF0FF30 		mov	r0, #-1
 668 004e FFF7FEFF 		bl	GUI_SetColor
 669              	.LVL87:
 539:.\main.c      ****     GUI_DispStringHCenterAt("Play", SCREEN_WIDTH/2, 160);
 670              		.loc 1 539 0
 671 0052 7821     		movs	r1, #120
 672 0054 A022     		movs	r2, #160
 673 0056 0F48     		ldr	r0, .L59+8
 674 0058 FFF7FEFF 		bl	GUI_DispStringHCenterAt
 675              	.LVL88:
 540:.\main.c      **** 
 541:.\main.c      ****     // Button 2: Calibrate
 542:.\main.c      ****     GUI_SetColor(GUI_BLUE);
 676              		.loc 1 542 0
 677 005c 0E48     		ldr	r0, .L59+12
 678 005e FFF7FEFF 		bl	GUI_SetColor
 679              	.LVL89:
 543:.\main.c      ****     GUI_FillRoundedRect(40, 220, 200, 300, 10);
ARM GAS  C:\Users\IVYLIU~1\AppData\Local\Temp\cc0nPDNQ.s 			page 23


 680              		.loc 1 543 0
 681 0062 DC21     		movs	r1, #220
 682 0064 C822     		movs	r2, #200
 683 0066 4FF49673 		mov	r3, #300
 684 006a 0094     		str	r4, [sp]
 685 006c 2820     		movs	r0, #40
 686 006e FFF7FEFF 		bl	GUI_FillRoundedRect
 687              	.LVL90:
 544:.\main.c      ****     GUI_SetColor(GUI_WHITE);
 688              		.loc 1 544 0
 689 0072 4FF0FF30 		mov	r0, #-1
 690 0076 FFF7FEFF 		bl	GUI_SetColor
 691              	.LVL91:
 545:.\main.c      ****     GUI_DispStringHCenterAt("Calibrate", SCREEN_WIDTH/2, 260);
 692              		.loc 1 545 0
 693 007a 0848     		ldr	r0, .L59+16
 694 007c 7821     		movs	r1, #120
 695 007e 4FF48272 		mov	r2, #260
 546:.\main.c      **** }
 696              		.loc 1 546 0
 697 0082 02B0     		add	sp, sp, #8
 698              		.cfi_def_cfa_offset 8
 699              		@ sp needed
 700 0084 BDE81040 		pop	{r4, lr}
 701              		.cfi_restore 14
 702              		.cfi_restore 4
 703              		.cfi_def_cfa_offset 0
 545:.\main.c      ****     GUI_DispStringHCenterAt("Calibrate", SCREEN_WIDTH/2, 260);
 704              		.loc 1 545 0
 705 0088 FFF7FEBF 		b	GUI_DispStringHCenterAt
 706              	.LVL92:
 707              	.L60:
 708              		.align	2
 709              	.L59:
 710 008c 00000000 		.word	GUI_Font32B_ASCII
 711 0090 C3000000 		.word	.LC6
 712 0094 DB000000 		.word	.LC7
 713 0098 FF0000FF 		.word	-16776961
 714 009c E0000000 		.word	.LC8
 715              		.cfi_endproc
 716              	.LFE134:
 717              		.size	drawStartScreen, .-drawStartScreen
 718              		.section	.text.drawNote,"ax",%progbits
 719              		.align	1
 720              		.global	drawNote
 721              		.thumb
 722              		.thumb_func
 723              		.type	drawNote, %function
 724              	drawNote:
 725              	.LFB135:
 547:.\main.c      **** 
 548:.\main.c      **** // Function: Given a note name, displays the note without clefs
 549:.\main.c      **** void drawNote(char* input_name){
 726              		.loc 1 549 0
 727              		.cfi_startproc
 728              		@ args = 0, pretend = 0, frame = 0
 729              		@ frame_needed = 0, uses_anonymous_args = 0
ARM GAS  C:\Users\IVYLIU~1\AppData\Local\Temp\cc0nPDNQ.s 			page 24


 730              	.LVL93:
 731 0000 10B5     		push	{r4, lr}
 732              		.cfi_def_cfa_offset 8
 733              		.cfi_offset 4, -8
 734              		.cfi_offset 14, -4
 735              		.loc 1 549 0
 736 0002 0446     		mov	r4, r0
 550:.\main.c      ****     // Center text and set size
 551:.\main.c      ****     GUI_SetFont(&GUI_Font32B_ASCII);
 737              		.loc 1 551 0
 738 0004 B448     		ldr	r0, .L104
 739              	.LVL94:
 740 0006 FFF7FEFF 		bl	GUI_SetFont
 741              	.LVL95:
 552:.\main.c      ****     GUI_SetTextMode(GUI_TM_TRANS);
 742              		.loc 1 552 0
 743 000a 0220     		movs	r0, #2
 744 000c FFF7FEFF 		bl	GUI_SetTextMode
 745              	.LVL96:
 553:.\main.c      ****     GUI_SetTextAlign(GUI_TA_HCENTER | GUI_TA_VCENTER);
 746              		.loc 1 553 0
 747 0010 0E20     		movs	r0, #14
 748 0012 FFF7FEFF 		bl	GUI_SetTextAlign
 749              	.LVL97:
 554:.\main.c      ****     
 555:.\main.c      ****     int text_x = SCREEN_WIDTH/2;
 556:.\main.c      ****     int text_y = 240;
 557:.\main.c      ****     
 558:.\main.c      ****     if (strcmp(input_name, "G5") == 0) {
 750              		.loc 1 558 0
 751 0016 2046     		mov	r0, r4
 752 0018 B049     		ldr	r1, .L104+4
 753 001a FFF7FEFF 		bl	strcmp
 754              	.LVL98:
 755 001e 38B9     		cbnz	r0, .L62
 559:.\main.c      ****         GUI_FillEllipse(SCREEN_WIDTH/2, TOP_MARGIN - NOTE_SPACING, NOTE_WIDTH, NOTE_HEIGHT);
 756              		.loc 1 559 0
 757 0020 7820     		movs	r0, #120
 758 0022 0D21     		movs	r1, #13
 759 0024 0C22     		movs	r2, #12
 760 0026 0823     		movs	r3, #8
 761 0028 FFF7FEFF 		bl	GUI_FillEllipse
 762              	.LVL99:
 560:.\main.c      ****         GUI_DispStringAt("G5", text_x, text_y);
 763              		.loc 1 560 0
 764 002c AB48     		ldr	r0, .L104+4
 765 002e C1E2     		b	.L102
 766              	.L62:
 561:.\main.c      ****     } else if (strcmp(input_name, "F#5") == 0) {
 767              		.loc 1 561 0
 768 0030 2046     		mov	r0, r4
 769 0032 AB49     		ldr	r1, .L104+8
 770 0034 FFF7FEFF 		bl	strcmp
 771              	.LVL100:
 772 0038 88B9     		cbnz	r0, .L63
 562:.\main.c      ****         GUI_FillEllipse(SCREEN_WIDTH/2, TOP_MARGIN, NOTE_WIDTH, NOTE_HEIGHT);
 773              		.loc 1 562 0
ARM GAS  C:\Users\IVYLIU~1\AppData\Local\Temp\cc0nPDNQ.s 			page 25


 774 003a 0823     		movs	r3, #8
 775 003c 7820     		movs	r0, #120
 776 003e 1421     		movs	r1, #20
 777 0040 0C22     		movs	r2, #12
 778 0042 FFF7FEFF 		bl	GUI_FillEllipse
 779              	.LVL101:
 563:.\main.c      ****         GUI_DispStringAt("F#5", text_x, text_y);
 780              		.loc 1 563 0
 781 0046 7821     		movs	r1, #120
 782 0048 F022     		movs	r2, #240
 783 004a A548     		ldr	r0, .L104+8
 784 004c FFF7FEFF 		bl	GUI_DispStringAt
 785              	.LVL102:
 564:.\main.c      **** 
 565:.\main.c      ****         GUI_SetFont(&GUI_Font24B_ASCII);
 786              		.loc 1 565 0
 787 0050 A448     		ldr	r0, .L104+12
 788 0052 FFF7FEFF 		bl	GUI_SetFont
 789              	.LVL103:
 566:.\main.c      ****         GUI_DispStringAt("#", SCREEN_WIDTH/2 + 2*NOTE_WIDTH, TOP_MARGIN);
 790              		.loc 1 566 0
 791 0056 A448     		ldr	r0, .L104+16
 792 0058 9021     		movs	r1, #144
 793 005a 1422     		movs	r2, #20
 794 005c ACE2     		b	.L103
 795              	.L63:
 567:.\main.c      ****     } else if (strcmp(input_name, "F5") == 0) {
 796              		.loc 1 567 0
 797 005e 2046     		mov	r0, r4
 798 0060 A249     		ldr	r1, .L104+20
 799 0062 FFF7FEFF 		bl	strcmp
 800              	.LVL104:
 801 0066 38B9     		cbnz	r0, .L64
 568:.\main.c      ****         GUI_FillEllipse(SCREEN_WIDTH/2, TOP_MARGIN, NOTE_WIDTH, NOTE_HEIGHT);
 802              		.loc 1 568 0
 803 0068 7820     		movs	r0, #120
 804 006a 1421     		movs	r1, #20
 805 006c 0C22     		movs	r2, #12
 806 006e 0823     		movs	r3, #8
 807 0070 FFF7FEFF 		bl	GUI_FillEllipse
 808              	.LVL105:
 569:.\main.c      ****         GUI_DispStringAt("F5", text_x, text_y);
 809              		.loc 1 569 0
 810 0074 9D48     		ldr	r0, .L104+20
 811 0076 9DE2     		b	.L102
 812              	.L64:
 570:.\main.c      ****     } else if (strcmp(input_name, "E5") == 0) {
 813              		.loc 1 570 0
 814 0078 2046     		mov	r0, r4
 815 007a 9D49     		ldr	r1, .L104+24
 816 007c FFF7FEFF 		bl	strcmp
 817              	.LVL106:
 818 0080 38B9     		cbnz	r0, .L65
 571:.\main.c      ****         GUI_FillEllipse(SCREEN_WIDTH/2, TOP_MARGIN + NOTE_SPACING, NOTE_WIDTH, NOTE_HEIGHT);
 819              		.loc 1 571 0
 820 0082 7820     		movs	r0, #120
 821 0084 1B21     		movs	r1, #27
ARM GAS  C:\Users\IVYLIU~1\AppData\Local\Temp\cc0nPDNQ.s 			page 26


 822 0086 0C22     		movs	r2, #12
 823 0088 0823     		movs	r3, #8
 824 008a FFF7FEFF 		bl	GUI_FillEllipse
 825              	.LVL107:
 572:.\main.c      ****         GUI_DispStringAt("E5", text_x, text_y);
 826              		.loc 1 572 0
 827 008e 9848     		ldr	r0, .L104+24
 828 0090 90E2     		b	.L102
 829              	.L65:
 573:.\main.c      ****     } else if (strcmp(input_name, "D#5") == 0) {
 830              		.loc 1 573 0
 831 0092 2046     		mov	r0, r4
 832 0094 9749     		ldr	r1, .L104+28
 833 0096 FFF7FEFF 		bl	strcmp
 834              	.LVL108:
 835 009a 88B9     		cbnz	r0, .L66
 574:.\main.c      ****         GUI_FillEllipse(SCREEN_WIDTH/2, TOP_MARGIN + 2*NOTE_SPACING, NOTE_WIDTH, NOTE_HEIGHT);
 836              		.loc 1 574 0
 837 009c 0823     		movs	r3, #8
 838 009e 7820     		movs	r0, #120
 839 00a0 2321     		movs	r1, #35
 840 00a2 0C22     		movs	r2, #12
 841 00a4 FFF7FEFF 		bl	GUI_FillEllipse
 842              	.LVL109:
 575:.\main.c      ****         GUI_DispStringAt("D#5", text_x, text_y);
 843              		.loc 1 575 0
 844 00a8 7821     		movs	r1, #120
 845 00aa F022     		movs	r2, #240
 846 00ac 9148     		ldr	r0, .L104+28
 847 00ae FFF7FEFF 		bl	GUI_DispStringAt
 848              	.LVL110:
 576:.\main.c      **** 
 577:.\main.c      ****         GUI_SetFont(&GUI_Font24B_ASCII);
 849              		.loc 1 577 0
 850 00b2 8C48     		ldr	r0, .L104+12
 851 00b4 FFF7FEFF 		bl	GUI_SetFont
 852              	.LVL111:
 578:.\main.c      ****         GUI_DispStringAt("#", SCREEN_WIDTH/2 + 2*NOTE_WIDTH, TOP_MARGIN + 2*NOTE_SPACING);
 853              		.loc 1 578 0
 854 00b8 8B48     		ldr	r0, .L104+16
 855 00ba 9021     		movs	r1, #144
 856 00bc 2322     		movs	r2, #35
 857 00be 7BE2     		b	.L103
 858              	.L66:
 579:.\main.c      ****     } else if (strcmp(input_name, "D5") == 0) {
 859              		.loc 1 579 0
 860 00c0 2046     		mov	r0, r4
 861 00c2 8D49     		ldr	r1, .L104+32
 862 00c4 FFF7FEFF 		bl	strcmp
 863              	.LVL112:
 864 00c8 38B9     		cbnz	r0, .L67
 580:.\main.c      ****         GUI_FillEllipse(SCREEN_WIDTH/2, TOP_MARGIN + 2*NOTE_SPACING, NOTE_WIDTH, NOTE_HEIGHT);
 865              		.loc 1 580 0
 866 00ca 7820     		movs	r0, #120
 867 00cc 2321     		movs	r1, #35
 868 00ce 0C22     		movs	r2, #12
 869 00d0 0823     		movs	r3, #8
ARM GAS  C:\Users\IVYLIU~1\AppData\Local\Temp\cc0nPDNQ.s 			page 27


 870 00d2 FFF7FEFF 		bl	GUI_FillEllipse
 871              	.LVL113:
 581:.\main.c      ****         GUI_DispStringAt("D5", text_x, text_y);
 872              		.loc 1 581 0
 873 00d6 8848     		ldr	r0, .L104+32
 874 00d8 6CE2     		b	.L102
 875              	.L67:
 582:.\main.c      ****     } else if (strcmp(input_name, "C#5") == 0) {
 876              		.loc 1 582 0
 877 00da 2046     		mov	r0, r4
 878 00dc 8749     		ldr	r1, .L104+36
 879 00de FFF7FEFF 		bl	strcmp
 880              	.LVL114:
 881 00e2 88B9     		cbnz	r0, .L68
 583:.\main.c      ****         GUI_FillEllipse(SCREEN_WIDTH/2, TOP_MARGIN + 3*NOTE_SPACING, NOTE_WIDTH, NOTE_HEIGHT);
 882              		.loc 1 583 0
 883 00e4 0823     		movs	r3, #8
 884 00e6 7820     		movs	r0, #120
 885 00e8 2A21     		movs	r1, #42
 886 00ea 0C22     		movs	r2, #12
 887 00ec FFF7FEFF 		bl	GUI_FillEllipse
 888              	.LVL115:
 584:.\main.c      ****         GUI_DispStringAt("C#5", text_x, text_y);
 889              		.loc 1 584 0
 890 00f0 7821     		movs	r1, #120
 891 00f2 F022     		movs	r2, #240
 892 00f4 8148     		ldr	r0, .L104+36
 893 00f6 FFF7FEFF 		bl	GUI_DispStringAt
 894              	.LVL116:
 585:.\main.c      **** 
 586:.\main.c      ****         GUI_SetFont(&GUI_Font24B_ASCII);
 895              		.loc 1 586 0
 896 00fa 7A48     		ldr	r0, .L104+12
 897 00fc FFF7FEFF 		bl	GUI_SetFont
 898              	.LVL117:
 587:.\main.c      ****         GUI_DispStringAt("#", SCREEN_WIDTH/2 + 2*NOTE_WIDTH, TOP_MARGIN + 3*NOTE_SPACING);
 899              		.loc 1 587 0
 900 0100 7948     		ldr	r0, .L104+16
 901 0102 9021     		movs	r1, #144
 902 0104 2A22     		movs	r2, #42
 903 0106 57E2     		b	.L103
 904              	.L68:
 588:.\main.c      ****     } else if (strcmp(input_name, "C5") == 0) {
 905              		.loc 1 588 0
 906 0108 2046     		mov	r0, r4
 907 010a 7D49     		ldr	r1, .L104+40
 908 010c FFF7FEFF 		bl	strcmp
 909              	.LVL118:
 910 0110 38B9     		cbnz	r0, .L69
 589:.\main.c      ****         GUI_FillEllipse(SCREEN_WIDTH/2, TOP_MARGIN + 3*NOTE_SPACING, NOTE_WIDTH, NOTE_HEIGHT);
 911              		.loc 1 589 0
 912 0112 7820     		movs	r0, #120
 913 0114 2A21     		movs	r1, #42
 914 0116 0C22     		movs	r2, #12
 915 0118 0823     		movs	r3, #8
 916 011a FFF7FEFF 		bl	GUI_FillEllipse
 917              	.LVL119:
ARM GAS  C:\Users\IVYLIU~1\AppData\Local\Temp\cc0nPDNQ.s 			page 28


 590:.\main.c      ****         GUI_DispStringAt("C5", text_x, text_y);
 918              		.loc 1 590 0
 919 011e 7848     		ldr	r0, .L104+40
 920 0120 48E2     		b	.L102
 921              	.L69:
 591:.\main.c      ****     } else if (strcmp(input_name, "B4") == 0) {
 922              		.loc 1 591 0
 923 0122 2046     		mov	r0, r4
 924 0124 7749     		ldr	r1, .L104+44
 925 0126 FFF7FEFF 		bl	strcmp
 926              	.LVL120:
 927 012a 38B9     		cbnz	r0, .L70
 592:.\main.c      ****         GUI_FillEllipse(SCREEN_WIDTH/2, TOP_MARGIN + 4*NOTE_SPACING, NOTE_WIDTH, NOTE_HEIGHT);
 928              		.loc 1 592 0
 929 012c 7820     		movs	r0, #120
 930 012e 3221     		movs	r1, #50
 931 0130 0C22     		movs	r2, #12
 932 0132 0823     		movs	r3, #8
 933 0134 FFF7FEFF 		bl	GUI_FillEllipse
 934              	.LVL121:
 593:.\main.c      ****         GUI_DispStringAt("B4", text_x, text_y);
 935              		.loc 1 593 0
 936 0138 7248     		ldr	r0, .L104+44
 937 013a 3BE2     		b	.L102
 938              	.L70:
 594:.\main.c      ****     } else if (strcmp(input_name, "A#4") == 0) {
 939              		.loc 1 594 0
 940 013c 2046     		mov	r0, r4
 941 013e 7249     		ldr	r1, .L104+48
 942 0140 FFF7FEFF 		bl	strcmp
 943              	.LVL122:
 944 0144 88B9     		cbnz	r0, .L71
 595:.\main.c      ****         GUI_FillEllipse(SCREEN_WIDTH/2, TOP_MARGIN + 5*NOTE_SPACING, NOTE_WIDTH, NOTE_HEIGHT);
 945              		.loc 1 595 0
 946 0146 0823     		movs	r3, #8
 947 0148 7820     		movs	r0, #120
 948 014a 3921     		movs	r1, #57
 949 014c 0C22     		movs	r2, #12
 950 014e FFF7FEFF 		bl	GUI_FillEllipse
 951              	.LVL123:
 596:.\main.c      ****         GUI_DispStringAt("A#4", text_x, text_y);
 952              		.loc 1 596 0
 953 0152 7821     		movs	r1, #120
 954 0154 F022     		movs	r2, #240
 955 0156 6C48     		ldr	r0, .L104+48
 956 0158 FFF7FEFF 		bl	GUI_DispStringAt
 957              	.LVL124:
 597:.\main.c      **** 
 598:.\main.c      ****         GUI_SetFont(&GUI_Font24B_ASCII);
 958              		.loc 1 598 0
 959 015c 6148     		ldr	r0, .L104+12
 960 015e FFF7FEFF 		bl	GUI_SetFont
 961              	.LVL125:
 599:.\main.c      ****         GUI_DispStringAt("#", SCREEN_WIDTH/2 + 2*NOTE_WIDTH, TOP_MARGIN + 5*NOTE_SPACING);
 962              		.loc 1 599 0
 963 0162 6148     		ldr	r0, .L104+16
 964 0164 9021     		movs	r1, #144
ARM GAS  C:\Users\IVYLIU~1\AppData\Local\Temp\cc0nPDNQ.s 			page 29


 965 0166 3922     		movs	r2, #57
 966 0168 26E2     		b	.L103
 967              	.L71:
 600:.\main.c      ****     } else if (strcmp(input_name, "A4") == 0) {
 968              		.loc 1 600 0
 969 016a 2046     		mov	r0, r4
 970 016c 6749     		ldr	r1, .L104+52
 971 016e FFF7FEFF 		bl	strcmp
 972              	.LVL126:
 973 0172 38B9     		cbnz	r0, .L72
 601:.\main.c      ****         GUI_FillEllipse(SCREEN_WIDTH/2, TOP_MARGIN + 5*NOTE_SPACING, NOTE_WIDTH, NOTE_HEIGHT);
 974              		.loc 1 601 0
 975 0174 7820     		movs	r0, #120
 976 0176 3921     		movs	r1, #57
 977 0178 0C22     		movs	r2, #12
 978 017a 0823     		movs	r3, #8
 979 017c FFF7FEFF 		bl	GUI_FillEllipse
 980              	.LVL127:
 602:.\main.c      ****         GUI_DispStringAt("A4", text_x, text_y);
 981              		.loc 1 602 0
 982 0180 6248     		ldr	r0, .L104+52
 983 0182 17E2     		b	.L102
 984              	.L72:
 603:.\main.c      ****     } else if (strcmp(input_name, "G#4") == 0) {
 985              		.loc 1 603 0
 986 0184 2046     		mov	r0, r4
 987 0186 6249     		ldr	r1, .L104+56
 988 0188 FFF7FEFF 		bl	strcmp
 989              	.LVL128:
 990 018c 88B9     		cbnz	r0, .L73
 604:.\main.c      ****         GUI_FillEllipse(SCREEN_WIDTH/2, TOP_MARGIN + 6*NOTE_SPACING, NOTE_WIDTH, NOTE_HEIGHT);
 991              		.loc 1 604 0
 992 018e 0823     		movs	r3, #8
 993 0190 7820     		movs	r0, #120
 994 0192 4121     		movs	r1, #65
 995 0194 0C22     		movs	r2, #12
 996 0196 FFF7FEFF 		bl	GUI_FillEllipse
 997              	.LVL129:
 605:.\main.c      ****         GUI_DispStringAt("G#4", text_x, text_y);
 998              		.loc 1 605 0
 999 019a 7821     		movs	r1, #120
 1000 019c F022     		movs	r2, #240
 1001 019e 5C48     		ldr	r0, .L104+56
 1002 01a0 FFF7FEFF 		bl	GUI_DispStringAt
 1003              	.LVL130:
 606:.\main.c      **** 
 607:.\main.c      ****         GUI_SetFont(&GUI_Font24B_ASCII);
 1004              		.loc 1 607 0
 1005 01a4 4F48     		ldr	r0, .L104+12
 1006 01a6 FFF7FEFF 		bl	GUI_SetFont
 1007              	.LVL131:
 608:.\main.c      ****         GUI_DispStringAt("#", SCREEN_WIDTH/2 + 2*NOTE_WIDTH, TOP_MARGIN + 6*NOTE_SPACING);
 1008              		.loc 1 608 0
 1009 01aa 4F48     		ldr	r0, .L104+16
 1010 01ac 9021     		movs	r1, #144
 1011 01ae 4122     		movs	r2, #65
 1012 01b0 02E2     		b	.L103
ARM GAS  C:\Users\IVYLIU~1\AppData\Local\Temp\cc0nPDNQ.s 			page 30


 1013              	.L73:
 609:.\main.c      ****     } else if (strcmp(input_name, "G4") == 0) {
 1014              		.loc 1 609 0
 1015 01b2 2046     		mov	r0, r4
 1016 01b4 5749     		ldr	r1, .L104+60
 1017 01b6 FFF7FEFF 		bl	strcmp
 1018              	.LVL132:
 1019 01ba 38B9     		cbnz	r0, .L74
 610:.\main.c      ****         GUI_FillEllipse(SCREEN_WIDTH/2, TOP_MARGIN + 6*NOTE_SPACING, NOTE_WIDTH, NOTE_HEIGHT);
 1020              		.loc 1 610 0
 1021 01bc 7820     		movs	r0, #120
 1022 01be 4121     		movs	r1, #65
 1023 01c0 0C22     		movs	r2, #12
 1024 01c2 0823     		movs	r3, #8
 1025 01c4 FFF7FEFF 		bl	GUI_FillEllipse
 1026              	.LVL133:
 611:.\main.c      ****         GUI_DispStringAt("G4", text_x, text_y);
 1027              		.loc 1 611 0
 1028 01c8 5248     		ldr	r0, .L104+60
 1029 01ca F3E1     		b	.L102
 1030              	.L74:
 612:.\main.c      ****     } else if (strcmp(input_name, "F#4") == 0) {
 1031              		.loc 1 612 0
 1032 01cc 2046     		mov	r0, r4
 1033 01ce 5249     		ldr	r1, .L104+64
 1034 01d0 FFF7FEFF 		bl	strcmp
 1035              	.LVL134:
 1036 01d4 88B9     		cbnz	r0, .L75
 613:.\main.c      ****         GUI_FillEllipse(SCREEN_WIDTH/2, TOP_MARGIN + 7*NOTE_SPACING, NOTE_WIDTH, NOTE_HEIGHT);
 1037              		.loc 1 613 0
 1038 01d6 0823     		movs	r3, #8
 1039 01d8 7820     		movs	r0, #120
 1040 01da 4821     		movs	r1, #72
 1041 01dc 0C22     		movs	r2, #12
 1042 01de FFF7FEFF 		bl	GUI_FillEllipse
 1043              	.LVL135:
 614:.\main.c      ****         GUI_DispStringAt("F#4", text_x, text_y);
 1044              		.loc 1 614 0
 1045 01e2 7821     		movs	r1, #120
 1046 01e4 F022     		movs	r2, #240
 1047 01e6 4C48     		ldr	r0, .L104+64
 1048 01e8 FFF7FEFF 		bl	GUI_DispStringAt
 1049              	.LVL136:
 615:.\main.c      **** 
 616:.\main.c      ****         GUI_SetFont(&GUI_Font24B_ASCII);
 1050              		.loc 1 616 0
 1051 01ec 3D48     		ldr	r0, .L104+12
 1052 01ee FFF7FEFF 		bl	GUI_SetFont
 1053              	.LVL137:
 617:.\main.c      ****         GUI_DispStringAt("#", SCREEN_WIDTH/2 + 2*NOTE_WIDTH, TOP_MARGIN + 7*NOTE_SPACING);
 1054              		.loc 1 617 0
 1055 01f2 3D48     		ldr	r0, .L104+16
 1056 01f4 9021     		movs	r1, #144
 1057 01f6 4822     		movs	r2, #72
 1058 01f8 DEE1     		b	.L103
 1059              	.L75:
 618:.\main.c      ****     } else if (strcmp(input_name, "F4") == 0) {
ARM GAS  C:\Users\IVYLIU~1\AppData\Local\Temp\cc0nPDNQ.s 			page 31


 1060              		.loc 1 618 0
 1061 01fa 2046     		mov	r0, r4
 1062 01fc 4749     		ldr	r1, .L104+68
 1063 01fe FFF7FEFF 		bl	strcmp
 1064              	.LVL138:
 1065 0202 38B9     		cbnz	r0, .L76
 619:.\main.c      ****         GUI_FillEllipse(SCREEN_WIDTH/2, TOP_MARGIN + 7*NOTE_SPACING, NOTE_WIDTH, NOTE_HEIGHT);
 1066              		.loc 1 619 0
 1067 0204 7820     		movs	r0, #120
 1068 0206 4821     		movs	r1, #72
 1069 0208 0C22     		movs	r2, #12
 1070 020a 0823     		movs	r3, #8
 1071 020c FFF7FEFF 		bl	GUI_FillEllipse
 1072              	.LVL139:
 620:.\main.c      ****         GUI_DispStringAt("F4", text_x, text_y);
 1073              		.loc 1 620 0
 1074 0210 4248     		ldr	r0, .L104+68
 1075 0212 CFE1     		b	.L102
 1076              	.L76:
 621:.\main.c      ****     } else if (strcmp(input_name, "E4") == 0) {
 1077              		.loc 1 621 0
 1078 0214 2046     		mov	r0, r4
 1079 0216 4249     		ldr	r1, .L104+72
 1080 0218 FFF7FEFF 		bl	strcmp
 1081              	.LVL140:
 1082 021c 38B9     		cbnz	r0, .L77
 622:.\main.c      ****         GUI_FillEllipse(SCREEN_WIDTH/2, TOP_MARGIN + 8*NOTE_SPACING, NOTE_WIDTH, NOTE_HEIGHT);
 1083              		.loc 1 622 0
 1084 021e 7820     		movs	r0, #120
 1085 0220 5021     		movs	r1, #80
 1086 0222 0C22     		movs	r2, #12
 1087 0224 0823     		movs	r3, #8
 1088 0226 FFF7FEFF 		bl	GUI_FillEllipse
 1089              	.LVL141:
 623:.\main.c      ****         GUI_DispStringAt("E4", text_x, text_y);
 1090              		.loc 1 623 0
 1091 022a 3D48     		ldr	r0, .L104+72
 1092 022c C2E1     		b	.L102
 1093              	.L77:
 624:.\main.c      ****     } else if (strcmp(input_name, "D#4") == 0) {
 1094              		.loc 1 624 0
 1095 022e 2046     		mov	r0, r4
 1096 0230 3C49     		ldr	r1, .L104+76
 1097 0232 FFF7FEFF 		bl	strcmp
 1098              	.LVL142:
 1099 0236 88B9     		cbnz	r0, .L78
 625:.\main.c      ****         GUI_FillEllipse(SCREEN_WIDTH/2, TOP_MARGIN + 9*NOTE_SPACING, NOTE_WIDTH, NOTE_HEIGHT);
 1100              		.loc 1 625 0
 1101 0238 0823     		movs	r3, #8
 1102 023a 7820     		movs	r0, #120
 1103 023c 5721     		movs	r1, #87
 1104 023e 0C22     		movs	r2, #12
 1105 0240 FFF7FEFF 		bl	GUI_FillEllipse
 1106              	.LVL143:
 626:.\main.c      ****         GUI_DispStringAt("D#4", text_x, text_y);
 1107              		.loc 1 626 0
 1108 0244 7821     		movs	r1, #120
ARM GAS  C:\Users\IVYLIU~1\AppData\Local\Temp\cc0nPDNQ.s 			page 32


 1109 0246 F022     		movs	r2, #240
 1110 0248 3648     		ldr	r0, .L104+76
 1111 024a FFF7FEFF 		bl	GUI_DispStringAt
 1112              	.LVL144:
 627:.\main.c      **** 
 628:.\main.c      ****         GUI_SetFont(&GUI_Font24B_ASCII);
 1113              		.loc 1 628 0
 1114 024e 2548     		ldr	r0, .L104+12
 1115 0250 FFF7FEFF 		bl	GUI_SetFont
 1116              	.LVL145:
 629:.\main.c      ****         GUI_DispStringAt("#", SCREEN_WIDTH/2 + 2*NOTE_WIDTH, TOP_MARGIN + 9*NOTE_SPACING);
 1117              		.loc 1 629 0
 1118 0254 2448     		ldr	r0, .L104+16
 1119 0256 9021     		movs	r1, #144
 1120 0258 5722     		movs	r2, #87
 1121 025a ADE1     		b	.L103
 1122              	.L78:
 630:.\main.c      ****     } else if (strcmp(input_name, "D4") == 0) {
 1123              		.loc 1 630 0
 1124 025c 2046     		mov	r0, r4
 1125 025e 3249     		ldr	r1, .L104+80
 1126 0260 FFF7FEFF 		bl	strcmp
 1127              	.LVL146:
 1128 0264 38B9     		cbnz	r0, .L79
 631:.\main.c      ****         GUI_FillEllipse(SCREEN_WIDTH/2, TOP_MARGIN + 9*NOTE_SPACING, NOTE_WIDTH, NOTE_HEIGHT);
 1129              		.loc 1 631 0
 1130 0266 7820     		movs	r0, #120
 1131 0268 5721     		movs	r1, #87
 1132 026a 0C22     		movs	r2, #12
 1133 026c 0823     		movs	r3, #8
 1134 026e FFF7FEFF 		bl	GUI_FillEllipse
 1135              	.LVL147:
 632:.\main.c      ****         GUI_DispStringAt("D4", text_x, text_y);
 1136              		.loc 1 632 0
 1137 0272 2D48     		ldr	r0, .L104+80
 1138 0274 9EE1     		b	.L102
 1139              	.L79:
 633:.\main.c      ****     } else if (strcmp(input_name, "C#4") == 0) {
 1140              		.loc 1 633 0
 1141 0276 2046     		mov	r0, r4
 1142 0278 2C49     		ldr	r1, .L104+84
 1143 027a FFF7FEFF 		bl	strcmp
 1144              	.LVL148:
 1145 027e 88B9     		cbnz	r0, .L80
 634:.\main.c      ****         GUI_FillEllipse(SCREEN_WIDTH/2, TOP_MARGIN + 10*NOTE_SPACING, NOTE_WIDTH, NOTE_HEIGHT);
 1146              		.loc 1 634 0
 1147 0280 0823     		movs	r3, #8
 1148 0282 7820     		movs	r0, #120
 1149 0284 5F21     		movs	r1, #95
 1150 0286 0C22     		movs	r2, #12
 1151 0288 FFF7FEFF 		bl	GUI_FillEllipse
 1152              	.LVL149:
 635:.\main.c      ****         GUI_DispStringAt("C#4", text_x, text_y);
 1153              		.loc 1 635 0
 1154 028c 7821     		movs	r1, #120
 1155 028e F022     		movs	r2, #240
 1156 0290 2648     		ldr	r0, .L104+84
ARM GAS  C:\Users\IVYLIU~1\AppData\Local\Temp\cc0nPDNQ.s 			page 33


 1157 0292 FFF7FEFF 		bl	GUI_DispStringAt
 1158              	.LVL150:
 636:.\main.c      **** 
 637:.\main.c      ****         GUI_SetFont(&GUI_Font24B_ASCII);
 1159              		.loc 1 637 0
 1160 0296 1348     		ldr	r0, .L104+12
 1161 0298 FFF7FEFF 		bl	GUI_SetFont
 1162              	.LVL151:
 638:.\main.c      ****         GUI_DispStringAt("#", SCREEN_WIDTH/2 + 2*NOTE_WIDTH, TOP_MARGIN + 10*NOTE_SPACING);
 1163              		.loc 1 638 0
 1164 029c 1248     		ldr	r0, .L104+16
 1165 029e 9021     		movs	r1, #144
 1166 02a0 5F22     		movs	r2, #95
 1167 02a2 89E1     		b	.L103
 1168              	.L80:
 639:.\main.c      ****     } else if (strcmp(input_name, "C4") == 0) { //Middle C
 1169              		.loc 1 639 0
 1170 02a4 2046     		mov	r0, r4
 1171 02a6 2249     		ldr	r1, .L104+88
 1172 02a8 FFF7FEFF 		bl	strcmp
 1173              	.LVL152:
 1174 02ac 38B9     		cbnz	r0, .L81
 640:.\main.c      ****         GUI_FillEllipse(SCREEN_WIDTH/2, TOP_MARGIN + 10*NOTE_HEIGHT, NOTE_WIDTH, NOTE_HEIGHT);
 1175              		.loc 1 640 0
 1176 02ae 7820     		movs	r0, #120
 1177 02b0 6421     		movs	r1, #100
 1178 02b2 0C22     		movs	r2, #12
 1179 02b4 0823     		movs	r3, #8
 1180 02b6 FFF7FEFF 		bl	GUI_FillEllipse
 1181              	.LVL153:
 641:.\main.c      ****         GUI_DispStringAt("C4", text_x, text_y);
 1182              		.loc 1 641 0
 1183 02ba 1D48     		ldr	r0, .L104+88
 1184 02bc 7AE1     		b	.L102
 1185              	.L81:
 642:.\main.c      ****     } else if (strcmp(input_name, "B3") == 0) {
 1186              		.loc 1 642 0
 1187 02be 2046     		mov	r0, r4
 1188 02c0 1C49     		ldr	r1, .L104+92
 1189 02c2 FFF7FEFF 		bl	strcmp
 1190              	.LVL154:
 1191 02c6 B8BB     		cbnz	r0, .L82
 643:.\main.c      ****         GUI_FillEllipse(SCREEN_WIDTH/2, LOWER_OFFSET - NOTE_SPACING, NOTE_WIDTH, NOTE_HEIGHT);
 1192              		.loc 1 643 0
 1193 02c8 7820     		movs	r0, #120
 1194 02ca 7121     		movs	r1, #113
 1195 02cc 0C22     		movs	r2, #12
 1196 02ce 0823     		movs	r3, #8
 1197 02d0 FFF7FEFF 		bl	GUI_FillEllipse
 1198              	.LVL155:
 644:.\main.c      ****         GUI_DispStringAt("B3", text_x, text_y);
 1199              		.loc 1 644 0
 1200 02d4 1748     		ldr	r0, .L104+92
 1201 02d6 6DE1     		b	.L102
 1202              	.L105:
 1203              		.align	2
 1204              	.L104:
ARM GAS  C:\Users\IVYLIU~1\AppData\Local\Temp\cc0nPDNQ.s 			page 34


 1205 02d8 00000000 		.word	GUI_Font32B_ASCII
 1206 02dc EA000000 		.word	.LC9
 1207 02e0 ED000000 		.word	.LC10
 1208 02e4 00000000 		.word	GUI_Font24B_ASCII
 1209 02e8 F1000000 		.word	.LC11
 1210 02ec F3000000 		.word	.LC12
 1211 02f0 F6000000 		.word	.LC13
 1212 02f4 F9000000 		.word	.LC14
 1213 02f8 FD000000 		.word	.LC15
 1214 02fc 00010000 		.word	.LC16
 1215 0300 04010000 		.word	.LC17
 1216 0304 07010000 		.word	.LC18
 1217 0308 0A010000 		.word	.LC19
 1218 030c 0E010000 		.word	.LC20
 1219 0310 11010000 		.word	.LC21
 1220 0314 15010000 		.word	.LC22
 1221 0318 18010000 		.word	.LC23
 1222 031c 1C010000 		.word	.LC24
 1223 0320 1F010000 		.word	.LC25
 1224 0324 22010000 		.word	.LC26
 1225 0328 26010000 		.word	.LC27
 1226 032c 29010000 		.word	.LC28
 1227 0330 2D010000 		.word	.LC29
 1228 0334 30010000 		.word	.LC30
 1229              	.L82:
 645:.\main.c      ****     } else if (strcmp(input_name, "A#3") == 0) {
 1230              		.loc 1 645 0
 1231 0338 2046     		mov	r0, r4
 1232 033a A149     		ldr	r1, .L106
 1233 033c FFF7FEFF 		bl	strcmp
 1234              	.LVL156:
 1235 0340 88B9     		cbnz	r0, .L83
 646:.\main.c      ****         GUI_FillEllipse(SCREEN_WIDTH/2, LOWER_OFFSET, NOTE_WIDTH, NOTE_HEIGHT);
 1236              		.loc 1 646 0
 1237 0342 7820     		movs	r0, #120
 1238 0344 0146     		mov	r1, r0
 1239 0346 0823     		movs	r3, #8
 1240 0348 0C22     		movs	r2, #12
 1241 034a FFF7FEFF 		bl	GUI_FillEllipse
 1242              	.LVL157:
 647:.\main.c      ****         GUI_DispStringAt("A#3", text_x, text_y);
 1243              		.loc 1 647 0
 1244 034e 7821     		movs	r1, #120
 1245 0350 F022     		movs	r2, #240
 1246 0352 9B48     		ldr	r0, .L106
 1247 0354 FFF7FEFF 		bl	GUI_DispStringAt
 1248              	.LVL158:
 648:.\main.c      **** 
 649:.\main.c      ****         GUI_SetFont(&GUI_Font24B_ASCII);
 1249              		.loc 1 649 0
 1250 0358 9A48     		ldr	r0, .L106+4
 1251 035a FFF7FEFF 		bl	GUI_SetFont
 1252              	.LVL159:
 650:.\main.c      ****         GUI_DispStringAt("#", SCREEN_WIDTH/2 + 2*NOTE_WIDTH, LOWER_OFFSET);
 1253              		.loc 1 650 0
 1254 035e 9A48     		ldr	r0, .L106+8
 1255 0360 9021     		movs	r1, #144
ARM GAS  C:\Users\IVYLIU~1\AppData\Local\Temp\cc0nPDNQ.s 			page 35


 1256 0362 7822     		movs	r2, #120
 1257 0364 28E1     		b	.L103
 1258              	.L83:
 651:.\main.c      ****     } else if (strcmp(input_name, "A3") == 0) {
 1259              		.loc 1 651 0
 1260 0366 2046     		mov	r0, r4
 1261 0368 9849     		ldr	r1, .L106+12
 1262 036a FFF7FEFF 		bl	strcmp
 1263              	.LVL160:
 1264 036e 38B9     		cbnz	r0, .L84
 652:.\main.c      ****         GUI_FillEllipse(SCREEN_WIDTH/2, LOWER_OFFSET, NOTE_WIDTH, NOTE_HEIGHT);
 1265              		.loc 1 652 0
 1266 0370 7820     		movs	r0, #120
 1267 0372 0146     		mov	r1, r0
 1268 0374 0C22     		movs	r2, #12
 1269 0376 0823     		movs	r3, #8
 1270 0378 FFF7FEFF 		bl	GUI_FillEllipse
 1271              	.LVL161:
 653:.\main.c      ****         GUI_DispStringAt("A3", text_x, text_y);
 1272              		.loc 1 653 0
 1273 037c 9348     		ldr	r0, .L106+12
 1274 037e 19E1     		b	.L102
 1275              	.L84:
 654:.\main.c      ****     } else if (strcmp(input_name, "G#3") == 0) {
 1276              		.loc 1 654 0
 1277 0380 2046     		mov	r0, r4
 1278 0382 9349     		ldr	r1, .L106+16
 1279 0384 FFF7FEFF 		bl	strcmp
 1280              	.LVL162:
 1281 0388 88B9     		cbnz	r0, .L85
 655:.\main.c      ****         GUI_FillEllipse(SCREEN_WIDTH/2, LOWER_OFFSET + NOTE_SPACING, NOTE_WIDTH, NOTE_HEIGHT);
 1282              		.loc 1 655 0
 1283 038a 0823     		movs	r3, #8
 1284 038c 7820     		movs	r0, #120
 1285 038e 7F21     		movs	r1, #127
 1286 0390 0C22     		movs	r2, #12
 1287 0392 FFF7FEFF 		bl	GUI_FillEllipse
 1288              	.LVL163:
 656:.\main.c      ****         GUI_DispStringAt("G#3", text_x, text_y);
 1289              		.loc 1 656 0
 1290 0396 7821     		movs	r1, #120
 1291 0398 F022     		movs	r2, #240
 1292 039a 8D48     		ldr	r0, .L106+16
 1293 039c FFF7FEFF 		bl	GUI_DispStringAt
 1294              	.LVL164:
 657:.\main.c      **** 
 658:.\main.c      ****         GUI_SetFont(&GUI_Font24B_ASCII);
 1295              		.loc 1 658 0
 1296 03a0 8848     		ldr	r0, .L106+4
 1297 03a2 FFF7FEFF 		bl	GUI_SetFont
 1298              	.LVL165:
 659:.\main.c      ****         GUI_DispStringAt("#", SCREEN_WIDTH/2 + 2*NOTE_WIDTH, LOWER_OFFSET + NOTE_SPACING);
 1299              		.loc 1 659 0
 1300 03a6 8848     		ldr	r0, .L106+8
 1301 03a8 9021     		movs	r1, #144
 1302 03aa 7F22     		movs	r2, #127
 1303 03ac 04E1     		b	.L103
ARM GAS  C:\Users\IVYLIU~1\AppData\Local\Temp\cc0nPDNQ.s 			page 36


 1304              	.L85:
 660:.\main.c      ****     } else if (strcmp(input_name, "G3") == 0) {
 1305              		.loc 1 660 0
 1306 03ae 2046     		mov	r0, r4
 1307 03b0 8849     		ldr	r1, .L106+20
 1308 03b2 FFF7FEFF 		bl	strcmp
 1309              	.LVL166:
 1310 03b6 38B9     		cbnz	r0, .L86
 661:.\main.c      ****         GUI_FillEllipse(SCREEN_WIDTH/2, LOWER_OFFSET + NOTE_SPACING, NOTE_WIDTH, NOTE_HEIGHT);
 1311              		.loc 1 661 0
 1312 03b8 7820     		movs	r0, #120
 1313 03ba 7F21     		movs	r1, #127
 1314 03bc 0C22     		movs	r2, #12
 1315 03be 0823     		movs	r3, #8
 1316 03c0 FFF7FEFF 		bl	GUI_FillEllipse
 1317              	.LVL167:
 662:.\main.c      ****         GUI_DispStringAt("G3", text_x, text_y);
 1318              		.loc 1 662 0
 1319 03c4 8348     		ldr	r0, .L106+20
 1320 03c6 F5E0     		b	.L102
 1321              	.L86:
 663:.\main.c      ****     } else if (strcmp(input_name, "F#3") == 0) {
 1322              		.loc 1 663 0
 1323 03c8 2046     		mov	r0, r4
 1324 03ca 8349     		ldr	r1, .L106+24
 1325 03cc FFF7FEFF 		bl	strcmp
 1326              	.LVL168:
 1327 03d0 88B9     		cbnz	r0, .L87
 664:.\main.c      ****         GUI_FillEllipse(SCREEN_WIDTH/2, LOWER_OFFSET + 2*NOTE_SPACING, NOTE_WIDTH, NOTE_HEIGHT);
 1328              		.loc 1 664 0
 1329 03d2 0823     		movs	r3, #8
 1330 03d4 7820     		movs	r0, #120
 1331 03d6 8721     		movs	r1, #135
 1332 03d8 0C22     		movs	r2, #12
 1333 03da FFF7FEFF 		bl	GUI_FillEllipse
 1334              	.LVL169:
 665:.\main.c      ****         GUI_DispStringAt("F#3", text_x, text_y);
 1335              		.loc 1 665 0
 1336 03de 7821     		movs	r1, #120
 1337 03e0 F022     		movs	r2, #240
 1338 03e2 7D48     		ldr	r0, .L106+24
 1339 03e4 FFF7FEFF 		bl	GUI_DispStringAt
 1340              	.LVL170:
 666:.\main.c      **** 
 667:.\main.c      ****         GUI_SetFont(&GUI_Font24B_ASCII);
 1341              		.loc 1 667 0
 1342 03e8 7648     		ldr	r0, .L106+4
 1343 03ea FFF7FEFF 		bl	GUI_SetFont
 1344              	.LVL171:
 668:.\main.c      ****         GUI_DispStringAt("#", SCREEN_WIDTH/2 + 2*NOTE_WIDTH, LOWER_OFFSET + 2*NOTE_SPACING);
 1345              		.loc 1 668 0
 1346 03ee 7648     		ldr	r0, .L106+8
 1347 03f0 9021     		movs	r1, #144
 1348 03f2 8722     		movs	r2, #135
 1349 03f4 E0E0     		b	.L103
 1350              	.L87:
 669:.\main.c      ****     } else if (strcmp(input_name, "F3") == 0) {
ARM GAS  C:\Users\IVYLIU~1\AppData\Local\Temp\cc0nPDNQ.s 			page 37


 1351              		.loc 1 669 0
 1352 03f6 2046     		mov	r0, r4
 1353 03f8 7849     		ldr	r1, .L106+28
 1354 03fa FFF7FEFF 		bl	strcmp
 1355              	.LVL172:
 1356 03fe 38B9     		cbnz	r0, .L88
 670:.\main.c      ****         GUI_FillEllipse(SCREEN_WIDTH/2, LOWER_OFFSET + 2*NOTE_SPACING, NOTE_WIDTH, NOTE_HEIGHT);
 1357              		.loc 1 670 0
 1358 0400 7820     		movs	r0, #120
 1359 0402 8721     		movs	r1, #135
 1360 0404 0C22     		movs	r2, #12
 1361 0406 0823     		movs	r3, #8
 1362 0408 FFF7FEFF 		bl	GUI_FillEllipse
 1363              	.LVL173:
 671:.\main.c      ****         GUI_DispStringAt("F3", text_x, text_y);
 1364              		.loc 1 671 0
 1365 040c 7348     		ldr	r0, .L106+28
 1366 040e D1E0     		b	.L102
 1367              	.L88:
 672:.\main.c      ****     } else if (strcmp(input_name, "E3") == 0) {
 1368              		.loc 1 672 0
 1369 0410 2046     		mov	r0, r4
 1370 0412 7349     		ldr	r1, .L106+32
 1371 0414 FFF7FEFF 		bl	strcmp
 1372              	.LVL174:
 1373 0418 38B9     		cbnz	r0, .L89
 673:.\main.c      ****         GUI_FillEllipse(SCREEN_WIDTH/2, LOWER_OFFSET + 3*NOTE_SPACING, NOTE_WIDTH, NOTE_HEIGHT);
 1374              		.loc 1 673 0
 1375 041a 7820     		movs	r0, #120
 1376 041c 8E21     		movs	r1, #142
 1377 041e 0C22     		movs	r2, #12
 1378 0420 0823     		movs	r3, #8
 1379 0422 FFF7FEFF 		bl	GUI_FillEllipse
 1380              	.LVL175:
 674:.\main.c      ****         GUI_DispStringAt("E3", text_x, text_y);
 1381              		.loc 1 674 0
 1382 0426 6E48     		ldr	r0, .L106+32
 1383 0428 C4E0     		b	.L102
 1384              	.L89:
 675:.\main.c      ****     } else if (strcmp(input_name, "D#3") == 0) {
 1385              		.loc 1 675 0
 1386 042a 2046     		mov	r0, r4
 1387 042c 6D49     		ldr	r1, .L106+36
 1388 042e FFF7FEFF 		bl	strcmp
 1389              	.LVL176:
 1390 0432 88B9     		cbnz	r0, .L90
 676:.\main.c      ****         GUI_FillEllipse(SCREEN_WIDTH/2, LOWER_OFFSET + 4*NOTE_SPACING, NOTE_WIDTH, NOTE_HEIGHT);
 1391              		.loc 1 676 0
 1392 0434 0823     		movs	r3, #8
 1393 0436 7820     		movs	r0, #120
 1394 0438 9621     		movs	r1, #150
 1395 043a 0C22     		movs	r2, #12
 1396 043c FFF7FEFF 		bl	GUI_FillEllipse
 1397              	.LVL177:
 677:.\main.c      ****         GUI_DispStringAt("D#3", text_x, text_y);
 1398              		.loc 1 677 0
 1399 0440 7821     		movs	r1, #120
ARM GAS  C:\Users\IVYLIU~1\AppData\Local\Temp\cc0nPDNQ.s 			page 38


 1400 0442 F022     		movs	r2, #240
 1401 0444 6748     		ldr	r0, .L106+36
 1402 0446 FFF7FEFF 		bl	GUI_DispStringAt
 1403              	.LVL178:
 678:.\main.c      **** 
 679:.\main.c      ****         GUI_SetFont(&GUI_Font24B_ASCII);
 1404              		.loc 1 679 0
 1405 044a 5E48     		ldr	r0, .L106+4
 1406 044c FFF7FEFF 		bl	GUI_SetFont
 1407              	.LVL179:
 680:.\main.c      ****         GUI_DispStringAt("#", SCREEN_WIDTH/2 + 2*NOTE_WIDTH, LOWER_OFFSET + 4*NOTE_SPACING);
 1408              		.loc 1 680 0
 1409 0450 5D48     		ldr	r0, .L106+8
 1410 0452 9021     		movs	r1, #144
 1411 0454 9622     		movs	r2, #150
 1412 0456 AFE0     		b	.L103
 1413              	.L90:
 681:.\main.c      ****     } else if (strcmp(input_name, "D3") == 0) {
 1414              		.loc 1 681 0
 1415 0458 2046     		mov	r0, r4
 1416 045a 6349     		ldr	r1, .L106+40
 1417 045c FFF7FEFF 		bl	strcmp
 1418              	.LVL180:
 1419 0460 38B9     		cbnz	r0, .L91
 682:.\main.c      ****         GUI_FillEllipse(SCREEN_WIDTH/2, LOWER_OFFSET + 4*NOTE_SPACING, NOTE_WIDTH, NOTE_HEIGHT);
 1420              		.loc 1 682 0
 1421 0462 7820     		movs	r0, #120
 1422 0464 9621     		movs	r1, #150
 1423 0466 0C22     		movs	r2, #12
 1424 0468 0823     		movs	r3, #8
 1425 046a FFF7FEFF 		bl	GUI_FillEllipse
 1426              	.LVL181:
 683:.\main.c      ****         GUI_DispStringAt("D3", text_x, text_y);
 1427              		.loc 1 683 0
 1428 046e 5E48     		ldr	r0, .L106+40
 1429 0470 A0E0     		b	.L102
 1430              	.L91:
 684:.\main.c      ****     } else if (strcmp(input_name, "C#3") == 0) {
 1431              		.loc 1 684 0
 1432 0472 2046     		mov	r0, r4
 1433 0474 5D49     		ldr	r1, .L106+44
 1434 0476 FFF7FEFF 		bl	strcmp
 1435              	.LVL182:
 1436 047a 88B9     		cbnz	r0, .L92
 685:.\main.c      ****         GUI_FillEllipse(SCREEN_WIDTH/2, LOWER_OFFSET + 5*NOTE_SPACING, NOTE_WIDTH, NOTE_HEIGHT);
 1437              		.loc 1 685 0
 1438 047c 0823     		movs	r3, #8
 1439 047e 7820     		movs	r0, #120
 1440 0480 9D21     		movs	r1, #157
 1441 0482 0C22     		movs	r2, #12
 1442 0484 FFF7FEFF 		bl	GUI_FillEllipse
 1443              	.LVL183:
 686:.\main.c      ****         GUI_DispStringAt("C#3", text_x, text_y);
 1444              		.loc 1 686 0
 1445 0488 7821     		movs	r1, #120
 1446 048a F022     		movs	r2, #240
 1447 048c 5748     		ldr	r0, .L106+44
ARM GAS  C:\Users\IVYLIU~1\AppData\Local\Temp\cc0nPDNQ.s 			page 39


 1448 048e FFF7FEFF 		bl	GUI_DispStringAt
 1449              	.LVL184:
 687:.\main.c      **** 
 688:.\main.c      ****         GUI_SetFont(&GUI_Font24B_ASCII);
 1450              		.loc 1 688 0
 1451 0492 4C48     		ldr	r0, .L106+4
 1452 0494 FFF7FEFF 		bl	GUI_SetFont
 1453              	.LVL185:
 689:.\main.c      ****         GUI_DispStringAt("#", SCREEN_WIDTH/2 + 2*NOTE_WIDTH, LOWER_OFFSET + 5*NOTE_SPACING);
 1454              		.loc 1 689 0
 1455 0498 4B48     		ldr	r0, .L106+8
 1456 049a 9021     		movs	r1, #144
 1457 049c 9D22     		movs	r2, #157
 1458 049e 8BE0     		b	.L103
 1459              	.L92:
 690:.\main.c      ****     } else if (strcmp(input_name, "C3") == 0) {
 1460              		.loc 1 690 0
 1461 04a0 2046     		mov	r0, r4
 1462 04a2 5349     		ldr	r1, .L106+48
 1463 04a4 FFF7FEFF 		bl	strcmp
 1464              	.LVL186:
 1465 04a8 38B9     		cbnz	r0, .L93
 691:.\main.c      ****         GUI_FillEllipse(SCREEN_WIDTH/2, LOWER_OFFSET + 5*NOTE_SPACING, NOTE_WIDTH, NOTE_HEIGHT);
 1466              		.loc 1 691 0
 1467 04aa 7820     		movs	r0, #120
 1468 04ac 9D21     		movs	r1, #157
 1469 04ae 0C22     		movs	r2, #12
 1470 04b0 0823     		movs	r3, #8
 1471 04b2 FFF7FEFF 		bl	GUI_FillEllipse
 1472              	.LVL187:
 692:.\main.c      ****         GUI_DispStringAt("C3", text_x, text_y);
 1473              		.loc 1 692 0
 1474 04b6 4E48     		ldr	r0, .L106+48
 1475 04b8 7CE0     		b	.L102
 1476              	.L93:
 693:.\main.c      ****     } else if (strcmp(input_name, "B2") == 0) {
 1477              		.loc 1 693 0
 1478 04ba 2046     		mov	r0, r4
 1479 04bc 4D49     		ldr	r1, .L106+52
 1480 04be FFF7FEFF 		bl	strcmp
 1481              	.LVL188:
 1482 04c2 38B9     		cbnz	r0, .L94
 694:.\main.c      ****         GUI_FillEllipse(SCREEN_WIDTH/2, LOWER_OFFSET + 6*NOTE_SPACING, NOTE_WIDTH, NOTE_HEIGHT);
 1483              		.loc 1 694 0
 1484 04c4 7820     		movs	r0, #120
 1485 04c6 A521     		movs	r1, #165
 1486 04c8 0C22     		movs	r2, #12
 1487 04ca 0823     		movs	r3, #8
 1488 04cc FFF7FEFF 		bl	GUI_FillEllipse
 1489              	.LVL189:
 695:.\main.c      ****         GUI_DispStringAt("B2", text_x, text_y);
 1490              		.loc 1 695 0
 1491 04d0 4848     		ldr	r0, .L106+52
 1492 04d2 6FE0     		b	.L102
 1493              	.L94:
 696:.\main.c      ****     } else if (strcmp(input_name, "A#2") == 0) {
 1494              		.loc 1 696 0
ARM GAS  C:\Users\IVYLIU~1\AppData\Local\Temp\cc0nPDNQ.s 			page 40


 1495 04d4 2046     		mov	r0, r4
 1496 04d6 4849     		ldr	r1, .L106+56
 1497 04d8 FFF7FEFF 		bl	strcmp
 1498              	.LVL190:
 1499 04dc 88B9     		cbnz	r0, .L95
 697:.\main.c      ****         GUI_FillEllipse(SCREEN_WIDTH/2, LOWER_OFFSET + 7*NOTE_SPACING, NOTE_WIDTH, NOTE_HEIGHT);
 1500              		.loc 1 697 0
 1501 04de 0823     		movs	r3, #8
 1502 04e0 7820     		movs	r0, #120
 1503 04e2 AC21     		movs	r1, #172
 1504 04e4 0C22     		movs	r2, #12
 1505 04e6 FFF7FEFF 		bl	GUI_FillEllipse
 1506              	.LVL191:
 698:.\main.c      ****         GUI_DispStringAt("A#2", text_x, text_y);
 1507              		.loc 1 698 0
 1508 04ea 7821     		movs	r1, #120
 1509 04ec F022     		movs	r2, #240
 1510 04ee 4248     		ldr	r0, .L106+56
 1511 04f0 FFF7FEFF 		bl	GUI_DispStringAt
 1512              	.LVL192:
 699:.\main.c      **** 
 700:.\main.c      ****         GUI_SetFont(&GUI_Font24B_ASCII);
 1513              		.loc 1 700 0
 1514 04f4 3348     		ldr	r0, .L106+4
 1515 04f6 FFF7FEFF 		bl	GUI_SetFont
 1516              	.LVL193:
 701:.\main.c      ****         GUI_DispStringAt("#", SCREEN_WIDTH/2 + 2*NOTE_WIDTH, LOWER_OFFSET + 7*NOTE_SPACING);
 1517              		.loc 1 701 0
 1518 04fa 3348     		ldr	r0, .L106+8
 1519 04fc 9021     		movs	r1, #144
 1520 04fe AC22     		movs	r2, #172
 1521 0500 5AE0     		b	.L103
 1522              	.L95:
 702:.\main.c      ****     } else if (strcmp(input_name, "A2") == 0) {
 1523              		.loc 1 702 0
 1524 0502 2046     		mov	r0, r4
 1525 0504 3D49     		ldr	r1, .L106+60
 1526 0506 FFF7FEFF 		bl	strcmp
 1527              	.LVL194:
 1528 050a 38B9     		cbnz	r0, .L96
 703:.\main.c      ****         GUI_FillEllipse(SCREEN_WIDTH/2, LOWER_OFFSET + 7*NOTE_SPACING, NOTE_WIDTH, NOTE_HEIGHT);
 1529              		.loc 1 703 0
 1530 050c 7820     		movs	r0, #120
 1531 050e AC21     		movs	r1, #172
 1532 0510 0C22     		movs	r2, #12
 1533 0512 0823     		movs	r3, #8
 1534 0514 FFF7FEFF 		bl	GUI_FillEllipse
 1535              	.LVL195:
 704:.\main.c      ****         GUI_DispStringAt("A2", text_x, text_y);
 1536              		.loc 1 704 0
 1537 0518 3848     		ldr	r0, .L106+60
 1538 051a 4BE0     		b	.L102
 1539              	.L96:
 705:.\main.c      ****     } else if (strcmp(input_name, "G#2") == 0) {
 1540              		.loc 1 705 0
 1541 051c 2046     		mov	r0, r4
 1542 051e 3849     		ldr	r1, .L106+64
ARM GAS  C:\Users\IVYLIU~1\AppData\Local\Temp\cc0nPDNQ.s 			page 41


 1543 0520 FFF7FEFF 		bl	strcmp
 1544              	.LVL196:
 1545 0524 38B9     		cbnz	r0, .L97
 706:.\main.c      ****         GUI_FillEllipse(SCREEN_WIDTH/2, LOWER_OFFSET + 8*NOTE_SPACING, NOTE_WIDTH, NOTE_HEIGHT);
 1546              		.loc 1 706 0
 1547 0526 7820     		movs	r0, #120
 1548 0528 B421     		movs	r1, #180
 1549 052a 0C22     		movs	r2, #12
 1550 052c 0823     		movs	r3, #8
 1551 052e FFF7FEFF 		bl	GUI_FillEllipse
 1552              	.LVL197:
 707:.\main.c      ****         GUI_DispStringAt("G#2", text_x, text_y);
 1553              		.loc 1 707 0
 1554 0532 3348     		ldr	r0, .L106+64
 1555 0534 3EE0     		b	.L102
 1556              	.L97:
 708:.\main.c      ****     } else if (strcmp(input_name, "G2") == 0) {
 1557              		.loc 1 708 0
 1558 0536 2046     		mov	r0, r4
 1559 0538 3249     		ldr	r1, .L106+68
 1560 053a FFF7FEFF 		bl	strcmp
 1561              	.LVL198:
 1562 053e 38B9     		cbnz	r0, .L98
 709:.\main.c      ****         GUI_FillEllipse(SCREEN_WIDTH/2, LOWER_OFFSET + 8*NOTE_SPACING, NOTE_WIDTH, NOTE_HEIGHT);
 1563              		.loc 1 709 0
 1564 0540 7820     		movs	r0, #120
 1565 0542 B421     		movs	r1, #180
 1566 0544 0C22     		movs	r2, #12
 1567 0546 0823     		movs	r3, #8
 1568 0548 FFF7FEFF 		bl	GUI_FillEllipse
 1569              	.LVL199:
 710:.\main.c      ****         GUI_DispStringAt("G2", text_x, text_y);
 1570              		.loc 1 710 0
 1571 054c 2D48     		ldr	r0, .L106+68
 1572 054e 31E0     		b	.L102
 1573              	.L98:
 711:.\main.c      ****     } else if (strcmp(input_name, "F#2") == 0) {
 1574              		.loc 1 711 0
 1575 0550 2046     		mov	r0, r4
 1576 0552 2D49     		ldr	r1, .L106+72
 1577 0554 FFF7FEFF 		bl	strcmp
 1578              	.LVL200:
 1579 0558 88B9     		cbnz	r0, .L99
 712:.\main.c      ****         GUI_FillEllipse(SCREEN_WIDTH/2, LOWER_OFFSET + 9*NOTE_SPACING, NOTE_WIDTH, NOTE_HEIGHT);
 1580              		.loc 1 712 0
 1581 055a 0823     		movs	r3, #8
 1582 055c 7820     		movs	r0, #120
 1583 055e BB21     		movs	r1, #187
 1584 0560 0C22     		movs	r2, #12
 1585 0562 FFF7FEFF 		bl	GUI_FillEllipse
 1586              	.LVL201:
 713:.\main.c      ****         GUI_DispStringAt("F#2", text_x, text_y);
 1587              		.loc 1 713 0
 1588 0566 7821     		movs	r1, #120
 1589 0568 F022     		movs	r2, #240
 1590 056a 2748     		ldr	r0, .L106+72
 1591 056c FFF7FEFF 		bl	GUI_DispStringAt
ARM GAS  C:\Users\IVYLIU~1\AppData\Local\Temp\cc0nPDNQ.s 			page 42


 1592              	.LVL202:
 714:.\main.c      **** 
 715:.\main.c      ****         GUI_SetFont(&GUI_Font24B_ASCII);
 1593              		.loc 1 715 0
 1594 0570 1448     		ldr	r0, .L106+4
 1595 0572 FFF7FEFF 		bl	GUI_SetFont
 1596              	.LVL203:
 716:.\main.c      ****         GUI_DispStringAt("#", SCREEN_WIDTH/2 + 2*NOTE_WIDTH, LOWER_OFFSET + 9*NOTE_SPACING);
 1597              		.loc 1 716 0
 1598 0576 1448     		ldr	r0, .L106+8
 1599 0578 9021     		movs	r1, #144
 1600 057a BB22     		movs	r2, #187
 1601 057c 1CE0     		b	.L103
 1602              	.L99:
 717:.\main.c      ****     } else if (strcmp(input_name, "F2") == 0) {
 1603              		.loc 1 717 0
 1604 057e 2046     		mov	r0, r4
 1605 0580 2249     		ldr	r1, .L106+76
 1606 0582 FFF7FEFF 		bl	strcmp
 1607              	.LVL204:
 1608 0586 38B9     		cbnz	r0, .L100
 718:.\main.c      ****         GUI_FillEllipse(SCREEN_WIDTH/2, LOWER_OFFSET + 9*NOTE_SPACING, NOTE_WIDTH, NOTE_HEIGHT);
 1609              		.loc 1 718 0
 1610 0588 7820     		movs	r0, #120
 1611 058a BB21     		movs	r1, #187
 1612 058c 0C22     		movs	r2, #12
 1613 058e 0823     		movs	r3, #8
 1614 0590 FFF7FEFF 		bl	GUI_FillEllipse
 1615              	.LVL205:
 719:.\main.c      ****         GUI_DispStringAt("F2", text_x, text_y);
 1616              		.loc 1 719 0
 1617 0594 1D48     		ldr	r0, .L106+76
 1618 0596 0DE0     		b	.L102
 1619              	.L100:
 720:.\main.c      ****     } else if (strcmp(input_name, "E2") == 0) {
 1620              		.loc 1 720 0
 1621 0598 2046     		mov	r0, r4
 1622 059a 1D49     		ldr	r1, .L106+80
 1623 059c FFF7FEFF 		bl	strcmp
 1624              	.LVL206:
 1625 05a0 38B9     		cbnz	r0, .L101
 721:.\main.c      ****         GUI_FillEllipse(SCREEN_WIDTH/2, LOWER_OFFSET + 10*NOTE_SPACING, NOTE_WIDTH, NOTE_HEIGHT);
 1626              		.loc 1 721 0
 1627 05a2 7820     		movs	r0, #120
 1628 05a4 C321     		movs	r1, #195
 1629 05a6 0C22     		movs	r2, #12
 1630 05a8 0823     		movs	r3, #8
 1631 05aa FFF7FEFF 		bl	GUI_FillEllipse
 1632              	.LVL207:
 722:.\main.c      ****         GUI_DispStringAt("E2", text_x, text_y);
 1633              		.loc 1 722 0
 1634 05ae 1848     		ldr	r0, .L106+80
 1635 05b0 00E0     		b	.L102
 1636              	.L101:
 723:.\main.c      ****     } else {
 724:.\main.c      ****         GUI_DispStringAt("Invalid!", text_x, text_y);
 1637              		.loc 1 724 0
ARM GAS  C:\Users\IVYLIU~1\AppData\Local\Temp\cc0nPDNQ.s 			page 43


 1638 05b2 1848     		ldr	r0, .L106+84
 1639              	.L102:
 1640 05b4 7821     		movs	r1, #120
 1641 05b6 F022     		movs	r2, #240
 1642              	.L103:
 725:.\main.c      ****     }
 726:.\main.c      **** }
 1643              		.loc 1 726 0
 1644 05b8 BDE81040 		pop	{r4, lr}
 1645              		.cfi_restore 14
 1646              		.cfi_restore 4
 1647              		.cfi_def_cfa_offset 0
 1648              	.LVL208:
 724:.\main.c      ****     }
 1649              		.loc 1 724 0
 1650 05bc FFF7FEBF 		b	GUI_DispStringAt
 1651              	.LVL209:
 1652              	.L107:
 1653              		.align	2
 1654              	.L106:
 1655 05c0 33010000 		.word	.LC31
 1656 05c4 00000000 		.word	GUI_Font24B_ASCII
 1657 05c8 F1000000 		.word	.LC11
 1658 05cc 37010000 		.word	.LC32
 1659 05d0 3A010000 		.word	.LC33
 1660 05d4 3E010000 		.word	.LC34
 1661 05d8 41010000 		.word	.LC35
 1662 05dc 45010000 		.word	.LC36
 1663 05e0 48010000 		.word	.LC37
 1664 05e4 4B010000 		.word	.LC38
 1665 05e8 4F010000 		.word	.LC39
 1666 05ec 52010000 		.word	.LC40
 1667 05f0 56010000 		.word	.LC41
 1668 05f4 59010000 		.word	.LC42
 1669 05f8 5C010000 		.word	.LC43
 1670 05fc 60010000 		.word	.LC44
 1671 0600 63010000 		.word	.LC45
 1672 0604 67010000 		.word	.LC46
 1673 0608 6A010000 		.word	.LC47
 1674 060c 6E010000 		.word	.LC48
 1675 0610 71010000 		.word	.LC49
 1676 0614 74010000 		.word	.LC50
 1677              		.cfi_endproc
 1678              	.LFE135:
 1679              		.size	drawNote, .-drawNote
 1680              		.section	.text.drawClefs,"ax",%progbits
 1681              		.align	1
 1682              		.global	drawClefs
 1683              		.thumb
 1684              		.thumb_func
 1685              		.type	drawClefs, %function
 1686              	drawClefs:
 1687              	.LFB136:
 727:.\main.c      **** 
 728:.\main.c      **** // Function: Displays the clefs on the screen
 729:.\main.c      **** void drawClefs(){
 1688              		.loc 1 729 0
ARM GAS  C:\Users\IVYLIU~1\AppData\Local\Temp\cc0nPDNQ.s 			page 44


 1689              		.cfi_startproc
 1690              		@ args = 0, pretend = 0, frame = 0
 1691              		@ frame_needed = 0, uses_anonymous_args = 0
 1692              	.LVL210:
 1693 0000 10B5     		push	{r4, lr}
 1694              		.cfi_def_cfa_offset 8
 1695              		.cfi_offset 4, -8
 1696              		.cfi_offset 14, -4
 1697              		.loc 1 729 0
 1698 0002 1424     		movs	r4, #20
 1699              	.LVL211:
 1700              	.L109:
 730:.\main.c      ****     int i;
 731:.\main.c      ****     for (i = 0; i < LINE_NUM; i++) {
 732:.\main.c      ****         // Draw treble clef lines
 733:.\main.c      ****         GUI_DrawRect(TOP_MARGIN, i*BAR_SPACING + TOP_MARGIN, RIGHT_MARGIN, i*BAR_SPACING + TOP_MARG
 1701              		.loc 1 733 0 discriminator 3
 1702 0004 2146     		mov	r1, r4
 1703 0006 631C     		adds	r3, r4, #1
 1704 0008 1420     		movs	r0, #20
 1705 000a DC22     		movs	r2, #220
 1706 000c FFF7FEFF 		bl	GUI_DrawRect
 1707              	.LVL212:
 734:.\main.c      ****         // Draw bass clef lines
 735:.\main.c      ****         GUI_DrawRect(TOP_MARGIN, LOWER_OFFSET + i*BAR_SPACING, RIGHT_MARGIN, LOWER_OFFSET + i*BAR_S
 1708              		.loc 1 735 0 discriminator 3
 1709 0010 04F16401 		add	r1, r4, #100
 1710 0014 04F16503 		add	r3, r4, #101
 1711 0018 1420     		movs	r0, #20
 1712 001a DC22     		movs	r2, #220
 1713 001c 0F34     		adds	r4, r4, #15
 1714 001e FFF7FEFF 		bl	GUI_DrawRect
 1715              	.LVL213:
 731:.\main.c      ****         // Draw treble clef lines
 1716              		.loc 1 731 0 discriminator 3
 1717 0022 5F2C     		cmp	r4, #95
 1718 0024 EED1     		bne	.L109
 736:.\main.c      ****     }
 737:.\main.c      **** }
 1719              		.loc 1 737 0
 1720 0026 10BD     		pop	{r4, pc}
 1721              		.cfi_endproc
 1722              	.LFE136:
 1723              		.size	drawClefs, .-drawClefs
 1724              		.section	.text.testFunction,"ax",%progbits
 1725              		.align	1
 1726              		.global	testFunction
 1727              		.thumb
 1728              		.thumb_func
 1729              		.type	testFunction, %function
 1730              	testFunction:
 1731              	.LFB124:
 254:.\main.c      ****     // Function: Display Each Note (for testing purposes)
 1732              		.loc 1 254 0
 1733              		.cfi_startproc
 1734              		@ args = 0, pretend = 0, frame = 0
 1735              		@ frame_needed = 0, uses_anonymous_args = 0
ARM GAS  C:\Users\IVYLIU~1\AppData\Local\Temp\cc0nPDNQ.s 			page 45


 1736 0000 10B5     		push	{r4, lr}
 1737              		.cfi_def_cfa_offset 8
 1738              		.cfi_offset 4, -8
 1739              		.cfi_offset 14, -4
 256:.\main.c      ****     GUI_SetColor(GUI_BLACK);
 1740              		.loc 1 256 0
 1741 0002 4FF0FF30 		mov	r0, #-1
 1742 0006 FFF7FEFF 		bl	GUI_SetBkColor
 1743              	.LVL214:
 257:.\main.c      ****     GUI_Clear();
 1744              		.loc 1 257 0
 1745 000a 4FF07F40 		mov	r0, #-16777216
 1746 000e FFF7FEFF 		bl	GUI_SetColor
 1747              	.LVL215:
 258:.\main.c      **** 
 1748              		.loc 1 258 0
 1749 0012 FFF7FEFF 		bl	GUI_Clear
 1750              	.LVL216:
 1751 0016 194C     		ldr	r4, .L115
 1752              	.LVL217:
 1753              	.L112:
 1754 0018 1434     		adds	r4, r4, #20
 1755              	.LVL218:
 263:.\main.c      ****         GUI_Clear();
 1756              		.loc 1 263 0
 1757 001a 54F8283C 		ldr	r3, [r4, #-40]
 1758 001e 63B3     		cbz	r3, .L114
 264:.\main.c      ****         drawClefs();
 1759              		.loc 1 264 0
 1760 0020 FFF7FEFF 		bl	GUI_Clear
 1761              	.LVL219:
 265:.\main.c      ****         drawNote(cur_note->name);
 1762              		.loc 1 265 0
 1763 0024 FFF7FEFF 		bl	drawClefs
 1764              	.LVL220:
 266:.\main.c      **** 
 1765              		.loc 1 266 0
 1766 0028 54F8280C 		ldr	r0, [r4, #-40]
 1767 002c FFF7FEFF 		bl	drawNote
 1768              	.LVL221:
 268:.\main.c      ****         setPixel(cur_note->led_nums[1], 0, 100, 100);
 1769              		.loc 1 268 0
 1770 0030 6422     		movs	r2, #100
 1771 0032 54F81C0C 		ldr	r0, [r4, #-28]
 1772 0036 1346     		mov	r3, r2
 1773 0038 0021     		movs	r1, #0
 1774 003a FFF7FEFF 		bl	setPixel
 1775              	.LVL222:
 269:.\main.c      ****         NP_Update();
 1776              		.loc 1 269 0
 1777 003e 6422     		movs	r2, #100
 1778 0040 1346     		mov	r3, r2
 1779 0042 54F8180C 		ldr	r0, [r4, #-24]
 1780 0046 0021     		movs	r1, #0
 1781 0048 FFF7FEFF 		bl	setPixel
 1782              	.LVL223:
 270:.\main.c      ****         CyDelay(1000);
ARM GAS  C:\Users\IVYLIU~1\AppData\Local\Temp\cc0nPDNQ.s 			page 46


 1783              		.loc 1 270 0
 1784 004c FFF7FEFF 		bl	NP_Update
 1785              	.LVL224:
 271:.\main.c      ****         setPixel(cur_note->led_nums[0], 0, 0, 0);
 1786              		.loc 1 271 0
 1787 0050 4FF47A70 		mov	r0, #1000
 1788 0054 FFF7FEFF 		bl	CyDelay
 1789              	.LVL225:
 272:.\main.c      ****         setPixel(cur_note->led_nums[1], 0, 0, 0);
 1790              		.loc 1 272 0
 1791 0058 0021     		movs	r1, #0
 1792 005a 54F81C0C 		ldr	r0, [r4, #-28]
 1793 005e 0A46     		mov	r2, r1
 1794 0060 0B46     		mov	r3, r1
 1795 0062 FFF7FEFF 		bl	setPixel
 1796              	.LVL226:
 273:.\main.c      ****         NP_Update();
 1797              		.loc 1 273 0
 1798 0066 0021     		movs	r1, #0
 1799 0068 54F8180C 		ldr	r0, [r4, #-24]
 1800 006c 0A46     		mov	r2, r1
 1801 006e 0B46     		mov	r3, r1
 1802 0070 FFF7FEFF 		bl	setPixel
 1803              	.LVL227:
 274:.\main.c      ****         ++cur_note;
 1804              		.loc 1 274 0
 1805 0074 FFF7FEFF 		bl	NP_Update
 1806              	.LVL228:
 1807 0078 CEE7     		b	.L112
 1808              	.LVL229:
 1809              	.L114:
 279:.\main.c      **** 
 1810              		.loc 1 279 0
 1811 007a 10BD     		pop	{r4, pc}
 1812              	.LVL230:
 1813              	.L116:
 1814              		.align	2
 1815              	.L115:
 1816 007c 14000000 		.word	.LANCHOR0+20
 1817              		.cfi_endproc
 1818              	.LFE124:
 1819              		.size	testFunction, .-testFunction
 1820              		.section	.text.detectAndDrawNote,"ax",%progbits
 1821              		.align	1
 1822              		.global	detectAndDrawNote
 1823              		.thumb
 1824              		.thumb_func
 1825              		.type	detectAndDrawNote, %function
 1826              	detectAndDrawNote:
 1827              	.LFB125:
 282:.\main.c      ****     GUI_SetBkColor(GUI_WHITE);
 1828              		.loc 1 282 0
 1829              		.cfi_startproc
 1830              		@ args = 0, pretend = 0, frame = 0
 1831              		@ frame_needed = 0, uses_anonymous_args = 0
 1832 0000 08B5     		push	{r3, lr}
 1833              		.cfi_def_cfa_offset 8
ARM GAS  C:\Users\IVYLIU~1\AppData\Local\Temp\cc0nPDNQ.s 			page 47


 1834              		.cfi_offset 3, -8
 1835              		.cfi_offset 14, -4
 283:.\main.c      ****     GUI_SetColor(GUI_BLACK);
 1836              		.loc 1 283 0
 1837 0002 4FF0FF30 		mov	r0, #-1
 1838 0006 FFF7FEFF 		bl	GUI_SetBkColor
 1839              	.LVL231:
 284:.\main.c      ****     GUI_Clear();
 1840              		.loc 1 284 0
 1841 000a 4FF07F40 		mov	r0, #-16777216
 1842 000e FFF7FEFF 		bl	GUI_SetColor
 1843              	.LVL232:
 285:.\main.c      ****     drawClefs();
 1844              		.loc 1 285 0
 1845 0012 FFF7FEFF 		bl	GUI_Clear
 1846              	.LVL233:
 286:.\main.c      ****     drawNote(getNoteName(detectNote() - middle_c_bin));
 1847              		.loc 1 286 0
 1848 0016 FFF7FEFF 		bl	drawClefs
 1849              	.LVL234:
 287:.\main.c      **** }
 1850              		.loc 1 287 0
 1851 001a FFF7FEFF 		bl	detectNote
 1852              	.LVL235:
 1853 001e 054B     		ldr	r3, .L118
 1854 0020 D3F85C33 		ldr	r3, [r3, #860]
 1855 0024 C01A     		subs	r0, r0, r3
 1856 0026 FFF7FEFF 		bl	getNoteName
 1857              	.LVL236:
 288:.\main.c      **** 
 1858              		.loc 1 288 0
 1859 002a BDE80840 		pop	{r3, lr}
 1860              		.cfi_restore 14
 1861              		.cfi_restore 3
 1862              		.cfi_def_cfa_offset 0
 287:.\main.c      **** }
 1863              		.loc 1 287 0
 1864 002e FFF7FEBF 		b	drawNote
 1865              	.LVL237:
 1866              	.L119:
 1867 0032 00BF     		.align	2
 1868              	.L118:
 1869 0034 00000000 		.word	.LANCHOR0
 1870              		.cfi_endproc
 1871              	.LFE125:
 1872              		.size	detectAndDrawNote, .-detectAndDrawNote
 1873              		.section	.text.drawPlaySong,"ax",%progbits
 1874              		.align	1
 1875              		.global	drawPlaySong
 1876              		.thumb
 1877              		.thumb_func
 1878              		.type	drawPlaySong, %function
 1879              	drawPlaySong:
 1880              	.LFB131:
 390:.\main.c      ****     // Setup
 1881              		.loc 1 390 0
 1882              		.cfi_startproc
ARM GAS  C:\Users\IVYLIU~1\AppData\Local\Temp\cc0nPDNQ.s 			page 48


 1883              		@ args = 0, pretend = 0, frame = 8
 1884              		@ frame_needed = 0, uses_anonymous_args = 0
 1885              	.LVL238:
 1886 0000 2DE9F341 		push	{r0, r1, r4, r5, r6, r7, r8, lr}
 1887              		.cfi_def_cfa_offset 32
 1888              		.cfi_offset 4, -24
 1889              		.cfi_offset 5, -20
 1890              		.cfi_offset 6, -16
 1891              		.cfi_offset 7, -12
 1892              		.cfi_offset 8, -8
 1893              		.cfi_offset 14, -4
 390:.\main.c      ****     // Setup
 1894              		.loc 1 390 0
 1895 0004 0446     		mov	r4, r0
 392:.\main.c      ****     GUI_SetColor(GUI_BLACK);
 1896              		.loc 1 392 0
 1897 0006 4FF0FF30 		mov	r0, #-1
 1898              	.LVL239:
 1899 000a FFF7FEFF 		bl	GUI_SetBkColor
 1900              	.LVL240:
 393:.\main.c      ****     GUI_SetTextMode(GUI_TM_TRANS);
 1901              		.loc 1 393 0
 1902 000e 4FF07F40 		mov	r0, #-16777216
 1903 0012 FFF7FEFF 		bl	GUI_SetColor
 1904              	.LVL241:
 394:.\main.c      ****     GUI_SetTextAlign(GUI_TA_VCENTER); // Bug: GUI_TA_HCENTER fails to center text horizontally
 1905              		.loc 1 394 0
 1906 0016 0220     		movs	r0, #2
 1907 0018 FFF7FEFF 		bl	GUI_SetTextMode
 1908              	.LVL242:
 395:.\main.c      **** 
 1909              		.loc 1 395 0
 1910 001c 0C20     		movs	r0, #12
 1911 001e FFF7FEFF 		bl	GUI_SetTextAlign
 1912              	.LVL243:
 397:.\main.c      ****     drawClefs();
 1913              		.loc 1 397 0
 1914 0022 FFF7FEFF 		bl	GUI_Clear
 1915              	.LVL244:
 398:.\main.c      ****     
 1916              		.loc 1 398 0
 1917 0026 FFF7FEFF 		bl	drawClefs
 1918              	.LVL245:
 402:.\main.c      ****     
 1919              		.loc 1 402 0
 1920 002a 5148     		ldr	r0, .L131
 400:.\main.c      ****     char score_buf[3];
 1921              		.loc 1 400 0
 1922 002c 0025     		movs	r5, #0
 402:.\main.c      ****     
 1923              		.loc 1 402 0
 1924 002e 00EB0410 		add	r0, r0, r4, lsl #4
 1925 0032 8468     		ldr	r4, [r0, #8]
 1926              	.LVL246:
 1927 0034 D0F80C80 		ldr	r8, [r0, #12]
 1928              	.LVL247:
 405:.\main.c      ****     setNote(cur_song.note_seq[note_index], 0, 0, 100);
ARM GAS  C:\Users\IVYLIU~1\AppData\Local\Temp\cc0nPDNQ.s 			page 49


 1929              		.loc 1 405 0
 1930 0038 2068     		ldr	r0, [r4]
 1931 003a FFF7FEFF 		bl	drawNote
 1932              	.LVL248:
 406:.\main.c      ****     GUI_SetFont(&GUI_Font24B_ASCII);
 1933              		.loc 1 406 0
 1934 003e 0021     		movs	r1, #0
 1935 0040 6423     		movs	r3, #100
 1936 0042 0A46     		mov	r2, r1
 1937 0044 2068     		ldr	r0, [r4]
 1938 0046 FFF7FEFF 		bl	setNote
 1939              	.LVL249:
 407:.\main.c      **** 
 1940              		.loc 1 407 0
 1941 004a 4A48     		ldr	r0, .L131+4
 1942 004c FFF7FEFF 		bl	GUI_SetFont
 1943              	.LVL250:
 409:.\main.c      ****     GUI_DispStringHCenterAt("Score", SCREEN_WIDTH/2 - 20, 280);
 1944              		.loc 1 409 0
 1945 0050 4949     		ldr	r1, .L131+8
 1946 0052 0022     		movs	r2, #0
 1947 0054 01A8     		add	r0, sp, #4
 1948 0056 FFF7FEFF 		bl	sprintf
 1949              	.LVL251:
 410:.\main.c      ****     GUI_DispStringHCenterAt(score_buf, SCREEN_WIDTH/2 + 40, 280);
 1950              		.loc 1 410 0
 1951 005a 4848     		ldr	r0, .L131+12
 1952 005c 6421     		movs	r1, #100
 1953 005e 4FF48C72 		mov	r2, #280
 1954 0062 FFF7FEFF 		bl	GUI_DispStringHCenterAt
 1955              	.LVL252:
 411:.\main.c      ****     
 1956              		.loc 1 411 0
 1957 0066 01A8     		add	r0, sp, #4
 1958 0068 A021     		movs	r1, #160
 1959 006a 4FF48C72 		mov	r2, #280
 1960 006e FFF7FEFF 		bl	GUI_DispStringHCenterAt
 1961              	.LVL253:
 1962              	.L121:
 414:.\main.c      ****         // Detect if note is played
 1963              		.loc 1 414 0
 1964 0072 FFF7FEFF 		bl	SW3_Read
 1965              	.LVL254:
 1966 0076 0028     		cmp	r0, #0
 1967 0078 77D0     		beq	.L120
 417:.\main.c      ****             while(!SW2_Read());
 1968              		.loc 1 417 0
 1969 007a FFF7FEFF 		bl	detectNote
 1970              	.LVL255:
 1971 007e 404B     		ldr	r3, .L131+16
 1972 0080 AE00     		lsls	r6, r5, #2
 1973 0082 D3F85C33 		ldr	r3, [r3, #860]
 1974 0086 C01A     		subs	r0, r0, r3
 1975 0088 FFF7FEFF 		bl	getNoteName
 1976              	.LVL256:
 1977 008c 54F82570 		ldr	r7, [r4, r5, lsl #2]
 1978 0090 3946     		mov	r1, r7
ARM GAS  C:\Users\IVYLIU~1\AppData\Local\Temp\cc0nPDNQ.s 			page 50


 1979 0092 FFF7FEFF 		bl	strcmp
 1980              	.LVL257:
 1981 0096 0028     		cmp	r0, #0
 1982 0098 56D1     		bne	.L122
 1983              	.L123:
 418:.\main.c      ****             // flash LEDs green
 1984              		.loc 1 418 0 discriminator 1
 1985 009a FFF7FEFF 		bl	SW2_Read
 1986              	.LVL258:
 1987 009e 0028     		cmp	r0, #0
 1988 00a0 FBD0     		beq	.L123
 420:.\main.c      ****             CyDelay(50);
 1989              		.loc 1 420 0
 1990 00a2 0021     		movs	r1, #0
 1991 00a4 0B46     		mov	r3, r1
 1992 00a6 6422     		movs	r2, #100
 1993 00a8 A059     		ldr	r0, [r4, r6]
 1994 00aa FFF7FEFF 		bl	setNote
 1995              	.LVL259:
 421:.\main.c      **** 
 1996              		.loc 1 421 0
 1997 00ae 3220     		movs	r0, #50
 1998 00b0 FFF7FEFF 		bl	CyDelay
 1999              	.LVL260:
 424:.\main.c      ****             drawNote(cur_song.note_seq[note_index]);
 2000              		.loc 1 424 0
 2001 00b4 4FF0FF30 		mov	r0, #-1
 2002 00b8 FFF7FEFF 		bl	GUI_SetColor
 2003              	.LVL261:
 425:.\main.c      ****             clearLEDs();
 2004              		.loc 1 425 0
 2005 00bc A059     		ldr	r0, [r4, r6]
 2006 00be FFF7FEFF 		bl	drawNote
 2007              	.LVL262:
 426:.\main.c      ****             
 2008              		.loc 1 426 0
 2009 00c2 FFF7FEFF 		bl	clearLEDs
 2010              	.LVL263:
 428:.\main.c      ****             GUI_DispStringHCenterAt("Score", SCREEN_WIDTH/2 - 20, 280);
 2011              		.loc 1 428 0
 2012 00c6 2B48     		ldr	r0, .L131+4
 2013 00c8 FFF7FEFF 		bl	GUI_SetFont
 2014              	.LVL264:
 429:.\main.c      ****             GUI_DispStringHCenterAt(score_buf, SCREEN_WIDTH/2 + 40, 280);
 2015              		.loc 1 429 0
 2016 00cc 2B48     		ldr	r0, .L131+12
 2017 00ce 6421     		movs	r1, #100
 2018 00d0 4FF48C72 		mov	r2, #280
 2019 00d4 FFF7FEFF 		bl	GUI_DispStringHCenterAt
 2020              	.LVL265:
 430:.\main.c      ****             
 2021              		.loc 1 430 0
 2022 00d8 A021     		movs	r1, #160
 2023 00da 4FF48C72 		mov	r2, #280
 2024 00de 01A8     		add	r0, sp, #4
 2025 00e0 FFF7FEFF 		bl	GUI_DispStringHCenterAt
 2026              	.LVL266:
ARM GAS  C:\Users\IVYLIU~1\AppData\Local\Temp\cc0nPDNQ.s 			page 51


 437:.\main.c      ****             sprintf(score_buf, "%d", note_index);   //put index into str buffer for displaying scor
 2027              		.loc 1 437 0
 2028 00e4 0135     		adds	r5, r5, #1
 2029              	.LVL267:
 433:.\main.c      ****             drawClefs();
 2030              		.loc 1 433 0
 2031 00e6 4FF07F40 		mov	r0, #-16777216
 2032 00ea FFF7FEFF 		bl	GUI_SetColor
 2033              	.LVL268:
 434:.\main.c      ****             
 2034              		.loc 1 434 0
 2035 00ee FFF7FEFF 		bl	drawClefs
 2036              	.LVL269:
 438:.\main.c      ****             
 2037              		.loc 1 438 0
 2038 00f2 01A8     		add	r0, sp, #4
 2039 00f4 2049     		ldr	r1, .L131+8
 2040 00f6 2A46     		mov	r2, r5
 2041 00f8 FFF7FEFF 		bl	sprintf
 2042              	.LVL270:
 440:.\main.c      ****                 // print final score then exit playing mode
 2043              		.loc 1 440 0
 2044 00fc 4545     		cmp	r5, r8
 2045 00fe 11DB     		blt	.L124
 442:.\main.c      ****                 GUI_DispStringHCenterAt("Score", SCREEN_WIDTH/2 - 20, 280);
 2046              		.loc 1 442 0
 2047 0100 2048     		ldr	r0, .L131+20
 2048 0102 7821     		movs	r1, #120
 2049 0104 F022     		movs	r2, #240
 2050 0106 FFF7FEFF 		bl	GUI_DispStringHCenterAt
 2051              	.LVL271:
 443:.\main.c      ****                 GUI_DispStringHCenterAt(score_buf, SCREEN_WIDTH/2 + 40, 280);
 2052              		.loc 1 443 0
 2053 010a 1C48     		ldr	r0, .L131+12
 2054 010c 6421     		movs	r1, #100
 2055 010e 4FF48C72 		mov	r2, #280
 2056 0112 FFF7FEFF 		bl	GUI_DispStringHCenterAt
 2057              	.LVL272:
 444:.\main.c      ****                 break;
 2058              		.loc 1 444 0
 2059 0116 01A8     		add	r0, sp, #4
 2060 0118 A021     		movs	r1, #160
 2061 011a 4FF48C72 		mov	r2, #280
 2062 011e FFF7FEFF 		bl	GUI_DispStringHCenterAt
 2063              	.LVL273:
 445:.\main.c      ****             } else {
 2064              		.loc 1 445 0
 2065 0122 22E0     		b	.L120
 2066              	.L124:
 448:.\main.c      ****                 GUI_DispStringHCenterAt(score_buf, SCREEN_WIDTH/2 + 40, 280);
 2067              		.loc 1 448 0
 2068 0124 1548     		ldr	r0, .L131+12
 2069 0126 6421     		movs	r1, #100
 2070 0128 4FF48C72 		mov	r2, #280
 2071 012c FFF7FEFF 		bl	GUI_DispStringHCenterAt
 2072              	.LVL274:
 450:.\main.c      ****                 setNote(cur_song.note_seq[note_index], 0, 0, 100);
ARM GAS  C:\Users\IVYLIU~1\AppData\Local\Temp\cc0nPDNQ.s 			page 52


 2073              		.loc 1 450 0
 2074 0130 0436     		adds	r6, r6, #4
 449:.\main.c      ****                 drawNote(cur_song.note_seq[note_index]);
 2075              		.loc 1 449 0
 2076 0132 01A8     		add	r0, sp, #4
 2077 0134 A021     		movs	r1, #160
 2078 0136 4FF48C72 		mov	r2, #280
 2079 013a FFF7FEFF 		bl	GUI_DispStringHCenterAt
 2080              	.LVL275:
 450:.\main.c      ****                 setNote(cur_song.note_seq[note_index], 0, 0, 100);
 2081              		.loc 1 450 0
 2082 013e A059     		ldr	r0, [r4, r6]
 2083 0140 FFF7FEFF 		bl	drawNote
 2084              	.LVL276:
 451:.\main.c      ****             }
 2085              		.loc 1 451 0
 2086 0144 A059     		ldr	r0, [r4, r6]
 2087 0146 0AE0     		b	.L130
 2088              	.L122:
 455:.\main.c      ****             CyDelay(50);
 2089              		.loc 1 455 0
 2090 0148 0022     		movs	r2, #0
 2091 014a 3846     		mov	r0, r7
 2092 014c 6421     		movs	r1, #100
 2093 014e 1346     		mov	r3, r2
 2094 0150 FFF7FEFF 		bl	setNote
 2095              	.LVL277:
 456:.\main.c      ****             setNote(cur_song.note_seq[note_index], 0, 0, 100);
 2096              		.loc 1 456 0
 2097 0154 3220     		movs	r0, #50
 2098 0156 FFF7FEFF 		bl	CyDelay
 2099              	.LVL278:
 457:.\main.c      ****         }
 2100              		.loc 1 457 0
 2101 015a 54F82500 		ldr	r0, [r4, r5, lsl #2]
 2102              	.L130:
 2103 015e 0021     		movs	r1, #0
 2104 0160 0A46     		mov	r2, r1
 2105 0162 6423     		movs	r3, #100
 2106 0164 FFF7FEFF 		bl	setNote
 2107              	.LVL279:
 2108 0168 83E7     		b	.L121
 2109              	.L120:
 460:.\main.c      **** 
 2110              		.loc 1 460 0
 2111 016a 02B0     		add	sp, sp, #8
 2112              		.cfi_def_cfa_offset 24
 2113              		@ sp needed
 2114 016c BDE8F081 		pop	{r4, r5, r6, r7, r8, pc}
 2115              	.LVL280:
 2116              	.L132:
 2117              		.align	2
 2118              	.L131:
 2119 0170 3C030000 		.word	.LANCHOR0+828
 2120 0174 00000000 		.word	GUI_Font24B_ASCII
 2121 0178 7D010000 		.word	.LC51
 2122 017c 80010000 		.word	.LC52
ARM GAS  C:\Users\IVYLIU~1\AppData\Local\Temp\cc0nPDNQ.s 			page 53


 2123 0180 00000000 		.word	.LANCHOR0
 2124 0184 86010000 		.word	.LC53
 2125              		.cfi_endproc
 2126              	.LFE131:
 2127              		.size	drawPlaySong, .-drawPlaySong
 2128              		.section	.text.startup.main,"ax",%progbits
 2129              		.align	1
 2130              		.global	main
 2131              		.thumb
 2132              		.thumb_func
 2133              		.type	main, %function
 2134              	main:
 2135              	.LFB123:
 181:.\main.c      ****     // Setup of hardware components
 2136              		.loc 1 181 0
 2137              		.cfi_startproc
 2138              		@ args = 0, pretend = 0, frame = 0
 2139              		@ frame_needed = 0, uses_anonymous_args = 0
 2140 0000 10B5     		push	{r4, lr}
 2141              		.cfi_def_cfa_offset 8
 2142              		.cfi_offset 4, -8
 2143              		.cfi_offset 14, -4
 183:.\main.c      ****     ADC_DelSig_1_Start();				    // start the ADC_DelSig_1
 2144              		.loc 1 183 0
 2145              	@ 183 ".\main.c" 1
 2146 0002 62B6     		CPSIE   i
 2147              	@ 0 "" 2
 184:.\main.c      ****     ADC_DelSig_1_StartConvert();		    // start the ADC_DelSig_1 conversion
 2148              		.loc 1 184 0
 2149              		.thumb
 2150 0004 FFF7FEFF 		bl	ADC_DelSig_1_Start
 2151              	.LVL281:
 185:.\main.c      ****     SPIM_1_Start();                         // initialize SPIM component 
 2152              		.loc 1 185 0
 2153 0008 FFF7FEFF 		bl	ADC_DelSig_1_StartConvert
 2154              	.LVL282:
 186:.\main.c      ****     GUI_Init();                             // initilize graphics library
 2155              		.loc 1 186 0
 2156 000c FFF7FEFF 		bl	SPIM_1_Start
 2157              	.LVL283:
 187:.\main.c      ****     NP_Start(LED_NUM, pPixelArray, 12.8);   //Start the NeoPixel component (LED_NUM pix, User array
 2158              		.loc 1 187 0
 2159 0010 FFF7FEFF 		bl	GUI_Init
 2160              	.LVL284:
 188:.\main.c      **** 
 2161              		.loc 1 188 0
 2162 0014 40A3     		adr	r3, .L155
 2163 0016 D3E90023 		ldrd	r2, [r3]
 2164 001a 9020     		movs	r0, #144
 2165 001c 4049     		ldr	r1, .L155+8
 2166 001e FFF7FEFF 		bl	NP_Start
 2167              	.LVL285:
 2168              	.L154:
 190:.\main.c      **** 
 2169              		.loc 1 190 0
 2170 0022 0024     		movs	r4, #0
 2171              	.LVL286:
ARM GAS  C:\Users\IVYLIU~1\AppData\Local\Temp\cc0nPDNQ.s 			page 54


 2172              	.L134:
 194:.\main.c      ****             case START: // draw start screen
 2173              		.loc 1 194 0
 2174 0024 631E     		subs	r3, r4, #1
 2175 0026 062B     		cmp	r3, #6
 2176 0028 05D8     		bhi	.L135
 2177 002a DFE803F0 		tbb	[pc, r3]
 2178              	.L137:
 2179 002e 0A       		.byte	(.L136-.L137)/2
 2180 002f 1D       		.byte	(.L138-.L137)/2
 2181 0030 23       		.byte	(.L139-.L137)/2
 2182 0031 2C       		.byte	(.L140-.L137)/2
 2183 0032 41       		.byte	(.L141-.L137)/2
 2184 0033 04       		.byte	(.L135-.L137)/2
 2185 0034 6F       		.byte	(.L142-.L137)/2
 2186 0035 00       		.p2align 1
 2187              	.L135:
 196:.\main.c      ****                 drawStartScreen();
 2188              		.loc 1 196 0
 2189 0036 FFF7FEFF 		bl	clearLEDs
 2190              	.LVL287:
 198:.\main.c      ****                 break;
 2191              		.loc 1 198 0
 2192 003a 0124     		movs	r4, #1
 197:.\main.c      ****                 state = MODE_SELECT;    // TODO: switch back to Mode_select
 2193              		.loc 1 197 0
 2194 003c FFF7FEFF 		bl	drawStartScreen
 2195              	.LVL288:
 199:.\main.c      ****             case MODE_SELECT: // wait for user to select mode
 2196              		.loc 1 199 0
 2197 0040 F0E7     		b	.L134
 2198              	.LVL289:
 2199              	.L136:
 201:.\main.c      ****                     while(!SW2_Read());
 2200              		.loc 1 201 0
 2201 0042 FFF7FEFF 		bl	SW2_Read
 2202              	.LVL290:
 2203 0046 28B9     		cbnz	r0, .L144
 2204              	.L145:
 202:.\main.c      ****                     state = SONG_SELECT;
 2205              		.loc 1 202 0 discriminator 1
 2206 0048 FFF7FEFF 		bl	SW2_Read
 2207              	.LVL291:
 2208 004c 0028     		cmp	r0, #0
 2209 004e FBD0     		beq	.L145
 2210              	.LVL292:
 203:.\main.c      ****                 } else if (!SW3_Read()) {
 2211              		.loc 1 203 0
 2212 0050 0224     		movs	r4, #2
 2213 0052 E7E7     		b	.L134
 2214              	.LVL293:
 2215              	.L144:
 204:.\main.c      ****                     while(!SW3_Read());
 2216              		.loc 1 204 0
 2217 0054 FFF7FEFF 		bl	SW3_Read
 2218              	.LVL294:
 2219 0058 0028     		cmp	r0, #0
ARM GAS  C:\Users\IVYLIU~1\AppData\Local\Temp\cc0nPDNQ.s 			page 55


 2220 005a E3D1     		bne	.L134
 2221              	.L146:
 205:.\main.c      ****                     state = CALIBRATE_SETUP;
 2222              		.loc 1 205 0 discriminator 1
 2223 005c FFF7FEFF 		bl	SW3_Read
 2224              	.LVL295:
 2225 0060 0028     		cmp	r0, #0
 2226 0062 FBD0     		beq	.L146
 2227              	.LVL296:
 206:.\main.c      ****                 }
 2228              		.loc 1 206 0
 2229 0064 0424     		movs	r4, #4
 2230 0066 DDE7     		b	.L134
 2231              	.LVL297:
 2232              	.L138:
 210:.\main.c      ****                 state = SONG_DONE;
 2233              		.loc 1 210 0
 2234 0068 FFF7FEFF 		bl	drawSongSelection
 2235              	.LVL298:
 2236 006c FFF7FEFF 		bl	drawPlaySong
 2237              	.LVL299:
 211:.\main.c      ****                 break;
 2238              		.loc 1 211 0
 2239 0070 0324     		movs	r4, #3
 212:.\main.c      ****             case SONG_DONE: // wait for user to press SW3 after song is done
 2240              		.loc 1 212 0
 2241 0072 D7E7     		b	.L134
 2242              	.LVL300:
 2243              	.L139:
 214:.\main.c      ****                     while(!SW3_Read());
 2244              		.loc 1 214 0
 2245 0074 FFF7FEFF 		bl	SW3_Read
 2246              	.LVL301:
 2247 0078 0028     		cmp	r0, #0
 2248 007a D3D1     		bne	.L134
 2249              	.L147:
 215:.\main.c      ****                     state = START;
 2250              		.loc 1 215 0 discriminator 1
 2251 007c FFF7FEFF 		bl	SW3_Read
 2252              	.LVL302:
 2253 0080 0028     		cmp	r0, #0
 2254 0082 FBD0     		beq	.L147
 2255 0084 CDE7     		b	.L154
 2256              	.L140:
 220:.\main.c      ****                 setPixel(63, 0, 100, 100);      //leds associated with middle C
 2257              		.loc 1 220 0
 2258 0086 FFF7FEFF 		bl	drawCalibrateScreen
 2259              	.LVL303:
 2260              	.LBB18:
 2261              	.LBB19:
 319:.\main.c      ****     //Compute Red Component
 2262              		.loc 1 319 0
 2263 008a 254B     		ldr	r3, .L155+8
 2264 008c 6422     		movs	r2, #100
 321:.\main.c      ****     //Compute Blue Component
 2265              		.loc 1 321 0
 2266 008e 0021     		movs	r1, #0
ARM GAS  C:\Users\IVYLIU~1\AppData\Local\Temp\cc0nPDNQ.s 			page 56


 319:.\main.c      ****     //Compute Red Component
 2267              		.loc 1 319 0
 2268 0090 83F8BD20 		strb	r2, [r3, #189]
 321:.\main.c      ****     //Compute Blue Component
 2269              		.loc 1 321 0
 2270 0094 83F8BE10 		strb	r1, [r3, #190]
 323:.\main.c      **** }
 2271              		.loc 1 323 0
 2272 0098 83F8BF20 		strb	r2, [r3, #191]
 2273              	.LVL304:
 2274              	.LBE19:
 2275              	.LBE18:
 2276              	.LBB20:
 2277              	.LBB21:
 319:.\main.c      ****     //Compute Red Component
 2278              		.loc 1 319 0
 2279 009c 83F8BA20 		strb	r2, [r3, #186]
 321:.\main.c      ****     //Compute Blue Component
 2280              		.loc 1 321 0
 2281 00a0 83F8BB10 		strb	r1, [r3, #187]
 323:.\main.c      **** }
 2282              		.loc 1 323 0
 2283 00a4 83F8BC20 		strb	r2, [r3, #188]
 2284              	.LBE21:
 2285              	.LBE20:
 224:.\main.c      ****                 break;
 2286              		.loc 1 224 0
 2287 00a8 0524     		movs	r4, #5
 223:.\main.c      ****                 state = CALIBRATE;
 2288              		.loc 1 223 0
 2289 00aa FFF7FEFF 		bl	NP_Update
 2290              	.LVL305:
 225:.\main.c      ****             case CALIBRATE: // calibrate
 2291              		.loc 1 225 0
 2292 00ae B9E7     		b	.L134
 2293              	.LVL306:
 2294              	.L141:
 227:.\main.c      ****                 
 2295              		.loc 1 227 0
 2296 00b0 FFF7FEFF 		bl	detectNote
 2297              	.LVL307:
 2298 00b4 1B4C     		ldr	r4, .L155+12
 2299 00b6 C4F85C03 		str	r0, [r4, #860]
 229:.\main.c      ****                 GUI_SetColor(GUI_BLACK);
 2300              		.loc 1 229 0
 2301 00ba 4FF0FF30 		mov	r0, #-1
 2302 00be FFF7FEFF 		bl	GUI_SetBkColor
 2303              	.LVL308:
 230:.\main.c      ****                 GUI_SetFont(&GUI_Font24B_ASCII);
 2304              		.loc 1 230 0
 2305 00c2 4FF07F40 		mov	r0, #-16777216
 2306 00c6 FFF7FEFF 		bl	GUI_SetColor
 2307              	.LVL309:
 231:.\main.c      ****                 GUI_Clear();
 2308              		.loc 1 231 0
 2309 00ca 1748     		ldr	r0, .L155+16
 2310 00cc FFF7FEFF 		bl	GUI_SetFont
ARM GAS  C:\Users\IVYLIU~1\AppData\Local\Temp\cc0nPDNQ.s 			page 57


 2311              	.LVL310:
 232:.\main.c      ****                 
 2312              		.loc 1 232 0
 2313 00d0 FFF7FEFF 		bl	GUI_Clear
 2314              	.LVL311:
 234:.\main.c      ****                 GUI_DispStringHCenterAt(test_string, 120, 160);
 2315              		.loc 1 234 0
 2316 00d4 D4F85C23 		ldr	r2, [r4, #860]
 2317 00d8 1449     		ldr	r1, .L155+20
 2318 00da 1548     		ldr	r0, .L155+24
 2319 00dc FFF7FEFF 		bl	sprintf
 2320              	.LVL312:
 235:.\main.c      ****                    
 2321              		.loc 1 235 0
 2322 00e0 1348     		ldr	r0, .L155+24
 2323 00e2 7821     		movs	r1, #120
 2324 00e4 A022     		movs	r2, #160
 2325 00e6 FFF7FEFF 		bl	GUI_DispStringHCenterAt
 2326              	.LVL313:
 2327              	.LBB22:
 2328              	.LBB23:
 319:.\main.c      ****     //Compute Red Component
 2329              		.loc 1 319 0
 2330 00ea 0D4B     		ldr	r3, .L155+8
 2331 00ec 0024     		movs	r4, #0
 2332 00ee 83F8BD40 		strb	r4, [r3, #189]
 321:.\main.c      ****     //Compute Blue Component
 2333              		.loc 1 321 0
 2334 00f2 83F8BE40 		strb	r4, [r3, #190]
 323:.\main.c      **** }
 2335              		.loc 1 323 0
 2336 00f6 83F8BF40 		strb	r4, [r3, #191]
 2337              	.LVL314:
 2338              	.LBE23:
 2339              	.LBE22:
 2340              	.LBB24:
 2341              	.LBB25:
 319:.\main.c      ****     //Compute Red Component
 2342              		.loc 1 319 0
 2343 00fa 83F8BA40 		strb	r4, [r3, #186]
 321:.\main.c      ****     //Compute Blue Component
 2344              		.loc 1 321 0
 2345 00fe 83F8BB40 		strb	r4, [r3, #187]
 323:.\main.c      **** }
 2346              		.loc 1 323 0
 2347 0102 83F8BC40 		strb	r4, [r3, #188]
 2348              	.LBE25:
 2349              	.LBE24:
 239:.\main.c      ****                 state = START;
 2350              		.loc 1 239 0
 2351 0106 FFF7FEFF 		bl	NP_Update
 2352              	.LVL315:
 241:.\main.c      ****             case TESTING: // for switching to testing mode
 2353              		.loc 1 241 0
 2354 010a 8BE7     		b	.L134
 2355              	.LVL316:
 2356              	.L142:
ARM GAS  C:\Users\IVYLIU~1\AppData\Local\Temp\cc0nPDNQ.s 			page 58


 243:.\main.c      ****                 break;
 2357              		.loc 1 243 0
 2358 010c FFF7FEFF 		bl	testFunction
 2359              	.LVL317:
 244:.\main.c      ****             default: // reset to start screen if unexpected state
 2360              		.loc 1 244 0
 2361 0110 88E7     		b	.L134
 2362              	.L156:
 2363 0112 00BFAFF3 		.align	3
 2363      0080
 2364              	.L155:
 2365 0118 9A999999 		.word	-1717986918
 2366 011c 99992940 		.word	1076468121
 2367 0120 00000000 		.word	pPixelArray
 2368 0124 00000000 		.word	.LANCHOR0
 2369 0128 00000000 		.word	GUI_Font24B_ASCII
 2370 012c 91010000 		.word	.LC54
 2371 0130 00000000 		.word	test_string
 2372              		.cfi_endproc
 2373              	.LFE123:
 2374              		.size	main, .-main
 2375              		.global	songs
 2376              		.global	SONGS_LENGTH
 2377              		.global	SONG1_SEQ
 2378              		.global	SONG0_SEQ
 2379              		.global	notes
 2380              		.comm	testOutput,4096,4
 2381              		.comm	testInput,8192,4
 2382              		.global	middle_c_bin
 2383              		.global	testIndex
 2384              		.comm	varInstCfftF32,16,4
 2385              		.global	doBitReverse
 2386              		.global	ifftFlag
 2387              		.global	fftSize
 2388              		.global	adcResult
 2389              		.global	offset
 2390              		.global	Deltapower
 2391              		.global	power
 2392              		.comm	pPixelArray,432,1
 2393              		.comm	test_string,16,1
 2394              		.comm	NP_g_nFrameBufferSize,4,4
 2395              		.comm	NP_g_pFrameBuffer,4,4
 2396              		.comm	NP_g_bOwnsBuffer,1,1
 2397              		.comm	NP_g_nDMA_TD,1,1
 2398              		.comm	NP_g_nDMA_Chan,1,1
 2399              		.comm	NP_g_nNumberOfPixels,4,4
 2400 0134 AFF30080 		.section	.rodata
 2401              		.align	2
 2402              		.type	SONGS_LENGTH, %object
 2403              		.size	SONGS_LENGTH, 4
 2404              	SONGS_LENGTH:
 2405 0000 02000000 		.word	2
 2406              		.section	.rodata.str1.1,"aMS",%progbits,1
 2407              	.LC0:
 2408 0000 556E7265 		.ascii	"Unrecognized note\000"
 2408      636F676E 
 2408      697A6564 
ARM GAS  C:\Users\IVYLIU~1\AppData\Local\Temp\cc0nPDNQ.s 			page 59


 2408      206E6F74 
 2408      6500
 2409              	.LC1:
 2410 0012 536F6E67 		.ascii	"Song Selection\000"
 2410      2053656C 
 2410      65637469 
 2410      6F6E00
 2411              	.LC2:
 2412 0021 50726573 		.ascii	"Press SW2 for next option.\000"
 2412      73205357 
 2412      3220666F 
 2412      72206E65 
 2412      7874206F 
 2413              	.LC3:
 2414 003c 50726573 		.ascii	"Press SW3 to confirm selection.\000"
 2414      73205357 
 2414      3320746F 
 2414      20636F6E 
 2414      6669726D 
 2415              	.LC4:
 2416 005c 536F6E67 		.ascii	"Song Selected!\012Play the keys as\012they are show"
 2416      2053656C 
 2416      65637465 
 2416      64210A50 
 2416      6C617920 
 2417 0089 6E2100   		.ascii	"n!\000"
 2418              	.LC5:
 2419 008c 4C696E65 		.ascii	"Line up lit LEDs over\012the middle C key.\012Then,"
 2419      20757020 
 2419      6C697420 
 2419      4C454473 
 2419      206F7665 
 2420 00b9 20706C61 		.ascii	" play it.\000"
 2420      79206974 
 2420      2E00
 2421              	.LC6:
 2422 00c3 57656C63 		.ascii	"Welcome to\012Piano Tiles!\000"
 2422      6F6D6520 
 2422      746F0A50 
 2422      69616E6F 
 2422      2054696C 
 2423              	.LC7:
 2424 00db 506C6179 		.ascii	"Play\000"
 2424      00
 2425              	.LC8:
 2426 00e0 43616C69 		.ascii	"Calibrate\000"
 2426      62726174 
 2426      6500
 2427              	.LC9:
 2428 00ea 473500   		.ascii	"G5\000"
 2429              	.LC10:
 2430 00ed 46233500 		.ascii	"F#5\000"
 2431              	.LC11:
 2432 00f1 2300     		.ascii	"#\000"
 2433              	.LC12:
 2434 00f3 463500   		.ascii	"F5\000"
 2435              	.LC13:
ARM GAS  C:\Users\IVYLIU~1\AppData\Local\Temp\cc0nPDNQ.s 			page 60


 2436 00f6 453500   		.ascii	"E5\000"
 2437              	.LC14:
 2438 00f9 44233500 		.ascii	"D#5\000"
 2439              	.LC15:
 2440 00fd 443500   		.ascii	"D5\000"
 2441              	.LC16:
 2442 0100 43233500 		.ascii	"C#5\000"
 2443              	.LC17:
 2444 0104 433500   		.ascii	"C5\000"
 2445              	.LC18:
 2446 0107 423400   		.ascii	"B4\000"
 2447              	.LC19:
 2448 010a 41233400 		.ascii	"A#4\000"
 2449              	.LC20:
 2450 010e 413400   		.ascii	"A4\000"
 2451              	.LC21:
 2452 0111 47233400 		.ascii	"G#4\000"
 2453              	.LC22:
 2454 0115 473400   		.ascii	"G4\000"
 2455              	.LC23:
 2456 0118 46233400 		.ascii	"F#4\000"
 2457              	.LC24:
 2458 011c 463400   		.ascii	"F4\000"
 2459              	.LC25:
 2460 011f 453400   		.ascii	"E4\000"
 2461              	.LC26:
 2462 0122 44233400 		.ascii	"D#4\000"
 2463              	.LC27:
 2464 0126 443400   		.ascii	"D4\000"
 2465              	.LC28:
 2466 0129 43233400 		.ascii	"C#4\000"
 2467              	.LC29:
 2468 012d 433400   		.ascii	"C4\000"
 2469              	.LC30:
 2470 0130 423300   		.ascii	"B3\000"
 2471              	.LC31:
 2472 0133 41233300 		.ascii	"A#3\000"
 2473              	.LC32:
 2474 0137 413300   		.ascii	"A3\000"
 2475              	.LC33:
 2476 013a 47233300 		.ascii	"G#3\000"
 2477              	.LC34:
 2478 013e 473300   		.ascii	"G3\000"
 2479              	.LC35:
 2480 0141 46233300 		.ascii	"F#3\000"
 2481              	.LC36:
 2482 0145 463300   		.ascii	"F3\000"
 2483              	.LC37:
 2484 0148 453300   		.ascii	"E3\000"
 2485              	.LC38:
 2486 014b 44233300 		.ascii	"D#3\000"
 2487              	.LC39:
 2488 014f 443300   		.ascii	"D3\000"
 2489              	.LC40:
 2490 0152 43233300 		.ascii	"C#3\000"
 2491              	.LC41:
 2492 0156 433300   		.ascii	"C3\000"
ARM GAS  C:\Users\IVYLIU~1\AppData\Local\Temp\cc0nPDNQ.s 			page 61


 2493              	.LC42:
 2494 0159 423200   		.ascii	"B2\000"
 2495              	.LC43:
 2496 015c 41233200 		.ascii	"A#2\000"
 2497              	.LC44:
 2498 0160 413200   		.ascii	"A2\000"
 2499              	.LC45:
 2500 0163 47233200 		.ascii	"G#2\000"
 2501              	.LC46:
 2502 0167 473200   		.ascii	"G2\000"
 2503              	.LC47:
 2504 016a 46233200 		.ascii	"F#2\000"
 2505              	.LC48:
 2506 016e 463200   		.ascii	"F2\000"
 2507              	.LC49:
 2508 0171 453200   		.ascii	"E2\000"
 2509              	.LC50:
 2510 0174 496E7661 		.ascii	"Invalid!\000"
 2510      6C696421 
 2510      00
 2511              	.LC51:
 2512 017d 256400   		.ascii	"%d\000"
 2513              	.LC52:
 2514 0180 53636F72 		.ascii	"Score\000"
 2514      6500
 2515              	.LC53:
 2516 0186 57656C6C 		.ascii	"Well Done!\000"
 2516      20446F6E 
 2516      652100
 2517              	.LC54:
 2518 0191 4D696464 		.ascii	"Middle C Bin\012%d\000"
 2518      6C652043 
 2518      2042696E 
 2518      0A256400 
 2519              	.LC55:
 2520 01a1 46757220 		.ascii	"Fur Elise\000"
 2520      456C6973 
 2520      6500
 2521              	.LC56:
 2522 01ab 5477696E 		.ascii	"Twinkle, Twinkle,\012Little Star\000"
 2522      6B6C652C 
 2522      20547769 
 2522      6E6B6C65 
 2522      2C0A4C69 
 2523              		.data
 2524              		.align	2
 2525              		.set	.LANCHOR0,. + 0
 2526              		.type	notes, %object
 2527              		.size	notes, 820
 2528              	notes:
 2529 0000 EA000000 		.word	.LC9
 2530 0004 4DFFFFFF 		.word	-179
 2531 0008 3B000000 		.word	59
 2532 000c 63000000 		.word	99
 2533 0010 64000000 		.word	100
 2534 0014 ED000000 		.word	.LC10
 2535 0018 BEFFFFFF 		.word	-66
ARM GAS  C:\Users\IVYLIU~1\AppData\Local\Temp\cc0nPDNQ.s 			page 62


 2536 001c 3A000000 		.word	58
 2537 0020 61000000 		.word	97
 2538 0024 62000000 		.word	98
 2539 0028 F3000000 		.word	.LC12
 2540 002c C4FFFFFF 		.word	-60
 2541 0030 39000000 		.word	57
 2542 0034 5F000000 		.word	95
 2543 0038 60000000 		.word	96
 2544 003c F6000000 		.word	.LC13
 2545 0040 CAFFFFFF 		.word	-54
 2546 0044 38000000 		.word	56
 2547 0048 5D000000 		.word	93
 2548 004c 5E000000 		.word	94
 2549 0050 F9000000 		.word	.LC14
 2550 0054 CFFFFFFF 		.word	-49
 2551 0058 37000000 		.word	55
 2552 005c 5B000000 		.word	91
 2553 0060 5C000000 		.word	92
 2554 0064 FD000000 		.word	.LC15
 2555 0068 D4FFFFFF 		.word	-44
 2556 006c 36000000 		.word	54
 2557 0070 59000000 		.word	89
 2558 0074 5A000000 		.word	90
 2559 0078 00010000 		.word	.LC16
 2560 007c D8FFFFFF 		.word	-40
 2561 0080 35000000 		.word	53
 2562 0084 57000000 		.word	87
 2563 0088 58000000 		.word	88
 2564 008c 04010000 		.word	.LC17
 2565 0090 DCFFFFFF 		.word	-36
 2566 0094 34000000 		.word	52
 2567 0098 55000000 		.word	85
 2568 009c 56000000 		.word	86
 2569 00a0 07010000 		.word	.LC18
 2570 00a4 E0FFFFFF 		.word	-32
 2571 00a8 33000000 		.word	51
 2572 00ac 53000000 		.word	83
 2573 00b0 54000000 		.word	84
 2574 00b4 0A010000 		.word	.LC19
 2575 00b8 E4FFFFFF 		.word	-28
 2576 00bc 32000000 		.word	50
 2577 00c0 52000000 		.word	82
 2578 00c4 00000000 		.word	0
 2579 00c8 0E010000 		.word	.LC20
 2580 00cc E8FFFFFF 		.word	-24
 2581 00d0 31000000 		.word	49
 2582 00d4 50000000 		.word	80
 2583 00d8 00000000 		.word	0
 2584 00dc 11010000 		.word	.LC21
 2585 00e0 EBFFFFFF 		.word	-21
 2586 00e4 30000000 		.word	48
 2587 00e8 4E000000 		.word	78
 2588 00ec 00000000 		.word	0
 2589 00f0 15010000 		.word	.LC22
 2590 00f4 EEFFFFFF 		.word	-18
 2591 00f8 2F000000 		.word	47
 2592 00fc 4C000000 		.word	76
ARM GAS  C:\Users\IVYLIU~1\AppData\Local\Temp\cc0nPDNQ.s 			page 63


 2593 0100 4D000000 		.word	77
 2594 0104 18010000 		.word	.LC23
 2595 0108 F1FFFFFF 		.word	-15
 2596 010c 2E000000 		.word	46
 2597 0110 4A000000 		.word	74
 2598 0114 00000000 		.word	0
 2599 0118 1C010000 		.word	.LC24
 2600 011c F4FFFFFF 		.word	-12
 2601 0120 2D000000 		.word	45
 2602 0124 48000000 		.word	72
 2603 0128 49000000 		.word	73
 2604 012c 1F010000 		.word	.LC25
 2605 0130 F7FFFFFF 		.word	-9
 2606 0134 2C000000 		.word	44
 2607 0138 46000000 		.word	70
 2608 013c 47000000 		.word	71
 2609 0140 22010000 		.word	.LC26
 2610 0144 F9FFFFFF 		.word	-7
 2611 0148 2B000000 		.word	43
 2612 014c 44000000 		.word	68
 2613 0150 45000000 		.word	69
 2614 0154 26010000 		.word	.LC27
 2615 0158 FCFFFFFF 		.word	-4
 2616 015c 2A000000 		.word	42
 2617 0160 42000000 		.word	66
 2618 0164 43000000 		.word	67
 2619 0168 29010000 		.word	.LC28
 2620 016c FEFFFFFF 		.word	-2
 2621 0170 29000000 		.word	41
 2622 0174 40000000 		.word	64
 2623 0178 41000000 		.word	65
 2624 017c 2D010000 		.word	.LC29
 2625 0180 00000000 		.word	0
 2626 0184 28000000 		.word	40
 2627 0188 3E000000 		.word	62
 2628 018c 3F000000 		.word	63
 2629 0190 30010000 		.word	.LC30
 2630 0194 02000000 		.word	2
 2631 0198 27000000 		.word	39
 2632 019c 3C000000 		.word	60
 2633 01a0 3D000000 		.word	61
 2634 01a4 33010000 		.word	.LC31
 2635 01a8 04000000 		.word	4
 2636 01ac 26000000 		.word	38
 2637 01b0 3A000000 		.word	58
 2638 01b4 3B000000 		.word	59
 2639 01b8 37010000 		.word	.LC32
 2640 01bc 07000000 		.word	7
 2641 01c0 25000000 		.word	37
 2642 01c4 38000000 		.word	56
 2643 01c8 39000000 		.word	57
 2644 01cc 3A010000 		.word	.LC33
 2645 01d0 09000000 		.word	9
 2646 01d4 24000000 		.word	36
 2647 01d8 37000000 		.word	55
 2648 01dc 00000000 		.word	0
 2649 01e0 3E010000 		.word	.LC34
ARM GAS  C:\Users\IVYLIU~1\AppData\Local\Temp\cc0nPDNQ.s 			page 64


 2650 01e4 0C000000 		.word	12
 2651 01e8 23000000 		.word	35
 2652 01ec 35000000 		.word	53
 2653 01f0 00000000 		.word	0
 2654 01f4 41010000 		.word	.LC35
 2655 01f8 0F000000 		.word	15
 2656 01fc 22000000 		.word	34
 2657 0200 33000000 		.word	51
 2658 0204 00000000 		.word	0
 2659 0208 45010000 		.word	.LC36
 2660 020c 12000000 		.word	18
 2661 0210 21000000 		.word	33
 2662 0214 31000000 		.word	49
 2663 0218 32000000 		.word	50
 2664 021c 48010000 		.word	.LC37
 2665 0220 15000000 		.word	21
 2666 0224 20000000 		.word	32
 2667 0228 2F000000 		.word	47
 2668 022c 30000000 		.word	48
 2669 0230 4B010000 		.word	.LC38
 2670 0234 18000000 		.word	24
 2671 0238 1F000000 		.word	31
 2672 023c 2D000000 		.word	45
 2673 0240 2E000000 		.word	46
 2674 0244 4F010000 		.word	.LC39
 2675 0248 1C000000 		.word	28
 2676 024c 1E000000 		.word	30
 2677 0250 2B000000 		.word	43
 2678 0254 2C000000 		.word	44
 2679 0258 52010000 		.word	.LC40
 2680 025c 20000000 		.word	32
 2681 0260 1D000000 		.word	29
 2682 0264 29000000 		.word	41
 2683 0268 00000000 		.word	0
 2684 026c 56010000 		.word	.LC41
 2685 0270 24000000 		.word	36
 2686 0274 1C000000 		.word	28
 2687 0278 27000000 		.word	39
 2688 027c 28000000 		.word	40
 2689 0280 59010000 		.word	.LC42
 2690 0284 28000000 		.word	40
 2691 0288 1B000000 		.word	27
 2692 028c 25000000 		.word	37
 2693 0290 26000000 		.word	38
 2694 0294 5C010000 		.word	.LC43
 2695 0298 2C000000 		.word	44
 2696 029c 1A000000 		.word	26
 2697 02a0 23000000 		.word	35
 2698 02a4 00000000 		.word	0
 2699 02a8 60010000 		.word	.LC44
 2700 02ac 31000000 		.word	49
 2701 02b0 19000000 		.word	25
 2702 02b4 21000000 		.word	33
 2703 02b8 22000000 		.word	34
 2704 02bc 63010000 		.word	.LC45
 2705 02c0 36000000 		.word	54
 2706 02c4 18000000 		.word	24
ARM GAS  C:\Users\IVYLIU~1\AppData\Local\Temp\cc0nPDNQ.s 			page 65


 2707 02c8 1F000000 		.word	31
 2708 02cc 20000000 		.word	32
 2709 02d0 67010000 		.word	.LC46
 2710 02d4 3C000000 		.word	60
 2711 02d8 17000000 		.word	23
 2712 02dc 1D000000 		.word	29
 2713 02e0 1E000000 		.word	30
 2714 02e4 6A010000 		.word	.LC47
 2715 02e8 42000000 		.word	66
 2716 02ec 16000000 		.word	22
 2717 02f0 1B000000 		.word	27
 2718 02f4 1C000000 		.word	28
 2719 02f8 6E010000 		.word	.LC48
 2720 02fc 4DFFFFFF 		.word	-179
 2721 0300 15000000 		.word	21
 2722 0304 19000000 		.word	25
 2723 0308 1A000000 		.word	26
 2724 030c 71010000 		.word	.LC49
 2725 0310 37FFFFFF 		.word	-201
 2726 0314 14000000 		.word	20
 2727 0318 17000000 		.word	23
 2728 031c 18000000 		.word	24
 2729 0320 00000000 		.word	0
 2730 0324 00000000 		.space	16
 2730      00000000 
 2730      00000000 
 2730      00000000 
 2731              		.type	fftSize, %object
 2732              		.size	fftSize, 4
 2733              	fftSize:
 2734 0334 00040000 		.word	1024
 2735              		.type	doBitReverse, %object
 2736              		.size	doBitReverse, 4
 2737              	doBitReverse:
 2738 0338 01000000 		.word	1
 2739              		.type	songs, %object
 2740              		.size	songs, 32
 2741              	songs:
 2742 033c 00000000 		.word	0
 2743 0340 A1010000 		.word	.LC55
 2744 0344 00000000 		.word	SONG0_SEQ
 2745 0348 55000000 		.word	85
 2746 034c 01000000 		.word	1
 2747 0350 AB010000 		.word	.LC56
 2748 0354 00000000 		.word	SONG1_SEQ
 2749 0358 2A000000 		.word	42
 2750              		.type	middle_c_bin, %object
 2751              		.size	middle_c_bin, 4
 2752              	middle_c_bin:
 2753 035c DC030000 		.word	988
 2754              		.type	SONG1_SEQ, %object
 2755              		.size	SONG1_SEQ, 168
 2756              	SONG1_SEQ:
 2757 0360 2D010000 		.word	.LC29
 2758 0364 2D010000 		.word	.LC29
 2759 0368 15010000 		.word	.LC22
 2760 036c 15010000 		.word	.LC22
ARM GAS  C:\Users\IVYLIU~1\AppData\Local\Temp\cc0nPDNQ.s 			page 66


 2761 0370 0E010000 		.word	.LC20
 2762 0374 0E010000 		.word	.LC20
 2763 0378 15010000 		.word	.LC22
 2764 037c 1C010000 		.word	.LC24
 2765 0380 1C010000 		.word	.LC24
 2766 0384 1F010000 		.word	.LC25
 2767 0388 1F010000 		.word	.LC25
 2768 038c 26010000 		.word	.LC27
 2769 0390 26010000 		.word	.LC27
 2770 0394 2D010000 		.word	.LC29
 2771 0398 15010000 		.word	.LC22
 2772 039c 15010000 		.word	.LC22
 2773 03a0 1C010000 		.word	.LC24
 2774 03a4 1C010000 		.word	.LC24
 2775 03a8 1F010000 		.word	.LC25
 2776 03ac 1F010000 		.word	.LC25
 2777 03b0 26010000 		.word	.LC27
 2778 03b4 15010000 		.word	.LC22
 2779 03b8 15010000 		.word	.LC22
 2780 03bc 1C010000 		.word	.LC24
 2781 03c0 1C010000 		.word	.LC24
 2782 03c4 1F010000 		.word	.LC25
 2783 03c8 1F010000 		.word	.LC25
 2784 03cc 26010000 		.word	.LC27
 2785 03d0 2D010000 		.word	.LC29
 2786 03d4 2D010000 		.word	.LC29
 2787 03d8 15010000 		.word	.LC22
 2788 03dc 15010000 		.word	.LC22
 2789 03e0 0E010000 		.word	.LC20
 2790 03e4 0E010000 		.word	.LC20
 2791 03e8 15010000 		.word	.LC22
 2792 03ec 1C010000 		.word	.LC24
 2793 03f0 1C010000 		.word	.LC24
 2794 03f4 1F010000 		.word	.LC25
 2795 03f8 1F010000 		.word	.LC25
 2796 03fc 26010000 		.word	.LC27
 2797 0400 26010000 		.word	.LC27
 2798 0404 2D010000 		.word	.LC29
 2799              		.type	SONG0_SEQ, %object
 2800              		.size	SONG0_SEQ, 340
 2801              	SONG0_SEQ:
 2802 0408 F6000000 		.word	.LC13
 2803 040c F9000000 		.word	.LC14
 2804 0410 F6000000 		.word	.LC13
 2805 0414 F9000000 		.word	.LC14
 2806 0418 F6000000 		.word	.LC13
 2807 041c 07010000 		.word	.LC18
 2808 0420 FD000000 		.word	.LC15
 2809 0424 04010000 		.word	.LC17
 2810 0428 0E010000 		.word	.LC20
 2811 042c 2D010000 		.word	.LC29
 2812 0430 1F010000 		.word	.LC25
 2813 0434 0E010000 		.word	.LC20
 2814 0438 07010000 		.word	.LC18
 2815 043c 1F010000 		.word	.LC25
 2816 0440 11010000 		.word	.LC21
 2817 0444 07010000 		.word	.LC18
ARM GAS  C:\Users\IVYLIU~1\AppData\Local\Temp\cc0nPDNQ.s 			page 67


 2818 0448 04010000 		.word	.LC17
 2819 044c 1F010000 		.word	.LC25
 2820 0450 F6000000 		.word	.LC13
 2821 0454 F9000000 		.word	.LC14
 2822 0458 F6000000 		.word	.LC13
 2823 045c F9000000 		.word	.LC14
 2824 0460 F6000000 		.word	.LC13
 2825 0464 07010000 		.word	.LC18
 2826 0468 FD000000 		.word	.LC15
 2827 046c 04010000 		.word	.LC17
 2828 0470 0E010000 		.word	.LC20
 2829 0474 2D010000 		.word	.LC29
 2830 0478 1F010000 		.word	.LC25
 2831 047c 0E010000 		.word	.LC20
 2832 0480 07010000 		.word	.LC18
 2833 0484 1F010000 		.word	.LC25
 2834 0488 04010000 		.word	.LC17
 2835 048c 07010000 		.word	.LC18
 2836 0490 0E010000 		.word	.LC20
 2837 0494 07010000 		.word	.LC18
 2838 0498 04010000 		.word	.LC17
 2839 049c FD000000 		.word	.LC15
 2840 04a0 F6000000 		.word	.LC13
 2841 04a4 15010000 		.word	.LC22
 2842 04a8 F3000000 		.word	.LC12
 2843 04ac F6000000 		.word	.LC13
 2844 04b0 FD000000 		.word	.LC15
 2845 04b4 1C010000 		.word	.LC24
 2846 04b8 F6000000 		.word	.LC13
 2847 04bc FD000000 		.word	.LC15
 2848 04c0 04010000 		.word	.LC17
 2849 04c4 1F010000 		.word	.LC25
 2850 04c8 FD000000 		.word	.LC15
 2851 04cc 04010000 		.word	.LC17
 2852 04d0 07010000 		.word	.LC18
 2853 04d4 F6000000 		.word	.LC13
 2854 04d8 F9000000 		.word	.LC14
 2855 04dc F6000000 		.word	.LC13
 2856 04e0 F9000000 		.word	.LC14
 2857 04e4 F6000000 		.word	.LC13
 2858 04e8 07010000 		.word	.LC18
 2859 04ec FD000000 		.word	.LC15
 2860 04f0 04010000 		.word	.LC17
 2861 04f4 0E010000 		.word	.LC20
 2862 04f8 2D010000 		.word	.LC29
 2863 04fc 1F010000 		.word	.LC25
 2864 0500 0E010000 		.word	.LC20
 2865 0504 07010000 		.word	.LC18
 2866 0508 1F010000 		.word	.LC25
 2867 050c 11010000 		.word	.LC21
 2868 0510 07010000 		.word	.LC18
 2869 0514 04010000 		.word	.LC17
 2870 0518 1F010000 		.word	.LC25
 2871 051c F6000000 		.word	.LC13
 2872 0520 F9000000 		.word	.LC14
 2873 0524 F6000000 		.word	.LC13
 2874 0528 F9000000 		.word	.LC14
ARM GAS  C:\Users\IVYLIU~1\AppData\Local\Temp\cc0nPDNQ.s 			page 68


 2875 052c F6000000 		.word	.LC13
 2876 0530 07010000 		.word	.LC18
 2877 0534 FD000000 		.word	.LC15
 2878 0538 04010000 		.word	.LC17
 2879 053c 0E010000 		.word	.LC20
 2880 0540 2D010000 		.word	.LC29
 2881 0544 1F010000 		.word	.LC25
 2882 0548 0E010000 		.word	.LC20
 2883 054c 07010000 		.word	.LC18
 2884 0550 1F010000 		.word	.LC25
 2885 0554 04010000 		.word	.LC17
 2886 0558 0E010000 		.word	.LC20
 2887              		.type	Deltapower, %object
 2888              		.size	Deltapower, 4
 2889              	Deltapower:
 2890 055c 0AD7A33B 		.word	1000593162
 2891              		.type	power, %object
 2892              		.size	power, 4
 2893              	power:
 2894 0560 0000803F 		.word	1065353216
 2895              		.bss
 2896              		.align	2
 2897              		.set	.LANCHOR1,. + 0
 2898              		.type	adcResult, %object
 2899              		.size	adcResult, 4
 2900              	adcResult:
 2901 0000 00000000 		.space	4
 2902              		.type	ifftFlag, %object
 2903              		.size	ifftFlag, 4
 2904              	ifftFlag:
 2905 0004 00000000 		.space	4
 2906              		.type	testIndex, %object
 2907              		.size	testIndex, 4
 2908              	testIndex:
 2909 0008 00000000 		.space	4
 2910              		.type	offset, %object
 2911              		.size	offset, 4
 2912              	offset:
 2913 000c 00000000 		.space	4
 2914              		.text
 2915              	.Letext0:
 2916              		.file 2 "c:\\program files (x86)\\cypress\\psoc creator\\3.3\\psoc creator\\import\\gnu\\arm\\4.9.
 2917              		.file 3 "c:\\program files (x86)\\cypress\\psoc creator\\3.3\\psoc creator\\import\\gnu\\arm\\4.9.
 2918              		.file 4 "Generated_Source\\PSoC5/cytypes.h"
 2919              		.file 5 "..\\emWinGraphics_v5_46\\Code\\Include\\PSoC4_5/LCD.h"
 2920              		.file 6 "..\\emWinGraphics_v5_46\\Code\\Include\\PSoC4_5/GUI_Type.h"
 2921              		.file 7 ".\\DSP\\Include/arm_math_types.h"
 2922              		.file 8 ".\\DSP\\Include/dsp/transform_functions.h"
 2923              		.file 9 "Generated_Source\\PSoC5/NP_funcs.h"
 2924              		.file 10 ".\\Core\\Include/cmsis_gcc.h"
 2925              		.file 11 ".\\Core\\Include/core_cm3.h"
 2926              		.file 12 "..\\emWinGraphics_v5_46\\Code\\Include\\PSoC4_5/GUI.h"
 2927              		.file 13 "c:\\program files (x86)\\cypress\\psoc creator\\3.3\\psoc creator\\import\\gnu\\arm\\4.9
 2928              		.file 14 ".\\DSP\\Include/dsp/complex_math_functions.h"
 2929              		.file 15 ".\\DSP\\Include/dsp/statistics_functions.h"
 2930              		.file 16 "Generated_Source\\PSoC5/adc_threshold.h"
 2931              		.file 17 "Generated_Source\\PSoC5/CyLib.h"
ARM GAS  C:\Users\IVYLIU~1\AppData\Local\Temp\cc0nPDNQ.s 			page 69


 2932              		.file 18 "Generated_Source\\PSoC5/ADC_DelSig_1.h"
 2933              		.file 19 "Generated_Source\\PSoC5/SW3.h"
 2934              		.file 20 "Generated_Source\\PSoC5/SW2.h"
 2935              		.file 21 "c:\\program files (x86)\\cypress\\psoc creator\\3.3\\psoc creator\\import\\gnu\\arm\\4.9
 2936              		.file 22 "Generated_Source\\PSoC5/SPIM_1.h"