ARM GAS  C:\Users\IVYLIU~1\AppData\Local\Temp\cc0nPDNQ.s 			page 1


   1              		.syntax unified
   2              		.cpu cortex-m3
   3              		.fpu softvfp
   4              		.eabi_attribute 20, 1
   5              		.eabi_attribute 21, 1
   6              		.eabi_attribute 23, 3
   7              		.eabi_attribute 24, 1
   8              		.eabi_attribute 25, 1
   9              		.eabi_attribute 26, 1
  10              		.eabi_attribute 30, 4
  11              		.eabi_attribute 34, 1
  12              		.eabi_attribute 18, 4
  13              		.thumb
  14              		.file	"main.c"
  15              		.text
  16              	.Ltext0:
  17              		.cfi_sections	.debug_frame
  18              		.section	.text.setPixel,"ax",%progbits
  19              		.align	1
  20              		.global	setPixel
  21              		.thumb
  22              		.thumb_func
  23              		.type	setPixel, %function
  24              	setPixel:
  25              	.LFB128:
  26              		.file 1 ".\\main.c"
   1:.\main.c      **** /* ========================================
   2:.\main.c      ****  *
   3:.\main.c      ****  * Copyright YOUR COMPANY, THE YEAR
   4:.\main.c      ****  * All Rights Reserved
   5:.\main.c      ****  * UNPUBLISHED, LICENSED SOFTWARE.
   6:.\main.c      ****  *
   7:.\main.c      ****  * CONFIDENTIAL AND PROPRIETARY INFORMATION
   8:.\main.c      ****  * WHICH IS THE PROPERTY OF your company.
   9:.\main.c      ****  *
  10:.\main.c      ****  * ========================================
  11:.\main.c      **** */
  12:.\main.c      **** #include <project.h>
  13:.\main.c      **** #include <stdio.h>
  14:.\main.c      **** #include "GUI.h"
  15:.\main.c      **** #include "arm_math.h"
  16:.\main.c      **** #include <arm_const_structs.h>
  17:.\main.c      **** #include "tft.h"
  18:.\main.c      **** #include "math.h"
  19:.\main.c      **** 
  20:.\main.c      **** char test_string[16]; // TODO: remove, for writing test values to for display
  21:.\main.c      **** /* ------------------------------------------------------------------
  22:.\main.c      **** * Global variables for LEDs
  23:.\main.c      **** * ------------------------------------------------------------------- */
  24:.\main.c      **** #define LED_NUM 144
  25:.\main.c      **** //Allocate an array for LED_NUM NeoPixels
  26:.\main.c      **** unsigned char pPixelArray[LED_NUM*3];
  27:.\main.c      **** //Set up some variables for animation code
  28:.\main.c      **** float power = 1;
  29:.\main.c      **** float Deltapower = 0.005;
  30:.\main.c      **** float offset = 0;
  31:.\main.c      **** 
ARM GAS  C:\Users\IVYLIU~1\AppData\Local\Temp\cc0nPDNQ.s 			page 2


  32:.\main.c      **** void clearLEDs(void);
  33:.\main.c      **** void setPixel(int i, int r, int b, int g);
  34:.\main.c      **** 
  35:.\main.c      **** /* ------------------------------------------------------------------
  36:.\main.c      **** * Global variables for FFT Bins
  37:.\main.c      **** * ------------------------------------------------------------------- */
  38:.\main.c      **** uint32_t adcResult = 0;
  39:.\main.c      **** #define TEST_LENGTH_SAMPLES 2048
  40:.\main.c      **** uint32_t fftSize = 1024;            // number of bins
  41:.\main.c      **** uint32_t ifftFlag = 0;
  42:.\main.c      **** uint32_t doBitReverse = 1;
  43:.\main.c      **** arm_cfft_instance_f32 varInstCfftF32;
  44:.\main.c      **** uint32_t testIndex = 0;
  45:.\main.c      **** int middle_c_bin = 988;
  46:.\main.c      **** 
  47:.\main.c      **** float32_t testInput[TEST_LENGTH_SAMPLES];
  48:.\main.c      **** float32_t testOutput[TEST_LENGTH_SAMPLES/2];
  49:.\main.c      **** int detectNote(void);
  50:.\main.c      **** 
  51:.\main.c      **** /* ------------------------------------------------------------------
  52:.\main.c      **** * Global variables for TFT Display
  53:.\main.c      **** * ------------------------------------------------------------------- */
  54:.\main.c      **** #define TOP_MARGIN 20
  55:.\main.c      **** #define SCREEN_WIDTH 240
  56:.\main.c      **** #define RIGHT_MARGIN SCREEN_WIDTH - TOP_MARGIN
  57:.\main.c      **** #define BAR_SPACING 15
  58:.\main.c      **** #define NOTE_SPACING BAR_SPACING/2
  59:.\main.c      **** #define BETWEEN_CLEFS BAR_SPACING*3
  60:.\main.c      **** #define LINE_NUM 5
  61:.\main.c      **** #define LOWER_OFFSET BAR_SPACING*LINE_NUM + BETWEEN_CLEFS
  62:.\main.c      **** #define NOTE_WIDTH 12
  63:.\main.c      **** #define NOTE_HEIGHT 8
  64:.\main.c      **** enum States {
  65:.\main.c      ****     START,
  66:.\main.c      ****     MODE_SELECT,
  67:.\main.c      ****     SONG_SELECT,
  68:.\main.c      ****     SONG_DONE,
  69:.\main.c      ****     CALIBRATE_SETUP,
  70:.\main.c      ****     CALIBRATE,
  71:.\main.c      ****     RESET,
  72:.\main.c      ****     TESTING
  73:.\main.c      **** }; 
  74:.\main.c      **** 
  75:.\main.c      **** void testFunction(void);
  76:.\main.c      **** void drawClefs(void);
  77:.\main.c      **** void drawNote(char* input_name);
  78:.\main.c      **** void setNote(char* input_name, int r, int g, int b);
  79:.\main.c      **** void detectAndDrawNote(void);
  80:.\main.c      **** char* getNoteName(int input_offset);
  81:.\main.c      **** void drawStartScreen(void);
  82:.\main.c      **** void drawCalibrateScreen(void);
  83:.\main.c      **** int drawSongSelection(void);
  84:.\main.c      **** void drawPlaySong(int song_index);
  85:.\main.c      **** 
  86:.\main.c      **** // name: english name of note
  87:.\main.c      **** // offset: frequency_bin - middle_c_frequencybin
  88:.\main.c      **** // key_num: key number of note
ARM GAS  C:\Users\IVYLIU~1\AppData\Local\Temp\cc0nPDNQ.s 			page 3


  89:.\main.c      **** // led_unms: led indexes associated with note
  90:.\main.c      **** //Reference: https://stackoverflow.com/questions/47880223/how-to-programmatically-map-integers-to-c
  91:.\main.c      **** struct Notes
  92:.\main.c      **** {
  93:.\main.c      ****     const char *name;
  94:.\main.c      ****     int offset;             //fft offset from midde C/C4
  95:.\main.c      ****     int key_num;            //key number on piano, TODO: use less memory by changing from strings t
  96:.\main.c      ****     int led_nums[2];
  97:.\main.c      **** };
  98:.\main.c      **** 
  99:.\main.c      **** struct Notes notes[] = {
 100:.\main.c      ****     { .offset = -179,  .name = "G5", .key_num = 59, .led_nums = {99, 100}},
 101:.\main.c      ****     { .offset = -66,  .name = "F#5", .key_num = 58, .led_nums = {97, 98}},
 102:.\main.c      ****     { .offset = -60,  .name = "F5", .key_num = 57, .led_nums = {95, 96}},
 103:.\main.c      ****     { .offset = -54,  .name = "E5", .key_num = 56, .led_nums = {93, 94}},
 104:.\main.c      ****     { .offset = -49,  .name = "D#5", .key_num = 55, .led_nums = {91, 92}},
 105:.\main.c      ****     { .offset = -44,  .name = "D5", .key_num = 54, .led_nums = {89, 90}},
 106:.\main.c      ****     { .offset = -40,  .name = "C#5", .key_num = 53, .led_nums = {87, 88}},
 107:.\main.c      ****     { .offset = -36,  .name = "C5", .key_num = 52, .led_nums = {85, 86}},
 108:.\main.c      ****     { .offset = -32,  .name = "B4", .key_num = 51, .led_nums = {83, 84}},
 109:.\main.c      ****     { .offset = -28,  .name = "A#4", .key_num = 50, .led_nums = {82, 0}},
 110:.\main.c      ****     { .offset = -24,  .name = "A4", .key_num = 49, .led_nums = {80, 0}},
 111:.\main.c      ****     { .offset = -21,  .name = "G#4", .key_num = 48, .led_nums = {78, 0}},
 112:.\main.c      ****     { .offset = -18,  .name = "G4", .key_num = 47, .led_nums = {76, 77}},
 113:.\main.c      ****     { .offset = -15,  .name = "F#4", .key_num = 46, .led_nums = {74, 0}},
 114:.\main.c      ****     { .offset = -12,  .name = "F4", .key_num = 45, .led_nums = {72, 73}},
 115:.\main.c      ****     { .offset = -9,  .name = "E4", .key_num = 44, .led_nums = {70 ,71}},
 116:.\main.c      ****     { .offset = -7,  .name = "D#4", .key_num = 43, .led_nums = {68, 69}},
 117:.\main.c      ****     { .offset = -4,  .name = "D4", .key_num = 42, .led_nums = {66, 67}},
 118:.\main.c      ****     { .offset = -2,  .name = "C#4", .key_num = 41, .led_nums = {64, 65}},
 119:.\main.c      ****     { .offset = 0,  .name = "C4", .key_num = 40, .led_nums = {62, 63}},   // Middle C, 988 Hz
 120:.\main.c      ****     { .offset = 2,  .name = "B3", .key_num = 39, .led_nums = {60, 61}},
 121:.\main.c      ****     { .offset = 4,  .name = "A#3", .key_num = 38, .led_nums = {58, 59}},
 122:.\main.c      ****     { .offset = 7,  .name = "A3", .key_num = 37, .led_nums = {56, 57}},
 123:.\main.c      ****     { .offset = 9,  .name = "G#3", .key_num = 36, .led_nums = {55, 0}},
 124:.\main.c      ****     { .offset = 12,  .name = "G3", .key_num = 35, .led_nums = {53, 0}},
 125:.\main.c      ****     { .offset = 15,  .name = "F#3", .key_num = 34, .led_nums = {51, 0}},
 126:.\main.c      ****     { .offset = 18,  .name = "F3", .key_num = 33, .led_nums = {49, 50}},
 127:.\main.c      ****     { .offset = 21,  .name = "E3", .key_num = 32, .led_nums = {47, 48}},
 128:.\main.c      ****     { .offset = 24,  .name = "D#3", .key_num = 31, .led_nums = {45, 46}},
 129:.\main.c      ****     { .offset = 28,  .name = "D3", .key_num = 30, .led_nums = {43, 44}},
 130:.\main.c      ****     { .offset = 32,  .name = "C#3", .key_num = 29, .led_nums = {41, 0}},
 131:.\main.c      ****     { .offset = 36,  .name = "C3", .key_num = 28, .led_nums = {39, 40}},
 132:.\main.c      ****     { .offset = 40,  .name = "B2", .key_num = 27, .led_nums = {37, 38}},
 133:.\main.c      ****     { .offset = 44,  .name = "A#2", .key_num = 26, .led_nums = {35, 0}},
 134:.\main.c      ****     { .offset = 49,  .name = "A2", .key_num = 25, .led_nums = {33, 34}},
 135:.\main.c      ****     { .offset = 54,  .name = "G#2", .key_num = 24, .led_nums = {31, 32}},
 136:.\main.c      ****     { .offset = 60,  .name = "G2", .key_num = 23, .led_nums = {29, 30}},
 137:.\main.c      ****     { .offset = 66,  .name = "F#2", .key_num = 22, .led_nums = {27, 28}},
 138:.\main.c      ****     { .offset = -179,  .name = "F2", .key_num = 21, .led_nums = {25, 26}},
 139:.\main.c      ****     { .offset = -201,  .name = "E2", .key_num = 20, .led_nums = {23, 24}},
 140:.\main.c      ****     { .name = NULL }
 141:.\main.c      **** };
 142:.\main.c      **** 
 143:.\main.c      **** // song_number: index of song in songs array
 144:.\main.c      **** // name: English name of song
 145:.\main.c      **** // note_seq: array of names of notes in song
ARM GAS  C:\Users\IVYLIU~1\AppData\Local\Temp\cc0nPDNQ.s 			page 4


 146:.\main.c      **** // song_length: number of note names in song
 147:.\main.c      **** struct Songs
 148:.\main.c      **** {
 149:.\main.c      ****     const int song_number;
 150:.\main.c      ****     const char *name;
 151:.\main.c      ****     const char **note_seq;
 152:.\main.c      ****     const int song_length;
 153:.\main.c      **** };
 154:.\main.c      **** 
 155:.\main.c      **** const char *SONG0_SEQ[] = 
 156:.\main.c      ****     {"E5", "D#5", "E5", "D#5", "E5", "B4", "D5", "C5",
 157:.\main.c      ****      "A4", "C4", "E4", "A4", "B4", "E4", "G#4", "B4",
 158:.\main.c      ****      "C5", "E4", "E5", "D#5", "E5", "D#5", "E5", "B4", "D5", "C5", "A4", "C4", "E4", "A4",
 159:.\main.c      ****      "B4", "E4", "C5", "B4", "A4", "B4", "C5", "D5",
 160:.\main.c      ****      "E5", "G4", "F5", "E5", "D5", "F4", "E5", "D5", "C5", "E4", "D5", "C5",
 161:.\main.c      ****      "B4", "E5", "D#5", "E5", "D#5", "E5", "B4", "D5", "C5", "A4", "C4", "E4", "A4",
 162:.\main.c      ****      "B4", "E4", "G#4", "B4", "C5", "E4", "E5", "D#5", "E5", "D#5", "E5", "B4", "D5", "C5",
 163:.\main.c      ****      "A4", "C4", "E4", "A4", "B4", "E4", "C5", "A4"
 164:.\main.c      ****     };
 165:.\main.c      **** const char *SONG1_SEQ[] = 
 166:.\main.c      ****     {"C4", "C4", "G4", "G4", "A4", "A4", "G4",
 167:.\main.c      ****      "F4", "F4", "E4", "E4", "D4", "D4", "C4",
 168:.\main.c      ****      "G4", "G4", "F4", "F4", "E4", "E4", "D4",
 169:.\main.c      ****      "G4", "G4", "F4", "F4", "E4", "E4", "D4",
 170:.\main.c      ****      "C4", "C4", "G4", "G4", "A4", "A4", "G4",
 171:.\main.c      ****      "F4", "F4", "E4", "E4", "D4", "D4", "C4"
 172:.\main.c      ****     };
 173:.\main.c      **** 
 174:.\main.c      **** const int SONGS_LENGTH = 2;
 175:.\main.c      **** struct Songs songs[] = {
 176:.\main.c      ****     { .song_number = 0, .name = "Fur Elise", .note_seq = SONG0_SEQ, .song_length = 85},
 177:.\main.c      ****     { .song_number = 1, .name = "Twinkle, Twinkle,\nLittle Star", .note_seq = SONG1_SEQ, .song_leng
 178:.\main.c      **** };
 179:.\main.c      **** 
 180:.\main.c      **** int main()
 181:.\main.c      **** {
 182:.\main.c      ****     // Setup of hardware components
 183:.\main.c      ****     CyGlobalIntEnable;                      // Enable global interrupts
 184:.\main.c      ****     ADC_DelSig_1_Start();				    // start the ADC_DelSig_1
 185:.\main.c      ****     ADC_DelSig_1_StartConvert();		    // start the ADC_DelSig_1 conversion
 186:.\main.c      ****     SPIM_1_Start();                         // initialize SPIM component 
 187:.\main.c      ****     GUI_Init();                             // initilize graphics library
 188:.\main.c      ****     NP_Start(LED_NUM, pPixelArray, 12.8);   //Start the NeoPixel component (LED_NUM pix, User array
 189:.\main.c      **** 
 190:.\main.c      ****     int state = START;
 191:.\main.c      **** 
 192:.\main.c      ****     // Main loop, state machine
 193:.\main.c      ****     for(;;) {
 194:.\main.c      ****         switch (state) {
 195:.\main.c      ****             case START: // draw start screen
 196:.\main.c      ****                 clearLEDs();
 197:.\main.c      ****                 drawStartScreen();
 198:.\main.c      ****                 state = MODE_SELECT;    // TODO: switch back to Mode_select
 199:.\main.c      ****                 break;
 200:.\main.c      ****             case MODE_SELECT: // wait for user to select mode
 201:.\main.c      ****                 if (!SW2_Read()) {
 202:.\main.c      ****                     while(!SW2_Read());
ARM GAS  C:\Users\IVYLIU~1\AppData\Local\Temp\cc0nPDNQ.s 			page 5


 203:.\main.c      ****                     state = SONG_SELECT;
 204:.\main.c      ****                 } else if (!SW3_Read()) {
 205:.\main.c      ****                     while(!SW3_Read());
 206:.\main.c      ****                     state = CALIBRATE_SETUP;
 207:.\main.c      ****                 }
 208:.\main.c      ****                 break;
 209:.\main.c      ****             case SONG_SELECT: // draw song selection and song
 210:.\main.c      ****                 drawPlaySong(drawSongSelection());
 211:.\main.c      ****                 state = SONG_DONE;
 212:.\main.c      ****                 break;
 213:.\main.c      ****             case SONG_DONE: // wait for user to press SW3 after song is done
 214:.\main.c      ****                 if (!SW3_Read()) {
 215:.\main.c      ****                     while(!SW3_Read());
 216:.\main.c      ****                     state = START;
 217:.\main.c      ****                 }
 218:.\main.c      ****                 break;
 219:.\main.c      ****             case CALIBRATE_SETUP: // draws calibrate screen
 220:.\main.c      ****                 drawCalibrateScreen();
 221:.\main.c      ****                 setPixel(63, 0, 100, 100);      //leds associated with middle C
 222:.\main.c      ****                 setPixel(62, 0, 100, 100);
 223:.\main.c      ****                 NP_Update();
 224:.\main.c      ****                 state = CALIBRATE;
 225:.\main.c      ****                 break;
 226:.\main.c      ****             case CALIBRATE: // calibrate
 227:.\main.c      ****                 middle_c_bin = detectNote();
 228:.\main.c      ****                 
 229:.\main.c      ****                 GUI_SetBkColor(GUI_WHITE);
 230:.\main.c      ****                 GUI_SetColor(GUI_BLACK);
 231:.\main.c      ****                 GUI_SetFont(&GUI_Font24B_ASCII);
 232:.\main.c      ****                 GUI_Clear();
 233:.\main.c      ****                 
 234:.\main.c      ****                 sprintf(test_string, "Middle C Bin\n%d", middle_c_bin);
 235:.\main.c      ****                 GUI_DispStringHCenterAt(test_string, 120, 160);
 236:.\main.c      ****                    
 237:.\main.c      ****                 setPixel(63, 0, 0, 0);
 238:.\main.c      ****                 setPixel(62, 0, 0, 0);
 239:.\main.c      ****                 NP_Update();
 240:.\main.c      ****                 state = START;
 241:.\main.c      ****                 break;
 242:.\main.c      ****             case TESTING: // for switching to testing mode
 243:.\main.c      ****                 testFunction();
 244:.\main.c      ****                 break;
 245:.\main.c      ****             default: // reset to start screen if unexpected state
 246:.\main.c      ****                 state = START;
 247:.\main.c      ****                 break;
 248:.\main.c      ****         }
 249:.\main.c      ****     }                             
 250:.\main.c      **** }
 251:.\main.c      **** 
 252:.\main.c      **** // Called in TESTING mode for testing functionaliy of various systems
 253:.\main.c      **** void testFunction()
 254:.\main.c      **** {
 255:.\main.c      ****     // Function: Display Each Note (for testing purposes)
 256:.\main.c      ****     GUI_SetBkColor(GUI_WHITE);
 257:.\main.c      ****     GUI_SetColor(GUI_BLACK);
 258:.\main.c      ****     GUI_Clear();
 259:.\main.c      **** 
ARM GAS  C:\Users\IVYLIU~1\AppData\Local\Temp\cc0nPDNQ.s 			page 6


 260:.\main.c      ****     struct Notes *cur_note = notes;
 261:.\main.c      ****     const char *note = "Unrecognized note";
 262:.\main.c      **** 
 263:.\main.c      ****     while (cur_note->name) {
 264:.\main.c      ****         GUI_Clear();
 265:.\main.c      ****         drawClefs();
 266:.\main.c      ****         drawNote(cur_note->name);
 267:.\main.c      **** 
 268:.\main.c      ****         setPixel(cur_note->led_nums[0], 0, 100, 100);
 269:.\main.c      ****         setPixel(cur_note->led_nums[1], 0, 100, 100);
 270:.\main.c      ****         NP_Update();
 271:.\main.c      ****         CyDelay(1000);
 272:.\main.c      ****         setPixel(cur_note->led_nums[0], 0, 0, 0);
 273:.\main.c      ****         setPixel(cur_note->led_nums[1], 0, 0, 0);
 274:.\main.c      ****         NP_Update();
 275:.\main.c      ****         ++cur_note;
 276:.\main.c      ****     }
 277:.\main.c      **** 
 278:.\main.c      ****     return note;
 279:.\main.c      **** }
 280:.\main.c      **** 
 281:.\main.c      **** // Function: Wait for a note to be played, then display the note on clefs
 282:.\main.c      **** void detectAndDrawNote() {
 283:.\main.c      ****     GUI_SetBkColor(GUI_WHITE);
 284:.\main.c      ****     GUI_SetColor(GUI_BLACK);
 285:.\main.c      ****     GUI_Clear();
 286:.\main.c      ****     drawClefs();
 287:.\main.c      ****     drawNote(getNoteName(detectNote() - middle_c_bin));
 288:.\main.c      **** }
 289:.\main.c      **** 
 290:.\main.c      **** // Function: Turn off all LEDs on the strip
 291:.\main.c      **** void clearLEDs(void){
 292:.\main.c      ****     for(int i = 0; i < LED_NUM; i++) {
 293:.\main.c      ****         setPixel(i, 0, 0, 0);
 294:.\main.c      ****     }
 295:.\main.c      ****     NP_Update();
 296:.\main.c      **** 
 297:.\main.c      **** }
 298:.\main.c      **** 
 299:.\main.c      **** // Function: Given name of a note, sets the associated LEDs to the given color and updates
 300:.\main.c      **** // Inputs: input_name: name of note, r: red component, g: green component, b: blue component
 301:.\main.c      **** void setNote(char* input_name, int r, int g, int b) {
 302:.\main.c      ****     struct Notes *cur_note = notes;
 303:.\main.c      ****     while (cur_note->name) {
 304:.\main.c      ****         if (strcmp(cur_note->name, input_name) == 0) {
 305:.\main.c      ****             if (cur_note->led_nums[0] != 0) setPixel(cur_note->led_nums[0], r, g, b);
 306:.\main.c      ****             if (cur_note->led_nums[1] != 0) setPixel(cur_note->led_nums[1], r, g, b);
 307:.\main.c      ****             NP_Update();
 308:.\main.c      ****             break;
 309:.\main.c      ****         }
 310:.\main.c      ****         ++cur_note;
 311:.\main.c      ****     }
 312:.\main.c      **** 
 313:.\main.c      **** }
 314:.\main.c      **** 
 315:.\main.c      **** // Function: Given index of an LED, sets the associated LEDs to the given color
 316:.\main.c      **** // Inputs: i: index of LED, r: red component, g: green component, b: blue component
ARM GAS  C:\Users\IVYLIU~1\AppData\Local\Temp\cc0nPDNQ.s 			page 7


 317:.\main.c      **** void setPixel(int i, int r, int g, int b) {
  27              		.loc 1 317 0
  28              		.cfi_startproc
  29              		@ args = 0, pretend = 0, frame = 0
  30              		@ frame_needed = 0, uses_anonymous_args = 0
  31              	.LVL0:
  32 0000 10B5     		push	{r4, lr}
  33              		.cfi_def_cfa_offset 8
  34              		.cfi_offset 4, -8
  35              		.cfi_offset 14, -4
 318:.\main.c      ****     //Compute Green Component
 319:.\main.c      ****     pPixelArray[i*3] = g;
  36              		.loc 1 319 0
  37 0002 044C     		ldr	r4, .L2
  38 0004 00EB4000 		add	r0, r0, r0, lsl #1
  39              	.LVL1:
  40 0008 2254     		strb	r2, [r4, r0]
 320:.\main.c      ****     //Compute Red Component
 321:.\main.c      ****     pPixelArray[1+i*3] = r;
  41              		.loc 1 321 0
  42 000a 2044     		add	r0, r0, r4
  43 000c 4170     		strb	r1, [r0, #1]
 322:.\main.c      ****     //Compute Blue Component
 323:.\main.c      ****     pPixelArray[2+i*3] = b;
  44              		.loc 1 323 0
  45 000e 8370     		strb	r3, [r0, #2]
  46 0010 10BD     		pop	{r4, pc}
  47              	.L3:
  48 0012 00BF     		.align	2
  49              	.L2:
  50 0014 00000000 		.word	pPixelArray
  51              		.cfi_endproc
  52              	.LFE128:
  53              		.size	setPixel, .-setPixel
  54              		.section	.text.clearLEDs,"ax",%progbits
  55              		.align	1
  56              		.global	clearLEDs
  57              		.thumb
  58              		.thumb_func
  59              		.type	clearLEDs, %function
  60              	clearLEDs:
  61              	.LFB126:
 291:.\main.c      ****     for(int i = 0; i < LED_NUM; i++) {
  62              		.loc 1 291 0
  63              		.cfi_startproc
  64              		@ args = 0, pretend = 0, frame = 0
  65              		@ frame_needed = 0, uses_anonymous_args = 0
  66              	.LVL2:
  67 0000 10B5     		push	{r4, lr}
  68              		.cfi_def_cfa_offset 8
  69              		.cfi_offset 4, -8
  70              		.cfi_offset 14, -4
  71              	.LBB3:
 292:.\main.c      ****         setPixel(i, 0, 0, 0);
  72              		.loc 1 292 0
  73 0002 0024     		movs	r4, #0
  74              	.LVL3:
ARM GAS  C:\Users\IVYLIU~1\AppData\Local\Temp\cc0nPDNQ.s 			page 8


  75              	.L5:
 293:.\main.c      ****     }
  76              		.loc 1 293 0 discriminator 3
  77 0004 0021     		movs	r1, #0
  78 0006 2046     		mov	r0, r4
  79 0008 0A46     		mov	r2, r1
  80 000a 0B46     		mov	r3, r1
 292:.\main.c      ****         setPixel(i, 0, 0, 0);
  81              		.loc 1 292 0 discriminator 3
  82 000c 0134     		adds	r4, r4, #1
  83              	.LVL4:
 293:.\main.c      ****     }
  84              		.loc 1 293 0 discriminator 3
  85 000e FFF7FEFF 		bl	setPixel
  86              	.LVL5:
 292:.\main.c      ****         setPixel(i, 0, 0, 0);
  87              		.loc 1 292 0 discriminator 3
  88 0012 902C     		cmp	r4, #144
  89 0014 F6D1     		bne	.L5
  90              	.LBE3:
 297:.\main.c      **** 
  91              		.loc 1 297 0
  92 0016 BDE81040 		pop	{r4, lr}
  93              		.cfi_restore 14
  94              		.cfi_restore 4
  95              		.cfi_def_cfa_offset 0
  96              	.LVL6:
 295:.\main.c      **** 
  97              		.loc 1 295 0
  98 001a FFF7FEBF 		b	NP_Update
  99              	.LVL7:
 100              		.cfi_endproc
 101              	.LFE126:
 102              		.size	clearLEDs, .-clearLEDs
 103              		.section	.text.setNote,"ax",%progbits
 104              		.align	1
 105              		.global	setNote
 106              		.thumb
 107              		.thumb_func
 108              		.type	setNote, %function
 109              	setNote:
 110              	.LFB127:
 301:.\main.c      ****     struct Notes *cur_note = notes;
 111              		.loc 1 301 0
 112              		.cfi_startproc
 113              		@ args = 0, pretend = 0, frame = 0
 114              		@ frame_needed = 0, uses_anonymous_args = 0
 115              	.LVL8:
 116 0000 2DE9F041 		push	{r4, r5, r6, r7, r8, lr}
 117              		.cfi_def_cfa_offset 24
 118              		.cfi_offset 4, -24
 119              		.cfi_offset 5, -20
 120              		.cfi_offset 6, -16
 121              		.cfi_offset 7, -12
 122              		.cfi_offset 8, -8
 123              		.cfi_offset 14, -4
 301:.\main.c      ****     struct Notes *cur_note = notes;
ARM GAS  C:\Users\IVYLIU~1\AppData\Local\Temp\cc0nPDNQ.s 			page 9


 124              		.loc 1 301 0
 125 0004 8046     		mov	r8, r0
 126 0006 0D46     		mov	r5, r1
 127 0008 1646     		mov	r6, r2
 128 000a 1F46     		mov	r7, r3
 302:.\main.c      ****     while (cur_note->name) {
 129              		.loc 1 302 0
 130 000c 0E4C     		ldr	r4, .L21
 131              	.LVL9:
 132              	.L9:
 303:.\main.c      ****         if (strcmp(cur_note->name, input_name) == 0) {
 133              		.loc 1 303 0
 134 000e 2068     		ldr	r0, [r4]
 135 0010 B8B1     		cbz	r0, .L20
 304:.\main.c      ****             if (cur_note->led_nums[0] != 0) setPixel(cur_note->led_nums[0], r, g, b);
 136              		.loc 1 304 0
 137 0012 4146     		mov	r1, r8
 138 0014 FFF7FEFF 		bl	strcmp
 139              	.LVL10:
 140 0018 88B9     		cbnz	r0, .L10
 305:.\main.c      ****             if (cur_note->led_nums[1] != 0) setPixel(cur_note->led_nums[1], r, g, b);
 141              		.loc 1 305 0
 142 001a E068     		ldr	r0, [r4, #12]
 143 001c 20B1     		cbz	r0, .L11
 305:.\main.c      ****             if (cur_note->led_nums[1] != 0) setPixel(cur_note->led_nums[1], r, g, b);
 144              		.loc 1 305 0 is_stmt 0 discriminator 1
 145 001e 2946     		mov	r1, r5
 146 0020 3246     		mov	r2, r6
 147 0022 3B46     		mov	r3, r7
 148 0024 FFF7FEFF 		bl	setPixel
 149              	.LVL11:
 150              	.L11:
 306:.\main.c      ****             NP_Update();
 151              		.loc 1 306 0 is_stmt 1
 152 0028 2069     		ldr	r0, [r4, #16]
 153 002a 20B1     		cbz	r0, .L12
 306:.\main.c      ****             NP_Update();
 154              		.loc 1 306 0 is_stmt 0 discriminator 1
 155 002c 2946     		mov	r1, r5
 156 002e 3246     		mov	r2, r6
 157 0030 3B46     		mov	r3, r7
 158 0032 FFF7FEFF 		bl	setPixel
 159              	.LVL12:
 160              	.L12:
 313:.\main.c      **** 
 161              		.loc 1 313 0 is_stmt 1
 162 0036 BDE8F041 		pop	{r4, r5, r6, r7, r8, lr}
 163              		.cfi_remember_state
 164              		.cfi_restore 14
 165              		.cfi_restore 8
 166              		.cfi_restore 7
 167              		.cfi_restore 6
 168              		.cfi_restore 5
 169              		.cfi_restore 4
 170              		.cfi_def_cfa_offset 0
 171              	.LVL13:
 307:.\main.c      ****             break;
ARM GAS  C:\Users\IVYLIU~1\AppData\Local\Temp\cc0nPDNQ.s 			page 10


 172              		.loc 1 307 0
 173 003a FFF7FEBF 		b	NP_Update
 174              	.LVL14:
 175              	.L10:
 176              		.cfi_restore_state
 310:.\main.c      ****     }
 177              		.loc 1 310 0
 178 003e 1434     		adds	r4, r4, #20
 179              	.LVL15:
 180 0040 E5E7     		b	.L9
 181              	.L20:
 313:.\main.c      **** 
 182              		.loc 1 313 0
 183 0042 BDE8F081 		pop	{r4, r5, r6, r7, r8, pc}
 184              	.LVL16:
 185              	.L22:
 186 0046 00BF     		.align	2
 187              	.L21:
 188 0048 00000000 		.word	.LANCHOR0
 189              		.cfi_endproc
 190              	.LFE127:
 191              		.size	setNote, .-setNote
 192              		.global	__aeabi_ui2f
 193              		.section	.text.detectNote,"ax",%progbits
 194              		.align	1
 195              		.global	detectNote
 196              		.thumb
 197              		.thumb_func
 198              		.type	detectNote, %function
 199              	detectNote:
 200              	.LFB129:
 324:.\main.c      **** }
 325:.\main.c      **** 
 326:.\main.c      **** // Function: Waits for a note to be played, then 
 327:.\main.c      **** // Returns: int, which is the offset from middle C
 328:.\main.c      **** int detectNote() {
 201              		.loc 1 328 0
 202              		.cfi_startproc
 203              		@ args = 0, pretend = 0, frame = 8
 204              		@ frame_needed = 0, uses_anonymous_args = 0
 205              	.LVL17:
 206 0000 F7B5     		push	{r0, r1, r2, r4, r5, r6, r7, lr}
 207              		.cfi_def_cfa_offset 32
 208              		.cfi_offset 4, -20
 209              		.cfi_offset 5, -16
 210              		.cfi_offset 6, -12
 211              		.cfi_offset 7, -8
 212              		.cfi_offset 14, -4
 329:.\main.c      ****     int fft_start = 0;
 330:.\main.c      ****     uint16_t i = 0;
 213              		.loc 1 330 0
 214 0002 0024     		movs	r4, #0
 329:.\main.c      ****     int fft_start = 0;
 215              		.loc 1 329 0
 216 0004 2546     		mov	r5, r4
 217              	.LVL18:
 218              	.L25:
ARM GAS  C:\Users\IVYLIU~1\AppData\Local\Temp\cc0nPDNQ.s 			page 11


 331:.\main.c      **** 
 332:.\main.c      ****     while (SW3_Read()) {
 219              		.loc 1 332 0
 220 0006 FFF7FEFF 		bl	SW3_Read
 221              	.LVL19:
 222 000a 0028     		cmp	r0, #0
 223 000c 49D0     		beq	.L23
 333:.\main.c      ****         if(ADC_DelSig_1_IsEndConversion(ADC_DelSig_1_WAIT_FOR_RESULT) )
 224              		.loc 1 333 0
 225 000e 0020     		movs	r0, #0
 226 0010 FFF7FEFF 		bl	ADC_DelSig_1_IsEndConversion
 227              	.LVL20:
 228 0014 0028     		cmp	r0, #0
 229 0016 F6D0     		beq	.L25
 334:.\main.c      ****         {
 335:.\main.c      ****             adcResult = ADC_DelSig_1_GetResult32();		// read the adc and assign the value adcResult
 230              		.loc 1 335 0
 231 0018 FFF7FEFF 		bl	ADC_DelSig_1_GetResult32
 232              	.LVL21:
 336:.\main.c      ****             
 337:.\main.c      ****             // if the adc is above a certain threshold, start sampling for fft
 338:.\main.c      ****             if (adcResult > 36000 || adcResult < 30000) {
 233              		.loc 1 338 0
 234 001c 41F27073 		movw	r3, #6000
 335:.\main.c      ****             
 235              		.loc 1 335 0
 236 0020 214E     		ldr	r6, .L36
 237 0022 3060     		str	r0, [r6]
 238              		.loc 1 338 0
 239 0024 A0F5EA40 		sub	r0, r0, #29952
 240 0028 3038     		subs	r0, r0, #48
 241 002a 9842     		cmp	r0, r3
 242 002c 03D9     		bls	.L26
 339:.\main.c      ****                 adc_threshold_Write(1);
 243              		.loc 1 339 0
 244 002e 0120     		movs	r0, #1
 245 0030 FFF7FEFF 		bl	adc_threshold_Write
 246              	.LVL22:
 247 0034 01E0     		b	.L27
 248              	.LVL23:
 249              	.L26:
 340:.\main.c      ****                 fft_start = 1;
 341:.\main.c      ****             }
 342:.\main.c      ****             
 343:.\main.c      ****             if (fft_start) {
 250              		.loc 1 343 0
 251 0036 002D     		cmp	r5, #0
 252 0038 E5D0     		beq	.L25
 253              	.LVL24:
 254              	.L27:
 344:.\main.c      ****                 testInput[i] = adcResult;
 255              		.loc 1 344 0
 256 003a 3068     		ldr	r0, [r6]
 257 003c FFF7FEFF 		bl	__aeabi_ui2f
 258              	.LVL25:
 259 0040 1A4F     		ldr	r7, .L36+4
 260 0042 194D     		ldr	r5, .L36
ARM GAS  C:\Users\IVYLIU~1\AppData\Local\Temp\cc0nPDNQ.s 			page 12


 261 0044 47F82400 		str	r0, [r7, r4, lsl #2]	@ float
 345:.\main.c      ****                 i++;
 262              		.loc 1 345 0
 263 0048 0134     		adds	r4, r4, #1
 264 004a A4B2     		uxth	r4, r4
 265              	.LVL26:
 346:.\main.c      ****             
 347:.\main.c      ****                 if (i > 2047) {
 266              		.loc 1 347 0
 267 004c B4F5006F 		cmp	r4, #2048
 268 0050 25D3     		bcc	.L30
 269              	.LBB7:
 270              	.LBB8:
 271              	.LBB9:
 348:.\main.c      ****                     float32_t maxValue;
 349:.\main.c      ****                     arm_cfft_init_f32(&varInstCfftF32,fftSize);
 272              		.loc 1 349 0
 273 0052 174C     		ldr	r4, .L36+8
 274              	.LVL27:
 350:.\main.c      ****                     /* Process the data through the CFFT/CIFFT module */
 351:.\main.c      ****                     arm_cfft_f32(&varInstCfftF32, testInput, ifftFlag, doBitReverse);
 352:.\main.c      ****                     /* Process the data through the Complex Magnitude Module for
 353:.\main.c      ****                     calculating the magnitude at each bin */
 354:.\main.c      ****                     arm_cmplx_mag_f32(testInput, testOutput, fftSize);
 275              		.loc 1 354 0
 276 0054 174E     		ldr	r6, .L36+12
 349:.\main.c      ****                     /* Process the data through the CFFT/CIFFT module */
 277              		.loc 1 349 0
 278 0056 B4F83413 		ldrh	r1, [r4, #820]
 279 005a 1748     		ldr	r0, .L36+16
 280 005c FFF7FEFF 		bl	arm_cfft_init_f32
 281              	.LVL28:
 351:.\main.c      ****                     /* Process the data through the Complex Magnitude Module for
 282              		.loc 1 351 0
 283 0060 94F83833 		ldrb	r3, [r4, #824]	@ zero_extendqisi2
 284 0064 1448     		ldr	r0, .L36+16
 285 0066 3946     		mov	r1, r7
 286 0068 2A79     		ldrb	r2, [r5, #4]	@ zero_extendqisi2
 287 006a FFF7FEFF 		bl	arm_cfft_f32
 288              	.LVL29:
 289              		.loc 1 354 0
 290 006e 3846     		mov	r0, r7
 291 0070 3146     		mov	r1, r6
 292 0072 D4F83423 		ldr	r2, [r4, #820]
 293 0076 FFF7FEFF 		bl	arm_cmplx_mag_f32
 294              	.LVL30:
 355:.\main.c      ****                     /* Calculates maxValue and returns corresponding BIN value */
 356:.\main.c      ****                     testOutput[0] = 0;
 295              		.loc 1 356 0
 296 007a 0023     		movs	r3, #0
 357:.\main.c      ****                     arm_max_f32(testOutput, fftSize, &maxValue, &testIndex);
 297              		.loc 1 357 0
 298 007c D4F83413 		ldr	r1, [r4, #820]
 299 0080 01AA     		add	r2, sp, #4
 356:.\main.c      ****                     arm_max_f32(testOutput, fftSize, &maxValue, &testIndex);
 300              		.loc 1 356 0
 301 0082 3360     		str	r3, [r6]	@ float
ARM GAS  C:\Users\IVYLIU~1\AppData\Local\Temp\cc0nPDNQ.s 			page 13


 302              		.loc 1 357 0
 303 0084 3046     		mov	r0, r6
 304 0086 05F10803 		add	r3, r5, #8
 305 008a FFF7FEFF 		bl	arm_max_f32
 306              	.LVL31:
 358:.\main.c      ****                     
 359:.\main.c      ****                     i = 0;
 360:.\main.c      ****                     adc_threshold_Write(0);
 307              		.loc 1 360 0
 308 008e 0020     		movs	r0, #0
 309 0090 FFF7FEFF 		bl	adc_threshold_Write
 310              	.LVL32:
 361:.\main.c      ****                     fft_start = 0;
 362:.\main.c      ****                     CyDelay(250);									// delay in milliseconds
 311              		.loc 1 362 0
 312 0094 FA20     		movs	r0, #250
 313 0096 FFF7FEFF 		bl	CyDelay
 314              	.LVL33:
 363:.\main.c      ****                     return testIndex;
 315              		.loc 1 363 0
 316 009a A868     		ldr	r0, [r5, #8]
 317 009c 01E0     		b	.L23
 318              	.LVL34:
 319              	.L30:
 320              	.LBE9:
 321              	.LBE8:
 322              	.LBE7:
 323 009e 0125     		movs	r5, #1
 324 00a0 B1E7     		b	.L25
 325              	.LVL35:
 326              	.L23:
 364:.\main.c      ****                 }
 365:.\main.c      ****             }
 366:.\main.c      ****         }
 367:.\main.c      ****     }
 368:.\main.c      **** }
 327              		.loc 1 368 0
 328 00a2 03B0     		add	sp, sp, #12
 329              		.cfi_def_cfa_offset 20
 330              		@ sp needed
 331 00a4 F0BD     		pop	{r4, r5, r6, r7, pc}
 332              	.L37:
 333 00a6 00BF     		.align	2
 334              	.L36:
 335 00a8 00000000 		.word	.LANCHOR1
 336 00ac 00000000 		.word	testInput
 337 00b0 00000000 		.word	.LANCHOR0
 338 00b4 00000000 		.word	testOutput
 339 00b8 00000000 		.word	varInstCfftF32
 340              		.cfi_endproc
 341              	.LFE129:
 342              		.size	detectNote, .-detectNote
 343              		.section	.text.getNoteName,"ax",%progbits
 344              		.align	1
 345              		.global	getNoteName
 346              		.thumb
 347              		.thumb_func
ARM GAS  C:\Users\IVYLIU~1\AppData\Local\Temp\cc0nPDNQ.s 			page 14


 348              		.type	getNoteName, %function
 349              	getNoteName:
 350              	.LFB130:
 369:.\main.c      **** 
 370:.\main.c      **** // Function: Given offset of frequency bin from middle C, determines note name
 371:.\main.c      **** // Inputs: input_offset offset from middle C
 372:.\main.c      **** // Returns: char*, which is the name of the note
 373:.\main.c      **** char* getNoteName(int input_offset)
 374:.\main.c      **** {
 351              		.loc 1 374 0
 352              		.cfi_startproc
 353              		@ args = 0, pretend = 0, frame = 0
 354              		@ frame_needed = 0, uses_anonymous_args = 0
 355              		@ link register save eliminated.
 356              	.LVL36:
 357 0000 064B     		ldr	r3, .L43
 358              	.LVL37:
 359              	.L39:
 375:.\main.c      ****     struct Notes *cur_note = notes;
 376:.\main.c      ****     const char *note = "Unrecognized note";
 377:.\main.c      **** 
 378:.\main.c      ****     while (cur_note->name) {
 360              		.loc 1 378 0
 361 0002 53F8142C 		ldr	r2, [r3, #-20]
 362 0006 2AB1     		cbz	r2, .L42
 363 0008 1433     		adds	r3, r3, #20
 364              	.LVL38:
 379:.\main.c      ****         if (cur_note->offset == input_offset) {
 365              		.loc 1 379 0
 366 000a 53F8241C 		ldr	r1, [r3, #-36]
 367 000e 8142     		cmp	r1, r0
 368 0010 F7D1     		bne	.L39
 369 0012 00E0     		b	.L40
 370              	.LVL39:
 371              	.L42:
 376:.\main.c      **** 
 372              		.loc 1 376 0
 373 0014 024A     		ldr	r2, .L43+4
 374              	.LVL40:
 375              	.L40:
 380:.\main.c      ****                 note = cur_note->name;
 381:.\main.c      ****                 break;
 382:.\main.c      ****         }
 383:.\main.c      ****         ++cur_note;
 384:.\main.c      ****     }
 385:.\main.c      **** 
 386:.\main.c      ****     return note;
 387:.\main.c      **** }
 376              		.loc 1 387 0
 377 0016 1046     		mov	r0, r2
 378              	.LVL41:
 379 0018 7047     		bx	lr
 380              	.L44:
 381 001a 00BF     		.align	2
 382              	.L43:
 383 001c 14000000 		.word	.LANCHOR0+20
 384 0020 00000000 		.word	.LC0
ARM GAS  C:\Users\IVYLIU~1\AppData\Local\Temp\cc0nPDNQ.s 			page 15


 385              		.cfi_endproc
 386              	.LFE130:
 387              		.size	getNoteName, .-getNoteName
 388              		.section	.text.drawSongSelection,"ax",%progbits
 389              		.align	1
 390              		.global	drawSongSelection
 391              		.thumb
 392              		.thumb_func
 393              		.type	drawSongSelection, %function
 394              	drawSongSelection:
 395              	.LFB132:
 388:.\main.c      **** 
 389:.\main.c      **** // Function: Given a song index, displays each note in the song and waits for the note to be played
 390:.\main.c      **** void drawPlaySong(int song_index) {
 391:.\main.c      ****     // Setup
 392:.\main.c      ****     GUI_SetBkColor(GUI_WHITE);
 393:.\main.c      ****     GUI_SetColor(GUI_BLACK);
 394:.\main.c      ****     GUI_SetTextMode(GUI_TM_TRANS);
 395:.\main.c      ****     GUI_SetTextAlign(GUI_TA_VCENTER); // Bug: GUI_TA_HCENTER fails to center text horizontally
 396:.\main.c      **** 
 397:.\main.c      ****     GUI_Clear();
 398:.\main.c      ****     drawClefs();
 399:.\main.c      ****     
 400:.\main.c      ****     int note_index = 0;
 401:.\main.c      ****     char score_buf[3];
 402:.\main.c      ****     struct Songs cur_song = songs[song_index];
 403:.\main.c      ****     
 404:.\main.c      ****     // Display first note
 405:.\main.c      ****     drawNote(cur_song.note_seq[note_index]);
 406:.\main.c      ****     setNote(cur_song.note_seq[note_index], 0, 0, 100);
 407:.\main.c      ****     GUI_SetFont(&GUI_Font24B_ASCII);
 408:.\main.c      **** 
 409:.\main.c      ****     sprintf(score_buf, "%d", note_index);   //put index into str buffer for displaying score
 410:.\main.c      ****     GUI_DispStringHCenterAt("Score", SCREEN_WIDTH/2 - 20, 280);
 411:.\main.c      ****     GUI_DispStringHCenterAt(score_buf, SCREEN_WIDTH/2 + 40, 280);
 412:.\main.c      ****     
 413:.\main.c      ****     // Exits playing if SW3 is pressed
 414:.\main.c      ****     while (SW3_Read()) {
 415:.\main.c      ****         // Detect if note is played
 416:.\main.c      ****         // If correct note, flash LEDs green, then move onto the next note
 417:.\main.c      ****         if (strcmp(getNoteName(detectNote() - middle_c_bin), cur_song.note_seq[note_index]) == 0) {
 418:.\main.c      ****             while(!SW2_Read());
 419:.\main.c      ****             // flash LEDs green
 420:.\main.c      ****             setNote(cur_song.note_seq[note_index], 0, 100, 0);
 421:.\main.c      ****             CyDelay(50);
 422:.\main.c      **** 
 423:.\main.c      ****             // Erase current note and score drawing, turn off associated leds
 424:.\main.c      ****             GUI_SetColor(GUI_WHITE);
 425:.\main.c      ****             drawNote(cur_song.note_seq[note_index]);
 426:.\main.c      ****             clearLEDs();
 427:.\main.c      ****             
 428:.\main.c      ****             GUI_SetFont(&GUI_Font24B_ASCII);
 429:.\main.c      ****             GUI_DispStringHCenterAt("Score", SCREEN_WIDTH/2 - 20, 280);
 430:.\main.c      ****             GUI_DispStringHCenterAt(score_buf, SCREEN_WIDTH/2 + 40, 280);
 431:.\main.c      ****             
 432:.\main.c      ****             // Redraw clefs
 433:.\main.c      ****             GUI_SetColor(GUI_BLACK);
ARM GAS  C:\Users\IVYLIU~1\AppData\Local\Temp\cc0nPDNQ.s 			page 16


 434:.\main.c      ****             drawClefs();
 435:.\main.c      ****             
 436:.\main.c      ****             // Determine next note
 437:.\main.c      ****             note_index++;
 438:.\main.c      ****             sprintf(score_buf, "%d", note_index);   //put index into str buffer for displaying scor
 439:.\main.c      ****             
 440:.\main.c      ****             if (note_index >= cur_song.song_length) {
 441:.\main.c      ****                 // print final score then exit playing mode
 442:.\main.c      ****                 GUI_DispStringHCenterAt("Well Done!", SCREEN_WIDTH/2, 240);
 443:.\main.c      ****                 GUI_DispStringHCenterAt("Score", SCREEN_WIDTH/2 - 20, 280);
 444:.\main.c      ****                 GUI_DispStringHCenterAt(score_buf, SCREEN_WIDTH/2 + 40, 280);
 445:.\main.c      ****                 break;
 446:.\main.c      ****             } else {
 447:.\main.c      ****                 // show next note and display score, turn on associated leds
 448:.\main.c      ****                 GUI_DispStringHCenterAt("Score", SCREEN_WIDTH/2 - 20, 280);
 449:.\main.c      ****                 GUI_DispStringHCenterAt(score_buf, SCREEN_WIDTH/2 + 40, 280);
 450:.\main.c      ****                 drawNote(cur_song.note_seq[note_index]);
 451:.\main.c      ****                 setNote(cur_song.note_seq[note_index], 0, 0, 100);
 452:.\main.c      ****             }
 453:.\main.c      ****         } else {
 454:.\main.c      ****             // If incorrect note, flash LEDs red, then let user try again
 455:.\main.c      ****             setNote(cur_song.note_seq[note_index], 100, 0, 0);
 456:.\main.c      ****             CyDelay(50);
 457:.\main.c      ****             setNote(cur_song.note_seq[note_index], 0, 0, 100);
 458:.\main.c      ****         }
 459:.\main.c      ****     }
 460:.\main.c      **** }
 461:.\main.c      **** 
 462:.\main.c      **** // Function: Displays and controls user interface associated with song selection
 463:.\main.c      **** int drawSongSelection(){
 396              		.loc 1 463 0
 397              		.cfi_startproc
 398              		@ args = 0, pretend = 0, frame = 0
 399              		@ frame_needed = 0, uses_anonymous_args = 0
 400 0000 70B5     		push	{r4, r5, r6, lr}
 401              		.cfi_def_cfa_offset 16
 402              		.cfi_offset 4, -16
 403              		.cfi_offset 5, -12
 404              		.cfi_offset 6, -8
 405              		.cfi_offset 14, -4
 464:.\main.c      ****     // Setup
 465:.\main.c      ****     GUI_SetBkColor(GUI_WHITE);
 406              		.loc 1 465 0
 407 0002 4FF0FF30 		mov	r0, #-1
 408 0006 FFF7FEFF 		bl	GUI_SetBkColor
 409              	.LVL42:
 466:.\main.c      ****     GUI_SetColor(GUI_BLACK);
 410              		.loc 1 466 0
 411 000a 4FF07F40 		mov	r0, #-16777216
 412 000e FFF7FEFF 		bl	GUI_SetColor
 413              	.LVL43:
 467:.\main.c      ****     GUI_SetFont(&GUI_Font16B_ASCII);
 414              		.loc 1 467 0
 415 0012 3048     		ldr	r0, .L53
 416 0014 FFF7FEFF 		bl	GUI_SetFont
 417              	.LVL44:
 468:.\main.c      ****     GUI_SetTextMode(GUI_TM_TRANS);
ARM GAS  C:\Users\IVYLIU~1\AppData\Local\Temp\cc0nPDNQ.s 			page 17


 418              		.loc 1 468 0
 419 0018 0220     		movs	r0, #2
 420 001a FFF7FEFF 		bl	GUI_SetTextMode
 421              	.LVL45:
 469:.\main.c      ****     GUI_SetTextAlign(GUI_TA_VCENTER); // Bug: GUI_TA_HCENTER fails to center text horizontally
 422              		.loc 1 469 0
 423 001e 0C20     		movs	r0, #12
 424 0020 FFF7FEFF 		bl	GUI_SetTextAlign
 425              	.LVL46:
 470:.\main.c      ****     
 471:.\main.c      ****     GUI_Clear();
 426              		.loc 1 471 0
 427 0024 FFF7FEFF 		bl	GUI_Clear
 428              	.LVL47:
 472:.\main.c      **** 
 473:.\main.c      ****     // Display page title + first song name
 474:.\main.c      ****     int song_index = 0;
 475:.\main.c      ****     GUI_SetFont(&GUI_Font32B_ASCII);
 429              		.loc 1 475 0
 430 0028 2B48     		ldr	r0, .L53+4
 431 002a FFF7FEFF 		bl	GUI_SetFont
 432              	.LVL48:
 476:.\main.c      ****     GUI_DispStringHCenterAt("Song Selection", SCREEN_WIDTH/2, 20);
 433              		.loc 1 476 0
 434 002e 7821     		movs	r1, #120
 435 0030 1422     		movs	r2, #20
 436 0032 2A48     		ldr	r0, .L53+8
 437 0034 FFF7FEFF 		bl	GUI_DispStringHCenterAt
 438              	.LVL49:
 477:.\main.c      ****     
 478:.\main.c      ****     GUI_SetFont(&GUI_Font16B_ASCII);
 439              		.loc 1 478 0
 440 0038 2648     		ldr	r0, .L53
 441 003a FFF7FEFF 		bl	GUI_SetFont
 442              	.LVL50:
 479:.\main.c      ****     GUI_DispStringHCenterAt("Press SW2 for next option.", SCREEN_WIDTH/2,60);
 443              		.loc 1 479 0
 444 003e 2848     		ldr	r0, .L53+12
 445 0040 7821     		movs	r1, #120
 446 0042 3C22     		movs	r2, #60
 447 0044 FFF7FEFF 		bl	GUI_DispStringHCenterAt
 448              	.LVL51:
 480:.\main.c      ****     GUI_DispStringHCenterAt("Press SW3 to confirm selection.", SCREEN_WIDTH/2,80);
 481:.\main.c      ****     
 482:.\main.c      ****     GUI_SetFont(&GUI_Font32B_ASCII);
 483:.\main.c      ****     GUI_DispStringHCenterAt(songs[song_index].name, SCREEN_WIDTH/2, 320/2);
 449              		.loc 1 483 0
 450 0048 264D     		ldr	r5, .L53+16
 480:.\main.c      ****     GUI_DispStringHCenterAt("Press SW3 to confirm selection.", SCREEN_WIDTH/2,80);
 451              		.loc 1 480 0
 452 004a 7821     		movs	r1, #120
 453 004c 5022     		movs	r2, #80
 454 004e 2648     		ldr	r0, .L53+20
 455 0050 FFF7FEFF 		bl	GUI_DispStringHCenterAt
 456              	.LVL52:
 482:.\main.c      ****     GUI_DispStringHCenterAt(songs[song_index].name, SCREEN_WIDTH/2, 320/2);
 457              		.loc 1 482 0
ARM GAS  C:\Users\IVYLIU~1\AppData\Local\Temp\cc0nPDNQ.s 			page 18


 458 0054 2048     		ldr	r0, .L53+4
 459 0056 FFF7FEFF 		bl	GUI_SetFont
 460              	.LVL53:
 461              		.loc 1 483 0
 462 005a D5F84003 		ldr	r0, [r5, #832]
 463 005e 7821     		movs	r1, #120
 464 0060 A022     		movs	r2, #160
 465 0062 FFF7FEFF 		bl	GUI_DispStringHCenterAt
 466              	.LVL54:
 474:.\main.c      ****     GUI_SetFont(&GUI_Font32B_ASCII);
 467              		.loc 1 474 0
 468 0066 0024     		movs	r4, #0
 469              	.LVL55:
 470              	.L47:
 484:.\main.c      ****     
 485:.\main.c      ****     // Wait for song to be selected
 486:.\main.c      ****     while (SW3_Read()) {
 471              		.loc 1 486 0
 472 0068 FFF7FEFF 		bl	SW3_Read
 473              	.LVL56:
 474 006c F0B1     		cbz	r0, .L49
 487:.\main.c      ****         // Cycle to next song when SW3 pressed
 488:.\main.c      ****         if (!SW2_Read()) {
 475              		.loc 1 488 0
 476 006e FFF7FEFF 		bl	SW2_Read
 477              	.LVL57:
 478 0072 0646     		mov	r6, r0
 479 0074 0028     		cmp	r0, #0
 480 0076 F7D1     		bne	.L47
 481              	.LVL58:
 489:.\main.c      ****             song_index++;
 490:.\main.c      ****             song_index %= SONGS_LENGTH;
 491:.\main.c      ****             GUI_SetColor(GUI_GetBkColor());
 482              		.loc 1 491 0
 483 0078 FFF7FEFF 		bl	GUI_GetBkColor
 484              	.LVL59:
 485 007c FFF7FEFF 		bl	GUI_SetColor
 486              	.LVL60:
 492:.\main.c      ****             GUI_FillRect(0, 100, 240, 300);
 487              		.loc 1 492 0
 488 0080 3046     		mov	r0, r6
 489 0082 6421     		movs	r1, #100
 490 0084 F022     		movs	r2, #240
 491 0086 4FF49673 		mov	r3, #300
 492 008a FFF7FEFF 		bl	GUI_FillRect
 493              	.LVL61:
 490:.\main.c      ****             GUI_SetColor(GUI_GetBkColor());
 494              		.loc 1 490 0
 495 008e 84F00104 		eor	r4, r4, #1
 496              	.LVL62:
 493:.\main.c      ****             GUI_SetColor(GUI_BLACK);
 497              		.loc 1 493 0
 498 0092 4FF07F40 		mov	r0, #-16777216
 499 0096 FFF7FEFF 		bl	GUI_SetColor
 500              	.LVL63:
 494:.\main.c      ****             GUI_DispStringHCenterAt(songs[song_index].name, SCREEN_WIDTH/2, 160);
 501              		.loc 1 494 0
ARM GAS  C:\Users\IVYLIU~1\AppData\Local\Temp\cc0nPDNQ.s 			page 19


 502 009a 05EB0413 		add	r3, r5, r4, lsl #4
 503 009e D3F84003 		ldr	r0, [r3, #832]
 504 00a2 7821     		movs	r1, #120
 505 00a4 A022     		movs	r2, #160
 506 00a6 FFF7FEFF 		bl	GUI_DispStringHCenterAt
 507              	.LVL64:
 508 00aa DDE7     		b	.L47
 509              	.LVL65:
 510              	.L49:
 495:.\main.c      ****         }   
 496:.\main.c      ****     }
 497:.\main.c      ****     
 498:.\main.c      ****     while (!SW3_Read())
 511              		.loc 1 498 0
 512 00ac FFF7FEFF 		bl	SW3_Read
 513              	.LVL66:
 514 00b0 10B9     		cbnz	r0, .L52
 499:.\main.c      **** 
 500:.\main.c      ****     //Song Selection Confirmation
 501:.\main.c      ****     GUI_Clear();
 515              		.loc 1 501 0
 516 00b2 FFF7FEFF 		bl	GUI_Clear
 517              	.LVL67:
 518 00b6 F9E7     		b	.L49
 519              	.L52:
 502:.\main.c      ****     GUI_SetFont(&GUI_Font32B_ASCII);
 520              		.loc 1 502 0
 521 00b8 0748     		ldr	r0, .L53+4
 522 00ba FFF7FEFF 		bl	GUI_SetFont
 523              	.LVL68:
 503:.\main.c      ****     GUI_DispStringHCenterAt("Song Selected!\nPlay the keys as\nthey are shown!", SCREEN_WIDTH/2, 10
 524              		.loc 1 503 0
 525 00be 7821     		movs	r1, #120
 526 00c0 6422     		movs	r2, #100
 527 00c2 0A48     		ldr	r0, .L53+24
 528 00c4 FFF7FEFF 		bl	GUI_DispStringHCenterAt
 529              	.LVL69:
 504:.\main.c      ****     CyDelay(500);
 530              		.loc 1 504 0
 531 00c8 4FF4FA70 		mov	r0, #500
 532 00cc FFF7FEFF 		bl	CyDelay
 533              	.LVL70:
 505:.\main.c      ****     return song_index;
 506:.\main.c      **** }
 534              		.loc 1 506 0
 535 00d0 2046     		mov	r0, r4
 536 00d2 70BD     		pop	{r4, r5, r6, pc}
 537              	.L54:
 538              		.align	2
 539              	.L53:
 540 00d4 00000000 		.word	GUI_Font16B_ASCII
 541 00d8 00000000 		.word	GUI_Font32B_ASCII
 542 00dc 12000000 		.word	.LC1
 543 00e0 21000000 		.word	.LC2
 544 00e4 00000000 		.word	.LANCHOR0
 545 00e8 3C000000 		.word	.LC3
 546 00ec 5C000000 		.word	.LC4
ARM GAS  C:\Users\IVYLIU~1\AppData\Local\Temp\cc0nPDNQ.s 			page 20


 547              		.cfi_endproc
 548              	.LFE132:
 549              		.size	drawSongSelection, .-drawSongSelection
 550              		.section	.text.drawCalibrateScreen,"ax",%progbits
 551              		.align	1
 552              		.global	drawCalibrateScreen
 553              		.thumb
 554              		.thumb_func
 555              		.type	drawCalibrateScreen, %function
 556              	drawCalibrateScreen:
 557              	.LFB133:
 507:.\main.c      **** 
 508:.\main.c      **** // Function: Displays buttons and text of calibrate screen
 509:.\main.c      **** void drawCalibrateScreen(){
 558              		.loc 1 509 0
 559              		.cfi_startproc
 560              		@ args = 0, pretend = 0, frame = 0
 561              		@ frame_needed = 0, uses_anonymous_args = 0
 562 0000 08B5     		push	{r3, lr}
 563              		.cfi_def_cfa_offset 8
 564              		.cfi_offset 3, -8
 565              		.cfi_offset 14, -4
 510:.\main.c      ****     // Setup
 511:.\main.c      ****     GUI_SetBkColor(GUI_WHITE);
 566              		.loc 1 511 0
 567 0002 4FF0FF30 		mov	r0, #-1
 568 0006 FFF7FEFF 		bl	GUI_SetBkColor
 569              	.LVL71:
 512:.\main.c      ****     GUI_SetColor(GUI_BLACK);
 570              		.loc 1 512 0
 571 000a 4FF07F40 		mov	r0, #-16777216
 572 000e FFF7FEFF 		bl	GUI_SetColor
 573              	.LVL72:
 513:.\main.c      ****     GUI_SetFont(&GUI_Font20B_ASCII);
 574              		.loc 1 513 0
 575 0012 0948     		ldr	r0, .L56
 576 0014 FFF7FEFF 		bl	GUI_SetFont
 577              	.LVL73:
 514:.\main.c      ****     GUI_SetTextMode(GUI_TM_TRANS);
 578              		.loc 1 514 0
 579 0018 0220     		movs	r0, #2
 580 001a FFF7FEFF 		bl	GUI_SetTextMode
 581              	.LVL74:
 515:.\main.c      ****     GUI_SetTextAlign(GUI_TA_VCENTER); // Bug: GUI_TA_HCENTER fails to center text horizontally
 582              		.loc 1 515 0
 583 001e 0C20     		movs	r0, #12
 584 0020 FFF7FEFF 		bl	GUI_SetTextAlign
 585              	.LVL75:
 516:.\main.c      ****     
 517:.\main.c      ****     GUI_Clear();
 586              		.loc 1 517 0
 587 0024 FFF7FEFF 		bl	GUI_Clear
 588              	.LVL76:
 518:.\main.c      **** 
 519:.\main.c      ****     GUI_DispStringHCenterAt("Line up lit LEDs over\nthe middle C key.\nThen, play it.", SCREEN_WIDT
 520:.\main.c      **** }
 589              		.loc 1 520 0
ARM GAS  C:\Users\IVYLIU~1\AppData\Local\Temp\cc0nPDNQ.s 			page 21


 590 0028 BDE80840 		pop	{r3, lr}
 591              		.cfi_restore 14
 592              		.cfi_restore 3
 593              		.cfi_def_cfa_offset 0
 519:.\main.c      **** }
 594              		.loc 1 519 0
 595 002c 7821     		movs	r1, #120
 596 002e 0348     		ldr	r0, .L56+4
 597 0030 0A46     		mov	r2, r1
 598 0032 FFF7FEBF 		b	GUI_DispStringHCenterAt
 599              	.LVL77:
 600              	.L57:
 601 0036 00BF     		.align	2
 602              	.L56:
 603 0038 00000000 		.word	GUI_Font20B_ASCII
 604 003c 8C000000 		.word	.LC5
 605              		.cfi_endproc
 606              	.LFE133:
 607              		.size	drawCalibrateScreen, .-drawCalibrateScreen
 608              		.section	.text.drawStartScreen,"ax",%progbits
 609              		.align	1
 610              		.global	drawStartScreen
 611              		.thumb
 612              		.thumb_func
 613              		.type	drawStartScreen, %function
 614              	drawStartScreen:
 615              	.LFB134:
 521:.\main.c      **** 
 522:.\main.c      **** // Function: Displays buttons and text of start screen
 523:.\main.c      **** void drawStartScreen(){
 616              		.loc 1 523 0
 617              		.cfi_startproc
 618              		@ args = 0, pretend = 0, frame = 0
 619              		@ frame_needed = 0, uses_anonymous_args = 0
 620 0000 13B5     		push	{r0, r1, r4, lr}
 621              		.cfi_def_cfa_offset 16
 622              		.cfi_offset 4, -8
 623              		.cfi_offset 14, -4
 524:.\main.c      ****     // Setup
 525:.\main.c      ****     GUI_SetBkColor(GUI_WHITE);
 624              		.loc 1 525 0
 625 0002 4FF0FF30 		mov	r0, #-1
 626 0006 FFF7FEFF 		bl	GUI_SetBkColor
 627              	.LVL78:
 526:.\main.c      ****     GUI_SetColor(GUI_BLACK);
 628              		.loc 1 526 0
 629 000a 4FF07F40 		mov	r0, #-16777216
 630 000e FFF7FEFF 		bl	GUI_SetColor
 631              	.LVL79:
 527:.\main.c      ****     GUI_SetFont(&GUI_Font32B_ASCII);
 632              		.loc 1 527 0
 633 0012 1E48     		ldr	r0, .L59
 634 0014 FFF7FEFF 		bl	GUI_SetFont
 635              	.LVL80:
 528:.\main.c      ****     GUI_SetTextMode(GUI_TM_TRANS);
 636              		.loc 1 528 0
 637 0018 0220     		movs	r0, #2
ARM GAS  C:\Users\IVYLIU~1\AppData\Local\Temp\cc0nPDNQ.s 			page 22


 638 001a FFF7FEFF 		bl	GUI_SetTextMode
 639              	.LVL81:
 529:.\main.c      ****     GUI_SetTextAlign(GUI_TA_VCENTER); // Bug: GUI_TA_HCENTER fails to center text horizontally
 640              		.loc 1 529 0
 641 001e 0C20     		movs	r0, #12
 642 0020 FFF7FEFF 		bl	GUI_SetTextAlign
 643              	.LVL82:
 530:.\main.c      ****     
 531:.\main.c      ****     GUI_Clear();
 644              		.loc 1 531 0
 645 0024 FFF7FEFF 		bl	GUI_Clear
 646              	.LVL83:
 532:.\main.c      **** 
 533:.\main.c      ****     GUI_DispStringHCenterAt("Welcome to\nPiano Tiles!", SCREEN_WIDTH/2, 40);
 647              		.loc 1 533 0
 648 0028 7821     		movs	r1, #120
 649 002a 2822     		movs	r2, #40
 650 002c 1848     		ldr	r0, .L59+4
 651 002e FFF7FEFF 		bl	GUI_DispStringHCenterAt
 652              	.LVL84:
 534:.\main.c      **** 
 535:.\main.c      ****     // Button 1: Play
 536:.\main.c      ****     GUI_SetColor(GUI_GREEN);
 653              		.loc 1 536 0
 654 0032 4FF0FF20 		mov	r0, #-16711936
 655 0036 FFF7FEFF 		bl	GUI_SetColor
 656              	.LVL85:
 537:.\main.c      ****     GUI_FillRoundedRect(40, 120, 200, 200, 10);
 657              		.loc 1 537 0
 658 003a 0A24     		movs	r4, #10
 659 003c C822     		movs	r2, #200
 660 003e 1346     		mov	r3, r2
 661 0040 7821     		movs	r1, #120
 662 0042 0094     		str	r4, [sp]
 663 0044 2820     		movs	r0, #40
 664 0046 FFF7FEFF 		bl	GUI_FillRoundedRect
 665              	.LVL86:
 538:.\main.c      ****     GUI_SetColor(GUI_WHITE);
 666              		.loc 1 538 0
 667 004a 4FF0FF30 		mov	r0, #-1
 668 004e FFF7FEFF 		bl	GUI_SetColor
 669              	.LVL87:
 539:.\main.c      ****     GUI_DispStringHCenterAt("Play", SCREEN_WIDTH/2, 160);
 670              		.loc 1 539 0
 671 0052 7821     		movs	r1, #120
 672 0054 A022     		movs	r2, #160
 673 0056 0F48     		ldr	r0, .L59+8
 674 0058 FFF7FEFF 		bl	GUI_DispStringHCenterAt
 675              	.LVL88:
 540:.\main.c      **** 
 541:.\main.c      ****     // Button 2: Calibrate
 542:.\main.c      ****     GUI_SetColor(GUI_BLUE);
 676              		.loc 1 542 0
 677 005c 0E48     		ldr	r0, .L59+12
 678 005e FFF7FEFF 		bl	GUI_SetColor
 679              	.LVL89:
 543:.\main.c      ****     GUI_FillRoundedRect(40, 220, 200, 300, 10);
ARM GAS  C:\Users\IVYLIU~1\AppData\Local\Temp\cc0nPDNQ.s 			page 23


 680              		.loc 1 543 0
 681 0062 DC21     		movs	r1, #220
 682 0064 C822     		movs	r2, #200
 683 0066 4FF49673 		mov	r3, #300
 684 006a 0094     		str	r4, [sp]
 685 006c 2820     		movs	r0, #40
 686 006e FFF7FEFF 		bl	GUI_FillRoundedRect
 687              	.LVL90:
 544:.\main.c      ****     GUI_SetColor(GUI_WHITE);
 688              		.loc 1 544 0
 689 0072 4FF0FF30 		mov	r0, #-1
 690 0076 FFF7FEFF 		bl	GUI_SetColor
 691              	.LVL91:
 545:.\main.c      ****     GUI_DispStringHCenterAt("Calibrate", SCREEN_WIDTH/2, 260);
 692              		.loc 1 545 0
 693 007a 0848     		ldr	r0, .L59+16
 694 007c 7821     		movs	r1, #120
 695 007e 4FF48272 		mov	r2, #260
 546:.\main.c      **** }
 696              		.loc 1 546 0
 697 0082 02B0     		add	sp, sp, #8
 698              		.cfi_def_cfa_offset 8
 699              		@ sp needed
 700 0084 BDE81040 		pop	{r4, lr}
 701              		.cfi_restore 14
 702              		.cfi_restore 4
 703              		.cfi_def_cfa_offset 0
 545:.\main.c      ****     GUI_DispStringHCenterAt("Calibrate", SCREEN_WIDTH/2, 260);
 704              		.loc 1 545 0
 705 0088 FFF7FEBF 		b	GUI_DispStringHCenterAt
 706              	.LVL92:
 707              	.L60:
 708              		.align	2
 709              	.L59:
 710 008c 00000000 		.word	GUI_Font32B_ASCII
 711 0090 C3000000 		.word	.LC6
 712 0094 DB000000 		.word	.LC7
 713 0098 FF0000FF 		.word	-16776961
 714 009c E0000000 		.word	.LC8
 715              		.cfi_endproc
 716              	.LFE134:
 717              		.size	drawStartScreen, .-drawStartScreen
 718              		.section	.text.drawNote,"ax",%progbits
 719              		.align	1
 720              		.global	drawNote
 721              		.thumb
 722              		.thumb_func
 723              		.type	drawNote, %function
 724              	drawNote:
 725              	.LFB135:
 547:.\main.c      **** 
 548:.\main.c      **** // Function: Given a note name, displays the note without clefs
 549:.\main.c      **** void drawNote(char* input_name){
 726              		.loc 1 549 0
 727              		.cfi_startproc
 728              		@ args = 0, pretend = 0, frame = 0
 729              		@ frame_needed = 0, uses_anonymous_args = 0
ARM GAS  C:\Users\IVYLIU~1\AppData\Local\Temp\cc0nPDNQ.s 			page 24


 730              	.LVL93:
 731 0000 10B5     		push	{r4, lr}
 732              		.cfi_def_cfa_offset 8
 733              		.cfi_offset 4, -8
 734              		.cfi_offset 14, -4
 735              		.loc 1 549 0
 736 0002 0446     		mov	r4, r0
 550:.\main.c      ****     // Center text and set size
 551:.\main.c      ****     GUI_SetFont(&GUI_Font32B_ASCII);
 737              		.loc 1 551 0
 738 0004 B448     		ldr	r0, .L104
 739              	.LVL94:
 740 0006 FFF7FEFF 		bl	GUI_SetFont
 741              	.LVL95:
 552:.\main.c      ****     GUI_SetTextMode(GUI_TM_TRANS);
 742              		.loc 1 552 0
 743 000a 0220     		movs	r0, #2
 744 000c FFF7FEFF 		bl	GUI_SetTextMode
 745              	.LVL96:
 553:.\main.c      ****     GUI_SetTextAlign(GUI_TA_HCENTER | GUI_TA_VCENTER);
 746              		.loc 1 553 0
 747 0010 0E20     		movs	r0, #14
 748 0012 FFF7FEFF 		bl	GUI_SetTextAlign
 749              	.LVL97:
 554:.\main.c      ****     
 555:.\main.c      ****     int text_x = SCREEN_WIDTH/2;
 556:.\main.c      ****     int text_y = 240;
 557:.\main.c      ****     
 558:.\main.c      ****     if (strcmp(input_name, "G5") == 0) {
 750              		.loc 1 558 0
 751 0016 2046     		mov	r0, r4
 752 0018 B049     		ldr	r1, .L104+4
 753 001a FFF7FEFF 		bl	strcmp
 754              	.LVL98:
 755 001e 38B9     		cbnz	r0, .L62
 559:.\main.c      ****         GUI_FillEllipse(SCREEN_WIDTH/2, TOP_MARGIN - NOTE_SPACING, NOTE_WIDTH, NOTE_HEIGHT);
 756              		.loc 1 559 0
 757 0020 7820     		movs	r0, #120
 758 0022 0D21     		movs	r1, #13
 759 0024 0C22     		movs	r2, #12
 760 0026 0823     		movs	r3, #8
 761 0028 FFF7FEFF 		bl	GUI_FillEllipse
 762              	.LVL99:
 560:.\main.c      ****         GUI_DispStringAt("G5", text_x, text_y);
 763              		.loc 1 560 0
 764 002c AB48     		ldr	r0, .L104+4
 765 002e C1E2     		b	.L102
 766              	.L62:
 561:.\main.c      ****     } else if (strcmp(input_name, "F#5") == 0) {
 767              		.loc 1 561 0
 768 0030 2046     		mov	r0, r4
 769 0032 AB49     		ldr	r1, .L104+8
 770 0034 FFF7FEFF 		bl	strcmp
 771              	.LVL100:
 772 0038 88B9     		cbnz	r0, .L63
 562:.\main.c      ****         GUI_FillEllipse(SCREEN_WIDTH/2, TOP_MARGIN, NOTE_WIDTH, NOTE_HEIGHT);
 773              		.loc 1 562 0
ARM GAS  C:\Users\IVYLIU~1\AppData\Local\Temp\cc0nPDNQ.s 			page 25


 774 003a 0823     		movs	r3, #8
 775 003c 7820     		movs	r0, #120
 776 003e 1421     		movs	r1, #20
 777 0040 0C22     		movs	r2, #12
 778 0042 FFF7FEFF 		bl	GUI_FillEllipse
 779              	.LVL101:
 563:.\main.c      ****         GUI_DispStringAt("F#5", text_x, text_y);
 780              		.loc 1 563 0
 781 0046 7821     		movs	r1, #120
 782 0048 F022     		movs	r2, #240
 783 004a A548     		ldr	r0, .L104+8
 784 004c FFF7FEFF 		bl	GUI_DispStringAt
 785              	.LVL102:
 564:.\main.c      **** 
 565:.\main.c      ****         GUI_SetFont(&GUI_Font24B_ASCII);
 786              		.loc 1 565 0
 787 0050 A448     		ldr	r0, .L104+12
 788 0052 FFF7FEFF 		bl	GUI_SetFont
 789              	.LVL103:
 566:.\main.c      ****         GUI_DispStringAt("#", SCREEN_WIDTH/2 + 2*NOTE_WIDTH, TOP_MARGIN);
 790              		.loc 1 566 0
 791 0056 A448     		ldr	r0, .L104+16
 792 0058 9021     		movs	r1, #144
 793 005a 1422     		movs	r2, #20
 794 005c ACE2     		b	.L103
 795              	.L63:
 567:.\main.c      ****     } else if (strcmp(input_name, "F5") == 0) {
 796              		.loc 1 567 0
 797 005e 2046     		mov	r0, r4
 798 0060 A249     		ldr	r1, .L104+20
 799 0062 FFF7FEFF 		bl	strcmp
 800              	.LVL104:
 801 0066 38B9     		cbnz	r0, .L64
 568:.\main.c      ****         GUI_FillEllipse(SCREEN_WIDTH/2, TOP_MARGIN, NOTE_WIDTH, NOTE_HEIGHT);
 802              		.loc 1 568 0
 803 0068 7820     		movs	r0, #120
 804 006a 1421     		movs	r1, #20
 805 006c 0C22     		movs	r2, #12
 806 006e 0823     		movs	r3, #8
 807 0070 FFF7FEFF 		bl	GUI_FillEllipse
 808              	.LVL105:
 569:.\main.c      ****         GUI_DispStringAt("F5", text_x, text_y);
 809              		.loc 1 569 0
 810 0074 9D48     		ldr	r0, .L104+20
 811 0076 9DE2     		b	.L102
 812              	.L64:
 570:.\main.c      ****     } else if (strcmp(input_name, "E5") == 0) {
 813              		.loc 1 570 0
 814 0078 2046     		mov	r0, r4
 815 007a 9D49     		ldr	r1, .L104+24
 816 007c FFF7FEFF 		bl	strcmp
 817              	.LVL106:
 818 0080 38B9     		cbnz	r0, .L65
 571:.\main.c      ****         GUI_FillEllipse(SCREEN_WIDTH/2, TOP_MARGIN + NOTE_SPACING, NOTE_WIDTH, NOTE_HEIGHT);
 819              		.loc 1 571 0
 820 0082 7820     		movs	r0, #120
 821 0084 1B21     		movs	r1, #27
ARM GAS  C:\Users\IVYLIU~1\AppData\Local\Temp\cc0nPDNQ.s 			page 26


 822 0086 0C22     		movs	r2, #12
 823 0088 0823     		movs	r3, #8
 824 008a FFF7FEFF 		bl	GUI_FillEllipse
 825              	.LVL107:
 572:.\main.c      ****         GUI_DispStringAt("E5", text_x, text_y);
 826              		.loc 1 572 0
 827 008e 9848     		ldr	r0, .L104+24
 828 0090 90E2     		b	.L102
 829              	.L65:
 573:.\main.c      ****     } else if (strcmp(input_name, "D#5") == 0) {
 830              		.loc 1 573 0
 831 0092 2046     		mov	r0, r4
 832 0094 9749     		ldr	r1, .L104+28
 833 0096 FFF7FEFF 		bl	strcmp
 834              	.LVL108:
 835 009a 88B9     		cbnz	r0, .L66
 574:.\main.c      ****         GUI_FillEllipse(SCREEN_WIDTH/2, TOP_MARGIN + 2*NOTE_SPACING, NOTE_WIDTH, NOTE_HEIGHT);
 836              		.loc 1 574 0
 837 009c 0823     		movs	r3, #8
 838 009e 7820     		movs	r0, #120
 839 00a0 2321     		movs	r1, #35
 840 00a2 0C22     		movs	r2, #12
 841 00a4 FFF7FEFF 		bl	GUI_FillEllipse
 842              	.LVL109:
 575:.\main.c      ****         GUI_DispStringAt("D#5", text_x, text_y);
 843              		.loc 1 575 0
 844 00a8 7821     		movs	r1, #120
 845 00aa F022     		movs	r2, #240
 846 00ac 9148     		ldr	r0, .L104+28
 847 00ae FFF7FEFF 		bl	GUI_DispStringAt
 848              	.LVL110:
 576:.\main.c      **** 
 577:.\main.c      ****         GUI_SetFont(&GUI_Font24B_ASCII);
 849              		.loc 1 577 0
 850 00b2 8C48     		ldr	r0, .L104+12
 851 00b4 FFF7FEFF 		bl	GUI_SetFont
 852              	.LVL111:
 578:.\main.c      ****         GUI_DispStringAt("#", SCREEN_WIDTH/2 + 2*NOTE_WIDTH, TOP_MARGIN + 2*NOTE_SPACING);
 853              		.loc 1 578 0
 854 00b8 8B48     		ldr	r0, .L104+16
 855 00ba 9021     		movs	r1, #144
 856 00bc 2322     		movs	r2, #35
 857 00be 7BE2     		b	.L103
 858              	.L66:
 579:.\main.c      ****     } else if (strcmp(input_name, "D5") == 0) {
 859              		.loc 1 579 0
 860 00c0 2046     		mov	r0, r4
 861 00c2 8D49     		ldr	r1, .L104+32
 862 00c4 FFF7FEFF 		bl	strcmp
 863              	.LVL112:
 864 00c8 38B9     		cbnz	r0, .L67
 580:.\main.c      ****         GUI_FillEllipse(SCREEN_WIDTH/2, TOP_MARGIN + 2*NOTE_SPACING, NOTE_WIDTH, NOTE_HEIGHT);
 865              		.loc 1 580 0
 866 00ca 7820     		movs	r0, #120
 867 00cc 2321     		movs	r1, #35
 868 00ce 0C22     		movs	r2, #12
 869 00d0 0823     		movs	r3, #8
ARM GAS  C:\Users\IVYLIU~1\AppData\Local\Temp\cc0nPDNQ.s 			page 27


 870 00d2 FFF7FEFF 		bl	GUI_FillEllipse
 871              	.LVL113:
 581:.\main.c      ****         GUI_DispStringAt("D5", text_x, text_y);
 872              		.loc 1 581 0
 873 00d6 8848     		ldr	r0, .L104+32
 874 00d8 6CE2     		b	.L102
 875              	.L67:
 582:.\main.c      ****     } else if (strcmp(input_name, "C#5") == 0) {
 876              		.loc 1 582 0
 877 00da 2046     		mov	r0, r4
 878 00dc 8749     		ldr	r1, .L104+36
 879 00de FFF7FEFF 		bl	strcmp
 880              	.LVL114:
 881 00e2 88B9     		cbnz	r0, .L68
 583:.\main.c      ****         GUI_FillEllipse(SCREEN_WIDTH/2, TOP_MARGIN + 3*NOTE_SPACING, NOTE_WIDTH, NOTE_HEIGHT);
 882              		.loc 1 583 0
 883 00e4 0823     		movs	r3, #8
 884 00e6 7820     		movs	r0, #120
 885 00e8 2A21     		movs	r1, #42
 886 00ea 0C22     		movs	r2, #12
 887 00ec FFF7FEFF 		bl	GUI_FillEllipse
 888              	.LVL115:
 584:.\main.c      ****         GUI_DispStringAt("C#5", text_x, text_y);
 889              		.loc 1 584 0
 890 00f0 7821     		movs	r1, #120
 891 00f2 F022     		movs	r2, #240
 892 00f4 8148     		ldr	r0, .L104+36
 893 00f6 FFF7FEFF 		bl	GUI_DispStringAt
 894              	.LVL116:
 585:.\main.c      **** 
 586:.\main.c      ****         GUI_SetFont(&GUI_Font24B_ASCII);
 895              		.loc 1 586 0
 896 00fa 7A48     		ldr	r0, .L104+12
 897 00fc FFF7FEFF 		bl	GUI_SetFont
 898              	.LVL117:
 587:.\main.c      ****         GUI_DispStringAt("#", SCREEN_WIDTH/2 + 2*NOTE_WIDTH, TOP_MARGIN + 3*NOTE_SPACING);
 899              		.loc 1 587 0
 900 0100 7948     		ldr	r0, .L104+16
 901 0102 9021     		movs	r1, #144
 902 0104 2A22     		movs	r2, #42
 903 0106 57E2     		b	.L103
 904              	.L68:
 588:.\main.c      ****     } else if (strcmp(input_name, "C5") == 0) {
 905              		.loc 1 588 0
 906 0108 2046     		mov	r0, r4
 907 010a 7D49     		ldr	r1, .L104+40
 908 010c FFF7FEFF 		bl	strcmp
 909              	.LVL118:
 910 0110 38B9     		cbnz	r0, .L69
 589:.\main.c      ****         GUI_FillEllipse(SCREEN_WIDTH/2, TOP_MARGIN + 3*NOTE_SPACING, NOTE_WIDTH, NOTE_HEIGHT);
 911              		.loc 1 589 0
 912 0112 7820     		movs	r0, #120
 913 0114 2A21     		movs	r1, #42
 914 0116 0C22     		movs	r2, #12
 915 0118 0823     		movs	r3, #8
 916 011a FFF7FEFF 		bl	GUI_FillEllipse
 917              	.LVL119:
ARM GAS  C:\Users\IVYLIU~1\AppData\Local\Temp\cc0nPDNQ.s 			page 28


 590:.\main.c      ****         GUI_DispStringAt("C5", text_x, text_y);
 918              		.loc 1 590 0
 919 011e 7848     		ldr	r0, .L104+40
 920 0120 48E2     		b	.L102
 921              	.L69:
 591:.\main.c      ****     } else if (strcmp(input_name, "B4") == 0) {
 922              		.loc 1 591 0
 923 0122 2046     		mov	r0, r4
 924 0124 7749     		ldr	r1, .L104+44
 925 0126 FFF7FEFF 		bl	strcmp
 926              	.LVL120:
 927 012a 38B9     		cbnz	r0, .L70
 592:.\main.c      ****         GUI_FillEllipse(SCREEN_WIDTH/2, TOP_MARGIN + 4*NOTE_SPACING, NOTE_WIDTH, NOTE_HEIGHT);
 928              		.loc 1 592 0
 929 012c 7820     		movs	r0, #120
 930 012e 3221     		movs	r1, #50
 931 0130 0C22     		movs	r2, #12
 932 0132 0823     		movs	r3, #8
 933 0134 FFF7FEFF 		bl	GUI_FillEllipse
 934              	.LVL121:
 593:.\main.c      ****         GUI_DispStringAt("B4", text_x, text_y);
 935              		.loc 1 593 0
 936 0138 7248     		ldr	r0, .L104+44
 937 013a 3BE2     		b	.L102
 938              	.L70:
 594:.\main.c      ****     } else if (strcmp(input_name, "A#4") == 0) {
 939              		.loc 1 594 0
 940 013c 2046     		mov	r0, r4
 941 013e 7249     		ldr	r1, .L104+48
 942 0140 FFF7FEFF 		bl	strcmp
 943              	.LVL122:
 944 0144 88B9     		cbnz	r0, .L71
 595:.\main.c      ****         GUI_FillEllipse(SCREEN_WIDTH/2, TOP_MARGIN + 5*NOTE_SPACING, NOTE_WIDTH, NOTE_HEIGHT);
 945              		.loc 1 595 0
 946 0146 0823     		movs	r3, #8
 947 0148 7820     		movs	r0, #120
 948 014a 3921     		movs	r1, #57
 949 014c 0C22     		movs	r2, #12
 950 014e FFF7FEFF 		bl	GUI_FillEllipse
 951              	.LVL123:
 596:.\main.c      ****         GUI_DispStringAt("A#4", text_x, text_y);
 952              		.loc 1 596 0
 953 0152 7821     		movs	r1, #120
 954 0154 F022     		movs	r2, #240
 955 0156 6C48     		ldr	r0, .L104+48
 956 0158 FFF7FEFF 		bl	GUI_DispStringAt
 957              	.LVL124:
 597:.\main.c      **** 
 598:.\main.c      ****         GUI_SetFont(&GUI_Font24B_ASCII);
 958              		.loc 1 598 0
 959 015c 6148     		ldr	r0, .L104+12
 960 015e FFF7FEFF 		bl	GUI_SetFont
 961              	.LVL125:
 599:.\main.c      ****         GUI_DispStringAt("#", SCREEN_WIDTH/2 + 2*NOTE_WIDTH, TOP_MARGIN + 5*NOTE_SPACING);
 962              		.loc 1 599 0
 963 0162 6148     		ldr	r0, .L104+16
 964 0164 9021     		movs	r1, #144
ARM GAS  C:\Users\IVYLIU~1\AppData\Local\Temp\cc0nPDNQ.s 			page 29


 965 0166 3922     		movs	r2, #57
 966 0168 26E2     		b	.L103
 967              	.L71:
 600:.\main.c      ****     } else if (strcmp(input_name, "A4") == 0) {
 968              		.loc 1 600 0
 969 016a 2046     		mov	r0, r4
 970 016c 6749     		ldr	r1, .L104+52
 971 016e FFF7FEFF 		bl	strcmp
 972              	.LVL126:
 973 0172 38B9     		cbnz	r0, .L72
 601:.\main.c      ****         GUI_FillEllipse(SCREEN_WIDTH/2, TOP_MARGIN + 5*NOTE_SPACING, NOTE_WIDTH, NOTE_HEIGHT);
 974              		.loc 1 601 0
 975 0174 7820     		movs	r0, #120
 976 0176 3921     		movs	r1, #57
 977 0178 0C22     		movs	r2, #12
 978 017a 0823     		movs	r3, #8
 979 017c FFF7FEFF 		bl	GUI_FillEllipse
 980              	.LVL127:
 602:.\main.c      ****         GUI_DispStringAt("A4", text_x, text_y);
 981              		.loc 1 602 0
 982 0180 6248     		ldr	r0, .L104+52
 983 0182 17E2     		b	.L102
 984              	.L72:
 603:.\main.c      ****     } else if (strcmp(input_name, "G#4") == 0) {
 985              		.loc 1 603 0
 986 0184 2046     		mov	r0, r4
 987 0186 6249     		ldr	r1, .L104+56
 988 0188 FFF7FEFF 		bl	strcmp
 989              	.LVL128:
 990 018c 88B9     		cbnz	r0, .L73
 604:.\main.c      ****         GUI_FillEllipse(SCREEN_WIDTH/2, TOP_MARGIN + 6*NOTE_SPACING, NOTE_WIDTH, NOTE_HEIGHT);
 991              		.loc 1 604 0
 992 018e 0823     		movs	r3, #8
 993 0190 7820     		movs	r0, #120
 994 0192 4121     		movs	r1, #65
 995 0194 0C22     		movs	r2, #12
 996 0196 FFF7FEFF 		bl	GUI_FillEllipse
 997              	.LVL129:
 605:.\main.c      ****         GUI_DispStringAt("G#4", text_x, text_y);
 998              		.loc 1 605 0
 999 019a 7821     		movs	r1, #120
 1000 019c F022     		movs	r2, #240
 1001 019e 5C48     		ldr	r0, .L104+56
 1002 01a0 FFF7FEFF 		bl	GUI_DispStringAt
 1003              	.LVL130:
 606:.\main.c      **** 
 607:.\main.c      ****         GUI_SetFont(&GUI_Font24B_ASCII);
 1004              		.loc 1 607 0
 1005 01a4 4F48     		ldr	r0, .L104+12
 1006 01a6 FFF7FEFF 		bl	GUI_SetFont
 1007              	.LVL131:
 608:.\main.c      ****         GUI_DispStringAt("#", SCREEN_WIDTH/2 + 2*NOTE_WIDTH, TOP_MARGIN + 6*NOTE_SPACING);
 1008              		.loc 1 608 0
 1009 01aa 4F48     		ldr	r0, .L104+16
 1010 01ac 9021     		movs	r1, #144
 1011 01ae 4122     		movs	r2, #65
 1012 01b0 02E2     		b	.L103
ARM GAS  C:\Users\IVYLIU~1\AppData\Local\Temp\cc0nPDNQ.s 			page 30


 1013              	.L73:
 609:.\main.c      ****     } else if (strcmp(input_name, "G4") == 0) {
 1014              		.loc 1 609 0
 1015 01b2 2046     		mov	r0, r4
 1016 01b4 5749     		ldr	r1, .L104+60
 1017 01b6 FFF7FEFF 		bl	strcmp
 1018              	.LVL132:
 1019 01ba 38B9     		cbnz	r0, .L74
 610:.\main.c      ****         GUI_FillEllipse(SCREEN_WIDTH/2, TOP_MARGIN + 6*NOTE_SPACING, NOTE_WIDTH, NOTE_HEIGHT);
 1020              		.loc 1 610 0
 1021 01bc 7820     		movs	r0, #120
 1022 01be 4121     		movs	r1, #65
 1023 01c0 0C22     		movs	r2, #12
 1024 01c2 0823     		movs	r3, #8
 1025 01c4 FFF7FEFF 		bl	GUI_FillEllipse
 1026              	.LVL133:
 611:.\main.c      ****         GUI_DispStringAt("G4", text_x, text_y);
 1027              		.loc 1 611 0
 1028 01c8 5248     		ldr	r0, .L104+60
 1029 01ca F3E1     		b	.L102
 1030              	.L74:
 612:.\main.c      ****     } else if (strcmp(input_name, "F#4") == 0) {
 1031              		.loc 1 612 0
 1032 01cc 2046     		mov	r0, r4
 1033 01ce 5249     		ldr	r1, .L104+64
 1034 01d0 FFF7FEFF 		bl	strcmp
 1035              	.LVL134:
 1036 01d4 88B9     		cbnz	r0, .L75
 613:.\main.c      ****         GUI_FillEllipse(SCREEN_WIDTH/2, TOP_MARGIN + 7*NOTE_SPACING, NOTE_WIDTH, NOTE_HEIGHT);
 1037              		.loc 1 613 0
 1038 01d6 0823     		movs	r3, #8
 1039 01d8 7820     		movs	r0, #120
 1040 01da 4821     		movs	r1, #72
 1041 01dc 0C22     		movs	r2, #12
 1042 01de FFF7FEFF 		bl	GUI_FillEllipse
 1043              	.LVL135:
 614:.\main.c      ****         GUI_DispStringAt("F#4", text_x, text_y);
 1044              		.loc 1 614 0
 1045 01e2 7821     		movs	r1, #120
 1046 01e4 F022     		movs	r2, #240
 1047 01e6 4C48     		ldr	r0, .L104+64
 1048 01e8 FFF7FEFF 		bl	GUI_DispStringAt
 1049              	.LVL136:
 615:.\main.c      **** 
 616:.\main.c      ****         GUI_SetFont(&GUI_Font24B_ASCII);
 1050              		.loc 1 616 0
 1051 01ec 3D48     		ldr	r0, .L104+12
 1052 01ee FFF7FEFF 		bl	GUI_SetFont
 1053              	.LVL137:
 617:.\main.c      ****         GUI_DispStringAt("#", SCREEN_WIDTH/2 + 2*NOTE_WIDTH, TOP_MARGIN + 7*NOTE_SPACING);
 1054              		.loc 1 617 0
 1055 01f2 3D48     		ldr	r0, .L104+16
 1056 01f4 9021     		movs	r1, #144
 1057 01f6 4822     		movs	r2, #72
 1058 01f8 DEE1     		b	.L103
 1059              	.L75:
 618:.\main.c      ****     } else if (strcmp(input_name, "F4") == 0) {
ARM GAS  C:\Users\IVYLIU~1\AppData\Local\Temp\cc0nPDNQ.s 			page 31


 1060              		.loc 1 618 0
 1061 01fa 2046     		mov	r0, r4
 1062 01fc 4749     		ldr	r1, .L104+68
 1063 01fe FFF7FEFF 		bl	strcmp
 1064              	.LVL138:
 1065 0202 38B9     		cbnz	r0, .L76
 619:.\main.c      ****         GUI_FillEllipse(SCREEN_WIDTH/2, TOP_MARGIN + 7*NOTE_SPACING, NOTE_WIDTH, NOTE_HEIGHT);
 1066              		.loc 1 619 0
 1067 0204 7820     		movs	r0, #120
 1068 0206 4821     		movs	r1, #72
 1069 0208 0C22     		movs	r2, #12
 1070 020a 0823     		movs	r3, #8
 1071 020c FFF7FEFF 		bl	GUI_FillEllipse
 1072              	.LVL139:
 620:.\main.c      ****         GUI_DispStringAt("F4", text_x, text_y);
 1073              		.loc 1 620 0
 1074 0210 4248     		ldr	r0, .L104+68
 1075 0212 CFE1     		b	.L102
 1076              	.L76:
 621:.\main.c      ****     } else if (strcmp(input_name, "E4") == 0) {
 1077              		.loc 1 621 0
 1078 0214 2046     		mov	r0, r4
 1079 0216 4249     		ldr	r1, .L104+72
 1080 0218 FFF7FEFF 		bl	strcmp
 1081              	.LVL140:
 1082 021c 38B9     		cbnz	r0, .L77
 622:.\main.c      ****         GUI_FillEllipse(SCREEN_WIDTH/2, TOP_MARGIN + 8*NOTE_SPACING, NOTE_WIDTH, NOTE_HEIGHT);
 1083              		.loc 1 622 0
 1084 021e 7820     		movs	r0, #120
 1085 0220 5021     		movs	r1, #80
 1086 0222 0C22     		movs	r2, #12
 1087 0224 0823     		movs	r3, #8
 1088 0226 FFF7FEFF 		bl	GUI_FillEllipse
 1089              	.LVL141:
 623:.\main.c      ****         GUI_DispStringAt("E4", text_x, text_y);
 1090              		.loc 1 623 0
 1091 022a 3D48     		ldr	r0, .L104+72
 1092 022c C2E1     		b	.L102
 1093              	.L77:
 624:.\main.c      ****     } else if (strcmp(input_name, "D#4") == 0) {
 1094              		.loc 1 624 0
 1095 022e 2046     		mov	r0, r4
 1096 0230 3C49     		ldr	r1, .L104+76
 1097 0232 FFF7FEFF 		bl	strcmp
 1098              	.LVL142:
 1099 0236 88B9     		cbnz	r0, .L78
 625:.\main.c      ****         GUI_FillEllipse(SCREEN_WIDTH/2, TOP_MARGIN + 9*NOTE_SPACING, NOTE_WIDTH, NOTE_HEIGHT);
 1100              		.loc 1 625 0
 1101 0238 0823     		movs	r3, #8
 1102 023a 7820     		movs	r0, #120
 1103 023c 5721     		movs	r1, #87
 1104 023e 0C22     		movs	r2, #12
 1105 0240 FFF7FEFF 		bl	GUI_FillEllipse
 1106              	.LVL143:
 626:.\main.c      ****         GUI_DispStringAt("D#4", text_x, text_y);
 1107              		.loc 1 626 0
 1108 0244 7821     		movs	r1, #120
ARM GAS  C:\Users\IVYLIU~1\AppData\Local\Temp\cc0nPDNQ.s 			page 32


 1109 0246 F022     		movs	r2, #240
 1110 0248 3648     		ldr	r0, .L104+76
 1111 024a FFF7FEFF 		bl	GUI_DispStringAt
 1112              	.LVL144:
 627:.\main.c      **** 
 628:.\main.c      ****         GUI_SetFont(&GUI_Font24B_ASCII);
 1113              		.loc 1 628 0
 1114 024e 2548     		ldr	r0, .L104+12
 1115 0250 FFF7FEFF 		bl	GUI_SetFont
 1116              	.LVL145:
 629:.\main.c      ****         GUI_DispStringAt("#", SCREEN_WIDTH/2 + 2*NOTE_WIDTH, TOP_MARGIN + 9*NOTE_SPACING);
 1117              		.loc 1 629 0
 1118 0254 2448     		ldr	r0, .L104+16
 1119 0256 9021     		movs	r1, #144
 1120 0258 5722     		movs	r2, #87
 1121 025a ADE1     		b	.L103
 1122              	.L78:
 630:.\main.c      ****     } else if (strcmp(input_name, "D4") == 0) {
 1123              		.loc 1 630 0
 1124 025c 2046     		mov	r0, r4
 1125 025e 3249     		ldr	r1, .L104+80
 1126 0260 FFF7FEFF 		bl	strcmp
 1127              	.LVL146:
 1128 0264 38B9     		cbnz	r0, .L79
 631:.\main.c      ****         GUI_FillEllipse(SCREEN_WIDTH/2, TOP_MARGIN + 9*NOTE_SPACING, NOTE_WIDTH, NOTE_HEIGHT);
 1129              		.loc 1 631 0
 1130 0266 7820     		movs	r0, #120
 1131 0268 5721     		movs	r1, #87
 1132 026a 0C22     		movs	r2, #12
 1133 026c 0823     		movs	r3, #8
 1134 026e FFF7FEFF 		bl	GUI_FillEllipse
 1135              	.LVL147:
 632:.\main.c      ****         GUI_DispStringAt("D4", text_x, text_y);
 1136              		.loc 1 632 0
 1137 0272 2D48     		ldr	r0, .L104+80
 1138 0274 9EE1     		b	.L102
 1139              	.L79:
 633:.\main.c      ****     } else if (strcmp(input_name, "C#4") == 0) {
 1140              		.loc 1 633 0
 1141 0276 2046     		mov	r0, r4
 1142 0278 2C49     		ldr	r1, .L104+84
 1143 027a FFF7FEFF 		bl	strcmp
 1144              	.LVL148:
 1145 027e 88B9     		cbnz	r0, .L80
 634:.\main.c      ****         GUI_FillEllipse(SCREEN_WIDTH/2, TOP_MARGIN + 10*NOTE_SPACING, NOTE_WIDTH, NOTE_HEIGHT);
 1146              		.loc 1 634 0
 1147 0280 0823     		movs	r3, #8
 1148 0282 7820     		movs	r0, #120
 1149 0284 5F21     		movs	r1, #95
 1150 0286 0C22     		movs	r2, #12
 1151 0288 FFF7FEFF 		bl	GUI_FillEllipse
 1152              	.LVL149:
 635:.\main.c      ****         GUI_DispStringAt("C#4", text_x, text_y);
 1153              		.loc 1 635 0
 1154 028c 7821     		movs	r1, #120
 1155 028e F022     		movs	r2, #240
 1156 0290 2648     		ldr	r0, .L104+84
ARM GAS  C:\Users\IVYLIU~1\AppData\Local\Temp\cc0nPDNQ.s 			page 33


 1157 0292 FFF7FEFF 		bl	GUI_DispStringAt
 1158              	.LVL150:
 636:.\main.c      **** 
 637:.\main.c      ****         GUI_SetFont(&GUI_Font24B_ASCII);
 1159              		.loc 1 637 0
 1160 0296 1348     		ldr	r0, .L104+12
 1161 0298 FFF7FEFF 		bl	GUI_SetFont
 1162              	.LVL151:
 638:.\main.c      ****         GUI_DispStringAt("#", SCREEN_WIDTH/2 + 2*NOTE_WIDTH, TOP_MARGIN + 10*NOTE_SPACING);
 1163              		.loc 1 638 0
 1164 029c 1248     		ldr	r0, .L104+16
 1165 029e 9021     		movs	r1, #144
 1166 02a0 5F22     		movs	r2, #95
 1167 02a2 89E1     		b	.L103
 1168              	.L80:
 639:.\main.c      ****     } else if (strcmp(input_name, "C4") == 0) { //Middle C
 1169              		.loc 1 639 0
 1170 02a4 2046     		mov	r0, r4
 1171 02a6 2249     		ldr	r1, .L104+88
 1172 02a8 FFF7FEFF 		bl	strcmp
 1173              	.LVL152:
 1174 02ac 38B9     		cbnz	r0, .L81
 640:.\main.c      ****         GUI_FillEllipse(SCREEN_WIDTH/2, TOP_MARGIN + 10*NOTE_HEIGHT, NOTE_WIDTH, NOTE_HEIGHT);
 1175              		.loc 1 640 0
 1176 02ae 7820     		movs	r0, #120
 1177 02b0 6421     		movs	r1, #100
 1178 02b2 0C22     		movs	r2, #12
 1179 02b4 0823     		movs	r3, #8
 1180 02b6 FFF7FEFF 		bl	GUI_FillEllipse
 1181              	.LVL153:
 641:.\main.c      ****         GUI_DispStringAt("C4", text_x, text_y);
 1182              		.loc 1 641 0
 1183 02ba 1D48     		ldr	r0, .L104+88
 1184 02bc 7AE1     		b	.L102
 1185              	.L81:
 642:.\main.c      ****     } else if (strcmp(input_name, "B3") == 0) {
 1186              		.loc 1 642 0
 1187 02be 2046     		mov	r0, r4
 1188 02c0 1C49     		ldr	r1, .L104+92
 1189 02c2 FFF7FEFF 		bl	strcmp
 1190              	.LVL154:
 1191 02c6 B8BB     		cbnz	r0, .L82
 643:.\main.c      ****         GUI_FillEllipse(SCREEN_WIDTH/2, LOWER_OFFSET - NOTE_SPACING, NOTE_WIDTH, NOTE_HEIGHT);
 1192              		.loc 1 643 0
 1193 02c8 7820     		movs	r0, #120
 1194 02ca 7121     		movs	r1, #113
 1195 02cc 0C22     		movs	r2, #12
 1196 02ce 0823     		movs	r3, #8
 1197 02d0 FFF7FEFF 		bl	GUI_FillEllipse
 1198              	.LVL155:
 644:.\main.c      ****         GUI_DispStringAt("B3", text_x, text_y);
 1199              		.loc 1 644 0
 1200 02d4 1748     		ldr	r0, .L104+92
 1201 02d6 6DE1     		b	.L102
 1202              	.L105:
 1203              		.align	2
 1204              	.L104:
ARM GAS  C:\Users\IVYLIU~1\AppData\Local\Temp\cc0nPDNQ.s 			page 34


 1205 02d8 00000000 		.word	GUI_Font32B_ASCII
 1206 02dc EA000000 		.word	.LC9
 1207 02e0 ED000000 		.word	.LC10
 1208 02e4 00000000 		.word	GUI_Font24B_ASCII
 1209 02e8 F1000000 		.word	.LC11
 1210 02ec F3000000 		.word	.LC12
 1211 02f0 F6000000 		.word	.LC13
 1212 02f4 F9000000 		.word	.LC14
 1213 02f8 FD000000 		.word	.LC15
 1214 02fc 00010000 		.word	.LC16
 1215 0300 04010000 		.word	.LC17
 1216 0304 07010000 		.word	.LC18
 1217 0308 0A010000 		.word	.LC19
 1218 030c 0E010000 		.word	.LC20
 1219 0310 11010000 		.word	.LC21
 1220 0314 15010000 		.word	.LC22
 1221 0318 18010000 		.word	.LC23
 1222 031c 1C010000 		.word	.LC24
 1223 0320 1F010000 		.word	.LC25
 1224 0324 22010000 		.word	.LC26
 1225 0328 26010000 		.word	.LC27
 1226 032c 29010000 		.word	.LC28
 1227 0330 2D010000 		.word	.LC29
 1228 0334 30010000 		.word	.LC30
 1229              	.L82:
 645:.\main.c      ****     } else if (strcmp(input_name, "A#3") == 0) {
 1230              		.loc 1 645 0
 1231 0338 2046     		mov	r0, r4
 1232 033a A149     		ldr	r1, .L106
 1233 033c FFF7FEFF 		bl	strcmp
 1234              	.LVL156:
 1235 0340 88B9     		cbnz	r0, .L83
 646:.\main.c      ****         GUI_FillEllipse(SCREEN_WIDTH/2, LOWER_OFFSET, NOTE_WIDTH, NOTE_HEIGHT);
 1236              		.loc 1 646 0
 1237 0342 7820     		movs	r0, #120
 1238 0344 0146     		mov	r1, r0
 1239 0346 0823     		movs	r3, #8
 1240 0348 0C22     		movs	r2, #12
 1241 034a FFF7FEFF 		bl	GUI_FillEllipse
 1242              	.LVL157:
 647:.\main.c      ****         GUI_DispStringAt("A#3", text_x, text_y);
 1243              		.loc 1 647 0
 1244 034e 7821     		movs	r1, #120
 1245 0350 F022     		movs	r2, #240
 1246 0352 9B48     		ldr	r0, .L106
 1247 0354 FFF7FEFF 		bl	GUI_DispStringAt
 1248              	.LVL158:
 648:.\main.c      **** 
 649:.\main.c      ****         GUI_SetFont(&GUI_Font24B_ASCII);
 1249              		.loc 1 649 0
 1250 0358 9A48     		ldr	r0, .L106+4
 1251 035a FFF7FEFF 		bl	GUI_SetFont
 1252              	.LVL159:
 650:.\main.c      ****         GUI_DispStringAt("#", SCREEN_WIDTH/2 + 2*NOTE_WIDTH, LOWER_OFFSET);
 1253              		.loc 1 650 0
 1254 035e 9A48     		ldr	r0, .L106+8
 1255 0360 9021     		movs	r1, #144
ARM GAS  C:\Users\IVYLIU~1\AppData\Local\Temp\cc0nPDNQ.s 			page 35


 1256 0362 7822     		movs	r2, #120
 1257 0364 28E1     		b	.L103
 1258              	.L83:
 651:.\main.c      ****     } else if (strcmp(input_name, "A3") == 0) {
 1259              		.loc 1 651 0
 1260 0366 2046     		mov	r0, r4
 1261 0368 9849     		ldr	r1, .L106+12
 1262 036a FFF7FEFF 		bl	strcmp
 1263              	.LVL160:
 1264 036e 38B9     		cbnz	r0, .L84
 652:.\main.c      ****         GUI_FillEllipse(SCREEN_WIDTH/2, LOWER_OFFSET, NOTE_WIDTH, NOTE_HEIGHT);
 1265              		.loc 1 652 0
 1266 0370 7820     		movs	r0, #120
 1267 0372 0146     		mov	r1, r0
 1268 0374 0C22     		movs	r2, #12
 1269 0376 0823     		movs	r3, #8
 1270 0378 FFF7FEFF 		bl	GUI_FillEllipse
 1271              	.LVL161:
 653:.\main.c      ****         GUI_DispStringAt("A3", text_x, text_y);
 1272              		.loc 1 653 0
 1273 037c 9348     		ldr	r0, .L106+12
 1274 037e 19E1     		b	.L102
 1275              	.L84:
 654:.\main.c      ****     } else if (strcmp(input_name, "G#3") == 0) {
 1276              		.loc 1 654 0
 1277 0380 2046     		mov	r0, r4
 1278 0382 9349     		ldr	r1, .L106+16
 1279 0384 FFF7FEFF 		bl	strcmp
 1280              	.LVL162:
 1281 0388 88B9     		cbnz	r0, .L85
 655:.\main.c      ****         GUI_FillEllipse(SCREEN_WIDTH/2, LOWER_OFFSET + NOTE_SPACING, NOTE_WIDTH, NOTE_HEIGHT);
 1282              		.loc 1 655 0
 1283 038a 0823     		movs	r3, #8
 1284 038c 7820     		movs	r0, #120
 1285 038e 7F21     		movs	r1, #127
 1286 0390 0C22     		movs	r2, #12
 1287 0392 FFF7FEFF 		bl	GUI_FillEllipse
 1288              	.LVL163:
 656:.\main.c      ****         GUI_DispStringAt("G#3", text_x, text_y);
 1289              		.loc 1 656 0
 1290 0396 7821     		movs	r1, #120
 1291 0398 F022     		movs	r2, #240
 1292 039a 8D48     		ldr	r0, .L106+16
 1293 039c FFF7FEFF 		bl	GUI_DispStringAt
 1294              	.LVL164:
 657:.\main.c      **** 
 658:.\main.c      ****         GUI_SetFont(&GUI_Font24B_ASCII);
 1295              		.loc 1 658 0
 1296 03a0 8848     		ldr	r0, .L106+4
 1297 03a2 FFF7FEFF 		bl	GUI_SetFont
 1298              	.LVL165:
 659:.\main.c      ****         GUI_DispStringAt("#", SCREEN_WIDTH/2 + 2*NOTE_WIDTH, LOWER_OFFSET + NOTE_SPACING);
 1299              		.loc 1 659 0
 1300 03a6 8848     		ldr	r0, .L106+8
 1301 03a8 9021     		movs	r1, #144
 1302 03aa 7F22     		movs	r2, #127
 1303 03ac 04E1     		b	.L103
ARM GAS  C:\Users\IVYLIU~1\AppData\Local\Temp\cc0nPDNQ.s 			page 36


 1304              	.L85:
 660:.\main.c      ****     } else if (strcmp(input_name, "G3") == 0) {
 1305              		.loc 1 660 0
 1306 03ae 2046     		mov	r0, r4
 1307 03b0 8849     		ldr	r1, .L106+20
 1308 03b2 FFF7FEFF 		bl	strcmp
 1309              	.LVL166:
 1310 03b6 38B9     		cbnz	r0, .L86
 661:.\main.c      ****         GUI_FillEllipse(SCREEN_WIDTH/2, LOWER_OFFSET + NOTE_SPACING, NOTE_WIDTH, NOTE_HEIGHT);
 1311              		.loc 1 661 0
 1312 03b8 7820     		movs	r0, #120
 1313 03ba 7F21     		movs	r1, #127
 1314 03bc 0C22     		movs	r2, #12
 1315 03be 0823     		movs	r3, #8
 1316 03c0 FFF7FEFF 		bl	GUI_FillEllipse
 1317              	.LVL167:
 662:.\main.c      ****         GUI_DispStringAt("G3", text_x, text_y);
 1318              		.loc 1 662 0
 1319 03c4 8348     		ldr	r0, .L106+20
 1320 03c6 F5E0     		b	.L102
 1321              	.L86:
 663:.\main.c      ****     } else if (strcmp(input_name, "F#3") == 0) {
 1322              		.loc 1 663 0
 1323 03c8 2046     		mov	r0, r4
 1324 03ca 8349     		ldr	r1, .L106+24
 1325 03cc FFF7FEFF 		bl	strcmp
 1326              	.LVL168:
 1327 03d0 88B9     		cbnz	r0, .L87
 664:.\main.c      ****         GUI_FillEllipse(SCREEN_WIDTH/2, LOWER_OFFSET + 2*NOTE_SPACING, NOTE_WIDTH, NOTE_HEIGHT);
 1328              		.loc 1 664 0
 1329 03d2 0823     		movs	r3, #8
 1330 03d4 7820     		movs	r0, #120
 1331 03d6 8721     		movs	r1, #135
 1332 03d8 0C22     		movs	r2, #12
 1333 03da FFF7FEFF 		bl	GUI_FillEllipse
 1334              	.LVL169:
 665:.\main.c      ****         GUI_DispStringAt("F#3", text_x, text_y);
 1335              		.loc 1 665 0
 1336 03de 7821     		movs	r1, #120
 1337 03e0 F022     		movs	r2, #240
 1338 03e2 7D48     		ldr	r0, .L106+24
 1339 03e4 FFF7FEFF 		bl	GUI_DispStringAt
 1340              	.LVL170:
 666:.\main.c      **** 
 667:.\main.c      ****         GUI_SetFont(&GUI_Font24B_ASCII);
 1341              		.loc 1 667 0
 1342 03e8 7648     		ldr	r0, .L106+4
 1343 03ea FFF7FEFF 		bl	GUI_SetFont
 1344              	.LVL171:
 668:.\main.c      ****         GUI_DispStringAt("#", SCREEN_WIDTH/2 + 2*NOTE_WIDTH, LOWER_OFFSET + 2*NOTE_SPACING);
 1345              		.loc 1 668 0
 1346 03ee 7648     		ldr	r0, .L106+8
 1347 03f0 9021     		movs	r1, #144
 1348 03f2 8722     		movs	r2, #135
 1349 03f4 E0E0     		b	.L103
 1350              	.L87:
 669:.\main.c      ****     } else if (strcmp(input_name, "F3") == 0) {
ARM GAS  C:\Users\IVYLIU~1\AppData\Local\Temp\cc0nPDNQ.s 			page 37


 1351              		.loc 1 669 0
 1352 03f6 2046     		mov	r0, r4
 1353 03f8 7849     		ldr	r1, .L106+28
 1354 03fa FFF7FEFF 		bl	strcmp
 1355              	.LVL172:
 1356 03fe 38B9     		cbnz	r0, .L88
 670:.\main.c      ****         GUI_FillEllipse(SCREEN_WIDTH/2, LOWER_OFFSET + 2*NOTE_SPACING, NOTE_WIDTH, NOTE_HEIGHT);
 1357              		.loc 1 670 0
 1358 0400 7820     		movs	r0, #120
 1359 0402 8721     		movs	r1, #135
 1360 0404 0C22     		movs	r2, #12
 1361 0406 0823     		movs	r3, #8
 1362 0408 FFF7FEFF 		bl	GUI_FillEllipse
 1363              	.LVL173:
 671:.\main.c      ****         GUI_DispStringAt("F3", text_x, text_y);
 1364              		.loc 1 671 0
 1365 040c 7348     		ldr	r0, .L106+28
 1366 040e D1E0     		b	.L102
 1367              	.L88:
 672:.\main.c      ****     } else if (strcmp(input_name, "E3") == 0) {
 1368              		.loc 1 672 0
 1369 0410 2046     		mov	r0, r4
 1370 0412 7349     		ldr	r1, .L106+32
 1371 0414 FFF7FEFF 		bl	strcmp
 1372              	.LVL174:
 1373 0418 38B9     		cbnz	r0, .L89
 673:.\main.c      ****         GUI_FillEllipse(SCREEN_WIDTH/2, LOWER_OFFSET + 3*NOTE_SPACING, NOTE_WIDTH, NOTE_HEIGHT);
 1374              		.loc 1 673 0
 1375 041a 7820     		movs	r0, #120
 1376 041c 8E21     		movs	r1, #142
 1377 041e 0C22     		movs	r2, #12
 1378 0420 0823     		movs	r3, #8
 1379 0422 FFF7FEFF 		bl	GUI_FillEllipse
 1380              	.LVL175:
 674:.\main.c      ****         GUI_DispStringAt("E3", text_x, text_y);
 1381              		.loc 1 674 0
 1382 0426 6E48     		ldr	r0, .L106+32
 1383 0428 C4E0     		b	.L102
 1384              	.L89:
 675:.\main.c      ****     } else if (strcmp(input_name, "D#3") == 0) {
 1385              		.loc 1 675 0
 1386 042a 2046     		mov	r0, r4
 1387 042c 6D49     		ldr	r1, .L106+36
 1388 042e FFF7FEFF 		bl	strcmp
 1389              	.LVL176:
 1390 0432 88B9     		cbnz	r0, .L90
 676:.\main.c      ****         GUI_FillEllipse(SCREEN_WIDTH/2, LOWER_OFFSET + 4*NOTE_SPACING, NOTE_WIDTH, NOTE_HEIGHT);
 1391              		.loc 1 676 0
 1392 0434 0823     		movs	r3, #8
 1393 0436 7820     		movs	r0, #120
 1394 0438 9621     		movs	r1, #150
 1395 043a 0C22     		movs	r2, #12
 1396 043c FFF7FEFF 		bl	GUI_FillEllipse
 1397              	.LVL177:
 677:.\main.c      ****         GUI_DispStringAt("D#3", text_x, text_y);
 1398              		.loc 1 677 0
 1399 0440 7821     		movs	r1, #120
ARM GAS  C:\Users\IVYLIU~1\AppData\Local\Temp\cc0nPDNQ.s 			page 38


 1400 0442 F022     		movs	r2, #240
 1401 0444 6748     		ldr	r0, .L106+36
 1402 0446 FFF7FEFF 		bl	GUI_DispStringAt
 1403              	.LVL178:
 678:.\main.c      **** 
 679:.\main.c      ****         GUI_SetFont(&GUI_Font24B_ASCII);
 1404              		.loc 1 679 0
 1405 044a 5E48     		ldr	r0, .L106+4
 1406 044c FFF7FEFF 		bl	GUI_SetFont
 1407              	.LVL179:
 680:.\main.c      ****         GUI_DispStringAt("#", SCREEN_WIDTH/2 + 2*NOTE_WIDTH, LOWER_OFFSET + 4*NOTE_SPACING);
 1408              		.loc 1 680 0
 1409 0450 5D48     		ldr	r0, .L106+8
 1410 0452 9021     		movs	r1, #144
 1411 0454 9622     		movs	r2, #150
 1412 0456 AFE0     		b	.L103
 1413              	.L90:
 681:.\main.c      ****     } else if (strcmp(input_name, "D3") == 0) {
 1414              		.loc 1 681 0
 1415 0458 2046     		mov	r0, r4
 1416 045a 6349     		ldr	r1, .L106+40
 1417 045c FFF7FEFF 		bl	strcmp
 1418              	.LVL180:
 1419 0460 38B9     		cbnz	r0, .L91
 682:.\main.c      ****         GUI_FillEllipse(SCREEN_WIDTH/2, LOWER_OFFSET + 4*NOTE_SPACING, NOTE_WIDTH, NOTE_HEIGHT);
 1420              		.loc 1 682 0
 1421 0462 7820     		movs	r0, #120
 1422 0464 9621     		movs	r1, #150
 1423 0466 0C22     		movs	r2, #12
 1424 0468 0823     		movs	r3, #8
 1425 046a FFF7FEFF 		bl	GUI_FillEllipse
 1426              	.LVL181:
 683:.\main.c      ****         GUI_DispStringAt("D3", text_x, text_y);
 1427              		.loc 1 683 0
 1428 046e 5E48     		ldr	r0, .L106+40
 1429 0470 A0E0     		b	.L102
 1430              	.L91:
 684:.\main.c      ****     } else if (strcmp(input_name, "C#3") == 0) {
 1431              		.loc 1 684 0
 1432 0472 2046     		mov	r0, r4
 1433 0474 5D49     		ldr	r1, .L106+44
 1434 0476 FFF7FEFF 		bl	strcmp
 1435              	.LVL182:
 1436 047a 88B9     		cbnz	r0, .L92
 685:.\main.c      ****         GUI_FillEllipse(SCREEN_WIDTH/2, LOWER_OFFSET + 5*NOTE_SPACING, NOTE_WIDTH, NOTE_HEIGHT);
 1437              		.loc 1 685 0
 1438 047c 0823     		movs	r3, #8
 1439 047e 7820     		movs	r0, #120
 1440 0480 9D21     		movs	r1, #157
 1441 0482 0C22     		movs	r2, #12
 1442 0484 FFF7FEFF 		bl	GUI_FillEllipse
 1443              	.LVL183:
 686:.\main.c      ****         GUI_DispStringAt("C#3", text_x, text_y);
 1444              		.loc 1 686 0
 1445 0488 7821     		movs	r1, #120
 1446 048a F022     		movs	r2, #240
 1447 048c 5748     		ldr	r0, .L106+44
ARM GAS  C:\Users\IVYLIU~1\AppData\Local\Temp\cc0nPDNQ.s 			page 39


 1448 048e FFF7FEFF 		bl	GUI_DispStringAt
 1449              	.LVL184:
 687:.\main.c      **** 
 688:.\main.c      ****         GUI_SetFont(&GUI_Font24B_ASCII);
 1450              		.loc 1 688 0
 1451 0492 4C48     		ldr	r0, .L106+4
 1452 0494 FFF7FEFF 		bl	GUI_SetFont
 1453              	.LVL185:
 689:.\main.c      ****         GUI_DispStringAt("#", SCREEN_WIDTH/2 + 2*NOTE_WIDTH, LOWER_OFFSET + 5*NOTE_SPACING);
 1454              		.loc 1 689 0
 1455 0498 4B48     		ldr	r0, .L106+8
 1456 049a 9021     		movs	r1, #144
 1457 049c 9D22     		movs	r2, #157
 1458 049e 8BE0     		b	.L103
 1459              	.L92:
 690:.\main.c      ****     } else if (strcmp(input_name, "C3") == 0) {
 1460              		.loc 1 690 0
 1461 04a0 2046     		mov	r0, r4
 1462 04a2 5349     		ldr	r1, .L106+48
 1463 04a4 FFF7FEFF 		bl	strcmp
 1464              	.LVL186:
 1465 04a8 38B9     		cbnz	r0, .L93
 691:.\main.c      ****         GUI_FillEllipse(SCREEN_WIDTH/2, LOWER_OFFSET + 5*NOTE_SPACING, NOTE_WIDTH, NOTE_HEIGHT);
 1466              		.loc 1 691 0
 1467 04aa 7820     		movs	r0, #120
 1468 04ac 9D21     		movs	r1, #157
 1469 04ae 0C22     		movs	r2, #12
 1470 04b0 0823     		movs	r3, #8
 1471 04b2 FFF7FEFF 		bl	GUI_FillEllipse
 1472              	.LVL187:
 692:.\main.c      ****         GUI_DispStringAt("C3", text_x, text_y);
 1473              		.loc 1 692 0
 1474 04b6 4E48     		ldr	r0, .L106+48
 1475 04b8 7CE0     		b	.L102
 1476              	.L93:
 693:.\main.c      ****     } else if (strcmp(input_name, "B2") == 0) {
 1477              		.loc 1 693 0
 1478 04ba 2046     		mov	r0, r4
 1479 04bc 4D49     		ldr	r1, .L106+52
 1480 04be FFF7FEFF 		bl	strcmp
 1481              	.LVL188:
 1482 04c2 38B9     		cbnz	r0, .L94
 694:.\main.c      ****         GUI_FillEllipse(SCREEN_WIDTH/2, LOWER_OFFSET + 6*NOTE_SPACING, NOTE_WIDTH, NOTE_HEIGHT);
 1483              		.loc 1 694 0
 1484 04c4 7820     		movs	r0, #120
 1485 04c6 A521     		movs	r1, #165
 1486 04c8 0C22     		movs	r2, #12
 1487 04ca 0823     		movs	r3, #8
 1488 04cc FFF7FEFF 		bl	GUI_FillEllipse
 1489              	.LVL189:
 695:.\main.c      ****         GUI_DispStringAt("B2", text_x, text_y);
 1490              		.loc 1 695 0
 1491 04d0 4848     		ldr	r0, .L106+52
 1492 04d2 6FE0     		b	.L102
 1493              	.L94:
 696:.\main.c      ****     } else if (strcmp(input_name, "A#2") == 0) {
 1494              		.loc 1 696 0
ARM GAS  C:\Users\IVYLIU~1\AppData\Local\Temp\cc0nPDNQ.s 			page 40


 1495 04d4 2046     		mov	r0, r4
 1496 04d6 4849     		ldr	r1, .L106+56
 1497 04d8 FFF7FEFF 		bl	strcmp
 1498              	.LVL190:
 1499 04dc 88B9     		cbnz	r0, .L95
 697:.\main.c      ****         GUI_FillEllipse(SCREEN_WIDTH/2, LOWER_OFFSET + 7*NOTE_SPACING, NOTE_WIDTH, NOTE_HEIGHT);
 1500              		.loc 1 697 0
 1501 04de 0823     		movs	r3, #8
 1502 04e0 7820     		movs	r0, #120
 1503 04e2 AC21     		movs	r1, #172
 1504 04e4 0C22     		movs	r2, #12
 1505 04e6 FFF7FEFF 		bl	GUI_FillEllipse
 1506              	.LVL191:
 698:.\main.c      ****         GUI_DispStringAt("A#2", text_x, text_y);
 1507              		.loc 1 698 0
 1508 04ea 7821     		movs	r1, #120
 1509 04ec F022     		movs	r2, #240
 1510 04ee 4248     		ldr	r0, .L106+56
 1511 04f0 FFF7FEFF 		bl	GUI_DispStringAt
 1512              	.LVL192:
 699:.\main.c      **** 
 700:.\main.c      ****         GUI_SetFont(&GUI_Font24B_ASCII);
 1513              		.loc 1 700 0
 1514 04f4 3348     		ldr	r0, .L106+4
 1515 04f6 FFF7FEFF 		bl	GUI_SetFont
 1516              	.LVL193:
 701:.\main.c      ****         GUI_DispStringAt("#", SCREEN_WIDTH/2 + 2*NOTE_WIDTH, LOWER_OFFSET + 7*NOTE_SPACING);
 1517              		.loc 1 701 0
 1518 04fa 3348     		ldr	r0, .L106+8
 1519 04fc 9021     		movs	r1, #144
 1520 04fe AC22     		movs	r2, #172
 1521 0500 5AE0     		b	.L103
 1522              	.L95:
 702:.\main.c      ****     } else if (strcmp(input_name, "A2") == 0) {
 1523              		.loc 1 702 0
 1524 0502 2046     		mov	r0, r4
 1525 0504 3D49     		ldr	r1, .L106+60
 1526 0506 FFF7FEFF 		bl	strcmp
 1527              	.LVL194:
 1528 050a 38B9     		cbnz	r0, .L96
 703:.\main.c      ****         GUI_FillEllipse(SCREEN_WIDTH/2, LOWER_OFFSET + 7*NOTE_SPACING, NOTE_WIDTH, NOTE_HEIGHT);
 1529              		.loc 1 703 0
 1530 050c 7820     		movs	r0, #120
 1531 050e AC21     		movs	r1, #172
 1532 0510 0C22     		movs	r2, #12
 1533 0512 0823     		movs	r3, #8
 1534 0514 FFF7FEFF 		bl	GUI_FillEllipse
 1535              	.LVL195:
 704:.\main.c      ****         GUI_DispStringAt("A2", text_x, text_y);
 1536              		.loc 1 704 0
 1537 0518 3848     		ldr	r0, .L106+60
 1538 051a 4BE0     		b	.L102
 1539              	.L96:
 705:.\main.c      ****     } else if (strcmp(input_name, "G#2") == 0) {
 1540              		.loc 1 705 0
 1541 051c 2046     		mov	r0, r4
 1542 051e 3849     		ldr	r1, .L106+64
ARM GAS  C:\Users\IVYLIU~1\AppData\Local\Temp\cc0nPDNQ.s 			page 41


 1543 0520 FFF7FEFF 		bl	strcmp
 1544              	.LVL196:
 1545 0524 38B9     		cbnz	r0, .L97
 706:.\main.c      ****         GUI_FillEllipse(SCREEN_WIDTH/2, LOWER_OFFSET + 8*NOTE_SPACING, NOTE_WIDTH, NOTE_HEIGHT);
 1546              		.loc 1 706 0
 1547 0526 7820     		movs	r0, #120
 1548 0528 B421     		movs	r1, #180
 1549 052a 0C22     		movs	r2, #12
 1550 052c 0823     		movs	r3, #8
 1551 052e FFF7FEFF 		bl	GUI_FillEllipse
 1552              	.LVL197:
 707:.\main.c      ****         GUI_DispStringAt("G#2", text_x, text_y);
 1553              		.loc 1 707 0
 1554 0532 3348     		ldr	r0, .L106+64
 1555 0534 3EE0     		b	.L102
 1556              	.L97:
 708:.\main.c      ****     } else if (strcmp(input_name, "G2") == 0) {
 1557              		.loc 1 708 0
 1558 0536 2046     		mov	r0, r4
 1559 0538 3249     		ldr	r1, .L106+68
 1560 053a FFF7FEFF 		bl	strcmp
 1561              	.LVL198:
 1562 053e 38B9     		cbnz	r0, .L98
 709:.\main.c      ****         GUI_FillEllipse(SCREEN_WIDTH/2, LOWER_OFFSET + 8*NOTE_SPACING, NOTE_WIDTH, NOTE_HEIGHT);
 1563              		.loc 1 709 0
 1564 0540 7820     		movs	r0, #120
 1565 0542 B421     		movs	r1, #180
 1566 0544 0C22     		movs	r2, #12
 1567 0546 0823     		movs	r3, #8
 1568 0548 FFF7FEFF 		bl	GUI_FillEllipse
 1569              	.LVL199:
 710:.\main.c      ****         GUI_DispStringAt("G2", text_x, text_y);
 1570              		.loc 1 710 0
 1571 054c 2D48     		ldr	r0, .L106+68
 1572 054e 31E0     		b	.L102
 1573              	.L98:
 711:.\main.c      ****     } else if (strcmp(input_name, "F#2") == 0) {
 1574              		.loc 1 711 0
 1575 0550 2046     		mov	r0, r4
 1576 0552 2D49     		ldr	r1, .L106+72
 1577 0554 FFF7FEFF 		bl	strcmp
 1578              	.LVL200:
 1579 0558 88B9     		cbnz	r0, .L99
 712:.\main.c      ****         GUI_FillEllipse(SCREEN_WIDTH/2, LOWER_OFFSET + 9*NOTE_SPACING, NOTE_WIDTH, NOTE_HEIGHT);
 1580              		.loc 1 712 0
 1581 055a 0823     		movs	r3, #8
 1582 055c 7820     		movs	r0, #120
 1583 055e BB21     		movs	r1, #187
 1584 0560 0C22     		movs	r2, #12
 1585 0562 FFF7FEFF 		bl	GUI_FillEllipse
 1586              	.LVL201:
 713:.\main.c      ****         GUI_DispStringAt("F#2", text_x, text_y);
 1587              		.loc 1 713 0
 1588 0566 7821     		movs	r1, #120
 1589 0568 F022     		movs	r2, #240
 1590 056a 2748     		ldr	r0, .L106+72
 1591 056c FFF7FEFF 		bl	GUI_DispStringAt
ARM GAS  C:\Users\IVYLIU~1\AppData\Local\Temp\cc0nPDNQ.s 			page 42


 1592              	.LVL202:
 714:.\main.c      **** 
 715:.\main.c      ****         GUI_SetFont(&GUI_Font24B_ASCII);
 1593              		.loc 1 715 0
 1594 0570 1448     		ldr	r0, .L106+4
 1595 0572 FFF7FEFF 		bl	GUI_SetFont
 1596              	.LVL203:
 716:.\main.c      ****         GUI_DispStringAt("#", SCREEN_WIDTH/2 + 2*NOTE_WIDTH, LOWER_OFFSET + 9*NOTE_SPACING);
 1597              		.loc 1 716 0
 1598 0576 1448     		ldr	r0, .L106+8
 1599 0578 9021     		movs	r1, #144
 1600 057a BB22     		movs	r2, #187
 1601 057c 1CE0     		b	.L103
 1602              	.L99:
 717:.\main.c      ****     } else if (strcmp(input_name, "F2") == 0) {
 1603              		.loc 1 717 0
 1604 057e 2046     		mov	r0, r4
 1605 0580 2249     		ldr	r1, .L106+76
 1606 0582 FFF7FEFF 		bl	strcmp
 1607              	.LVL204:
 1608 0586 38B9     		cbnz	r0, .L100
 718:.\main.c      ****         GUI_FillEllipse(SCREEN_WIDTH/2, LOWER_OFFSET + 9*NOTE_SPACING, NOTE_WIDTH, NOTE_HEIGHT);
 1609              		.loc 1 718 0
 1610 0588 7820     		movs	r0, #120
 1611 058a BB21     		movs	r1, #187
 1612 058c 0C22     		movs	r2, #12
 1613 058e 0823     		movs	r3, #8
 1614 0590 FFF7FEFF 		bl	GUI_FillEllipse
 1615              	.LVL205:
 719:.\main.c      ****         GUI_DispStringAt("F2", text_x, text_y);
 1616              		.loc 1 719 0
 1617 0594 1D48     		ldr	r0, .L106+76
 1618 0596 0DE0     		b	.L102
 1619              	.L100:
 720:.\main.c      ****     } else if (strcmp(input_name, "E2") == 0) {
 1620              		.loc 1 720 0
 1621 0598 2046     		mov	r0, r4
 1622 059a 1D49     		ldr	r1, .L106+80
 1623 059c FFF7FEFF 		bl	strcmp
 1624              	.LVL206:
 1625 05a0 38B9     		cbnz	r0, .L101
 721:.\main.c      ****         GUI_FillEllipse(SCREEN_WIDTH/2, LOWER_OFFSET + 10*NOTE_SPACING, NOTE_WIDTH, NOTE_HEIGHT);
 1626              		.loc 1 721 0
 1627 05a2 7820     		movs	r0, #120
 1628 05a4 C321     		movs	r1, #195
 1629 05a6 0C22     		movs	r2, #12
 1630 05a8 0823     		movs	r3, #8
 1631 05aa FFF7FEFF 		bl	GUI_FillEllipse
 1632              	.LVL207:
 722:.\main.c      ****         GUI_DispStringAt("E2", text_x, text_y);
 1633              		.loc 1 722 0
 1634 05ae 1848     		ldr	r0, .L106+80
 1635 05b0 00E0     		b	.L102
 1636              	.L101:
 723:.\main.c      ****     } else {
 724:.\main.c      ****         GUI_DispStringAt("Invalid!", text_x, text_y);
 1637              		.loc 1 724 0
ARM GAS  C:\Users\IVYLIU~1\AppData\Local\Temp\cc0nPDNQ.s 			page 43


 1638 05b2 1848     		ldr	r0, .L106+84
 1639              	.L102:
 1640 05b4 7821     		movs	r1, #120
 1641 05b6 F022     		movs	r2, #240
 1642              	.L103:
 725:.\main.c      ****     }
 726:.\main.c      **** }
 1643              		.loc 1 726 0
 1644 05b8 BDE81040 		pop	{r4, lr}
 1645              		.cfi_restore 14
 1646              		.cfi_restore 4
 1647              		.cfi_def_cfa_offset 0
 1648              	.LVL208:
 724:.\main.c      ****     }
 1649              		.loc 1 724 0
 1650 05bc FFF7FEBF 		b	GUI_DispStringAt
 1651              	.LVL209:
 1652              	.L107:
 1653              		.align	2
 1654              	.L106:
 1655 05c0 33010000 		.word	.LC31
 1656 05c4 00000000 		.word	GUI_Font24B_ASCII
 1657 05c8 F1000000 		.word	.LC11
 1658 05cc 37010000 		.word	.LC32
 1659 05d0 3A010000 		.word	.LC33
 1660 05d4 3E010000 		.word	.LC34
 1661 05d8 41010000 		.word	.LC35
 1662 05dc 45010000 		.word	.LC36
 1663 05e0 48010000 		.word	.LC37
 1664 05e4 4B010000 		.word	.LC38
 1665 05e8 4F010000 		.word	.LC39
 1666 05ec 52010000 		.word	.LC40
 1667 05f0 56010000 		.word	.LC41
 1668 05f4 59010000 		.word	.LC42
 1669 05f8 5C010000 		.word	.LC43
 1670 05fc 60010000 		.word	.LC44
 1671 0600 63010000 		.word	.LC45
 1672 0604 67010000 		.word	.LC46
 1673 0608 6A010000 		.word	.LC47
 1674 060c 6E010000 		.word	.LC48
 1675 0610 71010000 		.word	.LC49
 1676 0614 74010000 		.word	.LC50
 1677              		.cfi_endproc
 1678              	.LFE135:
 1679              		.size	drawNote, .-drawNote
 1680              		.section	.text.drawClefs,"ax",%progbits
 1681              		.align	1
 1682              		.global	drawClefs
 1683              		.thumb
 1684              		.thumb_func
 1685              		.type	drawClefs, %function
 1686              	drawClefs:
 1687              	.LFB136:
 727:.\main.c      **** 
 728:.\main.c      **** // Function: Displays the clefs on the screen
 729:.\main.c      **** void drawClefs(){
 1688              		.loc 1 729 0
ARM GAS  C:\Users\IVYLIU~1\AppData\Local\Temp\cc0nPDNQ.s 			page 44


 1689              		.cfi_startproc
 1690              		@ args = 0, pretend = 0, frame = 0
 1691              		@ frame_needed = 0, uses_anonymous_args = 0
 1692              	.LVL210:
 1693 0000 10B5     		push	{r4, lr}
 1694              		.cfi_def_cfa_offset 8
 1695              		.cfi_offset 4, -8
 1696              		.cfi_offset 14, -4
 1697              		.loc 1 729 0
 1698 0002 1424     		movs	r4, #20
 1699              	.LVL211:
 1700              	.L109:
 730:.\main.c      ****     int i;
 731:.\main.c      ****     for (i = 0; i < LINE_NUM; i++) {
 732:.\main.c      ****         // Draw treble clef lines
 733:.\main.c      ****         GUI_DrawRect(TOP_MARGIN, i*BAR_SPACING + TOP_MARGIN, RIGHT_MARGIN, i*BAR_SPACING + TOP_MARG
 1701              		.loc 1 733 0 discriminator 3
 1702 0004 2146     		mov	r1, r4
 1703 0006 631C     		adds	r3, r4, #1
 1704 0008 1420     		movs	r0, #20
 1705 000a DC22     		movs	r2, #220
 1706 000c FFF7FEFF 		bl	GUI_DrawRect
 1707              	.LVL212:
 734:.\main.c      ****         // Draw bass clef lines
 735:.\main.c      ****         GUI_DrawRect(TOP_MARGIN, LOWER_OFFSET + i*BAR_SPACING, RIGHT_MARGIN, LOWER_OFFSET + i*BAR_S
 1708              		.loc 1 735 0 discriminator 3
 1709 0010 04F16401 		add	r1, r4, #100
 1710 0014 04F16503 		add	r3, r4, #101
 1711 0018 1420     		movs	r0, #20
 1712 001a DC22     		movs	r2, #220
 1713 001c 0F34     		adds	r4, r4, #15
 1714 001e FFF7FEFF 		bl	GUI_DrawRect
 1715              	.LVL213:
 731:.\main.c      ****         // Draw treble clef lines
 1716              		.loc 1 731 0 discriminator 3
 1717 0022 5F2C     		cmp	r4, #95
 1718 0024 EED1     		bne	.L109
 736:.\main.c      ****     }
 737:.\main.c      **** }
 1719              		.loc 1 737 0
 1720 0026 10BD     		pop	{r4, pc}
 1721              		.cfi_endproc
 1722              	.LFE136:
 1723              		.size	drawClefs, .-drawClefs
 1724              		.section	.text.testFunction,"ax",%progbits
 1725              		.align	1
 1726              		.global	testFunction
 1727              		.thumb
 1728              		.thumb_func
 1729              		.type	testFunction, %function
 1730              	testFunction:
 1731              	.LFB124:
 254:.\main.c      ****     // Function: Display Each Note (for testing purposes)
 1732              		.loc 1 254 0
 1733              		.cfi_startproc
 1734              		@ args = 0, pretend = 0, frame = 0
 1735              		@ frame_needed = 0, uses_anonymous_args = 0
ARM GAS  C:\Users\IVYLIU~1\AppData\Local\Temp\cc0nPDNQ.s 			page 45


 1736 0000 10B5     		push	{r4, lr}
 1737              		.cfi_def_cfa_offset 8
 1738              		.cfi_offset 4, -8
 1739              		.cfi_offset 14, -4
 256:.\main.c      ****     GUI_SetColor(GUI_BLACK);
 1740              		.loc 1 256 0
 1741 0002 4FF0FF30 		mov	r0, #-1
 1742 0006 FFF7FEFF 		bl	GUI_SetBkColor
 1743              	.LVL214:
 257:.\main.c      ****     GUI_Clear();
 1744              		.loc 1 257 0
 1745 000a 4FF07F40 		mov	r0, #-16777216
 1746 000e FFF7FEFF 		bl	GUI_SetColor
 1747              	.LVL215:
 258:.\main.c      **** 
 1748              		.loc 1 258 0
 1749 0012 FFF7FEFF 		bl	GUI_Clear
 1750              	.LVL216:
 1751 0016 194C     		ldr	r4, .L115
 1752              	.LVL217:
 1753              	.L112:
 1754 0018 1434     		adds	r4, r4, #20
 1755              	.LVL218:
 263:.\main.c      ****         GUI_Clear();
 1756              		.loc 1 263 0
 1757 001a 54F8283C 		ldr	r3, [r4, #-40]
 1758 001e 63B3     		cbz	r3, .L114
 264:.\main.c      ****         drawClefs();
 1759              		.loc 1 264 0
 1760 0020 FFF7FEFF 		bl	GUI_Clear
 1761              	.LVL219:
 265:.\main.c      ****         drawNote(cur_note->name);
 1762              		.loc 1 265 0
 1763 0024 FFF7FEFF 		bl	drawClefs
 1764              	.LVL220:
 266:.\main.c      **** 
 1765              		.loc 1 266 0
 1766 0028 54F8280C 		ldr	r0, [r4, #-40]
 1767 002c FFF7FEFF 		bl	drawNote
 1768              	.LVL221:
 268:.\main.c      ****         setPixel(cur_note->led_nums[1], 0, 100, 100);
 1769              		.loc 1 268 0
 1770 0030 6422     		movs	r2, #100
 1771 0032 54F81C0C 		ldr	r0, [r4, #-28]
 1772 0036 1346     		mov	r3, r2
 1773 0038 0021     		movs	r1, #0
 1774 003a FFF7FEFF 		bl	setPixel
 1775              	.LVL222:
 269:.\main.c      ****         NP_Update();
 1776              		.loc 1 269 0
 1777 003e 6422     		movs	r2, #100
 1778 0040 1346     		mov	r3, r2
 1779 0042 54F8180C 		ldr	r0, [r4, #-24]
 1780 0046 0021     		movs	r1, #0
 1781 0048 FFF7FEFF 		bl	setPixel
 1782              	.LVL223:
 270:.\main.c      ****         CyDelay(1000);
ARM GAS  C:\Users\IVYLIU~1\AppData\Local\Temp\cc0nPDNQ.s 			page 46


 1783              		.loc 1 270 0
 1784 004c FFF7FEFF 		bl	NP_Update
 1785              	.LVL224:
 271:.\main.c      ****         setPixel(cur_note->led_nums[0], 0, 0, 0);
 1786              		.loc 1 271 0
 1787 0050 4FF47A70 		mov	r0, #1000
 1788 0054 FFF7FEFF 		bl	CyDelay
 1789              	.LVL225:
 272:.\main.c      ****         setPixel(cur_note->led_nums[1], 0, 0, 0);
 1790              		.loc 1 272 0
 1791 0058 0021     		movs	r1, #0
 1792 005a 54F81C0C 		ldr	r0, [r4, #-28]
 1793 005e 0A46     		mov	r2, r1
 1794 0060 0B46     		mov	r3, r1
 1795 0062 FFF7FEFF 		bl	setPixel
 1796              	.LVL226:
 273:.\main.c      ****         NP_Update();
 1797              		.loc 1 273 0
 1798 0066 0021     		movs	r1, #0
 1799 0068 54F8180C 		ldr	r0, [r4, #-24]
 1800 006c 0A46     		mov	r2, r1
 1801 006e 0B46     		mov	r3, r1
 1802 0070 FFF7FEFF 		bl	setPixel
 1803              	.LVL227:
 274:.\main.c      ****         ++cur_note;
 1804              		.loc 1 274 0
 1805 0074 FFF7FEFF 		bl	NP_Update
 1806              	.LVL228:
 1807 0078 CEE7     		b	.L112
 1808              	.LVL229:
 1809              	.L114:
 279:.\main.c      **** 
 1810              		.loc 1 279 0
 1811 007a 10BD     		pop	{r4, pc}
 1812              	.LVL230:
 1813              	.L116:
 1814              		.align	2
 1815              	.L115:
 1816 007c 14000000 		.word	.LANCHOR0+20
 1817              		.cfi_endproc
 1818              	.LFE124:
 1819              		.size	testFunction, .-testFunction
 1820              		.section	.text.detectAndDrawNote,"ax",%progbits
 1821              		.align	1
 1822              		.global	detectAndDrawNote
 1823              		.thumb
 1824              		.thumb_func
 1825              		.type	detectAndDrawNote, %function
 1826              	detectAndDrawNote:
 1827              	.LFB125:
 282:.\main.c      ****     GUI_SetBkColor(GUI_WHITE);
 1828              		.loc 1 282 0
 1829              		.cfi_startproc
 1830              		@ args = 0, pretend = 0, frame = 0
 1831              		@ frame_needed = 0, uses_anonymous_args = 0
 1832 0000 08B5     		push	{r3, lr}
 1833              		.cfi_def_cfa_offset 8
ARM GAS  C:\Users\IVYLIU~1\AppData\Local\Temp\cc0nPDNQ.s 			page 47


 1834              		.cfi_offset 3, -8
 1835              		.cfi_offset 14, -4
 283:.\main.c      ****     GUI_SetColor(GUI_BLACK);
 1836              		.loc 1 283 0
 1837 0002 4FF0FF30 		mov	r0, #-1
 1838 0006 FFF7FEFF 		bl	GUI_SetBkColor
 1839              	.LVL231:
 284:.\main.c      ****     GUI_Clear();
 1840              		.loc 1 284 0
 1841 000a 4FF07F40 		mov	r0, #-16777216
 1842 000e FFF7FEFF 		bl	GUI_SetColor
 1843              	.LVL232:
 285:.\main.c      ****     drawClefs();
 1844              		.loc 1 285 0
 1845 0012 FFF7FEFF 		bl	GUI_Clear
 1846              	.LVL233:
 286:.\main.c      ****     drawNote(getNoteName(detectNote() - middle_c_bin));
 1847              		.loc 1 286 0
 1848 0016 FFF7FEFF 		bl	drawClefs
 1849              	.LVL234:
 287:.\main.c      **** }
 1850              		.loc 1 287 0
 1851 001a FFF7FEFF 		bl	detectNote
 1852              	.LVL235:
 1853 001e 054B     		ldr	r3, .L118
 1854 0020 D3F85C33 		ldr	r3, [r3, #860]
 1855 0024 C01A     		subs	r0, r0, r3
 1856 0026 FFF7FEFF 		bl	getNoteName
 1857              	.LVL236:
 288:.\main.c      **** 
 1858              		.loc 1 288 0
 1859 002a BDE80840 		pop	{r3, lr}
 1860              		.cfi_restore 14
 1861              		.cfi_restore 3
 1862              		.cfi_def_cfa_offset 0
 287:.\main.c      **** }
 1863              		.loc 1 287 0
 1864 002e FFF7FEBF 		b	drawNote
 1865              	.LVL237:
 1866              	.L119:
 1867 0032 00BF     		.align	2
 1868              	.L118:
 1869 0034 00000000 		.word	.LANCHOR0
 1870              		.cfi_endproc
 1871              	.LFE125:
 1872              		.size	detectAndDrawNote, .-detectAndDrawNote
 1873              		.section	.text.drawPlaySong,"ax",%progbits
 1874              		.align	1
 1875              		.global	drawPlaySong
 1876              		.thumb
 1877              		.thumb_func
 1878              		.type	drawPlaySong, %function
 1879              	drawPlaySong:
 1880              	.LFB131:
 390:.\main.c      ****     // Setup
 1881              		.loc 1 390 0
 1882              		.cfi_startproc
ARM GAS  C:\Users\IVYLIU~1\AppData\Local\Temp\cc0nPDNQ.s 			page 48


 1883              		@ args = 0, pretend = 0, frame = 8
 1884              		@ frame_needed = 0, uses_anonymous_args = 0
 1885              	.LVL238:
 1886 0000 2DE9F341 		push	{r0, r1, r4, r5, r6, r7, r8, lr}
 1887              		.cfi_def_cfa_offset 32
 1888              		.cfi_offset 4, -24
 1889              		.cfi_offset 5, -20
 1890              		.cfi_offset 6, -16
 1891              		.cfi_offset 7, -12
 1892              		.cfi_offset 8, -8
 1893              		.cfi_offset 14, -4
 390:.\main.c      ****     // Setup
 1894              		.loc 1 390 0
 1895 0004 0446     		mov	r4, r0
 392:.\main.c      ****     GUI_SetColor(GUI_BLACK);
 1896              		.loc 1 392 0
 1897 0006 4FF0FF30 		mov	r0, #-1
 1898              	.LVL239:
 1899 000a FFF7FEFF 		bl	GUI_SetBkColor
 1900              	.LVL240:
 393:.\main.c      ****     GUI_SetTextMode(GUI_TM_TRANS);
 1901              		.loc 1 393 0
 1902 000e 4FF07F40 		mov	r0, #-16777216
 1903 0012 FFF7FEFF 		bl	GUI_SetColor
 1904              	.LVL241:
 394:.\main.c      ****     GUI_SetTextAlign(GUI_TA_VCENTER); // Bug: GUI_TA_HCENTER fails to center text horizontally
 1905              		.loc 1 394 0
 1906 0016 0220     		movs	r0, #2
 1907 0018 FFF7FEFF 		bl	GUI_SetTextMode
 1908              	.LVL242:
 395:.\main.c      **** 
 1909              		.loc 1 395 0
 1910 001c 0C20     		movs	r0, #12
 1911 001e FFF7FEFF 		bl	GUI_SetTextAlign
 1912              	.LVL243:
 397:.\main.c      ****     drawClefs();
 1913              		.loc 1 397 0
 1914 0022 FFF7FEFF 		bl	GUI_Clear
 1915              	.LVL244:
 398:.\main.c      ****     
 1916              		.loc 1 398 0
 1917 0026 FFF7FEFF 		bl	drawClefs
 1918              	.LVL245:
 402:.\main.c      ****     
 1919              		.loc 1 402 0
 1920 002a 5148     		ldr	r0, .L131
 400:.\main.c      ****     char score_buf[3];
 1921              		.loc 1 400 0
 1922 002c 0025     		movs	r5, #0
 402:.\main.c      ****     
 1923              		.loc 1 402 0
 1924 002e 00EB0410 		add	r0, r0, r4, lsl #4
 1925 0032 8468     		ldr	r4, [r0, #8]
 1926              	.LVL246:
 1927 0034 D0F80C80 		ldr	r8, [r0, #12]
 1928              	.LVL247:
 405:.\main.c      ****     setNote(cur_song.note_seq[note_index], 0, 0, 100);
ARM GAS  C:\Users\IVYLIU~1\AppData\Local\Temp\cc0nPDNQ.s 			page 49


 1929              		.loc 1 405 0
 1930 0038 2068     		ldr	r0, [r4]
 1931 003a FFF7FEFF 		bl	drawNote
 1932              	.LVL248:
 406:.\main.c      ****     GUI_SetFont(&GUI_Font24B_ASCII);
 1933              		.loc 1 406 0
 1934 003e 0021     		movs	r1, #0
 1935 0040 6423     		movs	r3, #100
 1936 0042 0A46     		mov	r2, r1
 1937 0044 2068     		ldr	r0, [r4]
 1938 0046 FFF7FEFF 		bl	setNote
 1939              	.LVL249:
 407:.\main.c      **** 
 1940              		.loc 1 407 0
 1941 004a 4A48     		ldr	r0, .L131+4
 1942 004c FFF7FEFF 		bl	GUI_SetFont
 1943              	.LVL250:
 409:.\main.c      ****     GUI_DispStringHCenterAt("Score", SCREEN_WIDTH/2 - 20, 280);
 1944              		.loc 1 409 0
 1945 0050 4949     		ldr	r1, .L131+8
 1946 0052 0022     		movs	r2, #0
 1947 0054 01A8     		add	r0, sp, #4
 1948 0056 FFF7FEFF 		bl	sprintf
 1949              	.LVL251:
 410:.\main.c      ****     GUI_DispStringHCenterAt(score_buf, SCREEN_WIDTH/2 + 40, 280);
 1950              		.loc 1 410 0
 1951 005a 4848     		ldr	r0, .L131+12
 1952 005c 6421     		movs	r1, #100
 1953 005e 4FF48C72 		mov	r2, #280
 1954 0062 FFF7FEFF 		bl	GUI_DispStringHCenterAt
 1955              	.LVL252:
 411:.\main.c      ****     
 1956              		.loc 1 411 0
 1957 0066 01A8     		add	r0, sp, #4
 1958 0068 A021     		movs	r1, #160
 1959 006a 4FF48C72 		mov	r2, #280
 1960 006e FFF7FEFF 		bl	GUI_DispStringHCenterAt
 1961              	.LVL253:
 1962              	.L121:
 414:.\main.c      ****         // Detect if note is played
 1963              		.loc 1 414 0
 1964 0072 FFF7FEFF 		bl	SW3_Read
 1965              	.LVL254:
 1966 0076 0028     		cmp	r0, #0
 1967 0078 77D0     		beq	.L120
 417:.\main.c      ****             while(!SW2_Read());
 1968              		.loc 1 417 0
 1969 007a FFF7FEFF 		bl	detectNote
 1970              	.LVL255:
 1971 007e 404B     		ldr	r3, .L131+16
 1972 0080 AE00     		lsls	r6, r5, #2
 1973 0082 D3F85C33 		ldr	r3, [r3, #860]
 1974 0086 C01A     		subs	r0, r0, r3
 1975 0088 FFF7FEFF 		bl	getNoteName
 1976              	.LVL256:
 1977 008c 54F82570 		ldr	r7, [r4, r5, lsl #2]
 1978 0090 3946     		mov	r1, r7
ARM GAS  C:\Users\IVYLIU~1\AppData\Local\Temp\cc0nPDNQ.s 			page 50


 1979 0092 FFF7FEFF 		bl	strcmp
 1980              	.LVL257:
 1981 0096 0028     		cmp	r0, #0
 1982 0098 56D1     		bne	.L122
 1983              	.L123:
 418:.\main.c      ****             // flash LEDs green
 1984              		.loc 1 418 0 discriminator 1
 1985 009a FFF7FEFF 		bl	SW2_Read
 1986              	.LVL258:
 1987 009e 0028     		cmp	r0, #0
 1988 00a0 FBD0     		beq	.L123
 420:.\main.c      ****             CyDelay(50);
 1989              		.loc 1 420 0
 1990 00a2 0021     		movs	r1, #0
 1991 00a4 0B46     		mov	r3, r1
 1992 00a6 6422     		movs	r2, #100
 1993 00a8 A059     		ldr	r0, [r4, r6]
 1994 00aa FFF7FEFF 		bl	setNote
 1995              	.LVL259:
 421:.\main.c      **** 
 1996              		.loc 1 421 0
 1997 00ae 3220     		movs	r0, #50
 1998 00b0 FFF7FEFF 		bl	CyDelay
 1999              	.LVL260:
 424:.\main.c      ****             drawNote(cur_song.note_seq[note_index]);
 2000              		.loc 1 424 0
 2001 00b4 4FF0FF30 		mov	r0, #-1
 2002 00b8 FFF7FEFF 		bl	GUI_SetColor
 2003              	.LVL261:
 425:.\main.c      ****             clearLEDs();
 2004              		.loc 1 425 0
 2005 00bc A059     		ldr	r0, [r4, r6]
 2006 00be FFF7FEFF 		bl	drawNote
 2007              	.LVL262:
 426:.\main.c      ****             
 2008              		.loc 1 426 0
 2009 00c2 FFF7FEFF 		bl	clearLEDs
 2010              	.LVL263:
 428:.\main.c      ****             GUI_DispStringHCenterAt("Score", SCREEN_WIDTH/2 - 20, 280);
 2011              		.loc 1 428 0
 2012 00c6 2B48     		ldr	r0, .L131+4
 2013 00c8 FFF7FEFF 		bl	GUI_SetFont
 2014              	.LVL264:
 429:.\main.c      ****             GUI_DispStringHCenterAt(score_buf, SCREEN_WIDTH/2 + 40, 280);
 2015              		.loc 1 429 0
 2016 00cc 2B48     		ldr	r0, .L131+12
 2017 00ce 6421     		movs	r1, #100
 2018 00d0 4FF48C72 		mov	r2, #280
 2019 00d4 FFF7FEFF 		bl	GUI_DispStringHCenterAt
 2020              	.LVL265:
 430:.\main.c      ****             
 2021              		.loc 1 430 0
 2022 00d8 A021     		movs	r1, #160
 2023 00da 4FF48C72 		mov	r2, #280
 2024 00de 01A8     		add	r0, sp, #4
 2025 00e0 FFF7FEFF 		bl	GUI_DispStringHCenterAt
 2026              	.LVL266:
ARM GAS  C:\Users\IVYLIU~1\AppData\Local\Temp\cc0nPDNQ.s 			page 51


 437:.\main.c      ****             sprintf(score_buf, "%d", note_index);   //put index into str buffer for displaying scor
 2027              		.loc 1 437 0
 2028 00e4 0135     		adds	r5, r5, #1
 2029              	.LVL267:
 433:.\main.c      ****             drawClefs();
 2030              		.loc 1 433 0
 2031 00e6 4FF07F40 		mov	r0, #-16777216
 2032 00ea FFF7FEFF 		bl	GUI_SetColor
 2033              	.LVL268:
 434:.\main.c      ****             
 2034              		.loc 1 434 0
 2035 00ee FFF7FEFF 		bl	drawClefs
 2036              	.LVL269:
 438:.\main.c      ****             
 2037              		.loc 1 438 0
 2038 00f2 01A8     		add	r0, sp, #4
 2039 00f4 2049     		ldr	r1, .L131+8
 2040 00f6 2A46     		mov	r2, r5
 2041 00f8 FFF7FEFF 		bl	sprintf
 2042              	.LVL270:
 440:.\main.c      ****                 // print final score then exit playing mode
 2043              		.loc 1 440 0
 2044 00fc 4545     		cmp	r5, r8
 2045 00fe 11DB     		blt	.L124
 442:.\main.c      ****                 GUI_DispStringHCenterAt("Score", SCREEN_WIDTH/2 - 20, 280);
 2046              		.loc 1 442 0
 2047 0100 2048     		ldr	r0, .L131+20
 2048 0102 7821     		movs	r1, #120
 2049 0104 F022     		movs	r2, #240
 2050 0106 FFF7FEFF 		bl	GUI_DispStringHCenterAt
 2051              	.LVL271:
 443:.\main.c      ****                 GUI_DispStringHCenterAt(score_buf, SCREEN_WIDTH/2 + 40, 280);
 2052              		.loc 1 443 0
 2053 010a 1C48     		ldr	r0, .L131+12
 2054 010c 6421     		movs	r1, #100
 2055 010e 4FF48C72 		mov	r2, #280
 2056 0112 FFF7FEFF 		bl	GUI_DispStringHCenterAt
 2057              	.LVL272:
 444:.\main.c      ****                 break;
 2058              		.loc 1 444 0
 2059 0116 01A8     		add	r0, sp, #4
 2060 0118 A021     		movs	r1, #160
 2061 011a 4FF48C72 		mov	r2, #280
 2062 011e FFF7FEFF 		bl	GUI_DispStringHCenterAt
 2063              	.LVL273:
 445:.\main.c      ****             } else {
 2064              		.loc 1 445 0
 2065 0122 22E0     		b	.L120
 2066              	.L124:
 448:.\main.c      ****                 GUI_DispStringHCenterAt(score_buf, SCREEN_WIDTH/2 + 40, 280);
 2067              		.loc 1 448 0
 2068 0124 1548     		ldr	r0, .L131+12
 2069 0126 6421     		movs	r1, #100
 2070 0128 4FF48C72 		mov	r2, #280
 2071 012c FFF7FEFF 		bl	GUI_DispStringHCenterAt
 2072              	.LVL274:
 450:.\main.c      ****                 setNote(cur_song.note_seq[note_index], 0, 0, 100);
ARM GAS  C:\Users\IVYLIU~1\AppData\Local\Temp\cc0nPDNQ.s 			page 52


 2073              		.loc 1 450 0
 2074 0130 0436     		adds	r6, r6, #4
 449:.\main.c      ****                 drawNote(cur_song.note_seq[note_index]);
 2075              		.loc 1 449 0
 2076 0132 01A8     		add	r0, sp, #4
 2077 0134 A021     		movs	r1, #160
 2078 0136 4FF48C72 		mov	r2, #280
 2079 013a FFF7FEFF 		bl	GUI_DispStringHCenterAt
 2080              	.LVL275:
 450:.\main.c      ****                 setNote(cur_song.note_seq[note_index], 0, 0, 100);
 2081              		.loc 1 450 0
 2082 013e A059     		ldr	r0, [r4, r6]
 2083 0140 FFF7FEFF 		bl	drawNote
 2084              	.LVL276:
 451:.\main.c      ****             }
 2085              		.loc 1 451 0
 2086 0144 A059     		ldr	r0, [r4, r6]
 2087 0146 0AE0     		b	.L130
 2088              	.L122:
 455:.\main.c      ****             CyDelay(50);
 2089              		.loc 1 455 0
 2090 0148 0022     		movs	r2, #0
 2091 014a 3846     		mov	r0, r7
 2092 014c 6421     		movs	r1, #100
 2093 014e 1346     		mov	r3, r2
 2094 0150 FFF7FEFF 		bl	setNote
 2095              	.LVL277:
 456:.\main.c      ****             setNote(cur_song.note_seq[note_index], 0, 0, 100);
 2096              		.loc 1 456 0
 2097 0154 3220     		movs	r0, #50
 2098 0156 FFF7FEFF 		bl	CyDelay
 2099              	.LVL278:
 457:.\main.c      ****         }
 2100              		.loc 1 457 0
 2101 015a 54F82500 		ldr	r0, [r4, r5, lsl #2]
 2102              	.L130:
 2103 015e 0021     		movs	r1, #0
 2104 0160 0A46     		mov	r2, r1
 2105 0162 6423     		movs	r3, #100
 2106 0164 FFF7FEFF 		bl	setNote
 2107              	.LVL279:
 2108 0168 83E7     		b	.L121
 2109              	.L120:
 460:.\main.c      **** 
 2110              		.loc 1 460 0
 2111 016a 02B0     		add	sp, sp, #8
 2112              		.cfi_def_cfa_offset 24
 2113              		@ sp needed
 2114 016c BDE8F081 		pop	{r4, r5, r6, r7, r8, pc}
 2115              	.LVL280:
 2116              	.L132:
 2117              		.align	2
 2118              	.L131:
 2119 0170 3C030000 		.word	.LANCHOR0+828
 2120 0174 00000000 		.word	GUI_Font24B_ASCII
 2121 0178 7D010000 		.word	.LC51
 2122 017c 80010000 		.word	.LC52
ARM GAS  C:\Users\IVYLIU~1\AppData\Local\Temp\cc0nPDNQ.s 			page 53


 2123 0180 00000000 		.word	.LANCHOR0
 2124 0184 86010000 		.word	.LC53
 2125              		.cfi_endproc
 2126              	.LFE131:
 2127              		.size	drawPlaySong, .-drawPlaySong
 2128              		.section	.text.startup.main,"ax",%progbits
 2129              		.align	1
 2130              		.global	main
 2131              		.thumb
 2132              		.thumb_func
 2133              		.type	main, %function
 2134              	main:
 2135              	.LFB123:
 181:.\main.c      ****     // Setup of hardware components
 2136              		.loc 1 181 0
 2137              		.cfi_startproc
 2138              		@ args = 0, pretend = 0, frame = 0
 2139              		@ frame_needed = 0, uses_anonymous_args = 0
 2140 0000 10B5     		push	{r4, lr}
 2141              		.cfi_def_cfa_offset 8
 2142              		.cfi_offset 4, -8
 2143              		.cfi_offset 14, -4
 183:.\main.c      ****     ADC_DelSig_1_Start();				    // start the ADC_DelSig_1
 2144              		.loc 1 183 0
 2145              	@ 183 ".\main.c" 1
 2146 0002 62B6     		CPSIE   i
 2147              	@ 0 "" 2
 184:.\main.c      ****     ADC_DelSig_1_StartConvert();		    // start the ADC_DelSig_1 conversion
 2148              		.loc 1 184 0
 2149              		.thumb
 2150 0004 FFF7FEFF 		bl	ADC_DelSig_1_Start
 2151              	.LVL281:
 185:.\main.c      ****     SPIM_1_Start();                         // initialize SPIM component 
 2152              		.loc 1 185 0
 2153 0008 FFF7FEFF 		bl	ADC_DelSig_1_StartConvert
 2154              	.LVL282:
 186:.\main.c      ****     GUI_Init();                             // initilize graphics library
 2155              		.loc 1 186 0
 2156 000c FFF7FEFF 		bl	SPIM_1_Start
 2157              	.LVL283:
 187:.\main.c      ****     NP_Start(LED_NUM, pPixelArray, 12.8);   //Start the NeoPixel component (LED_NUM pix, User array
 2158              		.loc 1 187 0
 2159 0010 FFF7FEFF 		bl	GUI_Init
 2160              	.LVL284:
 188:.\main.c      **** 
 2161              		.loc 1 188 0
 2162 0014 40A3     		adr	r3, .L155
 2163 0016 D3E90023 		ldrd	r2, [r3]
 2164 001a 9020     		movs	r0, #144
 2165 001c 4049     		ldr	r1, .L155+8
 2166 001e FFF7FEFF 		bl	NP_Start
 2167              	.LVL285:
 2168              	.L154:
 190:.\main.c      **** 
 2169              		.loc 1 190 0
 2170 0022 0024     		movs	r4, #0
 2171              	.LVL286:
ARM GAS  C:\Users\IVYLIU~1\AppData\Local\Temp\cc0nPDNQ.s 			page 54


 2172              	.L134:
 194:.\main.c      ****             case START: // draw start screen
 2173              		.loc 1 194 0
 2174 0024 631E     		subs	r3, r4, #1
 2175 0026 062B     		cmp	r3, #6
 2176 0028 05D8     		bhi	.L135
 2177 002a DFE803F0 		tbb	[pc, r3]
 2178              	.L137:
 2179 002e 0A       		.byte	(.L136-.L137)/2
 2180 002f 1D       		.byte	(.L138-.L137)/2
 2181 0030 23       		.byte	(.L139-.L137)/2
 2182 0031 2C       		.byte	(.L140-.L137)/2
 2183 0032 41       		.byte	(.L141-.L137)/2
 2184 0033 04       		.byte	(.L135-.L137)/2
 2185 0034 6F       		.byte	(.L142-.L137)/2
 2186 0035 00       		.p2align 1
 2187              	.L135:
 196:.\main.c      ****                 drawStartScreen();
 2188              		.loc 1 196 0
 2189 0036 FFF7FEFF 		bl	clearLEDs
 2190              	.LVL287:
 198:.\main.c      ****                 break;
 2191              		.loc 1 198 0
 2192 003a 0124     		movs	r4, #1
 197:.\main.c      ****                 state = MODE_SELECT;    // TODO: switch back to Mode_select
 2193              		.loc 1 197 0
 2194 003c FFF7FEFF 		bl	drawStartScreen
 2195              	.LVL288:
 199:.\main.c      ****             case MODE_SELECT: // wait for user to select mode
 2196              		.loc 1 199 0
 2197 0040 F0E7     		b	.L134
 2198              	.LVL289:
 2199              	.L136:
 201:.\main.c      ****                     while(!SW2_Read());
 2200              		.loc 1 201 0
 2201 0042 FFF7FEFF 		bl	SW2_Read
 2202              	.LVL290:
 2203 0046 28B9     		cbnz	r0, .L144
 2204              	.L145:
 202:.\main.c      ****                     state = SONG_SELECT;
 2205              		.loc 1 202 0 discriminator 1
 2206 0048 FFF7FEFF 		bl	SW2_Read
 2207              	.LVL291:
 2208 004c 0028     		cmp	r0, #0
 2209 004e FBD0     		beq	.L145
 2210              	.LVL292:
 203:.\main.c      ****                 } else if (!SW3_Read()) {
 2211              		.loc 1 203 0
 2212 0050 0224     		movs	r4, #2
 2213 0052 E7E7     		b	.L134
 2214              	.LVL293:
 2215              	.L144:
 204:.\main.c      ****                     while(!SW3_Read());
 2216              		.loc 1 204 0
 2217 0054 FFF7FEFF 		bl	SW3_Read
 2218              	.LVL294:
 2219 0058 0028     		cmp	r0, #0
ARM GAS  C:\Users\IVYLIU~1\AppData\Local\Temp\cc0nPDNQ.s 			page 55


 2220 005a E3D1     		bne	.L134
 2221              	.L146:
 205:.\main.c      ****                     state = CALIBRATE_SETUP;
 2222              		.loc 1 205 0 discriminator 1
 2223 005c FFF7FEFF 		bl	SW3_Read
 2224              	.LVL295:
 2225 0060 0028     		cmp	r0, #0
 2226 0062 FBD0     		beq	.L146
 2227              	.LVL296:
 206:.\main.c      ****                 }
 2228              		.loc 1 206 0
 2229 0064 0424     		movs	r4, #4
 2230 0066 DDE7     		b	.L134
 2231              	.LVL297:
 2232              	.L138:
 210:.\main.c      ****                 state = SONG_DONE;
 2233              		.loc 1 210 0
 2234 0068 FFF7FEFF 		bl	drawSongSelection
 2235              	.LVL298:
 2236 006c FFF7FEFF 		bl	drawPlaySong
 2237              	.LVL299:
 211:.\main.c      ****                 break;
 2238              		.loc 1 211 0
 2239 0070 0324     		movs	r4, #3
 212:.\main.c      ****             case SONG_DONE: // wait for user to press SW3 after song is done
 2240              		.loc 1 212 0
 2241 0072 D7E7     		b	.L134
 2242              	.LVL300:
 2243              	.L139:
 214:.\main.c      ****                     while(!SW3_Read());
 2244              		.loc 1 214 0
 2245 0074 FFF7FEFF 		bl	SW3_Read
 2246              	.LVL301:
 2247 0078 0028     		cmp	r0, #0
 2248 007a D3D1     		bne	.L134
 2249              	.L147:
 215:.\main.c      ****                     state = START;
 2250              		.loc 1 215 0 discriminator 1
 2251 007c FFF7FEFF 		bl	SW3_Read
 2252              	.LVL302:
 2253 0080 0028     		cmp	r0, #0
 2254 0082 FBD0     		beq	.L147
 2255 0084 CDE7     		b	.L154
 2256              	.L140:
 220:.\main.c      ****                 setPixel(63, 0, 100, 100);      //leds associated with middle C
 2257              		.loc 1 220 0
 2258 0086 FFF7FEFF 		bl	drawCalibrateScreen
 2259              	.LVL303:
 2260              	.LBB18:
 2261              	.LBB19:
 319:.\main.c      ****     //Compute Red Component
 2262              		.loc 1 319 0
 2263 008a 254B     		ldr	r3, .L155+8
 2264 008c 6422     		movs	r2, #100
 321:.\main.c      ****     //Compute Blue Component
 2265              		.loc 1 321 0
 2266 008e 0021     		movs	r1, #0
ARM GAS  C:\Users\IVYLIU~1\AppData\Local\Temp\cc0nPDNQ.s 			page 56


 319:.\main.c      ****     //Compute Red Component
 2267              		.loc 1 319 0
 2268 0090 83F8BD20 		strb	r2, [r3, #189]
 321:.\main.c      ****     //Compute Blue Component
 2269              		.loc 1 321 0
 2270 0094 83F8BE10 		strb	r1, [r3, #190]
 323:.\main.c      **** }
 2271              		.loc 1 323 0
 2272 0098 83F8BF20 		strb	r2, [r3, #191]
 2273              	.LVL304:
 2274              	.LBE19:
 2275              	.LBE18:
 2276              	.LBB20:
 2277              	.LBB21:
 319:.\main.c      ****     //Compute Red Component
 2278              		.loc 1 319 0
 2279 009c 83F8BA20 		strb	r2, [r3, #186]
 321:.\main.c      ****     //Compute Blue Component
 2280              		.loc 1 321 0
 2281 00a0 83F8BB10 		strb	r1, [r3, #187]
 323:.\main.c      **** }
 2282              		.loc 1 323 0
 2283 00a4 83F8BC20 		strb	r2, [r3, #188]
 2284              	.LBE21:
 2285              	.LBE20:
 224:.\main.c      ****                 break;
 2286              		.loc 1 224 0
 2287 00a8 0524     		movs	r4, #5
 223:.\main.c      ****                 state = CALIBRATE;
 2288              		.loc 1 223 0
 2289 00aa FFF7FEFF 		bl	NP_Update
 2290              	.LVL305:
 225:.\main.c      ****             case CALIBRATE: // calibrate
 2291              		.loc 1 225 0
 2292 00ae B9E7     		b	.L134
 2293              	.LVL306:
 2294              	.L141:
 227:.\main.c      ****                 
 2295              		.loc 1 227 0
 2296 00b0 FFF7FEFF 		bl	detectNote
 2297              	.LVL307:
 2298 00b4 1B4C     		ldr	r4, .L155+12
 2299 00b6 C4F85C03 		str	r0, [r4, #860]
 229:.\main.c      ****                 GUI_SetColor(GUI_BLACK);
 2300              		.loc 1 229 0
 2301 00ba 4FF0FF30 		mov	r0, #-1
 2302 00be FFF7FEFF 		bl	GUI_SetBkColor
 2303              	.LVL308:
 230:.\main.c      ****                 GUI_SetFont(&GUI_Font24B_ASCII);
 2304              		.loc 1 230 0
 2305 00c2 4FF07F40 		mov	r0, #-16777216
 2306 00c6 FFF7FEFF 		bl	GUI_SetColor
 2307              	.LVL309:
 231:.\main.c      ****                 GUI_Clear();
 2308              		.loc 1 231 0
 2309 00ca 1748     		ldr	r0, .L155+16
 2310 00cc FFF7FEFF 		bl	GUI_SetFont
ARM GAS  C:\Users\IVYLIU~1\AppData\Local\Temp\cc0nPDNQ.s 			page 57


 2311              	.LVL310:
 232:.\main.c      ****                 
 2312              		.loc 1 232 0
 2313 00d0 FFF7FEFF 		bl	GUI_Clear
 2314              	.LVL311:
 234:.\main.c      ****                 GUI_DispStringHCenterAt(test_string, 120, 160);
 2315              		.loc 1 234 0
 2316 00d4 D4F85C23 		ldr	r2, [r4, #860]
 2317 00d8 1449     		ldr	r1, .L155+20
 2318 00da 1548     		ldr	r0, .L155+24
 2319 00dc FFF7FEFF 		bl	sprintf
 2320              	.LVL312:
 235:.\main.c      ****                    
 2321              		.loc 1 235 0
 2322 00e0 1348     		ldr	r0, .L155+24
 2323 00e2 7821     		movs	r1, #120
 2324 00e4 A022     		movs	r2, #160
 2325 00e6 FFF7FEFF 		bl	GUI_DispStringHCenterAt
 2326              	.LVL313:
 2327              	.LBB22:
 2328              	.LBB23:
 319:.\main.c      ****     //Compute Red Component
 2329              		.loc 1 319 0
 2330 00ea 0D4B     		ldr	r3, .L155+8
 2331 00ec 0024     		movs	r4, #0
 2332 00ee 83F8BD40 		strb	r4, [r3, #189]
 321:.\main.c      ****     //Compute Blue Component
 2333              		.loc 1 321 0
 2334 00f2 83F8BE40 		strb	r4, [r3, #190]
 323:.\main.c      **** }
 2335              		.loc 1 323 0
 2336 00f6 83F8BF40 		strb	r4, [r3, #191]
 2337              	.LVL314:
 2338              	.LBE23:
 2339              	.LBE22:
 2340              	.LBB24:
 2341              	.LBB25:
 319:.\main.c      ****     //Compute Red Component
 2342              		.loc 1 319 0
 2343 00fa 83F8BA40 		strb	r4, [r3, #186]
 321:.\main.c      ****     //Compute Blue Component
 2344              		.loc 1 321 0
 2345 00fe 83F8BB40 		strb	r4, [r3, #187]
 323:.\main.c      **** }
 2346              		.loc 1 323 0
 2347 0102 83F8BC40 		strb	r4, [r3, #188]
 2348              	.LBE25:
 2349              	.LBE24:
 239:.\main.c      ****                 state = START;
 2350              		.loc 1 239 0
 2351 0106 FFF7FEFF 		bl	NP_Update
 2352              	.LVL315:
 241:.\main.c      ****             case TESTING: // for switching to testing mode
 2353              		.loc 1 241 0
 2354 010a 8BE7     		b	.L134
 2355              	.LVL316:
 2356              	.L142:
ARM GAS  C:\Users\IVYLIU~1\AppData\Local\Temp\cc0nPDNQ.s 			page 58


 243:.\main.c      ****                 break;
 2357              		.loc 1 243 0
 2358 010c FFF7FEFF 		bl	testFunction
 2359              	.LVL317:
 244:.\main.c      ****             default: // reset to start screen if unexpected state
 2360              		.loc 1 244 0
 2361 0110 88E7     		b	.L134
 2362              	.L156:
 2363 0112 00BFAFF3 		.align	3
 2363      0080
 2364              	.L155:
 2365 0118 9A999999 		.word	-1717986918
 2366 011c 99992940 		.word	1076468121
 2367 0120 00000000 		.word	pPixelArray
 2368 0124 00000000 		.word	.LANCHOR0
 2369 0128 00000000 		.word	GUI_Font24B_ASCII
 2370 012c 91010000 		.word	.LC54
 2371 0130 00000000 		.word	test_string
 2372              		.cfi_endproc
 2373              	.LFE123:
 2374              		.size	main, .-main
 2375              		.global	songs
 2376              		.global	SONGS_LENGTH
 2377              		.global	SONG1_SEQ
 2378              		.global	SONG0_SEQ
 2379              		.global	notes
 2380              		.comm	testOutput,4096,4
 2381              		.comm	testInput,8192,4
 2382              		.global	middle_c_bin
 2383              		.global	testIndex
 2384              		.comm	varInstCfftF32,16,4
 2385              		.global	doBitReverse
 2386              		.global	ifftFlag
 2387              		.global	fftSize
 2388              		.global	adcResult
 2389              		.global	offset
 2390              		.global	Deltapower
 2391              		.global	power
 2392              		.comm	pPixelArray,432,1
 2393              		.comm	test_string,16,1
 2394              		.comm	NP_g_nFrameBufferSize,4,4
 2395              		.comm	NP_g_pFrameBuffer,4,4
 2396              		.comm	NP_g_bOwnsBuffer,1,1
 2397              		.comm	NP_g_nDMA_TD,1,1
 2398              		.comm	NP_g_nDMA_Chan,1,1
 2399              		.comm	NP_g_nNumberOfPixels,4,4
 2400 0134 AFF30080 		.section	.rodata
 2401              		.align	2
 2402              		.type	SONGS_LENGTH, %object
 2403              		.size	SONGS_LENGTH, 4
 2404              	SONGS_LENGTH:
 2405 0000 02000000 		.word	2
 2406              		.section	.rodata.str1.1,"aMS",%progbits,1
 2407              	.LC0:
 2408 0000 556E7265 		.ascii	"Unrecognized note\000"
 2408      636F676E 
 2408      697A6564 
ARM GAS  C:\Users\IVYLIU~1\AppData\Local\Temp\cc0nPDNQ.s 			page 59


 2408      206E6F74 
 2408      6500
 2409              	.LC1:
 2410 0012 536F6E67 		.ascii	"Song Selection\000"
 2410      2053656C 
 2410      65637469 
 2410      6F6E00
 2411              	.LC2:
 2412 0021 50726573 		.ascii	"Press SW2 for next option.\000"
 2412      73205357 
 2412      3220666F 
 2412      72206E65 
 2412      7874206F 
 2413              	.LC3:
 2414 003c 50726573 		.ascii	"Press SW3 to confirm selection.\000"
 2414      73205357 
 2414      3320746F 
 2414      20636F6E 
 2414      6669726D 
 2415              	.LC4:
 2416 005c 536F6E67 		.ascii	"Song Selected!\012Play the keys as\012they are show"
 2416      2053656C 
 2416      65637465 
 2416      64210A50 
 2416      6C617920 
 2417 0089 6E2100   		.ascii	"n!\000"
 2418              	.LC5:
 2419 008c 4C696E65 		.ascii	"Line up lit LEDs over\012the middle C key.\012Then,"
 2419      20757020 
 2419      6C697420 
 2419      4C454473 
 2419      206F7665 
 2420 00b9 20706C61 		.ascii	" play it.\000"
 2420      79206974 
 2420      2E00
 2421              	.LC6:
 2422 00c3 57656C63 		.ascii	"Welcome to\012Piano Tiles!\000"
 2422      6F6D6520 
 2422      746F0A50 
 2422      69616E6F 
 2422      2054696C 
 2423              	.LC7:
 2424 00db 506C6179 		.ascii	"Play\000"
 2424      00
 2425              	.LC8:
 2426 00e0 43616C69 		.ascii	"Calibrate\000"
 2426      62726174 
 2426      6500
 2427              	.LC9:
 2428 00ea 473500   		.ascii	"G5\000"
 2429              	.LC10:
 2430 00ed 46233500 		.ascii	"F#5\000"
 2431              	.LC11:
 2432 00f1 2300     		.ascii	"#\000"
 2433              	.LC12:
 2434 00f3 463500   		.ascii	"F5\000"
 2435              	.LC13:
ARM GAS  C:\Users\IVYLIU~1\AppData\Local\Temp\cc0nPDNQ.s 			page 60


 2436 00f6 453500   		.ascii	"E5\000"
 2437              	.LC14:
 2438 00f9 44233500 		.ascii	"D#5\000"
 2439              	.LC15:
 2440 00fd 443500   		.ascii	"D5\000"
 2441              	.LC16:
 2442 0100 43233500 		.ascii	"C#5\000"
 2443              	.LC17:
 2444 0104 433500   		.ascii	"C5\000"
 2445              	.LC18:
 2446 0107 423400   		.ascii	"B4\000"
 2447              	.LC19:
 2448 010a 41233400 		.ascii	"A#4\000"
 2449              	.LC20:
 2450 010e 413400   		.ascii	"A4\000"
 2451              	.LC21:
 2452 0111 47233400 		.ascii	"G#4\000"
 2453              	.LC22:
 2454 0115 473400   		.ascii	"G4\000"
 2455              	.LC23:
 2456 0118 46233400 		.ascii	"F#4\000"
 2457              	.LC24:
 2458 011c 463400   		.ascii	"F4\000"
 2459              	.LC25:
 2460 011f 453400   		.ascii	"E4\000"
 2461              	.LC26:
 2462 0122 44233400 		.ascii	"D#4\000"
 2463              	.LC27:
 2464 0126 443400   		.ascii	"D4\000"
 2465              	.LC28:
 2466 0129 43233400 		.ascii	"C#4\000"
 2467              	.LC29:
 2468 012d 433400   		.ascii	"C4\000"
 2469              	.LC30:
 2470 0130 423300   		.ascii	"B3\000"
 2471              	.LC31:
 2472 0133 41233300 		.ascii	"A#3\000"
 2473              	.LC32:
 2474 0137 413300   		.ascii	"A3\000"
 2475              	.LC33:
 2476 013a 47233300 		.ascii	"G#3\000"
 2477              	.LC34:
 2478 013e 473300   		.ascii	"G3\000"
 2479              	.LC35:
 2480 0141 46233300 		.ascii	"F#3\000"
 2481              	.LC36:
 2482 0145 463300   		.ascii	"F3\000"
 2483              	.LC37:
 2484 0148 453300   		.ascii	"E3\000"
 2485              	.LC38:
 2486 014b 44233300 		.ascii	"D#3\000"
 2487              	.LC39:
 2488 014f 443300   		.ascii	"D3\000"
 2489              	.LC40:
 2490 0152 43233300 		.ascii	"C#3\000"
 2491              	.LC41:
 2492 0156 433300   		.ascii	"C3\000"
ARM GAS  C:\Users\IVYLIU~1\AppData\Local\Temp\cc0nPDNQ.s 			page 61


 2493              	.LC42:
 2494 0159 423200   		.ascii	"B2\000"
 2495              	.LC43:
 2496 015c 41233200 		.ascii	"A#2\000"
 2497              	.LC44:
 2498 0160 413200   		.ascii	"A2\000"
 2499              	.LC45:
 2500 0163 47233200 		.ascii	"G#2\000"
 2501              	.LC46:
 2502 0167 473200   		.ascii	"G2\000"
 2503              	.LC47:
 2504 016a 46233200 		.ascii	"F#2\000"
 2505              	.LC48:
 2506 016e 463200   		.ascii	"F2\000"
 2507              	.LC49:
 2508 0171 453200   		.ascii	"E2\000"
 2509              	.LC50:
 2510 0174 496E7661 		.ascii	"Invalid!\000"
 2510      6C696421 
 2510      00
 2511              	.LC51:
 2512 017d 256400   		.ascii	"%d\000"
 2513              	.LC52:
 2514 0180 53636F72 		.ascii	"Score\000"
 2514      6500
 2515              	.LC53:
 2516 0186 57656C6C 		.ascii	"Well Done!\000"
 2516      20446F6E 
 2516      652100
 2517              	.LC54:
 2518 0191 4D696464 		.ascii	"Middle C Bin\012%d\000"
 2518      6C652043 
 2518      2042696E 
 2518      0A256400 
 2519              	.LC55:
 2520 01a1 46757220 		.ascii	"Fur Elise\000"
 2520      456C6973 
 2520      6500
 2521              	.LC56:
 2522 01ab 5477696E 		.ascii	"Twinkle, Twinkle,\012Little Star\000"
 2522      6B6C652C 
 2522      20547769 
 2522      6E6B6C65 
 2522      2C0A4C69 
 2523              		.data
 2524              		.align	2
 2525              		.set	.LANCHOR0,. + 0
 2526              		.type	notes, %object
 2527              		.size	notes, 820
 2528              	notes:
 2529 0000 EA000000 		.word	.LC9
 2530 0004 4DFFFFFF 		.word	-179
 2531 0008 3B000000 		.word	59
 2532 000c 63000000 		.word	99
 2533 0010 64000000 		.word	100
 2534 0014 ED000000 		.word	.LC10
 2535 0018 BEFFFFFF 		.word	-66
ARM GAS  C:\Users\IVYLIU~1\AppData\Local\Temp\cc0nPDNQ.s 			page 62


 2536 001c 3A000000 		.word	58
 2537 0020 61000000 		.word	97
 2538 0024 62000000 		.word	98
 2539 0028 F3000000 		.word	.LC12
 2540 002c C4FFFFFF 		.word	-60
 2541 0030 39000000 		.word	57
 2542 0034 5F000000 		.word	95
 2543 0038 60000000 		.word	96
 2544 003c F6000000 		.word	.LC13
 2545 0040 CAFFFFFF 		.word	-54
 2546 0044 38000000 		.word	56
 2547 0048 5D000000 		.word	93
 2548 004c 5E000000 		.word	94
 2549 0050 F9000000 		.word	.LC14
 2550 0054 CFFFFFFF 		.word	-49
 2551 0058 37000000 		.word	55
 2552 005c 5B000000 		.word	91
 2553 0060 5C000000 		.word	92
 2554 0064 FD000000 		.word	.LC15
 2555 0068 D4FFFFFF 		.word	-44
 2556 006c 36000000 		.word	54
 2557 0070 59000000 		.word	89
 2558 0074 5A000000 		.word	90
 2559 0078 00010000 		.word	.LC16
 2560 007c D8FFFFFF 		.word	-40
 2561 0080 35000000 		.word	53
 2562 0084 57000000 		.word	87
 2563 0088 58000000 		.word	88
 2564 008c 04010000 		.word	.LC17
 2565 0090 DCFFFFFF 		.word	-36
 2566 0094 34000000 		.word	52
 2567 0098 55000000 		.word	85
 2568 009c 56000000 		.word	86
 2569 00a0 07010000 		.word	.LC18
 2570 00a4 E0FFFFFF 		.word	-32
 2571 00a8 33000000 		.word	51
 2572 00ac 53000000 		.word	83
 2573 00b0 54000000 		.word	84
 2574 00b4 0A010000 		.word	.LC19
 2575 00b8 E4FFFFFF 		.word	-28
 2576 00bc 32000000 		.word	50
 2577 00c0 52000000 		.word	82
 2578 00c4 00000000 		.word	0
 2579 00c8 0E010000 		.word	.LC20
 2580 00cc E8FFFFFF 		.word	-24
 2581 00d0 31000000 		.word	49
 2582 00d4 50000000 		.word	80
 2583 00d8 00000000 		.word	0
 2584 00dc 11010000 		.word	.LC21
 2585 00e0 EBFFFFFF 		.word	-21
 2586 00e4 30000000 		.word	48
 2587 00e8 4E000000 		.word	78
 2588 00ec 00000000 		.word	0
 2589 00f0 15010000 		.word	.LC22
 2590 00f4 EEFFFFFF 		.word	-18
 2591 00f8 2F000000 		.word	47
 2592 00fc 4C000000 		.word	76
ARM GAS  C:\Users\IVYLIU~1\AppData\Local\Temp\cc0nPDNQ.s 			page 63


 2593 0100 4D000000 		.word	77
 2594 0104 18010000 		.word	.LC23
 2595 0108 F1FFFFFF 		.word	-15
 2596 010c 2E000000 		.word	46
 2597 0110 4A000000 		.word	74
 2598 0114 00000000 		.word	0
 2599 0118 1C010000 		.word	.LC24
 2600 011c F4FFFFFF 		.word	-12
 2601 0120 2D000000 		.word	45
 2602 0124 48000000 		.word	72
 2603 0128 49000000 		.word	73
 2604 012c 1F010000 		.word	.LC25
 2605 0130 F7FFFFFF 		.word	-9
 2606 0134 2C000000 		.word	44
 2607 0138 46000000 		.word	70
 2608 013c 47000000 		.word	71
 2609 0140 22010000 		.word	.LC26
 2610 0144 F9FFFFFF 		.word	-7
 2611 0148 2B000000 		.word	43
 2612 014c 44000000 		.word	68
 2613 0150 45000000 		.word	69
 2614 0154 26010000 		.word	.LC27
 2615 0158 FCFFFFFF 		.word	-4
 2616 015c 2A000000 		.word	42
 2617 0160 42000000 		.word	66
 2618 0164 43000000 		.word	67
 2619 0168 29010000 		.word	.LC28
 2620 016c FEFFFFFF 		.word	-2
 2621 0170 29000000 		.word	41
 2622 0174 40000000 		.word	64
 2623 0178 41000000 		.word	65
 2624 017c 2D010000 		.word	.LC29
 2625 0180 00000000 		.word	0
 2626 0184 28000000 		.word	40
 2627 0188 3E000000 		.word	62
 2628 018c 3F000000 		.word	63
 2629 0190 30010000 		.word	.LC30
 2630 0194 02000000 		.word	2
 2631 0198 27000000 		.word	39
 2632 019c 3C000000 		.word	60
 2633 01a0 3D000000 		.word	61
 2634 01a4 33010000 		.word	.LC31
 2635 01a8 04000000 		.word	4
 2636 01ac 26000000 		.word	38
 2637 01b0 3A000000 		.word	58
 2638 01b4 3B000000 		.word	59
 2639 01b8 37010000 		.word	.LC32
 2640 01bc 07000000 		.word	7
 2641 01c0 25000000 		.word	37
 2642 01c4 38000000 		.word	56
 2643 01c8 39000000 		.word	57
 2644 01cc 3A010000 		.word	.LC33
 2645 01d0 09000000 		.word	9
 2646 01d4 24000000 		.word	36
 2647 01d8 37000000 		.word	55
 2648 01dc 00000000 		.word	0
 2649 01e0 3E010000 		.word	.LC34
ARM GAS  C:\Users\IVYLIU~1\AppData\Local\Temp\cc0nPDNQ.s 			page 64


 2650 01e4 0C000000 		.word	12
 2651 01e8 23000000 		.word	35
 2652 01ec 35000000 		.word	53
 2653 01f0 00000000 		.word	0
 2654 01f4 41010000 		.word	.LC35
 2655 01f8 0F000000 		.word	15
 2656 01fc 22000000 		.word	34
 2657 0200 33000000 		.word	51
 2658 0204 00000000 		.word	0
 2659 0208 45010000 		.word	.LC36
 2660 020c 12000000 		.word	18
 2661 0210 21000000 		.word	33
 2662 0214 31000000 		.word	49
 2663 0218 32000000 		.word	50
 2664 021c 48010000 		.word	.LC37
 2665 0220 15000000 		.word	21
 2666 0224 20000000 		.word	32
 2667 0228 2F000000 		.word	47
 2668 022c 30000000 		.word	48
 2669 0230 4B010000 		.word	.LC38
 2670 0234 18000000 		.word	24
 2671 0238 1F000000 		.word	31
 2672 023c 2D000000 		.word	45
 2673 0240 2E000000 		.word	46
 2674 0244 4F010000 		.word	.LC39
 2675 0248 1C000000 		.word	28
 2676 024c 1E000000 		.word	30
 2677 0250 2B000000 		.word	43
 2678 0254 2C000000 		.word	44
 2679 0258 52010000 		.word	.LC40
 2680 025c 20000000 		.word	32
 2681 0260 1D000000 		.word	29
 2682 0264 29000000 		.word	41
 2683 0268 00000000 		.word	0
 2684 026c 56010000 		.word	.LC41
 2685 0270 24000000 		.word	36
 2686 0274 1C000000 		.word	28
 2687 0278 27000000 		.word	39
 2688 027c 28000000 		.word	40
 2689 0280 59010000 		.word	.LC42
 2690 0284 28000000 		.word	40
 2691 0288 1B000000 		.word	27
 2692 028c 25000000 		.word	37
 2693 0290 26000000 		.word	38
 2694 0294 5C010000 		.word	.LC43
 2695 0298 2C000000 		.word	44
 2696 029c 1A000000 		.word	26
 2697 02a0 23000000 		.word	35
 2698 02a4 00000000 		.word	0
 2699 02a8 60010000 		.word	.LC44
 2700 02ac 31000000 		.word	49
 2701 02b0 19000000 		.word	25
 2702 02b4 21000000 		.word	33
 2703 02b8 22000000 		.word	34
 2704 02bc 63010000 		.word	.LC45
 2705 02c0 36000000 		.word	54
 2706 02c4 18000000 		.word	24
ARM GAS  C:\Users\IVYLIU~1\AppData\Local\Temp\cc0nPDNQ.s 			page 65


 2707 02c8 1F000000 		.word	31
 2708 02cc 20000000 		.word	32
 2709 02d0 67010000 		.word	.LC46
 2710 02d4 3C000000 		.word	60
 2711 02d8 17000000 		.word	23
 2712 02dc 1D000000 		.word	29
 2713 02e0 1E000000 		.word	30
 2714 02e4 6A010000 		.word	.LC47
 2715 02e8 42000000 		.word	66
 2716 02ec 16000000 		.word	22
 2717 02f0 1B000000 		.word	27
 2718 02f4 1C000000 		.word	28
 2719 02f8 6E010000 		.word	.LC48
 2720 02fc 4DFFFFFF 		.word	-179
 2721 0300 15000000 		.word	21
 2722 0304 19000000 		.word	25
 2723 0308 1A000000 		.word	26
 2724 030c 71010000 		.word	.LC49
 2725 0310 37FFFFFF 		.word	-201
 2726 0314 14000000 		.word	20
 2727 0318 17000000 		.word	23
 2728 031c 18000000 		.word	24
 2729 0320 00000000 		.word	0
 2730 0324 00000000 		.space	16
 2730      00000000 
 2730      00000000 
 2730      00000000 
 2731              		.type	fftSize, %object
 2732              		.size	fftSize, 4
 2733              	fftSize:
 2734 0334 00040000 		.word	1024
 2735              		.type	doBitReverse, %object
 2736              		.size	doBitReverse, 4
 2737              	doBitReverse:
 2738 0338 01000000 		.word	1
 2739              		.type	songs, %object
 2740              		.size	songs, 32
 2741              	songs:
 2742 033c 00000000 		.word	0
 2743 0340 A1010000 		.word	.LC55
 2744 0344 00000000 		.word	SONG0_SEQ
 2745 0348 55000000 		.word	85
 2746 034c 01000000 		.word	1
 2747 0350 AB010000 		.word	.LC56
 2748 0354 00000000 		.word	SONG1_SEQ
 2749 0358 2A000000 		.word	42
 2750              		.type	middle_c_bin, %object
 2751              		.size	middle_c_bin, 4
 2752              	middle_c_bin:
 2753 035c DC030000 		.word	988
 2754              		.type	SONG1_SEQ, %object
 2755              		.size	SONG1_SEQ, 168
 2756              	SONG1_SEQ:
 2757 0360 2D010000 		.word	.LC29
 2758 0364 2D010000 		.word	.LC29
 2759 0368 15010000 		.word	.LC22
 2760 036c 15010000 		.word	.LC22
ARM GAS  C:\Users\IVYLIU~1\AppData\Local\Temp\cc0nPDNQ.s 			page 66


 2761 0370 0E010000 		.word	.LC20
 2762 0374 0E010000 		.word	.LC20
 2763 0378 15010000 		.word	.LC22
 2764 037c 1C010000 		.word	.LC24
 2765 0380 1C010000 		.word	.LC24
 2766 0384 1F010000 		.word	.LC25
 2767 0388 1F010000 		.word	.LC25
 2768 038c 26010000 		.word	.LC27
 2769 0390 26010000 		.word	.LC27
 2770 0394 2D010000 		.word	.LC29
 2771 0398 15010000 		.word	.LC22
 2772 039c 15010000 		.word	.LC22
 2773 03a0 1C010000 		.word	.LC24
 2774 03a4 1C010000 		.word	.LC24
 2775 03a8 1F010000 		.word	.LC25
 2776 03ac 1F010000 		.word	.LC25
 2777 03b0 26010000 		.word	.LC27
 2778 03b4 15010000 		.word	.LC22
 2779 03b8 15010000 		.word	.LC22
 2780 03bc 1C010000 		.word	.LC24
 2781 03c0 1C010000 		.word	.LC24
 2782 03c4 1F010000 		.word	.LC25
 2783 03c8 1F010000 		.word	.LC25
 2784 03cc 26010000 		.word	.LC27
 2785 03d0 2D010000 		.word	.LC29
 2786 03d4 2D010000 		.word	.LC29
 2787 03d8 15010000 		.word	.LC22
 2788 03dc 15010000 		.word	.LC22
 2789 03e0 0E010000 		.word	.LC20
 2790 03e4 0E010000 		.word	.LC20
 2791 03e8 15010000 		.word	.LC22
 2792 03ec 1C010000 		.word	.LC24
 2793 03f0 1C010000 		.word	.LC24
 2794 03f4 1F010000 		.word	.LC25
 2795 03f8 1F010000 		.word	.LC25
 2796 03fc 26010000 		.word	.LC27
 2797 0400 26010000 		.word	.LC27
 2798 0404 2D010000 		.word	.LC29
 2799              		.type	SONG0_SEQ, %object
 2800              		.size	SONG0_SEQ, 340
 2801              	SONG0_SEQ:
 2802 0408 F6000000 		.word	.LC13
 2803 040c F9000000 		.word	.LC14
 2804 0410 F6000000 		.word	.LC13
 2805 0414 F9000000 		.word	.LC14
 2806 0418 F6000000 		.word	.LC13
 2807 041c 07010000 		.word	.LC18
 2808 0420 FD000000 		.word	.LC15
 2809 0424 04010000 		.word	.LC17
 2810 0428 0E010000 		.word	.LC20
 2811 042c 2D010000 		.word	.LC29
 2812 0430 1F010000 		.word	.LC25
 2813 0434 0E010000 		.word	.LC20
 2814 0438 07010000 		.word	.LC18
 2815 043c 1F010000 		.word	.LC25
 2816 0440 11010000 		.word	.LC21
 2817 0444 07010000 		.word	.LC18
ARM GAS  C:\Users\IVYLIU~1\AppData\Local\Temp\cc0nPDNQ.s 			page 67


 2818 0448 04010000 		.word	.LC17
 2819 044c 1F010000 		.word	.LC25
 2820 0450 F6000000 		.word	.LC13
 2821 0454 F9000000 		.word	.LC14
 2822 0458 F6000000 		.word	.LC13
 2823 045c F9000000 		.word	.LC14
 2824 0460 F6000000 		.word	.LC13
 2825 0464 07010000 		.word	.LC18
 2826 0468 FD000000 		.word	.LC15
 2827 046c 04010000 		.word	.LC17
 2828 0470 0E010000 		.word	.LC20
 2829 0474 2D010000 		.word	.LC29
 2830 0478 1F010000 		.word	.LC25
 2831 047c 0E010000 		.word	.LC20
 2832 0480 07010000 		.word	.LC18
 2833 0484 1F010000 		.word	.LC25
 2834 0488 04010000 		.word	.LC17
 2835 048c 07010000 		.word	.LC18
 2836 0490 0E010000 		.word	.LC20
 2837 0494 07010000 		.word	.LC18
 2838 0498 04010000 		.word	.LC17
 2839 049c FD000000 		.word	.LC15
 2840 04a0 F6000000 		.word	.LC13
 2841 04a4 15010000 		.word	.LC22
 2842 04a8 F3000000 		.word	.LC12
 2843 04ac F6000000 		.word	.LC13
 2844 04b0 FD000000 		.word	.LC15
 2845 04b4 1C010000 		.word	.LC24
 2846 04b8 F6000000 		.word	.LC13
 2847 04bc FD000000 		.word	.LC15
 2848 04c0 04010000 		.word	.LC17
 2849 04c4 1F010000 		.word	.LC25
 2850 04c8 FD000000 		.word	.LC15
 2851 04cc 04010000 		.word	.LC17
 2852 04d0 07010000 		.word	.LC18
 2853 04d4 F6000000 		.word	.LC13
 2854 04d8 F9000000 		.word	.LC14
 2855 04dc F6000000 		.word	.LC13
 2856 04e0 F9000000 		.word	.LC14
 2857 04e4 F6000000 		.word	.LC13
 2858 04e8 07010000 		.word	.LC18
 2859 04ec FD000000 		.word	.LC15
 2860 04f0 04010000 		.word	.LC17
 2861 04f4 0E010000 		.word	.LC20
 2862 04f8 2D010000 		.word	.LC29
 2863 04fc 1F010000 		.word	.LC25
 2864 0500 0E010000 		.word	.LC20
 2865 0504 07010000 		.word	.LC18
 2866 0508 1F010000 		.word	.LC25
 2867 050c 11010000 		.word	.LC21
 2868 0510 07010000 		.word	.LC18
 2869 0514 04010000 		.word	.LC17
 2870 0518 1F010000 		.word	.LC25
 2871 051c F6000000 		.word	.LC13
 2872 0520 F9000000 		.word	.LC14
 2873 0524 F6000000 		.word	.LC13
 2874 0528 F9000000 		.word	.LC14
ARM GAS  C:\Users\IVYLIU~1\AppData\Local\Temp\cc0nPDNQ.s 			page 68


 2875 052c F6000000 		.word	.LC13
 2876 0530 07010000 		.word	.LC18
 2877 0534 FD000000 		.word	.LC15
 2878 0538 04010000 		.word	.LC17
 2879 053c 0E010000 		.word	.LC20
 2880 0540 2D010000 		.word	.LC29
 2881 0544 1F010000 		.word	.LC25
 2882 0548 0E010000 		.word	.LC20
 2883 054c 07010000 		.word	.LC18
 2884 0550 1F010000 		.word	.LC25
 2885 0554 04010000 		.word	.LC17
 2886 0558 0E010000 		.word	.LC20
 2887              		.type	Deltapower, %object
 2888              		.size	Deltapower, 4
 2889              	Deltapower:
 2890 055c 0AD7A33B 		.word	1000593162
 2891              		.type	power, %object
 2892              		.size	power, 4
 2893              	power:
 2894 0560 0000803F 		.word	1065353216
 2895              		.bss
 2896              		.align	2
 2897              		.set	.LANCHOR1,. + 0
 2898              		.type	adcResult, %object
 2899              		.size	adcResult, 4
 2900              	adcResult:
 2901 0000 00000000 		.space	4
 2902              		.type	ifftFlag, %object
 2903              		.size	ifftFlag, 4
 2904              	ifftFlag:
 2905 0004 00000000 		.space	4
 2906              		.type	testIndex, %object
 2907              		.size	testIndex, 4
 2908              	testIndex:
 2909 0008 00000000 		.space	4
 2910              		.type	offset, %object
 2911              		.size	offset, 4
 2912              	offset:
 2913 000c 00000000 		.space	4
 2914              		.text
 2915              	.Letext0:
 2916              		.file 2 "c:\\program files (x86)\\cypress\\psoc creator\\3.3\\psoc creator\\import\\gnu\\arm\\4.9.
 2917              		.file 3 "c:\\program files (x86)\\cypress\\psoc creator\\3.3\\psoc creator\\import\\gnu\\arm\\4.9.
 2918              		.file 4 "Generated_Source\\PSoC5/cytypes.h"
 2919              		.file 5 "..\\emWinGraphics_v5_46\\Code\\Include\\PSoC4_5/LCD.h"
 2920              		.file 6 "..\\emWinGraphics_v5_46\\Code\\Include\\PSoC4_5/GUI_Type.h"
 2921              		.file 7 ".\\DSP\\Include/arm_math_types.h"
 2922              		.file 8 ".\\DSP\\Include/dsp/transform_functions.h"
 2923              		.file 9 "Generated_Source\\PSoC5/NP_funcs.h"
 2924              		.file 10 ".\\Core\\Include/cmsis_gcc.h"
 2925              		.file 11 ".\\Core\\Include/core_cm3.h"
 2926              		.file 12 "..\\emWinGraphics_v5_46\\Code\\Include\\PSoC4_5/GUI.h"
 2927              		.file 13 "c:\\program files (x86)\\cypress\\psoc creator\\3.3\\psoc creator\\import\\gnu\\arm\\4.9
 2928              		.file 14 ".\\DSP\\Include/dsp/complex_math_functions.h"
 2929              		.file 15 ".\\DSP\\Include/dsp/statistics_functions.h"
 2930              		.file 16 "Generated_Source\\PSoC5/adc_threshold.h"
 2931              		.file 17 "Generated_Source\\PSoC5/CyLib.h"
ARM GAS  C:\Users\IVYLIU~1\AppData\Local\Temp\cc0nPDNQ.s 			page 69


 2932              		.file 18 "Generated_Source\\PSoC5/ADC_DelSig_1.h"
 2933              		.file 19 "Generated_Source\\PSoC5/SW3.h"
 2934              		.file 20 "Generated_Source\\PSoC5/SW2.h"
 2935              		.file 21 "c:\\program files (x86)\\cypress\\psoc creator\\3.3\\psoc creator\\import\\gnu\\arm\\4.9
 2936              		.file 22 "Generated_Source\\PSoC5/SPIM_1.h"
 2937              		.section	.debug_info,"",%progbits
 2938              	.Ldebug_info0:
 2939 0000 1A2A0000 		.4byte	0x2a1a
 2940 0004 0400     		.2byte	0x4
 2941 0006 00000000 		.4byte	.Ldebug_abbrev0
 2942 000a 04       		.byte	0x4
 2943 000b 01       		.uleb128 0x1
 2944 000c BD060000 		.4byte	.LASF207
 2945 0010 01       		.byte	0x1
 2946 0011 A8050000 		.4byte	.LASF208
 2947 0015 F2000000 		.4byte	.LASF209
 2948 0019 00000000 		.4byte	.Ldebug_ranges0+0
 2949 001d 00000000 		.4byte	0
 2950 0021 00000000 		.4byte	.Ldebug_line0
 2951 0025 02       		.uleb128 0x2
 2952 0026 08       		.byte	0x8
 2953 0027 04       		.byte	0x4
 2954 0028 F1020000 		.4byte	.LASF0
 2955 002c 02       		.uleb128 0x2
 2956 002d 01       		.byte	0x1
 2957 002e 06       		.byte	0x6
 2958 002f EF010000 		.4byte	.LASF1
 2959 0033 03       		.uleb128 0x3
 2960 0034 94000000 		.4byte	.LASF4
 2961 0038 02       		.byte	0x2
 2962 0039 1D       		.byte	0x1d
 2963 003a 3E000000 		.4byte	0x3e
 2964 003e 02       		.uleb128 0x2
 2965 003f 01       		.byte	0x1
 2966 0040 08       		.byte	0x8
 2967 0041 5E070000 		.4byte	.LASF2
 2968 0045 02       		.uleb128 0x2
 2969 0046 02       		.byte	0x2
 2970 0047 05       		.byte	0x5
 2971 0048 7C070000 		.4byte	.LASF3
 2972 004c 03       		.uleb128 0x3
 2973 004d A9080000 		.4byte	.LASF5
 2974 0051 02       		.byte	0x2
 2975 0052 2B       		.byte	0x2b
 2976 0053 57000000 		.4byte	0x57
 2977 0057 02       		.uleb128 0x2
 2978 0058 02       		.byte	0x2
 2979 0059 07       		.byte	0x7
 2980 005a 51040000 		.4byte	.LASF6
 2981 005e 03       		.uleb128 0x3
 2982 005f 85010000 		.4byte	.LASF7
 2983 0063 02       		.byte	0x2
 2984 0064 3F       		.byte	0x3f
 2985 0065 69000000 		.4byte	0x69
 2986 0069 02       		.uleb128 0x2
 2987 006a 04       		.byte	0x4
 2988 006b 05       		.byte	0x5
ARM GAS  C:\Users\IVYLIU~1\AppData\Local\Temp\cc0nPDNQ.s 			page 70


 2989 006c A8020000 		.4byte	.LASF8
 2990 0070 03       		.uleb128 0x3
 2991 0071 D7080000 		.4byte	.LASF9
 2992 0075 02       		.byte	0x2
 2993 0076 41       		.byte	0x41
 2994 0077 7B000000 		.4byte	0x7b
 2995 007b 02       		.uleb128 0x2
 2996 007c 04       		.byte	0x4
 2997 007d 07       		.byte	0x7
 2998 007e 19040000 		.4byte	.LASF10
 2999 0082 02       		.uleb128 0x2
 3000 0083 08       		.byte	0x8
 3001 0084 05       		.byte	0x5
 3002 0085 E1010000 		.4byte	.LASF11
 3003 0089 02       		.uleb128 0x2
 3004 008a 08       		.byte	0x8
 3005 008b 07       		.byte	0x7
 3006 008c 41010000 		.4byte	.LASF12
 3007 0090 04       		.uleb128 0x4
 3008 0091 04       		.byte	0x4
 3009 0092 05       		.byte	0x5
 3010 0093 696E7400 		.ascii	"int\000"
 3011 0097 02       		.uleb128 0x2
 3012 0098 04       		.byte	0x4
 3013 0099 07       		.byte	0x7
 3014 009a 0C040000 		.4byte	.LASF13
 3015 009e 03       		.uleb128 0x3
 3016 009f C6090000 		.4byte	.LASF14
 3017 00a3 03       		.byte	0x3
 3018 00a4 15       		.byte	0x15
 3019 00a5 33000000 		.4byte	0x33
 3020 00a9 03       		.uleb128 0x3
 3021 00aa DD020000 		.4byte	.LASF15
 3022 00ae 03       		.byte	0x3
 3023 00af 21       		.byte	0x21
 3024 00b0 4C000000 		.4byte	0x4c
 3025 00b4 03       		.uleb128 0x3
 3026 00b5 56070000 		.4byte	.LASF16
 3027 00b9 03       		.byte	0x3
 3028 00ba 2C       		.byte	0x2c
 3029 00bb 5E000000 		.4byte	0x5e
 3030 00bf 03       		.uleb128 0x3
 3031 00c0 59090000 		.4byte	.LASF17
 3032 00c4 03       		.byte	0x3
 3033 00c5 2D       		.byte	0x2d
 3034 00c6 70000000 		.4byte	0x70
 3035 00ca 05       		.uleb128 0x5
 3036 00cb C1020000 		.4byte	.LASF18
 3037 00cf 04       		.byte	0x4
 3038 00d0 9201     		.2byte	0x192
 3039 00d2 3E000000 		.4byte	0x3e
 3040 00d6 05       		.uleb128 0x5
 3041 00d7 5F030000 		.4byte	.LASF19
 3042 00db 04       		.byte	0x4
 3043 00dc 9401     		.2byte	0x194
 3044 00de 7B000000 		.4byte	0x7b
 3045 00e2 05       		.uleb128 0x5
ARM GAS  C:\Users\IVYLIU~1\AppData\Local\Temp\cc0nPDNQ.s 			page 71


 3046 00e3 DD030000 		.4byte	.LASF20
 3047 00e7 04       		.byte	0x4
 3048 00e8 9701     		.2byte	0x197
 3049 00ea 69000000 		.4byte	0x69
 3050 00ee 02       		.uleb128 0x2
 3051 00ef 04       		.byte	0x4
 3052 00f0 04       		.byte	0x4
 3053 00f1 36060000 		.4byte	.LASF21
 3054 00f5 02       		.uleb128 0x2
 3055 00f6 01       		.byte	0x1
 3056 00f7 08       		.byte	0x8
 3057 00f8 72080000 		.4byte	.LASF22
 3058 00fc 06       		.uleb128 0x6
 3059 00fd CA000000 		.4byte	0xca
 3060 0101 02       		.uleb128 0x2
 3061 0102 04       		.byte	0x4
 3062 0103 07       		.byte	0x7
 3063 0104 75050000 		.4byte	.LASF23
 3064 0108 07       		.uleb128 0x7
 3065 0109 04       		.byte	0x4
 3066 010a 08       		.uleb128 0x8
 3067 010b 04       		.byte	0x4
 3068 010c F5000000 		.4byte	0xf5
 3069 0110 08       		.uleb128 0x8
 3070 0111 04       		.byte	0x4
 3071 0112 16010000 		.4byte	0x116
 3072 0116 09       		.uleb128 0x9
 3073 0117 F5000000 		.4byte	0xf5
 3074 011b 03       		.uleb128 0x3
 3075 011c 27050000 		.4byte	.LASF24
 3076 0120 05       		.byte	0x5
 3077 0121 6A       		.byte	0x6a
 3078 0122 7B000000 		.4byte	0x7b
 3079 0126 08       		.uleb128 0x8
 3080 0127 04       		.byte	0x4
 3081 0128 2C010000 		.4byte	0x12c
 3082 012c 09       		.uleb128 0x9
 3083 012d 3E000000 		.4byte	0x3e
 3084 0131 08       		.uleb128 0x8
 3085 0132 04       		.byte	0x4
 3086 0133 37010000 		.4byte	0x137
 3087 0137 0A       		.uleb128 0xa
 3088 0138 03       		.uleb128 0x3
 3089 0139 A0040000 		.4byte	.LASF25
 3090 013d 06       		.byte	0x6
 3091 013e 3D       		.byte	0x3d
 3092 013f 1B010000 		.4byte	0x11b
 3093 0143 0B       		.uleb128 0xb
 3094 0144 04       		.byte	0x4
 3095 0145 06       		.byte	0x6
 3096 0146 B6       		.byte	0xb6
 3097 0147 62010000 		.4byte	0x162
 3098 014b 0C       		.uleb128 0xc
 3099 014c 633000   		.ascii	"c0\000"
 3100 014f 06       		.byte	0x6
 3101 0150 B7       		.byte	0xb7
 3102 0151 45000000 		.4byte	0x45
ARM GAS  C:\Users\IVYLIU~1\AppData\Local\Temp\cc0nPDNQ.s 			page 72


 3103 0155 00       		.byte	0
 3104 0156 0C       		.uleb128 0xc
 3105 0157 633100   		.ascii	"c1\000"
 3106 015a 06       		.byte	0x6
 3107 015b B8       		.byte	0xb8
 3108 015c 45000000 		.4byte	0x45
 3109 0160 02       		.byte	0x2
 3110 0161 00       		.byte	0
 3111 0162 03       		.uleb128 0x3
 3112 0163 F9030000 		.4byte	.LASF26
 3113 0167 06       		.byte	0x6
 3114 0168 B9       		.byte	0xb9
 3115 0169 43010000 		.4byte	0x143
 3116 016d 0B       		.uleb128 0xb
 3117 016e 08       		.byte	0x8
 3118 016f 06       		.byte	0x6
 3119 0170 BB       		.byte	0xbb
 3120 0171 9A010000 		.4byte	0x19a
 3121 0175 0D       		.uleb128 0xd
 3122 0176 1B0A0000 		.4byte	.LASF27
 3123 017a 06       		.byte	0x6
 3124 017b BC       		.byte	0xbc
 3125 017c 57000000 		.4byte	0x57
 3126 0180 00       		.byte	0
 3127 0181 0D       		.uleb128 0xd
 3128 0182 1E020000 		.4byte	.LASF28
 3129 0186 06       		.byte	0x6
 3130 0187 BD       		.byte	0xbd
 3131 0188 57000000 		.4byte	0x57
 3132 018c 02       		.byte	0x2
 3133 018d 0D       		.uleb128 0xd
 3134 018e 53090000 		.4byte	.LASF29
 3135 0192 06       		.byte	0x6
 3136 0193 BE       		.byte	0xbe
 3137 0194 9A010000 		.4byte	0x19a
 3138 0198 04       		.byte	0x4
 3139 0199 00       		.byte	0
 3140 019a 08       		.uleb128 0x8
 3141 019b 04       		.byte	0x4
 3142 019c A0010000 		.4byte	0x1a0
 3143 01a0 09       		.uleb128 0x9
 3144 01a1 62010000 		.4byte	0x162
 3145 01a5 03       		.uleb128 0x3
 3146 01a6 56000000 		.4byte	.LASF30
 3147 01aa 06       		.byte	0x6
 3148 01ab BF       		.byte	0xbf
 3149 01ac 6D010000 		.4byte	0x16d
 3150 01b0 0B       		.uleb128 0xb
 3151 01b1 08       		.byte	0x8
 3152 01b2 06       		.byte	0x6
 3153 01b3 C1       		.byte	0xc1
 3154 01b4 E9010000 		.4byte	0x1e9
 3155 01b8 0D       		.uleb128 0xd
 3156 01b9 BA090000 		.4byte	.LASF31
 3157 01bd 06       		.byte	0x6
 3158 01be C2       		.byte	0xc2
 3159 01bf 3E000000 		.4byte	0x3e
ARM GAS  C:\Users\IVYLIU~1\AppData\Local\Temp\cc0nPDNQ.s 			page 73


 3160 01c3 00       		.byte	0
 3161 01c4 0D       		.uleb128 0xd
 3162 01c5 6C070000 		.4byte	.LASF32
 3163 01c9 06       		.byte	0x6
 3164 01ca C3       		.byte	0xc3
 3165 01cb 3E000000 		.4byte	0x3e
 3166 01cf 01       		.byte	0x1
 3167 01d0 0D       		.uleb128 0xd
 3168 01d1 9B050000 		.4byte	.LASF33
 3169 01d5 06       		.byte	0x6
 3170 01d6 C4       		.byte	0xc4
 3171 01d7 3E000000 		.4byte	0x3e
 3172 01db 02       		.byte	0x2
 3173 01dc 0D       		.uleb128 0xd
 3174 01dd 880A0000 		.4byte	.LASF34
 3175 01e1 06       		.byte	0x6
 3176 01e2 C5       		.byte	0xc5
 3177 01e3 26010000 		.4byte	0x126
 3178 01e7 04       		.byte	0x4
 3179 01e8 00       		.byte	0
 3180 01e9 03       		.uleb128 0x3
 3181 01ea B6070000 		.4byte	.LASF35
 3182 01ee 06       		.byte	0x6
 3183 01ef C6       		.byte	0xc6
 3184 01f0 B0010000 		.4byte	0x1b0
 3185 01f4 0B       		.uleb128 0xb
 3186 01f5 0C       		.byte	0xc
 3187 01f6 06       		.byte	0x6
 3188 01f7 C8       		.byte	0xc8
 3189 01f8 45020000 		.4byte	0x245
 3190 01fc 0D       		.uleb128 0xd
 3191 01fd BA090000 		.4byte	.LASF31
 3192 0201 06       		.byte	0x6
 3193 0202 C9       		.byte	0xc9
 3194 0203 3E000000 		.4byte	0x3e
 3195 0207 00       		.byte	0
 3196 0208 0D       		.uleb128 0xd
 3197 0209 C0090000 		.4byte	.LASF36
 3198 020d 06       		.byte	0x6
 3199 020e CA       		.byte	0xca
 3200 020f 3E000000 		.4byte	0x3e
 3201 0213 01       		.byte	0x1
 3202 0214 0D       		.uleb128 0xd
 3203 0215 CE0A0000 		.4byte	.LASF37
 3204 0219 06       		.byte	0x6
 3205 021a CB       		.byte	0xcb
 3206 021b 2C000000 		.4byte	0x2c
 3207 021f 02       		.byte	0x2
 3208 0220 0D       		.uleb128 0xd
 3209 0221 80000000 		.4byte	.LASF38
 3210 0225 06       		.byte	0x6
 3211 0226 CC       		.byte	0xcc
 3212 0227 2C000000 		.4byte	0x2c
 3213 022b 03       		.byte	0x3
 3214 022c 0D       		.uleb128 0xd
 3215 022d 6C070000 		.4byte	.LASF32
 3216 0231 06       		.byte	0x6
ARM GAS  C:\Users\IVYLIU~1\AppData\Local\Temp\cc0nPDNQ.s 			page 74


 3217 0232 CD       		.byte	0xcd
 3218 0233 3E000000 		.4byte	0x3e
 3219 0237 04       		.byte	0x4
 3220 0238 0D       		.uleb128 0xd
 3221 0239 880A0000 		.4byte	.LASF34
 3222 023d 06       		.byte	0x6
 3223 023e CE       		.byte	0xce
 3224 023f 26010000 		.4byte	0x126
 3225 0243 08       		.byte	0x8
 3226 0244 00       		.byte	0
 3227 0245 03       		.uleb128 0x3
 3228 0246 AE000000 		.4byte	.LASF39
 3229 024a 06       		.byte	0x6
 3230 024b CF       		.byte	0xcf
 3231 024c F4010000 		.4byte	0x1f4
 3232 0250 0E       		.uleb128 0xe
 3233 0251 7C020000 		.4byte	.LASF44
 3234 0255 0C       		.byte	0xc
 3235 0256 06       		.byte	0x6
 3236 0257 D1       		.byte	0xd1
 3237 0258 8D020000 		.4byte	0x28d
 3238 025c 0D       		.uleb128 0xd
 3239 025d B7060000 		.4byte	.LASF40
 3240 0261 06       		.byte	0x6
 3241 0262 D2       		.byte	0xd2
 3242 0263 57000000 		.4byte	0x57
 3243 0267 00       		.byte	0
 3244 0268 0D       		.uleb128 0xd
 3245 0269 2F0A0000 		.4byte	.LASF41
 3246 026d 06       		.byte	0x6
 3247 026e D3       		.byte	0xd3
 3248 026f 57000000 		.4byte	0x57
 3249 0273 02       		.byte	0x2
 3250 0274 0D       		.uleb128 0xd
 3251 0275 1D080000 		.4byte	.LASF42
 3252 0279 06       		.byte	0x6
 3253 027a D4       		.byte	0xd4
 3254 027b 8D020000 		.4byte	0x28d
 3255 027f 04       		.byte	0x4
 3256 0280 0D       		.uleb128 0xd
 3257 0281 9E000000 		.4byte	.LASF43
 3258 0285 06       		.byte	0x6
 3259 0286 D5       		.byte	0xd5
 3260 0287 98020000 		.4byte	0x298
 3261 028b 08       		.byte	0x8
 3262 028c 00       		.byte	0
 3263 028d 08       		.uleb128 0x8
 3264 028e 04       		.byte	0x4
 3265 028f 93020000 		.4byte	0x293
 3266 0293 09       		.uleb128 0x9
 3267 0294 E9010000 		.4byte	0x1e9
 3268 0298 08       		.uleb128 0x8
 3269 0299 04       		.byte	0x4
 3270 029a 9E020000 		.4byte	0x29e
 3271 029e 09       		.uleb128 0x9
 3272 029f 50020000 		.4byte	0x250
 3273 02a3 03       		.uleb128 0x3
ARM GAS  C:\Users\IVYLIU~1\AppData\Local\Temp\cc0nPDNQ.s 			page 75


 3274 02a4 7C020000 		.4byte	.LASF44
 3275 02a8 06       		.byte	0x6
 3276 02a9 D6       		.byte	0xd6
 3277 02aa 50020000 		.4byte	0x250
 3278 02ae 0E       		.uleb128 0xe
 3279 02af D0000000 		.4byte	.LASF45
 3280 02b3 0C       		.byte	0xc
 3281 02b4 06       		.byte	0x6
 3282 02b5 D8       		.byte	0xd8
 3283 02b6 EB020000 		.4byte	0x2eb
 3284 02ba 0D       		.uleb128 0xd
 3285 02bb B7060000 		.4byte	.LASF40
 3286 02bf 06       		.byte	0x6
 3287 02c0 D9       		.byte	0xd9
 3288 02c1 57000000 		.4byte	0x57
 3289 02c5 00       		.byte	0
 3290 02c6 0D       		.uleb128 0xd
 3291 02c7 2F0A0000 		.4byte	.LASF41
 3292 02cb 06       		.byte	0x6
 3293 02cc DA       		.byte	0xda
 3294 02cd 57000000 		.4byte	0x57
 3295 02d1 02       		.byte	0x2
 3296 02d2 0D       		.uleb128 0xd
 3297 02d3 1D080000 		.4byte	.LASF42
 3298 02d7 06       		.byte	0x6
 3299 02d8 DB       		.byte	0xdb
 3300 02d9 EB020000 		.4byte	0x2eb
 3301 02dd 04       		.byte	0x4
 3302 02de 0D       		.uleb128 0xd
 3303 02df 9E000000 		.4byte	.LASF43
 3304 02e3 06       		.byte	0x6
 3305 02e4 DC       		.byte	0xdc
 3306 02e5 F6020000 		.4byte	0x2f6
 3307 02e9 08       		.byte	0x8
 3308 02ea 00       		.byte	0
 3309 02eb 08       		.uleb128 0x8
 3310 02ec 04       		.byte	0x4
 3311 02ed F1020000 		.4byte	0x2f1
 3312 02f1 09       		.uleb128 0x9
 3313 02f2 45020000 		.4byte	0x245
 3314 02f6 08       		.uleb128 0x8
 3315 02f7 04       		.byte	0x4
 3316 02f8 FC020000 		.4byte	0x2fc
 3317 02fc 09       		.uleb128 0x9
 3318 02fd AE020000 		.4byte	0x2ae
 3319 0301 03       		.uleb128 0x3
 3320 0302 D0000000 		.4byte	.LASF45
 3321 0306 06       		.byte	0x6
 3322 0307 DD       		.byte	0xdd
 3323 0308 AE020000 		.4byte	0x2ae
 3324 030c 0B       		.uleb128 0xb
 3325 030d 14       		.byte	0x14
 3326 030e 06       		.byte	0x6
 3327 030f DF       		.byte	0xdf
 3328 0310 75030000 		.4byte	0x375
 3329 0314 0D       		.uleb128 0xd
 3330 0315 880A0000 		.4byte	.LASF34
ARM GAS  C:\Users\IVYLIU~1\AppData\Local\Temp\cc0nPDNQ.s 			page 76


 3331 0319 06       		.byte	0x6
 3332 031a E0       		.byte	0xe0
 3333 031b 26010000 		.4byte	0x126
 3334 031f 00       		.byte	0
 3335 0320 0D       		.uleb128 0xd
 3336 0321 8E060000 		.4byte	.LASF46
 3337 0325 06       		.byte	0x6
 3338 0326 E1       		.byte	0xe1
 3339 0327 26010000 		.4byte	0x126
 3340 032b 04       		.byte	0x4
 3341 032c 0D       		.uleb128 0xd
 3342 032d ED040000 		.4byte	.LASF47
 3343 0331 06       		.byte	0x6
 3344 0332 E2       		.byte	0xe2
 3345 0333 75030000 		.4byte	0x375
 3346 0337 08       		.byte	0x8
 3347 0338 0D       		.uleb128 0xd
 3348 0339 1B0A0000 		.4byte	.LASF27
 3349 033d 06       		.byte	0x6
 3350 033e E3       		.byte	0xe3
 3351 033f 57000000 		.4byte	0x57
 3352 0343 0C       		.byte	0xc
 3353 0344 0D       		.uleb128 0xd
 3354 0345 1E020000 		.4byte	.LASF28
 3355 0349 06       		.byte	0x6
 3356 034a E4       		.byte	0xe4
 3357 034b 57000000 		.4byte	0x57
 3358 034f 0E       		.byte	0xe
 3359 0350 0D       		.uleb128 0xd
 3360 0351 BA090000 		.4byte	.LASF31
 3361 0355 06       		.byte	0x6
 3362 0356 E5       		.byte	0xe5
 3363 0357 3E000000 		.4byte	0x3e
 3364 035b 10       		.byte	0x10
 3365 035c 0D       		.uleb128 0xd
 3366 035d 6C070000 		.4byte	.LASF32
 3367 0361 06       		.byte	0x6
 3368 0362 E6       		.byte	0xe6
 3369 0363 3E000000 		.4byte	0x3e
 3370 0367 11       		.byte	0x11
 3371 0368 0D       		.uleb128 0xd
 3372 0369 9B050000 		.4byte	.LASF33
 3373 036d 06       		.byte	0x6
 3374 036e E7       		.byte	0xe7
 3375 036f 3E000000 		.4byte	0x3e
 3376 0373 12       		.byte	0x12
 3377 0374 00       		.byte	0
 3378 0375 08       		.uleb128 0x8
 3379 0376 04       		.byte	0x4
 3380 0377 7B030000 		.4byte	0x37b
 3381 037b 09       		.uleb128 0x9
 3382 037c A5010000 		.4byte	0x1a5
 3383 0380 03       		.uleb128 0x3
 3384 0381 CB050000 		.4byte	.LASF48
 3385 0385 06       		.byte	0x6
 3386 0386 E8       		.byte	0xe8
 3387 0387 0C030000 		.4byte	0x30c
ARM GAS  C:\Users\IVYLIU~1\AppData\Local\Temp\cc0nPDNQ.s 			page 77


 3388 038b 0B       		.uleb128 0xb
 3389 038c 06       		.byte	0x6
 3390 038d 06       		.byte	0x6
 3391 038e F1       		.byte	0xf1
 3392 038f C4030000 		.4byte	0x3c4
 3393 0393 0D       		.uleb128 0xd
 3394 0394 CB080000 		.4byte	.LASF49
 3395 0398 06       		.byte	0x6
 3396 0399 F2       		.byte	0xf2
 3397 039a 57000000 		.4byte	0x57
 3398 039e 00       		.byte	0
 3399 039f 0D       		.uleb128 0xd
 3400 03a0 97040000 		.4byte	.LASF50
 3401 03a4 06       		.byte	0x6
 3402 03a5 F3       		.byte	0xf3
 3403 03a6 3E000000 		.4byte	0x3e
 3404 03aa 02       		.byte	0x2
 3405 03ab 0D       		.uleb128 0xd
 3406 03ac EA000000 		.4byte	.LASF51
 3407 03b0 06       		.byte	0x6
 3408 03b1 F4       		.byte	0xf4
 3409 03b2 3E000000 		.4byte	0x3e
 3410 03b6 03       		.byte	0x3
 3411 03b7 0D       		.uleb128 0xd
 3412 03b8 F4040000 		.4byte	.LASF52
 3413 03bc 06       		.byte	0x6
 3414 03bd F5       		.byte	0xf5
 3415 03be 3E000000 		.4byte	0x3e
 3416 03c2 04       		.byte	0x4
 3417 03c3 00       		.byte	0
 3418 03c4 03       		.uleb128 0x3
 3419 03c5 C0040000 		.4byte	.LASF53
 3420 03c9 06       		.byte	0x6
 3421 03ca F6       		.byte	0xf6
 3422 03cb 8B030000 		.4byte	0x38b
 3423 03cf 05       		.uleb128 0x5
 3424 03d0 F8020000 		.4byte	.LASF54
 3425 03d4 06       		.byte	0x6
 3426 03d5 1301     		.2byte	0x113
 3427 03d7 DB030000 		.4byte	0x3db
 3428 03db 0F       		.uleb128 0xf
 3429 03dc 90000000 		.4byte	0x90
 3430 03e0 EF030000 		.4byte	0x3ef
 3431 03e4 10       		.uleb128 0x10
 3432 03e5 10010000 		.4byte	0x110
 3433 03e9 10       		.uleb128 0x10
 3434 03ea 90000000 		.4byte	0x90
 3435 03ee 00       		.byte	0
 3436 03ef 05       		.uleb128 0x5
 3437 03f0 6F030000 		.4byte	.LASF55
 3438 03f4 06       		.byte	0x6
 3439 03f5 1401     		.2byte	0x114
 3440 03f7 DB030000 		.4byte	0x3db
 3441 03fb 05       		.uleb128 0x5
 3442 03fc 85030000 		.4byte	.LASF56
 3443 0400 06       		.byte	0x6
 3444 0401 1501     		.2byte	0x115
ARM GAS  C:\Users\IVYLIU~1\AppData\Local\Temp\cc0nPDNQ.s 			page 78


 3445 0403 07040000 		.4byte	0x407
 3446 0407 11       		.uleb128 0x11
 3447 0408 17040000 		.4byte	0x417
 3448 040c 10       		.uleb128 0x10
 3449 040d 10010000 		.4byte	0x110
 3450 0411 10       		.uleb128 0x10
 3451 0412 90000000 		.4byte	0x90
 3452 0416 00       		.byte	0
 3453 0417 12       		.uleb128 0x12
 3454 0418 0C       		.byte	0xc
 3455 0419 06       		.byte	0x6
 3456 041a 1701     		.2byte	0x117
 3457 041c 48040000 		.4byte	0x448
 3458 0420 13       		.uleb128 0x13
 3459 0421 86070000 		.4byte	.LASF57
 3460 0425 06       		.byte	0x6
 3461 0426 1801     		.2byte	0x118
 3462 0428 48040000 		.4byte	0x448
 3463 042c 00       		.byte	0
 3464 042d 13       		.uleb128 0x13
 3465 042e 3C090000 		.4byte	.LASF58
 3466 0432 06       		.byte	0x6
 3467 0433 1901     		.2byte	0x119
 3468 0435 4E040000 		.4byte	0x44e
 3469 0439 04       		.byte	0x4
 3470 043a 13       		.uleb128 0x13
 3471 043b 42080000 		.4byte	.LASF59
 3472 043f 06       		.byte	0x6
 3473 0440 1A01     		.2byte	0x11a
 3474 0442 54040000 		.4byte	0x454
 3475 0446 08       		.byte	0x8
 3476 0447 00       		.byte	0
 3477 0448 08       		.uleb128 0x8
 3478 0449 04       		.byte	0x4
 3479 044a CF030000 		.4byte	0x3cf
 3480 044e 08       		.uleb128 0x8
 3481 044f 04       		.byte	0x4
 3482 0450 EF030000 		.4byte	0x3ef
 3483 0454 08       		.uleb128 0x8
 3484 0455 04       		.byte	0x4
 3485 0456 FB030000 		.4byte	0x3fb
 3486 045a 05       		.uleb128 0x5
 3487 045b 98080000 		.4byte	.LASF60
 3488 045f 06       		.byte	0x6
 3489 0460 1B01     		.2byte	0x11b
 3490 0462 17040000 		.4byte	0x417
 3491 0466 05       		.uleb128 0x5
 3492 0467 66030000 		.4byte	.LASF61
 3493 046b 06       		.byte	0x6
 3494 046c 2401     		.2byte	0x124
 3495 046e 72040000 		.4byte	0x472
 3496 0472 14       		.uleb128 0x14
 3497 0473 66030000 		.4byte	.LASF61
 3498 0477 24       		.byte	0x24
 3499 0478 06       		.byte	0x6
 3500 0479 B101     		.2byte	0x1b1
 3501 047b 34050000 		.4byte	0x534
ARM GAS  C:\Users\IVYLIU~1\AppData\Local\Temp\cc0nPDNQ.s 			page 79


 3502 047f 13       		.uleb128 0x13
 3503 0480 E6020000 		.4byte	.LASF62
 3504 0484 06       		.byte	0x6
 3505 0485 B201     		.2byte	0x1b2
 3506 0487 3F060000 		.4byte	0x63f
 3507 048b 00       		.byte	0
 3508 048c 13       		.uleb128 0x13
 3509 048d EF050000 		.4byte	.LASF63
 3510 0491 06       		.byte	0x6
 3511 0492 B301     		.2byte	0x1b3
 3512 0494 45060000 		.4byte	0x645
 3513 0498 04       		.byte	0x4
 3514 0499 13       		.uleb128 0x13
 3515 049a 40020000 		.4byte	.LASF64
 3516 049e 06       		.byte	0x6
 3517 049f B401     		.2byte	0x1b4
 3518 04a1 4B060000 		.4byte	0x64b
 3519 04a5 08       		.byte	0x8
 3520 04a6 13       		.uleb128 0x13
 3521 04a7 BD0A0000 		.4byte	.LASF65
 3522 04ab 06       		.byte	0x6
 3523 04ac B501     		.2byte	0x1b5
 3524 04ae 51060000 		.4byte	0x651
 3525 04b2 0C       		.byte	0xc
 3526 04b3 13       		.uleb128 0x13
 3527 04b4 A9010000 		.4byte	.LASF66
 3528 04b8 06       		.byte	0x6
 3529 04b9 B601     		.2byte	0x1b6
 3530 04bb 57060000 		.4byte	0x657
 3531 04bf 10       		.byte	0x10
 3532 04c0 13       		.uleb128 0x13
 3533 04c1 EE080000 		.4byte	.LASF67
 3534 04c5 06       		.byte	0x6
 3535 04c6 B701     		.2byte	0x1b7
 3536 04c8 5D060000 		.4byte	0x65d
 3537 04cc 14       		.byte	0x14
 3538 04cd 13       		.uleb128 0x13
 3539 04ce C0090000 		.4byte	.LASF36
 3540 04d2 06       		.byte	0x6
 3541 04d3 B801     		.2byte	0x1b8
 3542 04d5 3E000000 		.4byte	0x3e
 3543 04d9 18       		.byte	0x18
 3544 04da 13       		.uleb128 0x13
 3545 04db 7F030000 		.4byte	.LASF68
 3546 04df 06       		.byte	0x6
 3547 04e0 B901     		.2byte	0x1b9
 3548 04e2 3E000000 		.4byte	0x3e
 3549 04e6 19       		.byte	0x19
 3550 04e7 13       		.uleb128 0x13
 3551 04e8 F4030000 		.4byte	.LASF69
 3552 04ec 06       		.byte	0x6
 3553 04ed BA01     		.2byte	0x1ba
 3554 04ef 3E000000 		.4byte	0x3e
 3555 04f3 1A       		.byte	0x1a
 3556 04f4 13       		.uleb128 0x13
 3557 04f5 09080000 		.4byte	.LASF70
 3558 04f9 06       		.byte	0x6
ARM GAS  C:\Users\IVYLIU~1\AppData\Local\Temp\cc0nPDNQ.s 			page 80


 3559 04fa BB01     		.2byte	0x1bb
 3560 04fc 3E000000 		.4byte	0x3e
 3561 0500 1B       		.byte	0x1b
 3562 0501 15       		.uleb128 0x15
 3563 0502 7000     		.ascii	"p\000"
 3564 0504 06       		.byte	0x6
 3565 0505 C101     		.2byte	0x1c1
 3566 0507 E4050000 		.4byte	0x5e4
 3567 050b 1C       		.byte	0x1c
 3568 050c 13       		.uleb128 0x13
 3569 050d 97040000 		.4byte	.LASF50
 3570 0511 06       		.byte	0x6
 3571 0512 C201     		.2byte	0x1c2
 3572 0514 3E000000 		.4byte	0x3e
 3573 0518 20       		.byte	0x20
 3574 0519 13       		.uleb128 0x13
 3575 051a EA000000 		.4byte	.LASF51
 3576 051e 06       		.byte	0x6
 3577 051f C301     		.2byte	0x1c3
 3578 0521 3E000000 		.4byte	0x3e
 3579 0525 21       		.byte	0x21
 3580 0526 13       		.uleb128 0x13
 3581 0527 F4040000 		.4byte	.LASF52
 3582 052b 06       		.byte	0x6
 3583 052c C401     		.2byte	0x1c4
 3584 052e 3E000000 		.4byte	0x3e
 3585 0532 22       		.byte	0x22
 3586 0533 00       		.byte	0
 3587 0534 05       		.uleb128 0x5
 3588 0535 E0040000 		.4byte	.LASF71
 3589 0539 06       		.byte	0x6
 3590 053a 2601     		.2byte	0x126
 3591 053c 40050000 		.4byte	0x540
 3592 0540 11       		.uleb128 0x11
 3593 0541 4B050000 		.4byte	0x54b
 3594 0545 10       		.uleb128 0x10
 3595 0546 57000000 		.4byte	0x57
 3596 054a 00       		.byte	0
 3597 054b 05       		.uleb128 0x5
 3598 054c 30040000 		.4byte	.LASF72
 3599 0550 06       		.byte	0x6
 3600 0551 2701     		.2byte	0x127
 3601 0553 57050000 		.4byte	0x557
 3602 0557 0F       		.uleb128 0xf
 3603 0558 90000000 		.4byte	0x90
 3604 055c 6B050000 		.4byte	0x56b
 3605 0560 10       		.uleb128 0x10
 3606 0561 57000000 		.4byte	0x57
 3607 0565 10       		.uleb128 0x10
 3608 0566 6B050000 		.4byte	0x56b
 3609 056a 00       		.byte	0
 3610 056b 08       		.uleb128 0x8
 3611 056c 04       		.byte	0x4
 3612 056d 90000000 		.4byte	0x90
 3613 0571 05       		.uleb128 0x5
 3614 0572 7E050000 		.4byte	.LASF73
 3615 0576 06       		.byte	0x6
ARM GAS  C:\Users\IVYLIU~1\AppData\Local\Temp\cc0nPDNQ.s 			page 81


 3616 0577 2801     		.2byte	0x128
 3617 0579 7D050000 		.4byte	0x57d
 3618 057d 11       		.uleb128 0x11
 3619 057e 8D050000 		.4byte	0x58d
 3620 0582 10       		.uleb128 0x10
 3621 0583 8D050000 		.4byte	0x58d
 3622 0587 10       		.uleb128 0x10
 3623 0588 98050000 		.4byte	0x598
 3624 058c 00       		.byte	0
 3625 058d 08       		.uleb128 0x8
 3626 058e 04       		.byte	0x4
 3627 058f 93050000 		.4byte	0x593
 3628 0593 09       		.uleb128 0x9
 3629 0594 66040000 		.4byte	0x466
 3630 0598 08       		.uleb128 0x8
 3631 0599 04       		.byte	0x4
 3632 059a C4030000 		.4byte	0x3c4
 3633 059e 05       		.uleb128 0x5
 3634 059f 9C010000 		.4byte	.LASF74
 3635 05a3 06       		.byte	0x6
 3636 05a4 2901     		.2byte	0x129
 3637 05a6 AA050000 		.4byte	0x5aa
 3638 05aa 0F       		.uleb128 0xf
 3639 05ab F5000000 		.4byte	0xf5
 3640 05af BE050000 		.4byte	0x5be
 3641 05b3 10       		.uleb128 0x10
 3642 05b4 8D050000 		.4byte	0x58d
 3643 05b8 10       		.uleb128 0x10
 3644 05b9 57000000 		.4byte	0x57
 3645 05bd 00       		.byte	0
 3646 05be 05       		.uleb128 0x5
 3647 05bf 4F030000 		.4byte	.LASF75
 3648 05c3 06       		.byte	0x6
 3649 05c4 2A01     		.2byte	0x12a
 3650 05c6 CA050000 		.4byte	0x5ca
 3651 05ca 0F       		.uleb128 0xf
 3652 05cb 90000000 		.4byte	0x90
 3653 05cf DE050000 		.4byte	0x5de
 3654 05d3 10       		.uleb128 0x10
 3655 05d4 57000000 		.4byte	0x57
 3656 05d8 10       		.uleb128 0x10
 3657 05d9 DE050000 		.4byte	0x5de
 3658 05dd 00       		.byte	0
 3659 05de 08       		.uleb128 0x8
 3660 05df 04       		.byte	0x4
 3661 05e0 45020000 		.4byte	0x245
 3662 05e4 16       		.uleb128 0x16
 3663 05e5 04       		.byte	0x4
 3664 05e6 06       		.byte	0x6
 3665 05e7 BC01     		.2byte	0x1bc
 3666 05e9 1E060000 		.4byte	0x61e
 3667 05ed 17       		.uleb128 0x17
 3668 05ee CD040000 		.4byte	.LASF76
 3669 05f2 06       		.byte	0x6
 3670 05f3 BD01     		.2byte	0x1bd
 3671 05f5 31010000 		.4byte	0x131
 3672 05f9 17       		.uleb128 0x17
ARM GAS  C:\Users\IVYLIU~1\AppData\Local\Temp\cc0nPDNQ.s 			page 82


 3673 05fa C80A0000 		.4byte	.LASF77
 3674 05fe 06       		.byte	0x6
 3675 05ff BE01     		.2byte	0x1be
 3676 0601 1E060000 		.4byte	0x61e
 3677 0605 17       		.uleb128 0x17
 3678 0606 24030000 		.4byte	.LASF78
 3679 060a 06       		.byte	0x6
 3680 060b BF01     		.2byte	0x1bf
 3681 060d 29060000 		.4byte	0x629
 3682 0611 17       		.uleb128 0x17
 3683 0612 930A0000 		.4byte	.LASF79
 3684 0616 06       		.byte	0x6
 3685 0617 C001     		.2byte	0x1c0
 3686 0619 34060000 		.4byte	0x634
 3687 061d 00       		.byte	0
 3688 061e 08       		.uleb128 0x8
 3689 061f 04       		.byte	0x4
 3690 0620 24060000 		.4byte	0x624
 3691 0624 09       		.uleb128 0x9
 3692 0625 80030000 		.4byte	0x380
 3693 0629 08       		.uleb128 0x8
 3694 062a 04       		.byte	0x4
 3695 062b 2F060000 		.4byte	0x62f
 3696 062f 09       		.uleb128 0x9
 3697 0630 A3020000 		.4byte	0x2a3
 3698 0634 08       		.uleb128 0x8
 3699 0635 04       		.byte	0x4
 3700 0636 3A060000 		.4byte	0x63a
 3701 063a 09       		.uleb128 0x9
 3702 063b 01030000 		.4byte	0x301
 3703 063f 08       		.uleb128 0x8
 3704 0640 04       		.byte	0x4
 3705 0641 34050000 		.4byte	0x534
 3706 0645 08       		.uleb128 0x8
 3707 0646 04       		.byte	0x4
 3708 0647 4B050000 		.4byte	0x54b
 3709 064b 08       		.uleb128 0x8
 3710 064c 04       		.byte	0x4
 3711 064d 71050000 		.4byte	0x571
 3712 0651 08       		.uleb128 0x8
 3713 0652 04       		.byte	0x4
 3714 0653 9E050000 		.4byte	0x59e
 3715 0657 08       		.uleb128 0x8
 3716 0658 04       		.byte	0x4
 3717 0659 BE050000 		.4byte	0x5be
 3718 065d 08       		.uleb128 0x8
 3719 065e 04       		.byte	0x4
 3720 065f 63060000 		.4byte	0x663
 3721 0663 09       		.uleb128 0x9
 3722 0664 5A040000 		.4byte	0x45a
 3723 0668 02       		.uleb128 0x2
 3724 0669 08       		.byte	0x8
 3725 066a 04       		.byte	0x4
 3726 066b 4D080000 		.4byte	.LASF80
 3727 066f 05       		.uleb128 0x5
 3728 0670 49090000 		.4byte	.LASF81
 3729 0674 07       		.byte	0x7
ARM GAS  C:\Users\IVYLIU~1\AppData\Local\Temp\cc0nPDNQ.s 			page 83


 3730 0675 2F01     		.2byte	0x12f
 3731 0677 EE000000 		.4byte	0xee
 3732 067b 18       		.uleb128 0x18
 3733 067c 01       		.byte	0x1
 3734 067d 07       		.byte	0x7
 3735 067e 5802     		.2byte	0x258
 3736 0680 B5060000 		.4byte	0x6b5
 3737 0684 19       		.uleb128 0x19
 3738 0685 BF000000 		.4byte	.LASF82
 3739 0689 00       		.sleb128 0
 3740 068a 19       		.uleb128 0x19
 3741 068b 5A0A0000 		.4byte	.LASF83
 3742 068f 7F       		.sleb128 -1
 3743 0690 19       		.uleb128 0x19
 3744 0691 03060000 		.4byte	.LASF84
 3745 0695 7E       		.sleb128 -2
 3746 0696 19       		.uleb128 0x19
 3747 0697 B4080000 		.4byte	.LASF85
 3748 069b 7D       		.sleb128 -3
 3749 069c 19       		.uleb128 0x19
 3750 069d 5B020000 		.4byte	.LASF86
 3751 06a1 7C       		.sleb128 -4
 3752 06a2 19       		.uleb128 0x19
 3753 06a3 3C060000 		.4byte	.LASF87
 3754 06a7 7B       		.sleb128 -5
 3755 06a8 19       		.uleb128 0x19
 3756 06a9 AA040000 		.4byte	.LASF88
 3757 06ad 7A       		.sleb128 -6
 3758 06ae 19       		.uleb128 0x19
 3759 06af 78040000 		.4byte	.LASF89
 3760 06b3 79       		.sleb128 -7
 3761 06b4 00       		.byte	0
 3762 06b5 05       		.uleb128 0x5
 3763 06b6 EF090000 		.4byte	.LASF90
 3764 06ba 07       		.byte	0x7
 3765 06bb 6102     		.2byte	0x261
 3766 06bd 7B060000 		.4byte	0x67b
 3767 06c1 08       		.uleb128 0x8
 3768 06c2 04       		.byte	0x4
 3769 06c3 6F060000 		.4byte	0x66f
 3770 06c7 08       		.uleb128 0x8
 3771 06c8 04       		.byte	0x4
 3772 06c9 CD060000 		.4byte	0x6cd
 3773 06cd 09       		.uleb128 0x9
 3774 06ce 6F060000 		.4byte	0x66f
 3775 06d2 08       		.uleb128 0x8
 3776 06d3 04       		.byte	0x4
 3777 06d4 D8060000 		.4byte	0x6d8
 3778 06d8 09       		.uleb128 0x9
 3779 06d9 A9000000 		.4byte	0xa9
 3780 06dd 12       		.uleb128 0x12
 3781 06de 10       		.byte	0x10
 3782 06df 08       		.byte	0x8
 3783 06e0 1101     		.2byte	0x111
 3784 06e2 1B070000 		.4byte	0x71b
 3785 06e6 13       		.uleb128 0x13
 3786 06e7 E3030000 		.4byte	.LASF91
ARM GAS  C:\Users\IVYLIU~1\AppData\Local\Temp\cc0nPDNQ.s 			page 84


 3787 06eb 08       		.byte	0x8
 3788 06ec 1301     		.2byte	0x113
 3789 06ee A9000000 		.4byte	0xa9
 3790 06f2 00       		.byte	0
 3791 06f3 13       		.uleb128 0x13
 3792 06f4 94090000 		.4byte	.LASF92
 3793 06f8 08       		.byte	0x8
 3794 06f9 1401     		.2byte	0x114
 3795 06fb C7060000 		.4byte	0x6c7
 3796 06ff 04       		.byte	0x4
 3797 0700 13       		.uleb128 0x13
 3798 0701 D0020000 		.4byte	.LASF93
 3799 0705 08       		.byte	0x8
 3800 0706 1501     		.2byte	0x115
 3801 0708 D2060000 		.4byte	0x6d2
 3802 070c 08       		.byte	0x8
 3803 070d 13       		.uleb128 0x13
 3804 070e AA060000 		.4byte	.LASF94
 3805 0712 08       		.byte	0x8
 3806 0713 1601     		.2byte	0x116
 3807 0715 A9000000 		.4byte	0xa9
 3808 0719 0C       		.byte	0xc
 3809 071a 00       		.byte	0
 3810 071b 05       		.uleb128 0x5
 3811 071c 00000000 		.4byte	.LASF95
 3812 0720 08       		.byte	0x8
 3813 0721 1F01     		.2byte	0x11f
 3814 0723 DD060000 		.4byte	0x6dd
 3815 0727 08       		.uleb128 0x8
 3816 0728 04       		.byte	0x4
 3817 0729 2D070000 		.4byte	0x72d
 3818 072d 09       		.uleb128 0x9
 3819 072e BF000000 		.4byte	0xbf
 3820 0732 1A       		.uleb128 0x1a
 3821 0733 39020000 		.4byte	.LASF210
 3822 0737 01       		.byte	0x1
 3823 0738 01       		.byte	0x1
 3824 0739 40       		.byte	0x40
 3825 073a 6F070000 		.4byte	0x76f
 3826 073e 19       		.uleb128 0x19
 3827 073f A7090000 		.4byte	.LASF96
 3828 0743 00       		.sleb128 0
 3829 0744 19       		.uleb128 0x19
 3830 0745 79010000 		.4byte	.LASF97
 3831 0749 01       		.sleb128 1
 3832 074a 19       		.uleb128 0x19
 3833 074b 6B090000 		.4byte	.LASF98
 3834 074f 02       		.sleb128 2
 3835 0750 19       		.uleb128 0x19
 3836 0751 E5070000 		.4byte	.LASF99
 3837 0755 03       		.sleb128 3
 3838 0756 19       		.uleb128 0x19
 3839 0757 9A030000 		.4byte	.LASF100
 3840 075b 04       		.sleb128 4
 3841 075c 19       		.uleb128 0x19
 3842 075d 3C000000 		.4byte	.LASF101
 3843 0761 05       		.sleb128 5
ARM GAS  C:\Users\IVYLIU~1\AppData\Local\Temp\cc0nPDNQ.s 			page 85


 3844 0762 19       		.uleb128 0x19
 3845 0763 99060000 		.4byte	.LASF102
 3846 0767 06       		.sleb128 6
 3847 0768 19       		.uleb128 0x19
 3848 0769 3A080000 		.4byte	.LASF103
 3849 076d 07       		.sleb128 7
 3850 076e 00       		.byte	0
 3851 076f 0E       		.uleb128 0xe
 3852 0770 D1080000 		.4byte	.LASF104
 3853 0774 14       		.byte	0x14
 3854 0775 01       		.byte	0x1
 3855 0776 5B       		.byte	0x5b
 3856 0777 AC070000 		.4byte	0x7ac
 3857 077b 0D       		.uleb128 0xd
 3858 077c 2B040000 		.4byte	.LASF105
 3859 0780 01       		.byte	0x1
 3860 0781 5D       		.byte	0x5d
 3861 0782 10010000 		.4byte	0x110
 3862 0786 00       		.byte	0
 3863 0787 0D       		.uleb128 0xd
 3864 0788 F8080000 		.4byte	.LASF106
 3865 078c 01       		.byte	0x1
 3866 078d 5E       		.byte	0x5e
 3867 078e 90000000 		.4byte	0x90
 3868 0792 04       		.byte	0x4
 3869 0793 0D       		.uleb128 0xd
 3870 0794 16000000 		.4byte	.LASF107
 3871 0798 01       		.byte	0x1
 3872 0799 5F       		.byte	0x5f
 3873 079a 90000000 		.4byte	0x90
 3874 079e 08       		.byte	0x8
 3875 079f 0D       		.uleb128 0xd
 3876 07a0 CD070000 		.4byte	.LASF108
 3877 07a4 01       		.byte	0x1
 3878 07a5 60       		.byte	0x60
 3879 07a6 AC070000 		.4byte	0x7ac
 3880 07aa 0C       		.byte	0xc
 3881 07ab 00       		.byte	0
 3882 07ac 1B       		.uleb128 0x1b
 3883 07ad 90000000 		.4byte	0x90
 3884 07b1 BC070000 		.4byte	0x7bc
 3885 07b5 1C       		.uleb128 0x1c
 3886 07b6 01010000 		.4byte	0x101
 3887 07ba 01       		.byte	0x1
 3888 07bb 00       		.byte	0
 3889 07bc 0E       		.uleb128 0xe
 3890 07bd B3030000 		.4byte	.LASF109
 3891 07c1 10       		.byte	0x10
 3892 07c2 01       		.byte	0x1
 3893 07c3 93       		.byte	0x93
 3894 07c4 F9070000 		.4byte	0x7f9
 3895 07c8 0D       		.uleb128 0xd
 3896 07c9 30000000 		.4byte	.LASF110
 3897 07cd 01       		.byte	0x1
 3898 07ce 95       		.byte	0x95
 3899 07cf F9070000 		.4byte	0x7f9
 3900 07d3 00       		.byte	0
ARM GAS  C:\Users\IVYLIU~1\AppData\Local\Temp\cc0nPDNQ.s 			page 86


 3901 07d4 0D       		.uleb128 0xd
 3902 07d5 2B040000 		.4byte	.LASF105
 3903 07d9 01       		.byte	0x1
 3904 07da 96       		.byte	0x96
 3905 07db 10010000 		.4byte	0x110
 3906 07df 04       		.byte	0x4
 3907 07e0 0D       		.uleb128 0xd
 3908 07e1 31080000 		.4byte	.LASF111
 3909 07e5 01       		.byte	0x1
 3910 07e6 97       		.byte	0x97
 3911 07e7 FE070000 		.4byte	0x7fe
 3912 07eb 08       		.byte	0x8
 3913 07ec 0D       		.uleb128 0xd
 3914 07ed 410A0000 		.4byte	.LASF112
 3915 07f1 01       		.byte	0x1
 3916 07f2 98       		.byte	0x98
 3917 07f3 F9070000 		.4byte	0x7f9
 3918 07f7 0C       		.byte	0xc
 3919 07f8 00       		.byte	0
 3920 07f9 09       		.uleb128 0x9
 3921 07fa 90000000 		.4byte	0x90
 3922 07fe 08       		.uleb128 0x8
 3923 07ff 04       		.byte	0x4
 3924 0800 10010000 		.4byte	0x110
 3925 0804 1D       		.uleb128 0x1d
 3926 0805 9F060000 		.4byte	.LASF175
 3927 0809 01       		.byte	0x1
 3928 080a 4801     		.2byte	0x148
 3929 080c 90000000 		.4byte	0x90
 3930 0810 01       		.byte	0x1
 3931 0811 3A080000 		.4byte	0x83a
 3932 0815 1E       		.uleb128 0x1e
 3933 0816 9D090000 		.4byte	.LASF113
 3934 081a 01       		.byte	0x1
 3935 081b 4901     		.2byte	0x149
 3936 081d 90000000 		.4byte	0x90
 3937 0821 1F       		.uleb128 0x1f
 3938 0822 6900     		.ascii	"i\000"
 3939 0824 01       		.byte	0x1
 3940 0825 4A01     		.2byte	0x14a
 3941 0827 A9000000 		.4byte	0xa9
 3942 082b 20       		.uleb128 0x20
 3943 082c 1E       		.uleb128 0x1e
 3944 082d 46000000 		.4byte	.LASF114
 3945 0831 01       		.byte	0x1
 3946 0832 5C01     		.2byte	0x15c
 3947 0834 6F060000 		.4byte	0x66f
 3948 0838 00       		.byte	0
 3949 0839 00       		.byte	0
 3950 083a 21       		.uleb128 0x21
 3951 083b 62090000 		.4byte	.LASF178
 3952 083f 01       		.byte	0x1
 3953 0840 3D01     		.2byte	0x13d
 3954 0842 01       		.byte	0x1
 3955 0843 70080000 		.4byte	0x870
 3956 0847 22       		.uleb128 0x22
 3957 0848 6900     		.ascii	"i\000"
ARM GAS  C:\Users\IVYLIU~1\AppData\Local\Temp\cc0nPDNQ.s 			page 87


 3958 084a 01       		.byte	0x1
 3959 084b 3D01     		.2byte	0x13d
 3960 084d 90000000 		.4byte	0x90
 3961 0851 22       		.uleb128 0x22
 3962 0852 7200     		.ascii	"r\000"
 3963 0854 01       		.byte	0x1
 3964 0855 3D01     		.2byte	0x13d
 3965 0857 90000000 		.4byte	0x90
 3966 085b 22       		.uleb128 0x22
 3967 085c 6700     		.ascii	"g\000"
 3968 085e 01       		.byte	0x1
 3969 085f 3D01     		.2byte	0x13d
 3970 0861 90000000 		.4byte	0x90
 3971 0865 22       		.uleb128 0x22
 3972 0866 6200     		.ascii	"b\000"
 3973 0868 01       		.byte	0x1
 3974 0869 3D01     		.2byte	0x13d
 3975 086b 90000000 		.4byte	0x90
 3976 086f 00       		.byte	0
 3977 0870 23       		.uleb128 0x23
 3978 0871 3A080000 		.4byte	0x83a
 3979 0875 00000000 		.4byte	.LFB128
 3980 0879 18000000 		.4byte	.LFE128-.LFB128
 3981 087d 01       		.uleb128 0x1
 3982 087e 9C       		.byte	0x9c
 3983 087f A2080000 		.4byte	0x8a2
 3984 0883 24       		.uleb128 0x24
 3985 0884 47080000 		.4byte	0x847
 3986 0888 00000000 		.4byte	.LLST0
 3987 088c 25       		.uleb128 0x25
 3988 088d 51080000 		.4byte	0x851
 3989 0891 01       		.uleb128 0x1
 3990 0892 51       		.byte	0x51
 3991 0893 25       		.uleb128 0x25
 3992 0894 5B080000 		.4byte	0x85b
 3993 0898 01       		.uleb128 0x1
 3994 0899 52       		.byte	0x52
 3995 089a 25       		.uleb128 0x25
 3996 089b 65080000 		.4byte	0x865
 3997 089f 01       		.uleb128 0x1
 3998 08a0 53       		.byte	0x53
 3999 08a1 00       		.byte	0
 4000 08a2 26       		.uleb128 0x26
 4001 08a3 250A0000 		.4byte	.LASF115
 4002 08a7 01       		.byte	0x1
 4003 08a8 2301     		.2byte	0x123
 4004 08aa 00000000 		.4byte	.LFB126
 4005 08ae 1E000000 		.4byte	.LFE126-.LFB126
 4006 08b2 01       		.uleb128 0x1
 4007 08b3 9C       		.byte	0x9c
 4008 08b4 FD080000 		.4byte	0x8fd
 4009 08b8 27       		.uleb128 0x27
 4010 08b9 02000000 		.4byte	.LBB3
 4011 08bd 14000000 		.4byte	.LBE3-.LBB3
 4012 08c1 F3080000 		.4byte	0x8f3
 4013 08c5 28       		.uleb128 0x28
 4014 08c6 6900     		.ascii	"i\000"
ARM GAS  C:\Users\IVYLIU~1\AppData\Local\Temp\cc0nPDNQ.s 			page 88


 4015 08c8 01       		.byte	0x1
 4016 08c9 2401     		.2byte	0x124
 4017 08cb 90000000 		.4byte	0x90
 4018 08cf 21000000 		.4byte	.LLST1
 4019 08d3 29       		.uleb128 0x29
 4020 08d4 12000000 		.4byte	.LVL5
 4021 08d8 3A080000 		.4byte	0x83a
 4022 08dc 2A       		.uleb128 0x2a
 4023 08dd 01       		.uleb128 0x1
 4024 08de 53       		.byte	0x53
 4025 08df 01       		.uleb128 0x1
 4026 08e0 30       		.byte	0x30
 4027 08e1 2A       		.uleb128 0x2a
 4028 08e2 01       		.uleb128 0x1
 4029 08e3 52       		.byte	0x52
 4030 08e4 01       		.uleb128 0x1
 4031 08e5 30       		.byte	0x30
 4032 08e6 2A       		.uleb128 0x2a
 4033 08e7 01       		.uleb128 0x1
 4034 08e8 51       		.byte	0x51
 4035 08e9 01       		.uleb128 0x1
 4036 08ea 30       		.byte	0x30
 4037 08eb 2A       		.uleb128 0x2a
 4038 08ec 01       		.uleb128 0x1
 4039 08ed 50       		.byte	0x50
 4040 08ee 02       		.uleb128 0x2
 4041 08ef 74       		.byte	0x74
 4042 08f0 7F       		.sleb128 -1
 4043 08f1 00       		.byte	0
 4044 08f2 00       		.byte	0
 4045 08f3 2B       		.uleb128 0x2b
 4046 08f4 1E000000 		.4byte	.LVL7
 4047 08f8 78270000 		.4byte	0x2778
 4048 08fc 00       		.byte	0
 4049 08fd 26       		.uleb128 0x26
 4050 08fe 18090000 		.4byte	.LASF116
 4051 0902 01       		.byte	0x1
 4052 0903 2D01     		.2byte	0x12d
 4053 0905 00000000 		.4byte	.LFB127
 4054 0909 4C000000 		.4byte	.LFE127-.LFB127
 4055 090d 01       		.uleb128 0x1
 4056 090e 9C       		.byte	0x9c
 4057 090f BB090000 		.4byte	0x9bb
 4058 0913 2C       		.uleb128 0x2c
 4059 0914 E4090000 		.4byte	.LASF117
 4060 0918 01       		.byte	0x1
 4061 0919 2D01     		.2byte	0x12d
 4062 091b 0A010000 		.4byte	0x10a
 4063 091f 63000000 		.4byte	.LLST2
 4064 0923 2D       		.uleb128 0x2d
 4065 0924 7200     		.ascii	"r\000"
 4066 0926 01       		.byte	0x1
 4067 0927 2D01     		.2byte	0x12d
 4068 0929 90000000 		.4byte	0x90
 4069 092d A8000000 		.4byte	.LLST3
 4070 0931 2D       		.uleb128 0x2d
 4071 0932 6700     		.ascii	"g\000"
ARM GAS  C:\Users\IVYLIU~1\AppData\Local\Temp\cc0nPDNQ.s 			page 89


 4072 0934 01       		.byte	0x1
 4073 0935 2D01     		.2byte	0x12d
 4074 0937 90000000 		.4byte	0x90
 4075 093b ED000000 		.4byte	.LLST4
 4076 093f 2D       		.uleb128 0x2d
 4077 0940 6200     		.ascii	"b\000"
 4078 0942 01       		.byte	0x1
 4079 0943 2D01     		.2byte	0x12d
 4080 0945 90000000 		.4byte	0x90
 4081 0949 32010000 		.4byte	.LLST5
 4082 094d 2E       		.uleb128 0x2e
 4083 094e D9050000 		.4byte	.LASF118
 4084 0952 01       		.byte	0x1
 4085 0953 2E01     		.2byte	0x12e
 4086 0955 BB090000 		.4byte	0x9bb
 4087 0959 77010000 		.4byte	.LLST6
 4088 095d 2F       		.uleb128 0x2f
 4089 095e 18000000 		.4byte	.LVL10
 4090 0962 85270000 		.4byte	0x2785
 4091 0966 71090000 		.4byte	0x971
 4092 096a 2A       		.uleb128 0x2a
 4093 096b 01       		.uleb128 0x1
 4094 096c 51       		.byte	0x51
 4095 096d 02       		.uleb128 0x2
 4096 096e 78       		.byte	0x78
 4097 096f 00       		.sleb128 0
 4098 0970 00       		.byte	0
 4099 0971 2F       		.uleb128 0x2f
 4100 0972 28000000 		.4byte	.LVL11
 4101 0976 3A080000 		.4byte	0x83a
 4102 097a 91090000 		.4byte	0x991
 4103 097e 2A       		.uleb128 0x2a
 4104 097f 01       		.uleb128 0x1
 4105 0980 53       		.byte	0x53
 4106 0981 02       		.uleb128 0x2
 4107 0982 77       		.byte	0x77
 4108 0983 00       		.sleb128 0
 4109 0984 2A       		.uleb128 0x2a
 4110 0985 01       		.uleb128 0x1
 4111 0986 52       		.byte	0x52
 4112 0987 02       		.uleb128 0x2
 4113 0988 76       		.byte	0x76
 4114 0989 00       		.sleb128 0
 4115 098a 2A       		.uleb128 0x2a
 4116 098b 01       		.uleb128 0x1
 4117 098c 51       		.byte	0x51
 4118 098d 02       		.uleb128 0x2
 4119 098e 75       		.byte	0x75
 4120 098f 00       		.sleb128 0
 4121 0990 00       		.byte	0
 4122 0991 2F       		.uleb128 0x2f
 4123 0992 36000000 		.4byte	.LVL12
 4124 0996 3A080000 		.4byte	0x83a
 4125 099a B1090000 		.4byte	0x9b1
 4126 099e 2A       		.uleb128 0x2a
 4127 099f 01       		.uleb128 0x1
 4128 09a0 53       		.byte	0x53
ARM GAS  C:\Users\IVYLIU~1\AppData\Local\Temp\cc0nPDNQ.s 			page 90


 4129 09a1 02       		.uleb128 0x2
 4130 09a2 77       		.byte	0x77
 4131 09a3 00       		.sleb128 0
 4132 09a4 2A       		.uleb128 0x2a
 4133 09a5 01       		.uleb128 0x1
 4134 09a6 52       		.byte	0x52
 4135 09a7 02       		.uleb128 0x2
 4136 09a8 76       		.byte	0x76
 4137 09a9 00       		.sleb128 0
 4138 09aa 2A       		.uleb128 0x2a
 4139 09ab 01       		.uleb128 0x1
 4140 09ac 51       		.byte	0x51
 4141 09ad 02       		.uleb128 0x2
 4142 09ae 75       		.byte	0x75
 4143 09af 00       		.sleb128 0
 4144 09b0 00       		.byte	0
 4145 09b1 2B       		.uleb128 0x2b
 4146 09b2 3E000000 		.4byte	.LVL14
 4147 09b6 78270000 		.4byte	0x2778
 4148 09ba 00       		.byte	0
 4149 09bb 08       		.uleb128 0x8
 4150 09bc 04       		.byte	0x4
 4151 09bd 6F070000 		.4byte	0x76f
 4152 09c1 30       		.uleb128 0x30
 4153 09c2 04080000 		.4byte	0x804
 4154 09c6 00000000 		.4byte	.LFB129
 4155 09ca BC000000 		.4byte	.LFE129-.LFB129
 4156 09ce 01       		.uleb128 0x1
 4157 09cf 9C       		.byte	0x9c
 4158 09d0 DE0A0000 		.4byte	0xade
 4159 09d4 31       		.uleb128 0x31
 4160 09d5 15080000 		.4byte	0x815
 4161 09d9 A5010000 		.4byte	.LLST7
 4162 09dd 31       		.uleb128 0x31
 4163 09de 21080000 		.4byte	0x821
 4164 09e2 DC010000 		.4byte	.LLST8
 4165 09e6 27       		.uleb128 0x27
 4166 09e7 52000000 		.4byte	.LBB8
 4167 09eb 4C000000 		.4byte	.LBE8-.LBB8
 4168 09ef A90A0000 		.4byte	0xaa9
 4169 09f3 31       		.uleb128 0x31
 4170 09f4 15080000 		.4byte	0x815
 4171 09f8 06020000 		.4byte	.LLST9
 4172 09fc 31       		.uleb128 0x31
 4173 09fd 21080000 		.4byte	0x821
 4174 0a01 1A020000 		.4byte	.LLST10
 4175 0a05 32       		.uleb128 0x32
 4176 0a06 52000000 		.4byte	.LBB9
 4177 0a0a 4C000000 		.4byte	.LBE9-.LBB9
 4178 0a0e 33       		.uleb128 0x33
 4179 0a0f 2C080000 		.4byte	0x82c
 4180 0a13 02       		.uleb128 0x2
 4181 0a14 91       		.byte	0x91
 4182 0a15 64       		.sleb128 -28
 4183 0a16 2F       		.uleb128 0x2f
 4184 0a17 60000000 		.4byte	.LVL28
 4185 0a1b 9F270000 		.4byte	0x279f
ARM GAS  C:\Users\IVYLIU~1\AppData\Local\Temp\cc0nPDNQ.s 			page 91


 4186 0a1f 2D0A0000 		.4byte	0xa2d
 4187 0a23 2A       		.uleb128 0x2a
 4188 0a24 01       		.uleb128 0x1
 4189 0a25 50       		.byte	0x50
 4190 0a26 05       		.uleb128 0x5
 4191 0a27 03       		.byte	0x3
 4192 0a28 00000000 		.4byte	varInstCfftF32
 4193 0a2c 00       		.byte	0
 4194 0a2d 2F       		.uleb128 0x2f
 4195 0a2e 6E000000 		.4byte	.LVL29
 4196 0a32 C0270000 		.4byte	0x27c0
 4197 0a36 4A0A0000 		.4byte	0xa4a
 4198 0a3a 2A       		.uleb128 0x2a
 4199 0a3b 01       		.uleb128 0x1
 4200 0a3c 51       		.byte	0x51
 4201 0a3d 02       		.uleb128 0x2
 4202 0a3e 77       		.byte	0x77
 4203 0a3f 00       		.sleb128 0
 4204 0a40 2A       		.uleb128 0x2a
 4205 0a41 01       		.uleb128 0x1
 4206 0a42 50       		.byte	0x50
 4207 0a43 05       		.uleb128 0x5
 4208 0a44 03       		.byte	0x3
 4209 0a45 00000000 		.4byte	varInstCfftF32
 4210 0a49 00       		.byte	0
 4211 0a4a 2F       		.uleb128 0x2f
 4212 0a4b 7A000000 		.4byte	.LVL30
 4213 0a4f EC270000 		.4byte	0x27ec
 4214 0a53 640A0000 		.4byte	0xa64
 4215 0a57 2A       		.uleb128 0x2a
 4216 0a58 01       		.uleb128 0x1
 4217 0a59 51       		.byte	0x51
 4218 0a5a 02       		.uleb128 0x2
 4219 0a5b 76       		.byte	0x76
 4220 0a5c 00       		.sleb128 0
 4221 0a5d 2A       		.uleb128 0x2a
 4222 0a5e 01       		.uleb128 0x1
 4223 0a5f 50       		.byte	0x50
 4224 0a60 02       		.uleb128 0x2
 4225 0a61 77       		.byte	0x77
 4226 0a62 00       		.sleb128 0
 4227 0a63 00       		.byte	0
 4228 0a64 2F       		.uleb128 0x2f
 4229 0a65 8E000000 		.4byte	.LVL31
 4230 0a69 07280000 		.4byte	0x2807
 4231 0a6d 840A0000 		.4byte	0xa84
 4232 0a71 2A       		.uleb128 0x2a
 4233 0a72 01       		.uleb128 0x1
 4234 0a73 53       		.byte	0x53
 4235 0a74 02       		.uleb128 0x2
 4236 0a75 75       		.byte	0x75
 4237 0a76 08       		.sleb128 8
 4238 0a77 2A       		.uleb128 0x2a
 4239 0a78 01       		.uleb128 0x1
 4240 0a79 52       		.byte	0x52
 4241 0a7a 02       		.uleb128 0x2
 4242 0a7b 91       		.byte	0x91
ARM GAS  C:\Users\IVYLIU~1\AppData\Local\Temp\cc0nPDNQ.s 			page 92


 4243 0a7c 64       		.sleb128 -28
 4244 0a7d 2A       		.uleb128 0x2a
 4245 0a7e 01       		.uleb128 0x1
 4246 0a7f 50       		.byte	0x50
 4247 0a80 02       		.uleb128 0x2
 4248 0a81 76       		.byte	0x76
 4249 0a82 00       		.sleb128 0
 4250 0a83 00       		.byte	0
 4251 0a84 2F       		.uleb128 0x2f
 4252 0a85 94000000 		.4byte	.LVL32
 4253 0a89 28280000 		.4byte	0x2828
 4254 0a8d 970A0000 		.4byte	0xa97
 4255 0a91 2A       		.uleb128 0x2a
 4256 0a92 01       		.uleb128 0x1
 4257 0a93 50       		.byte	0x50
 4258 0a94 01       		.uleb128 0x1
 4259 0a95 30       		.byte	0x30
 4260 0a96 00       		.byte	0
 4261 0a97 29       		.uleb128 0x29
 4262 0a98 9A000000 		.4byte	.LVL33
 4263 0a9c 39280000 		.4byte	0x2839
 4264 0aa0 2A       		.uleb128 0x2a
 4265 0aa1 01       		.uleb128 0x1
 4266 0aa2 50       		.byte	0x50
 4267 0aa3 02       		.uleb128 0x2
 4268 0aa4 08       		.byte	0x8
 4269 0aa5 FA       		.byte	0xfa
 4270 0aa6 00       		.byte	0
 4271 0aa7 00       		.byte	0
 4272 0aa8 00       		.byte	0
 4273 0aa9 34       		.uleb128 0x34
 4274 0aaa 0A000000 		.4byte	.LVL19
 4275 0aae 4A280000 		.4byte	0x284a
 4276 0ab2 2F       		.uleb128 0x2f
 4277 0ab3 14000000 		.4byte	.LVL20
 4278 0ab7 55280000 		.4byte	0x2855
 4279 0abb C50A0000 		.4byte	0xac5
 4280 0abf 2A       		.uleb128 0x2a
 4281 0ac0 01       		.uleb128 0x1
 4282 0ac1 50       		.byte	0x50
 4283 0ac2 01       		.uleb128 0x1
 4284 0ac3 30       		.byte	0x30
 4285 0ac4 00       		.byte	0
 4286 0ac5 34       		.uleb128 0x34
 4287 0ac6 1C000000 		.4byte	.LVL21
 4288 0aca 6A280000 		.4byte	0x286a
 4289 0ace 29       		.uleb128 0x29
 4290 0acf 34000000 		.4byte	.LVL22
 4291 0ad3 28280000 		.4byte	0x2828
 4292 0ad7 2A       		.uleb128 0x2a
 4293 0ad8 01       		.uleb128 0x1
 4294 0ad9 50       		.byte	0x50
 4295 0ada 01       		.uleb128 0x1
 4296 0adb 31       		.byte	0x31
 4297 0adc 00       		.byte	0
 4298 0add 00       		.byte	0
 4299 0ade 35       		.uleb128 0x35
ARM GAS  C:\Users\IVYLIU~1\AppData\Local\Temp\cc0nPDNQ.s 			page 93


 4300 0adf 9F070000 		.4byte	.LASF121
 4301 0ae3 01       		.byte	0x1
 4302 0ae4 7501     		.2byte	0x175
 4303 0ae6 0A010000 		.4byte	0x10a
 4304 0aea 00000000 		.4byte	.LFB130
 4305 0aee 24000000 		.4byte	.LFE130-.LFB130
 4306 0af2 01       		.uleb128 0x1
 4307 0af3 9C       		.byte	0x9c
 4308 0af4 290B0000 		.4byte	0xb29
 4309 0af8 2C       		.uleb128 0x2c
 4310 0af9 7B0A0000 		.4byte	.LASF119
 4311 0afd 01       		.byte	0x1
 4312 0afe 7501     		.2byte	0x175
 4313 0b00 90000000 		.4byte	0x90
 4314 0b04 2E020000 		.4byte	.LLST11
 4315 0b08 2E       		.uleb128 0x2e
 4316 0b09 D9050000 		.4byte	.LASF118
 4317 0b0d 01       		.byte	0x1
 4318 0b0e 7701     		.2byte	0x177
 4319 0b10 BB090000 		.4byte	0x9bb
 4320 0b14 4F020000 		.4byte	.LLST12
 4321 0b18 2E       		.uleb128 0x2e
 4322 0b19 72070000 		.4byte	.LASF120
 4323 0b1d 01       		.byte	0x1
 4324 0b1e 7801     		.2byte	0x178
 4325 0b20 10010000 		.4byte	0x110
 4326 0b24 8E020000 		.4byte	.LLST13
 4327 0b28 00       		.byte	0
 4328 0b29 35       		.uleb128 0x35
 4329 0b2a AB0A0000 		.4byte	.LASF122
 4330 0b2e 01       		.byte	0x1
 4331 0b2f CF01     		.2byte	0x1cf
 4332 0b31 90000000 		.4byte	0x90
 4333 0b35 00000000 		.4byte	.LFB132
 4334 0b39 F0000000 		.4byte	.LFE132-.LFB132
 4335 0b3d 01       		.uleb128 0x1
 4336 0b3e 9C       		.byte	0x9c
 4337 0b3f 1D0D0000 		.4byte	0xd1d
 4338 0b43 2E       		.uleb128 0x2e
 4339 0b44 0A030000 		.4byte	.LASF123
 4340 0b48 01       		.byte	0x1
 4341 0b49 DA01     		.2byte	0x1da
 4342 0b4b 90000000 		.4byte	0x90
 4343 0b4f B1020000 		.4byte	.LLST14
 4344 0b53 2F       		.uleb128 0x2f
 4345 0b54 0A000000 		.4byte	.LVL42
 4346 0b58 75280000 		.4byte	0x2875
 4347 0b5c 670B0000 		.4byte	0xb67
 4348 0b60 2A       		.uleb128 0x2a
 4349 0b61 01       		.uleb128 0x1
 4350 0b62 50       		.byte	0x50
 4351 0b63 02       		.uleb128 0x2
 4352 0b64 09       		.byte	0x9
 4353 0b65 FF       		.byte	0xff
 4354 0b66 00       		.byte	0
 4355 0b67 2F       		.uleb128 0x2f
 4356 0b68 12000000 		.4byte	.LVL43
ARM GAS  C:\Users\IVYLIU~1\AppData\Local\Temp\cc0nPDNQ.s 			page 94


 4357 0b6c 87280000 		.4byte	0x2887
 4358 0b70 7D0B0000 		.4byte	0xb7d
 4359 0b74 2A       		.uleb128 0x2a
 4360 0b75 01       		.uleb128 0x1
 4361 0b76 50       		.byte	0x50
 4362 0b77 04       		.uleb128 0x4
 4363 0b78 40       		.byte	0x40
 4364 0b79 44       		.byte	0x44
 4365 0b7a 24       		.byte	0x24
 4366 0b7b 1F       		.byte	0x1f
 4367 0b7c 00       		.byte	0
 4368 0b7d 34       		.uleb128 0x34
 4369 0b7e 18000000 		.4byte	.LVL44
 4370 0b82 99280000 		.4byte	0x2899
 4371 0b86 2F       		.uleb128 0x2f
 4372 0b87 1E000000 		.4byte	.LVL45
 4373 0b8b AF280000 		.4byte	0x28af
 4374 0b8f 990B0000 		.4byte	0xb99
 4375 0b93 2A       		.uleb128 0x2a
 4376 0b94 01       		.uleb128 0x1
 4377 0b95 50       		.byte	0x50
 4378 0b96 01       		.uleb128 0x1
 4379 0b97 32       		.byte	0x32
 4380 0b98 00       		.byte	0
 4381 0b99 2F       		.uleb128 0x2f
 4382 0b9a 24000000 		.4byte	.LVL46
 4383 0b9e C5280000 		.4byte	0x28c5
 4384 0ba2 AC0B0000 		.4byte	0xbac
 4385 0ba6 2A       		.uleb128 0x2a
 4386 0ba7 01       		.uleb128 0x1
 4387 0ba8 50       		.byte	0x50
 4388 0ba9 01       		.uleb128 0x1
 4389 0baa 3C       		.byte	0x3c
 4390 0bab 00       		.byte	0
 4391 0bac 34       		.uleb128 0x34
 4392 0bad 28000000 		.4byte	.LVL47
 4393 0bb1 DB280000 		.4byte	0x28db
 4394 0bb5 34       		.uleb128 0x34
 4395 0bb6 2E000000 		.4byte	.LVL48
 4396 0bba 99280000 		.4byte	0x2899
 4397 0bbe 2F       		.uleb128 0x2f
 4398 0bbf 38000000 		.4byte	.LVL49
 4399 0bc3 E3280000 		.4byte	0x28e3
 4400 0bc7 E00B0000 		.4byte	0xbe0
 4401 0bcb 2A       		.uleb128 0x2a
 4402 0bcc 01       		.uleb128 0x1
 4403 0bcd 52       		.byte	0x52
 4404 0bce 01       		.uleb128 0x1
 4405 0bcf 44       		.byte	0x44
 4406 0bd0 2A       		.uleb128 0x2a
 4407 0bd1 01       		.uleb128 0x1
 4408 0bd2 51       		.byte	0x51
 4409 0bd3 02       		.uleb128 0x2
 4410 0bd4 08       		.byte	0x8
 4411 0bd5 78       		.byte	0x78
 4412 0bd6 2A       		.uleb128 0x2a
 4413 0bd7 01       		.uleb128 0x1
ARM GAS  C:\Users\IVYLIU~1\AppData\Local\Temp\cc0nPDNQ.s 			page 95


 4414 0bd8 50       		.byte	0x50
 4415 0bd9 05       		.uleb128 0x5
 4416 0bda 03       		.byte	0x3
 4417 0bdb 12000000 		.4byte	.LC1
 4418 0bdf 00       		.byte	0
 4419 0be0 34       		.uleb128 0x34
 4420 0be1 3E000000 		.4byte	.LVL50
 4421 0be5 99280000 		.4byte	0x2899
 4422 0be9 2F       		.uleb128 0x2f
 4423 0bea 48000000 		.4byte	.LVL51
 4424 0bee E3280000 		.4byte	0x28e3
 4425 0bf2 0C0C0000 		.4byte	0xc0c
 4426 0bf6 2A       		.uleb128 0x2a
 4427 0bf7 01       		.uleb128 0x1
 4428 0bf8 52       		.byte	0x52
 4429 0bf9 02       		.uleb128 0x2
 4430 0bfa 08       		.byte	0x8
 4431 0bfb 3C       		.byte	0x3c
 4432 0bfc 2A       		.uleb128 0x2a
 4433 0bfd 01       		.uleb128 0x1
 4434 0bfe 51       		.byte	0x51
 4435 0bff 02       		.uleb128 0x2
 4436 0c00 08       		.byte	0x8
 4437 0c01 78       		.byte	0x78
 4438 0c02 2A       		.uleb128 0x2a
 4439 0c03 01       		.uleb128 0x1
 4440 0c04 50       		.byte	0x50
 4441 0c05 05       		.uleb128 0x5
 4442 0c06 03       		.byte	0x3
 4443 0c07 21000000 		.4byte	.LC2
 4444 0c0b 00       		.byte	0
 4445 0c0c 2F       		.uleb128 0x2f
 4446 0c0d 54000000 		.4byte	.LVL52
 4447 0c11 E3280000 		.4byte	0x28e3
 4448 0c15 2F0C0000 		.4byte	0xc2f
 4449 0c19 2A       		.uleb128 0x2a
 4450 0c1a 01       		.uleb128 0x1
 4451 0c1b 52       		.byte	0x52
 4452 0c1c 02       		.uleb128 0x2
 4453 0c1d 08       		.byte	0x8
 4454 0c1e 50       		.byte	0x50
 4455 0c1f 2A       		.uleb128 0x2a
 4456 0c20 01       		.uleb128 0x1
 4457 0c21 51       		.byte	0x51
 4458 0c22 02       		.uleb128 0x2
 4459 0c23 08       		.byte	0x8
 4460 0c24 78       		.byte	0x78
 4461 0c25 2A       		.uleb128 0x2a
 4462 0c26 01       		.uleb128 0x1
 4463 0c27 50       		.byte	0x50
 4464 0c28 05       		.uleb128 0x5
 4465 0c29 03       		.byte	0x3
 4466 0c2a 3C000000 		.4byte	.LC3
 4467 0c2e 00       		.byte	0
 4468 0c2f 34       		.uleb128 0x34
 4469 0c30 5A000000 		.4byte	.LVL53
 4470 0c34 99280000 		.4byte	0x2899
ARM GAS  C:\Users\IVYLIU~1\AppData\Local\Temp\cc0nPDNQ.s 			page 96


 4471 0c38 2F       		.uleb128 0x2f
 4472 0c39 66000000 		.4byte	.LVL54
 4473 0c3d E3280000 		.4byte	0x28e3
 4474 0c41 520C0000 		.4byte	0xc52
 4475 0c45 2A       		.uleb128 0x2a
 4476 0c46 01       		.uleb128 0x1
 4477 0c47 52       		.byte	0x52
 4478 0c48 02       		.uleb128 0x2
 4479 0c49 08       		.byte	0x8
 4480 0c4a A0       		.byte	0xa0
 4481 0c4b 2A       		.uleb128 0x2a
 4482 0c4c 01       		.uleb128 0x1
 4483 0c4d 51       		.byte	0x51
 4484 0c4e 02       		.uleb128 0x2
 4485 0c4f 08       		.byte	0x8
 4486 0c50 78       		.byte	0x78
 4487 0c51 00       		.byte	0
 4488 0c52 34       		.uleb128 0x34
 4489 0c53 6C000000 		.4byte	.LVL56
 4490 0c57 4A280000 		.4byte	0x284a
 4491 0c5b 34       		.uleb128 0x34
 4492 0c5c 72000000 		.4byte	.LVL57
 4493 0c60 FF280000 		.4byte	0x28ff
 4494 0c64 34       		.uleb128 0x34
 4495 0c65 7C000000 		.4byte	.LVL59
 4496 0c69 0A290000 		.4byte	0x290a
 4497 0c6d 34       		.uleb128 0x34
 4498 0c6e 80000000 		.4byte	.LVL60
 4499 0c72 87280000 		.4byte	0x2887
 4500 0c76 2F       		.uleb128 0x2f
 4501 0c77 8E000000 		.4byte	.LVL61
 4502 0c7b 16290000 		.4byte	0x2916
 4503 0c7f 9D0C0000 		.4byte	0xc9d
 4504 0c83 2A       		.uleb128 0x2a
 4505 0c84 01       		.uleb128 0x1
 4506 0c85 53       		.byte	0x53
 4507 0c86 03       		.uleb128 0x3
 4508 0c87 0A       		.byte	0xa
 4509 0c88 2C01     		.2byte	0x12c
 4510 0c8a 2A       		.uleb128 0x2a
 4511 0c8b 01       		.uleb128 0x1
 4512 0c8c 52       		.byte	0x52
 4513 0c8d 02       		.uleb128 0x2
 4514 0c8e 08       		.byte	0x8
 4515 0c8f F0       		.byte	0xf0
 4516 0c90 2A       		.uleb128 0x2a
 4517 0c91 01       		.uleb128 0x1
 4518 0c92 51       		.byte	0x51
 4519 0c93 02       		.uleb128 0x2
 4520 0c94 08       		.byte	0x8
 4521 0c95 64       		.byte	0x64
 4522 0c96 2A       		.uleb128 0x2a
 4523 0c97 01       		.uleb128 0x1
 4524 0c98 50       		.byte	0x50
 4525 0c99 02       		.uleb128 0x2
 4526 0c9a 76       		.byte	0x76
 4527 0c9b 00       		.sleb128 0
ARM GAS  C:\Users\IVYLIU~1\AppData\Local\Temp\cc0nPDNQ.s 			page 97


 4528 0c9c 00       		.byte	0
 4529 0c9d 2F       		.uleb128 0x2f
 4530 0c9e 9A000000 		.4byte	.LVL63
 4531 0ca2 87280000 		.4byte	0x2887
 4532 0ca6 B30C0000 		.4byte	0xcb3
 4533 0caa 2A       		.uleb128 0x2a
 4534 0cab 01       		.uleb128 0x1
 4535 0cac 50       		.byte	0x50
 4536 0cad 04       		.uleb128 0x4
 4537 0cae 40       		.byte	0x40
 4538 0caf 44       		.byte	0x44
 4539 0cb0 24       		.byte	0x24
 4540 0cb1 1F       		.byte	0x1f
 4541 0cb2 00       		.byte	0
 4542 0cb3 2F       		.uleb128 0x2f
 4543 0cb4 AA000000 		.4byte	.LVL64
 4544 0cb8 E3280000 		.4byte	0x28e3
 4545 0cbc CD0C0000 		.4byte	0xccd
 4546 0cc0 2A       		.uleb128 0x2a
 4547 0cc1 01       		.uleb128 0x1
 4548 0cc2 52       		.byte	0x52
 4549 0cc3 02       		.uleb128 0x2
 4550 0cc4 08       		.byte	0x8
 4551 0cc5 A0       		.byte	0xa0
 4552 0cc6 2A       		.uleb128 0x2a
 4553 0cc7 01       		.uleb128 0x1
 4554 0cc8 51       		.byte	0x51
 4555 0cc9 02       		.uleb128 0x2
 4556 0cca 08       		.byte	0x8
 4557 0ccb 78       		.byte	0x78
 4558 0ccc 00       		.byte	0
 4559 0ccd 34       		.uleb128 0x34
 4560 0cce B0000000 		.4byte	.LVL66
 4561 0cd2 4A280000 		.4byte	0x284a
 4562 0cd6 34       		.uleb128 0x34
 4563 0cd7 B6000000 		.4byte	.LVL67
 4564 0cdb DB280000 		.4byte	0x28db
 4565 0cdf 34       		.uleb128 0x34
 4566 0ce0 BE000000 		.4byte	.LVL68
 4567 0ce4 99280000 		.4byte	0x2899
 4568 0ce8 2F       		.uleb128 0x2f
 4569 0ce9 C8000000 		.4byte	.LVL69
 4570 0ced E3280000 		.4byte	0x28e3
 4571 0cf1 0B0D0000 		.4byte	0xd0b
 4572 0cf5 2A       		.uleb128 0x2a
 4573 0cf6 01       		.uleb128 0x1
 4574 0cf7 52       		.byte	0x52
 4575 0cf8 02       		.uleb128 0x2
 4576 0cf9 08       		.byte	0x8
 4577 0cfa 64       		.byte	0x64
 4578 0cfb 2A       		.uleb128 0x2a
 4579 0cfc 01       		.uleb128 0x1
 4580 0cfd 51       		.byte	0x51
 4581 0cfe 02       		.uleb128 0x2
 4582 0cff 08       		.byte	0x8
 4583 0d00 78       		.byte	0x78
 4584 0d01 2A       		.uleb128 0x2a
ARM GAS  C:\Users\IVYLIU~1\AppData\Local\Temp\cc0nPDNQ.s 			page 98


 4585 0d02 01       		.uleb128 0x1
 4586 0d03 50       		.byte	0x50
 4587 0d04 05       		.uleb128 0x5
 4588 0d05 03       		.byte	0x3
 4589 0d06 5C000000 		.4byte	.LC4
 4590 0d0a 00       		.byte	0
 4591 0d0b 29       		.uleb128 0x29
 4592 0d0c D0000000 		.4byte	.LVL70
 4593 0d10 39280000 		.4byte	0x2839
 4594 0d14 2A       		.uleb128 0x2a
 4595 0d15 01       		.uleb128 0x1
 4596 0d16 50       		.byte	0x50
 4597 0d17 03       		.uleb128 0x3
 4598 0d18 0A       		.byte	0xa
 4599 0d19 F401     		.2byte	0x1f4
 4600 0d1b 00       		.byte	0
 4601 0d1c 00       		.byte	0
 4602 0d1d 26       		.uleb128 0x26
 4603 0d1e 58010000 		.4byte	.LASF124
 4604 0d22 01       		.byte	0x1
 4605 0d23 FD01     		.2byte	0x1fd
 4606 0d25 00000000 		.4byte	.LFB133
 4607 0d29 40000000 		.4byte	.LFE133-.LFB133
 4608 0d2d 01       		.uleb128 0x1
 4609 0d2e 9C       		.byte	0x9c
 4610 0d2f B50D0000 		.4byte	0xdb5
 4611 0d33 2F       		.uleb128 0x2f
 4612 0d34 0A000000 		.4byte	.LVL71
 4613 0d38 75280000 		.4byte	0x2875
 4614 0d3c 470D0000 		.4byte	0xd47
 4615 0d40 2A       		.uleb128 0x2a
 4616 0d41 01       		.uleb128 0x1
 4617 0d42 50       		.byte	0x50
 4618 0d43 02       		.uleb128 0x2
 4619 0d44 09       		.byte	0x9
 4620 0d45 FF       		.byte	0xff
 4621 0d46 00       		.byte	0
 4622 0d47 2F       		.uleb128 0x2f
 4623 0d48 12000000 		.4byte	.LVL72
 4624 0d4c 87280000 		.4byte	0x2887
 4625 0d50 5D0D0000 		.4byte	0xd5d
 4626 0d54 2A       		.uleb128 0x2a
 4627 0d55 01       		.uleb128 0x1
 4628 0d56 50       		.byte	0x50
 4629 0d57 04       		.uleb128 0x4
 4630 0d58 40       		.byte	0x40
 4631 0d59 44       		.byte	0x44
 4632 0d5a 24       		.byte	0x24
 4633 0d5b 1F       		.byte	0x1f
 4634 0d5c 00       		.byte	0
 4635 0d5d 34       		.uleb128 0x34
 4636 0d5e 18000000 		.4byte	.LVL73
 4637 0d62 99280000 		.4byte	0x2899
 4638 0d66 2F       		.uleb128 0x2f
 4639 0d67 1E000000 		.4byte	.LVL74
 4640 0d6b AF280000 		.4byte	0x28af
 4641 0d6f 790D0000 		.4byte	0xd79
ARM GAS  C:\Users\IVYLIU~1\AppData\Local\Temp\cc0nPDNQ.s 			page 99


 4642 0d73 2A       		.uleb128 0x2a
 4643 0d74 01       		.uleb128 0x1
 4644 0d75 50       		.byte	0x50
 4645 0d76 01       		.uleb128 0x1
 4646 0d77 32       		.byte	0x32
 4647 0d78 00       		.byte	0
 4648 0d79 2F       		.uleb128 0x2f
 4649 0d7a 24000000 		.4byte	.LVL75
 4650 0d7e C5280000 		.4byte	0x28c5
 4651 0d82 8C0D0000 		.4byte	0xd8c
 4652 0d86 2A       		.uleb128 0x2a
 4653 0d87 01       		.uleb128 0x1
 4654 0d88 50       		.byte	0x50
 4655 0d89 01       		.uleb128 0x1
 4656 0d8a 3C       		.byte	0x3c
 4657 0d8b 00       		.byte	0
 4658 0d8c 34       		.uleb128 0x34
 4659 0d8d 28000000 		.4byte	.LVL76
 4660 0d91 DB280000 		.4byte	0x28db
 4661 0d95 36       		.uleb128 0x36
 4662 0d96 36000000 		.4byte	.LVL77
 4663 0d9a E3280000 		.4byte	0x28e3
 4664 0d9e 2A       		.uleb128 0x2a
 4665 0d9f 01       		.uleb128 0x1
 4666 0da0 52       		.byte	0x52
 4667 0da1 02       		.uleb128 0x2
 4668 0da2 08       		.byte	0x8
 4669 0da3 78       		.byte	0x78
 4670 0da4 2A       		.uleb128 0x2a
 4671 0da5 01       		.uleb128 0x1
 4672 0da6 51       		.byte	0x51
 4673 0da7 02       		.uleb128 0x2
 4674 0da8 08       		.byte	0x8
 4675 0da9 78       		.byte	0x78
 4676 0daa 2A       		.uleb128 0x2a
 4677 0dab 01       		.uleb128 0x1
 4678 0dac 50       		.byte	0x50
 4679 0dad 05       		.uleb128 0x5
 4680 0dae 03       		.byte	0x3
 4681 0daf 8C000000 		.4byte	.LC5
 4682 0db3 00       		.byte	0
 4683 0db4 00       		.byte	0
 4684 0db5 26       		.uleb128 0x26
 4685 0db6 41040000 		.4byte	.LASF125
 4686 0dba 01       		.byte	0x1
 4687 0dbb 0B02     		.2byte	0x20b
 4688 0dbd 00000000 		.4byte	.LFB134
 4689 0dc1 A0000000 		.4byte	.LFE134-.LFB134
 4690 0dc5 01       		.uleb128 0x1
 4691 0dc6 9C       		.byte	0x9c
 4692 0dc7 450F0000 		.4byte	0xf45
 4693 0dcb 2F       		.uleb128 0x2f
 4694 0dcc 0A000000 		.4byte	.LVL78
 4695 0dd0 75280000 		.4byte	0x2875
 4696 0dd4 DF0D0000 		.4byte	0xddf
 4697 0dd8 2A       		.uleb128 0x2a
 4698 0dd9 01       		.uleb128 0x1
ARM GAS  C:\Users\IVYLIU~1\AppData\Local\Temp\cc0nPDNQ.s 			page 100


 4699 0dda 50       		.byte	0x50
 4700 0ddb 02       		.uleb128 0x2
 4701 0ddc 09       		.byte	0x9
 4702 0ddd FF       		.byte	0xff
 4703 0dde 00       		.byte	0
 4704 0ddf 2F       		.uleb128 0x2f
 4705 0de0 12000000 		.4byte	.LVL79
 4706 0de4 87280000 		.4byte	0x2887
 4707 0de8 F50D0000 		.4byte	0xdf5
 4708 0dec 2A       		.uleb128 0x2a
 4709 0ded 01       		.uleb128 0x1
 4710 0dee 50       		.byte	0x50
 4711 0def 04       		.uleb128 0x4
 4712 0df0 40       		.byte	0x40
 4713 0df1 44       		.byte	0x44
 4714 0df2 24       		.byte	0x24
 4715 0df3 1F       		.byte	0x1f
 4716 0df4 00       		.byte	0
 4717 0df5 34       		.uleb128 0x34
 4718 0df6 18000000 		.4byte	.LVL80
 4719 0dfa 99280000 		.4byte	0x2899
 4720 0dfe 2F       		.uleb128 0x2f
 4721 0dff 1E000000 		.4byte	.LVL81
 4722 0e03 AF280000 		.4byte	0x28af
 4723 0e07 110E0000 		.4byte	0xe11
 4724 0e0b 2A       		.uleb128 0x2a
 4725 0e0c 01       		.uleb128 0x1
 4726 0e0d 50       		.byte	0x50
 4727 0e0e 01       		.uleb128 0x1
 4728 0e0f 32       		.byte	0x32
 4729 0e10 00       		.byte	0
 4730 0e11 2F       		.uleb128 0x2f
 4731 0e12 24000000 		.4byte	.LVL82
 4732 0e16 C5280000 		.4byte	0x28c5
 4733 0e1a 240E0000 		.4byte	0xe24
 4734 0e1e 2A       		.uleb128 0x2a
 4735 0e1f 01       		.uleb128 0x1
 4736 0e20 50       		.byte	0x50
 4737 0e21 01       		.uleb128 0x1
 4738 0e22 3C       		.byte	0x3c
 4739 0e23 00       		.byte	0
 4740 0e24 34       		.uleb128 0x34
 4741 0e25 28000000 		.4byte	.LVL83
 4742 0e29 DB280000 		.4byte	0x28db
 4743 0e2d 2F       		.uleb128 0x2f
 4744 0e2e 32000000 		.4byte	.LVL84
 4745 0e32 E3280000 		.4byte	0x28e3
 4746 0e36 500E0000 		.4byte	0xe50
 4747 0e3a 2A       		.uleb128 0x2a
 4748 0e3b 01       		.uleb128 0x1
 4749 0e3c 52       		.byte	0x52
 4750 0e3d 02       		.uleb128 0x2
 4751 0e3e 08       		.byte	0x8
 4752 0e3f 28       		.byte	0x28
 4753 0e40 2A       		.uleb128 0x2a
 4754 0e41 01       		.uleb128 0x1
 4755 0e42 51       		.byte	0x51
ARM GAS  C:\Users\IVYLIU~1\AppData\Local\Temp\cc0nPDNQ.s 			page 101


 4756 0e43 02       		.uleb128 0x2
 4757 0e44 08       		.byte	0x8
 4758 0e45 78       		.byte	0x78
 4759 0e46 2A       		.uleb128 0x2a
 4760 0e47 01       		.uleb128 0x1
 4761 0e48 50       		.byte	0x50
 4762 0e49 05       		.uleb128 0x5
 4763 0e4a 03       		.byte	0x3
 4764 0e4b C3000000 		.4byte	.LC6
 4765 0e4f 00       		.byte	0
 4766 0e50 2F       		.uleb128 0x2f
 4767 0e51 3A000000 		.4byte	.LVL85
 4768 0e55 87280000 		.4byte	0x2887
 4769 0e59 670E0000 		.4byte	0xe67
 4770 0e5d 2A       		.uleb128 0x2a
 4771 0e5e 01       		.uleb128 0x1
 4772 0e5f 50       		.byte	0x50
 4773 0e60 05       		.uleb128 0x5
 4774 0e61 11       		.byte	0x11
 4775 0e62 80FE8378 		.sleb128 -16711936
 4776 0e66 00       		.byte	0
 4777 0e67 2F       		.uleb128 0x2f
 4778 0e68 4A000000 		.4byte	.LVL86
 4779 0e6c 37290000 		.4byte	0x2937
 4780 0e70 940E0000 		.4byte	0xe94
 4781 0e74 2A       		.uleb128 0x2a
 4782 0e75 01       		.uleb128 0x1
 4783 0e76 53       		.byte	0x53
 4784 0e77 02       		.uleb128 0x2
 4785 0e78 08       		.byte	0x8
 4786 0e79 C8       		.byte	0xc8
 4787 0e7a 2A       		.uleb128 0x2a
 4788 0e7b 01       		.uleb128 0x1
 4789 0e7c 52       		.byte	0x52
 4790 0e7d 02       		.uleb128 0x2
 4791 0e7e 08       		.byte	0x8
 4792 0e7f C8       		.byte	0xc8
 4793 0e80 2A       		.uleb128 0x2a
 4794 0e81 01       		.uleb128 0x1
 4795 0e82 51       		.byte	0x51
 4796 0e83 02       		.uleb128 0x2
 4797 0e84 08       		.byte	0x8
 4798 0e85 78       		.byte	0x78
 4799 0e86 2A       		.uleb128 0x2a
 4800 0e87 01       		.uleb128 0x1
 4801 0e88 50       		.byte	0x50
 4802 0e89 02       		.uleb128 0x2
 4803 0e8a 08       		.byte	0x8
 4804 0e8b 28       		.byte	0x28
 4805 0e8c 2A       		.uleb128 0x2a
 4806 0e8d 02       		.uleb128 0x2
 4807 0e8e 7D       		.byte	0x7d
 4808 0e8f 00       		.sleb128 0
 4809 0e90 02       		.uleb128 0x2
 4810 0e91 74       		.byte	0x74
 4811 0e92 00       		.sleb128 0
 4812 0e93 00       		.byte	0
ARM GAS  C:\Users\IVYLIU~1\AppData\Local\Temp\cc0nPDNQ.s 			page 102


 4813 0e94 2F       		.uleb128 0x2f
 4814 0e95 52000000 		.4byte	.LVL87
 4815 0e99 87280000 		.4byte	0x2887
 4816 0e9d A80E0000 		.4byte	0xea8
 4817 0ea1 2A       		.uleb128 0x2a
 4818 0ea2 01       		.uleb128 0x1
 4819 0ea3 50       		.byte	0x50
 4820 0ea4 02       		.uleb128 0x2
 4821 0ea5 09       		.byte	0x9
 4822 0ea6 FF       		.byte	0xff
 4823 0ea7 00       		.byte	0
 4824 0ea8 2F       		.uleb128 0x2f
 4825 0ea9 5C000000 		.4byte	.LVL88
 4826 0ead E3280000 		.4byte	0x28e3
 4827 0eb1 CB0E0000 		.4byte	0xecb
 4828 0eb5 2A       		.uleb128 0x2a
 4829 0eb6 01       		.uleb128 0x1
 4830 0eb7 52       		.byte	0x52
 4831 0eb8 02       		.uleb128 0x2
 4832 0eb9 08       		.byte	0x8
 4833 0eba A0       		.byte	0xa0
 4834 0ebb 2A       		.uleb128 0x2a
 4835 0ebc 01       		.uleb128 0x1
 4836 0ebd 51       		.byte	0x51
 4837 0ebe 02       		.uleb128 0x2
 4838 0ebf 08       		.byte	0x8
 4839 0ec0 78       		.byte	0x78
 4840 0ec1 2A       		.uleb128 0x2a
 4841 0ec2 01       		.uleb128 0x1
 4842 0ec3 50       		.byte	0x50
 4843 0ec4 05       		.uleb128 0x5
 4844 0ec5 03       		.byte	0x3
 4845 0ec6 DB000000 		.4byte	.LC7
 4846 0eca 00       		.byte	0
 4847 0ecb 2F       		.uleb128 0x2f
 4848 0ecc 62000000 		.4byte	.LVL89
 4849 0ed0 87280000 		.4byte	0x2887
 4850 0ed4 E20E0000 		.4byte	0xee2
 4851 0ed8 2A       		.uleb128 0x2a
 4852 0ed9 01       		.uleb128 0x1
 4853 0eda 50       		.byte	0x50
 4854 0edb 05       		.uleb128 0x5
 4855 0edc 11       		.byte	0x11
 4856 0edd FF818078 		.sleb128 -16776961
 4857 0ee1 00       		.byte	0
 4858 0ee2 2F       		.uleb128 0x2f
 4859 0ee3 72000000 		.4byte	.LVL90
 4860 0ee7 37290000 		.4byte	0x2937
 4861 0eeb 100F0000 		.4byte	0xf10
 4862 0eef 2A       		.uleb128 0x2a
 4863 0ef0 01       		.uleb128 0x1
 4864 0ef1 53       		.byte	0x53
 4865 0ef2 03       		.uleb128 0x3
 4866 0ef3 0A       		.byte	0xa
 4867 0ef4 2C01     		.2byte	0x12c
 4868 0ef6 2A       		.uleb128 0x2a
 4869 0ef7 01       		.uleb128 0x1
ARM GAS  C:\Users\IVYLIU~1\AppData\Local\Temp\cc0nPDNQ.s 			page 103


 4870 0ef8 52       		.byte	0x52
 4871 0ef9 02       		.uleb128 0x2
 4872 0efa 08       		.byte	0x8
 4873 0efb C8       		.byte	0xc8
 4874 0efc 2A       		.uleb128 0x2a
 4875 0efd 01       		.uleb128 0x1
 4876 0efe 51       		.byte	0x51
 4877 0eff 02       		.uleb128 0x2
 4878 0f00 08       		.byte	0x8
 4879 0f01 DC       		.byte	0xdc
 4880 0f02 2A       		.uleb128 0x2a
 4881 0f03 01       		.uleb128 0x1
 4882 0f04 50       		.byte	0x50
 4883 0f05 02       		.uleb128 0x2
 4884 0f06 08       		.byte	0x8
 4885 0f07 28       		.byte	0x28
 4886 0f08 2A       		.uleb128 0x2a
 4887 0f09 02       		.uleb128 0x2
 4888 0f0a 7D       		.byte	0x7d
 4889 0f0b 00       		.sleb128 0
 4890 0f0c 02       		.uleb128 0x2
 4891 0f0d 74       		.byte	0x74
 4892 0f0e 00       		.sleb128 0
 4893 0f0f 00       		.byte	0
 4894 0f10 2F       		.uleb128 0x2f
 4895 0f11 7A000000 		.4byte	.LVL91
 4896 0f15 87280000 		.4byte	0x2887
 4897 0f19 240F0000 		.4byte	0xf24
 4898 0f1d 2A       		.uleb128 0x2a
 4899 0f1e 01       		.uleb128 0x1
 4900 0f1f 50       		.byte	0x50
 4901 0f20 02       		.uleb128 0x2
 4902 0f21 09       		.byte	0x9
 4903 0f22 FF       		.byte	0xff
 4904 0f23 00       		.byte	0
 4905 0f24 36       		.uleb128 0x36
 4906 0f25 8C000000 		.4byte	.LVL92
 4907 0f29 E3280000 		.4byte	0x28e3
 4908 0f2d 2A       		.uleb128 0x2a
 4909 0f2e 01       		.uleb128 0x1
 4910 0f2f 52       		.byte	0x52
 4911 0f30 03       		.uleb128 0x3
 4912 0f31 0A       		.byte	0xa
 4913 0f32 0401     		.2byte	0x104
 4914 0f34 2A       		.uleb128 0x2a
 4915 0f35 01       		.uleb128 0x1
 4916 0f36 51       		.byte	0x51
 4917 0f37 02       		.uleb128 0x2
 4918 0f38 08       		.byte	0x8
 4919 0f39 78       		.byte	0x78
 4920 0f3a 2A       		.uleb128 0x2a
 4921 0f3b 01       		.uleb128 0x1
 4922 0f3c 50       		.byte	0x50
 4923 0f3d 05       		.uleb128 0x5
 4924 0f3e 03       		.byte	0x3
 4925 0f3f E0000000 		.4byte	.LC8
 4926 0f43 00       		.byte	0
ARM GAS  C:\Users\IVYLIU~1\AppData\Local\Temp\cc0nPDNQ.s 			page 104


 4927 0f44 00       		.byte	0
 4928 0f45 26       		.uleb128 0x26
 4929 0f46 28080000 		.4byte	.LASF126
 4930 0f4a 01       		.byte	0x1
 4931 0f4b 2502     		.2byte	0x225
 4932 0f4d 00000000 		.4byte	.LFB135
 4933 0f51 18060000 		.4byte	.LFE135-.LFB135
 4934 0f55 01       		.uleb128 0x1
 4935 0f56 9C       		.byte	0x9c
 4936 0f57 761C0000 		.4byte	0x1c76
 4937 0f5b 2C       		.uleb128 0x2c
 4938 0f5c E4090000 		.4byte	.LASF117
 4939 0f60 01       		.byte	0x1
 4940 0f61 2502     		.2byte	0x225
 4941 0f63 0A010000 		.4byte	0x10a
 4942 0f67 DD020000 		.4byte	.LLST15
 4943 0f6b 37       		.uleb128 0x37
 4944 0f6c 10020000 		.4byte	.LASF127
 4945 0f70 01       		.byte	0x1
 4946 0f71 2B02     		.2byte	0x22b
 4947 0f73 90000000 		.4byte	0x90
 4948 0f77 78       		.byte	0x78
 4949 0f78 37       		.uleb128 0x37
 4950 0f79 17020000 		.4byte	.LASF128
 4951 0f7d 01       		.byte	0x1
 4952 0f7e 2C02     		.2byte	0x22c
 4953 0f80 90000000 		.4byte	0x90
 4954 0f84 F0       		.byte	0xf0
 4955 0f85 34       		.uleb128 0x34
 4956 0f86 0A000000 		.4byte	.LVL95
 4957 0f8a 99280000 		.4byte	0x2899
 4958 0f8e 2F       		.uleb128 0x2f
 4959 0f8f 10000000 		.4byte	.LVL96
 4960 0f93 AF280000 		.4byte	0x28af
 4961 0f97 A10F0000 		.4byte	0xfa1
 4962 0f9b 2A       		.uleb128 0x2a
 4963 0f9c 01       		.uleb128 0x1
 4964 0f9d 50       		.byte	0x50
 4965 0f9e 01       		.uleb128 0x1
 4966 0f9f 32       		.byte	0x32
 4967 0fa0 00       		.byte	0
 4968 0fa1 2F       		.uleb128 0x2f
 4969 0fa2 16000000 		.4byte	.LVL97
 4970 0fa6 C5280000 		.4byte	0x28c5
 4971 0faa B40F0000 		.4byte	0xfb4
 4972 0fae 2A       		.uleb128 0x2a
 4973 0faf 01       		.uleb128 0x1
 4974 0fb0 50       		.byte	0x50
 4975 0fb1 01       		.uleb128 0x1
 4976 0fb2 3E       		.byte	0x3e
 4977 0fb3 00       		.byte	0
 4978 0fb4 2F       		.uleb128 0x2f
 4979 0fb5 1E000000 		.4byte	.LVL98
 4980 0fb9 85270000 		.4byte	0x2785
 4981 0fbd D10F0000 		.4byte	0xfd1
 4982 0fc1 2A       		.uleb128 0x2a
 4983 0fc2 01       		.uleb128 0x1
ARM GAS  C:\Users\IVYLIU~1\AppData\Local\Temp\cc0nPDNQ.s 			page 105


 4984 0fc3 51       		.byte	0x51
 4985 0fc4 05       		.uleb128 0x5
 4986 0fc5 03       		.byte	0x3
 4987 0fc6 EA000000 		.4byte	.LC9
 4988 0fca 2A       		.uleb128 0x2a
 4989 0fcb 01       		.uleb128 0x1
 4990 0fcc 50       		.byte	0x50
 4991 0fcd 02       		.uleb128 0x2
 4992 0fce 74       		.byte	0x74
 4993 0fcf 00       		.sleb128 0
 4994 0fd0 00       		.byte	0
 4995 0fd1 2F       		.uleb128 0x2f
 4996 0fd2 2C000000 		.4byte	.LVL99
 4997 0fd6 5D290000 		.4byte	0x295d
 4998 0fda F40F0000 		.4byte	0xff4
 4999 0fde 2A       		.uleb128 0x2a
 5000 0fdf 01       		.uleb128 0x1
 5001 0fe0 53       		.byte	0x53
 5002 0fe1 01       		.uleb128 0x1
 5003 0fe2 38       		.byte	0x38
 5004 0fe3 2A       		.uleb128 0x2a
 5005 0fe4 01       		.uleb128 0x1
 5006 0fe5 52       		.byte	0x52
 5007 0fe6 01       		.uleb128 0x1
 5008 0fe7 3C       		.byte	0x3c
 5009 0fe8 2A       		.uleb128 0x2a
 5010 0fe9 01       		.uleb128 0x1
 5011 0fea 51       		.byte	0x51
 5012 0feb 01       		.uleb128 0x1
 5013 0fec 3D       		.byte	0x3d
 5014 0fed 2A       		.uleb128 0x2a
 5015 0fee 01       		.uleb128 0x1
 5016 0fef 50       		.byte	0x50
 5017 0ff0 02       		.uleb128 0x2
 5018 0ff1 08       		.byte	0x8
 5019 0ff2 78       		.byte	0x78
 5020 0ff3 00       		.byte	0
 5021 0ff4 2F       		.uleb128 0x2f
 5022 0ff5 38000000 		.4byte	.LVL100
 5023 0ff9 85270000 		.4byte	0x2785
 5024 0ffd 11100000 		.4byte	0x1011
 5025 1001 2A       		.uleb128 0x2a
 5026 1002 01       		.uleb128 0x1
 5027 1003 51       		.byte	0x51
 5028 1004 05       		.uleb128 0x5
 5029 1005 03       		.byte	0x3
 5030 1006 ED000000 		.4byte	.LC10
 5031 100a 2A       		.uleb128 0x2a
 5032 100b 01       		.uleb128 0x1
 5033 100c 50       		.byte	0x50
 5034 100d 02       		.uleb128 0x2
 5035 100e 74       		.byte	0x74
 5036 100f 00       		.sleb128 0
 5037 1010 00       		.byte	0
 5038 1011 2F       		.uleb128 0x2f
 5039 1012 46000000 		.4byte	.LVL101
 5040 1016 5D290000 		.4byte	0x295d
ARM GAS  C:\Users\IVYLIU~1\AppData\Local\Temp\cc0nPDNQ.s 			page 106


 5041 101a 34100000 		.4byte	0x1034
 5042 101e 2A       		.uleb128 0x2a
 5043 101f 01       		.uleb128 0x1
 5044 1020 53       		.byte	0x53
 5045 1021 01       		.uleb128 0x1
 5046 1022 38       		.byte	0x38
 5047 1023 2A       		.uleb128 0x2a
 5048 1024 01       		.uleb128 0x1
 5049 1025 52       		.byte	0x52
 5050 1026 01       		.uleb128 0x1
 5051 1027 3C       		.byte	0x3c
 5052 1028 2A       		.uleb128 0x2a
 5053 1029 01       		.uleb128 0x1
 5054 102a 51       		.byte	0x51
 5055 102b 01       		.uleb128 0x1
 5056 102c 44       		.byte	0x44
 5057 102d 2A       		.uleb128 0x2a
 5058 102e 01       		.uleb128 0x1
 5059 102f 50       		.byte	0x50
 5060 1030 02       		.uleb128 0x2
 5061 1031 08       		.byte	0x8
 5062 1032 78       		.byte	0x78
 5063 1033 00       		.byte	0
 5064 1034 2F       		.uleb128 0x2f
 5065 1035 50000000 		.4byte	.LVL102
 5066 1039 7E290000 		.4byte	0x297e
 5067 103d 57100000 		.4byte	0x1057
 5068 1041 2A       		.uleb128 0x2a
 5069 1042 01       		.uleb128 0x1
 5070 1043 52       		.byte	0x52
 5071 1044 02       		.uleb128 0x2
 5072 1045 08       		.byte	0x8
 5073 1046 F0       		.byte	0xf0
 5074 1047 2A       		.uleb128 0x2a
 5075 1048 01       		.uleb128 0x1
 5076 1049 51       		.byte	0x51
 5077 104a 02       		.uleb128 0x2
 5078 104b 08       		.byte	0x8
 5079 104c 78       		.byte	0x78
 5080 104d 2A       		.uleb128 0x2a
 5081 104e 01       		.uleb128 0x1
 5082 104f 50       		.byte	0x50
 5083 1050 05       		.uleb128 0x5
 5084 1051 03       		.byte	0x3
 5085 1052 ED000000 		.4byte	.LC10
 5086 1056 00       		.byte	0
 5087 1057 34       		.uleb128 0x34
 5088 1058 56000000 		.4byte	.LVL103
 5089 105c 99280000 		.4byte	0x2899
 5090 1060 2F       		.uleb128 0x2f
 5091 1061 66000000 		.4byte	.LVL104
 5092 1065 85270000 		.4byte	0x2785
 5093 1069 7D100000 		.4byte	0x107d
 5094 106d 2A       		.uleb128 0x2a
 5095 106e 01       		.uleb128 0x1
 5096 106f 51       		.byte	0x51
 5097 1070 05       		.uleb128 0x5
ARM GAS  C:\Users\IVYLIU~1\AppData\Local\Temp\cc0nPDNQ.s 			page 107


 5098 1071 03       		.byte	0x3
 5099 1072 F3000000 		.4byte	.LC12
 5100 1076 2A       		.uleb128 0x2a
 5101 1077 01       		.uleb128 0x1
 5102 1078 50       		.byte	0x50
 5103 1079 02       		.uleb128 0x2
 5104 107a 74       		.byte	0x74
 5105 107b 00       		.sleb128 0
 5106 107c 00       		.byte	0
 5107 107d 2F       		.uleb128 0x2f
 5108 107e 74000000 		.4byte	.LVL105
 5109 1082 5D290000 		.4byte	0x295d
 5110 1086 A0100000 		.4byte	0x10a0
 5111 108a 2A       		.uleb128 0x2a
 5112 108b 01       		.uleb128 0x1
 5113 108c 53       		.byte	0x53
 5114 108d 01       		.uleb128 0x1
 5115 108e 38       		.byte	0x38
 5116 108f 2A       		.uleb128 0x2a
 5117 1090 01       		.uleb128 0x1
 5118 1091 52       		.byte	0x52
 5119 1092 01       		.uleb128 0x1
 5120 1093 3C       		.byte	0x3c
 5121 1094 2A       		.uleb128 0x2a
 5122 1095 01       		.uleb128 0x1
 5123 1096 51       		.byte	0x51
 5124 1097 01       		.uleb128 0x1
 5125 1098 44       		.byte	0x44
 5126 1099 2A       		.uleb128 0x2a
 5127 109a 01       		.uleb128 0x1
 5128 109b 50       		.byte	0x50
 5129 109c 02       		.uleb128 0x2
 5130 109d 08       		.byte	0x8
 5131 109e 78       		.byte	0x78
 5132 109f 00       		.byte	0
 5133 10a0 2F       		.uleb128 0x2f
 5134 10a1 80000000 		.4byte	.LVL106
 5135 10a5 85270000 		.4byte	0x2785
 5136 10a9 BD100000 		.4byte	0x10bd
 5137 10ad 2A       		.uleb128 0x2a
 5138 10ae 01       		.uleb128 0x1
 5139 10af 51       		.byte	0x51
 5140 10b0 05       		.uleb128 0x5
 5141 10b1 03       		.byte	0x3
 5142 10b2 F6000000 		.4byte	.LC13
 5143 10b6 2A       		.uleb128 0x2a
 5144 10b7 01       		.uleb128 0x1
 5145 10b8 50       		.byte	0x50
 5146 10b9 02       		.uleb128 0x2
 5147 10ba 74       		.byte	0x74
 5148 10bb 00       		.sleb128 0
 5149 10bc 00       		.byte	0
 5150 10bd 2F       		.uleb128 0x2f
 5151 10be 8E000000 		.4byte	.LVL107
 5152 10c2 5D290000 		.4byte	0x295d
 5153 10c6 E0100000 		.4byte	0x10e0
 5154 10ca 2A       		.uleb128 0x2a
ARM GAS  C:\Users\IVYLIU~1\AppData\Local\Temp\cc0nPDNQ.s 			page 108


 5155 10cb 01       		.uleb128 0x1
 5156 10cc 53       		.byte	0x53
 5157 10cd 01       		.uleb128 0x1
 5158 10ce 38       		.byte	0x38
 5159 10cf 2A       		.uleb128 0x2a
 5160 10d0 01       		.uleb128 0x1
 5161 10d1 52       		.byte	0x52
 5162 10d2 01       		.uleb128 0x1
 5163 10d3 3C       		.byte	0x3c
 5164 10d4 2A       		.uleb128 0x2a
 5165 10d5 01       		.uleb128 0x1
 5166 10d6 51       		.byte	0x51
 5167 10d7 01       		.uleb128 0x1
 5168 10d8 4B       		.byte	0x4b
 5169 10d9 2A       		.uleb128 0x2a
 5170 10da 01       		.uleb128 0x1
 5171 10db 50       		.byte	0x50
 5172 10dc 02       		.uleb128 0x2
 5173 10dd 08       		.byte	0x8
 5174 10de 78       		.byte	0x78
 5175 10df 00       		.byte	0
 5176 10e0 2F       		.uleb128 0x2f
 5177 10e1 9A000000 		.4byte	.LVL108
 5178 10e5 85270000 		.4byte	0x2785
 5179 10e9 FD100000 		.4byte	0x10fd
 5180 10ed 2A       		.uleb128 0x2a
 5181 10ee 01       		.uleb128 0x1
 5182 10ef 51       		.byte	0x51
 5183 10f0 05       		.uleb128 0x5
 5184 10f1 03       		.byte	0x3
 5185 10f2 F9000000 		.4byte	.LC14
 5186 10f6 2A       		.uleb128 0x2a
 5187 10f7 01       		.uleb128 0x1
 5188 10f8 50       		.byte	0x50
 5189 10f9 02       		.uleb128 0x2
 5190 10fa 74       		.byte	0x74
 5191 10fb 00       		.sleb128 0
 5192 10fc 00       		.byte	0
 5193 10fd 2F       		.uleb128 0x2f
 5194 10fe A8000000 		.4byte	.LVL109
 5195 1102 5D290000 		.4byte	0x295d
 5196 1106 21110000 		.4byte	0x1121
 5197 110a 2A       		.uleb128 0x2a
 5198 110b 01       		.uleb128 0x1
 5199 110c 53       		.byte	0x53
 5200 110d 01       		.uleb128 0x1
 5201 110e 38       		.byte	0x38
 5202 110f 2A       		.uleb128 0x2a
 5203 1110 01       		.uleb128 0x1
 5204 1111 52       		.byte	0x52
 5205 1112 01       		.uleb128 0x1
 5206 1113 3C       		.byte	0x3c
 5207 1114 2A       		.uleb128 0x2a
 5208 1115 01       		.uleb128 0x1
 5209 1116 51       		.byte	0x51
 5210 1117 02       		.uleb128 0x2
 5211 1118 08       		.byte	0x8
ARM GAS  C:\Users\IVYLIU~1\AppData\Local\Temp\cc0nPDNQ.s 			page 109


 5212 1119 23       		.byte	0x23
 5213 111a 2A       		.uleb128 0x2a
 5214 111b 01       		.uleb128 0x1
 5215 111c 50       		.byte	0x50
 5216 111d 02       		.uleb128 0x2
 5217 111e 08       		.byte	0x8
 5218 111f 78       		.byte	0x78
 5219 1120 00       		.byte	0
 5220 1121 2F       		.uleb128 0x2f
 5221 1122 B2000000 		.4byte	.LVL110
 5222 1126 7E290000 		.4byte	0x297e
 5223 112a 44110000 		.4byte	0x1144
 5224 112e 2A       		.uleb128 0x2a
 5225 112f 01       		.uleb128 0x1
 5226 1130 52       		.byte	0x52
 5227 1131 02       		.uleb128 0x2
 5228 1132 08       		.byte	0x8
 5229 1133 F0       		.byte	0xf0
 5230 1134 2A       		.uleb128 0x2a
 5231 1135 01       		.uleb128 0x1
 5232 1136 51       		.byte	0x51
 5233 1137 02       		.uleb128 0x2
 5234 1138 08       		.byte	0x8
 5235 1139 78       		.byte	0x78
 5236 113a 2A       		.uleb128 0x2a
 5237 113b 01       		.uleb128 0x1
 5238 113c 50       		.byte	0x50
 5239 113d 05       		.uleb128 0x5
 5240 113e 03       		.byte	0x3
 5241 113f F9000000 		.4byte	.LC14
 5242 1143 00       		.byte	0
 5243 1144 34       		.uleb128 0x34
 5244 1145 B8000000 		.4byte	.LVL111
 5245 1149 99280000 		.4byte	0x2899
 5246 114d 2F       		.uleb128 0x2f
 5247 114e C8000000 		.4byte	.LVL112
 5248 1152 85270000 		.4byte	0x2785
 5249 1156 6A110000 		.4byte	0x116a
 5250 115a 2A       		.uleb128 0x2a
 5251 115b 01       		.uleb128 0x1
 5252 115c 51       		.byte	0x51
 5253 115d 05       		.uleb128 0x5
 5254 115e 03       		.byte	0x3
 5255 115f FD000000 		.4byte	.LC15
 5256 1163 2A       		.uleb128 0x2a
 5257 1164 01       		.uleb128 0x1
 5258 1165 50       		.byte	0x50
 5259 1166 02       		.uleb128 0x2
 5260 1167 74       		.byte	0x74
 5261 1168 00       		.sleb128 0
 5262 1169 00       		.byte	0
 5263 116a 2F       		.uleb128 0x2f
 5264 116b D6000000 		.4byte	.LVL113
 5265 116f 5D290000 		.4byte	0x295d
 5266 1173 8E110000 		.4byte	0x118e
 5267 1177 2A       		.uleb128 0x2a
 5268 1178 01       		.uleb128 0x1
ARM GAS  C:\Users\IVYLIU~1\AppData\Local\Temp\cc0nPDNQ.s 			page 110


 5269 1179 53       		.byte	0x53
 5270 117a 01       		.uleb128 0x1
 5271 117b 38       		.byte	0x38
 5272 117c 2A       		.uleb128 0x2a
 5273 117d 01       		.uleb128 0x1
 5274 117e 52       		.byte	0x52
 5275 117f 01       		.uleb128 0x1
 5276 1180 3C       		.byte	0x3c
 5277 1181 2A       		.uleb128 0x2a
 5278 1182 01       		.uleb128 0x1
 5279 1183 51       		.byte	0x51
 5280 1184 02       		.uleb128 0x2
 5281 1185 08       		.byte	0x8
 5282 1186 23       		.byte	0x23
 5283 1187 2A       		.uleb128 0x2a
 5284 1188 01       		.uleb128 0x1
 5285 1189 50       		.byte	0x50
 5286 118a 02       		.uleb128 0x2
 5287 118b 08       		.byte	0x8
 5288 118c 78       		.byte	0x78
 5289 118d 00       		.byte	0
 5290 118e 2F       		.uleb128 0x2f
 5291 118f E2000000 		.4byte	.LVL114
 5292 1193 85270000 		.4byte	0x2785
 5293 1197 AB110000 		.4byte	0x11ab
 5294 119b 2A       		.uleb128 0x2a
 5295 119c 01       		.uleb128 0x1
 5296 119d 51       		.byte	0x51
 5297 119e 05       		.uleb128 0x5
 5298 119f 03       		.byte	0x3
 5299 11a0 00010000 		.4byte	.LC16
 5300 11a4 2A       		.uleb128 0x2a
 5301 11a5 01       		.uleb128 0x1
 5302 11a6 50       		.byte	0x50
 5303 11a7 02       		.uleb128 0x2
 5304 11a8 74       		.byte	0x74
 5305 11a9 00       		.sleb128 0
 5306 11aa 00       		.byte	0
 5307 11ab 2F       		.uleb128 0x2f
 5308 11ac F0000000 		.4byte	.LVL115
 5309 11b0 5D290000 		.4byte	0x295d
 5310 11b4 CF110000 		.4byte	0x11cf
 5311 11b8 2A       		.uleb128 0x2a
 5312 11b9 01       		.uleb128 0x1
 5313 11ba 53       		.byte	0x53
 5314 11bb 01       		.uleb128 0x1
 5315 11bc 38       		.byte	0x38
 5316 11bd 2A       		.uleb128 0x2a
 5317 11be 01       		.uleb128 0x1
 5318 11bf 52       		.byte	0x52
 5319 11c0 01       		.uleb128 0x1
 5320 11c1 3C       		.byte	0x3c
 5321 11c2 2A       		.uleb128 0x2a
 5322 11c3 01       		.uleb128 0x1
 5323 11c4 51       		.byte	0x51
 5324 11c5 02       		.uleb128 0x2
 5325 11c6 08       		.byte	0x8
ARM GAS  C:\Users\IVYLIU~1\AppData\Local\Temp\cc0nPDNQ.s 			page 111


 5326 11c7 2A       		.byte	0x2a
 5327 11c8 2A       		.uleb128 0x2a
 5328 11c9 01       		.uleb128 0x1
 5329 11ca 50       		.byte	0x50
 5330 11cb 02       		.uleb128 0x2
 5331 11cc 08       		.byte	0x8
 5332 11cd 78       		.byte	0x78
 5333 11ce 00       		.byte	0
 5334 11cf 2F       		.uleb128 0x2f
 5335 11d0 FA000000 		.4byte	.LVL116
 5336 11d4 7E290000 		.4byte	0x297e
 5337 11d8 F2110000 		.4byte	0x11f2
 5338 11dc 2A       		.uleb128 0x2a
 5339 11dd 01       		.uleb128 0x1
 5340 11de 52       		.byte	0x52
 5341 11df 02       		.uleb128 0x2
 5342 11e0 08       		.byte	0x8
 5343 11e1 F0       		.byte	0xf0
 5344 11e2 2A       		.uleb128 0x2a
 5345 11e3 01       		.uleb128 0x1
 5346 11e4 51       		.byte	0x51
 5347 11e5 02       		.uleb128 0x2
 5348 11e6 08       		.byte	0x8
 5349 11e7 78       		.byte	0x78
 5350 11e8 2A       		.uleb128 0x2a
 5351 11e9 01       		.uleb128 0x1
 5352 11ea 50       		.byte	0x50
 5353 11eb 05       		.uleb128 0x5
 5354 11ec 03       		.byte	0x3
 5355 11ed 00010000 		.4byte	.LC16
 5356 11f1 00       		.byte	0
 5357 11f2 34       		.uleb128 0x34
 5358 11f3 00010000 		.4byte	.LVL117
 5359 11f7 99280000 		.4byte	0x2899
 5360 11fb 2F       		.uleb128 0x2f
 5361 11fc 10010000 		.4byte	.LVL118
 5362 1200 85270000 		.4byte	0x2785
 5363 1204 18120000 		.4byte	0x1218
 5364 1208 2A       		.uleb128 0x2a
 5365 1209 01       		.uleb128 0x1
 5366 120a 51       		.byte	0x51
 5367 120b 05       		.uleb128 0x5
 5368 120c 03       		.byte	0x3
 5369 120d 04010000 		.4byte	.LC17
 5370 1211 2A       		.uleb128 0x2a
 5371 1212 01       		.uleb128 0x1
 5372 1213 50       		.byte	0x50
 5373 1214 02       		.uleb128 0x2
 5374 1215 74       		.byte	0x74
 5375 1216 00       		.sleb128 0
 5376 1217 00       		.byte	0
 5377 1218 2F       		.uleb128 0x2f
 5378 1219 1E010000 		.4byte	.LVL119
 5379 121d 5D290000 		.4byte	0x295d
 5380 1221 3C120000 		.4byte	0x123c
 5381 1225 2A       		.uleb128 0x2a
 5382 1226 01       		.uleb128 0x1
ARM GAS  C:\Users\IVYLIU~1\AppData\Local\Temp\cc0nPDNQ.s 			page 112


 5383 1227 53       		.byte	0x53
 5384 1228 01       		.uleb128 0x1
 5385 1229 38       		.byte	0x38
 5386 122a 2A       		.uleb128 0x2a
 5387 122b 01       		.uleb128 0x1
 5388 122c 52       		.byte	0x52
 5389 122d 01       		.uleb128 0x1
 5390 122e 3C       		.byte	0x3c
 5391 122f 2A       		.uleb128 0x2a
 5392 1230 01       		.uleb128 0x1
 5393 1231 51       		.byte	0x51
 5394 1232 02       		.uleb128 0x2
 5395 1233 08       		.byte	0x8
 5396 1234 2A       		.byte	0x2a
 5397 1235 2A       		.uleb128 0x2a
 5398 1236 01       		.uleb128 0x1
 5399 1237 50       		.byte	0x50
 5400 1238 02       		.uleb128 0x2
 5401 1239 08       		.byte	0x8
 5402 123a 78       		.byte	0x78
 5403 123b 00       		.byte	0
 5404 123c 2F       		.uleb128 0x2f
 5405 123d 2A010000 		.4byte	.LVL120
 5406 1241 85270000 		.4byte	0x2785
 5407 1245 59120000 		.4byte	0x1259
 5408 1249 2A       		.uleb128 0x2a
 5409 124a 01       		.uleb128 0x1
 5410 124b 51       		.byte	0x51
 5411 124c 05       		.uleb128 0x5
 5412 124d 03       		.byte	0x3
 5413 124e 07010000 		.4byte	.LC18
 5414 1252 2A       		.uleb128 0x2a
 5415 1253 01       		.uleb128 0x1
 5416 1254 50       		.byte	0x50
 5417 1255 02       		.uleb128 0x2
 5418 1256 74       		.byte	0x74
 5419 1257 00       		.sleb128 0
 5420 1258 00       		.byte	0
 5421 1259 2F       		.uleb128 0x2f
 5422 125a 38010000 		.4byte	.LVL121
 5423 125e 5D290000 		.4byte	0x295d
 5424 1262 7D120000 		.4byte	0x127d
 5425 1266 2A       		.uleb128 0x2a
 5426 1267 01       		.uleb128 0x1
 5427 1268 53       		.byte	0x53
 5428 1269 01       		.uleb128 0x1
 5429 126a 38       		.byte	0x38
 5430 126b 2A       		.uleb128 0x2a
 5431 126c 01       		.uleb128 0x1
 5432 126d 52       		.byte	0x52
 5433 126e 01       		.uleb128 0x1
 5434 126f 3C       		.byte	0x3c
 5435 1270 2A       		.uleb128 0x2a
 5436 1271 01       		.uleb128 0x1
 5437 1272 51       		.byte	0x51
 5438 1273 02       		.uleb128 0x2
 5439 1274 08       		.byte	0x8
ARM GAS  C:\Users\IVYLIU~1\AppData\Local\Temp\cc0nPDNQ.s 			page 113


 5440 1275 32       		.byte	0x32
 5441 1276 2A       		.uleb128 0x2a
 5442 1277 01       		.uleb128 0x1
 5443 1278 50       		.byte	0x50
 5444 1279 02       		.uleb128 0x2
 5445 127a 08       		.byte	0x8
 5446 127b 78       		.byte	0x78
 5447 127c 00       		.byte	0
 5448 127d 2F       		.uleb128 0x2f
 5449 127e 44010000 		.4byte	.LVL122
 5450 1282 85270000 		.4byte	0x2785
 5451 1286 9A120000 		.4byte	0x129a
 5452 128a 2A       		.uleb128 0x2a
 5453 128b 01       		.uleb128 0x1
 5454 128c 51       		.byte	0x51
 5455 128d 05       		.uleb128 0x5
 5456 128e 03       		.byte	0x3
 5457 128f 0A010000 		.4byte	.LC19
 5458 1293 2A       		.uleb128 0x2a
 5459 1294 01       		.uleb128 0x1
 5460 1295 50       		.byte	0x50
 5461 1296 02       		.uleb128 0x2
 5462 1297 74       		.byte	0x74
 5463 1298 00       		.sleb128 0
 5464 1299 00       		.byte	0
 5465 129a 2F       		.uleb128 0x2f
 5466 129b 52010000 		.4byte	.LVL123
 5467 129f 5D290000 		.4byte	0x295d
 5468 12a3 BE120000 		.4byte	0x12be
 5469 12a7 2A       		.uleb128 0x2a
 5470 12a8 01       		.uleb128 0x1
 5471 12a9 53       		.byte	0x53
 5472 12aa 01       		.uleb128 0x1
 5473 12ab 38       		.byte	0x38
 5474 12ac 2A       		.uleb128 0x2a
 5475 12ad 01       		.uleb128 0x1
 5476 12ae 52       		.byte	0x52
 5477 12af 01       		.uleb128 0x1
 5478 12b0 3C       		.byte	0x3c
 5479 12b1 2A       		.uleb128 0x2a
 5480 12b2 01       		.uleb128 0x1
 5481 12b3 51       		.byte	0x51
 5482 12b4 02       		.uleb128 0x2
 5483 12b5 08       		.byte	0x8
 5484 12b6 39       		.byte	0x39
 5485 12b7 2A       		.uleb128 0x2a
 5486 12b8 01       		.uleb128 0x1
 5487 12b9 50       		.byte	0x50
 5488 12ba 02       		.uleb128 0x2
 5489 12bb 08       		.byte	0x8
 5490 12bc 78       		.byte	0x78
 5491 12bd 00       		.byte	0
 5492 12be 2F       		.uleb128 0x2f
 5493 12bf 5C010000 		.4byte	.LVL124
 5494 12c3 7E290000 		.4byte	0x297e
 5495 12c7 E1120000 		.4byte	0x12e1
 5496 12cb 2A       		.uleb128 0x2a
ARM GAS  C:\Users\IVYLIU~1\AppData\Local\Temp\cc0nPDNQ.s 			page 114


 5497 12cc 01       		.uleb128 0x1
 5498 12cd 52       		.byte	0x52
 5499 12ce 02       		.uleb128 0x2
 5500 12cf 08       		.byte	0x8
 5501 12d0 F0       		.byte	0xf0
 5502 12d1 2A       		.uleb128 0x2a
 5503 12d2 01       		.uleb128 0x1
 5504 12d3 51       		.byte	0x51
 5505 12d4 02       		.uleb128 0x2
 5506 12d5 08       		.byte	0x8
 5507 12d6 78       		.byte	0x78
 5508 12d7 2A       		.uleb128 0x2a
 5509 12d8 01       		.uleb128 0x1
 5510 12d9 50       		.byte	0x50
 5511 12da 05       		.uleb128 0x5
 5512 12db 03       		.byte	0x3
 5513 12dc 0A010000 		.4byte	.LC19
 5514 12e0 00       		.byte	0
 5515 12e1 34       		.uleb128 0x34
 5516 12e2 62010000 		.4byte	.LVL125
 5517 12e6 99280000 		.4byte	0x2899
 5518 12ea 2F       		.uleb128 0x2f
 5519 12eb 72010000 		.4byte	.LVL126
 5520 12ef 85270000 		.4byte	0x2785
 5521 12f3 07130000 		.4byte	0x1307
 5522 12f7 2A       		.uleb128 0x2a
 5523 12f8 01       		.uleb128 0x1
 5524 12f9 51       		.byte	0x51
 5525 12fa 05       		.uleb128 0x5
 5526 12fb 03       		.byte	0x3
 5527 12fc 0E010000 		.4byte	.LC20
 5528 1300 2A       		.uleb128 0x2a
 5529 1301 01       		.uleb128 0x1
 5530 1302 50       		.byte	0x50
 5531 1303 02       		.uleb128 0x2
 5532 1304 74       		.byte	0x74
 5533 1305 00       		.sleb128 0
 5534 1306 00       		.byte	0
 5535 1307 2F       		.uleb128 0x2f
 5536 1308 80010000 		.4byte	.LVL127
 5537 130c 5D290000 		.4byte	0x295d
 5538 1310 2B130000 		.4byte	0x132b
 5539 1314 2A       		.uleb128 0x2a
 5540 1315 01       		.uleb128 0x1
 5541 1316 53       		.byte	0x53
 5542 1317 01       		.uleb128 0x1
 5543 1318 38       		.byte	0x38
 5544 1319 2A       		.uleb128 0x2a
 5545 131a 01       		.uleb128 0x1
 5546 131b 52       		.byte	0x52
 5547 131c 01       		.uleb128 0x1
 5548 131d 3C       		.byte	0x3c
 5549 131e 2A       		.uleb128 0x2a
 5550 131f 01       		.uleb128 0x1
 5551 1320 51       		.byte	0x51
 5552 1321 02       		.uleb128 0x2
 5553 1322 08       		.byte	0x8
ARM GAS  C:\Users\IVYLIU~1\AppData\Local\Temp\cc0nPDNQ.s 			page 115


 5554 1323 39       		.byte	0x39
 5555 1324 2A       		.uleb128 0x2a
 5556 1325 01       		.uleb128 0x1
 5557 1326 50       		.byte	0x50
 5558 1327 02       		.uleb128 0x2
 5559 1328 08       		.byte	0x8
 5560 1329 78       		.byte	0x78
 5561 132a 00       		.byte	0
 5562 132b 2F       		.uleb128 0x2f
 5563 132c 8C010000 		.4byte	.LVL128
 5564 1330 85270000 		.4byte	0x2785
 5565 1334 48130000 		.4byte	0x1348
 5566 1338 2A       		.uleb128 0x2a
 5567 1339 01       		.uleb128 0x1
 5568 133a 51       		.byte	0x51
 5569 133b 05       		.uleb128 0x5
 5570 133c 03       		.byte	0x3
 5571 133d 11010000 		.4byte	.LC21
 5572 1341 2A       		.uleb128 0x2a
 5573 1342 01       		.uleb128 0x1
 5574 1343 50       		.byte	0x50
 5575 1344 02       		.uleb128 0x2
 5576 1345 74       		.byte	0x74
 5577 1346 00       		.sleb128 0
 5578 1347 00       		.byte	0
 5579 1348 2F       		.uleb128 0x2f
 5580 1349 9A010000 		.4byte	.LVL129
 5581 134d 5D290000 		.4byte	0x295d
 5582 1351 6C130000 		.4byte	0x136c
 5583 1355 2A       		.uleb128 0x2a
 5584 1356 01       		.uleb128 0x1
 5585 1357 53       		.byte	0x53
 5586 1358 01       		.uleb128 0x1
 5587 1359 38       		.byte	0x38
 5588 135a 2A       		.uleb128 0x2a
 5589 135b 01       		.uleb128 0x1
 5590 135c 52       		.byte	0x52
 5591 135d 01       		.uleb128 0x1
 5592 135e 3C       		.byte	0x3c
 5593 135f 2A       		.uleb128 0x2a
 5594 1360 01       		.uleb128 0x1
 5595 1361 51       		.byte	0x51
 5596 1362 02       		.uleb128 0x2
 5597 1363 08       		.byte	0x8
 5598 1364 41       		.byte	0x41
 5599 1365 2A       		.uleb128 0x2a
 5600 1366 01       		.uleb128 0x1
 5601 1367 50       		.byte	0x50
 5602 1368 02       		.uleb128 0x2
 5603 1369 08       		.byte	0x8
 5604 136a 78       		.byte	0x78
 5605 136b 00       		.byte	0
 5606 136c 2F       		.uleb128 0x2f
 5607 136d A4010000 		.4byte	.LVL130
 5608 1371 7E290000 		.4byte	0x297e
 5609 1375 8F130000 		.4byte	0x138f
 5610 1379 2A       		.uleb128 0x2a
ARM GAS  C:\Users\IVYLIU~1\AppData\Local\Temp\cc0nPDNQ.s 			page 116


 5611 137a 01       		.uleb128 0x1
 5612 137b 52       		.byte	0x52
 5613 137c 02       		.uleb128 0x2
 5614 137d 08       		.byte	0x8
 5615 137e F0       		.byte	0xf0
 5616 137f 2A       		.uleb128 0x2a
 5617 1380 01       		.uleb128 0x1
 5618 1381 51       		.byte	0x51
 5619 1382 02       		.uleb128 0x2
 5620 1383 08       		.byte	0x8
 5621 1384 78       		.byte	0x78
 5622 1385 2A       		.uleb128 0x2a
 5623 1386 01       		.uleb128 0x1
 5624 1387 50       		.byte	0x50
 5625 1388 05       		.uleb128 0x5
 5626 1389 03       		.byte	0x3
 5627 138a 11010000 		.4byte	.LC21
 5628 138e 00       		.byte	0
 5629 138f 34       		.uleb128 0x34
 5630 1390 AA010000 		.4byte	.LVL131
 5631 1394 99280000 		.4byte	0x2899
 5632 1398 2F       		.uleb128 0x2f
 5633 1399 BA010000 		.4byte	.LVL132
 5634 139d 85270000 		.4byte	0x2785
 5635 13a1 B5130000 		.4byte	0x13b5
 5636 13a5 2A       		.uleb128 0x2a
 5637 13a6 01       		.uleb128 0x1
 5638 13a7 51       		.byte	0x51
 5639 13a8 05       		.uleb128 0x5
 5640 13a9 03       		.byte	0x3
 5641 13aa 15010000 		.4byte	.LC22
 5642 13ae 2A       		.uleb128 0x2a
 5643 13af 01       		.uleb128 0x1
 5644 13b0 50       		.byte	0x50
 5645 13b1 02       		.uleb128 0x2
 5646 13b2 74       		.byte	0x74
 5647 13b3 00       		.sleb128 0
 5648 13b4 00       		.byte	0
 5649 13b5 2F       		.uleb128 0x2f
 5650 13b6 C8010000 		.4byte	.LVL133
 5651 13ba 5D290000 		.4byte	0x295d
 5652 13be D9130000 		.4byte	0x13d9
 5653 13c2 2A       		.uleb128 0x2a
 5654 13c3 01       		.uleb128 0x1
 5655 13c4 53       		.byte	0x53
 5656 13c5 01       		.uleb128 0x1
 5657 13c6 38       		.byte	0x38
 5658 13c7 2A       		.uleb128 0x2a
 5659 13c8 01       		.uleb128 0x1
 5660 13c9 52       		.byte	0x52
 5661 13ca 01       		.uleb128 0x1
 5662 13cb 3C       		.byte	0x3c
 5663 13cc 2A       		.uleb128 0x2a
 5664 13cd 01       		.uleb128 0x1
 5665 13ce 51       		.byte	0x51
 5666 13cf 02       		.uleb128 0x2
 5667 13d0 08       		.byte	0x8
ARM GAS  C:\Users\IVYLIU~1\AppData\Local\Temp\cc0nPDNQ.s 			page 117


 5668 13d1 41       		.byte	0x41
 5669 13d2 2A       		.uleb128 0x2a
 5670 13d3 01       		.uleb128 0x1
 5671 13d4 50       		.byte	0x50
 5672 13d5 02       		.uleb128 0x2
 5673 13d6 08       		.byte	0x8
 5674 13d7 78       		.byte	0x78
 5675 13d8 00       		.byte	0
 5676 13d9 2F       		.uleb128 0x2f
 5677 13da D4010000 		.4byte	.LVL134
 5678 13de 85270000 		.4byte	0x2785
 5679 13e2 F6130000 		.4byte	0x13f6
 5680 13e6 2A       		.uleb128 0x2a
 5681 13e7 01       		.uleb128 0x1
 5682 13e8 51       		.byte	0x51
 5683 13e9 05       		.uleb128 0x5
 5684 13ea 03       		.byte	0x3
 5685 13eb 18010000 		.4byte	.LC23
 5686 13ef 2A       		.uleb128 0x2a
 5687 13f0 01       		.uleb128 0x1
 5688 13f1 50       		.byte	0x50
 5689 13f2 02       		.uleb128 0x2
 5690 13f3 74       		.byte	0x74
 5691 13f4 00       		.sleb128 0
 5692 13f5 00       		.byte	0
 5693 13f6 2F       		.uleb128 0x2f
 5694 13f7 E2010000 		.4byte	.LVL135
 5695 13fb 5D290000 		.4byte	0x295d
 5696 13ff 1A140000 		.4byte	0x141a
 5697 1403 2A       		.uleb128 0x2a
 5698 1404 01       		.uleb128 0x1
 5699 1405 53       		.byte	0x53
 5700 1406 01       		.uleb128 0x1
 5701 1407 38       		.byte	0x38
 5702 1408 2A       		.uleb128 0x2a
 5703 1409 01       		.uleb128 0x1
 5704 140a 52       		.byte	0x52
 5705 140b 01       		.uleb128 0x1
 5706 140c 3C       		.byte	0x3c
 5707 140d 2A       		.uleb128 0x2a
 5708 140e 01       		.uleb128 0x1
 5709 140f 51       		.byte	0x51
 5710 1410 02       		.uleb128 0x2
 5711 1411 08       		.byte	0x8
 5712 1412 48       		.byte	0x48
 5713 1413 2A       		.uleb128 0x2a
 5714 1414 01       		.uleb128 0x1
 5715 1415 50       		.byte	0x50
 5716 1416 02       		.uleb128 0x2
 5717 1417 08       		.byte	0x8
 5718 1418 78       		.byte	0x78
 5719 1419 00       		.byte	0
 5720 141a 2F       		.uleb128 0x2f
 5721 141b EC010000 		.4byte	.LVL136
 5722 141f 7E290000 		.4byte	0x297e
 5723 1423 3D140000 		.4byte	0x143d
 5724 1427 2A       		.uleb128 0x2a
ARM GAS  C:\Users\IVYLIU~1\AppData\Local\Temp\cc0nPDNQ.s 			page 118


 5725 1428 01       		.uleb128 0x1
 5726 1429 52       		.byte	0x52
 5727 142a 02       		.uleb128 0x2
 5728 142b 08       		.byte	0x8
 5729 142c F0       		.byte	0xf0
 5730 142d 2A       		.uleb128 0x2a
 5731 142e 01       		.uleb128 0x1
 5732 142f 51       		.byte	0x51
 5733 1430 02       		.uleb128 0x2
 5734 1431 08       		.byte	0x8
 5735 1432 78       		.byte	0x78
 5736 1433 2A       		.uleb128 0x2a
 5737 1434 01       		.uleb128 0x1
 5738 1435 50       		.byte	0x50
 5739 1436 05       		.uleb128 0x5
 5740 1437 03       		.byte	0x3
 5741 1438 18010000 		.4byte	.LC23
 5742 143c 00       		.byte	0
 5743 143d 34       		.uleb128 0x34
 5744 143e F2010000 		.4byte	.LVL137
 5745 1442 99280000 		.4byte	0x2899
 5746 1446 2F       		.uleb128 0x2f
 5747 1447 02020000 		.4byte	.LVL138
 5748 144b 85270000 		.4byte	0x2785
 5749 144f 63140000 		.4byte	0x1463
 5750 1453 2A       		.uleb128 0x2a
 5751 1454 01       		.uleb128 0x1
 5752 1455 51       		.byte	0x51
 5753 1456 05       		.uleb128 0x5
 5754 1457 03       		.byte	0x3
 5755 1458 1C010000 		.4byte	.LC24
 5756 145c 2A       		.uleb128 0x2a
 5757 145d 01       		.uleb128 0x1
 5758 145e 50       		.byte	0x50
 5759 145f 02       		.uleb128 0x2
 5760 1460 74       		.byte	0x74
 5761 1461 00       		.sleb128 0
 5762 1462 00       		.byte	0
 5763 1463 2F       		.uleb128 0x2f
 5764 1464 10020000 		.4byte	.LVL139
 5765 1468 5D290000 		.4byte	0x295d
 5766 146c 87140000 		.4byte	0x1487
 5767 1470 2A       		.uleb128 0x2a
 5768 1471 01       		.uleb128 0x1
 5769 1472 53       		.byte	0x53
 5770 1473 01       		.uleb128 0x1
 5771 1474 38       		.byte	0x38
 5772 1475 2A       		.uleb128 0x2a
 5773 1476 01       		.uleb128 0x1
 5774 1477 52       		.byte	0x52
 5775 1478 01       		.uleb128 0x1
 5776 1479 3C       		.byte	0x3c
 5777 147a 2A       		.uleb128 0x2a
 5778 147b 01       		.uleb128 0x1
 5779 147c 51       		.byte	0x51
 5780 147d 02       		.uleb128 0x2
 5781 147e 08       		.byte	0x8
ARM GAS  C:\Users\IVYLIU~1\AppData\Local\Temp\cc0nPDNQ.s 			page 119


 5782 147f 48       		.byte	0x48
 5783 1480 2A       		.uleb128 0x2a
 5784 1481 01       		.uleb128 0x1
 5785 1482 50       		.byte	0x50
 5786 1483 02       		.uleb128 0x2
 5787 1484 08       		.byte	0x8
 5788 1485 78       		.byte	0x78
 5789 1486 00       		.byte	0
 5790 1487 2F       		.uleb128 0x2f
 5791 1488 1C020000 		.4byte	.LVL140
 5792 148c 85270000 		.4byte	0x2785
 5793 1490 A4140000 		.4byte	0x14a4
 5794 1494 2A       		.uleb128 0x2a
 5795 1495 01       		.uleb128 0x1
 5796 1496 51       		.byte	0x51
 5797 1497 05       		.uleb128 0x5
 5798 1498 03       		.byte	0x3
 5799 1499 1F010000 		.4byte	.LC25
 5800 149d 2A       		.uleb128 0x2a
 5801 149e 01       		.uleb128 0x1
 5802 149f 50       		.byte	0x50
 5803 14a0 02       		.uleb128 0x2
 5804 14a1 74       		.byte	0x74
 5805 14a2 00       		.sleb128 0
 5806 14a3 00       		.byte	0
 5807 14a4 2F       		.uleb128 0x2f
 5808 14a5 2A020000 		.4byte	.LVL141
 5809 14a9 5D290000 		.4byte	0x295d
 5810 14ad C8140000 		.4byte	0x14c8
 5811 14b1 2A       		.uleb128 0x2a
 5812 14b2 01       		.uleb128 0x1
 5813 14b3 53       		.byte	0x53
 5814 14b4 01       		.uleb128 0x1
 5815 14b5 38       		.byte	0x38
 5816 14b6 2A       		.uleb128 0x2a
 5817 14b7 01       		.uleb128 0x1
 5818 14b8 52       		.byte	0x52
 5819 14b9 01       		.uleb128 0x1
 5820 14ba 3C       		.byte	0x3c
 5821 14bb 2A       		.uleb128 0x2a
 5822 14bc 01       		.uleb128 0x1
 5823 14bd 51       		.byte	0x51
 5824 14be 02       		.uleb128 0x2
 5825 14bf 08       		.byte	0x8
 5826 14c0 50       		.byte	0x50
 5827 14c1 2A       		.uleb128 0x2a
 5828 14c2 01       		.uleb128 0x1
 5829 14c3 50       		.byte	0x50
 5830 14c4 02       		.uleb128 0x2
 5831 14c5 08       		.byte	0x8
 5832 14c6 78       		.byte	0x78
 5833 14c7 00       		.byte	0
 5834 14c8 2F       		.uleb128 0x2f
 5835 14c9 36020000 		.4byte	.LVL142
 5836 14cd 85270000 		.4byte	0x2785
 5837 14d1 E5140000 		.4byte	0x14e5
 5838 14d5 2A       		.uleb128 0x2a
ARM GAS  C:\Users\IVYLIU~1\AppData\Local\Temp\cc0nPDNQ.s 			page 120


 5839 14d6 01       		.uleb128 0x1
 5840 14d7 51       		.byte	0x51
 5841 14d8 05       		.uleb128 0x5
 5842 14d9 03       		.byte	0x3
 5843 14da 22010000 		.4byte	.LC26
 5844 14de 2A       		.uleb128 0x2a
 5845 14df 01       		.uleb128 0x1
 5846 14e0 50       		.byte	0x50
 5847 14e1 02       		.uleb128 0x2
 5848 14e2 74       		.byte	0x74
 5849 14e3 00       		.sleb128 0
 5850 14e4 00       		.byte	0
 5851 14e5 2F       		.uleb128 0x2f
 5852 14e6 44020000 		.4byte	.LVL143
 5853 14ea 5D290000 		.4byte	0x295d
 5854 14ee 09150000 		.4byte	0x1509
 5855 14f2 2A       		.uleb128 0x2a
 5856 14f3 01       		.uleb128 0x1
 5857 14f4 53       		.byte	0x53
 5858 14f5 01       		.uleb128 0x1
 5859 14f6 38       		.byte	0x38
 5860 14f7 2A       		.uleb128 0x2a
 5861 14f8 01       		.uleb128 0x1
 5862 14f9 52       		.byte	0x52
 5863 14fa 01       		.uleb128 0x1
 5864 14fb 3C       		.byte	0x3c
 5865 14fc 2A       		.uleb128 0x2a
 5866 14fd 01       		.uleb128 0x1
 5867 14fe 51       		.byte	0x51
 5868 14ff 02       		.uleb128 0x2
 5869 1500 08       		.byte	0x8
 5870 1501 57       		.byte	0x57
 5871 1502 2A       		.uleb128 0x2a
 5872 1503 01       		.uleb128 0x1
 5873 1504 50       		.byte	0x50
 5874 1505 02       		.uleb128 0x2
 5875 1506 08       		.byte	0x8
 5876 1507 78       		.byte	0x78
 5877 1508 00       		.byte	0
 5878 1509 2F       		.uleb128 0x2f
 5879 150a 4E020000 		.4byte	.LVL144
 5880 150e 7E290000 		.4byte	0x297e
 5881 1512 2C150000 		.4byte	0x152c
 5882 1516 2A       		.uleb128 0x2a
 5883 1517 01       		.uleb128 0x1
 5884 1518 52       		.byte	0x52
 5885 1519 02       		.uleb128 0x2
 5886 151a 08       		.byte	0x8
 5887 151b F0       		.byte	0xf0
 5888 151c 2A       		.uleb128 0x2a
 5889 151d 01       		.uleb128 0x1
 5890 151e 51       		.byte	0x51
 5891 151f 02       		.uleb128 0x2
 5892 1520 08       		.byte	0x8
 5893 1521 78       		.byte	0x78
 5894 1522 2A       		.uleb128 0x2a
 5895 1523 01       		.uleb128 0x1
ARM GAS  C:\Users\IVYLIU~1\AppData\Local\Temp\cc0nPDNQ.s 			page 121


 5896 1524 50       		.byte	0x50
 5897 1525 05       		.uleb128 0x5
 5898 1526 03       		.byte	0x3
 5899 1527 22010000 		.4byte	.LC26
 5900 152b 00       		.byte	0
 5901 152c 34       		.uleb128 0x34
 5902 152d 54020000 		.4byte	.LVL145
 5903 1531 99280000 		.4byte	0x2899
 5904 1535 2F       		.uleb128 0x2f
 5905 1536 64020000 		.4byte	.LVL146
 5906 153a 85270000 		.4byte	0x2785
 5907 153e 52150000 		.4byte	0x1552
 5908 1542 2A       		.uleb128 0x2a
 5909 1543 01       		.uleb128 0x1
 5910 1544 51       		.byte	0x51
 5911 1545 05       		.uleb128 0x5
 5912 1546 03       		.byte	0x3
 5913 1547 26010000 		.4byte	.LC27
 5914 154b 2A       		.uleb128 0x2a
 5915 154c 01       		.uleb128 0x1
 5916 154d 50       		.byte	0x50
 5917 154e 02       		.uleb128 0x2
 5918 154f 74       		.byte	0x74
 5919 1550 00       		.sleb128 0
 5920 1551 00       		.byte	0
 5921 1552 2F       		.uleb128 0x2f
 5922 1553 72020000 		.4byte	.LVL147
 5923 1557 5D290000 		.4byte	0x295d
 5924 155b 76150000 		.4byte	0x1576
 5925 155f 2A       		.uleb128 0x2a
 5926 1560 01       		.uleb128 0x1
 5927 1561 53       		.byte	0x53
 5928 1562 01       		.uleb128 0x1
 5929 1563 38       		.byte	0x38
 5930 1564 2A       		.uleb128 0x2a
 5931 1565 01       		.uleb128 0x1
 5932 1566 52       		.byte	0x52
 5933 1567 01       		.uleb128 0x1
 5934 1568 3C       		.byte	0x3c
 5935 1569 2A       		.uleb128 0x2a
 5936 156a 01       		.uleb128 0x1
 5937 156b 51       		.byte	0x51
 5938 156c 02       		.uleb128 0x2
 5939 156d 08       		.byte	0x8
 5940 156e 57       		.byte	0x57
 5941 156f 2A       		.uleb128 0x2a
 5942 1570 01       		.uleb128 0x1
 5943 1571 50       		.byte	0x50
 5944 1572 02       		.uleb128 0x2
 5945 1573 08       		.byte	0x8
 5946 1574 78       		.byte	0x78
 5947 1575 00       		.byte	0
 5948 1576 2F       		.uleb128 0x2f
 5949 1577 7E020000 		.4byte	.LVL148
 5950 157b 85270000 		.4byte	0x2785
 5951 157f 93150000 		.4byte	0x1593
 5952 1583 2A       		.uleb128 0x2a
ARM GAS  C:\Users\IVYLIU~1\AppData\Local\Temp\cc0nPDNQ.s 			page 122


 5953 1584 01       		.uleb128 0x1
 5954 1585 51       		.byte	0x51
 5955 1586 05       		.uleb128 0x5
 5956 1587 03       		.byte	0x3
 5957 1588 29010000 		.4byte	.LC28
 5958 158c 2A       		.uleb128 0x2a
 5959 158d 01       		.uleb128 0x1
 5960 158e 50       		.byte	0x50
 5961 158f 02       		.uleb128 0x2
 5962 1590 74       		.byte	0x74
 5963 1591 00       		.sleb128 0
 5964 1592 00       		.byte	0
 5965 1593 2F       		.uleb128 0x2f
 5966 1594 8C020000 		.4byte	.LVL149
 5967 1598 5D290000 		.4byte	0x295d
 5968 159c B7150000 		.4byte	0x15b7
 5969 15a0 2A       		.uleb128 0x2a
 5970 15a1 01       		.uleb128 0x1
 5971 15a2 53       		.byte	0x53
 5972 15a3 01       		.uleb128 0x1
 5973 15a4 38       		.byte	0x38
 5974 15a5 2A       		.uleb128 0x2a
 5975 15a6 01       		.uleb128 0x1
 5976 15a7 52       		.byte	0x52
 5977 15a8 01       		.uleb128 0x1
 5978 15a9 3C       		.byte	0x3c
 5979 15aa 2A       		.uleb128 0x2a
 5980 15ab 01       		.uleb128 0x1
 5981 15ac 51       		.byte	0x51
 5982 15ad 02       		.uleb128 0x2
 5983 15ae 08       		.byte	0x8
 5984 15af 5F       		.byte	0x5f
 5985 15b0 2A       		.uleb128 0x2a
 5986 15b1 01       		.uleb128 0x1
 5987 15b2 50       		.byte	0x50
 5988 15b3 02       		.uleb128 0x2
 5989 15b4 08       		.byte	0x8
 5990 15b5 78       		.byte	0x78
 5991 15b6 00       		.byte	0
 5992 15b7 2F       		.uleb128 0x2f
 5993 15b8 96020000 		.4byte	.LVL150
 5994 15bc 7E290000 		.4byte	0x297e
 5995 15c0 DA150000 		.4byte	0x15da
 5996 15c4 2A       		.uleb128 0x2a
 5997 15c5 01       		.uleb128 0x1
 5998 15c6 52       		.byte	0x52
 5999 15c7 02       		.uleb128 0x2
 6000 15c8 08       		.byte	0x8
 6001 15c9 F0       		.byte	0xf0
 6002 15ca 2A       		.uleb128 0x2a
 6003 15cb 01       		.uleb128 0x1
 6004 15cc 51       		.byte	0x51
 6005 15cd 02       		.uleb128 0x2
 6006 15ce 08       		.byte	0x8
 6007 15cf 78       		.byte	0x78
 6008 15d0 2A       		.uleb128 0x2a
 6009 15d1 01       		.uleb128 0x1
ARM GAS  C:\Users\IVYLIU~1\AppData\Local\Temp\cc0nPDNQ.s 			page 123


 6010 15d2 50       		.byte	0x50
 6011 15d3 05       		.uleb128 0x5
 6012 15d4 03       		.byte	0x3
 6013 15d5 29010000 		.4byte	.LC28
 6014 15d9 00       		.byte	0
 6015 15da 34       		.uleb128 0x34
 6016 15db 9C020000 		.4byte	.LVL151
 6017 15df 99280000 		.4byte	0x2899
 6018 15e3 2F       		.uleb128 0x2f
 6019 15e4 AC020000 		.4byte	.LVL152
 6020 15e8 85270000 		.4byte	0x2785
 6021 15ec 00160000 		.4byte	0x1600
 6022 15f0 2A       		.uleb128 0x2a
 6023 15f1 01       		.uleb128 0x1
 6024 15f2 51       		.byte	0x51
 6025 15f3 05       		.uleb128 0x5
 6026 15f4 03       		.byte	0x3
 6027 15f5 2D010000 		.4byte	.LC29
 6028 15f9 2A       		.uleb128 0x2a
 6029 15fa 01       		.uleb128 0x1
 6030 15fb 50       		.byte	0x50
 6031 15fc 02       		.uleb128 0x2
 6032 15fd 74       		.byte	0x74
 6033 15fe 00       		.sleb128 0
 6034 15ff 00       		.byte	0
 6035 1600 2F       		.uleb128 0x2f
 6036 1601 BA020000 		.4byte	.LVL153
 6037 1605 5D290000 		.4byte	0x295d
 6038 1609 24160000 		.4byte	0x1624
 6039 160d 2A       		.uleb128 0x2a
 6040 160e 01       		.uleb128 0x1
 6041 160f 53       		.byte	0x53
 6042 1610 01       		.uleb128 0x1
 6043 1611 38       		.byte	0x38
 6044 1612 2A       		.uleb128 0x2a
 6045 1613 01       		.uleb128 0x1
 6046 1614 52       		.byte	0x52
 6047 1615 01       		.uleb128 0x1
 6048 1616 3C       		.byte	0x3c
 6049 1617 2A       		.uleb128 0x2a
 6050 1618 01       		.uleb128 0x1
 6051 1619 51       		.byte	0x51
 6052 161a 02       		.uleb128 0x2
 6053 161b 08       		.byte	0x8
 6054 161c 64       		.byte	0x64
 6055 161d 2A       		.uleb128 0x2a
 6056 161e 01       		.uleb128 0x1
 6057 161f 50       		.byte	0x50
 6058 1620 02       		.uleb128 0x2
 6059 1621 08       		.byte	0x8
 6060 1622 78       		.byte	0x78
 6061 1623 00       		.byte	0
 6062 1624 2F       		.uleb128 0x2f
 6063 1625 C6020000 		.4byte	.LVL154
 6064 1629 85270000 		.4byte	0x2785
 6065 162d 41160000 		.4byte	0x1641
 6066 1631 2A       		.uleb128 0x2a
ARM GAS  C:\Users\IVYLIU~1\AppData\Local\Temp\cc0nPDNQ.s 			page 124


 6067 1632 01       		.uleb128 0x1
 6068 1633 51       		.byte	0x51
 6069 1634 05       		.uleb128 0x5
 6070 1635 03       		.byte	0x3
 6071 1636 30010000 		.4byte	.LC30
 6072 163a 2A       		.uleb128 0x2a
 6073 163b 01       		.uleb128 0x1
 6074 163c 50       		.byte	0x50
 6075 163d 02       		.uleb128 0x2
 6076 163e 74       		.byte	0x74
 6077 163f 00       		.sleb128 0
 6078 1640 00       		.byte	0
 6079 1641 2F       		.uleb128 0x2f
 6080 1642 D4020000 		.4byte	.LVL155
 6081 1646 5D290000 		.4byte	0x295d
 6082 164a 65160000 		.4byte	0x1665
 6083 164e 2A       		.uleb128 0x2a
 6084 164f 01       		.uleb128 0x1
 6085 1650 53       		.byte	0x53
 6086 1651 01       		.uleb128 0x1
 6087 1652 38       		.byte	0x38
 6088 1653 2A       		.uleb128 0x2a
 6089 1654 01       		.uleb128 0x1
 6090 1655 52       		.byte	0x52
 6091 1656 01       		.uleb128 0x1
 6092 1657 3C       		.byte	0x3c
 6093 1658 2A       		.uleb128 0x2a
 6094 1659 01       		.uleb128 0x1
 6095 165a 51       		.byte	0x51
 6096 165b 02       		.uleb128 0x2
 6097 165c 08       		.byte	0x8
 6098 165d 71       		.byte	0x71
 6099 165e 2A       		.uleb128 0x2a
 6100 165f 01       		.uleb128 0x1
 6101 1660 50       		.byte	0x50
 6102 1661 02       		.uleb128 0x2
 6103 1662 08       		.byte	0x8
 6104 1663 78       		.byte	0x78
 6105 1664 00       		.byte	0
 6106 1665 2F       		.uleb128 0x2f
 6107 1666 40030000 		.4byte	.LVL156
 6108 166a 85270000 		.4byte	0x2785
 6109 166e 82160000 		.4byte	0x1682
 6110 1672 2A       		.uleb128 0x2a
 6111 1673 01       		.uleb128 0x1
 6112 1674 51       		.byte	0x51
 6113 1675 05       		.uleb128 0x5
 6114 1676 03       		.byte	0x3
 6115 1677 33010000 		.4byte	.LC31
 6116 167b 2A       		.uleb128 0x2a
 6117 167c 01       		.uleb128 0x1
 6118 167d 50       		.byte	0x50
 6119 167e 02       		.uleb128 0x2
 6120 167f 74       		.byte	0x74
 6121 1680 00       		.sleb128 0
 6122 1681 00       		.byte	0
 6123 1682 2F       		.uleb128 0x2f
ARM GAS  C:\Users\IVYLIU~1\AppData\Local\Temp\cc0nPDNQ.s 			page 125


 6124 1683 4E030000 		.4byte	.LVL157
 6125 1687 5D290000 		.4byte	0x295d
 6126 168b A6160000 		.4byte	0x16a6
 6127 168f 2A       		.uleb128 0x2a
 6128 1690 01       		.uleb128 0x1
 6129 1691 53       		.byte	0x53
 6130 1692 01       		.uleb128 0x1
 6131 1693 38       		.byte	0x38
 6132 1694 2A       		.uleb128 0x2a
 6133 1695 01       		.uleb128 0x1
 6134 1696 52       		.byte	0x52
 6135 1697 01       		.uleb128 0x1
 6136 1698 3C       		.byte	0x3c
 6137 1699 2A       		.uleb128 0x2a
 6138 169a 01       		.uleb128 0x1
 6139 169b 51       		.byte	0x51
 6140 169c 02       		.uleb128 0x2
 6141 169d 08       		.byte	0x8
 6142 169e 78       		.byte	0x78
 6143 169f 2A       		.uleb128 0x2a
 6144 16a0 01       		.uleb128 0x1
 6145 16a1 50       		.byte	0x50
 6146 16a2 02       		.uleb128 0x2
 6147 16a3 08       		.byte	0x8
 6148 16a4 78       		.byte	0x78
 6149 16a5 00       		.byte	0
 6150 16a6 2F       		.uleb128 0x2f
 6151 16a7 58030000 		.4byte	.LVL158
 6152 16ab 7E290000 		.4byte	0x297e
 6153 16af C9160000 		.4byte	0x16c9
 6154 16b3 2A       		.uleb128 0x2a
 6155 16b4 01       		.uleb128 0x1
 6156 16b5 52       		.byte	0x52
 6157 16b6 02       		.uleb128 0x2
 6158 16b7 08       		.byte	0x8
 6159 16b8 F0       		.byte	0xf0
 6160 16b9 2A       		.uleb128 0x2a
 6161 16ba 01       		.uleb128 0x1
 6162 16bb 51       		.byte	0x51
 6163 16bc 02       		.uleb128 0x2
 6164 16bd 08       		.byte	0x8
 6165 16be 78       		.byte	0x78
 6166 16bf 2A       		.uleb128 0x2a
 6167 16c0 01       		.uleb128 0x1
 6168 16c1 50       		.byte	0x50
 6169 16c2 05       		.uleb128 0x5
 6170 16c3 03       		.byte	0x3
 6171 16c4 33010000 		.4byte	.LC31
 6172 16c8 00       		.byte	0
 6173 16c9 34       		.uleb128 0x34
 6174 16ca 5E030000 		.4byte	.LVL159
 6175 16ce 99280000 		.4byte	0x2899
 6176 16d2 2F       		.uleb128 0x2f
 6177 16d3 6E030000 		.4byte	.LVL160
 6178 16d7 85270000 		.4byte	0x2785
 6179 16db EF160000 		.4byte	0x16ef
 6180 16df 2A       		.uleb128 0x2a
ARM GAS  C:\Users\IVYLIU~1\AppData\Local\Temp\cc0nPDNQ.s 			page 126


 6181 16e0 01       		.uleb128 0x1
 6182 16e1 51       		.byte	0x51
 6183 16e2 05       		.uleb128 0x5
 6184 16e3 03       		.byte	0x3
 6185 16e4 37010000 		.4byte	.LC32
 6186 16e8 2A       		.uleb128 0x2a
 6187 16e9 01       		.uleb128 0x1
 6188 16ea 50       		.byte	0x50
 6189 16eb 02       		.uleb128 0x2
 6190 16ec 74       		.byte	0x74
 6191 16ed 00       		.sleb128 0
 6192 16ee 00       		.byte	0
 6193 16ef 2F       		.uleb128 0x2f
 6194 16f0 7C030000 		.4byte	.LVL161
 6195 16f4 5D290000 		.4byte	0x295d
 6196 16f8 13170000 		.4byte	0x1713
 6197 16fc 2A       		.uleb128 0x2a
 6198 16fd 01       		.uleb128 0x1
 6199 16fe 53       		.byte	0x53
 6200 16ff 01       		.uleb128 0x1
 6201 1700 38       		.byte	0x38
 6202 1701 2A       		.uleb128 0x2a
 6203 1702 01       		.uleb128 0x1
 6204 1703 52       		.byte	0x52
 6205 1704 01       		.uleb128 0x1
 6206 1705 3C       		.byte	0x3c
 6207 1706 2A       		.uleb128 0x2a
 6208 1707 01       		.uleb128 0x1
 6209 1708 51       		.byte	0x51
 6210 1709 02       		.uleb128 0x2
 6211 170a 08       		.byte	0x8
 6212 170b 78       		.byte	0x78
 6213 170c 2A       		.uleb128 0x2a
 6214 170d 01       		.uleb128 0x1
 6215 170e 50       		.byte	0x50
 6216 170f 02       		.uleb128 0x2
 6217 1710 08       		.byte	0x8
 6218 1711 78       		.byte	0x78
 6219 1712 00       		.byte	0
 6220 1713 2F       		.uleb128 0x2f
 6221 1714 88030000 		.4byte	.LVL162
 6222 1718 85270000 		.4byte	0x2785
 6223 171c 30170000 		.4byte	0x1730
 6224 1720 2A       		.uleb128 0x2a
 6225 1721 01       		.uleb128 0x1
 6226 1722 51       		.byte	0x51
 6227 1723 05       		.uleb128 0x5
 6228 1724 03       		.byte	0x3
 6229 1725 3A010000 		.4byte	.LC33
 6230 1729 2A       		.uleb128 0x2a
 6231 172a 01       		.uleb128 0x1
 6232 172b 50       		.byte	0x50
 6233 172c 02       		.uleb128 0x2
 6234 172d 74       		.byte	0x74
 6235 172e 00       		.sleb128 0
 6236 172f 00       		.byte	0
 6237 1730 2F       		.uleb128 0x2f
ARM GAS  C:\Users\IVYLIU~1\AppData\Local\Temp\cc0nPDNQ.s 			page 127


 6238 1731 96030000 		.4byte	.LVL163
 6239 1735 5D290000 		.4byte	0x295d
 6240 1739 54170000 		.4byte	0x1754
 6241 173d 2A       		.uleb128 0x2a
 6242 173e 01       		.uleb128 0x1
 6243 173f 53       		.byte	0x53
 6244 1740 01       		.uleb128 0x1
 6245 1741 38       		.byte	0x38
 6246 1742 2A       		.uleb128 0x2a
 6247 1743 01       		.uleb128 0x1
 6248 1744 52       		.byte	0x52
 6249 1745 01       		.uleb128 0x1
 6250 1746 3C       		.byte	0x3c
 6251 1747 2A       		.uleb128 0x2a
 6252 1748 01       		.uleb128 0x1
 6253 1749 51       		.byte	0x51
 6254 174a 02       		.uleb128 0x2
 6255 174b 08       		.byte	0x8
 6256 174c 7F       		.byte	0x7f
 6257 174d 2A       		.uleb128 0x2a
 6258 174e 01       		.uleb128 0x1
 6259 174f 50       		.byte	0x50
 6260 1750 02       		.uleb128 0x2
 6261 1751 08       		.byte	0x8
 6262 1752 78       		.byte	0x78
 6263 1753 00       		.byte	0
 6264 1754 2F       		.uleb128 0x2f
 6265 1755 A0030000 		.4byte	.LVL164
 6266 1759 7E290000 		.4byte	0x297e
 6267 175d 77170000 		.4byte	0x1777
 6268 1761 2A       		.uleb128 0x2a
 6269 1762 01       		.uleb128 0x1
 6270 1763 52       		.byte	0x52
 6271 1764 02       		.uleb128 0x2
 6272 1765 08       		.byte	0x8
 6273 1766 F0       		.byte	0xf0
 6274 1767 2A       		.uleb128 0x2a
 6275 1768 01       		.uleb128 0x1
 6276 1769 51       		.byte	0x51
 6277 176a 02       		.uleb128 0x2
 6278 176b 08       		.byte	0x8
 6279 176c 78       		.byte	0x78
 6280 176d 2A       		.uleb128 0x2a
 6281 176e 01       		.uleb128 0x1
 6282 176f 50       		.byte	0x50
 6283 1770 05       		.uleb128 0x5
 6284 1771 03       		.byte	0x3
 6285 1772 3A010000 		.4byte	.LC33
 6286 1776 00       		.byte	0
 6287 1777 34       		.uleb128 0x34
 6288 1778 A6030000 		.4byte	.LVL165
 6289 177c 99280000 		.4byte	0x2899
 6290 1780 2F       		.uleb128 0x2f
 6291 1781 B6030000 		.4byte	.LVL166
 6292 1785 85270000 		.4byte	0x2785
 6293 1789 9D170000 		.4byte	0x179d
 6294 178d 2A       		.uleb128 0x2a
ARM GAS  C:\Users\IVYLIU~1\AppData\Local\Temp\cc0nPDNQ.s 			page 128


 6295 178e 01       		.uleb128 0x1
 6296 178f 51       		.byte	0x51
 6297 1790 05       		.uleb128 0x5
 6298 1791 03       		.byte	0x3
 6299 1792 3E010000 		.4byte	.LC34
 6300 1796 2A       		.uleb128 0x2a
 6301 1797 01       		.uleb128 0x1
 6302 1798 50       		.byte	0x50
 6303 1799 02       		.uleb128 0x2
 6304 179a 74       		.byte	0x74
 6305 179b 00       		.sleb128 0
 6306 179c 00       		.byte	0
 6307 179d 2F       		.uleb128 0x2f
 6308 179e C4030000 		.4byte	.LVL167
 6309 17a2 5D290000 		.4byte	0x295d
 6310 17a6 C1170000 		.4byte	0x17c1
 6311 17aa 2A       		.uleb128 0x2a
 6312 17ab 01       		.uleb128 0x1
 6313 17ac 53       		.byte	0x53
 6314 17ad 01       		.uleb128 0x1
 6315 17ae 38       		.byte	0x38
 6316 17af 2A       		.uleb128 0x2a
 6317 17b0 01       		.uleb128 0x1
 6318 17b1 52       		.byte	0x52
 6319 17b2 01       		.uleb128 0x1
 6320 17b3 3C       		.byte	0x3c
 6321 17b4 2A       		.uleb128 0x2a
 6322 17b5 01       		.uleb128 0x1
 6323 17b6 51       		.byte	0x51
 6324 17b7 02       		.uleb128 0x2
 6325 17b8 08       		.byte	0x8
 6326 17b9 7F       		.byte	0x7f
 6327 17ba 2A       		.uleb128 0x2a
 6328 17bb 01       		.uleb128 0x1
 6329 17bc 50       		.byte	0x50
 6330 17bd 02       		.uleb128 0x2
 6331 17be 08       		.byte	0x8
 6332 17bf 78       		.byte	0x78
 6333 17c0 00       		.byte	0
 6334 17c1 2F       		.uleb128 0x2f
 6335 17c2 D0030000 		.4byte	.LVL168
 6336 17c6 85270000 		.4byte	0x2785
 6337 17ca DE170000 		.4byte	0x17de
 6338 17ce 2A       		.uleb128 0x2a
 6339 17cf 01       		.uleb128 0x1
 6340 17d0 51       		.byte	0x51
 6341 17d1 05       		.uleb128 0x5
 6342 17d2 03       		.byte	0x3
 6343 17d3 41010000 		.4byte	.LC35
 6344 17d7 2A       		.uleb128 0x2a
 6345 17d8 01       		.uleb128 0x1
 6346 17d9 50       		.byte	0x50
 6347 17da 02       		.uleb128 0x2
 6348 17db 74       		.byte	0x74
 6349 17dc 00       		.sleb128 0
 6350 17dd 00       		.byte	0
 6351 17de 2F       		.uleb128 0x2f
ARM GAS  C:\Users\IVYLIU~1\AppData\Local\Temp\cc0nPDNQ.s 			page 129


 6352 17df DE030000 		.4byte	.LVL169
 6353 17e3 5D290000 		.4byte	0x295d
 6354 17e7 02180000 		.4byte	0x1802
 6355 17eb 2A       		.uleb128 0x2a
 6356 17ec 01       		.uleb128 0x1
 6357 17ed 53       		.byte	0x53
 6358 17ee 01       		.uleb128 0x1
 6359 17ef 38       		.byte	0x38
 6360 17f0 2A       		.uleb128 0x2a
 6361 17f1 01       		.uleb128 0x1
 6362 17f2 52       		.byte	0x52
 6363 17f3 01       		.uleb128 0x1
 6364 17f4 3C       		.byte	0x3c
 6365 17f5 2A       		.uleb128 0x2a
 6366 17f6 01       		.uleb128 0x1
 6367 17f7 51       		.byte	0x51
 6368 17f8 02       		.uleb128 0x2
 6369 17f9 08       		.byte	0x8
 6370 17fa 87       		.byte	0x87
 6371 17fb 2A       		.uleb128 0x2a
 6372 17fc 01       		.uleb128 0x1
 6373 17fd 50       		.byte	0x50
 6374 17fe 02       		.uleb128 0x2
 6375 17ff 08       		.byte	0x8
 6376 1800 78       		.byte	0x78
 6377 1801 00       		.byte	0
 6378 1802 2F       		.uleb128 0x2f
 6379 1803 E8030000 		.4byte	.LVL170
 6380 1807 7E290000 		.4byte	0x297e
 6381 180b 25180000 		.4byte	0x1825
 6382 180f 2A       		.uleb128 0x2a
 6383 1810 01       		.uleb128 0x1
 6384 1811 52       		.byte	0x52
 6385 1812 02       		.uleb128 0x2
 6386 1813 08       		.byte	0x8
 6387 1814 F0       		.byte	0xf0
 6388 1815 2A       		.uleb128 0x2a
 6389 1816 01       		.uleb128 0x1
 6390 1817 51       		.byte	0x51
 6391 1818 02       		.uleb128 0x2
 6392 1819 08       		.byte	0x8
 6393 181a 78       		.byte	0x78
 6394 181b 2A       		.uleb128 0x2a
 6395 181c 01       		.uleb128 0x1
 6396 181d 50       		.byte	0x50
 6397 181e 05       		.uleb128 0x5
 6398 181f 03       		.byte	0x3
 6399 1820 41010000 		.4byte	.LC35
 6400 1824 00       		.byte	0
 6401 1825 34       		.uleb128 0x34
 6402 1826 EE030000 		.4byte	.LVL171
 6403 182a 99280000 		.4byte	0x2899
 6404 182e 2F       		.uleb128 0x2f
 6405 182f FE030000 		.4byte	.LVL172
 6406 1833 85270000 		.4byte	0x2785
 6407 1837 4B180000 		.4byte	0x184b
 6408 183b 2A       		.uleb128 0x2a
ARM GAS  C:\Users\IVYLIU~1\AppData\Local\Temp\cc0nPDNQ.s 			page 130


 6409 183c 01       		.uleb128 0x1
 6410 183d 51       		.byte	0x51
 6411 183e 05       		.uleb128 0x5
 6412 183f 03       		.byte	0x3
 6413 1840 45010000 		.4byte	.LC36
 6414 1844 2A       		.uleb128 0x2a
 6415 1845 01       		.uleb128 0x1
 6416 1846 50       		.byte	0x50
 6417 1847 02       		.uleb128 0x2
 6418 1848 74       		.byte	0x74
 6419 1849 00       		.sleb128 0
 6420 184a 00       		.byte	0
 6421 184b 2F       		.uleb128 0x2f
 6422 184c 0C040000 		.4byte	.LVL173
 6423 1850 5D290000 		.4byte	0x295d
 6424 1854 6F180000 		.4byte	0x186f
 6425 1858 2A       		.uleb128 0x2a
 6426 1859 01       		.uleb128 0x1
 6427 185a 53       		.byte	0x53
 6428 185b 01       		.uleb128 0x1
 6429 185c 38       		.byte	0x38
 6430 185d 2A       		.uleb128 0x2a
 6431 185e 01       		.uleb128 0x1
 6432 185f 52       		.byte	0x52
 6433 1860 01       		.uleb128 0x1
 6434 1861 3C       		.byte	0x3c
 6435 1862 2A       		.uleb128 0x2a
 6436 1863 01       		.uleb128 0x1
 6437 1864 51       		.byte	0x51
 6438 1865 02       		.uleb128 0x2
 6439 1866 08       		.byte	0x8
 6440 1867 87       		.byte	0x87
 6441 1868 2A       		.uleb128 0x2a
 6442 1869 01       		.uleb128 0x1
 6443 186a 50       		.byte	0x50
 6444 186b 02       		.uleb128 0x2
 6445 186c 08       		.byte	0x8
 6446 186d 78       		.byte	0x78
 6447 186e 00       		.byte	0
 6448 186f 2F       		.uleb128 0x2f
 6449 1870 18040000 		.4byte	.LVL174
 6450 1874 85270000 		.4byte	0x2785
 6451 1878 8C180000 		.4byte	0x188c
 6452 187c 2A       		.uleb128 0x2a
 6453 187d 01       		.uleb128 0x1
 6454 187e 51       		.byte	0x51
 6455 187f 05       		.uleb128 0x5
 6456 1880 03       		.byte	0x3
 6457 1881 48010000 		.4byte	.LC37
 6458 1885 2A       		.uleb128 0x2a
 6459 1886 01       		.uleb128 0x1
 6460 1887 50       		.byte	0x50
 6461 1888 02       		.uleb128 0x2
 6462 1889 74       		.byte	0x74
 6463 188a 00       		.sleb128 0
 6464 188b 00       		.byte	0
 6465 188c 2F       		.uleb128 0x2f
ARM GAS  C:\Users\IVYLIU~1\AppData\Local\Temp\cc0nPDNQ.s 			page 131


 6466 188d 26040000 		.4byte	.LVL175
 6467 1891 5D290000 		.4byte	0x295d
 6468 1895 B0180000 		.4byte	0x18b0
 6469 1899 2A       		.uleb128 0x2a
 6470 189a 01       		.uleb128 0x1
 6471 189b 53       		.byte	0x53
 6472 189c 01       		.uleb128 0x1
 6473 189d 38       		.byte	0x38
 6474 189e 2A       		.uleb128 0x2a
 6475 189f 01       		.uleb128 0x1
 6476 18a0 52       		.byte	0x52
 6477 18a1 01       		.uleb128 0x1
 6478 18a2 3C       		.byte	0x3c
 6479 18a3 2A       		.uleb128 0x2a
 6480 18a4 01       		.uleb128 0x1
 6481 18a5 51       		.byte	0x51
 6482 18a6 02       		.uleb128 0x2
 6483 18a7 08       		.byte	0x8
 6484 18a8 8E       		.byte	0x8e
 6485 18a9 2A       		.uleb128 0x2a
 6486 18aa 01       		.uleb128 0x1
 6487 18ab 50       		.byte	0x50
 6488 18ac 02       		.uleb128 0x2
 6489 18ad 08       		.byte	0x8
 6490 18ae 78       		.byte	0x78
 6491 18af 00       		.byte	0
 6492 18b0 2F       		.uleb128 0x2f
 6493 18b1 32040000 		.4byte	.LVL176
 6494 18b5 85270000 		.4byte	0x2785
 6495 18b9 CD180000 		.4byte	0x18cd
 6496 18bd 2A       		.uleb128 0x2a
 6497 18be 01       		.uleb128 0x1
 6498 18bf 51       		.byte	0x51
 6499 18c0 05       		.uleb128 0x5
 6500 18c1 03       		.byte	0x3
 6501 18c2 4B010000 		.4byte	.LC38
 6502 18c6 2A       		.uleb128 0x2a
 6503 18c7 01       		.uleb128 0x1
 6504 18c8 50       		.byte	0x50
 6505 18c9 02       		.uleb128 0x2
 6506 18ca 74       		.byte	0x74
 6507 18cb 00       		.sleb128 0
 6508 18cc 00       		.byte	0
 6509 18cd 2F       		.uleb128 0x2f
 6510 18ce 40040000 		.4byte	.LVL177
 6511 18d2 5D290000 		.4byte	0x295d
 6512 18d6 F1180000 		.4byte	0x18f1
 6513 18da 2A       		.uleb128 0x2a
 6514 18db 01       		.uleb128 0x1
 6515 18dc 53       		.byte	0x53
 6516 18dd 01       		.uleb128 0x1
 6517 18de 38       		.byte	0x38
 6518 18df 2A       		.uleb128 0x2a
 6519 18e0 01       		.uleb128 0x1
 6520 18e1 52       		.byte	0x52
 6521 18e2 01       		.uleb128 0x1
 6522 18e3 3C       		.byte	0x3c
ARM GAS  C:\Users\IVYLIU~1\AppData\Local\Temp\cc0nPDNQ.s 			page 132


 6523 18e4 2A       		.uleb128 0x2a
 6524 18e5 01       		.uleb128 0x1
 6525 18e6 51       		.byte	0x51
 6526 18e7 02       		.uleb128 0x2
 6527 18e8 08       		.byte	0x8
 6528 18e9 96       		.byte	0x96
 6529 18ea 2A       		.uleb128 0x2a
 6530 18eb 01       		.uleb128 0x1
 6531 18ec 50       		.byte	0x50
 6532 18ed 02       		.uleb128 0x2
 6533 18ee 08       		.byte	0x8
 6534 18ef 78       		.byte	0x78
 6535 18f0 00       		.byte	0
 6536 18f1 2F       		.uleb128 0x2f
 6537 18f2 4A040000 		.4byte	.LVL178
 6538 18f6 7E290000 		.4byte	0x297e
 6539 18fa 14190000 		.4byte	0x1914
 6540 18fe 2A       		.uleb128 0x2a
 6541 18ff 01       		.uleb128 0x1
 6542 1900 52       		.byte	0x52
 6543 1901 02       		.uleb128 0x2
 6544 1902 08       		.byte	0x8
 6545 1903 F0       		.byte	0xf0
 6546 1904 2A       		.uleb128 0x2a
 6547 1905 01       		.uleb128 0x1
 6548 1906 51       		.byte	0x51
 6549 1907 02       		.uleb128 0x2
 6550 1908 08       		.byte	0x8
 6551 1909 78       		.byte	0x78
 6552 190a 2A       		.uleb128 0x2a
 6553 190b 01       		.uleb128 0x1
 6554 190c 50       		.byte	0x50
 6555 190d 05       		.uleb128 0x5
 6556 190e 03       		.byte	0x3
 6557 190f 4B010000 		.4byte	.LC38
 6558 1913 00       		.byte	0
 6559 1914 34       		.uleb128 0x34
 6560 1915 50040000 		.4byte	.LVL179
 6561 1919 99280000 		.4byte	0x2899
 6562 191d 2F       		.uleb128 0x2f
 6563 191e 60040000 		.4byte	.LVL180
 6564 1922 85270000 		.4byte	0x2785
 6565 1926 3A190000 		.4byte	0x193a
 6566 192a 2A       		.uleb128 0x2a
 6567 192b 01       		.uleb128 0x1
 6568 192c 51       		.byte	0x51
 6569 192d 05       		.uleb128 0x5
 6570 192e 03       		.byte	0x3
 6571 192f 4F010000 		.4byte	.LC39
 6572 1933 2A       		.uleb128 0x2a
 6573 1934 01       		.uleb128 0x1
 6574 1935 50       		.byte	0x50
 6575 1936 02       		.uleb128 0x2
 6576 1937 74       		.byte	0x74
 6577 1938 00       		.sleb128 0
 6578 1939 00       		.byte	0
 6579 193a 2F       		.uleb128 0x2f
ARM GAS  C:\Users\IVYLIU~1\AppData\Local\Temp\cc0nPDNQ.s 			page 133


 6580 193b 6E040000 		.4byte	.LVL181
 6581 193f 5D290000 		.4byte	0x295d
 6582 1943 5E190000 		.4byte	0x195e
 6583 1947 2A       		.uleb128 0x2a
 6584 1948 01       		.uleb128 0x1
 6585 1949 53       		.byte	0x53
 6586 194a 01       		.uleb128 0x1
 6587 194b 38       		.byte	0x38
 6588 194c 2A       		.uleb128 0x2a
 6589 194d 01       		.uleb128 0x1
 6590 194e 52       		.byte	0x52
 6591 194f 01       		.uleb128 0x1
 6592 1950 3C       		.byte	0x3c
 6593 1951 2A       		.uleb128 0x2a
 6594 1952 01       		.uleb128 0x1
 6595 1953 51       		.byte	0x51
 6596 1954 02       		.uleb128 0x2
 6597 1955 08       		.byte	0x8
 6598 1956 96       		.byte	0x96
 6599 1957 2A       		.uleb128 0x2a
 6600 1958 01       		.uleb128 0x1
 6601 1959 50       		.byte	0x50
 6602 195a 02       		.uleb128 0x2
 6603 195b 08       		.byte	0x8
 6604 195c 78       		.byte	0x78
 6605 195d 00       		.byte	0
 6606 195e 2F       		.uleb128 0x2f
 6607 195f 7A040000 		.4byte	.LVL182
 6608 1963 85270000 		.4byte	0x2785
 6609 1967 7B190000 		.4byte	0x197b
 6610 196b 2A       		.uleb128 0x2a
 6611 196c 01       		.uleb128 0x1
 6612 196d 51       		.byte	0x51
 6613 196e 05       		.uleb128 0x5
 6614 196f 03       		.byte	0x3
 6615 1970 52010000 		.4byte	.LC40
 6616 1974 2A       		.uleb128 0x2a
 6617 1975 01       		.uleb128 0x1
 6618 1976 50       		.byte	0x50
 6619 1977 02       		.uleb128 0x2
 6620 1978 74       		.byte	0x74
 6621 1979 00       		.sleb128 0
 6622 197a 00       		.byte	0
 6623 197b 2F       		.uleb128 0x2f
 6624 197c 88040000 		.4byte	.LVL183
 6625 1980 5D290000 		.4byte	0x295d
 6626 1984 9F190000 		.4byte	0x199f
 6627 1988 2A       		.uleb128 0x2a
 6628 1989 01       		.uleb128 0x1
 6629 198a 53       		.byte	0x53
 6630 198b 01       		.uleb128 0x1
 6631 198c 38       		.byte	0x38
 6632 198d 2A       		.uleb128 0x2a
 6633 198e 01       		.uleb128 0x1
 6634 198f 52       		.byte	0x52
 6635 1990 01       		.uleb128 0x1
 6636 1991 3C       		.byte	0x3c
ARM GAS  C:\Users\IVYLIU~1\AppData\Local\Temp\cc0nPDNQ.s 			page 134


 6637 1992 2A       		.uleb128 0x2a
 6638 1993 01       		.uleb128 0x1
 6639 1994 51       		.byte	0x51
 6640 1995 02       		.uleb128 0x2
 6641 1996 08       		.byte	0x8
 6642 1997 9D       		.byte	0x9d
 6643 1998 2A       		.uleb128 0x2a
 6644 1999 01       		.uleb128 0x1
 6645 199a 50       		.byte	0x50
 6646 199b 02       		.uleb128 0x2
 6647 199c 08       		.byte	0x8
 6648 199d 78       		.byte	0x78
 6649 199e 00       		.byte	0
 6650 199f 2F       		.uleb128 0x2f
 6651 19a0 92040000 		.4byte	.LVL184
 6652 19a4 7E290000 		.4byte	0x297e
 6653 19a8 C2190000 		.4byte	0x19c2
 6654 19ac 2A       		.uleb128 0x2a
 6655 19ad 01       		.uleb128 0x1
 6656 19ae 52       		.byte	0x52
 6657 19af 02       		.uleb128 0x2
 6658 19b0 08       		.byte	0x8
 6659 19b1 F0       		.byte	0xf0
 6660 19b2 2A       		.uleb128 0x2a
 6661 19b3 01       		.uleb128 0x1
 6662 19b4 51       		.byte	0x51
 6663 19b5 02       		.uleb128 0x2
 6664 19b6 08       		.byte	0x8
 6665 19b7 78       		.byte	0x78
 6666 19b8 2A       		.uleb128 0x2a
 6667 19b9 01       		.uleb128 0x1
 6668 19ba 50       		.byte	0x50
 6669 19bb 05       		.uleb128 0x5
 6670 19bc 03       		.byte	0x3
 6671 19bd 52010000 		.4byte	.LC40
 6672 19c1 00       		.byte	0
 6673 19c2 34       		.uleb128 0x34
 6674 19c3 98040000 		.4byte	.LVL185
 6675 19c7 99280000 		.4byte	0x2899
 6676 19cb 2F       		.uleb128 0x2f
 6677 19cc A8040000 		.4byte	.LVL186
 6678 19d0 85270000 		.4byte	0x2785
 6679 19d4 E8190000 		.4byte	0x19e8
 6680 19d8 2A       		.uleb128 0x2a
 6681 19d9 01       		.uleb128 0x1
 6682 19da 51       		.byte	0x51
 6683 19db 05       		.uleb128 0x5
 6684 19dc 03       		.byte	0x3
 6685 19dd 56010000 		.4byte	.LC41
 6686 19e1 2A       		.uleb128 0x2a
 6687 19e2 01       		.uleb128 0x1
 6688 19e3 50       		.byte	0x50
 6689 19e4 02       		.uleb128 0x2
 6690 19e5 74       		.byte	0x74
 6691 19e6 00       		.sleb128 0
 6692 19e7 00       		.byte	0
 6693 19e8 2F       		.uleb128 0x2f
ARM GAS  C:\Users\IVYLIU~1\AppData\Local\Temp\cc0nPDNQ.s 			page 135


 6694 19e9 B6040000 		.4byte	.LVL187
 6695 19ed 5D290000 		.4byte	0x295d
 6696 19f1 0C1A0000 		.4byte	0x1a0c
 6697 19f5 2A       		.uleb128 0x2a
 6698 19f6 01       		.uleb128 0x1
 6699 19f7 53       		.byte	0x53
 6700 19f8 01       		.uleb128 0x1
 6701 19f9 38       		.byte	0x38
 6702 19fa 2A       		.uleb128 0x2a
 6703 19fb 01       		.uleb128 0x1
 6704 19fc 52       		.byte	0x52
 6705 19fd 01       		.uleb128 0x1
 6706 19fe 3C       		.byte	0x3c
 6707 19ff 2A       		.uleb128 0x2a
 6708 1a00 01       		.uleb128 0x1
 6709 1a01 51       		.byte	0x51
 6710 1a02 02       		.uleb128 0x2
 6711 1a03 08       		.byte	0x8
 6712 1a04 9D       		.byte	0x9d
 6713 1a05 2A       		.uleb128 0x2a
 6714 1a06 01       		.uleb128 0x1
 6715 1a07 50       		.byte	0x50
 6716 1a08 02       		.uleb128 0x2
 6717 1a09 08       		.byte	0x8
 6718 1a0a 78       		.byte	0x78
 6719 1a0b 00       		.byte	0
 6720 1a0c 2F       		.uleb128 0x2f
 6721 1a0d C2040000 		.4byte	.LVL188
 6722 1a11 85270000 		.4byte	0x2785
 6723 1a15 291A0000 		.4byte	0x1a29
 6724 1a19 2A       		.uleb128 0x2a
 6725 1a1a 01       		.uleb128 0x1
 6726 1a1b 51       		.byte	0x51
 6727 1a1c 05       		.uleb128 0x5
 6728 1a1d 03       		.byte	0x3
 6729 1a1e 59010000 		.4byte	.LC42
 6730 1a22 2A       		.uleb128 0x2a
 6731 1a23 01       		.uleb128 0x1
 6732 1a24 50       		.byte	0x50
 6733 1a25 02       		.uleb128 0x2
 6734 1a26 74       		.byte	0x74
 6735 1a27 00       		.sleb128 0
 6736 1a28 00       		.byte	0
 6737 1a29 2F       		.uleb128 0x2f
 6738 1a2a D0040000 		.4byte	.LVL189
 6739 1a2e 5D290000 		.4byte	0x295d
 6740 1a32 4D1A0000 		.4byte	0x1a4d
 6741 1a36 2A       		.uleb128 0x2a
 6742 1a37 01       		.uleb128 0x1
 6743 1a38 53       		.byte	0x53
 6744 1a39 01       		.uleb128 0x1
 6745 1a3a 38       		.byte	0x38
 6746 1a3b 2A       		.uleb128 0x2a
 6747 1a3c 01       		.uleb128 0x1
 6748 1a3d 52       		.byte	0x52
 6749 1a3e 01       		.uleb128 0x1
 6750 1a3f 3C       		.byte	0x3c
ARM GAS  C:\Users\IVYLIU~1\AppData\Local\Temp\cc0nPDNQ.s 			page 136


 6751 1a40 2A       		.uleb128 0x2a
 6752 1a41 01       		.uleb128 0x1
 6753 1a42 51       		.byte	0x51
 6754 1a43 02       		.uleb128 0x2
 6755 1a44 08       		.byte	0x8
 6756 1a45 A5       		.byte	0xa5
 6757 1a46 2A       		.uleb128 0x2a
 6758 1a47 01       		.uleb128 0x1
 6759 1a48 50       		.byte	0x50
 6760 1a49 02       		.uleb128 0x2
 6761 1a4a 08       		.byte	0x8
 6762 1a4b 78       		.byte	0x78
 6763 1a4c 00       		.byte	0
 6764 1a4d 2F       		.uleb128 0x2f
 6765 1a4e DC040000 		.4byte	.LVL190
 6766 1a52 85270000 		.4byte	0x2785
 6767 1a56 6A1A0000 		.4byte	0x1a6a
 6768 1a5a 2A       		.uleb128 0x2a
 6769 1a5b 01       		.uleb128 0x1
 6770 1a5c 51       		.byte	0x51
 6771 1a5d 05       		.uleb128 0x5
 6772 1a5e 03       		.byte	0x3
 6773 1a5f 5C010000 		.4byte	.LC43
 6774 1a63 2A       		.uleb128 0x2a
 6775 1a64 01       		.uleb128 0x1
 6776 1a65 50       		.byte	0x50
 6777 1a66 02       		.uleb128 0x2
 6778 1a67 74       		.byte	0x74
 6779 1a68 00       		.sleb128 0
 6780 1a69 00       		.byte	0
 6781 1a6a 2F       		.uleb128 0x2f
 6782 1a6b EA040000 		.4byte	.LVL191
 6783 1a6f 5D290000 		.4byte	0x295d
 6784 1a73 8E1A0000 		.4byte	0x1a8e
 6785 1a77 2A       		.uleb128 0x2a
 6786 1a78 01       		.uleb128 0x1
 6787 1a79 53       		.byte	0x53
 6788 1a7a 01       		.uleb128 0x1
 6789 1a7b 38       		.byte	0x38
 6790 1a7c 2A       		.uleb128 0x2a
 6791 1a7d 01       		.uleb128 0x1
 6792 1a7e 52       		.byte	0x52
 6793 1a7f 01       		.uleb128 0x1
 6794 1a80 3C       		.byte	0x3c
 6795 1a81 2A       		.uleb128 0x2a
 6796 1a82 01       		.uleb128 0x1
 6797 1a83 51       		.byte	0x51
 6798 1a84 02       		.uleb128 0x2
 6799 1a85 08       		.byte	0x8
 6800 1a86 AC       		.byte	0xac
 6801 1a87 2A       		.uleb128 0x2a
 6802 1a88 01       		.uleb128 0x1
 6803 1a89 50       		.byte	0x50
 6804 1a8a 02       		.uleb128 0x2
 6805 1a8b 08       		.byte	0x8
 6806 1a8c 78       		.byte	0x78
 6807 1a8d 00       		.byte	0
ARM GAS  C:\Users\IVYLIU~1\AppData\Local\Temp\cc0nPDNQ.s 			page 137


 6808 1a8e 2F       		.uleb128 0x2f
 6809 1a8f F4040000 		.4byte	.LVL192
 6810 1a93 7E290000 		.4byte	0x297e
 6811 1a97 B11A0000 		.4byte	0x1ab1
 6812 1a9b 2A       		.uleb128 0x2a
 6813 1a9c 01       		.uleb128 0x1
 6814 1a9d 52       		.byte	0x52
 6815 1a9e 02       		.uleb128 0x2
 6816 1a9f 08       		.byte	0x8
 6817 1aa0 F0       		.byte	0xf0
 6818 1aa1 2A       		.uleb128 0x2a
 6819 1aa2 01       		.uleb128 0x1
 6820 1aa3 51       		.byte	0x51
 6821 1aa4 02       		.uleb128 0x2
 6822 1aa5 08       		.byte	0x8
 6823 1aa6 78       		.byte	0x78
 6824 1aa7 2A       		.uleb128 0x2a
 6825 1aa8 01       		.uleb128 0x1
 6826 1aa9 50       		.byte	0x50
 6827 1aaa 05       		.uleb128 0x5
 6828 1aab 03       		.byte	0x3
 6829 1aac 5C010000 		.4byte	.LC43
 6830 1ab0 00       		.byte	0
 6831 1ab1 34       		.uleb128 0x34
 6832 1ab2 FA040000 		.4byte	.LVL193
 6833 1ab6 99280000 		.4byte	0x2899
 6834 1aba 2F       		.uleb128 0x2f
 6835 1abb 0A050000 		.4byte	.LVL194
 6836 1abf 85270000 		.4byte	0x2785
 6837 1ac3 D71A0000 		.4byte	0x1ad7
 6838 1ac7 2A       		.uleb128 0x2a
 6839 1ac8 01       		.uleb128 0x1
 6840 1ac9 51       		.byte	0x51
 6841 1aca 05       		.uleb128 0x5
 6842 1acb 03       		.byte	0x3
 6843 1acc 60010000 		.4byte	.LC44
 6844 1ad0 2A       		.uleb128 0x2a
 6845 1ad1 01       		.uleb128 0x1
 6846 1ad2 50       		.byte	0x50
 6847 1ad3 02       		.uleb128 0x2
 6848 1ad4 74       		.byte	0x74
 6849 1ad5 00       		.sleb128 0
 6850 1ad6 00       		.byte	0
 6851 1ad7 2F       		.uleb128 0x2f
 6852 1ad8 18050000 		.4byte	.LVL195
 6853 1adc 5D290000 		.4byte	0x295d
 6854 1ae0 FB1A0000 		.4byte	0x1afb
 6855 1ae4 2A       		.uleb128 0x2a
 6856 1ae5 01       		.uleb128 0x1
 6857 1ae6 53       		.byte	0x53
 6858 1ae7 01       		.uleb128 0x1
 6859 1ae8 38       		.byte	0x38
 6860 1ae9 2A       		.uleb128 0x2a
 6861 1aea 01       		.uleb128 0x1
 6862 1aeb 52       		.byte	0x52
 6863 1aec 01       		.uleb128 0x1
 6864 1aed 3C       		.byte	0x3c
ARM GAS  C:\Users\IVYLIU~1\AppData\Local\Temp\cc0nPDNQ.s 			page 138


 6865 1aee 2A       		.uleb128 0x2a
 6866 1aef 01       		.uleb128 0x1
 6867 1af0 51       		.byte	0x51
 6868 1af1 02       		.uleb128 0x2
 6869 1af2 08       		.byte	0x8
 6870 1af3 AC       		.byte	0xac
 6871 1af4 2A       		.uleb128 0x2a
 6872 1af5 01       		.uleb128 0x1
 6873 1af6 50       		.byte	0x50
 6874 1af7 02       		.uleb128 0x2
 6875 1af8 08       		.byte	0x8
 6876 1af9 78       		.byte	0x78
 6877 1afa 00       		.byte	0
 6878 1afb 2F       		.uleb128 0x2f
 6879 1afc 24050000 		.4byte	.LVL196
 6880 1b00 85270000 		.4byte	0x2785
 6881 1b04 181B0000 		.4byte	0x1b18
 6882 1b08 2A       		.uleb128 0x2a
 6883 1b09 01       		.uleb128 0x1
 6884 1b0a 51       		.byte	0x51
 6885 1b0b 05       		.uleb128 0x5
 6886 1b0c 03       		.byte	0x3
 6887 1b0d 63010000 		.4byte	.LC45
 6888 1b11 2A       		.uleb128 0x2a
 6889 1b12 01       		.uleb128 0x1
 6890 1b13 50       		.byte	0x50
 6891 1b14 02       		.uleb128 0x2
 6892 1b15 74       		.byte	0x74
 6893 1b16 00       		.sleb128 0
 6894 1b17 00       		.byte	0
 6895 1b18 2F       		.uleb128 0x2f
 6896 1b19 32050000 		.4byte	.LVL197
 6897 1b1d 5D290000 		.4byte	0x295d
 6898 1b21 3C1B0000 		.4byte	0x1b3c
 6899 1b25 2A       		.uleb128 0x2a
 6900 1b26 01       		.uleb128 0x1
 6901 1b27 53       		.byte	0x53
 6902 1b28 01       		.uleb128 0x1
 6903 1b29 38       		.byte	0x38
 6904 1b2a 2A       		.uleb128 0x2a
 6905 1b2b 01       		.uleb128 0x1
 6906 1b2c 52       		.byte	0x52
 6907 1b2d 01       		.uleb128 0x1
 6908 1b2e 3C       		.byte	0x3c
 6909 1b2f 2A       		.uleb128 0x2a
 6910 1b30 01       		.uleb128 0x1
 6911 1b31 51       		.byte	0x51
 6912 1b32 02       		.uleb128 0x2
 6913 1b33 08       		.byte	0x8
 6914 1b34 B4       		.byte	0xb4
 6915 1b35 2A       		.uleb128 0x2a
 6916 1b36 01       		.uleb128 0x1
 6917 1b37 50       		.byte	0x50
 6918 1b38 02       		.uleb128 0x2
 6919 1b39 08       		.byte	0x8
 6920 1b3a 78       		.byte	0x78
 6921 1b3b 00       		.byte	0
ARM GAS  C:\Users\IVYLIU~1\AppData\Local\Temp\cc0nPDNQ.s 			page 139


 6922 1b3c 2F       		.uleb128 0x2f
 6923 1b3d 3E050000 		.4byte	.LVL198
 6924 1b41 85270000 		.4byte	0x2785
 6925 1b45 591B0000 		.4byte	0x1b59
 6926 1b49 2A       		.uleb128 0x2a
 6927 1b4a 01       		.uleb128 0x1
 6928 1b4b 51       		.byte	0x51
 6929 1b4c 05       		.uleb128 0x5
 6930 1b4d 03       		.byte	0x3
 6931 1b4e 67010000 		.4byte	.LC46
 6932 1b52 2A       		.uleb128 0x2a
 6933 1b53 01       		.uleb128 0x1
 6934 1b54 50       		.byte	0x50
 6935 1b55 02       		.uleb128 0x2
 6936 1b56 74       		.byte	0x74
 6937 1b57 00       		.sleb128 0
 6938 1b58 00       		.byte	0
 6939 1b59 2F       		.uleb128 0x2f
 6940 1b5a 4C050000 		.4byte	.LVL199
 6941 1b5e 5D290000 		.4byte	0x295d
 6942 1b62 7D1B0000 		.4byte	0x1b7d
 6943 1b66 2A       		.uleb128 0x2a
 6944 1b67 01       		.uleb128 0x1
 6945 1b68 53       		.byte	0x53
 6946 1b69 01       		.uleb128 0x1
 6947 1b6a 38       		.byte	0x38
 6948 1b6b 2A       		.uleb128 0x2a
 6949 1b6c 01       		.uleb128 0x1
 6950 1b6d 52       		.byte	0x52
 6951 1b6e 01       		.uleb128 0x1
 6952 1b6f 3C       		.byte	0x3c
 6953 1b70 2A       		.uleb128 0x2a
 6954 1b71 01       		.uleb128 0x1
 6955 1b72 51       		.byte	0x51
 6956 1b73 02       		.uleb128 0x2
 6957 1b74 08       		.byte	0x8
 6958 1b75 B4       		.byte	0xb4
 6959 1b76 2A       		.uleb128 0x2a
 6960 1b77 01       		.uleb128 0x1
 6961 1b78 50       		.byte	0x50
 6962 1b79 02       		.uleb128 0x2
 6963 1b7a 08       		.byte	0x8
 6964 1b7b 78       		.byte	0x78
 6965 1b7c 00       		.byte	0
 6966 1b7d 2F       		.uleb128 0x2f
 6967 1b7e 58050000 		.4byte	.LVL200
 6968 1b82 85270000 		.4byte	0x2785
 6969 1b86 9A1B0000 		.4byte	0x1b9a
 6970 1b8a 2A       		.uleb128 0x2a
 6971 1b8b 01       		.uleb128 0x1
 6972 1b8c 51       		.byte	0x51
 6973 1b8d 05       		.uleb128 0x5
 6974 1b8e 03       		.byte	0x3
 6975 1b8f 6A010000 		.4byte	.LC47
 6976 1b93 2A       		.uleb128 0x2a
 6977 1b94 01       		.uleb128 0x1
 6978 1b95 50       		.byte	0x50
ARM GAS  C:\Users\IVYLIU~1\AppData\Local\Temp\cc0nPDNQ.s 			page 140


 6979 1b96 02       		.uleb128 0x2
 6980 1b97 74       		.byte	0x74
 6981 1b98 00       		.sleb128 0
 6982 1b99 00       		.byte	0
 6983 1b9a 2F       		.uleb128 0x2f
 6984 1b9b 66050000 		.4byte	.LVL201
 6985 1b9f 5D290000 		.4byte	0x295d
 6986 1ba3 BE1B0000 		.4byte	0x1bbe
 6987 1ba7 2A       		.uleb128 0x2a
 6988 1ba8 01       		.uleb128 0x1
 6989 1ba9 53       		.byte	0x53
 6990 1baa 01       		.uleb128 0x1
 6991 1bab 38       		.byte	0x38
 6992 1bac 2A       		.uleb128 0x2a
 6993 1bad 01       		.uleb128 0x1
 6994 1bae 52       		.byte	0x52
 6995 1baf 01       		.uleb128 0x1
 6996 1bb0 3C       		.byte	0x3c
 6997 1bb1 2A       		.uleb128 0x2a
 6998 1bb2 01       		.uleb128 0x1
 6999 1bb3 51       		.byte	0x51
 7000 1bb4 02       		.uleb128 0x2
 7001 1bb5 08       		.byte	0x8
 7002 1bb6 BB       		.byte	0xbb
 7003 1bb7 2A       		.uleb128 0x2a
 7004 1bb8 01       		.uleb128 0x1
 7005 1bb9 50       		.byte	0x50
 7006 1bba 02       		.uleb128 0x2
 7007 1bbb 08       		.byte	0x8
 7008 1bbc 78       		.byte	0x78
 7009 1bbd 00       		.byte	0
 7010 1bbe 2F       		.uleb128 0x2f
 7011 1bbf 70050000 		.4byte	.LVL202
 7012 1bc3 7E290000 		.4byte	0x297e
 7013 1bc7 E11B0000 		.4byte	0x1be1
 7014 1bcb 2A       		.uleb128 0x2a
 7015 1bcc 01       		.uleb128 0x1
 7016 1bcd 52       		.byte	0x52
 7017 1bce 02       		.uleb128 0x2
 7018 1bcf 08       		.byte	0x8
 7019 1bd0 F0       		.byte	0xf0
 7020 1bd1 2A       		.uleb128 0x2a
 7021 1bd2 01       		.uleb128 0x1
 7022 1bd3 51       		.byte	0x51
 7023 1bd4 02       		.uleb128 0x2
 7024 1bd5 08       		.byte	0x8
 7025 1bd6 78       		.byte	0x78
 7026 1bd7 2A       		.uleb128 0x2a
 7027 1bd8 01       		.uleb128 0x1
 7028 1bd9 50       		.byte	0x50
 7029 1bda 05       		.uleb128 0x5
 7030 1bdb 03       		.byte	0x3
 7031 1bdc 6A010000 		.4byte	.LC47
 7032 1be0 00       		.byte	0
 7033 1be1 34       		.uleb128 0x34
 7034 1be2 76050000 		.4byte	.LVL203
 7035 1be6 99280000 		.4byte	0x2899
ARM GAS  C:\Users\IVYLIU~1\AppData\Local\Temp\cc0nPDNQ.s 			page 141


 7036 1bea 2F       		.uleb128 0x2f
 7037 1beb 86050000 		.4byte	.LVL204
 7038 1bef 85270000 		.4byte	0x2785
 7039 1bf3 071C0000 		.4byte	0x1c07
 7040 1bf7 2A       		.uleb128 0x2a
 7041 1bf8 01       		.uleb128 0x1
 7042 1bf9 51       		.byte	0x51
 7043 1bfa 05       		.uleb128 0x5
 7044 1bfb 03       		.byte	0x3
 7045 1bfc 6E010000 		.4byte	.LC48
 7046 1c00 2A       		.uleb128 0x2a
 7047 1c01 01       		.uleb128 0x1
 7048 1c02 50       		.byte	0x50
 7049 1c03 02       		.uleb128 0x2
 7050 1c04 74       		.byte	0x74
 7051 1c05 00       		.sleb128 0
 7052 1c06 00       		.byte	0
 7053 1c07 2F       		.uleb128 0x2f
 7054 1c08 94050000 		.4byte	.LVL205
 7055 1c0c 5D290000 		.4byte	0x295d
 7056 1c10 2B1C0000 		.4byte	0x1c2b
 7057 1c14 2A       		.uleb128 0x2a
 7058 1c15 01       		.uleb128 0x1
 7059 1c16 53       		.byte	0x53
 7060 1c17 01       		.uleb128 0x1
 7061 1c18 38       		.byte	0x38
 7062 1c19 2A       		.uleb128 0x2a
 7063 1c1a 01       		.uleb128 0x1
 7064 1c1b 52       		.byte	0x52
 7065 1c1c 01       		.uleb128 0x1
 7066 1c1d 3C       		.byte	0x3c
 7067 1c1e 2A       		.uleb128 0x2a
 7068 1c1f 01       		.uleb128 0x1
 7069 1c20 51       		.byte	0x51
 7070 1c21 02       		.uleb128 0x2
 7071 1c22 08       		.byte	0x8
 7072 1c23 BB       		.byte	0xbb
 7073 1c24 2A       		.uleb128 0x2a
 7074 1c25 01       		.uleb128 0x1
 7075 1c26 50       		.byte	0x50
 7076 1c27 02       		.uleb128 0x2
 7077 1c28 08       		.byte	0x8
 7078 1c29 78       		.byte	0x78
 7079 1c2a 00       		.byte	0
 7080 1c2b 2F       		.uleb128 0x2f
 7081 1c2c A0050000 		.4byte	.LVL206
 7082 1c30 85270000 		.4byte	0x2785
 7083 1c34 481C0000 		.4byte	0x1c48
 7084 1c38 2A       		.uleb128 0x2a
 7085 1c39 01       		.uleb128 0x1
 7086 1c3a 51       		.byte	0x51
 7087 1c3b 05       		.uleb128 0x5
 7088 1c3c 03       		.byte	0x3
 7089 1c3d 71010000 		.4byte	.LC49
 7090 1c41 2A       		.uleb128 0x2a
 7091 1c42 01       		.uleb128 0x1
 7092 1c43 50       		.byte	0x50
ARM GAS  C:\Users\IVYLIU~1\AppData\Local\Temp\cc0nPDNQ.s 			page 142


 7093 1c44 02       		.uleb128 0x2
 7094 1c45 74       		.byte	0x74
 7095 1c46 00       		.sleb128 0
 7096 1c47 00       		.byte	0
 7097 1c48 2F       		.uleb128 0x2f
 7098 1c49 AE050000 		.4byte	.LVL207
 7099 1c4d 5D290000 		.4byte	0x295d
 7100 1c51 6C1C0000 		.4byte	0x1c6c
 7101 1c55 2A       		.uleb128 0x2a
 7102 1c56 01       		.uleb128 0x1
 7103 1c57 53       		.byte	0x53
 7104 1c58 01       		.uleb128 0x1
 7105 1c59 38       		.byte	0x38
 7106 1c5a 2A       		.uleb128 0x2a
 7107 1c5b 01       		.uleb128 0x1
 7108 1c5c 52       		.byte	0x52
 7109 1c5d 01       		.uleb128 0x1
 7110 1c5e 3C       		.byte	0x3c
 7111 1c5f 2A       		.uleb128 0x2a
 7112 1c60 01       		.uleb128 0x1
 7113 1c61 51       		.byte	0x51
 7114 1c62 02       		.uleb128 0x2
 7115 1c63 08       		.byte	0x8
 7116 1c64 C3       		.byte	0xc3
 7117 1c65 2A       		.uleb128 0x2a
 7118 1c66 01       		.uleb128 0x1
 7119 1c67 50       		.byte	0x50
 7120 1c68 02       		.uleb128 0x2
 7121 1c69 08       		.byte	0x8
 7122 1c6a 78       		.byte	0x78
 7123 1c6b 00       		.byte	0
 7124 1c6c 2B       		.uleb128 0x2b
 7125 1c6d C0050000 		.4byte	.LVL209
 7126 1c71 7E290000 		.4byte	0x297e
 7127 1c75 00       		.byte	0
 7128 1c76 26       		.uleb128 0x26
 7129 1c77 62060000 		.4byte	.LASF129
 7130 1c7b 01       		.byte	0x1
 7131 1c7c D902     		.2byte	0x2d9
 7132 1c7e 00000000 		.4byte	.LFB136
 7133 1c82 28000000 		.4byte	.LFE136-.LFB136
 7134 1c86 01       		.uleb128 0x1
 7135 1c87 9C       		.byte	0x9c
 7136 1c88 E31C0000 		.4byte	0x1ce3
 7137 1c8c 28       		.uleb128 0x28
 7138 1c8d 6900     		.ascii	"i\000"
 7139 1c8f 01       		.byte	0x1
 7140 1c90 DA02     		.2byte	0x2da
 7141 1c92 90000000 		.4byte	0x90
 7142 1c96 09030000 		.4byte	.LLST16
 7143 1c9a 2F       		.uleb128 0x2f
 7144 1c9b 10000000 		.4byte	.LVL212
 7145 1c9f 9A290000 		.4byte	0x299a
 7146 1ca3 BF1C0000 		.4byte	0x1cbf
 7147 1ca7 2A       		.uleb128 0x2a
 7148 1ca8 01       		.uleb128 0x1
 7149 1ca9 53       		.byte	0x53
ARM GAS  C:\Users\IVYLIU~1\AppData\Local\Temp\cc0nPDNQ.s 			page 143


 7150 1caa 02       		.uleb128 0x2
 7151 1cab 74       		.byte	0x74
 7152 1cac 01       		.sleb128 1
 7153 1cad 2A       		.uleb128 0x2a
 7154 1cae 01       		.uleb128 0x1
 7155 1caf 52       		.byte	0x52
 7156 1cb0 02       		.uleb128 0x2
 7157 1cb1 08       		.byte	0x8
 7158 1cb2 DC       		.byte	0xdc
 7159 1cb3 2A       		.uleb128 0x2a
 7160 1cb4 01       		.uleb128 0x1
 7161 1cb5 51       		.byte	0x51
 7162 1cb6 02       		.uleb128 0x2
 7163 1cb7 74       		.byte	0x74
 7164 1cb8 00       		.sleb128 0
 7165 1cb9 2A       		.uleb128 0x2a
 7166 1cba 01       		.uleb128 0x1
 7167 1cbb 50       		.byte	0x50
 7168 1cbc 01       		.uleb128 0x1
 7169 1cbd 44       		.byte	0x44
 7170 1cbe 00       		.byte	0
 7171 1cbf 29       		.uleb128 0x29
 7172 1cc0 22000000 		.4byte	.LVL213
 7173 1cc4 9A290000 		.4byte	0x299a
 7174 1cc8 2A       		.uleb128 0x2a
 7175 1cc9 01       		.uleb128 0x1
 7176 1cca 53       		.byte	0x53
 7177 1ccb 03       		.uleb128 0x3
 7178 1ccc 74       		.byte	0x74
 7179 1ccd D600     		.sleb128 86
 7180 1ccf 2A       		.uleb128 0x2a
 7181 1cd0 01       		.uleb128 0x1
 7182 1cd1 52       		.byte	0x52
 7183 1cd2 02       		.uleb128 0x2
 7184 1cd3 08       		.byte	0x8
 7185 1cd4 DC       		.byte	0xdc
 7186 1cd5 2A       		.uleb128 0x2a
 7187 1cd6 01       		.uleb128 0x1
 7188 1cd7 51       		.byte	0x51
 7189 1cd8 03       		.uleb128 0x3
 7190 1cd9 74       		.byte	0x74
 7191 1cda D500     		.sleb128 85
 7192 1cdc 2A       		.uleb128 0x2a
 7193 1cdd 01       		.uleb128 0x1
 7194 1cde 50       		.byte	0x50
 7195 1cdf 01       		.uleb128 0x1
 7196 1ce0 44       		.byte	0x44
 7197 1ce1 00       		.byte	0
 7198 1ce2 00       		.byte	0
 7199 1ce3 38       		.uleb128 0x38
 7200 1ce4 AD090000 		.4byte	.LASF130
 7201 1ce8 01       		.byte	0x1
 7202 1ce9 FD       		.byte	0xfd
 7203 1cea 00000000 		.4byte	.LFB124
 7204 1cee 80000000 		.4byte	.LFE124-.LFB124
 7205 1cf2 01       		.uleb128 0x1
 7206 1cf3 9C       		.byte	0x9c
ARM GAS  C:\Users\IVYLIU~1\AppData\Local\Temp\cc0nPDNQ.s 			page 144


 7207 1cf4 091E0000 		.4byte	0x1e09
 7208 1cf8 2E       		.uleb128 0x2e
 7209 1cf9 D9050000 		.4byte	.LASF118
 7210 1cfd 01       		.byte	0x1
 7211 1cfe 0401     		.2byte	0x104
 7212 1d00 BB090000 		.4byte	0x9bb
 7213 1d04 1D030000 		.4byte	.LLST17
 7214 1d08 39       		.uleb128 0x39
 7215 1d09 72070000 		.4byte	.LASF120
 7216 1d0d 01       		.byte	0x1
 7217 1d0e 0501     		.2byte	0x105
 7218 1d10 10010000 		.4byte	0x110
 7219 1d14 06       		.uleb128 0x6
 7220 1d15 03       		.byte	0x3
 7221 1d16 00000000 		.4byte	.LC0
 7222 1d1a 9F       		.byte	0x9f
 7223 1d1b 2F       		.uleb128 0x2f
 7224 1d1c 0A000000 		.4byte	.LVL214
 7225 1d20 75280000 		.4byte	0x2875
 7226 1d24 2F1D0000 		.4byte	0x1d2f
 7227 1d28 2A       		.uleb128 0x2a
 7228 1d29 01       		.uleb128 0x1
 7229 1d2a 50       		.byte	0x50
 7230 1d2b 02       		.uleb128 0x2
 7231 1d2c 09       		.byte	0x9
 7232 1d2d FF       		.byte	0xff
 7233 1d2e 00       		.byte	0
 7234 1d2f 2F       		.uleb128 0x2f
 7235 1d30 12000000 		.4byte	.LVL215
 7236 1d34 87280000 		.4byte	0x2887
 7237 1d38 451D0000 		.4byte	0x1d45
 7238 1d3c 2A       		.uleb128 0x2a
 7239 1d3d 01       		.uleb128 0x1
 7240 1d3e 50       		.byte	0x50
 7241 1d3f 04       		.uleb128 0x4
 7242 1d40 40       		.byte	0x40
 7243 1d41 44       		.byte	0x44
 7244 1d42 24       		.byte	0x24
 7245 1d43 1F       		.byte	0x1f
 7246 1d44 00       		.byte	0
 7247 1d45 34       		.uleb128 0x34
 7248 1d46 16000000 		.4byte	.LVL216
 7249 1d4a DB280000 		.4byte	0x28db
 7250 1d4e 34       		.uleb128 0x34
 7251 1d4f 24000000 		.4byte	.LVL219
 7252 1d53 DB280000 		.4byte	0x28db
 7253 1d57 34       		.uleb128 0x34
 7254 1d58 28000000 		.4byte	.LVL220
 7255 1d5c 761C0000 		.4byte	0x1c76
 7256 1d60 34       		.uleb128 0x34
 7257 1d61 30000000 		.4byte	.LVL221
 7258 1d65 450F0000 		.4byte	0xf45
 7259 1d69 2F       		.uleb128 0x2f
 7260 1d6a 3E000000 		.4byte	.LVL222
 7261 1d6e 3A080000 		.4byte	0x83a
 7262 1d72 881D0000 		.4byte	0x1d88
 7263 1d76 2A       		.uleb128 0x2a
ARM GAS  C:\Users\IVYLIU~1\AppData\Local\Temp\cc0nPDNQ.s 			page 145


 7264 1d77 01       		.uleb128 0x1
 7265 1d78 53       		.byte	0x53
 7266 1d79 02       		.uleb128 0x2
 7267 1d7a 08       		.byte	0x8
 7268 1d7b 64       		.byte	0x64
 7269 1d7c 2A       		.uleb128 0x2a
 7270 1d7d 01       		.uleb128 0x1
 7271 1d7e 52       		.byte	0x52
 7272 1d7f 02       		.uleb128 0x2
 7273 1d80 08       		.byte	0x8
 7274 1d81 64       		.byte	0x64
 7275 1d82 2A       		.uleb128 0x2a
 7276 1d83 01       		.uleb128 0x1
 7277 1d84 51       		.byte	0x51
 7278 1d85 01       		.uleb128 0x1
 7279 1d86 30       		.byte	0x30
 7280 1d87 00       		.byte	0
 7281 1d88 2F       		.uleb128 0x2f
 7282 1d89 4C000000 		.4byte	.LVL223
 7283 1d8d 3A080000 		.4byte	0x83a
 7284 1d91 A71D0000 		.4byte	0x1da7
 7285 1d95 2A       		.uleb128 0x2a
 7286 1d96 01       		.uleb128 0x1
 7287 1d97 53       		.byte	0x53
 7288 1d98 02       		.uleb128 0x2
 7289 1d99 08       		.byte	0x8
 7290 1d9a 64       		.byte	0x64
 7291 1d9b 2A       		.uleb128 0x2a
 7292 1d9c 01       		.uleb128 0x1
 7293 1d9d 52       		.byte	0x52
 7294 1d9e 02       		.uleb128 0x2
 7295 1d9f 08       		.byte	0x8
 7296 1da0 64       		.byte	0x64
 7297 1da1 2A       		.uleb128 0x2a
 7298 1da2 01       		.uleb128 0x1
 7299 1da3 51       		.byte	0x51
 7300 1da4 01       		.uleb128 0x1
 7301 1da5 30       		.byte	0x30
 7302 1da6 00       		.byte	0
 7303 1da7 34       		.uleb128 0x34
 7304 1da8 50000000 		.4byte	.LVL224
 7305 1dac 78270000 		.4byte	0x2778
 7306 1db0 2F       		.uleb128 0x2f
 7307 1db1 58000000 		.4byte	.LVL225
 7308 1db5 39280000 		.4byte	0x2839
 7309 1db9 C51D0000 		.4byte	0x1dc5
 7310 1dbd 2A       		.uleb128 0x2a
 7311 1dbe 01       		.uleb128 0x1
 7312 1dbf 50       		.byte	0x50
 7313 1dc0 03       		.uleb128 0x3
 7314 1dc1 0A       		.byte	0xa
 7315 1dc2 E803     		.2byte	0x3e8
 7316 1dc4 00       		.byte	0
 7317 1dc5 2F       		.uleb128 0x2f
 7318 1dc6 66000000 		.4byte	.LVL226
 7319 1dca 3A080000 		.4byte	0x83a
 7320 1dce E21D0000 		.4byte	0x1de2
ARM GAS  C:\Users\IVYLIU~1\AppData\Local\Temp\cc0nPDNQ.s 			page 146


 7321 1dd2 2A       		.uleb128 0x2a
 7322 1dd3 01       		.uleb128 0x1
 7323 1dd4 53       		.byte	0x53
 7324 1dd5 01       		.uleb128 0x1
 7325 1dd6 30       		.byte	0x30
 7326 1dd7 2A       		.uleb128 0x2a
 7327 1dd8 01       		.uleb128 0x1
 7328 1dd9 52       		.byte	0x52
 7329 1dda 01       		.uleb128 0x1
 7330 1ddb 30       		.byte	0x30
 7331 1ddc 2A       		.uleb128 0x2a
 7332 1ddd 01       		.uleb128 0x1
 7333 1dde 51       		.byte	0x51
 7334 1ddf 01       		.uleb128 0x1
 7335 1de0 30       		.byte	0x30
 7336 1de1 00       		.byte	0
 7337 1de2 2F       		.uleb128 0x2f
 7338 1de3 74000000 		.4byte	.LVL227
 7339 1de7 3A080000 		.4byte	0x83a
 7340 1deb FF1D0000 		.4byte	0x1dff
 7341 1def 2A       		.uleb128 0x2a
 7342 1df0 01       		.uleb128 0x1
 7343 1df1 53       		.byte	0x53
 7344 1df2 01       		.uleb128 0x1
 7345 1df3 30       		.byte	0x30
 7346 1df4 2A       		.uleb128 0x2a
 7347 1df5 01       		.uleb128 0x1
 7348 1df6 52       		.byte	0x52
 7349 1df7 01       		.uleb128 0x1
 7350 1df8 30       		.byte	0x30
 7351 1df9 2A       		.uleb128 0x2a
 7352 1dfa 01       		.uleb128 0x1
 7353 1dfb 51       		.byte	0x51
 7354 1dfc 01       		.uleb128 0x1
 7355 1dfd 30       		.byte	0x30
 7356 1dfe 00       		.byte	0
 7357 1dff 34       		.uleb128 0x34
 7358 1e00 78000000 		.4byte	.LVL228
 7359 1e04 78270000 		.4byte	0x2778
 7360 1e08 00       		.byte	0
 7361 1e09 26       		.uleb128 0x26
 7362 1e0a CB030000 		.4byte	.LASF131
 7363 1e0e 01       		.byte	0x1
 7364 1e0f 1A01     		.2byte	0x11a
 7365 1e11 00000000 		.4byte	.LFB125
 7366 1e15 38000000 		.4byte	.LFE125-.LFB125
 7367 1e19 01       		.uleb128 0x1
 7368 1e1a 9C       		.byte	0x9c
 7369 1e1b 771E0000 		.4byte	0x1e77
 7370 1e1f 2F       		.uleb128 0x2f
 7371 1e20 0A000000 		.4byte	.LVL231
 7372 1e24 75280000 		.4byte	0x2875
 7373 1e28 331E0000 		.4byte	0x1e33
 7374 1e2c 2A       		.uleb128 0x2a
 7375 1e2d 01       		.uleb128 0x1
 7376 1e2e 50       		.byte	0x50
 7377 1e2f 02       		.uleb128 0x2
ARM GAS  C:\Users\IVYLIU~1\AppData\Local\Temp\cc0nPDNQ.s 			page 147


 7378 1e30 09       		.byte	0x9
 7379 1e31 FF       		.byte	0xff
 7380 1e32 00       		.byte	0
 7381 1e33 2F       		.uleb128 0x2f
 7382 1e34 12000000 		.4byte	.LVL232
 7383 1e38 87280000 		.4byte	0x2887
 7384 1e3c 491E0000 		.4byte	0x1e49
 7385 1e40 2A       		.uleb128 0x2a
 7386 1e41 01       		.uleb128 0x1
 7387 1e42 50       		.byte	0x50
 7388 1e43 04       		.uleb128 0x4
 7389 1e44 40       		.byte	0x40
 7390 1e45 44       		.byte	0x44
 7391 1e46 24       		.byte	0x24
 7392 1e47 1F       		.byte	0x1f
 7393 1e48 00       		.byte	0
 7394 1e49 34       		.uleb128 0x34
 7395 1e4a 16000000 		.4byte	.LVL233
 7396 1e4e DB280000 		.4byte	0x28db
 7397 1e52 34       		.uleb128 0x34
 7398 1e53 1A000000 		.4byte	.LVL234
 7399 1e57 761C0000 		.4byte	0x1c76
 7400 1e5b 34       		.uleb128 0x34
 7401 1e5c 1E000000 		.4byte	.LVL235
 7402 1e60 04080000 		.4byte	0x804
 7403 1e64 34       		.uleb128 0x34
 7404 1e65 2A000000 		.4byte	.LVL236
 7405 1e69 DE0A0000 		.4byte	0xade
 7406 1e6d 2B       		.uleb128 0x2b
 7407 1e6e 32000000 		.4byte	.LVL237
 7408 1e72 450F0000 		.4byte	0xf45
 7409 1e76 00       		.byte	0
 7410 1e77 26       		.uleb128 0x26
 7411 1e78 E2050000 		.4byte	.LASF132
 7412 1e7c 01       		.byte	0x1
 7413 1e7d 8601     		.2byte	0x186
 7414 1e7f 00000000 		.4byte	.LFB131
 7415 1e83 88010000 		.4byte	.LFE131-.LFB131
 7416 1e87 01       		.uleb128 0x1
 7417 1e88 9C       		.byte	0x9c
 7418 1e89 F1210000 		.4byte	0x21f1
 7419 1e8d 2C       		.uleb128 0x2c
 7420 1e8e 0A030000 		.4byte	.LASF123
 7421 1e92 01       		.byte	0x1
 7422 1e93 8601     		.2byte	0x186
 7423 1e95 90000000 		.4byte	0x90
 7424 1e99 69030000 		.4byte	.LLST18
 7425 1e9d 2E       		.uleb128 0x2e
 7426 1e9e AB070000 		.4byte	.LASF133
 7427 1ea2 01       		.byte	0x1
 7428 1ea3 9001     		.2byte	0x190
 7429 1ea5 90000000 		.4byte	0x90
 7430 1ea9 95030000 		.4byte	.LLST19
 7431 1ead 39       		.uleb128 0x39
 7432 1eae 95070000 		.4byte	.LASF134
 7433 1eb2 01       		.byte	0x1
 7434 1eb3 9101     		.2byte	0x191
ARM GAS  C:\Users\IVYLIU~1\AppData\Local\Temp\cc0nPDNQ.s 			page 148


 7435 1eb5 F1210000 		.4byte	0x21f1
 7436 1eb9 02       		.uleb128 0x2
 7437 1eba 91       		.byte	0x91
 7438 1ebb 64       		.sleb128 -28
 7439 1ebc 2E       		.uleb128 0x2e
 7440 1ebd C7020000 		.4byte	.LASF135
 7441 1ec1 01       		.byte	0x1
 7442 1ec2 9201     		.2byte	0x192
 7443 1ec4 BC070000 		.4byte	0x7bc
 7444 1ec8 CC030000 		.4byte	.LLST20
 7445 1ecc 2F       		.uleb128 0x2f
 7446 1ecd 0E000000 		.4byte	.LVL240
 7447 1ed1 75280000 		.4byte	0x2875
 7448 1ed5 E01E0000 		.4byte	0x1ee0
 7449 1ed9 2A       		.uleb128 0x2a
 7450 1eda 01       		.uleb128 0x1
 7451 1edb 50       		.byte	0x50
 7452 1edc 02       		.uleb128 0x2
 7453 1edd 09       		.byte	0x9
 7454 1ede FF       		.byte	0xff
 7455 1edf 00       		.byte	0
 7456 1ee0 2F       		.uleb128 0x2f
 7457 1ee1 16000000 		.4byte	.LVL241
 7458 1ee5 87280000 		.4byte	0x2887
 7459 1ee9 F61E0000 		.4byte	0x1ef6
 7460 1eed 2A       		.uleb128 0x2a
 7461 1eee 01       		.uleb128 0x1
 7462 1eef 50       		.byte	0x50
 7463 1ef0 04       		.uleb128 0x4
 7464 1ef1 40       		.byte	0x40
 7465 1ef2 44       		.byte	0x44
 7466 1ef3 24       		.byte	0x24
 7467 1ef4 1F       		.byte	0x1f
 7468 1ef5 00       		.byte	0
 7469 1ef6 2F       		.uleb128 0x2f
 7470 1ef7 1C000000 		.4byte	.LVL242
 7471 1efb AF280000 		.4byte	0x28af
 7472 1eff 091F0000 		.4byte	0x1f09
 7473 1f03 2A       		.uleb128 0x2a
 7474 1f04 01       		.uleb128 0x1
 7475 1f05 50       		.byte	0x50
 7476 1f06 01       		.uleb128 0x1
 7477 1f07 32       		.byte	0x32
 7478 1f08 00       		.byte	0
 7479 1f09 2F       		.uleb128 0x2f
 7480 1f0a 22000000 		.4byte	.LVL243
 7481 1f0e C5280000 		.4byte	0x28c5
 7482 1f12 1C1F0000 		.4byte	0x1f1c
 7483 1f16 2A       		.uleb128 0x2a
 7484 1f17 01       		.uleb128 0x1
 7485 1f18 50       		.byte	0x50
 7486 1f19 01       		.uleb128 0x1
 7487 1f1a 3C       		.byte	0x3c
 7488 1f1b 00       		.byte	0
 7489 1f1c 34       		.uleb128 0x34
 7490 1f1d 26000000 		.4byte	.LVL244
 7491 1f21 DB280000 		.4byte	0x28db
ARM GAS  C:\Users\IVYLIU~1\AppData\Local\Temp\cc0nPDNQ.s 			page 149


 7492 1f25 34       		.uleb128 0x34
 7493 1f26 2A000000 		.4byte	.LVL245
 7494 1f2a 761C0000 		.4byte	0x1c76
 7495 1f2e 34       		.uleb128 0x34
 7496 1f2f 3E000000 		.4byte	.LVL248
 7497 1f33 450F0000 		.4byte	0xf45
 7498 1f37 2F       		.uleb128 0x2f
 7499 1f38 4A000000 		.4byte	.LVL249
 7500 1f3c FD080000 		.4byte	0x8fd
 7501 1f40 571F0000 		.4byte	0x1f57
 7502 1f44 2A       		.uleb128 0x2a
 7503 1f45 01       		.uleb128 0x1
 7504 1f46 53       		.byte	0x53
 7505 1f47 02       		.uleb128 0x2
 7506 1f48 08       		.byte	0x8
 7507 1f49 64       		.byte	0x64
 7508 1f4a 2A       		.uleb128 0x2a
 7509 1f4b 01       		.uleb128 0x1
 7510 1f4c 52       		.byte	0x52
 7511 1f4d 02       		.uleb128 0x2
 7512 1f4e 75       		.byte	0x75
 7513 1f4f 00       		.sleb128 0
 7514 1f50 2A       		.uleb128 0x2a
 7515 1f51 01       		.uleb128 0x1
 7516 1f52 51       		.byte	0x51
 7517 1f53 02       		.uleb128 0x2
 7518 1f54 75       		.byte	0x75
 7519 1f55 00       		.sleb128 0
 7520 1f56 00       		.byte	0
 7521 1f57 34       		.uleb128 0x34
 7522 1f58 50000000 		.4byte	.LVL250
 7523 1f5c 99280000 		.4byte	0x2899
 7524 1f60 2F       		.uleb128 0x2f
 7525 1f61 5A000000 		.4byte	.LVL251
 7526 1f65 BB290000 		.4byte	0x29bb
 7527 1f69 831F0000 		.4byte	0x1f83
 7528 1f6d 2A       		.uleb128 0x2a
 7529 1f6e 01       		.uleb128 0x1
 7530 1f6f 52       		.byte	0x52
 7531 1f70 02       		.uleb128 0x2
 7532 1f71 75       		.byte	0x75
 7533 1f72 00       		.sleb128 0
 7534 1f73 2A       		.uleb128 0x2a
 7535 1f74 01       		.uleb128 0x1
 7536 1f75 51       		.byte	0x51
 7537 1f76 05       		.uleb128 0x5
 7538 1f77 03       		.byte	0x3
 7539 1f78 7D010000 		.4byte	.LC51
 7540 1f7c 2A       		.uleb128 0x2a
 7541 1f7d 01       		.uleb128 0x1
 7542 1f7e 50       		.byte	0x50
 7543 1f7f 02       		.uleb128 0x2
 7544 1f80 91       		.byte	0x91
 7545 1f81 64       		.sleb128 -28
 7546 1f82 00       		.byte	0
 7547 1f83 2F       		.uleb128 0x2f
 7548 1f84 66000000 		.4byte	.LVL252
ARM GAS  C:\Users\IVYLIU~1\AppData\Local\Temp\cc0nPDNQ.s 			page 150


 7549 1f88 E3280000 		.4byte	0x28e3
 7550 1f8c A71F0000 		.4byte	0x1fa7
 7551 1f90 2A       		.uleb128 0x2a
 7552 1f91 01       		.uleb128 0x1
 7553 1f92 52       		.byte	0x52
 7554 1f93 03       		.uleb128 0x3
 7555 1f94 0A       		.byte	0xa
 7556 1f95 1801     		.2byte	0x118
 7557 1f97 2A       		.uleb128 0x2a
 7558 1f98 01       		.uleb128 0x1
 7559 1f99 51       		.byte	0x51
 7560 1f9a 02       		.uleb128 0x2
 7561 1f9b 08       		.byte	0x8
 7562 1f9c 64       		.byte	0x64
 7563 1f9d 2A       		.uleb128 0x2a
 7564 1f9e 01       		.uleb128 0x1
 7565 1f9f 50       		.byte	0x50
 7566 1fa0 05       		.uleb128 0x5
 7567 1fa1 03       		.byte	0x3
 7568 1fa2 80010000 		.4byte	.LC52
 7569 1fa6 00       		.byte	0
 7570 1fa7 2F       		.uleb128 0x2f
 7571 1fa8 72000000 		.4byte	.LVL253
 7572 1fac E3280000 		.4byte	0x28e3
 7573 1fb0 C81F0000 		.4byte	0x1fc8
 7574 1fb4 2A       		.uleb128 0x2a
 7575 1fb5 01       		.uleb128 0x1
 7576 1fb6 52       		.byte	0x52
 7577 1fb7 03       		.uleb128 0x3
 7578 1fb8 0A       		.byte	0xa
 7579 1fb9 1801     		.2byte	0x118
 7580 1fbb 2A       		.uleb128 0x2a
 7581 1fbc 01       		.uleb128 0x1
 7582 1fbd 51       		.byte	0x51
 7583 1fbe 02       		.uleb128 0x2
 7584 1fbf 08       		.byte	0x8
 7585 1fc0 A0       		.byte	0xa0
 7586 1fc1 2A       		.uleb128 0x2a
 7587 1fc2 01       		.uleb128 0x1
 7588 1fc3 50       		.byte	0x50
 7589 1fc4 02       		.uleb128 0x2
 7590 1fc5 91       		.byte	0x91
 7591 1fc6 64       		.sleb128 -28
 7592 1fc7 00       		.byte	0
 7593 1fc8 34       		.uleb128 0x34
 7594 1fc9 76000000 		.4byte	.LVL254
 7595 1fcd 4A280000 		.4byte	0x284a
 7596 1fd1 34       		.uleb128 0x34
 7597 1fd2 7E000000 		.4byte	.LVL255
 7598 1fd6 04080000 		.4byte	0x804
 7599 1fda 34       		.uleb128 0x34
 7600 1fdb 8C000000 		.4byte	.LVL256
 7601 1fdf DE0A0000 		.4byte	0xade
 7602 1fe3 2F       		.uleb128 0x2f
 7603 1fe4 96000000 		.4byte	.LVL257
 7604 1fe8 85270000 		.4byte	0x2785
 7605 1fec F71F0000 		.4byte	0x1ff7
ARM GAS  C:\Users\IVYLIU~1\AppData\Local\Temp\cc0nPDNQ.s 			page 151


 7606 1ff0 2A       		.uleb128 0x2a
 7607 1ff1 01       		.uleb128 0x1
 7608 1ff2 51       		.byte	0x51
 7609 1ff3 02       		.uleb128 0x2
 7610 1ff4 77       		.byte	0x77
 7611 1ff5 00       		.sleb128 0
 7612 1ff6 00       		.byte	0
 7613 1ff7 34       		.uleb128 0x34
 7614 1ff8 9E000000 		.4byte	.LVL258
 7615 1ffc FF280000 		.4byte	0x28ff
 7616 2000 2F       		.uleb128 0x2f
 7617 2001 AE000000 		.4byte	.LVL259
 7618 2005 FD080000 		.4byte	0x8fd
 7619 2009 1E200000 		.4byte	0x201e
 7620 200d 2A       		.uleb128 0x2a
 7621 200e 01       		.uleb128 0x1
 7622 200f 53       		.byte	0x53
 7623 2010 01       		.uleb128 0x1
 7624 2011 30       		.byte	0x30
 7625 2012 2A       		.uleb128 0x2a
 7626 2013 01       		.uleb128 0x1
 7627 2014 52       		.byte	0x52
 7628 2015 02       		.uleb128 0x2
 7629 2016 08       		.byte	0x8
 7630 2017 64       		.byte	0x64
 7631 2018 2A       		.uleb128 0x2a
 7632 2019 01       		.uleb128 0x1
 7633 201a 51       		.byte	0x51
 7634 201b 01       		.uleb128 0x1
 7635 201c 30       		.byte	0x30
 7636 201d 00       		.byte	0
 7637 201e 2F       		.uleb128 0x2f
 7638 201f B4000000 		.4byte	.LVL260
 7639 2023 39280000 		.4byte	0x2839
 7640 2027 32200000 		.4byte	0x2032
 7641 202b 2A       		.uleb128 0x2a
 7642 202c 01       		.uleb128 0x1
 7643 202d 50       		.byte	0x50
 7644 202e 02       		.uleb128 0x2
 7645 202f 08       		.byte	0x8
 7646 2030 32       		.byte	0x32
 7647 2031 00       		.byte	0
 7648 2032 2F       		.uleb128 0x2f
 7649 2033 BC000000 		.4byte	.LVL261
 7650 2037 87280000 		.4byte	0x2887
 7651 203b 46200000 		.4byte	0x2046
 7652 203f 2A       		.uleb128 0x2a
 7653 2040 01       		.uleb128 0x1
 7654 2041 50       		.byte	0x50
 7655 2042 02       		.uleb128 0x2
 7656 2043 09       		.byte	0x9
 7657 2044 FF       		.byte	0xff
 7658 2045 00       		.byte	0
 7659 2046 34       		.uleb128 0x34
 7660 2047 C2000000 		.4byte	.LVL262
 7661 204b 450F0000 		.4byte	0xf45
 7662 204f 34       		.uleb128 0x34
ARM GAS  C:\Users\IVYLIU~1\AppData\Local\Temp\cc0nPDNQ.s 			page 152


 7663 2050 C6000000 		.4byte	.LVL263
 7664 2054 A2080000 		.4byte	0x8a2
 7665 2058 34       		.uleb128 0x34
 7666 2059 CC000000 		.4byte	.LVL264
 7667 205d 99280000 		.4byte	0x2899
 7668 2061 2F       		.uleb128 0x2f
 7669 2062 D8000000 		.4byte	.LVL265
 7670 2066 E3280000 		.4byte	0x28e3
 7671 206a 85200000 		.4byte	0x2085
 7672 206e 2A       		.uleb128 0x2a
 7673 206f 01       		.uleb128 0x1
 7674 2070 52       		.byte	0x52
 7675 2071 03       		.uleb128 0x3
 7676 2072 0A       		.byte	0xa
 7677 2073 1801     		.2byte	0x118
 7678 2075 2A       		.uleb128 0x2a
 7679 2076 01       		.uleb128 0x1
 7680 2077 51       		.byte	0x51
 7681 2078 02       		.uleb128 0x2
 7682 2079 08       		.byte	0x8
 7683 207a 64       		.byte	0x64
 7684 207b 2A       		.uleb128 0x2a
 7685 207c 01       		.uleb128 0x1
 7686 207d 50       		.byte	0x50
 7687 207e 05       		.uleb128 0x5
 7688 207f 03       		.byte	0x3
 7689 2080 80010000 		.4byte	.LC52
 7690 2084 00       		.byte	0
 7691 2085 2F       		.uleb128 0x2f
 7692 2086 E4000000 		.4byte	.LVL266
 7693 208a E3280000 		.4byte	0x28e3
 7694 208e A6200000 		.4byte	0x20a6
 7695 2092 2A       		.uleb128 0x2a
 7696 2093 01       		.uleb128 0x1
 7697 2094 52       		.byte	0x52
 7698 2095 03       		.uleb128 0x3
 7699 2096 0A       		.byte	0xa
 7700 2097 1801     		.2byte	0x118
 7701 2099 2A       		.uleb128 0x2a
 7702 209a 01       		.uleb128 0x1
 7703 209b 51       		.byte	0x51
 7704 209c 02       		.uleb128 0x2
 7705 209d 08       		.byte	0x8
 7706 209e A0       		.byte	0xa0
 7707 209f 2A       		.uleb128 0x2a
 7708 20a0 01       		.uleb128 0x1
 7709 20a1 50       		.byte	0x50
 7710 20a2 02       		.uleb128 0x2
 7711 20a3 91       		.byte	0x91
 7712 20a4 64       		.sleb128 -28
 7713 20a5 00       		.byte	0
 7714 20a6 2F       		.uleb128 0x2f
 7715 20a7 EE000000 		.4byte	.LVL268
 7716 20ab 87280000 		.4byte	0x2887
 7717 20af BC200000 		.4byte	0x20bc
 7718 20b3 2A       		.uleb128 0x2a
 7719 20b4 01       		.uleb128 0x1
ARM GAS  C:\Users\IVYLIU~1\AppData\Local\Temp\cc0nPDNQ.s 			page 153


 7720 20b5 50       		.byte	0x50
 7721 20b6 04       		.uleb128 0x4
 7722 20b7 40       		.byte	0x40
 7723 20b8 44       		.byte	0x44
 7724 20b9 24       		.byte	0x24
 7725 20ba 1F       		.byte	0x1f
 7726 20bb 00       		.byte	0
 7727 20bc 34       		.uleb128 0x34
 7728 20bd F2000000 		.4byte	.LVL269
 7729 20c1 761C0000 		.4byte	0x1c76
 7730 20c5 2F       		.uleb128 0x2f
 7731 20c6 FC000000 		.4byte	.LVL270
 7732 20ca BB290000 		.4byte	0x29bb
 7733 20ce E8200000 		.4byte	0x20e8
 7734 20d2 2A       		.uleb128 0x2a
 7735 20d3 01       		.uleb128 0x1
 7736 20d4 52       		.byte	0x52
 7737 20d5 02       		.uleb128 0x2
 7738 20d6 75       		.byte	0x75
 7739 20d7 00       		.sleb128 0
 7740 20d8 2A       		.uleb128 0x2a
 7741 20d9 01       		.uleb128 0x1
 7742 20da 51       		.byte	0x51
 7743 20db 05       		.uleb128 0x5
 7744 20dc 03       		.byte	0x3
 7745 20dd 7D010000 		.4byte	.LC51
 7746 20e1 2A       		.uleb128 0x2a
 7747 20e2 01       		.uleb128 0x1
 7748 20e3 50       		.byte	0x50
 7749 20e4 02       		.uleb128 0x2
 7750 20e5 91       		.byte	0x91
 7751 20e6 64       		.sleb128 -28
 7752 20e7 00       		.byte	0
 7753 20e8 2F       		.uleb128 0x2f
 7754 20e9 0A010000 		.4byte	.LVL271
 7755 20ed E3280000 		.4byte	0x28e3
 7756 20f1 0B210000 		.4byte	0x210b
 7757 20f5 2A       		.uleb128 0x2a
 7758 20f6 01       		.uleb128 0x1
 7759 20f7 52       		.byte	0x52
 7760 20f8 02       		.uleb128 0x2
 7761 20f9 08       		.byte	0x8
 7762 20fa F0       		.byte	0xf0
 7763 20fb 2A       		.uleb128 0x2a
 7764 20fc 01       		.uleb128 0x1
 7765 20fd 51       		.byte	0x51
 7766 20fe 02       		.uleb128 0x2
 7767 20ff 08       		.byte	0x8
 7768 2100 78       		.byte	0x78
 7769 2101 2A       		.uleb128 0x2a
 7770 2102 01       		.uleb128 0x1
 7771 2103 50       		.byte	0x50
 7772 2104 05       		.uleb128 0x5
 7773 2105 03       		.byte	0x3
 7774 2106 86010000 		.4byte	.LC53
 7775 210a 00       		.byte	0
 7776 210b 2F       		.uleb128 0x2f
ARM GAS  C:\Users\IVYLIU~1\AppData\Local\Temp\cc0nPDNQ.s 			page 154


 7777 210c 16010000 		.4byte	.LVL272
 7778 2110 E3280000 		.4byte	0x28e3
 7779 2114 2F210000 		.4byte	0x212f
 7780 2118 2A       		.uleb128 0x2a
 7781 2119 01       		.uleb128 0x1
 7782 211a 52       		.byte	0x52
 7783 211b 03       		.uleb128 0x3
 7784 211c 0A       		.byte	0xa
 7785 211d 1801     		.2byte	0x118
 7786 211f 2A       		.uleb128 0x2a
 7787 2120 01       		.uleb128 0x1
 7788 2121 51       		.byte	0x51
 7789 2122 02       		.uleb128 0x2
 7790 2123 08       		.byte	0x8
 7791 2124 64       		.byte	0x64
 7792 2125 2A       		.uleb128 0x2a
 7793 2126 01       		.uleb128 0x1
 7794 2127 50       		.byte	0x50
 7795 2128 05       		.uleb128 0x5
 7796 2129 03       		.byte	0x3
 7797 212a 80010000 		.4byte	.LC52
 7798 212e 00       		.byte	0
 7799 212f 2F       		.uleb128 0x2f
 7800 2130 22010000 		.4byte	.LVL273
 7801 2134 E3280000 		.4byte	0x28e3
 7802 2138 50210000 		.4byte	0x2150
 7803 213c 2A       		.uleb128 0x2a
 7804 213d 01       		.uleb128 0x1
 7805 213e 52       		.byte	0x52
 7806 213f 03       		.uleb128 0x3
 7807 2140 0A       		.byte	0xa
 7808 2141 1801     		.2byte	0x118
 7809 2143 2A       		.uleb128 0x2a
 7810 2144 01       		.uleb128 0x1
 7811 2145 51       		.byte	0x51
 7812 2146 02       		.uleb128 0x2
 7813 2147 08       		.byte	0x8
 7814 2148 A0       		.byte	0xa0
 7815 2149 2A       		.uleb128 0x2a
 7816 214a 01       		.uleb128 0x1
 7817 214b 50       		.byte	0x50
 7818 214c 02       		.uleb128 0x2
 7819 214d 91       		.byte	0x91
 7820 214e 64       		.sleb128 -28
 7821 214f 00       		.byte	0
 7822 2150 2F       		.uleb128 0x2f
 7823 2151 30010000 		.4byte	.LVL274
 7824 2155 E3280000 		.4byte	0x28e3
 7825 2159 74210000 		.4byte	0x2174
 7826 215d 2A       		.uleb128 0x2a
 7827 215e 01       		.uleb128 0x1
 7828 215f 52       		.byte	0x52
 7829 2160 03       		.uleb128 0x3
 7830 2161 0A       		.byte	0xa
 7831 2162 1801     		.2byte	0x118
 7832 2164 2A       		.uleb128 0x2a
 7833 2165 01       		.uleb128 0x1
ARM GAS  C:\Users\IVYLIU~1\AppData\Local\Temp\cc0nPDNQ.s 			page 155


 7834 2166 51       		.byte	0x51
 7835 2167 02       		.uleb128 0x2
 7836 2168 08       		.byte	0x8
 7837 2169 64       		.byte	0x64
 7838 216a 2A       		.uleb128 0x2a
 7839 216b 01       		.uleb128 0x1
 7840 216c 50       		.byte	0x50
 7841 216d 05       		.uleb128 0x5
 7842 216e 03       		.byte	0x3
 7843 216f 80010000 		.4byte	.LC52
 7844 2173 00       		.byte	0
 7845 2174 2F       		.uleb128 0x2f
 7846 2175 3E010000 		.4byte	.LVL275
 7847 2179 E3280000 		.4byte	0x28e3
 7848 217d 95210000 		.4byte	0x2195
 7849 2181 2A       		.uleb128 0x2a
 7850 2182 01       		.uleb128 0x1
 7851 2183 52       		.byte	0x52
 7852 2184 03       		.uleb128 0x3
 7853 2185 0A       		.byte	0xa
 7854 2186 1801     		.2byte	0x118
 7855 2188 2A       		.uleb128 0x2a
 7856 2189 01       		.uleb128 0x1
 7857 218a 51       		.byte	0x51
 7858 218b 02       		.uleb128 0x2
 7859 218c 08       		.byte	0x8
 7860 218d A0       		.byte	0xa0
 7861 218e 2A       		.uleb128 0x2a
 7862 218f 01       		.uleb128 0x1
 7863 2190 50       		.byte	0x50
 7864 2191 02       		.uleb128 0x2
 7865 2192 91       		.byte	0x91
 7866 2193 64       		.sleb128 -28
 7867 2194 00       		.byte	0
 7868 2195 34       		.uleb128 0x34
 7869 2196 44010000 		.4byte	.LVL276
 7870 219a 450F0000 		.4byte	0xf45
 7871 219e 2F       		.uleb128 0x2f
 7872 219f 54010000 		.4byte	.LVL277
 7873 21a3 FD080000 		.4byte	0x8fd
 7874 21a7 C2210000 		.4byte	0x21c2
 7875 21ab 2A       		.uleb128 0x2a
 7876 21ac 01       		.uleb128 0x1
 7877 21ad 53       		.byte	0x53
 7878 21ae 01       		.uleb128 0x1
 7879 21af 30       		.byte	0x30
 7880 21b0 2A       		.uleb128 0x2a
 7881 21b1 01       		.uleb128 0x1
 7882 21b2 52       		.byte	0x52
 7883 21b3 01       		.uleb128 0x1
 7884 21b4 30       		.byte	0x30
 7885 21b5 2A       		.uleb128 0x2a
 7886 21b6 01       		.uleb128 0x1
 7887 21b7 51       		.byte	0x51
 7888 21b8 02       		.uleb128 0x2
 7889 21b9 08       		.byte	0x8
 7890 21ba 64       		.byte	0x64
ARM GAS  C:\Users\IVYLIU~1\AppData\Local\Temp\cc0nPDNQ.s 			page 156


 7891 21bb 2A       		.uleb128 0x2a
 7892 21bc 01       		.uleb128 0x1
 7893 21bd 50       		.byte	0x50
 7894 21be 02       		.uleb128 0x2
 7895 21bf 77       		.byte	0x77
 7896 21c0 00       		.sleb128 0
 7897 21c1 00       		.byte	0
 7898 21c2 2F       		.uleb128 0x2f
 7899 21c3 5A010000 		.4byte	.LVL278
 7900 21c7 39280000 		.4byte	0x2839
 7901 21cb D6210000 		.4byte	0x21d6
 7902 21cf 2A       		.uleb128 0x2a
 7903 21d0 01       		.uleb128 0x1
 7904 21d1 50       		.byte	0x50
 7905 21d2 02       		.uleb128 0x2
 7906 21d3 08       		.byte	0x8
 7907 21d4 32       		.byte	0x32
 7908 21d5 00       		.byte	0
 7909 21d6 29       		.uleb128 0x29
 7910 21d7 68010000 		.4byte	.LVL279
 7911 21db FD080000 		.4byte	0x8fd
 7912 21df 2A       		.uleb128 0x2a
 7913 21e0 01       		.uleb128 0x1
 7914 21e1 53       		.byte	0x53
 7915 21e2 02       		.uleb128 0x2
 7916 21e3 08       		.byte	0x8
 7917 21e4 64       		.byte	0x64
 7918 21e5 2A       		.uleb128 0x2a
 7919 21e6 01       		.uleb128 0x1
 7920 21e7 52       		.byte	0x52
 7921 21e8 01       		.uleb128 0x1
 7922 21e9 30       		.byte	0x30
 7923 21ea 2A       		.uleb128 0x2a
 7924 21eb 01       		.uleb128 0x1
 7925 21ec 51       		.byte	0x51
 7926 21ed 01       		.uleb128 0x1
 7927 21ee 30       		.byte	0x30
 7928 21ef 00       		.byte	0
 7929 21f0 00       		.byte	0
 7930 21f1 1B       		.uleb128 0x1b
 7931 21f2 F5000000 		.4byte	0xf5
 7932 21f6 01220000 		.4byte	0x2201
 7933 21fa 1C       		.uleb128 0x1c
 7934 21fb 01010000 		.4byte	0x101
 7935 21ff 02       		.byte	0x2
 7936 2200 00       		.byte	0
 7937 2201 3A       		.uleb128 0x3a
 7938 2202 8E0A0000 		.4byte	.LASF136
 7939 2206 01       		.byte	0x1
 7940 2207 B4       		.byte	0xb4
 7941 2208 90000000 		.4byte	0x90
 7942 220c 00000000 		.4byte	.LFB123
 7943 2210 34010000 		.4byte	.LFE123-.LFB123
 7944 2214 01       		.uleb128 0x1
 7945 2215 9C       		.byte	0x9c
 7946 2216 65240000 		.4byte	0x2465
 7947 221a 3B       		.uleb128 0x3b
ARM GAS  C:\Users\IVYLIU~1\AppData\Local\Temp\cc0nPDNQ.s 			page 157


 7948 221b A2020000 		.4byte	.LASF137
 7949 221f 01       		.byte	0x1
 7950 2220 BE       		.byte	0xbe
 7951 2221 90000000 		.4byte	0x90
 7952 2225 F7030000 		.4byte	.LLST21
 7953 2229 3C       		.uleb128 0x3c
 7954 222a 3A080000 		.4byte	0x83a
 7955 222e 8A000000 		.4byte	.LBB18
 7956 2232 12000000 		.4byte	.LBE18-.LBB18
 7957 2236 01       		.byte	0x1
 7958 2237 DD       		.byte	0xdd
 7959 2238 61220000 		.4byte	0x2261
 7960 223c 24       		.uleb128 0x24
 7961 223d 65080000 		.4byte	0x865
 7962 2241 53040000 		.4byte	.LLST22
 7963 2245 24       		.uleb128 0x24
 7964 2246 5B080000 		.4byte	0x85b
 7965 224a 53040000 		.4byte	.LLST22
 7966 224e 24       		.uleb128 0x24
 7967 224f 51080000 		.4byte	0x851
 7968 2253 68040000 		.4byte	.LLST24
 7969 2257 24       		.uleb128 0x24
 7970 2258 47080000 		.4byte	0x847
 7971 225c 7C040000 		.4byte	.LLST25
 7972 2260 00       		.byte	0
 7973 2261 3C       		.uleb128 0x3c
 7974 2262 3A080000 		.4byte	0x83a
 7975 2266 9C000000 		.4byte	.LBB20
 7976 226a 0C000000 		.4byte	.LBE20-.LBB20
 7977 226e 01       		.byte	0x1
 7978 226f DE       		.byte	0xde
 7979 2270 99220000 		.4byte	0x2299
 7980 2274 24       		.uleb128 0x24
 7981 2275 65080000 		.4byte	0x865
 7982 2279 91040000 		.4byte	.LLST26
 7983 227d 24       		.uleb128 0x24
 7984 227e 5B080000 		.4byte	0x85b
 7985 2282 91040000 		.4byte	.LLST26
 7986 2286 24       		.uleb128 0x24
 7987 2287 51080000 		.4byte	0x851
 7988 228b A6040000 		.4byte	.LLST28
 7989 228f 24       		.uleb128 0x24
 7990 2290 47080000 		.4byte	0x847
 7991 2294 BA040000 		.4byte	.LLST29
 7992 2298 00       		.byte	0
 7993 2299 3C       		.uleb128 0x3c
 7994 229a 3A080000 		.4byte	0x83a
 7995 229e EA000000 		.4byte	.LBB22
 7996 22a2 10000000 		.4byte	.LBE22-.LBB22
 7997 22a6 01       		.byte	0x1
 7998 22a7 ED       		.byte	0xed
 7999 22a8 D1220000 		.4byte	0x22d1
 8000 22ac 24       		.uleb128 0x24
 8001 22ad 65080000 		.4byte	0x865
 8002 22b1 CF040000 		.4byte	.LLST30
 8003 22b5 24       		.uleb128 0x24
 8004 22b6 5B080000 		.4byte	0x85b
ARM GAS  C:\Users\IVYLIU~1\AppData\Local\Temp\cc0nPDNQ.s 			page 158


 8005 22ba CF040000 		.4byte	.LLST30
 8006 22be 24       		.uleb128 0x24
 8007 22bf 51080000 		.4byte	0x851
 8008 22c3 CF040000 		.4byte	.LLST30
 8009 22c7 24       		.uleb128 0x24
 8010 22c8 47080000 		.4byte	0x847
 8011 22cc E3040000 		.4byte	.LLST33
 8012 22d0 00       		.byte	0
 8013 22d1 3C       		.uleb128 0x3c
 8014 22d2 3A080000 		.4byte	0x83a
 8015 22d6 FA000000 		.4byte	.LBB24
 8016 22da 0C000000 		.4byte	.LBE24-.LBB24
 8017 22de 01       		.byte	0x1
 8018 22df EE       		.byte	0xee
 8019 22e0 09230000 		.4byte	0x2309
 8020 22e4 24       		.uleb128 0x24
 8021 22e5 65080000 		.4byte	0x865
 8022 22e9 F8040000 		.4byte	.LLST34
 8023 22ed 24       		.uleb128 0x24
 8024 22ee 5B080000 		.4byte	0x85b
 8025 22f2 F8040000 		.4byte	.LLST34
 8026 22f6 24       		.uleb128 0x24
 8027 22f7 51080000 		.4byte	0x851
 8028 22fb F8040000 		.4byte	.LLST34
 8029 22ff 24       		.uleb128 0x24
 8030 2300 47080000 		.4byte	0x847
 8031 2304 0C050000 		.4byte	.LLST37
 8032 2308 00       		.byte	0
 8033 2309 34       		.uleb128 0x34
 8034 230a 08000000 		.4byte	.LVL281
 8035 230e D6290000 		.4byte	0x29d6
 8036 2312 34       		.uleb128 0x34
 8037 2313 0C000000 		.4byte	.LVL282
 8038 2317 DD290000 		.4byte	0x29dd
 8039 231b 34       		.uleb128 0x34
 8040 231c 10000000 		.4byte	.LVL283
 8041 2320 E4290000 		.4byte	0x29e4
 8042 2324 34       		.uleb128 0x34
 8043 2325 14000000 		.4byte	.LVL284
 8044 2329 EB290000 		.4byte	0x29eb
 8045 232d 2F       		.uleb128 0x2f
 8046 232e 22000000 		.4byte	.LVL285
 8047 2332 F7290000 		.4byte	0x29f7
 8048 2336 5E230000 		.4byte	0x235e
 8049 233a 2A       		.uleb128 0x2a
 8050 233b 06       		.uleb128 0x6
 8051 233c 52       		.byte	0x52
 8052 233d 93       		.byte	0x93
 8053 233e 04       		.uleb128 0x4
 8054 233f 53       		.byte	0x53
 8055 2340 93       		.byte	0x93
 8056 2341 04       		.uleb128 0x4
 8057 2342 0B       		.uleb128 0xb
 8058 2343 F4       		.byte	0xf4
 8059 2344 25       		.uleb128 0x25
 8060 2345 08       		.byte	0x8
 8061 2346 9A999999 		.4byte	0x9999999a
ARM GAS  C:\Users\IVYLIU~1\AppData\Local\Temp\cc0nPDNQ.s 			page 159


 8062 234a 99992940 		.4byte	0x40299999
 8063 234e 2A       		.uleb128 0x2a
 8064 234f 01       		.uleb128 0x1
 8065 2350 51       		.byte	0x51
 8066 2351 05       		.uleb128 0x5
 8067 2352 03       		.byte	0x3
 8068 2353 00000000 		.4byte	pPixelArray
 8069 2357 2A       		.uleb128 0x2a
 8070 2358 01       		.uleb128 0x1
 8071 2359 50       		.byte	0x50
 8072 235a 02       		.uleb128 0x2
 8073 235b 08       		.byte	0x8
 8074 235c 90       		.byte	0x90
 8075 235d 00       		.byte	0
 8076 235e 34       		.uleb128 0x34
 8077 235f 3A000000 		.4byte	.LVL287
 8078 2363 A2080000 		.4byte	0x8a2
 8079 2367 34       		.uleb128 0x34
 8080 2368 40000000 		.4byte	.LVL288
 8081 236c B50D0000 		.4byte	0xdb5
 8082 2370 34       		.uleb128 0x34
 8083 2371 46000000 		.4byte	.LVL290
 8084 2375 FF280000 		.4byte	0x28ff
 8085 2379 34       		.uleb128 0x34
 8086 237a 4C000000 		.4byte	.LVL291
 8087 237e FF280000 		.4byte	0x28ff
 8088 2382 34       		.uleb128 0x34
 8089 2383 58000000 		.4byte	.LVL294
 8090 2387 4A280000 		.4byte	0x284a
 8091 238b 34       		.uleb128 0x34
 8092 238c 60000000 		.4byte	.LVL295
 8093 2390 4A280000 		.4byte	0x284a
 8094 2394 34       		.uleb128 0x34
 8095 2395 6C000000 		.4byte	.LVL298
 8096 2399 290B0000 		.4byte	0xb29
 8097 239d 34       		.uleb128 0x34
 8098 239e 70000000 		.4byte	.LVL299
 8099 23a2 771E0000 		.4byte	0x1e77
 8100 23a6 34       		.uleb128 0x34
 8101 23a7 78000000 		.4byte	.LVL301
 8102 23ab 4A280000 		.4byte	0x284a
 8103 23af 34       		.uleb128 0x34
 8104 23b0 80000000 		.4byte	.LVL302
 8105 23b4 4A280000 		.4byte	0x284a
 8106 23b8 34       		.uleb128 0x34
 8107 23b9 8A000000 		.4byte	.LVL303
 8108 23bd 1D0D0000 		.4byte	0xd1d
 8109 23c1 34       		.uleb128 0x34
 8110 23c2 AE000000 		.4byte	.LVL305
 8111 23c6 78270000 		.4byte	0x2778
 8112 23ca 34       		.uleb128 0x34
 8113 23cb B4000000 		.4byte	.LVL307
 8114 23cf 04080000 		.4byte	0x804
 8115 23d3 2F       		.uleb128 0x2f
 8116 23d4 C2000000 		.4byte	.LVL308
 8117 23d8 75280000 		.4byte	0x2875
 8118 23dc E7230000 		.4byte	0x23e7
ARM GAS  C:\Users\IVYLIU~1\AppData\Local\Temp\cc0nPDNQ.s 			page 160


 8119 23e0 2A       		.uleb128 0x2a
 8120 23e1 01       		.uleb128 0x1
 8121 23e2 50       		.byte	0x50
 8122 23e3 02       		.uleb128 0x2
 8123 23e4 09       		.byte	0x9
 8124 23e5 FF       		.byte	0xff
 8125 23e6 00       		.byte	0
 8126 23e7 2F       		.uleb128 0x2f
 8127 23e8 CA000000 		.4byte	.LVL309
 8128 23ec 87280000 		.4byte	0x2887
 8129 23f0 FD230000 		.4byte	0x23fd
 8130 23f4 2A       		.uleb128 0x2a
 8131 23f5 01       		.uleb128 0x1
 8132 23f6 50       		.byte	0x50
 8133 23f7 04       		.uleb128 0x4
 8134 23f8 40       		.byte	0x40
 8135 23f9 44       		.byte	0x44
 8136 23fa 24       		.byte	0x24
 8137 23fb 1F       		.byte	0x1f
 8138 23fc 00       		.byte	0
 8139 23fd 34       		.uleb128 0x34
 8140 23fe D0000000 		.4byte	.LVL310
 8141 2402 99280000 		.4byte	0x2899
 8142 2406 34       		.uleb128 0x34
 8143 2407 D4000000 		.4byte	.LVL311
 8144 240b DB280000 		.4byte	0x28db
 8145 240f 2F       		.uleb128 0x2f
 8146 2410 E0000000 		.4byte	.LVL312
 8147 2414 BB290000 		.4byte	0x29bb
 8148 2418 2F240000 		.4byte	0x242f
 8149 241c 2A       		.uleb128 0x2a
 8150 241d 01       		.uleb128 0x1
 8151 241e 51       		.byte	0x51
 8152 241f 05       		.uleb128 0x5
 8153 2420 03       		.byte	0x3
 8154 2421 91010000 		.4byte	.LC54
 8155 2425 2A       		.uleb128 0x2a
 8156 2426 01       		.uleb128 0x1
 8157 2427 50       		.byte	0x50
 8158 2428 05       		.uleb128 0x5
 8159 2429 03       		.byte	0x3
 8160 242a 00000000 		.4byte	test_string
 8161 242e 00       		.byte	0
 8162 242f 2F       		.uleb128 0x2f
 8163 2430 EA000000 		.4byte	.LVL313
 8164 2434 E3280000 		.4byte	0x28e3
 8165 2438 52240000 		.4byte	0x2452
 8166 243c 2A       		.uleb128 0x2a
 8167 243d 01       		.uleb128 0x1
 8168 243e 52       		.byte	0x52
 8169 243f 02       		.uleb128 0x2
 8170 2440 08       		.byte	0x8
 8171 2441 A0       		.byte	0xa0
 8172 2442 2A       		.uleb128 0x2a
 8173 2443 01       		.uleb128 0x1
 8174 2444 51       		.byte	0x51
 8175 2445 02       		.uleb128 0x2
ARM GAS  C:\Users\IVYLIU~1\AppData\Local\Temp\cc0nPDNQ.s 			page 161


 8176 2446 08       		.byte	0x8
 8177 2447 78       		.byte	0x78
 8178 2448 2A       		.uleb128 0x2a
 8179 2449 01       		.uleb128 0x1
 8180 244a 50       		.byte	0x50
 8181 244b 05       		.uleb128 0x5
 8182 244c 03       		.byte	0x3
 8183 244d 00000000 		.4byte	test_string
 8184 2451 00       		.byte	0
 8185 2452 34       		.uleb128 0x34
 8186 2453 0A010000 		.4byte	.LVL315
 8187 2457 78270000 		.4byte	0x2778
 8188 245b 34       		.uleb128 0x34
 8189 245c 10010000 		.4byte	.LVL317
 8190 2460 E31C0000 		.4byte	0x1ce3
 8191 2464 00       		.byte	0
 8192 2465 3D       		.uleb128 0x3d
 8193 2466 FB010000 		.4byte	.LASF138
 8194 246a 09       		.byte	0x9
 8195 246b 17       		.byte	0x17
 8196 246c 97000000 		.4byte	0x97
 8197 2470 05       		.uleb128 0x5
 8198 2471 03       		.byte	0x3
 8199 2472 00000000 		.4byte	NP_g_nNumberOfPixels
 8200 2476 3D       		.uleb128 0x3d
 8201 2477 15030000 		.4byte	.LASF139
 8202 247b 09       		.byte	0x9
 8203 247c 18       		.byte	0x18
 8204 247d CA000000 		.4byte	0xca
 8205 2481 05       		.uleb128 0x5
 8206 2482 03       		.byte	0x3
 8207 2483 00000000 		.4byte	NP_g_nDMA_Chan
 8208 2487 3D       		.uleb128 0x3d
 8209 2488 B1050000 		.4byte	.LASF140
 8210 248c 09       		.byte	0x9
 8211 248d 19       		.byte	0x19
 8212 248e CA000000 		.4byte	0xca
 8213 2492 05       		.uleb128 0x5
 8214 2493 03       		.byte	0x3
 8215 2494 00000000 		.4byte	NP_g_nDMA_TD
 8216 2498 3D       		.uleb128 0x3d
 8217 2499 6B020000 		.4byte	.LASF141
 8218 249d 09       		.byte	0x9
 8219 249e 1A       		.byte	0x1a
 8220 249f CA000000 		.4byte	0xca
 8221 24a3 05       		.uleb128 0x5
 8222 24a4 03       		.byte	0x3
 8223 24a5 00000000 		.4byte	NP_g_bOwnsBuffer
 8224 24a9 3D       		.uleb128 0x3d
 8225 24aa 24060000 		.4byte	.LASF142
 8226 24ae 09       		.byte	0x9
 8227 24af 1C       		.byte	0x1c
 8228 24b0 BA240000 		.4byte	0x24ba
 8229 24b4 05       		.uleb128 0x5
 8230 24b5 03       		.byte	0x3
 8231 24b6 00000000 		.4byte	NP_g_pFrameBuffer
 8232 24ba 08       		.uleb128 0x8
ARM GAS  C:\Users\IVYLIU~1\AppData\Local\Temp\cc0nPDNQ.s 			page 162


 8233 24bb 04       		.byte	0x4
 8234 24bc FC000000 		.4byte	0xfc
 8235 24c0 3D       		.uleb128 0x3d
 8236 24c1 CE090000 		.4byte	.LASF143
 8237 24c5 09       		.byte	0x9
 8238 24c6 1D       		.byte	0x1d
 8239 24c7 97000000 		.4byte	0x97
 8240 24cb 05       		.uleb128 0x5
 8241 24cc 03       		.byte	0x3
 8242 24cd 00000000 		.4byte	NP_g_nFrameBufferSize
 8243 24d1 03       		.uleb128 0x3
 8244 24d2 69000000 		.4byte	.LASF144
 8245 24d6 0A       		.byte	0xa
 8246 24d7 8B       		.byte	0x8b
 8247 24d8 4B270000 		.4byte	0x274b
 8248 24dc 08       		.uleb128 0x8
 8249 24dd 04       		.byte	0x4
 8250 24de BF000000 		.4byte	0xbf
 8251 24e2 3E       		.uleb128 0x3e
 8252 24e3 83080000 		.4byte	.LASF145
 8253 24e7 0A       		.byte	0xa
 8254 24e8 92       		.byte	0x92
 8255 24e9 ED240000 		.4byte	0x24ed
 8256 24ed 09       		.uleb128 0x9
 8257 24ee D1240000 		.4byte	0x24d1
 8258 24f2 3E       		.uleb128 0x3e
 8259 24f3 B7010000 		.4byte	.LASF146
 8260 24f7 0A       		.byte	0xa
 8261 24f8 93       		.byte	0x93
 8262 24f9 ED240000 		.4byte	0x24ed
 8263 24fd 03       		.uleb128 0x3
 8264 24fe 85000000 		.4byte	.LASF147
 8265 2502 0A       		.byte	0xa
 8266 2503 90       		.byte	0x90
 8267 2504 2A270000 		.4byte	0x272a
 8268 2508 3E       		.uleb128 0x3e
 8269 2509 79060000 		.4byte	.LASF148
 8270 250d 0A       		.byte	0xa
 8271 250e 94       		.byte	0x94
 8272 250f 13250000 		.4byte	0x2513
 8273 2513 09       		.uleb128 0x9
 8274 2514 FD240000 		.4byte	0x24fd
 8275 2518 3E       		.uleb128 0x3e
 8276 2519 05090000 		.4byte	.LASF149
 8277 251d 0A       		.byte	0xa
 8278 251e 95       		.byte	0x95
 8279 251f 13250000 		.4byte	0x2513
 8280 2523 3F       		.uleb128 0x3f
 8281 2524 8F010000 		.4byte	.LASF150
 8282 2528 0B       		.byte	0xb
 8283 2529 4A07     		.2byte	0x74a
 8284 252b 2F250000 		.4byte	0x252f
 8285 252f 06       		.uleb128 0x6
 8286 2530 B4000000 		.4byte	0xb4
 8287 2534 3F       		.uleb128 0x3f
 8288 2535 63050000 		.4byte	.LASF151
 8289 2539 0C       		.byte	0xc
ARM GAS  C:\Users\IVYLIU~1\AppData\Local\Temp\cc0nPDNQ.s 			page 163


 8290 253a 0808     		.2byte	0x808
 8291 253c 93050000 		.4byte	0x593
 8292 2540 3F       		.uleb128 0x3f
 8293 2541 27020000 		.4byte	.LASF152
 8294 2545 0C       		.byte	0xc
 8295 2546 0A08     		.2byte	0x80a
 8296 2548 93050000 		.4byte	0x593
 8297 254c 3F       		.uleb128 0x3f
 8298 254d 2A030000 		.4byte	.LASF153
 8299 2551 0C       		.byte	0xc
 8300 2552 0C08     		.2byte	0x80c
 8301 2554 93050000 		.4byte	0x593
 8302 2558 3F       		.uleb128 0x3f
 8303 2559 1E000000 		.4byte	.LASF154
 8304 255d 0C       		.byte	0xc
 8305 255e 0E08     		.2byte	0x80e
 8306 2560 93050000 		.4byte	0x593
 8307 2564 1B       		.uleb128 0x1b
 8308 2565 F5000000 		.4byte	0xf5
 8309 2569 74250000 		.4byte	0x2574
 8310 256d 1C       		.uleb128 0x1c
 8311 256e 01010000 		.4byte	0x101
 8312 2572 0F       		.byte	0xf
 8313 2573 00       		.byte	0
 8314 2574 3D       		.uleb128 0x3d
 8315 2575 3B050000 		.4byte	.LASF155
 8316 2579 01       		.byte	0x1
 8317 257a 14       		.byte	0x14
 8318 257b 64250000 		.4byte	0x2564
 8319 257f 05       		.uleb128 0x5
 8320 2580 03       		.byte	0x3
 8321 2581 00000000 		.4byte	test_string
 8322 2585 1B       		.uleb128 0x1b
 8323 2586 3E000000 		.4byte	0x3e
 8324 258a 96250000 		.4byte	0x2596
 8325 258e 40       		.uleb128 0x40
 8326 258f 01010000 		.4byte	0x101
 8327 2593 AF01     		.2byte	0x1af
 8328 2595 00       		.byte	0
 8329 2596 3D       		.uleb128 0x3d
 8330 2597 77080000 		.4byte	.LASF156
 8331 259b 01       		.byte	0x1
 8332 259c 1A       		.byte	0x1a
 8333 259d 85250000 		.4byte	0x2585
 8334 25a1 05       		.uleb128 0x5
 8335 25a2 03       		.byte	0x3
 8336 25a3 00000000 		.4byte	pPixelArray
 8337 25a7 3D       		.uleb128 0x3d
 8338 25a8 FF080000 		.4byte	.LASF157
 8339 25ac 01       		.byte	0x1
 8340 25ad 1C       		.byte	0x1c
 8341 25ae EE000000 		.4byte	0xee
 8342 25b2 05       		.uleb128 0x5
 8343 25b3 03       		.byte	0x3
 8344 25b4 00000000 		.4byte	power
 8345 25b8 3D       		.uleb128 0x3d
 8346 25b9 1C050000 		.4byte	.LASF158
ARM GAS  C:\Users\IVYLIU~1\AppData\Local\Temp\cc0nPDNQ.s 			page 164


 8347 25bd 01       		.byte	0x1
 8348 25be 1D       		.byte	0x1d
 8349 25bf EE000000 		.4byte	0xee
 8350 25c3 05       		.uleb128 0x5
 8351 25c4 03       		.byte	0x3
 8352 25c5 00000000 		.4byte	Deltapower
 8353 25c9 3D       		.uleb128 0x3d
 8354 25ca F8080000 		.4byte	.LASF106
 8355 25ce 01       		.byte	0x1
 8356 25cf 1E       		.byte	0x1e
 8357 25d0 EE000000 		.4byte	0xee
 8358 25d4 05       		.uleb128 0x5
 8359 25d5 03       		.byte	0x3
 8360 25d6 00000000 		.4byte	offset
 8361 25da 3D       		.uleb128 0x3d
 8362 25db 47050000 		.4byte	.LASF159
 8363 25df 01       		.byte	0x1
 8364 25e0 26       		.byte	0x26
 8365 25e1 BF000000 		.4byte	0xbf
 8366 25e5 05       		.uleb128 0x5
 8367 25e6 03       		.byte	0x3
 8368 25e7 00000000 		.4byte	adcResult
 8369 25eb 3D       		.uleb128 0x3d
 8370 25ec 92030000 		.4byte	.LASF160
 8371 25f0 01       		.byte	0x1
 8372 25f1 28       		.byte	0x28
 8373 25f2 BF000000 		.4byte	0xbf
 8374 25f6 05       		.uleb128 0x5
 8375 25f7 03       		.byte	0x3
 8376 25f8 00000000 		.4byte	fftSize
 8377 25fc 3D       		.uleb128 0x3d
 8378 25fd D30A0000 		.4byte	.LASF161
 8379 2601 01       		.byte	0x1
 8380 2602 29       		.byte	0x29
 8381 2603 BF000000 		.4byte	0xbf
 8382 2607 05       		.uleb128 0x5
 8383 2608 03       		.byte	0x3
 8384 2609 00000000 		.4byte	ifftFlag
 8385 260d 3D       		.uleb128 0x3d
 8386 260e 4E020000 		.4byte	.LASF162
 8387 2612 01       		.byte	0x1
 8388 2613 2A       		.byte	0x2a
 8389 2614 BF000000 		.4byte	0xbf
 8390 2618 05       		.uleb128 0x5
 8391 2619 03       		.byte	0x3
 8392 261a 00000000 		.4byte	doBitReverse
 8393 261e 3D       		.uleb128 0x3d
 8394 261f 0D050000 		.4byte	.LASF163
 8395 2623 01       		.byte	0x1
 8396 2624 2B       		.byte	0x2b
 8397 2625 1B070000 		.4byte	0x71b
 8398 2629 05       		.uleb128 0x5
 8399 262a 03       		.byte	0x3
 8400 262b 00000000 		.4byte	varInstCfftF32
 8401 262f 3D       		.uleb128 0x3d
 8402 2630 CA010000 		.4byte	.LASF164
 8403 2634 01       		.byte	0x1
ARM GAS  C:\Users\IVYLIU~1\AppData\Local\Temp\cc0nPDNQ.s 			page 165


 8404 2635 2C       		.byte	0x2c
 8405 2636 BF000000 		.4byte	0xbf
 8406 263a 05       		.uleb128 0x5
 8407 263b 03       		.byte	0x3
 8408 263c 00000000 		.4byte	testIndex
 8409 2640 3D       		.uleb128 0x3d
 8410 2641 8E050000 		.4byte	.LASF165
 8411 2645 01       		.byte	0x1
 8412 2646 2D       		.byte	0x2d
 8413 2647 90000000 		.4byte	0x90
 8414 264b 05       		.uleb128 0x5
 8415 264c 03       		.byte	0x3
 8416 264d 00000000 		.4byte	middle_c_bin
 8417 2651 1B       		.uleb128 0x1b
 8418 2652 6F060000 		.4byte	0x66f
 8419 2656 62260000 		.4byte	0x2662
 8420 265a 40       		.uleb128 0x40
 8421 265b 01010000 		.4byte	0x101
 8422 265f FF07     		.2byte	0x7ff
 8423 2661 00       		.byte	0
 8424 2662 3D       		.uleb128 0x3d
 8425 2663 A4000000 		.4byte	.LASF166
 8426 2667 01       		.byte	0x1
 8427 2668 2F       		.byte	0x2f
 8428 2669 51260000 		.4byte	0x2651
 8429 266d 05       		.uleb128 0x5
 8430 266e 03       		.byte	0x3
 8431 266f 00000000 		.4byte	testInput
 8432 2673 1B       		.uleb128 0x1b
 8433 2674 6F060000 		.4byte	0x66f
 8434 2678 84260000 		.4byte	0x2684
 8435 267c 40       		.uleb128 0x40
 8436 267d 01010000 		.4byte	0x101
 8437 2681 FF03     		.2byte	0x3ff
 8438 2683 00       		.byte	0
 8439 2684 3D       		.uleb128 0x3d
 8440 2685 19060000 		.4byte	.LASF167
 8441 2689 01       		.byte	0x1
 8442 268a 30       		.byte	0x30
 8443 268b 73260000 		.4byte	0x2673
 8444 268f 05       		.uleb128 0x5
 8445 2690 03       		.byte	0x3
 8446 2691 00000000 		.4byte	testOutput
 8447 2695 1B       		.uleb128 0x1b
 8448 2696 6F070000 		.4byte	0x76f
 8449 269a A5260000 		.4byte	0x26a5
 8450 269e 1C       		.uleb128 0x1c
 8451 269f 01010000 		.4byte	0x101
 8452 26a3 28       		.byte	0x28
 8453 26a4 00       		.byte	0
 8454 26a5 3D       		.uleb128 0x3d
 8455 26a6 040A0000 		.4byte	.LASF168
 8456 26aa 01       		.byte	0x1
 8457 26ab 63       		.byte	0x63
 8458 26ac 95260000 		.4byte	0x2695
 8459 26b0 05       		.uleb128 0x5
 8460 26b1 03       		.byte	0x3
ARM GAS  C:\Users\IVYLIU~1\AppData\Local\Temp\cc0nPDNQ.s 			page 166


 8461 26b2 00000000 		.4byte	notes
 8462 26b6 1B       		.uleb128 0x1b
 8463 26b7 10010000 		.4byte	0x110
 8464 26bb C6260000 		.4byte	0x26c6
 8465 26bf 1C       		.uleb128 0x1c
 8466 26c0 01010000 		.4byte	0x101
 8467 26c4 54       		.byte	0x54
 8468 26c5 00       		.byte	0
 8469 26c6 3D       		.uleb128 0x3d
 8470 26c7 EA030000 		.4byte	.LASF169
 8471 26cb 01       		.byte	0x1
 8472 26cc 9B       		.byte	0x9b
 8473 26cd B6260000 		.4byte	0x26b6
 8474 26d1 05       		.uleb128 0x5
 8475 26d2 03       		.byte	0x3
 8476 26d3 00000000 		.4byte	SONG0_SEQ
 8477 26d7 1B       		.uleb128 0x1b
 8478 26d8 10010000 		.4byte	0x110
 8479 26dc E7260000 		.4byte	0x26e7
 8480 26e0 1C       		.uleb128 0x1c
 8481 26e1 01010000 		.4byte	0x101
 8482 26e5 29       		.byte	0x29
 8483 26e6 00       		.byte	0
 8484 26e7 3D       		.uleb128 0x3d
 8485 26e8 C3070000 		.4byte	.LASF170
 8486 26ec 01       		.byte	0x1
 8487 26ed A5       		.byte	0xa5
 8488 26ee D7260000 		.4byte	0x26d7
 8489 26f2 05       		.uleb128 0x5
 8490 26f3 03       		.byte	0x3
 8491 26f4 00000000 		.4byte	SONG1_SEQ
 8492 26f8 3D       		.uleb128 0x3d
 8493 26f9 D4010000 		.4byte	.LASF171
 8494 26fd 01       		.byte	0x1
 8495 26fe AE       		.byte	0xae
 8496 26ff F9070000 		.4byte	0x7f9
 8497 2703 05       		.uleb128 0x5
 8498 2704 03       		.byte	0x3
 8499 2705 00000000 		.4byte	SONGS_LENGTH
 8500 2709 1B       		.uleb128 0x1b
 8501 270a BC070000 		.4byte	0x7bc
 8502 270e 19270000 		.4byte	0x2719
 8503 2712 1C       		.uleb128 0x1c
 8504 2713 01010000 		.4byte	0x101
 8505 2717 01       		.byte	0x1
 8506 2718 00       		.byte	0
 8507 2719 3D       		.uleb128 0x3d
 8508 271a D6070000 		.4byte	.LASF172
 8509 271e 01       		.byte	0x1
 8510 271f AF       		.byte	0xaf
 8511 2720 09270000 		.4byte	0x2709
 8512 2724 05       		.uleb128 0x5
 8513 2725 03       		.byte	0x3
 8514 2726 00000000 		.4byte	songs
 8515 272a 0B       		.uleb128 0xb
 8516 272b 08       		.byte	0x8
 8517 272c 0A       		.byte	0xa
ARM GAS  C:\Users\IVYLIU~1\AppData\Local\Temp\cc0nPDNQ.s 			page 167


 8518 272d 8D       		.byte	0x8d
 8519 272e 4B270000 		.4byte	0x274b
 8520 2732 0D       		.uleb128 0xd
 8521 2733 FE050000 		.4byte	.LASF173
 8522 2737 0A       		.byte	0xa
 8523 2738 8E       		.byte	0x8e
 8524 2739 DC240000 		.4byte	0x24dc
 8525 273d 00       		.byte	0
 8526 273e 0D       		.uleb128 0xd
 8527 273f 77070000 		.4byte	.LASF174
 8528 2743 0A       		.byte	0xa
 8529 2744 8F       		.byte	0x8f
 8530 2745 BF000000 		.4byte	0xbf
 8531 2749 04       		.byte	0x4
 8532 274a 00       		.byte	0
 8533 274b 0B       		.uleb128 0xb
 8534 274c 0C       		.byte	0xc
 8535 274d 0A       		.byte	0xa
 8536 274e 87       		.byte	0x87
 8537 274f 78270000 		.4byte	0x2778
 8538 2753 0C       		.uleb128 0xc
 8539 2754 73726300 		.ascii	"src\000"
 8540 2758 0A       		.byte	0xa
 8541 2759 88       		.byte	0x88
 8542 275a 27070000 		.4byte	0x727
 8543 275e 00       		.byte	0
 8544 275f 0D       		.uleb128 0xd
 8545 2760 FE050000 		.4byte	.LASF173
 8546 2764 0A       		.byte	0xa
 8547 2765 89       		.byte	0x89
 8548 2766 DC240000 		.4byte	0x24dc
 8549 276a 04       		.byte	0x4
 8550 276b 0D       		.uleb128 0xd
 8551 276c 77070000 		.4byte	.LASF174
 8552 2770 0A       		.byte	0xa
 8553 2771 8A       		.byte	0x8a
 8554 2772 BF000000 		.4byte	0xbf
 8555 2776 08       		.byte	0x8
 8556 2777 00       		.byte	0
 8557 2778 41       		.uleb128 0x41
 8558 2779 FA090000 		.4byte	.LASF211
 8559 277d 09       		.byte	0x9
 8560 277e 29       		.byte	0x29
 8561 277f 85270000 		.4byte	0x2785
 8562 2783 42       		.uleb128 0x42
 8563 2784 00       		.byte	0
 8564 2785 43       		.uleb128 0x43
 8565 2786 4F000000 		.4byte	.LASF176
 8566 278a 0D       		.byte	0xd
 8567 278b 1C       		.byte	0x1c
 8568 278c 90000000 		.4byte	0x90
 8569 2790 9F270000 		.4byte	0x279f
 8570 2794 10       		.uleb128 0x10
 8571 2795 10010000 		.4byte	0x110
 8572 2799 10       		.uleb128 0x10
 8573 279a 10010000 		.4byte	0x110
 8574 279e 00       		.byte	0
ARM GAS  C:\Users\IVYLIU~1\AppData\Local\Temp\cc0nPDNQ.s 			page 168


 8575 279f 44       		.uleb128 0x44
 8576 27a0 51050000 		.4byte	.LASF177
 8577 27a4 08       		.byte	0x8
 8578 27a5 2301     		.2byte	0x123
 8579 27a7 B5060000 		.4byte	0x6b5
 8580 27ab BA270000 		.4byte	0x27ba
 8581 27af 10       		.uleb128 0x10
 8582 27b0 BA270000 		.4byte	0x27ba
 8583 27b4 10       		.uleb128 0x10
 8584 27b5 A9000000 		.4byte	0xa9
 8585 27b9 00       		.byte	0
 8586 27ba 08       		.uleb128 0x8
 8587 27bb 04       		.byte	0x4
 8588 27bc 1B070000 		.4byte	0x71b
 8589 27c0 45       		.uleb128 0x45
 8590 27c1 6C010000 		.4byte	.LASF179
 8591 27c5 08       		.byte	0x8
 8592 27c6 2701     		.2byte	0x127
 8593 27c8 E1270000 		.4byte	0x27e1
 8594 27cc 10       		.uleb128 0x10
 8595 27cd E1270000 		.4byte	0x27e1
 8596 27d1 10       		.uleb128 0x10
 8597 27d2 C1060000 		.4byte	0x6c1
 8598 27d6 10       		.uleb128 0x10
 8599 27d7 9E000000 		.4byte	0x9e
 8600 27db 10       		.uleb128 0x10
 8601 27dc 9E000000 		.4byte	0x9e
 8602 27e0 00       		.byte	0
 8603 27e1 08       		.uleb128 0x8
 8604 27e2 04       		.byte	0x4
 8605 27e3 E7270000 		.4byte	0x27e7
 8606 27e7 09       		.uleb128 0x9
 8607 27e8 1B070000 		.4byte	0x71b
 8608 27ec 46       		.uleb128 0x46
 8609 27ed B9030000 		.4byte	.LASF180
 8610 27f1 0E       		.byte	0xe
 8611 27f2 8D       		.byte	0x8d
 8612 27f3 07280000 		.4byte	0x2807
 8613 27f7 10       		.uleb128 0x10
 8614 27f8 C7060000 		.4byte	0x6c7
 8615 27fc 10       		.uleb128 0x10
 8616 27fd C1060000 		.4byte	0x6c1
 8617 2801 10       		.uleb128 0x10
 8618 2802 BF000000 		.4byte	0xbf
 8619 2806 00       		.byte	0
 8620 2807 45       		.uleb128 0x45
 8621 2808 20090000 		.4byte	.LASF181
 8622 280c 0F       		.byte	0xf
 8623 280d C702     		.2byte	0x2c7
 8624 280f 28280000 		.4byte	0x2828
 8625 2813 10       		.uleb128 0x10
 8626 2814 C7060000 		.4byte	0x6c7
 8627 2818 10       		.uleb128 0x10
 8628 2819 BF000000 		.4byte	0xbf
 8629 281d 10       		.uleb128 0x10
 8630 281e C1060000 		.4byte	0x6c1
 8631 2822 10       		.uleb128 0x10
ARM GAS  C:\Users\IVYLIU~1\AppData\Local\Temp\cc0nPDNQ.s 			page 169


 8632 2823 DC240000 		.4byte	0x24dc
 8633 2827 00       		.byte	0
 8634 2828 46       		.uleb128 0x46
 8635 2829 64040000 		.4byte	.LASF182
 8636 282d 10       		.byte	0x10
 8637 282e 26       		.byte	0x26
 8638 282f 39280000 		.4byte	0x2839
 8639 2833 10       		.uleb128 0x10
 8640 2834 CA000000 		.4byte	0xca
 8641 2838 00       		.byte	0
 8642 2839 46       		.uleb128 0x46
 8643 283a E2000000 		.4byte	.LASF183
 8644 283e 11       		.byte	0x11
 8645 283f 76       		.byte	0x76
 8646 2840 4A280000 		.4byte	0x284a
 8647 2844 10       		.uleb128 0x10
 8648 2845 D6000000 		.4byte	0xd6
 8649 2849 00       		.byte	0
 8650 284a 47       		.uleb128 0x47
 8651 284b DC070000 		.4byte	.LASF185
 8652 284f 13       		.byte	0x13
 8653 2850 29       		.byte	0x29
 8654 2851 CA000000 		.4byte	0xca
 8655 2855 43       		.uleb128 0x43
 8656 2856 77090000 		.4byte	.LASF184
 8657 285a 12       		.byte	0x12
 8658 285b 3F       		.byte	0x3f
 8659 285c CA000000 		.4byte	0xca
 8660 2860 6A280000 		.4byte	0x286a
 8661 2864 10       		.uleb128 0x10
 8662 2865 CA000000 		.4byte	0xca
 8663 2869 00       		.byte	0
 8664 286a 47       		.uleb128 0x47
 8665 286b 59080000 		.4byte	.LASF186
 8666 286f 12       		.byte	0x12
 8667 2870 42       		.byte	0x42
 8668 2871 E2000000 		.4byte	0xe2
 8669 2875 45       		.uleb128 0x45
 8670 2876 0E080000 		.4byte	.LASF187
 8671 287a 0C       		.byte	0xc
 8672 287b C001     		.2byte	0x1c0
 8673 287d 87280000 		.4byte	0x2887
 8674 2881 10       		.uleb128 0x10
 8675 2882 38010000 		.4byte	0x138
 8676 2886 00       		.byte	0
 8677 2887 45       		.uleb128 0x45
 8678 2888 6C060000 		.4byte	.LASF188
 8679 288c 0C       		.byte	0xc
 8680 288d C101     		.2byte	0x1c1
 8681 288f 99280000 		.4byte	0x2899
 8682 2893 10       		.uleb128 0x10
 8683 2894 38010000 		.4byte	0x138
 8684 2898 00       		.byte	0
 8685 2899 44       		.uleb128 0x44
 8686 289a E2080000 		.4byte	.LASF189
 8687 289e 0C       		.byte	0xc
 8688 289f 2B03     		.2byte	0x32b
ARM GAS  C:\Users\IVYLIU~1\AppData\Local\Temp\cc0nPDNQ.s 			page 170


 8689 28a1 8D050000 		.4byte	0x58d
 8690 28a5 AF280000 		.4byte	0x28af
 8691 28a9 10       		.uleb128 0x10
 8692 28aa 8D050000 		.4byte	0x58d
 8693 28ae 00       		.byte	0
 8694 28af 44       		.uleb128 0x44
 8695 28b0 2C090000 		.4byte	.LASF190
 8696 28b4 0C       		.byte	0xc
 8697 28b5 2703     		.2byte	0x327
 8698 28b7 90000000 		.4byte	0x90
 8699 28bb C5280000 		.4byte	0x28c5
 8700 28bf 10       		.uleb128 0x10
 8701 28c0 90000000 		.4byte	0x90
 8702 28c4 00       		.byte	0
 8703 28c5 44       		.uleb128 0x44
 8704 28c6 0A0A0000 		.4byte	.LASF191
 8705 28ca 0C       		.byte	0xc
 8706 28cb 2603     		.2byte	0x326
 8707 28cd 90000000 		.4byte	0x90
 8708 28d1 DB280000 		.4byte	0x28db
 8709 28d5 10       		.uleb128 0x10
 8710 28d6 90000000 		.4byte	0x90
 8711 28da 00       		.byte	0
 8712 28db 48       		.uleb128 0x48
 8713 28dc 31050000 		.4byte	.LASF201
 8714 28e0 0C       		.byte	0xc
 8715 28e1 F601     		.2byte	0x1f6
 8716 28e3 45       		.uleb128 0x45
 8717 28e4 8A020000 		.4byte	.LASF192
 8718 28e8 0C       		.byte	0xc
 8719 28e9 0703     		.2byte	0x307
 8720 28eb FF280000 		.4byte	0x28ff
 8721 28ef 10       		.uleb128 0x10
 8722 28f0 10010000 		.4byte	0x110
 8723 28f4 10       		.uleb128 0x10
 8724 28f5 90000000 		.4byte	0x90
 8725 28f9 10       		.uleb128 0x10
 8726 28fa 90000000 		.4byte	0x90
 8727 28fe 00       		.byte	0
 8728 28ff 47       		.uleb128 0x47
 8729 2900 AA030000 		.4byte	.LASF193
 8730 2904 14       		.byte	0x14
 8731 2905 29       		.byte	0x29
 8732 2906 CA000000 		.4byte	0xca
 8733 290a 49       		.uleb128 0x49
 8734 290b 9C0A0000 		.4byte	.LASF194
 8735 290f 0C       		.byte	0xc
 8736 2910 B701     		.2byte	0x1b7
 8737 2912 38010000 		.4byte	0x138
 8738 2916 45       		.uleb128 0x45
 8739 2917 340A0000 		.4byte	.LASF195
 8740 291b 0C       		.byte	0xc
 8741 291c 1A02     		.2byte	0x21a
 8742 291e 37290000 		.4byte	0x2937
 8743 2922 10       		.uleb128 0x10
 8744 2923 90000000 		.4byte	0x90
 8745 2927 10       		.uleb128 0x10
ARM GAS  C:\Users\IVYLIU~1\AppData\Local\Temp\cc0nPDNQ.s 			page 171


 8746 2928 90000000 		.4byte	0x90
 8747 292c 10       		.uleb128 0x10
 8748 292d 90000000 		.4byte	0x90
 8749 2931 10       		.uleb128 0x10
 8750 2932 90000000 		.4byte	0x90
 8751 2936 00       		.byte	0
 8752 2937 45       		.uleb128 0x45
 8753 2938 4E060000 		.4byte	.LASF196
 8754 293c 0C       		.byte	0xc
 8755 293d 1D02     		.2byte	0x21d
 8756 293f 5D290000 		.4byte	0x295d
 8757 2943 10       		.uleb128 0x10
 8758 2944 90000000 		.4byte	0x90
 8759 2948 10       		.uleb128 0x10
 8760 2949 90000000 		.4byte	0x90
 8761 294d 10       		.uleb128 0x10
 8762 294e 90000000 		.4byte	0x90
 8763 2952 10       		.uleb128 0x10
 8764 2953 90000000 		.4byte	0x90
 8765 2957 10       		.uleb128 0x10
 8766 2958 90000000 		.4byte	0x90
 8767 295c 00       		.byte	0
 8768 295d 45       		.uleb128 0x45
 8769 295e B1020000 		.4byte	.LASF197
 8770 2962 0C       		.byte	0xc
 8771 2963 1802     		.2byte	0x218
 8772 2965 7E290000 		.4byte	0x297e
 8773 2969 10       		.uleb128 0x10
 8774 296a 90000000 		.4byte	0x90
 8775 296e 10       		.uleb128 0x10
 8776 296f 90000000 		.4byte	0x90
 8777 2973 10       		.uleb128 0x10
 8778 2974 90000000 		.4byte	0x90
 8779 2978 10       		.uleb128 0x10
 8780 2979 90000000 		.4byte	0x90
 8781 297d 00       		.byte	0
 8782 297e 45       		.uleb128 0x45
 8783 297f FC040000 		.4byte	.LASF198
 8784 2983 0C       		.byte	0xc
 8785 2984 0503     		.2byte	0x305
 8786 2986 9A290000 		.4byte	0x299a
 8787 298a 10       		.uleb128 0x10
 8788 298b 10010000 		.4byte	0x110
 8789 298f 10       		.uleb128 0x10
 8790 2990 90000000 		.4byte	0x90
 8791 2994 10       		.uleb128 0x10
 8792 2995 90000000 		.4byte	0x90
 8793 2999 00       		.byte	0
 8794 299a 45       		.uleb128 0x45
 8795 299b BE050000 		.4byte	.LASF199
 8796 299f 0C       		.byte	0xc
 8797 29a0 1202     		.2byte	0x212
 8798 29a2 BB290000 		.4byte	0x29bb
 8799 29a6 10       		.uleb128 0x10
 8800 29a7 90000000 		.4byte	0x90
 8801 29ab 10       		.uleb128 0x10
 8802 29ac 90000000 		.4byte	0x90
ARM GAS  C:\Users\IVYLIU~1\AppData\Local\Temp\cc0nPDNQ.s 			page 172


 8803 29b0 10       		.uleb128 0x10
 8804 29b1 90000000 		.4byte	0x90
 8805 29b5 10       		.uleb128 0x10
 8806 29b6 90000000 		.4byte	0x90
 8807 29ba 00       		.byte	0
 8808 29bb 43       		.uleb128 0x43
 8809 29bc 78000000 		.4byte	.LASF200
 8810 29c0 15       		.byte	0x15
 8811 29c1 DE       		.byte	0xde
 8812 29c2 90000000 		.4byte	0x90
 8813 29c6 D6290000 		.4byte	0x29d6
 8814 29ca 10       		.uleb128 0x10
 8815 29cb 0A010000 		.4byte	0x10a
 8816 29cf 10       		.uleb128 0x10
 8817 29d0 10010000 		.4byte	0x110
 8818 29d4 42       		.uleb128 0x42
 8819 29d5 00       		.byte	0
 8820 29d6 4A       		.uleb128 0x4a
 8821 29d7 3C030000 		.4byte	.LASF202
 8822 29db 12       		.byte	0x12
 8823 29dc 3A       		.byte	0x3a
 8824 29dd 4A       		.uleb128 0x4a
 8825 29de EF070000 		.4byte	.LASF203
 8826 29e2 12       		.byte	0x12
 8827 29e3 3D       		.byte	0x3d
 8828 29e4 4A       		.uleb128 0x4a
 8829 29e5 4D0A0000 		.4byte	.LASF204
 8830 29e9 16       		.byte	0x16
 8831 29ea 53       		.byte	0x53
 8832 29eb 49       		.uleb128 0x49
 8833 29ec 720A0000 		.4byte	.LASF205
 8834 29f0 0C       		.byte	0xc
 8835 29f1 6D01     		.2byte	0x16d
 8836 29f3 90000000 		.4byte	0x90
 8837 29f7 43       		.uleb128 0x43
 8838 29f8 D7040000 		.4byte	.LASF206
 8839 29fc 09       		.byte	0x9
 8840 29fd 26       		.byte	0x26
 8841 29fe 162A0000 		.4byte	0x2a16
 8842 2a02 162A0000 		.4byte	0x2a16
 8843 2a06 10       		.uleb128 0x10
 8844 2a07 97000000 		.4byte	0x97
 8845 2a0b 10       		.uleb128 0x10
 8846 2a0c 08010000 		.4byte	0x108
 8847 2a10 10       		.uleb128 0x10
 8848 2a11 25000000 		.4byte	0x25
 8849 2a15 00       		.byte	0
 8850 2a16 08       		.uleb128 0x8
 8851 2a17 04       		.byte	0x4
 8852 2a18 1C2A0000 		.4byte	0x2a1c
 8853 2a1c 4B       		.uleb128 0x4b
 8854 2a1d 00       		.byte	0
 8855              		.section	.debug_abbrev,"",%progbits
 8856              	.Ldebug_abbrev0:
 8857 0000 01       		.uleb128 0x1
 8858 0001 11       		.uleb128 0x11
 8859 0002 01       		.byte	0x1
ARM GAS  C:\Users\IVYLIU~1\AppData\Local\Temp\cc0nPDNQ.s 			page 173


 8860 0003 25       		.uleb128 0x25
 8861 0004 0E       		.uleb128 0xe
 8862 0005 13       		.uleb128 0x13
 8863 0006 0B       		.uleb128 0xb
 8864 0007 03       		.uleb128 0x3
 8865 0008 0E       		.uleb128 0xe
 8866 0009 1B       		.uleb128 0x1b
 8867 000a 0E       		.uleb128 0xe
 8868 000b 55       		.uleb128 0x55
 8869 000c 17       		.uleb128 0x17
 8870 000d 11       		.uleb128 0x11
 8871 000e 01       		.uleb128 0x1
 8872 000f 10       		.uleb128 0x10
 8873 0010 17       		.uleb128 0x17
 8874 0011 00       		.byte	0
 8875 0012 00       		.byte	0
 8876 0013 02       		.uleb128 0x2
 8877 0014 24       		.uleb128 0x24
 8878 0015 00       		.byte	0
 8879 0016 0B       		.uleb128 0xb
 8880 0017 0B       		.uleb128 0xb
 8881 0018 3E       		.uleb128 0x3e
 8882 0019 0B       		.uleb128 0xb
 8883 001a 03       		.uleb128 0x3
 8884 001b 0E       		.uleb128 0xe
 8885 001c 00       		.byte	0
 8886 001d 00       		.byte	0
 8887 001e 03       		.uleb128 0x3
 8888 001f 16       		.uleb128 0x16
 8889 0020 00       		.byte	0
 8890 0021 03       		.uleb128 0x3
 8891 0022 0E       		.uleb128 0xe
 8892 0023 3A       		.uleb128 0x3a
 8893 0024 0B       		.uleb128 0xb
 8894 0025 3B       		.uleb128 0x3b
 8895 0026 0B       		.uleb128 0xb
 8896 0027 49       		.uleb128 0x49
 8897 0028 13       		.uleb128 0x13
 8898 0029 00       		.byte	0
 8899 002a 00       		.byte	0
 8900 002b 04       		.uleb128 0x4
 8901 002c 24       		.uleb128 0x24
 8902 002d 00       		.byte	0
 8903 002e 0B       		.uleb128 0xb
 8904 002f 0B       		.uleb128 0xb
 8905 0030 3E       		.uleb128 0x3e
 8906 0031 0B       		.uleb128 0xb
 8907 0032 03       		.uleb128 0x3
 8908 0033 08       		.uleb128 0x8
 8909 0034 00       		.byte	0
 8910 0035 00       		.byte	0
 8911 0036 05       		.uleb128 0x5
 8912 0037 16       		.uleb128 0x16
 8913 0038 00       		.byte	0
 8914 0039 03       		.uleb128 0x3
 8915 003a 0E       		.uleb128 0xe
 8916 003b 3A       		.uleb128 0x3a
ARM GAS  C:\Users\IVYLIU~1\AppData\Local\Temp\cc0nPDNQ.s 			page 174


 8917 003c 0B       		.uleb128 0xb
 8918 003d 3B       		.uleb128 0x3b
 8919 003e 05       		.uleb128 0x5
 8920 003f 49       		.uleb128 0x49
 8921 0040 13       		.uleb128 0x13
 8922 0041 00       		.byte	0
 8923 0042 00       		.byte	0
 8924 0043 06       		.uleb128 0x6
 8925 0044 35       		.uleb128 0x35
 8926 0045 00       		.byte	0
 8927 0046 49       		.uleb128 0x49
 8928 0047 13       		.uleb128 0x13
 8929 0048 00       		.byte	0
 8930 0049 00       		.byte	0
 8931 004a 07       		.uleb128 0x7
 8932 004b 0F       		.uleb128 0xf
 8933 004c 00       		.byte	0
 8934 004d 0B       		.uleb128 0xb
 8935 004e 0B       		.uleb128 0xb
 8936 004f 00       		.byte	0
 8937 0050 00       		.byte	0
 8938 0051 08       		.uleb128 0x8
 8939 0052 0F       		.uleb128 0xf
 8940 0053 00       		.byte	0
 8941 0054 0B       		.uleb128 0xb
 8942 0055 0B       		.uleb128 0xb
 8943 0056 49       		.uleb128 0x49
 8944 0057 13       		.uleb128 0x13
 8945 0058 00       		.byte	0
 8946 0059 00       		.byte	0
 8947 005a 09       		.uleb128 0x9
 8948 005b 26       		.uleb128 0x26
 8949 005c 00       		.byte	0
 8950 005d 49       		.uleb128 0x49
 8951 005e 13       		.uleb128 0x13
 8952 005f 00       		.byte	0
 8953 0060 00       		.byte	0
 8954 0061 0A       		.uleb128 0xa
 8955 0062 26       		.uleb128 0x26
 8956 0063 00       		.byte	0
 8957 0064 00       		.byte	0
 8958 0065 00       		.byte	0
 8959 0066 0B       		.uleb128 0xb
 8960 0067 13       		.uleb128 0x13
 8961 0068 01       		.byte	0x1
 8962 0069 0B       		.uleb128 0xb
 8963 006a 0B       		.uleb128 0xb
 8964 006b 3A       		.uleb128 0x3a
 8965 006c 0B       		.uleb128 0xb
 8966 006d 3B       		.uleb128 0x3b
 8967 006e 0B       		.uleb128 0xb
 8968 006f 01       		.uleb128 0x1
 8969 0070 13       		.uleb128 0x13
 8970 0071 00       		.byte	0
 8971 0072 00       		.byte	0
 8972 0073 0C       		.uleb128 0xc
 8973 0074 0D       		.uleb128 0xd
ARM GAS  C:\Users\IVYLIU~1\AppData\Local\Temp\cc0nPDNQ.s 			page 175


 8974 0075 00       		.byte	0
 8975 0076 03       		.uleb128 0x3
 8976 0077 08       		.uleb128 0x8
 8977 0078 3A       		.uleb128 0x3a
 8978 0079 0B       		.uleb128 0xb
 8979 007a 3B       		.uleb128 0x3b
 8980 007b 0B       		.uleb128 0xb
 8981 007c 49       		.uleb128 0x49
 8982 007d 13       		.uleb128 0x13
 8983 007e 38       		.uleb128 0x38
 8984 007f 0B       		.uleb128 0xb
 8985 0080 00       		.byte	0
 8986 0081 00       		.byte	0
 8987 0082 0D       		.uleb128 0xd
 8988 0083 0D       		.uleb128 0xd
 8989 0084 00       		.byte	0
 8990 0085 03       		.uleb128 0x3
 8991 0086 0E       		.uleb128 0xe
 8992 0087 3A       		.uleb128 0x3a
 8993 0088 0B       		.uleb128 0xb
 8994 0089 3B       		.uleb128 0x3b
 8995 008a 0B       		.uleb128 0xb
 8996 008b 49       		.uleb128 0x49
 8997 008c 13       		.uleb128 0x13
 8998 008d 38       		.uleb128 0x38
 8999 008e 0B       		.uleb128 0xb
 9000 008f 00       		.byte	0
 9001 0090 00       		.byte	0
 9002 0091 0E       		.uleb128 0xe
 9003 0092 13       		.uleb128 0x13
 9004 0093 01       		.byte	0x1
 9005 0094 03       		.uleb128 0x3
 9006 0095 0E       		.uleb128 0xe
 9007 0096 0B       		.uleb128 0xb
 9008 0097 0B       		.uleb128 0xb
 9009 0098 3A       		.uleb128 0x3a
 9010 0099 0B       		.uleb128 0xb
 9011 009a 3B       		.uleb128 0x3b
 9012 009b 0B       		.uleb128 0xb
 9013 009c 01       		.uleb128 0x1
 9014 009d 13       		.uleb128 0x13
 9015 009e 00       		.byte	0
 9016 009f 00       		.byte	0
 9017 00a0 0F       		.uleb128 0xf
 9018 00a1 15       		.uleb128 0x15
 9019 00a2 01       		.byte	0x1
 9020 00a3 27       		.uleb128 0x27
 9021 00a4 19       		.uleb128 0x19
 9022 00a5 49       		.uleb128 0x49
 9023 00a6 13       		.uleb128 0x13
 9024 00a7 01       		.uleb128 0x1
 9025 00a8 13       		.uleb128 0x13
 9026 00a9 00       		.byte	0
 9027 00aa 00       		.byte	0
 9028 00ab 10       		.uleb128 0x10
 9029 00ac 05       		.uleb128 0x5
 9030 00ad 00       		.byte	0
ARM GAS  C:\Users\IVYLIU~1\AppData\Local\Temp\cc0nPDNQ.s 			page 176


 9031 00ae 49       		.uleb128 0x49
 9032 00af 13       		.uleb128 0x13
 9033 00b0 00       		.byte	0
 9034 00b1 00       		.byte	0
 9035 00b2 11       		.uleb128 0x11
 9036 00b3 15       		.uleb128 0x15
 9037 00b4 01       		.byte	0x1
 9038 00b5 27       		.uleb128 0x27
 9039 00b6 19       		.uleb128 0x19
 9040 00b7 01       		.uleb128 0x1
 9041 00b8 13       		.uleb128 0x13
 9042 00b9 00       		.byte	0
 9043 00ba 00       		.byte	0
 9044 00bb 12       		.uleb128 0x12
 9045 00bc 13       		.uleb128 0x13
 9046 00bd 01       		.byte	0x1
 9047 00be 0B       		.uleb128 0xb
 9048 00bf 0B       		.uleb128 0xb
 9049 00c0 3A       		.uleb128 0x3a
 9050 00c1 0B       		.uleb128 0xb
 9051 00c2 3B       		.uleb128 0x3b
 9052 00c3 05       		.uleb128 0x5
 9053 00c4 01       		.uleb128 0x1
 9054 00c5 13       		.uleb128 0x13
 9055 00c6 00       		.byte	0
 9056 00c7 00       		.byte	0
 9057 00c8 13       		.uleb128 0x13
 9058 00c9 0D       		.uleb128 0xd
 9059 00ca 00       		.byte	0
 9060 00cb 03       		.uleb128 0x3
 9061 00cc 0E       		.uleb128 0xe
 9062 00cd 3A       		.uleb128 0x3a
 9063 00ce 0B       		.uleb128 0xb
 9064 00cf 3B       		.uleb128 0x3b
 9065 00d0 05       		.uleb128 0x5
 9066 00d1 49       		.uleb128 0x49
 9067 00d2 13       		.uleb128 0x13
 9068 00d3 38       		.uleb128 0x38
 9069 00d4 0B       		.uleb128 0xb
 9070 00d5 00       		.byte	0
 9071 00d6 00       		.byte	0
 9072 00d7 14       		.uleb128 0x14
 9073 00d8 13       		.uleb128 0x13
 9074 00d9 01       		.byte	0x1
 9075 00da 03       		.uleb128 0x3
 9076 00db 0E       		.uleb128 0xe
 9077 00dc 0B       		.uleb128 0xb
 9078 00dd 0B       		.uleb128 0xb
 9079 00de 3A       		.uleb128 0x3a
 9080 00df 0B       		.uleb128 0xb
 9081 00e0 3B       		.uleb128 0x3b
 9082 00e1 05       		.uleb128 0x5
 9083 00e2 01       		.uleb128 0x1
 9084 00e3 13       		.uleb128 0x13
 9085 00e4 00       		.byte	0
 9086 00e5 00       		.byte	0
 9087 00e6 15       		.uleb128 0x15
ARM GAS  C:\Users\IVYLIU~1\AppData\Local\Temp\cc0nPDNQ.s 			page 177


 9088 00e7 0D       		.uleb128 0xd
 9089 00e8 00       		.byte	0
 9090 00e9 03       		.uleb128 0x3
 9091 00ea 08       		.uleb128 0x8
 9092 00eb 3A       		.uleb128 0x3a
 9093 00ec 0B       		.uleb128 0xb
 9094 00ed 3B       		.uleb128 0x3b
 9095 00ee 05       		.uleb128 0x5
 9096 00ef 49       		.uleb128 0x49
 9097 00f0 13       		.uleb128 0x13
 9098 00f1 38       		.uleb128 0x38
 9099 00f2 0B       		.uleb128 0xb
 9100 00f3 00       		.byte	0
 9101 00f4 00       		.byte	0
 9102 00f5 16       		.uleb128 0x16
 9103 00f6 17       		.uleb128 0x17
 9104 00f7 01       		.byte	0x1
 9105 00f8 0B       		.uleb128 0xb
 9106 00f9 0B       		.uleb128 0xb
 9107 00fa 3A       		.uleb128 0x3a
 9108 00fb 0B       		.uleb128 0xb
 9109 00fc 3B       		.uleb128 0x3b
 9110 00fd 05       		.uleb128 0x5
 9111 00fe 01       		.uleb128 0x1
 9112 00ff 13       		.uleb128 0x13
 9113 0100 00       		.byte	0
 9114 0101 00       		.byte	0
 9115 0102 17       		.uleb128 0x17
 9116 0103 0D       		.uleb128 0xd
 9117 0104 00       		.byte	0
 9118 0105 03       		.uleb128 0x3
 9119 0106 0E       		.uleb128 0xe
 9120 0107 3A       		.uleb128 0x3a
 9121 0108 0B       		.uleb128 0xb
 9122 0109 3B       		.uleb128 0x3b
 9123 010a 05       		.uleb128 0x5
 9124 010b 49       		.uleb128 0x49
 9125 010c 13       		.uleb128 0x13
 9126 010d 00       		.byte	0
 9127 010e 00       		.byte	0
 9128 010f 18       		.uleb128 0x18
 9129 0110 04       		.uleb128 0x4
 9130 0111 01       		.byte	0x1
 9131 0112 0B       		.uleb128 0xb
 9132 0113 0B       		.uleb128 0xb
 9133 0114 3A       		.uleb128 0x3a
 9134 0115 0B       		.uleb128 0xb
 9135 0116 3B       		.uleb128 0x3b
 9136 0117 05       		.uleb128 0x5
 9137 0118 01       		.uleb128 0x1
 9138 0119 13       		.uleb128 0x13
 9139 011a 00       		.byte	0
 9140 011b 00       		.byte	0
 9141 011c 19       		.uleb128 0x19
 9142 011d 28       		.uleb128 0x28
 9143 011e 00       		.byte	0
 9144 011f 03       		.uleb128 0x3
ARM GAS  C:\Users\IVYLIU~1\AppData\Local\Temp\cc0nPDNQ.s 			page 178


 9145 0120 0E       		.uleb128 0xe
 9146 0121 1C       		.uleb128 0x1c
 9147 0122 0D       		.uleb128 0xd
 9148 0123 00       		.byte	0
 9149 0124 00       		.byte	0
 9150 0125 1A       		.uleb128 0x1a
 9151 0126 04       		.uleb128 0x4
 9152 0127 01       		.byte	0x1
 9153 0128 03       		.uleb128 0x3
 9154 0129 0E       		.uleb128 0xe
 9155 012a 0B       		.uleb128 0xb
 9156 012b 0B       		.uleb128 0xb
 9157 012c 3A       		.uleb128 0x3a
 9158 012d 0B       		.uleb128 0xb
 9159 012e 3B       		.uleb128 0x3b
 9160 012f 0B       		.uleb128 0xb
 9161 0130 01       		.uleb128 0x1
 9162 0131 13       		.uleb128 0x13
 9163 0132 00       		.byte	0
 9164 0133 00       		.byte	0
 9165 0134 1B       		.uleb128 0x1b
 9166 0135 01       		.uleb128 0x1
 9167 0136 01       		.byte	0x1
 9168 0137 49       		.uleb128 0x49
 9169 0138 13       		.uleb128 0x13
 9170 0139 01       		.uleb128 0x1
 9171 013a 13       		.uleb128 0x13
 9172 013b 00       		.byte	0
 9173 013c 00       		.byte	0
 9174 013d 1C       		.uleb128 0x1c
 9175 013e 21       		.uleb128 0x21
 9176 013f 00       		.byte	0
 9177 0140 49       		.uleb128 0x49
 9178 0141 13       		.uleb128 0x13
 9179 0142 2F       		.uleb128 0x2f
 9180 0143 0B       		.uleb128 0xb
 9181 0144 00       		.byte	0
 9182 0145 00       		.byte	0
 9183 0146 1D       		.uleb128 0x1d
 9184 0147 2E       		.uleb128 0x2e
 9185 0148 01       		.byte	0x1
 9186 0149 3F       		.uleb128 0x3f
 9187 014a 19       		.uleb128 0x19
 9188 014b 03       		.uleb128 0x3
 9189 014c 0E       		.uleb128 0xe
 9190 014d 3A       		.uleb128 0x3a
 9191 014e 0B       		.uleb128 0xb
 9192 014f 3B       		.uleb128 0x3b
 9193 0150 05       		.uleb128 0x5
 9194 0151 27       		.uleb128 0x27
 9195 0152 19       		.uleb128 0x19
 9196 0153 49       		.uleb128 0x49
 9197 0154 13       		.uleb128 0x13
 9198 0155 20       		.uleb128 0x20
 9199 0156 0B       		.uleb128 0xb
 9200 0157 01       		.uleb128 0x1
 9201 0158 13       		.uleb128 0x13
ARM GAS  C:\Users\IVYLIU~1\AppData\Local\Temp\cc0nPDNQ.s 			page 179


 9202 0159 00       		.byte	0
 9203 015a 00       		.byte	0
 9204 015b 1E       		.uleb128 0x1e
 9205 015c 34       		.uleb128 0x34
 9206 015d 00       		.byte	0
 9207 015e 03       		.uleb128 0x3
 9208 015f 0E       		.uleb128 0xe
 9209 0160 3A       		.uleb128 0x3a
 9210 0161 0B       		.uleb128 0xb
 9211 0162 3B       		.uleb128 0x3b
 9212 0163 05       		.uleb128 0x5
 9213 0164 49       		.uleb128 0x49
 9214 0165 13       		.uleb128 0x13
 9215 0166 00       		.byte	0
 9216 0167 00       		.byte	0
 9217 0168 1F       		.uleb128 0x1f
 9218 0169 34       		.uleb128 0x34
 9219 016a 00       		.byte	0
 9220 016b 03       		.uleb128 0x3
 9221 016c 08       		.uleb128 0x8
 9222 016d 3A       		.uleb128 0x3a
 9223 016e 0B       		.uleb128 0xb
 9224 016f 3B       		.uleb128 0x3b
 9225 0170 05       		.uleb128 0x5
 9226 0171 49       		.uleb128 0x49
 9227 0172 13       		.uleb128 0x13
 9228 0173 00       		.byte	0
 9229 0174 00       		.byte	0
 9230 0175 20       		.uleb128 0x20
 9231 0176 0B       		.uleb128 0xb
 9232 0177 01       		.byte	0x1
 9233 0178 00       		.byte	0
 9234 0179 00       		.byte	0
 9235 017a 21       		.uleb128 0x21
 9236 017b 2E       		.uleb128 0x2e
 9237 017c 01       		.byte	0x1
 9238 017d 3F       		.uleb128 0x3f
 9239 017e 19       		.uleb128 0x19
 9240 017f 03       		.uleb128 0x3
 9241 0180 0E       		.uleb128 0xe
 9242 0181 3A       		.uleb128 0x3a
 9243 0182 0B       		.uleb128 0xb
 9244 0183 3B       		.uleb128 0x3b
 9245 0184 05       		.uleb128 0x5
 9246 0185 27       		.uleb128 0x27
 9247 0186 19       		.uleb128 0x19
 9248 0187 20       		.uleb128 0x20
 9249 0188 0B       		.uleb128 0xb
 9250 0189 01       		.uleb128 0x1
 9251 018a 13       		.uleb128 0x13
 9252 018b 00       		.byte	0
 9253 018c 00       		.byte	0
 9254 018d 22       		.uleb128 0x22
 9255 018e 05       		.uleb128 0x5
 9256 018f 00       		.byte	0
 9257 0190 03       		.uleb128 0x3
 9258 0191 08       		.uleb128 0x8
ARM GAS  C:\Users\IVYLIU~1\AppData\Local\Temp\cc0nPDNQ.s 			page 180


 9259 0192 3A       		.uleb128 0x3a
 9260 0193 0B       		.uleb128 0xb
 9261 0194 3B       		.uleb128 0x3b
 9262 0195 05       		.uleb128 0x5
 9263 0196 49       		.uleb128 0x49
 9264 0197 13       		.uleb128 0x13
 9265 0198 00       		.byte	0
 9266 0199 00       		.byte	0
 9267 019a 23       		.uleb128 0x23
 9268 019b 2E       		.uleb128 0x2e
 9269 019c 01       		.byte	0x1
 9270 019d 31       		.uleb128 0x31
 9271 019e 13       		.uleb128 0x13
 9272 019f 11       		.uleb128 0x11
 9273 01a0 01       		.uleb128 0x1
 9274 01a1 12       		.uleb128 0x12
 9275 01a2 06       		.uleb128 0x6
 9276 01a3 40       		.uleb128 0x40
 9277 01a4 18       		.uleb128 0x18
 9278 01a5 9742     		.uleb128 0x2117
 9279 01a7 19       		.uleb128 0x19
 9280 01a8 01       		.uleb128 0x1
 9281 01a9 13       		.uleb128 0x13
 9282 01aa 00       		.byte	0
 9283 01ab 00       		.byte	0
 9284 01ac 24       		.uleb128 0x24
 9285 01ad 05       		.uleb128 0x5
 9286 01ae 00       		.byte	0
 9287 01af 31       		.uleb128 0x31
 9288 01b0 13       		.uleb128 0x13
 9289 01b1 02       		.uleb128 0x2
 9290 01b2 17       		.uleb128 0x17
 9291 01b3 00       		.byte	0
 9292 01b4 00       		.byte	0
 9293 01b5 25       		.uleb128 0x25
 9294 01b6 05       		.uleb128 0x5
 9295 01b7 00       		.byte	0
 9296 01b8 31       		.uleb128 0x31
 9297 01b9 13       		.uleb128 0x13
 9298 01ba 02       		.uleb128 0x2
 9299 01bb 18       		.uleb128 0x18
 9300 01bc 00       		.byte	0
 9301 01bd 00       		.byte	0
 9302 01be 26       		.uleb128 0x26
 9303 01bf 2E       		.uleb128 0x2e
 9304 01c0 01       		.byte	0x1
 9305 01c1 3F       		.uleb128 0x3f
 9306 01c2 19       		.uleb128 0x19
 9307 01c3 03       		.uleb128 0x3
 9308 01c4 0E       		.uleb128 0xe
 9309 01c5 3A       		.uleb128 0x3a
 9310 01c6 0B       		.uleb128 0xb
 9311 01c7 3B       		.uleb128 0x3b
 9312 01c8 05       		.uleb128 0x5
 9313 01c9 27       		.uleb128 0x27
 9314 01ca 19       		.uleb128 0x19
 9315 01cb 11       		.uleb128 0x11
ARM GAS  C:\Users\IVYLIU~1\AppData\Local\Temp\cc0nPDNQ.s 			page 181


 9316 01cc 01       		.uleb128 0x1
 9317 01cd 12       		.uleb128 0x12
 9318 01ce 06       		.uleb128 0x6
 9319 01cf 40       		.uleb128 0x40
 9320 01d0 18       		.uleb128 0x18
 9321 01d1 9742     		.uleb128 0x2117
 9322 01d3 19       		.uleb128 0x19
 9323 01d4 01       		.uleb128 0x1
 9324 01d5 13       		.uleb128 0x13
 9325 01d6 00       		.byte	0
 9326 01d7 00       		.byte	0
 9327 01d8 27       		.uleb128 0x27
 9328 01d9 0B       		.uleb128 0xb
 9329 01da 01       		.byte	0x1
 9330 01db 11       		.uleb128 0x11
 9331 01dc 01       		.uleb128 0x1
 9332 01dd 12       		.uleb128 0x12
 9333 01de 06       		.uleb128 0x6
 9334 01df 01       		.uleb128 0x1
 9335 01e0 13       		.uleb128 0x13
 9336 01e1 00       		.byte	0
 9337 01e2 00       		.byte	0
 9338 01e3 28       		.uleb128 0x28
 9339 01e4 34       		.uleb128 0x34
 9340 01e5 00       		.byte	0
 9341 01e6 03       		.uleb128 0x3
 9342 01e7 08       		.uleb128 0x8
 9343 01e8 3A       		.uleb128 0x3a
 9344 01e9 0B       		.uleb128 0xb
 9345 01ea 3B       		.uleb128 0x3b
 9346 01eb 05       		.uleb128 0x5
 9347 01ec 49       		.uleb128 0x49
 9348 01ed 13       		.uleb128 0x13
 9349 01ee 02       		.uleb128 0x2
 9350 01ef 17       		.uleb128 0x17
 9351 01f0 00       		.byte	0
 9352 01f1 00       		.byte	0
 9353 01f2 29       		.uleb128 0x29
 9354 01f3 898201   		.uleb128 0x4109
 9355 01f6 01       		.byte	0x1
 9356 01f7 11       		.uleb128 0x11
 9357 01f8 01       		.uleb128 0x1
 9358 01f9 31       		.uleb128 0x31
 9359 01fa 13       		.uleb128 0x13
 9360 01fb 00       		.byte	0
 9361 01fc 00       		.byte	0
 9362 01fd 2A       		.uleb128 0x2a
 9363 01fe 8A8201   		.uleb128 0x410a
 9364 0201 00       		.byte	0
 9365 0202 02       		.uleb128 0x2
 9366 0203 18       		.uleb128 0x18
 9367 0204 9142     		.uleb128 0x2111
 9368 0206 18       		.uleb128 0x18
 9369 0207 00       		.byte	0
 9370 0208 00       		.byte	0
 9371 0209 2B       		.uleb128 0x2b
 9372 020a 898201   		.uleb128 0x4109
ARM GAS  C:\Users\IVYLIU~1\AppData\Local\Temp\cc0nPDNQ.s 			page 182


 9373 020d 00       		.byte	0
 9374 020e 11       		.uleb128 0x11
 9375 020f 01       		.uleb128 0x1
 9376 0210 9542     		.uleb128 0x2115
 9377 0212 19       		.uleb128 0x19
 9378 0213 31       		.uleb128 0x31
 9379 0214 13       		.uleb128 0x13
 9380 0215 00       		.byte	0
 9381 0216 00       		.byte	0
 9382 0217 2C       		.uleb128 0x2c
 9383 0218 05       		.uleb128 0x5
 9384 0219 00       		.byte	0
 9385 021a 03       		.uleb128 0x3
 9386 021b 0E       		.uleb128 0xe
 9387 021c 3A       		.uleb128 0x3a
 9388 021d 0B       		.uleb128 0xb
 9389 021e 3B       		.uleb128 0x3b
 9390 021f 05       		.uleb128 0x5
 9391 0220 49       		.uleb128 0x49
 9392 0221 13       		.uleb128 0x13
 9393 0222 02       		.uleb128 0x2
 9394 0223 17       		.uleb128 0x17
 9395 0224 00       		.byte	0
 9396 0225 00       		.byte	0
 9397 0226 2D       		.uleb128 0x2d
 9398 0227 05       		.uleb128 0x5
 9399 0228 00       		.byte	0
 9400 0229 03       		.uleb128 0x3
 9401 022a 08       		.uleb128 0x8
 9402 022b 3A       		.uleb128 0x3a
 9403 022c 0B       		.uleb128 0xb
 9404 022d 3B       		.uleb128 0x3b
 9405 022e 05       		.uleb128 0x5
 9406 022f 49       		.uleb128 0x49
 9407 0230 13       		.uleb128 0x13
 9408 0231 02       		.uleb128 0x2
 9409 0232 17       		.uleb128 0x17
 9410 0233 00       		.byte	0
 9411 0234 00       		.byte	0
 9412 0235 2E       		.uleb128 0x2e
 9413 0236 34       		.uleb128 0x34
 9414 0237 00       		.byte	0
 9415 0238 03       		.uleb128 0x3
 9416 0239 0E       		.uleb128 0xe
 9417 023a 3A       		.uleb128 0x3a
 9418 023b 0B       		.uleb128 0xb
 9419 023c 3B       		.uleb128 0x3b
 9420 023d 05       		.uleb128 0x5
 9421 023e 49       		.uleb128 0x49
 9422 023f 13       		.uleb128 0x13
 9423 0240 02       		.uleb128 0x2
 9424 0241 17       		.uleb128 0x17
 9425 0242 00       		.byte	0
 9426 0243 00       		.byte	0
 9427 0244 2F       		.uleb128 0x2f
 9428 0245 898201   		.uleb128 0x4109
 9429 0248 01       		.byte	0x1
ARM GAS  C:\Users\IVYLIU~1\AppData\Local\Temp\cc0nPDNQ.s 			page 183


 9430 0249 11       		.uleb128 0x11
 9431 024a 01       		.uleb128 0x1
 9432 024b 31       		.uleb128 0x31
 9433 024c 13       		.uleb128 0x13
 9434 024d 01       		.uleb128 0x1
 9435 024e 13       		.uleb128 0x13
 9436 024f 00       		.byte	0
 9437 0250 00       		.byte	0
 9438 0251 30       		.uleb128 0x30
 9439 0252 2E       		.uleb128 0x2e
 9440 0253 01       		.byte	0x1
 9441 0254 31       		.uleb128 0x31
 9442 0255 13       		.uleb128 0x13
 9443 0256 11       		.uleb128 0x11
 9444 0257 01       		.uleb128 0x1
 9445 0258 12       		.uleb128 0x12
 9446 0259 06       		.uleb128 0x6
 9447 025a 40       		.uleb128 0x40
 9448 025b 18       		.uleb128 0x18
 9449 025c 9642     		.uleb128 0x2116
 9450 025e 19       		.uleb128 0x19
 9451 025f 01       		.uleb128 0x1
 9452 0260 13       		.uleb128 0x13
 9453 0261 00       		.byte	0
 9454 0262 00       		.byte	0
 9455 0263 31       		.uleb128 0x31
 9456 0264 34       		.uleb128 0x34
 9457 0265 00       		.byte	0
 9458 0266 31       		.uleb128 0x31
 9459 0267 13       		.uleb128 0x13
 9460 0268 02       		.uleb128 0x2
 9461 0269 17       		.uleb128 0x17
 9462 026a 00       		.byte	0
 9463 026b 00       		.byte	0
 9464 026c 32       		.uleb128 0x32
 9465 026d 0B       		.uleb128 0xb
 9466 026e 01       		.byte	0x1
 9467 026f 11       		.uleb128 0x11
 9468 0270 01       		.uleb128 0x1
 9469 0271 12       		.uleb128 0x12
 9470 0272 06       		.uleb128 0x6
 9471 0273 00       		.byte	0
 9472 0274 00       		.byte	0
 9473 0275 33       		.uleb128 0x33
 9474 0276 34       		.uleb128 0x34
 9475 0277 00       		.byte	0
 9476 0278 31       		.uleb128 0x31
 9477 0279 13       		.uleb128 0x13
 9478 027a 02       		.uleb128 0x2
 9479 027b 18       		.uleb128 0x18
 9480 027c 00       		.byte	0
 9481 027d 00       		.byte	0
 9482 027e 34       		.uleb128 0x34
 9483 027f 898201   		.uleb128 0x4109
 9484 0282 00       		.byte	0
 9485 0283 11       		.uleb128 0x11
 9486 0284 01       		.uleb128 0x1
ARM GAS  C:\Users\IVYLIU~1\AppData\Local\Temp\cc0nPDNQ.s 			page 184


 9487 0285 31       		.uleb128 0x31
 9488 0286 13       		.uleb128 0x13
 9489 0287 00       		.byte	0
 9490 0288 00       		.byte	0
 9491 0289 35       		.uleb128 0x35
 9492 028a 2E       		.uleb128 0x2e
 9493 028b 01       		.byte	0x1
 9494 028c 3F       		.uleb128 0x3f
 9495 028d 19       		.uleb128 0x19
 9496 028e 03       		.uleb128 0x3
 9497 028f 0E       		.uleb128 0xe
 9498 0290 3A       		.uleb128 0x3a
 9499 0291 0B       		.uleb128 0xb
 9500 0292 3B       		.uleb128 0x3b
 9501 0293 05       		.uleb128 0x5
 9502 0294 27       		.uleb128 0x27
 9503 0295 19       		.uleb128 0x19
 9504 0296 49       		.uleb128 0x49
 9505 0297 13       		.uleb128 0x13
 9506 0298 11       		.uleb128 0x11
 9507 0299 01       		.uleb128 0x1
 9508 029a 12       		.uleb128 0x12
 9509 029b 06       		.uleb128 0x6
 9510 029c 40       		.uleb128 0x40
 9511 029d 18       		.uleb128 0x18
 9512 029e 9742     		.uleb128 0x2117
 9513 02a0 19       		.uleb128 0x19
 9514 02a1 01       		.uleb128 0x1
 9515 02a2 13       		.uleb128 0x13
 9516 02a3 00       		.byte	0
 9517 02a4 00       		.byte	0
 9518 02a5 36       		.uleb128 0x36
 9519 02a6 898201   		.uleb128 0x4109
 9520 02a9 01       		.byte	0x1
 9521 02aa 11       		.uleb128 0x11
 9522 02ab 01       		.uleb128 0x1
 9523 02ac 9542     		.uleb128 0x2115
 9524 02ae 19       		.uleb128 0x19
 9525 02af 31       		.uleb128 0x31
 9526 02b0 13       		.uleb128 0x13
 9527 02b1 00       		.byte	0
 9528 02b2 00       		.byte	0
 9529 02b3 37       		.uleb128 0x37
 9530 02b4 34       		.uleb128 0x34
 9531 02b5 00       		.byte	0
 9532 02b6 03       		.uleb128 0x3
 9533 02b7 0E       		.uleb128 0xe
 9534 02b8 3A       		.uleb128 0x3a
 9535 02b9 0B       		.uleb128 0xb
 9536 02ba 3B       		.uleb128 0x3b
 9537 02bb 05       		.uleb128 0x5
 9538 02bc 49       		.uleb128 0x49
 9539 02bd 13       		.uleb128 0x13
 9540 02be 1C       		.uleb128 0x1c
 9541 02bf 0B       		.uleb128 0xb
 9542 02c0 00       		.byte	0
 9543 02c1 00       		.byte	0
ARM GAS  C:\Users\IVYLIU~1\AppData\Local\Temp\cc0nPDNQ.s 			page 185


 9544 02c2 38       		.uleb128 0x38
 9545 02c3 2E       		.uleb128 0x2e
 9546 02c4 01       		.byte	0x1
 9547 02c5 3F       		.uleb128 0x3f
 9548 02c6 19       		.uleb128 0x19
 9549 02c7 03       		.uleb128 0x3
 9550 02c8 0E       		.uleb128 0xe
 9551 02c9 3A       		.uleb128 0x3a
 9552 02ca 0B       		.uleb128 0xb
 9553 02cb 3B       		.uleb128 0x3b
 9554 02cc 0B       		.uleb128 0xb
 9555 02cd 27       		.uleb128 0x27
 9556 02ce 19       		.uleb128 0x19
 9557 02cf 11       		.uleb128 0x11
 9558 02d0 01       		.uleb128 0x1
 9559 02d1 12       		.uleb128 0x12
 9560 02d2 06       		.uleb128 0x6
 9561 02d3 40       		.uleb128 0x40
 9562 02d4 18       		.uleb128 0x18
 9563 02d5 9742     		.uleb128 0x2117
 9564 02d7 19       		.uleb128 0x19
 9565 02d8 01       		.uleb128 0x1
 9566 02d9 13       		.uleb128 0x13
 9567 02da 00       		.byte	0
 9568 02db 00       		.byte	0
 9569 02dc 39       		.uleb128 0x39
 9570 02dd 34       		.uleb128 0x34
 9571 02de 00       		.byte	0
 9572 02df 03       		.uleb128 0x3
 9573 02e0 0E       		.uleb128 0xe
 9574 02e1 3A       		.uleb128 0x3a
 9575 02e2 0B       		.uleb128 0xb
 9576 02e3 3B       		.uleb128 0x3b
 9577 02e4 05       		.uleb128 0x5
 9578 02e5 49       		.uleb128 0x49
 9579 02e6 13       		.uleb128 0x13
 9580 02e7 02       		.uleb128 0x2
 9581 02e8 18       		.uleb128 0x18
 9582 02e9 00       		.byte	0
 9583 02ea 00       		.byte	0
 9584 02eb 3A       		.uleb128 0x3a
 9585 02ec 2E       		.uleb128 0x2e
 9586 02ed 01       		.byte	0x1
 9587 02ee 3F       		.uleb128 0x3f
 9588 02ef 19       		.uleb128 0x19
 9589 02f0 03       		.uleb128 0x3
 9590 02f1 0E       		.uleb128 0xe
 9591 02f2 3A       		.uleb128 0x3a
 9592 02f3 0B       		.uleb128 0xb
 9593 02f4 3B       		.uleb128 0x3b
 9594 02f5 0B       		.uleb128 0xb
 9595 02f6 49       		.uleb128 0x49
 9596 02f7 13       		.uleb128 0x13
 9597 02f8 11       		.uleb128 0x11
 9598 02f9 01       		.uleb128 0x1
 9599 02fa 12       		.uleb128 0x12
 9600 02fb 06       		.uleb128 0x6
ARM GAS  C:\Users\IVYLIU~1\AppData\Local\Temp\cc0nPDNQ.s 			page 186


 9601 02fc 40       		.uleb128 0x40
 9602 02fd 18       		.uleb128 0x18
 9603 02fe 9742     		.uleb128 0x2117
 9604 0300 19       		.uleb128 0x19
 9605 0301 01       		.uleb128 0x1
 9606 0302 13       		.uleb128 0x13
 9607 0303 00       		.byte	0
 9608 0304 00       		.byte	0
 9609 0305 3B       		.uleb128 0x3b
 9610 0306 34       		.uleb128 0x34
 9611 0307 00       		.byte	0
 9612 0308 03       		.uleb128 0x3
 9613 0309 0E       		.uleb128 0xe
 9614 030a 3A       		.uleb128 0x3a
 9615 030b 0B       		.uleb128 0xb
 9616 030c 3B       		.uleb128 0x3b
 9617 030d 0B       		.uleb128 0xb
 9618 030e 49       		.uleb128 0x49
 9619 030f 13       		.uleb128 0x13
 9620 0310 02       		.uleb128 0x2
 9621 0311 17       		.uleb128 0x17
 9622 0312 00       		.byte	0
 9623 0313 00       		.byte	0
 9624 0314 3C       		.uleb128 0x3c
 9625 0315 1D       		.uleb128 0x1d
 9626 0316 01       		.byte	0x1
 9627 0317 31       		.uleb128 0x31
 9628 0318 13       		.uleb128 0x13
 9629 0319 11       		.uleb128 0x11
 9630 031a 01       		.uleb128 0x1
 9631 031b 12       		.uleb128 0x12
 9632 031c 06       		.uleb128 0x6
 9633 031d 58       		.uleb128 0x58
 9634 031e 0B       		.uleb128 0xb
 9635 031f 59       		.uleb128 0x59
 9636 0320 0B       		.uleb128 0xb
 9637 0321 01       		.uleb128 0x1
 9638 0322 13       		.uleb128 0x13
 9639 0323 00       		.byte	0
 9640 0324 00       		.byte	0
 9641 0325 3D       		.uleb128 0x3d
 9642 0326 34       		.uleb128 0x34
 9643 0327 00       		.byte	0
 9644 0328 03       		.uleb128 0x3
 9645 0329 0E       		.uleb128 0xe
 9646 032a 3A       		.uleb128 0x3a
 9647 032b 0B       		.uleb128 0xb
 9648 032c 3B       		.uleb128 0x3b
 9649 032d 0B       		.uleb128 0xb
 9650 032e 49       		.uleb128 0x49
 9651 032f 13       		.uleb128 0x13
 9652 0330 3F       		.uleb128 0x3f
 9653 0331 19       		.uleb128 0x19
 9654 0332 02       		.uleb128 0x2
 9655 0333 18       		.uleb128 0x18
 9656 0334 00       		.byte	0
 9657 0335 00       		.byte	0
ARM GAS  C:\Users\IVYLIU~1\AppData\Local\Temp\cc0nPDNQ.s 			page 187


 9658 0336 3E       		.uleb128 0x3e
 9659 0337 34       		.uleb128 0x34
 9660 0338 00       		.byte	0
 9661 0339 03       		.uleb128 0x3
 9662 033a 0E       		.uleb128 0xe
 9663 033b 3A       		.uleb128 0x3a
 9664 033c 0B       		.uleb128 0xb
 9665 033d 3B       		.uleb128 0x3b
 9666 033e 0B       		.uleb128 0xb
 9667 033f 49       		.uleb128 0x49
 9668 0340 13       		.uleb128 0x13
 9669 0341 3F       		.uleb128 0x3f
 9670 0342 19       		.uleb128 0x19
 9671 0343 3C       		.uleb128 0x3c
 9672 0344 19       		.uleb128 0x19
 9673 0345 00       		.byte	0
 9674 0346 00       		.byte	0
 9675 0347 3F       		.uleb128 0x3f
 9676 0348 34       		.uleb128 0x34
 9677 0349 00       		.byte	0
 9678 034a 03       		.uleb128 0x3
 9679 034b 0E       		.uleb128 0xe
 9680 034c 3A       		.uleb128 0x3a
 9681 034d 0B       		.uleb128 0xb
 9682 034e 3B       		.uleb128 0x3b
 9683 034f 05       		.uleb128 0x5
 9684 0350 49       		.uleb128 0x49
 9685 0351 13       		.uleb128 0x13
 9686 0352 3F       		.uleb128 0x3f
 9687 0353 19       		.uleb128 0x19
 9688 0354 3C       		.uleb128 0x3c
 9689 0355 19       		.uleb128 0x19
 9690 0356 00       		.byte	0
 9691 0357 00       		.byte	0
 9692 0358 40       		.uleb128 0x40
 9693 0359 21       		.uleb128 0x21
 9694 035a 00       		.byte	0
 9695 035b 49       		.uleb128 0x49
 9696 035c 13       		.uleb128 0x13
 9697 035d 2F       		.uleb128 0x2f
 9698 035e 05       		.uleb128 0x5
 9699 035f 00       		.byte	0
 9700 0360 00       		.byte	0
 9701 0361 41       		.uleb128 0x41
 9702 0362 2E       		.uleb128 0x2e
 9703 0363 01       		.byte	0x1
 9704 0364 3F       		.uleb128 0x3f
 9705 0365 19       		.uleb128 0x19
 9706 0366 03       		.uleb128 0x3
 9707 0367 0E       		.uleb128 0xe
 9708 0368 3A       		.uleb128 0x3a
 9709 0369 0B       		.uleb128 0xb
 9710 036a 3B       		.uleb128 0x3b
 9711 036b 0B       		.uleb128 0xb
 9712 036c 3C       		.uleb128 0x3c
 9713 036d 19       		.uleb128 0x19
 9714 036e 01       		.uleb128 0x1
ARM GAS  C:\Users\IVYLIU~1\AppData\Local\Temp\cc0nPDNQ.s 			page 188


 9715 036f 13       		.uleb128 0x13
 9716 0370 00       		.byte	0
 9717 0371 00       		.byte	0
 9718 0372 42       		.uleb128 0x42
 9719 0373 18       		.uleb128 0x18
 9720 0374 00       		.byte	0
 9721 0375 00       		.byte	0
 9722 0376 00       		.byte	0
 9723 0377 43       		.uleb128 0x43
 9724 0378 2E       		.uleb128 0x2e
 9725 0379 01       		.byte	0x1
 9726 037a 3F       		.uleb128 0x3f
 9727 037b 19       		.uleb128 0x19
 9728 037c 03       		.uleb128 0x3
 9729 037d 0E       		.uleb128 0xe
 9730 037e 3A       		.uleb128 0x3a
 9731 037f 0B       		.uleb128 0xb
 9732 0380 3B       		.uleb128 0x3b
 9733 0381 0B       		.uleb128 0xb
 9734 0382 27       		.uleb128 0x27
 9735 0383 19       		.uleb128 0x19
 9736 0384 49       		.uleb128 0x49
 9737 0385 13       		.uleb128 0x13
 9738 0386 3C       		.uleb128 0x3c
 9739 0387 19       		.uleb128 0x19
 9740 0388 01       		.uleb128 0x1
 9741 0389 13       		.uleb128 0x13
 9742 038a 00       		.byte	0
 9743 038b 00       		.byte	0
 9744 038c 44       		.uleb128 0x44
 9745 038d 2E       		.uleb128 0x2e
 9746 038e 01       		.byte	0x1
 9747 038f 3F       		.uleb128 0x3f
 9748 0390 19       		.uleb128 0x19
 9749 0391 03       		.uleb128 0x3
 9750 0392 0E       		.uleb128 0xe
 9751 0393 3A       		.uleb128 0x3a
 9752 0394 0B       		.uleb128 0xb
 9753 0395 3B       		.uleb128 0x3b
 9754 0396 05       		.uleb128 0x5
 9755 0397 27       		.uleb128 0x27
 9756 0398 19       		.uleb128 0x19
 9757 0399 49       		.uleb128 0x49
 9758 039a 13       		.uleb128 0x13
 9759 039b 3C       		.uleb128 0x3c
 9760 039c 19       		.uleb128 0x19
 9761 039d 01       		.uleb128 0x1
 9762 039e 13       		.uleb128 0x13
 9763 039f 00       		.byte	0
 9764 03a0 00       		.byte	0
 9765 03a1 45       		.uleb128 0x45
 9766 03a2 2E       		.uleb128 0x2e
 9767 03a3 01       		.byte	0x1
 9768 03a4 3F       		.uleb128 0x3f
 9769 03a5 19       		.uleb128 0x19
 9770 03a6 03       		.uleb128 0x3
 9771 03a7 0E       		.uleb128 0xe
ARM GAS  C:\Users\IVYLIU~1\AppData\Local\Temp\cc0nPDNQ.s 			page 189


 9772 03a8 3A       		.uleb128 0x3a
 9773 03a9 0B       		.uleb128 0xb
 9774 03aa 3B       		.uleb128 0x3b
 9775 03ab 05       		.uleb128 0x5
 9776 03ac 27       		.uleb128 0x27
 9777 03ad 19       		.uleb128 0x19
 9778 03ae 3C       		.uleb128 0x3c
 9779 03af 19       		.uleb128 0x19
 9780 03b0 01       		.uleb128 0x1
 9781 03b1 13       		.uleb128 0x13
 9782 03b2 00       		.byte	0
 9783 03b3 00       		.byte	0
 9784 03b4 46       		.uleb128 0x46
 9785 03b5 2E       		.uleb128 0x2e
 9786 03b6 01       		.byte	0x1
 9787 03b7 3F       		.uleb128 0x3f
 9788 03b8 19       		.uleb128 0x19
 9789 03b9 03       		.uleb128 0x3
 9790 03ba 0E       		.uleb128 0xe
 9791 03bb 3A       		.uleb128 0x3a
 9792 03bc 0B       		.uleb128 0xb
 9793 03bd 3B       		.uleb128 0x3b
 9794 03be 0B       		.uleb128 0xb
 9795 03bf 27       		.uleb128 0x27
 9796 03c0 19       		.uleb128 0x19
 9797 03c1 3C       		.uleb128 0x3c
 9798 03c2 19       		.uleb128 0x19
 9799 03c3 01       		.uleb128 0x1
 9800 03c4 13       		.uleb128 0x13
 9801 03c5 00       		.byte	0
 9802 03c6 00       		.byte	0
 9803 03c7 47       		.uleb128 0x47
 9804 03c8 2E       		.uleb128 0x2e
 9805 03c9 00       		.byte	0
 9806 03ca 3F       		.uleb128 0x3f
 9807 03cb 19       		.uleb128 0x19
 9808 03cc 03       		.uleb128 0x3
 9809 03cd 0E       		.uleb128 0xe
 9810 03ce 3A       		.uleb128 0x3a
 9811 03cf 0B       		.uleb128 0xb
 9812 03d0 3B       		.uleb128 0x3b
 9813 03d1 0B       		.uleb128 0xb
 9814 03d2 27       		.uleb128 0x27
 9815 03d3 19       		.uleb128 0x19
 9816 03d4 49       		.uleb128 0x49
 9817 03d5 13       		.uleb128 0x13
 9818 03d6 3C       		.uleb128 0x3c
 9819 03d7 19       		.uleb128 0x19
 9820 03d8 00       		.byte	0
 9821 03d9 00       		.byte	0
 9822 03da 48       		.uleb128 0x48
 9823 03db 2E       		.uleb128 0x2e
 9824 03dc 00       		.byte	0
 9825 03dd 3F       		.uleb128 0x3f
 9826 03de 19       		.uleb128 0x19
 9827 03df 03       		.uleb128 0x3
 9828 03e0 0E       		.uleb128 0xe
ARM GAS  C:\Users\IVYLIU~1\AppData\Local\Temp\cc0nPDNQ.s 			page 190


 9829 03e1 3A       		.uleb128 0x3a
 9830 03e2 0B       		.uleb128 0xb
 9831 03e3 3B       		.uleb128 0x3b
 9832 03e4 05       		.uleb128 0x5
 9833 03e5 27       		.uleb128 0x27
 9834 03e6 19       		.uleb128 0x19
 9835 03e7 3C       		.uleb128 0x3c
 9836 03e8 19       		.uleb128 0x19
 9837 03e9 00       		.byte	0
 9838 03ea 00       		.byte	0
 9839 03eb 49       		.uleb128 0x49
 9840 03ec 2E       		.uleb128 0x2e
 9841 03ed 00       		.byte	0
 9842 03ee 3F       		.uleb128 0x3f
 9843 03ef 19       		.uleb128 0x19
 9844 03f0 03       		.uleb128 0x3
 9845 03f1 0E       		.uleb128 0xe
 9846 03f2 3A       		.uleb128 0x3a
 9847 03f3 0B       		.uleb128 0xb
 9848 03f4 3B       		.uleb128 0x3b
 9849 03f5 05       		.uleb128 0x5
 9850 03f6 27       		.uleb128 0x27
 9851 03f7 19       		.uleb128 0x19
 9852 03f8 49       		.uleb128 0x49
 9853 03f9 13       		.uleb128 0x13
 9854 03fa 3C       		.uleb128 0x3c
 9855 03fb 19       		.uleb128 0x19
 9856 03fc 00       		.byte	0
 9857 03fd 00       		.byte	0
 9858 03fe 4A       		.uleb128 0x4a
 9859 03ff 2E       		.uleb128 0x2e
 9860 0400 00       		.byte	0
 9861 0401 3F       		.uleb128 0x3f
 9862 0402 19       		.uleb128 0x19
 9863 0403 03       		.uleb128 0x3
 9864 0404 0E       		.uleb128 0xe
 9865 0405 3A       		.uleb128 0x3a
 9866 0406 0B       		.uleb128 0xb
 9867 0407 3B       		.uleb128 0x3b
 9868 0408 0B       		.uleb128 0xb
 9869 0409 27       		.uleb128 0x27
 9870 040a 19       		.uleb128 0x19
 9871 040b 3C       		.uleb128 0x3c
 9872 040c 19       		.uleb128 0x19
 9873 040d 00       		.byte	0
 9874 040e 00       		.byte	0
 9875 040f 4B       		.uleb128 0x4b
 9876 0410 35       		.uleb128 0x35
 9877 0411 00       		.byte	0
 9878 0412 00       		.byte	0
 9879 0413 00       		.byte	0
 9880 0414 00       		.byte	0
 9881              		.section	.debug_loc,"",%progbits
 9882              	.Ldebug_loc0:
 9883              	.LLST0:
 9884 0000 00000000 		.4byte	.LVL0
 9885 0004 08000000 		.4byte	.LVL1
ARM GAS  C:\Users\IVYLIU~1\AppData\Local\Temp\cc0nPDNQ.s 			page 191


 9886 0008 0100     		.2byte	0x1
 9887 000a 50       		.byte	0x50
 9888 000b 08000000 		.4byte	.LVL1
 9889 000f 18000000 		.4byte	.LFE128
 9890 0013 0400     		.2byte	0x4
 9891 0015 F3       		.byte	0xf3
 9892 0016 01       		.uleb128 0x1
 9893 0017 50       		.byte	0x50
 9894 0018 9F       		.byte	0x9f
 9895 0019 00000000 		.4byte	0
 9896 001d 00000000 		.4byte	0
 9897              	.LLST1:
 9898 0021 00000000 		.4byte	.LVL2
 9899 0025 04000000 		.4byte	.LVL3
 9900 0029 0200     		.2byte	0x2
 9901 002b 30       		.byte	0x30
 9902 002c 9F       		.byte	0x9f
 9903 002d 04000000 		.4byte	.LVL3
 9904 0031 0E000000 		.4byte	.LVL4
 9905 0035 0100     		.2byte	0x1
 9906 0037 54       		.byte	0x54
 9907 0038 0E000000 		.4byte	.LVL4
 9908 003c 11000000 		.4byte	.LVL5-1
 9909 0040 0100     		.2byte	0x1
 9910 0042 50       		.byte	0x50
 9911 0043 11000000 		.4byte	.LVL5-1
 9912 0047 12000000 		.4byte	.LVL5
 9913 004b 0300     		.2byte	0x3
 9914 004d 74       		.byte	0x74
 9915 004e 7F       		.sleb128 -1
 9916 004f 9F       		.byte	0x9f
 9917 0050 12000000 		.4byte	.LVL5
 9918 0054 1A000000 		.4byte	.LVL6
 9919 0058 0100     		.2byte	0x1
 9920 005a 54       		.byte	0x54
 9921 005b 00000000 		.4byte	0
 9922 005f 00000000 		.4byte	0
 9923              	.LLST2:
 9924 0063 00000000 		.4byte	.LVL8
 9925 0067 0E000000 		.4byte	.LVL9
 9926 006b 0100     		.2byte	0x1
 9927 006d 50       		.byte	0x50
 9928 006e 0E000000 		.4byte	.LVL9
 9929 0072 3A000000 		.4byte	.LVL13
 9930 0076 0100     		.2byte	0x1
 9931 0078 58       		.byte	0x58
 9932 0079 3A000000 		.4byte	.LVL13
 9933 007d 3E000000 		.4byte	.LVL14
 9934 0081 0400     		.2byte	0x4
 9935 0083 F3       		.byte	0xf3
 9936 0084 01       		.uleb128 0x1
 9937 0085 50       		.byte	0x50
 9938 0086 9F       		.byte	0x9f
 9939 0087 3E000000 		.4byte	.LVL14
 9940 008b 46000000 		.4byte	.LVL16
 9941 008f 0100     		.2byte	0x1
 9942 0091 58       		.byte	0x58
ARM GAS  C:\Users\IVYLIU~1\AppData\Local\Temp\cc0nPDNQ.s 			page 192


 9943 0092 46000000 		.4byte	.LVL16
 9944 0096 4C000000 		.4byte	.LFE127
 9945 009a 0400     		.2byte	0x4
 9946 009c F3       		.byte	0xf3
 9947 009d 01       		.uleb128 0x1
 9948 009e 50       		.byte	0x50
 9949 009f 9F       		.byte	0x9f
 9950 00a0 00000000 		.4byte	0
 9951 00a4 00000000 		.4byte	0
 9952              	.LLST3:
 9953 00a8 00000000 		.4byte	.LVL8
 9954 00ac 0E000000 		.4byte	.LVL9
 9955 00b0 0100     		.2byte	0x1
 9956 00b2 51       		.byte	0x51
 9957 00b3 0E000000 		.4byte	.LVL9
 9958 00b7 3A000000 		.4byte	.LVL13
 9959 00bb 0100     		.2byte	0x1
 9960 00bd 55       		.byte	0x55
 9961 00be 3A000000 		.4byte	.LVL13
 9962 00c2 3E000000 		.4byte	.LVL14
 9963 00c6 0400     		.2byte	0x4
 9964 00c8 F3       		.byte	0xf3
 9965 00c9 01       		.uleb128 0x1
 9966 00ca 51       		.byte	0x51
 9967 00cb 9F       		.byte	0x9f
 9968 00cc 3E000000 		.4byte	.LVL14
 9969 00d0 46000000 		.4byte	.LVL16
 9970 00d4 0100     		.2byte	0x1
 9971 00d6 55       		.byte	0x55
 9972 00d7 46000000 		.4byte	.LVL16
 9973 00db 4C000000 		.4byte	.LFE127
 9974 00df 0400     		.2byte	0x4
 9975 00e1 F3       		.byte	0xf3
 9976 00e2 01       		.uleb128 0x1
 9977 00e3 51       		.byte	0x51
 9978 00e4 9F       		.byte	0x9f
 9979 00e5 00000000 		.4byte	0
 9980 00e9 00000000 		.4byte	0
 9981              	.LLST4:
 9982 00ed 00000000 		.4byte	.LVL8
 9983 00f1 0E000000 		.4byte	.LVL9
 9984 00f5 0100     		.2byte	0x1
 9985 00f7 52       		.byte	0x52
 9986 00f8 0E000000 		.4byte	.LVL9
 9987 00fc 3A000000 		.4byte	.LVL13
 9988 0100 0100     		.2byte	0x1
 9989 0102 56       		.byte	0x56
 9990 0103 3A000000 		.4byte	.LVL13
 9991 0107 3E000000 		.4byte	.LVL14
 9992 010b 0400     		.2byte	0x4
 9993 010d F3       		.byte	0xf3
 9994 010e 01       		.uleb128 0x1
 9995 010f 52       		.byte	0x52
 9996 0110 9F       		.byte	0x9f
 9997 0111 3E000000 		.4byte	.LVL14
 9998 0115 46000000 		.4byte	.LVL16
 9999 0119 0100     		.2byte	0x1
ARM GAS  C:\Users\IVYLIU~1\AppData\Local\Temp\cc0nPDNQ.s 			page 193


 10000 011b 56       		.byte	0x56
 10001 011c 46000000 		.4byte	.LVL16
 10002 0120 4C000000 		.4byte	.LFE127
 10003 0124 0400     		.2byte	0x4
 10004 0126 F3       		.byte	0xf3
 10005 0127 01       		.uleb128 0x1
 10006 0128 52       		.byte	0x52
 10007 0129 9F       		.byte	0x9f
 10008 012a 00000000 		.4byte	0
 10009 012e 00000000 		.4byte	0
 10010              	.LLST5:
 10011 0132 00000000 		.4byte	.LVL8
 10012 0136 0E000000 		.4byte	.LVL9
 10013 013a 0100     		.2byte	0x1
 10014 013c 53       		.byte	0x53
 10015 013d 0E000000 		.4byte	.LVL9
 10016 0141 3A000000 		.4byte	.LVL13
 10017 0145 0100     		.2byte	0x1
 10018 0147 57       		.byte	0x57
 10019 0148 3A000000 		.4byte	.LVL13
 10020 014c 3E000000 		.4byte	.LVL14
 10021 0150 0400     		.2byte	0x4
 10022 0152 F3       		.byte	0xf3
 10023 0153 01       		.uleb128 0x1
 10024 0154 53       		.byte	0x53
 10025 0155 9F       		.byte	0x9f
 10026 0156 3E000000 		.4byte	.LVL14
 10027 015a 46000000 		.4byte	.LVL16
 10028 015e 0100     		.2byte	0x1
 10029 0160 57       		.byte	0x57
 10030 0161 46000000 		.4byte	.LVL16
 10031 0165 4C000000 		.4byte	.LFE127
 10032 0169 0400     		.2byte	0x4
 10033 016b F3       		.byte	0xf3
 10034 016c 01       		.uleb128 0x1
 10035 016d 53       		.byte	0x53
 10036 016e 9F       		.byte	0x9f
 10037 016f 00000000 		.4byte	0
 10038 0173 00000000 		.4byte	0
 10039              	.LLST6:
 10040 0177 00000000 		.4byte	.LVL8
 10041 017b 0E000000 		.4byte	.LVL9
 10042 017f 0600     		.2byte	0x6
 10043 0181 03       		.byte	0x3
 10044 0182 00000000 		.4byte	notes
 10045 0186 9F       		.byte	0x9f
 10046 0187 0E000000 		.4byte	.LVL9
 10047 018b 3A000000 		.4byte	.LVL13
 10048 018f 0100     		.2byte	0x1
 10049 0191 54       		.byte	0x54
 10050 0192 3E000000 		.4byte	.LVL14
 10051 0196 46000000 		.4byte	.LVL16
 10052 019a 0100     		.2byte	0x1
 10053 019c 54       		.byte	0x54
 10054 019d 00000000 		.4byte	0
 10055 01a1 00000000 		.4byte	0
 10056              	.LLST7:
ARM GAS  C:\Users\IVYLIU~1\AppData\Local\Temp\cc0nPDNQ.s 			page 194


 10057 01a5 00000000 		.4byte	.LVL17
 10058 01a9 06000000 		.4byte	.LVL18
 10059 01ad 0200     		.2byte	0x2
 10060 01af 30       		.byte	0x30
 10061 01b0 9F       		.byte	0x9f
 10062 01b1 34000000 		.4byte	.LVL22
 10063 01b5 36000000 		.4byte	.LVL23
 10064 01b9 0200     		.2byte	0x2
 10065 01bb 31       		.byte	0x31
 10066 01bc 9F       		.byte	0x9f
 10067 01bd 36000000 		.4byte	.LVL23
 10068 01c1 3A000000 		.4byte	.LVL24
 10069 01c5 0100     		.2byte	0x1
 10070 01c7 55       		.byte	0x55
 10071 01c8 3A000000 		.4byte	.LVL24
 10072 01cc A2000000 		.4byte	.LVL35
 10073 01d0 0200     		.2byte	0x2
 10074 01d2 31       		.byte	0x31
 10075 01d3 9F       		.byte	0x9f
 10076 01d4 00000000 		.4byte	0
 10077 01d8 00000000 		.4byte	0
 10078              	.LLST8:
 10079 01dc 00000000 		.4byte	.LVL17
 10080 01e0 06000000 		.4byte	.LVL18
 10081 01e4 0200     		.2byte	0x2
 10082 01e6 30       		.byte	0x30
 10083 01e7 9F       		.byte	0x9f
 10084 01e8 4C000000 		.4byte	.LVL26
 10085 01ec 54000000 		.4byte	.LVL27
 10086 01f0 0100     		.2byte	0x1
 10087 01f2 54       		.byte	0x54
 10088 01f3 9E000000 		.4byte	.LVL34
 10089 01f7 A2000000 		.4byte	.LVL35
 10090 01fb 0100     		.2byte	0x1
 10091 01fd 54       		.byte	0x54
 10092 01fe 00000000 		.4byte	0
 10093 0202 00000000 		.4byte	0
 10094              	.LLST9:
 10095 0206 94000000 		.4byte	.LVL32
 10096 020a 9E000000 		.4byte	.LVL34
 10097 020e 0200     		.2byte	0x2
 10098 0210 30       		.byte	0x30
 10099 0211 9F       		.byte	0x9f
 10100 0212 00000000 		.4byte	0
 10101 0216 00000000 		.4byte	0
 10102              	.LLST10:
 10103 021a 8E000000 		.4byte	.LVL31
 10104 021e 9E000000 		.4byte	.LVL34
 10105 0222 0200     		.2byte	0x2
 10106 0224 30       		.byte	0x30
 10107 0225 9F       		.byte	0x9f
 10108 0226 00000000 		.4byte	0
 10109 022a 00000000 		.4byte	0
 10110              	.LLST11:
 10111 022e 00000000 		.4byte	.LVL36
 10112 0232 18000000 		.4byte	.LVL41
 10113 0236 0100     		.2byte	0x1
ARM GAS  C:\Users\IVYLIU~1\AppData\Local\Temp\cc0nPDNQ.s 			page 195


 10114 0238 50       		.byte	0x50
 10115 0239 18000000 		.4byte	.LVL41
 10116 023d 24000000 		.4byte	.LFE130
 10117 0241 0400     		.2byte	0x4
 10118 0243 F3       		.byte	0xf3
 10119 0244 01       		.uleb128 0x1
 10120 0245 50       		.byte	0x50
 10121 0246 9F       		.byte	0x9f
 10122 0247 00000000 		.4byte	0
 10123 024b 00000000 		.4byte	0
 10124              	.LLST12:
 10125 024f 00000000 		.4byte	.LVL36
 10126 0253 02000000 		.4byte	.LVL37
 10127 0257 0600     		.2byte	0x6
 10128 0259 03       		.byte	0x3
 10129 025a 00000000 		.4byte	notes
 10130 025e 9F       		.byte	0x9f
 10131 025f 02000000 		.4byte	.LVL37
 10132 0263 0A000000 		.4byte	.LVL38
 10133 0267 0300     		.2byte	0x3
 10134 0269 73       		.byte	0x73
 10135 026a 6C       		.sleb128 -20
 10136 026b 9F       		.byte	0x9f
 10137 026c 0A000000 		.4byte	.LVL38
 10138 0270 14000000 		.4byte	.LVL39
 10139 0274 0300     		.2byte	0x3
 10140 0276 73       		.byte	0x73
 10141 0277 58       		.sleb128 -40
 10142 0278 9F       		.byte	0x9f
 10143 0279 14000000 		.4byte	.LVL39
 10144 027d 16000000 		.4byte	.LVL40
 10145 0281 0300     		.2byte	0x3
 10146 0283 73       		.byte	0x73
 10147 0284 6C       		.sleb128 -20
 10148 0285 9F       		.byte	0x9f
 10149 0286 00000000 		.4byte	0
 10150 028a 00000000 		.4byte	0
 10151              	.LLST13:
 10152 028e 00000000 		.4byte	.LVL36
 10153 0292 16000000 		.4byte	.LVL40
 10154 0296 0600     		.2byte	0x6
 10155 0298 03       		.byte	0x3
 10156 0299 00000000 		.4byte	.LC0
 10157 029d 9F       		.byte	0x9f
 10158 029e 16000000 		.4byte	.LVL40
 10159 02a2 24000000 		.4byte	.LFE130
 10160 02a6 0100     		.2byte	0x1
 10161 02a8 52       		.byte	0x52
 10162 02a9 00000000 		.4byte	0
 10163 02ad 00000000 		.4byte	0
 10164              	.LLST14:
 10165 02b1 28000000 		.4byte	.LVL47
 10166 02b5 68000000 		.4byte	.LVL55
 10167 02b9 0200     		.2byte	0x2
 10168 02bb 30       		.byte	0x30
 10169 02bc 9F       		.byte	0x9f
 10170 02bd 78000000 		.4byte	.LVL58
ARM GAS  C:\Users\IVYLIU~1\AppData\Local\Temp\cc0nPDNQ.s 			page 196


 10171 02c1 92000000 		.4byte	.LVL62
 10172 02c5 0300     		.2byte	0x3
 10173 02c7 74       		.byte	0x74
 10174 02c8 01       		.sleb128 1
 10175 02c9 9F       		.byte	0x9f
 10176 02ca 92000000 		.4byte	.LVL62
 10177 02ce AC000000 		.4byte	.LVL65
 10178 02d2 0100     		.2byte	0x1
 10179 02d4 54       		.byte	0x54
 10180 02d5 00000000 		.4byte	0
 10181 02d9 00000000 		.4byte	0
 10182              	.LLST15:
 10183 02dd 00000000 		.4byte	.LVL93
 10184 02e1 06000000 		.4byte	.LVL94
 10185 02e5 0100     		.2byte	0x1
 10186 02e7 50       		.byte	0x50
 10187 02e8 06000000 		.4byte	.LVL94
 10188 02ec BC050000 		.4byte	.LVL208
 10189 02f0 0100     		.2byte	0x1
 10190 02f2 54       		.byte	0x54
 10191 02f3 BC050000 		.4byte	.LVL208
 10192 02f7 18060000 		.4byte	.LFE135
 10193 02fb 0400     		.2byte	0x4
 10194 02fd F3       		.byte	0xf3
 10195 02fe 01       		.uleb128 0x1
 10196 02ff 50       		.byte	0x50
 10197 0300 9F       		.byte	0x9f
 10198 0301 00000000 		.4byte	0
 10199 0305 00000000 		.4byte	0
 10200              	.LLST16:
 10201 0309 00000000 		.4byte	.LVL210
 10202 030d 04000000 		.4byte	.LVL211
 10203 0311 0200     		.2byte	0x2
 10204 0313 30       		.byte	0x30
 10205 0314 9F       		.byte	0x9f
 10206 0315 00000000 		.4byte	0
 10207 0319 00000000 		.4byte	0
 10208              	.LLST17:
 10209 031d 16000000 		.4byte	.LVL216
 10210 0321 18000000 		.4byte	.LVL217
 10211 0325 0600     		.2byte	0x6
 10212 0327 03       		.byte	0x3
 10213 0328 00000000 		.4byte	notes
 10214 032c 9F       		.byte	0x9f
 10215 032d 18000000 		.4byte	.LVL217
 10216 0331 1A000000 		.4byte	.LVL218
 10217 0335 0300     		.2byte	0x3
 10218 0337 74       		.byte	0x74
 10219 0338 6C       		.sleb128 -20
 10220 0339 9F       		.byte	0x9f
 10221 033a 1A000000 		.4byte	.LVL218
 10222 033e 78000000 		.4byte	.LVL228
 10223 0342 0300     		.2byte	0x3
 10224 0344 74       		.byte	0x74
 10225 0345 58       		.sleb128 -40
 10226 0346 9F       		.byte	0x9f
 10227 0347 78000000 		.4byte	.LVL228
ARM GAS  C:\Users\IVYLIU~1\AppData\Local\Temp\cc0nPDNQ.s 			page 197


 10228 034b 7A000000 		.4byte	.LVL229
 10229 034f 0300     		.2byte	0x3
 10230 0351 74       		.byte	0x74
 10231 0352 6C       		.sleb128 -20
 10232 0353 9F       		.byte	0x9f
 10233 0354 7A000000 		.4byte	.LVL229
 10234 0358 7C000000 		.4byte	.LVL230
 10235 035c 0300     		.2byte	0x3
 10236 035e 74       		.byte	0x74
 10237 035f 58       		.sleb128 -40
 10238 0360 9F       		.byte	0x9f
 10239 0361 00000000 		.4byte	0
 10240 0365 00000000 		.4byte	0
 10241              	.LLST18:
 10242 0369 00000000 		.4byte	.LVL238
 10243 036d 0A000000 		.4byte	.LVL239
 10244 0371 0100     		.2byte	0x1
 10245 0373 50       		.byte	0x50
 10246 0374 0A000000 		.4byte	.LVL239
 10247 0378 34000000 		.4byte	.LVL246
 10248 037c 0100     		.2byte	0x1
 10249 037e 54       		.byte	0x54
 10250 037f 34000000 		.4byte	.LVL246
 10251 0383 88010000 		.4byte	.LFE131
 10252 0387 0400     		.2byte	0x4
 10253 0389 F3       		.byte	0xf3
 10254 038a 01       		.uleb128 0x1
 10255 038b 50       		.byte	0x50
 10256 038c 9F       		.byte	0x9f
 10257 038d 00000000 		.4byte	0
 10258 0391 00000000 		.4byte	0
 10259              	.LLST19:
 10260 0395 2A000000 		.4byte	.LVL245
 10261 0399 72000000 		.4byte	.LVL253
 10262 039d 0200     		.2byte	0x2
 10263 039f 30       		.byte	0x30
 10264 03a0 9F       		.byte	0x9f
 10265 03a1 72000000 		.4byte	.LVL253
 10266 03a5 E6000000 		.4byte	.LVL267
 10267 03a9 0100     		.2byte	0x1
 10268 03ab 55       		.byte	0x55
 10269 03ac E6000000 		.4byte	.LVL267
 10270 03b0 F2000000 		.4byte	.LVL269
 10271 03b4 0300     		.2byte	0x3
 10272 03b6 75       		.byte	0x75
 10273 03b7 7F       		.sleb128 -1
 10274 03b8 9F       		.byte	0x9f
 10275 03b9 F2000000 		.4byte	.LVL269
 10276 03bd 70010000 		.4byte	.LVL280
 10277 03c1 0100     		.2byte	0x1
 10278 03c3 55       		.byte	0x55
 10279 03c4 00000000 		.4byte	0
 10280 03c8 00000000 		.4byte	0
 10281              	.LLST20:
 10282 03cc 34000000 		.4byte	.LVL246
 10283 03d0 38000000 		.4byte	.LVL247
 10284 03d4 0700     		.2byte	0x7
ARM GAS  C:\Users\IVYLIU~1\AppData\Local\Temp\cc0nPDNQ.s 			page 198


 10285 03d6 93       		.byte	0x93
 10286 03d7 08       		.uleb128 0x8
 10287 03d8 54       		.byte	0x54
 10288 03d9 93       		.byte	0x93
 10289 03da 04       		.uleb128 0x4
 10290 03db 93       		.byte	0x93
 10291 03dc 04       		.uleb128 0x4
 10292 03dd 38000000 		.4byte	.LVL247
 10293 03e1 70010000 		.4byte	.LVL280
 10294 03e5 0800     		.2byte	0x8
 10295 03e7 93       		.byte	0x93
 10296 03e8 08       		.uleb128 0x8
 10297 03e9 54       		.byte	0x54
 10298 03ea 93       		.byte	0x93
 10299 03eb 04       		.uleb128 0x4
 10300 03ec 58       		.byte	0x58
 10301 03ed 93       		.byte	0x93
 10302 03ee 04       		.uleb128 0x4
 10303 03ef 00000000 		.4byte	0
 10304 03f3 00000000 		.4byte	0
 10305              	.LLST21:
 10306 03f7 22000000 		.4byte	.LVL285
 10307 03fb 24000000 		.4byte	.LVL286
 10308 03ff 0200     		.2byte	0x2
 10309 0401 30       		.byte	0x30
 10310 0402 9F       		.byte	0x9f
 10311 0403 40000000 		.4byte	.LVL288
 10312 0407 42000000 		.4byte	.LVL289
 10313 040b 0200     		.2byte	0x2
 10314 040d 31       		.byte	0x31
 10315 040e 9F       		.byte	0x9f
 10316 040f 50000000 		.4byte	.LVL292
 10317 0413 54000000 		.4byte	.LVL293
 10318 0417 0200     		.2byte	0x2
 10319 0419 32       		.byte	0x32
 10320 041a 9F       		.byte	0x9f
 10321 041b 64000000 		.4byte	.LVL296
 10322 041f 68000000 		.4byte	.LVL297
 10323 0423 0200     		.2byte	0x2
 10324 0425 34       		.byte	0x34
 10325 0426 9F       		.byte	0x9f
 10326 0427 70000000 		.4byte	.LVL299
 10327 042b 74000000 		.4byte	.LVL300
 10328 042f 0200     		.2byte	0x2
 10329 0431 33       		.byte	0x33
 10330 0432 9F       		.byte	0x9f
 10331 0433 AE000000 		.4byte	.LVL305
 10332 0437 B0000000 		.4byte	.LVL306
 10333 043b 0200     		.2byte	0x2
 10334 043d 35       		.byte	0x35
 10335 043e 9F       		.byte	0x9f
 10336 043f 0A010000 		.4byte	.LVL315
 10337 0443 0C010000 		.4byte	.LVL316
 10338 0447 0200     		.2byte	0x2
 10339 0449 30       		.byte	0x30
 10340 044a 9F       		.byte	0x9f
 10341 044b 00000000 		.4byte	0
ARM GAS  C:\Users\IVYLIU~1\AppData\Local\Temp\cc0nPDNQ.s 			page 199


 10342 044f 00000000 		.4byte	0
 10343              	.LLST22:
 10344 0453 8A000000 		.4byte	.LVL303
 10345 0457 B0000000 		.4byte	.LVL306
 10346 045b 0300     		.2byte	0x3
 10347 045d 08       		.byte	0x8
 10348 045e 64       		.byte	0x64
 10349 045f 9F       		.byte	0x9f
 10350 0460 00000000 		.4byte	0
 10351 0464 00000000 		.4byte	0
 10352              	.LLST24:
 10353 0468 8A000000 		.4byte	.LVL303
 10354 046c B0000000 		.4byte	.LVL306
 10355 0470 0200     		.2byte	0x2
 10356 0472 30       		.byte	0x30
 10357 0473 9F       		.byte	0x9f
 10358 0474 00000000 		.4byte	0
 10359 0478 00000000 		.4byte	0
 10360              	.LLST25:
 10361 047c 8A000000 		.4byte	.LVL303
 10362 0480 B0000000 		.4byte	.LVL306
 10363 0484 0300     		.2byte	0x3
 10364 0486 08       		.byte	0x8
 10365 0487 3F       		.byte	0x3f
 10366 0488 9F       		.byte	0x9f
 10367 0489 00000000 		.4byte	0
 10368 048d 00000000 		.4byte	0
 10369              	.LLST26:
 10370 0491 9C000000 		.4byte	.LVL304
 10371 0495 B0000000 		.4byte	.LVL306
 10372 0499 0300     		.2byte	0x3
 10373 049b 08       		.byte	0x8
 10374 049c 64       		.byte	0x64
 10375 049d 9F       		.byte	0x9f
 10376 049e 00000000 		.4byte	0
 10377 04a2 00000000 		.4byte	0
 10378              	.LLST28:
 10379 04a6 9C000000 		.4byte	.LVL304
 10380 04aa B0000000 		.4byte	.LVL306
 10381 04ae 0200     		.2byte	0x2
 10382 04b0 30       		.byte	0x30
 10383 04b1 9F       		.byte	0x9f
 10384 04b2 00000000 		.4byte	0
 10385 04b6 00000000 		.4byte	0
 10386              	.LLST29:
 10387 04ba 9C000000 		.4byte	.LVL304
 10388 04be B0000000 		.4byte	.LVL306
 10389 04c2 0300     		.2byte	0x3
 10390 04c4 08       		.byte	0x8
 10391 04c5 3E       		.byte	0x3e
 10392 04c6 9F       		.byte	0x9f
 10393 04c7 00000000 		.4byte	0
 10394 04cb 00000000 		.4byte	0
 10395              	.LLST30:
 10396 04cf EA000000 		.4byte	.LVL313
 10397 04d3 0C010000 		.4byte	.LVL316
 10398 04d7 0200     		.2byte	0x2
ARM GAS  C:\Users\IVYLIU~1\AppData\Local\Temp\cc0nPDNQ.s 			page 200


 10399 04d9 30       		.byte	0x30
 10400 04da 9F       		.byte	0x9f
 10401 04db 00000000 		.4byte	0
 10402 04df 00000000 		.4byte	0
 10403              	.LLST33:
 10404 04e3 EA000000 		.4byte	.LVL313
 10405 04e7 0C010000 		.4byte	.LVL316
 10406 04eb 0300     		.2byte	0x3
 10407 04ed 08       		.byte	0x8
 10408 04ee 3F       		.byte	0x3f
 10409 04ef 9F       		.byte	0x9f
 10410 04f0 00000000 		.4byte	0
 10411 04f4 00000000 		.4byte	0
 10412              	.LLST34:
 10413 04f8 FA000000 		.4byte	.LVL314
 10414 04fc 0C010000 		.4byte	.LVL316
 10415 0500 0200     		.2byte	0x2
 10416 0502 30       		.byte	0x30
 10417 0503 9F       		.byte	0x9f
 10418 0504 00000000 		.4byte	0
 10419 0508 00000000 		.4byte	0
 10420              	.LLST37:
 10421 050c FA000000 		.4byte	.LVL314
 10422 0510 0C010000 		.4byte	.LVL316
 10423 0514 0300     		.2byte	0x3
 10424 0516 08       		.byte	0x8
 10425 0517 3E       		.byte	0x3e
 10426 0518 9F       		.byte	0x9f
 10427 0519 00000000 		.4byte	0
 10428 051d 00000000 		.4byte	0
 10429              		.section	.debug_aranges,"",%progbits
 10430 0000 84000000 		.4byte	0x84
 10431 0004 0200     		.2byte	0x2
 10432 0006 00000000 		.4byte	.Ldebug_info0
 10433 000a 04       		.byte	0x4
 10434 000b 00       		.byte	0
 10435 000c 0000     		.2byte	0
 10436 000e 0000     		.2byte	0
 10437 0010 00000000 		.4byte	.LFB128
 10438 0014 18000000 		.4byte	.LFE128-.LFB128
 10439 0018 00000000 		.4byte	.LFB126
 10440 001c 1E000000 		.4byte	.LFE126-.LFB126
 10441 0020 00000000 		.4byte	.LFB127
 10442 0024 4C000000 		.4byte	.LFE127-.LFB127
 10443 0028 00000000 		.4byte	.LFB129
 10444 002c BC000000 		.4byte	.LFE129-.LFB129
 10445 0030 00000000 		.4byte	.LFB130
 10446 0034 24000000 		.4byte	.LFE130-.LFB130
 10447 0038 00000000 		.4byte	.LFB132
 10448 003c F0000000 		.4byte	.LFE132-.LFB132
 10449 0040 00000000 		.4byte	.LFB133
 10450 0044 40000000 		.4byte	.LFE133-.LFB133
 10451 0048 00000000 		.4byte	.LFB134
 10452 004c A0000000 		.4byte	.LFE134-.LFB134
 10453 0050 00000000 		.4byte	.LFB135
 10454 0054 18060000 		.4byte	.LFE135-.LFB135
 10455 0058 00000000 		.4byte	.LFB136
ARM GAS  C:\Users\IVYLIU~1\AppData\Local\Temp\cc0nPDNQ.s 			page 201


 10456 005c 28000000 		.4byte	.LFE136-.LFB136
 10457 0060 00000000 		.4byte	.LFB124
 10458 0064 80000000 		.4byte	.LFE124-.LFB124
 10459 0068 00000000 		.4byte	.LFB125
 10460 006c 38000000 		.4byte	.LFE125-.LFB125
 10461 0070 00000000 		.4byte	.LFB131
 10462 0074 88010000 		.4byte	.LFE131-.LFB131
 10463 0078 00000000 		.4byte	.LFB123
 10464 007c 34010000 		.4byte	.LFE123-.LFB123
 10465 0080 00000000 		.4byte	0
 10466 0084 00000000 		.4byte	0
 10467              		.section	.debug_ranges,"",%progbits
 10468              	.Ldebug_ranges0:
 10469 0000 00000000 		.4byte	.LFB128
 10470 0004 18000000 		.4byte	.LFE128
 10471 0008 00000000 		.4byte	.LFB126
 10472 000c 1E000000 		.4byte	.LFE126
 10473 0010 00000000 		.4byte	.LFB127
 10474 0014 4C000000 		.4byte	.LFE127
 10475 0018 00000000 		.4byte	.LFB129
 10476 001c BC000000 		.4byte	.LFE129
 10477 0020 00000000 		.4byte	.LFB130
 10478 0024 24000000 		.4byte	.LFE130
 10479 0028 00000000 		.4byte	.LFB132
 10480 002c F0000000 		.4byte	.LFE132
 10481 0030 00000000 		.4byte	.LFB133
 10482 0034 40000000 		.4byte	.LFE133
 10483 0038 00000000 		.4byte	.LFB134
 10484 003c A0000000 		.4byte	.LFE134
 10485 0040 00000000 		.4byte	.LFB135
 10486 0044 18060000 		.4byte	.LFE135
 10487 0048 00000000 		.4byte	.LFB136
 10488 004c 28000000 		.4byte	.LFE136
 10489 0050 00000000 		.4byte	.LFB124
 10490 0054 80000000 		.4byte	.LFE124
 10491 0058 00000000 		.4byte	.LFB125
 10492 005c 38000000 		.4byte	.LFE125
 10493 0060 00000000 		.4byte	.LFB131
 10494 0064 88010000 		.4byte	.LFE131
 10495 0068 00000000 		.4byte	.LFB123
 10496 006c 34010000 		.4byte	.LFE123
 10497 0070 00000000 		.4byte	0
 10498 0074 00000000 		.4byte	0
 10499              		.section	.debug_line,"",%progbits
 10500              	.Ldebug_line0:
 10501 0000 5F050000 		.section	.debug_str,"MS",%progbits,1
 10501      0200A902 
 10501      00000201 
 10501      FB0E0D00 
 10501      01010101 
 10502              	.LASF95:
 10503 0000 61726D5F 		.ascii	"arm_cfft_instance_f32\000"
 10503      63666674 
 10503      5F696E73 
 10503      74616E63 
 10503      655F6633 
 10504              	.LASF107:
ARM GAS  C:\Users\IVYLIU~1\AppData\Local\Temp\cc0nPDNQ.s 			page 202


 10505 0016 6B65795F 		.ascii	"key_num\000"
 10505      6E756D00 
 10506              	.LASF154:
 10507 001e 4755495F 		.ascii	"GUI_Font32B_ASCII\000"
 10507      466F6E74 
 10507      3332425F 
 10507      41534349 
 10507      4900
 10508              	.LASF110:
 10509 0030 736F6E67 		.ascii	"song_number\000"
 10509      5F6E756D 
 10509      62657200 
 10510              	.LASF101:
 10511 003c 43414C49 		.ascii	"CALIBRATE\000"
 10511      42524154 
 10511      4500
 10512              	.LASF114:
 10513 0046 6D617856 		.ascii	"maxValue\000"
 10513      616C7565 
 10513      00
 10514              	.LASF176:
 10515 004f 73747263 		.ascii	"strcmp\000"
 10515      6D7000
 10516              	.LASF30:
 10517 0056 4755495F 		.ascii	"GUI_FONT_TRANSINFO\000"
 10517      464F4E54 
 10517      5F545241 
 10517      4E53494E 
 10517      464F00
 10518              	.LASF144:
 10519 0069 5F5F636F 		.ascii	"__copy_table_t\000"
 10519      70795F74 
 10519      61626C65 
 10519      5F7400
 10520              	.LASF200:
 10521 0078 73707269 		.ascii	"sprintf\000"
 10521      6E746600 
 10522              	.LASF38:
 10523 0080 59506F73 		.ascii	"YPos\000"
 10523      00
 10524              	.LASF147:
 10525 0085 5F5F7A65 		.ascii	"__zero_table_t\000"
 10525      726F5F74 
 10525      61626C65 
 10525      5F7400
 10526              	.LASF4:
 10527 0094 5F5F7569 		.ascii	"__uint8_t\000"
 10527      6E74385F 
 10527      7400
 10528              	.LASF43:
 10529 009e 704E6578 		.ascii	"pNext\000"
 10529      7400
 10530              	.LASF166:
 10531 00a4 74657374 		.ascii	"testInput\000"
 10531      496E7075 
 10531      7400
 10532              	.LASF39:
ARM GAS  C:\Users\IVYLIU~1\AppData\Local\Temp\cc0nPDNQ.s 			page 203


 10533 00ae 4755495F 		.ascii	"GUI_CHARINFO_EXT\000"
 10533      43484152 
 10533      494E464F 
 10533      5F455854 
 10533      00
 10534              	.LASF82:
 10535 00bf 41524D5F 		.ascii	"ARM_MATH_SUCCESS\000"
 10535      4D415448 
 10535      5F535543 
 10535      43455353 
 10535      00
 10536              	.LASF45:
 10537 00d0 4755495F 		.ascii	"GUI_FONT_PROP_EXT\000"
 10537      464F4E54 
 10537      5F50524F 
 10537      505F4558 
 10537      5400
 10538              	.LASF183:
 10539 00e2 43794465 		.ascii	"CyDelay\000"
 10539      6C617900 
 10540              	.LASF51:
 10541 00ea 4C486569 		.ascii	"LHeight\000"
 10541      67687400 
 10542              	.LASF209:
 10543 00f2 5C5C766D 		.ascii	"\\\\vmware-host\\Shared Folders\\Documents\\PSoC Cr"
 10543      77617265 
 10543      2D686F73 
 10543      745C5368 
 10543      61726564 
 10544 0120 6561746F 		.ascii	"eator\\FinalProject\\FinalV2.cydsn\000"
 10544      725C4669 
 10544      6E616C50 
 10544      726F6A65 
 10544      63745C46 
 10545              	.LASF12:
 10546 0141 6C6F6E67 		.ascii	"long long unsigned int\000"
 10546      206C6F6E 
 10546      6720756E 
 10546      7369676E 
 10546      65642069 
 10547              	.LASF124:
 10548 0158 64726177 		.ascii	"drawCalibrateScreen\000"
 10548      43616C69 
 10548      62726174 
 10548      65536372 
 10548      65656E00 
 10549              	.LASF179:
 10550 016c 61726D5F 		.ascii	"arm_cfft_f32\000"
 10550      63666674 
 10550      5F663332 
 10550      00
 10551              	.LASF97:
 10552 0179 4D4F4445 		.ascii	"MODE_SELECT\000"
 10552      5F53454C 
 10552      45435400 
 10553              	.LASF7:
 10554 0185 5F5F696E 		.ascii	"__int32_t\000"
ARM GAS  C:\Users\IVYLIU~1\AppData\Local\Temp\cc0nPDNQ.s 			page 204


 10554      7433325F 
 10554      7400
 10555              	.LASF150:
 10556 018f 49544D5F 		.ascii	"ITM_RxBuffer\000"
 10556      52784275 
 10556      66666572 
 10556      00
 10557              	.LASF74:
 10558 019c 4755495F 		.ascii	"GUI_ISINFONT\000"
 10558      4953494E 
 10558      464F4E54 
 10558      00
 10559              	.LASF66:
 10560 01a9 70664765 		.ascii	"pfGetCharInfo\000"
 10560      74436861 
 10560      72496E66 
 10560      6F00
 10561              	.LASF146:
 10562 01b7 5F5F636F 		.ascii	"__copy_table_end__\000"
 10562      70795F74 
 10562      61626C65 
 10562      5F656E64 
 10562      5F5F00
 10563              	.LASF164:
 10564 01ca 74657374 		.ascii	"testIndex\000"
 10564      496E6465 
 10564      7800
 10565              	.LASF171:
 10566 01d4 534F4E47 		.ascii	"SONGS_LENGTH\000"
 10566      535F4C45 
 10566      4E475448 
 10566      00
 10567              	.LASF11:
 10568 01e1 6C6F6E67 		.ascii	"long long int\000"
 10568      206C6F6E 
 10568      6720696E 
 10568      7400
 10569              	.LASF1:
 10570 01ef 7369676E 		.ascii	"signed char\000"
 10570      65642063 
 10570      68617200 
 10571              	.LASF138:
 10572 01fb 4E505F67 		.ascii	"NP_g_nNumberOfPixels\000"
 10572      5F6E4E75 
 10572      6D626572 
 10572      4F665069 
 10572      78656C73 
 10573              	.LASF127:
 10574 0210 74657874 		.ascii	"text_x\000"
 10574      5F7800
 10575              	.LASF128:
 10576 0217 74657874 		.ascii	"text_y\000"
 10576      5F7900
 10577              	.LASF28:
 10578 021e 4C617374 		.ascii	"LastChar\000"
 10578      43686172 
 10578      00
ARM GAS  C:\Users\IVYLIU~1\AppData\Local\Temp\cc0nPDNQ.s 			page 205


 10579              	.LASF152:
 10580 0227 4755495F 		.ascii	"GUI_Font20B_ASCII\000"
 10580      466F6E74 
 10580      3230425F 
 10580      41534349 
 10580      4900
 10581              	.LASF210:
 10582 0239 53746174 		.ascii	"States\000"
 10582      657300
 10583              	.LASF64:
 10584 0240 70664765 		.ascii	"pfGetFontInfo\000"
 10584      74466F6E 
 10584      74496E66 
 10584      6F00
 10585              	.LASF162:
 10586 024e 646F4269 		.ascii	"doBitReverse\000"
 10586      74526576 
 10586      65727365 
 10586      00
 10587              	.LASF86:
 10588 025b 41524D5F 		.ascii	"ARM_MATH_NANINF\000"
 10588      4D415448 
 10588      5F4E414E 
 10588      494E4600 
 10589              	.LASF141:
 10590 026b 4E505F67 		.ascii	"NP_g_bOwnsBuffer\000"
 10590      5F624F77 
 10590      6E734275 
 10590      66666572 
 10590      00
 10591              	.LASF44:
 10592 027c 4755495F 		.ascii	"GUI_FONT_PROP\000"
 10592      464F4E54 
 10592      5F50524F 
 10592      5000
 10593              	.LASF192:
 10594 028a 4755495F 		.ascii	"GUI_DispStringHCenterAt\000"
 10594      44697370 
 10594      53747269 
 10594      6E674843 
 10594      656E7465 
 10595              	.LASF137:
 10596 02a2 73746174 		.ascii	"state\000"
 10596      6500
 10597              	.LASF8:
 10598 02a8 6C6F6E67 		.ascii	"long int\000"
 10598      20696E74 
 10598      00
 10599              	.LASF197:
 10600 02b1 4755495F 		.ascii	"GUI_FillEllipse\000"
 10600      46696C6C 
 10600      456C6C69 
 10600      70736500 
 10601              	.LASF18:
 10602 02c1 75696E74 		.ascii	"uint8\000"
 10602      3800
 10603              	.LASF135:
ARM GAS  C:\Users\IVYLIU~1\AppData\Local\Temp\cc0nPDNQ.s 			page 206


 10604 02c7 6375725F 		.ascii	"cur_song\000"
 10604      736F6E67 
 10604      00
 10605              	.LASF93:
 10606 02d0 70426974 		.ascii	"pBitRevTable\000"
 10606      52657654 
 10606      61626C65 
 10606      00
 10607              	.LASF15:
 10608 02dd 75696E74 		.ascii	"uint16_t\000"
 10608      31365F74 
 10608      00
 10609              	.LASF62:
 10610 02e6 70664469 		.ascii	"pfDispChar\000"
 10610      73704368 
 10610      617200
 10611              	.LASF0:
 10612 02f1 646F7562 		.ascii	"double\000"
 10612      6C6500
 10613              	.LASF54:
 10614 02f8 74475549 		.ascii	"tGUI_GetLineDistX\000"
 10614      5F476574 
 10614      4C696E65 
 10614      44697374 
 10614      5800
 10615              	.LASF123:
 10616 030a 736F6E67 		.ascii	"song_index\000"
 10616      5F696E64 
 10616      657800
 10617              	.LASF139:
 10618 0315 4E505F67 		.ascii	"NP_g_nDMA_Chan\000"
 10618      5F6E444D 
 10618      415F4368 
 10618      616E00
 10619              	.LASF78:
 10620 0324 7050726F 		.ascii	"pProp\000"
 10620      7000
 10621              	.LASF153:
 10622 032a 4755495F 		.ascii	"GUI_Font24B_ASCII\000"
 10622      466F6E74 
 10622      3234425F 
 10622      41534349 
 10622      4900
 10623              	.LASF202:
 10624 033c 4144435F 		.ascii	"ADC_DelSig_1_Start\000"
 10624      44656C53 
 10624      69675F31 
 10624      5F537461 
 10624      727400
 10625              	.LASF75:
 10626 034f 4755495F 		.ascii	"GUI_GETCHARINFO\000"
 10626      47455443 
 10626      48415249 
 10626      4E464F00 
 10627              	.LASF19:
 10628 035f 75696E74 		.ascii	"uint32\000"
 10628      333200
ARM GAS  C:\Users\IVYLIU~1\AppData\Local\Temp\cc0nPDNQ.s 			page 207


 10629              	.LASF61:
 10630 0366 4755495F 		.ascii	"GUI_FONT\000"
 10630      464F4E54 
 10630      00
 10631              	.LASF55:
 10632 036f 74475549 		.ascii	"tGUI_GetLineLen\000"
 10632      5F476574 
 10632      4C696E65 
 10632      4C656E00 
 10633              	.LASF68:
 10634 037f 59446973 		.ascii	"YDist\000"
 10634      7400
 10635              	.LASF56:
 10636 0385 74474C5F 		.ascii	"tGL_DispLine\000"
 10636      44697370 
 10636      4C696E65 
 10636      00
 10637              	.LASF160:
 10638 0392 66667453 		.ascii	"fftSize\000"
 10638      697A6500 
 10639              	.LASF100:
 10640 039a 43414C49 		.ascii	"CALIBRATE_SETUP\000"
 10640      42524154 
 10640      455F5345 
 10640      54555000 
 10641              	.LASF193:
 10642 03aa 5357325F 		.ascii	"SW2_Read\000"
 10642      52656164 
 10642      00
 10643              	.LASF109:
 10644 03b3 536F6E67 		.ascii	"Songs\000"
 10644      7300
 10645              	.LASF180:
 10646 03b9 61726D5F 		.ascii	"arm_cmplx_mag_f32\000"
 10646      636D706C 
 10646      785F6D61 
 10646      675F6633 
 10646      3200
 10647              	.LASF131:
 10648 03cb 64657465 		.ascii	"detectAndDrawNote\000"
 10648      6374416E 
 10648      64447261 
 10648      774E6F74 
 10648      6500
 10649              	.LASF20:
 10650 03dd 696E7433 		.ascii	"int32\000"
 10650      3200
 10651              	.LASF91:
 10652 03e3 6666744C 		.ascii	"fftLen\000"
 10652      656E00
 10653              	.LASF169:
 10654 03ea 534F4E47 		.ascii	"SONG0_SEQ\000"
 10654      305F5345 
 10654      5100
 10655              	.LASF69:
 10656 03f4 584D6167 		.ascii	"XMag\000"
 10656      00
ARM GAS  C:\Users\IVYLIU~1\AppData\Local\Temp\cc0nPDNQ.s 			page 208


 10657              	.LASF26:
 10658 03f9 4755495F 		.ascii	"GUI_FONT_TRANSLIST\000"
 10658      464F4E54 
 10658      5F545241 
 10658      4E534C49 
 10658      535400
 10659              	.LASF13:
 10660 040c 756E7369 		.ascii	"unsigned int\000"
 10660      676E6564 
 10660      20696E74 
 10660      00
 10661              	.LASF10:
 10662 0419 6C6F6E67 		.ascii	"long unsigned int\000"
 10662      20756E73 
 10662      69676E65 
 10662      6420696E 
 10662      7400
 10663              	.LASF105:
 10664 042b 6E616D65 		.ascii	"name\000"
 10664      00
 10665              	.LASF72:
 10666 0430 4755495F 		.ascii	"GUI_GETCHARDISTX\000"
 10666      47455443 
 10666      48415244 
 10666      49535458 
 10666      00
 10667              	.LASF125:
 10668 0441 64726177 		.ascii	"drawStartScreen\000"
 10668      53746172 
 10668      74536372 
 10668      65656E00 
 10669              	.LASF6:
 10670 0451 73686F72 		.ascii	"short unsigned int\000"
 10670      7420756E 
 10670      7369676E 
 10670      65642069 
 10670      6E7400
 10671              	.LASF182:
 10672 0464 6164635F 		.ascii	"adc_threshold_Write\000"
 10672      74687265 
 10672      73686F6C 
 10672      645F5772 
 10672      69746500 
 10673              	.LASF89:
 10674 0478 41524D5F 		.ascii	"ARM_MATH_DECOMPOSITION_FAILURE\000"
 10674      4D415448 
 10674      5F444543 
 10674      4F4D504F 
 10674      53495449 
 10675              	.LASF50:
 10676 0497 42617365 		.ascii	"Baseline\000"
 10676      6C696E65 
 10676      00
 10677              	.LASF25:
 10678 04a0 4755495F 		.ascii	"GUI_COLOR\000"
 10678      434F4C4F 
 10678      5200
ARM GAS  C:\Users\IVYLIU~1\AppData\Local\Temp\cc0nPDNQ.s 			page 209


 10679              	.LASF88:
 10680 04aa 41524D5F 		.ascii	"ARM_MATH_TEST_FAILURE\000"
 10680      4D415448 
 10680      5F544553 
 10680      545F4641 
 10680      494C5552 
 10681              	.LASF53:
 10682 04c0 4755495F 		.ascii	"GUI_FONTINFO\000"
 10682      464F4E54 
 10682      494E464F 
 10682      00
 10683              	.LASF76:
 10684 04cd 70466F6E 		.ascii	"pFontData\000"
 10684      74446174 
 10684      6100
 10685              	.LASF206:
 10686 04d7 4E505F53 		.ascii	"NP_Start\000"
 10686      74617274 
 10686      00
 10687              	.LASF71:
 10688 04e0 4755495F 		.ascii	"GUI_DISPCHAR\000"
 10688      44495350 
 10688      43484152 
 10688      00
 10689              	.LASF47:
 10690 04ed 70547261 		.ascii	"pTrans\000"
 10690      6E7300
 10691              	.LASF52:
 10692 04f4 43486569 		.ascii	"CHeight\000"
 10692      67687400 
 10693              	.LASF198:
 10694 04fc 4755495F 		.ascii	"GUI_DispStringAt\000"
 10694      44697370 
 10694      53747269 
 10694      6E674174 
 10694      00
 10695              	.LASF163:
 10696 050d 76617249 		.ascii	"varInstCfftF32\000"
 10696      6E737443 
 10696      66667446 
 10696      333200
 10697              	.LASF158:
 10698 051c 44656C74 		.ascii	"Deltapower\000"
 10698      61706F77 
 10698      657200
 10699              	.LASF24:
 10700 0527 4C43445F 		.ascii	"LCD_COLOR\000"
 10700      434F4C4F 
 10700      5200
 10701              	.LASF201:
 10702 0531 4755495F 		.ascii	"GUI_Clear\000"
 10702      436C6561 
 10702      7200
 10703              	.LASF155:
 10704 053b 74657374 		.ascii	"test_string\000"
 10704      5F737472 
 10704      696E6700 
ARM GAS  C:\Users\IVYLIU~1\AppData\Local\Temp\cc0nPDNQ.s 			page 210


 10705              	.LASF159:
 10706 0547 61646352 		.ascii	"adcResult\000"
 10706      6573756C 
 10706      7400
 10707              	.LASF177:
 10708 0551 61726D5F 		.ascii	"arm_cfft_init_f32\000"
 10708      63666674 
 10708      5F696E69 
 10708      745F6633 
 10708      3200
 10709              	.LASF151:
 10710 0563 4755495F 		.ascii	"GUI_Font16B_ASCII\000"
 10710      466F6E74 
 10710      3136425F 
 10710      41534349 
 10710      4900
 10711              	.LASF23:
 10712 0575 73697A65 		.ascii	"sizetype\000"
 10712      74797065 
 10712      00
 10713              	.LASF73:
 10714 057e 4755495F 		.ascii	"GUI_GETFONTINFO\000"
 10714      47455446 
 10714      4F4E5449 
 10714      4E464F00 
 10715              	.LASF165:
 10716 058e 6D696464 		.ascii	"middle_c_bin\000"
 10716      6C655F63 
 10716      5F62696E 
 10716      00
 10717              	.LASF33:
 10718 059b 42797465 		.ascii	"BytesPerLine\000"
 10718      73506572 
 10718      4C696E65 
 10718      00
 10719              	.LASF208:
 10720 05a8 2E5C6D61 		.ascii	".\\main.c\000"
 10720      696E2E63 
 10720      00
 10721              	.LASF140:
 10722 05b1 4E505F67 		.ascii	"NP_g_nDMA_TD\000"
 10722      5F6E444D 
 10722      415F5444 
 10722      00
 10723              	.LASF199:
 10724 05be 4755495F 		.ascii	"GUI_DrawRect\000"
 10724      44726177 
 10724      52656374 
 10724      00
 10725              	.LASF48:
 10726 05cb 4755495F 		.ascii	"GUI_FONT_MONO\000"
 10726      464F4E54 
 10726      5F4D4F4E 
 10726      4F00
 10727              	.LASF118:
 10728 05d9 6375725F 		.ascii	"cur_note\000"
 10728      6E6F7465 
ARM GAS  C:\Users\IVYLIU~1\AppData\Local\Temp\cc0nPDNQ.s 			page 211


 10728      00
 10729              	.LASF132:
 10730 05e2 64726177 		.ascii	"drawPlaySong\000"
 10730      506C6179 
 10730      536F6E67 
 10730      00
 10731              	.LASF63:
 10732 05ef 70664765 		.ascii	"pfGetCharDistX\000"
 10732      74436861 
 10732      72446973 
 10732      745800
 10733              	.LASF173:
 10734 05fe 64657374 		.ascii	"dest\000"
 10734      00
 10735              	.LASF84:
 10736 0603 41524D5F 		.ascii	"ARM_MATH_LENGTH_ERROR\000"
 10736      4D415448 
 10736      5F4C454E 
 10736      4754485F 
 10736      4552524F 
 10737              	.LASF167:
 10738 0619 74657374 		.ascii	"testOutput\000"
 10738      4F757470 
 10738      757400
 10739              	.LASF142:
 10740 0624 4E505F67 		.ascii	"NP_g_pFrameBuffer\000"
 10740      5F704672 
 10740      616D6542 
 10740      75666665 
 10740      7200
 10741              	.LASF21:
 10742 0636 666C6F61 		.ascii	"float\000"
 10742      7400
 10743              	.LASF87:
 10744 063c 41524D5F 		.ascii	"ARM_MATH_SINGULAR\000"
 10744      4D415448 
 10744      5F53494E 
 10744      47554C41 
 10744      5200
 10745              	.LASF196:
 10746 064e 4755495F 		.ascii	"GUI_FillRoundedRect\000"
 10746      46696C6C 
 10746      526F756E 
 10746      64656452 
 10746      65637400 
 10747              	.LASF129:
 10748 0662 64726177 		.ascii	"drawClefs\000"
 10748      436C6566 
 10748      7300
 10749              	.LASF188:
 10750 066c 4755495F 		.ascii	"GUI_SetColor\000"
 10750      53657443 
 10750      6F6C6F72 
 10750      00
 10751              	.LASF148:
 10752 0679 5F5F7A65 		.ascii	"__zero_table_start__\000"
 10752      726F5F74 
ARM GAS  C:\Users\IVYLIU~1\AppData\Local\Temp\cc0nPDNQ.s 			page 212


 10752      61626C65 
 10752      5F737461 
 10752      72745F5F 
 10753              	.LASF46:
 10754 068e 70547261 		.ascii	"pTransData\000"
 10754      6E734461 
 10754      746100
 10755              	.LASF102:
 10756 0699 52455345 		.ascii	"RESET\000"
 10756      5400
 10757              	.LASF175:
 10758 069f 64657465 		.ascii	"detectNote\000"
 10758      63744E6F 
 10758      746500
 10759              	.LASF94:
 10760 06aa 62697452 		.ascii	"bitRevLength\000"
 10760      65764C65 
 10760      6E677468 
 10760      00
 10761              	.LASF40:
 10762 06b7 46697273 		.ascii	"First\000"
 10762      7400
 10763              	.LASF207:
 10764 06bd 474E5520 		.ascii	"GNU C 4.9.3 20150303 (release) [ARM/embedded-4_9-br"
 10764      4320342E 
 10764      392E3320 
 10764      32303135 
 10764      30333033 
 10765 06f0 616E6368 		.ascii	"anch revision 221220] -mcpu=cortex-m3 -mthumb -g -O"
 10765      20726576 
 10765      6973696F 
 10765      6E203232 
 10765      31323230 
 10766 0723 73202D73 		.ascii	"s -std=gnu99 -ffunction-sections -ffat-lto-objects\000"
 10766      74643D67 
 10766      6E753939 
 10766      202D6666 
 10766      756E6374 
 10767              	.LASF16:
 10768 0756 696E7433 		.ascii	"int32_t\000"
 10768      325F7400 
 10769              	.LASF2:
 10770 075e 756E7369 		.ascii	"unsigned char\000"
 10770      676E6564 
 10770      20636861 
 10770      7200
 10771              	.LASF32:
 10772 076c 58446973 		.ascii	"XDist\000"
 10772      7400
 10773              	.LASF120:
 10774 0772 6E6F7465 		.ascii	"note\000"
 10774      00
 10775              	.LASF174:
 10776 0777 776C656E 		.ascii	"wlen\000"
 10776      00
 10777              	.LASF3:
 10778 077c 73686F72 		.ascii	"short int\000"
ARM GAS  C:\Users\IVYLIU~1\AppData\Local\Temp\cc0nPDNQ.s 			page 213


 10778      7420696E 
 10778      7400
 10779              	.LASF57:
 10780 0786 70664765 		.ascii	"pfGetLineDistX\000"
 10780      744C696E 
 10780      65446973 
 10780      745800
 10781              	.LASF134:
 10782 0795 73636F72 		.ascii	"score_buf\000"
 10782      655F6275 
 10782      6600
 10783              	.LASF121:
 10784 079f 6765744E 		.ascii	"getNoteName\000"
 10784      6F74654E 
 10784      616D6500 
 10785              	.LASF133:
 10786 07ab 6E6F7465 		.ascii	"note_index\000"
 10786      5F696E64 
 10786      657800
 10787              	.LASF35:
 10788 07b6 4755495F 		.ascii	"GUI_CHARINFO\000"
 10788      43484152 
 10788      494E464F 
 10788      00
 10789              	.LASF170:
 10790 07c3 534F4E47 		.ascii	"SONG1_SEQ\000"
 10790      315F5345 
 10790      5100
 10791              	.LASF108:
 10792 07cd 6C65645F 		.ascii	"led_nums\000"
 10792      6E756D73 
 10792      00
 10793              	.LASF172:
 10794 07d6 736F6E67 		.ascii	"songs\000"
 10794      7300
 10795              	.LASF185:
 10796 07dc 5357335F 		.ascii	"SW3_Read\000"
 10796      52656164 
 10796      00
 10797              	.LASF99:
 10798 07e5 534F4E47 		.ascii	"SONG_DONE\000"
 10798      5F444F4E 
 10798      4500
 10799              	.LASF203:
 10800 07ef 4144435F 		.ascii	"ADC_DelSig_1_StartConvert\000"
 10800      44656C53 
 10800      69675F31 
 10800      5F537461 
 10800      7274436F 
 10801              	.LASF70:
 10802 0809 594D6167 		.ascii	"YMag\000"
 10802      00
 10803              	.LASF187:
 10804 080e 4755495F 		.ascii	"GUI_SetBkColor\000"
 10804      53657442 
 10804      6B436F6C 
 10804      6F7200
ARM GAS  C:\Users\IVYLIU~1\AppData\Local\Temp\cc0nPDNQ.s 			page 214


 10805              	.LASF42:
 10806 081d 70614368 		.ascii	"paCharInfo\000"
 10806      6172496E 
 10806      666F00
 10807              	.LASF126:
 10808 0828 64726177 		.ascii	"drawNote\000"
 10808      4E6F7465 
 10808      00
 10809              	.LASF111:
 10810 0831 6E6F7465 		.ascii	"note_seq\000"
 10810      5F736571 
 10810      00
 10811              	.LASF103:
 10812 083a 54455354 		.ascii	"TESTING\000"
 10812      494E4700 
 10813              	.LASF59:
 10814 0842 70664469 		.ascii	"pfDispLine\000"
 10814      73704C69 
 10814      6E6500
 10815              	.LASF80:
 10816 084d 6C6F6E67 		.ascii	"long double\000"
 10816      20646F75 
 10816      626C6500 
 10817              	.LASF186:
 10818 0859 4144435F 		.ascii	"ADC_DelSig_1_GetResult32\000"
 10818      44656C53 
 10818      69675F31 
 10818      5F476574 
 10818      52657375 
 10819              	.LASF22:
 10820 0872 63686172 		.ascii	"char\000"
 10820      00
 10821              	.LASF156:
 10822 0877 70506978 		.ascii	"pPixelArray\000"
 10822      656C4172 
 10822      72617900 
 10823              	.LASF145:
 10824 0883 5F5F636F 		.ascii	"__copy_table_start__\000"
 10824      70795F74 
 10824      61626C65 
 10824      5F737461 
 10824      72745F5F 
 10825              	.LASF60:
 10826 0898 74475549 		.ascii	"tGUI_ENC_APIList\000"
 10826      5F454E43 
 10826      5F415049 
 10826      4C697374 
 10826      00
 10827              	.LASF5:
 10828 08a9 5F5F7569 		.ascii	"__uint16_t\000"
 10828      6E743136 
 10828      5F7400
 10829              	.LASF85:
 10830 08b4 41524D5F 		.ascii	"ARM_MATH_SIZE_MISMATCH\000"
 10830      4D415448 
 10830      5F53495A 
 10830      455F4D49 
ARM GAS  C:\Users\IVYLIU~1\AppData\Local\Temp\cc0nPDNQ.s 			page 215


 10830      534D4154 
 10831              	.LASF49:
 10832 08cb 466C6167 		.ascii	"Flags\000"
 10832      7300
 10833              	.LASF104:
 10834 08d1 4E6F7465 		.ascii	"Notes\000"
 10834      7300
 10835              	.LASF9:
 10836 08d7 5F5F7569 		.ascii	"__uint32_t\000"
 10836      6E743332 
 10836      5F7400
 10837              	.LASF189:
 10838 08e2 4755495F 		.ascii	"GUI_SetFont\000"
 10838      53657446 
 10838      6F6E7400 
 10839              	.LASF67:
 10840 08ee 70616645 		.ascii	"pafEncode\000"
 10840      6E636F64 
 10840      6500
 10841              	.LASF106:
 10842 08f8 6F666673 		.ascii	"offset\000"
 10842      657400
 10843              	.LASF157:
 10844 08ff 706F7765 		.ascii	"power\000"
 10844      7200
 10845              	.LASF149:
 10846 0905 5F5F7A65 		.ascii	"__zero_table_end__\000"
 10846      726F5F74 
 10846      61626C65 
 10846      5F656E64 
 10846      5F5F00
 10847              	.LASF116:
 10848 0918 7365744E 		.ascii	"setNote\000"
 10848      6F746500 
 10849              	.LASF181:
 10850 0920 61726D5F 		.ascii	"arm_max_f32\000"
 10850      6D61785F 
 10850      66333200 
 10851              	.LASF190:
 10852 092c 4755495F 		.ascii	"GUI_SetTextMode\000"
 10852      53657454 
 10852      6578744D 
 10852      6F646500 
 10853              	.LASF58:
 10854 093c 70664765 		.ascii	"pfGetLineLen\000"
 10854      744C696E 
 10854      654C656E 
 10854      00
 10855              	.LASF81:
 10856 0949 666C6F61 		.ascii	"float32_t\000"
 10856      7433325F 
 10856      7400
 10857              	.LASF29:
 10858 0953 704C6973 		.ascii	"pList\000"
 10858      7400
 10859              	.LASF17:
 10860 0959 75696E74 		.ascii	"uint32_t\000"
ARM GAS  C:\Users\IVYLIU~1\AppData\Local\Temp\cc0nPDNQ.s 			page 216


 10860      33325F74 
 10860      00
 10861              	.LASF178:
 10862 0962 73657450 		.ascii	"setPixel\000"
 10862      6978656C 
 10862      00
 10863              	.LASF98:
 10864 096b 534F4E47 		.ascii	"SONG_SELECT\000"
 10864      5F53454C 
 10864      45435400 
 10865              	.LASF184:
 10866 0977 4144435F 		.ascii	"ADC_DelSig_1_IsEndConversion\000"
 10866      44656C53 
 10866      69675F31 
 10866      5F497345 
 10866      6E64436F 
 10867              	.LASF92:
 10868 0994 70547769 		.ascii	"pTwiddle\000"
 10868      64646C65 
 10868      00
 10869              	.LASF113:
 10870 099d 6666745F 		.ascii	"fft_start\000"
 10870      73746172 
 10870      7400
 10871              	.LASF96:
 10872 09a7 53544152 		.ascii	"START\000"
 10872      5400
 10873              	.LASF130:
 10874 09ad 74657374 		.ascii	"testFunction\000"
 10874      46756E63 
 10874      74696F6E 
 10874      00
 10875              	.LASF31:
 10876 09ba 5853697A 		.ascii	"XSize\000"
 10876      6500
 10877              	.LASF36:
 10878 09c0 5953697A 		.ascii	"YSize\000"
 10878      6500
 10879              	.LASF14:
 10880 09c6 75696E74 		.ascii	"uint8_t\000"
 10880      385F7400 
 10881              	.LASF143:
 10882 09ce 4E505F67 		.ascii	"NP_g_nFrameBufferSize\000"
 10882      5F6E4672 
 10882      616D6542 
 10882      75666665 
 10882      7253697A 
 10883              	.LASF117:
 10884 09e4 696E7075 		.ascii	"input_name\000"
 10884      745F6E61 
 10884      6D6500
 10885              	.LASF90:
 10886 09ef 61726D5F 		.ascii	"arm_status\000"
 10886      73746174 
 10886      757300
 10887              	.LASF211:
 10888 09fa 4E505F55 		.ascii	"NP_Update\000"
ARM GAS  C:\Users\IVYLIU~1\AppData\Local\Temp\cc0nPDNQ.s 			page 217


 10888      70646174 
 10888      6500
 10889              	.LASF168:
 10890 0a04 6E6F7465 		.ascii	"notes\000"
 10890      7300
 10891              	.LASF191:
 10892 0a0a 4755495F 		.ascii	"GUI_SetTextAlign\000"
 10892      53657454 
 10892      65787441 
 10892      6C69676E 
 10892      00
 10893              	.LASF27:
 10894 0a1b 46697273 		.ascii	"FirstChar\000"
 10894      74436861 
 10894      7200
 10895              	.LASF115:
 10896 0a25 636C6561 		.ascii	"clearLEDs\000"
 10896      724C4544 
 10896      7300
 10897              	.LASF41:
 10898 0a2f 4C617374 		.ascii	"Last\000"
 10898      00
 10899              	.LASF195:
 10900 0a34 4755495F 		.ascii	"GUI_FillRect\000"
 10900      46696C6C 
 10900      52656374 
 10900      00
 10901              	.LASF112:
 10902 0a41 736F6E67 		.ascii	"song_length\000"
 10902      5F6C656E 
 10902      67746800 
 10903              	.LASF204:
 10904 0a4d 5350494D 		.ascii	"SPIM_1_Start\000"
 10904      5F315F53 
 10904      74617274 
 10904      00
 10905              	.LASF83:
 10906 0a5a 41524D5F 		.ascii	"ARM_MATH_ARGUMENT_ERROR\000"
 10906      4D415448 
 10906      5F415247 
 10906      554D454E 
 10906      545F4552 
 10907              	.LASF205:
 10908 0a72 4755495F 		.ascii	"GUI_Init\000"
 10908      496E6974 
 10908      00
 10909              	.LASF119:
 10910 0a7b 696E7075 		.ascii	"input_offset\000"
 10910      745F6F66 
 10910      66736574 
 10910      00
 10911              	.LASF34:
 10912 0a88 70446174 		.ascii	"pData\000"
 10912      6100
 10913              	.LASF136:
 10914 0a8e 6D61696E 		.ascii	"main\000"
 10914      00
ARM GAS  C:\Users\IVYLIU~1\AppData\Local\Temp\cc0nPDNQ.s 			page 218


 10915              	.LASF79:
 10916 0a93 7050726F 		.ascii	"pPropExt\000"
 10916      70457874 
 10916      00
 10917              	.LASF194:
 10918 0a9c 4755495F 		.ascii	"GUI_GetBkColor\000"
 10918      47657442 
 10918      6B436F6C 
 10918      6F7200
 10919              	.LASF122:
 10920 0aab 64726177 		.ascii	"drawSongSelection\000"
 10920      536F6E67 
 10920      53656C65 
 10920      6374696F 
 10920      6E00
 10921              	.LASF65:
 10922 0abd 70664973 		.ascii	"pfIsInFont\000"
 10922      496E466F 
 10922      6E7400
 10923              	.LASF77:
 10924 0ac8 704D6F6E 		.ascii	"pMono\000"
 10924      6F00
 10925              	.LASF37:
 10926 0ace 58506F73 		.ascii	"XPos\000"
 10926      00
 10927              	.LASF161:
 10928 0ad3 69666674 		.ascii	"ifftFlag\000"
 10928      466C6167 
 10928      00
 10929              		.ident	"GCC: (GNU Tools for ARM Embedded Processors) 4.9.3 20150303 (release) [ARM/embedded-4_9-br
