ARM GAS  C:\Users\IVYLIU~1\AppData\Local\Temp\ccGNVt9y.s 			page 1


   1              		.syntax unified
   2              		.cpu cortex-m3
   3              		.fpu softvfp
   4              		.eabi_attribute 20, 1
   5              		.eabi_attribute 21, 1
   6              		.eabi_attribute 23, 3
   7              		.eabi_attribute 24, 1
   8              		.eabi_attribute 25, 1
   9              		.eabi_attribute 26, 1
  10              		.eabi_attribute 30, 4
  11              		.eabi_attribute 34, 1
  12              		.eabi_attribute 18, 4
  13              		.thumb
  14              		.file	"NP_funcs.c"
  15              		.text
  16              	.Ltext0:
  17              		.cfi_sections	.debug_frame
  18              		.global	__aeabi_ddiv
  19              		.global	__aeabi_dcmpgt
  20              		.global	__aeabi_d2uiz
  21              		.section	.text.NP_Start,"ax",%progbits
  22              		.align	1
  23              		.global	NP_Start
  24              		.thumb
  25              		.thumb_func
  26              		.type	NP_Start, %function
  27              	NP_Start:
  28              	.LFB0:
  29              		.file 1 ".\\Generated_Source\\PSoC5\\NP_funcs.c"
   1:.\Generated_Source\PSoC5/NP_funcs.c **** /* ========================================
   2:.\Generated_Source\PSoC5/NP_funcs.c ****  *
   3:.\Generated_Source\PSoC5/NP_funcs.c ****  * API function definitions for NeoPixel
   4:.\Generated_Source\PSoC5/NP_funcs.c ****  * PSOC5 driver component.
   5:.\Generated_Source\PSoC5/NP_funcs.c ****  * 
   6:.\Generated_Source\PSoC5/NP_funcs.c ****  * Nick Burns (PolyVinalDistillate)
   7:.\Generated_Source\PSoC5/NP_funcs.c ****  *
   8:.\Generated_Source\PSoC5/NP_funcs.c ****  * ========================================
   9:.\Generated_Source\PSoC5/NP_funcs.c **** */
  10:.\Generated_Source\PSoC5/NP_funcs.c **** #include "NP_funcs.h"
  11:.\Generated_Source\PSoC5/NP_funcs.c **** 
  12:.\Generated_Source\PSoC5/NP_funcs.c **** volatile void* NP_Start(unsigned int nNumberOfNeopixels, void* pBuffer, double fSpeedMHz)
  13:.\Generated_Source\PSoC5/NP_funcs.c **** {
  30              		.loc 1 13 0
  31              		.cfi_startproc
  32              		@ args = 0, pretend = 0, frame = 8
  33              		@ frame_needed = 0, uses_anonymous_args = 0
  34              	.LVL0:
  35 0000 2DE9F74F 		push	{r0, r1, r2, r4, r5, r6, r7, r8, r9, r10, fp, lr}
  36              		.cfi_def_cfa_offset 48
  37              		.cfi_offset 4, -36
  38              		.cfi_offset 5, -32
  39              		.cfi_offset 6, -28
  40              		.cfi_offset 7, -24
  41              		.cfi_offset 8, -20
  42              		.cfi_offset 9, -16
  43              		.cfi_offset 10, -12
  44              		.cfi_offset 11, -8
ARM GAS  C:\Users\IVYLIU~1\AppData\Local\Temp\ccGNVt9y.s 			page 2


  45              		.cfi_offset 14, -4
  14:.\Generated_Source\PSoC5/NP_funcs.c ****     //work out cycles required at specified clock speed...
  15:.\Generated_Source\PSoC5/NP_funcs.c ****     NP_g_pFrameBuffer = NULL;
  46              		.loc 1 15 0
  47 0004 3C4D     		ldr	r5, .L8+24
  13:.\Generated_Source\PSoC5/NP_funcs.c ****     //work out cycles required at specified clock speed...
  48              		.loc 1 13 0
  49 0006 8246     		mov	r10, r0
  50 0008 8B46     		mov	fp, r1
  51              		.loc 1 15 0
  52 000a 0024     		movs	r4, #0
  16:.\Generated_Source\PSoC5/NP_funcs.c ****     if((1.25/(1.0/(fSpeedMHz))) > 255) return NULL;
  53              		.loc 1 16 0
  54 000c 0020     		movs	r0, #0
  55              	.LVL1:
  56 000e 3B49     		ldr	r1, .L8+28
  57              	.LVL2:
  15:.\Generated_Source\PSoC5/NP_funcs.c ****     if((1.25/(1.0/(fSpeedMHz))) > 255) return NULL;
  58              		.loc 1 15 0
  59 0010 2C60     		str	r4, [r5]
  60              		.loc 1 16 0
  61 0012 FFF7FEFF 		bl	__aeabi_ddiv
  62              	.LVL3:
  63 0016 0646     		mov	r6, r0
  64 0018 0F46     		mov	r7, r1
  65 001a 3246     		mov	r2, r6
  66 001c 3B46     		mov	r3, r7
  67 001e 0020     		movs	r0, #0
  68 0020 3749     		ldr	r1, .L8+32
  69 0022 FFF7FEFF 		bl	__aeabi_ddiv
  70              	.LVL4:
  71 0026 2EA3     		adr	r3, .L8
  72 0028 D3E90023 		ldrd	r2, [r3]
  73 002c 8046     		mov	r8, r0
  74 002e 8946     		mov	r9, r1
  75 0030 FFF7FEFF 		bl	__aeabi_dcmpgt
  76              	.LVL5:
  77 0034 0190     		str	r0, [sp, #4]
  78 0036 0028     		cmp	r0, #0
  79 0038 4ED1     		bne	.L6
  17:.\Generated_Source\PSoC5/NP_funcs.c ****     
  18:.\Generated_Source\PSoC5/NP_funcs.c ****     unsigned char fCyclesTotal = (unsigned char)(1.25/(1.0/(fSpeedMHz)));
  80              		.loc 1 18 0
  81 003a 4946     		mov	r1, r9
  82 003c 4046     		mov	r0, r8
  83 003e FFF7FEFF 		bl	__aeabi_d2uiz
  84              	.LVL6:
  19:.\Generated_Source\PSoC5/NP_funcs.c ****     unsigned char fCyclesOn = (unsigned char)(0.7/(1.0/(fSpeedMHz)));
  20:.\Generated_Source\PSoC5/NP_funcs.c ****     unsigned char fCyclesOff = (unsigned char)(0.35/(1.0/(fSpeedMHz)));
  21:.\Generated_Source\PSoC5/NP_funcs.c ****     
  22:.\Generated_Source\PSoC5/NP_funcs.c ****     NP_g_nFrameBufferSize = nNumberOfNeopixels*3;
  85              		.loc 1 22 0
  86 0042 304C     		ldr	r4, .L8+36
  87 0044 0AEB4A0A 		add	r10, r10, r10, lsl #1
  88              	.LVL7:
  18:.\Generated_Source\PSoC5/NP_funcs.c ****     unsigned char fCyclesOn = (unsigned char)(0.7/(1.0/(fSpeedMHz)));
  89              		.loc 1 18 0
ARM GAS  C:\Users\IVYLIU~1\AppData\Local\Temp\ccGNVt9y.s 			page 3


  90 0048 5FFA80F8 		uxtb	r8, r0
  91              	.LVL8:
  92              		.loc 1 22 0
  93 004c C4F800A0 		str	r10, [r4]
  23:.\Generated_Source\PSoC5/NP_funcs.c ****     //Configure for 19.2 MHz operation
  24:.\Generated_Source\PSoC5/NP_funcs.c ****     NP_Neo_BITCNT_Start();        //Counts bits in a byte
  94              		.loc 1 24 0
  95 0050 FFF7FEFF 		bl	NP_Neo_BITCNT_Start
  96              	.LVL9:
  25:.\Generated_Source\PSoC5/NP_funcs.c ****     NP_Neo_ONTime_Start();        //Sets number of clocks for logic 1 pulse width
  97              		.loc 1 25 0
  98 0054 FFF7FEFF 		bl	NP_Neo_ONTime_Start
  99              	.LVL10:
  26:.\Generated_Source\PSoC5/NP_funcs.c ****     NP_Neo_OFFTime_Start();       //clocks for logic 0 pulse width
 100              		.loc 1 26 0
 101 0058 FFF7FEFF 		bl	NP_Neo_OFFTime_Start
 102              	.LVL11:
  20:.\Generated_Source\PSoC5/NP_funcs.c ****     
 103              		.loc 1 20 0
 104 005c 22A1     		adr	r1, .L8+8
 105 005e D1E90001 		ldrd	r0, [r1]
  27:.\Generated_Source\PSoC5/NP_funcs.c ****     //Sets bitrate frequency in number of clocks. Must be larger than largest of above two counter 
  28:.\Generated_Source\PSoC5/NP_funcs.c ****     CY_SET_REG8(NP_Neo_DPTH_D1_PTR, fCyclesTotal);
 106              		.loc 1 28 0
 107 0062 294B     		ldr	r3, .L8+40
  20:.\Generated_Source\PSoC5/NP_funcs.c ****     
 108              		.loc 1 20 0
 109 0064 3246     		mov	r2, r6
 110              		.loc 1 28 0
 111 0066 83F80080 		strb	r8, [r3]
  20:.\Generated_Source\PSoC5/NP_funcs.c ****     
 112              		.loc 1 20 0
 113 006a 3B46     		mov	r3, r7
 114 006c FFF7FEFF 		bl	__aeabi_ddiv
 115              	.LVL12:
 116 0070 FFF7FEFF 		bl	__aeabi_d2uiz
 117              	.LVL13:
  29:.\Generated_Source\PSoC5/NP_funcs.c ****     NP_Neo_OFFTime_WritePeriod(fCyclesOff-1);
 118              		.loc 1 29 0
 119 0074 0138     		subs	r0, r0, #1
 120 0076 C0B2     		uxtb	r0, r0
 121 0078 FFF7FEFF 		bl	NP_Neo_OFFTime_WritePeriod
 122              	.LVL14:
  19:.\Generated_Source\PSoC5/NP_funcs.c ****     unsigned char fCyclesOff = (unsigned char)(0.35/(1.0/(fSpeedMHz)));
 123              		.loc 1 19 0
 124 007c 1CA1     		adr	r1, .L8+16
 125 007e D1E90001 		ldrd	r0, [r1]
 126 0082 3246     		mov	r2, r6
 127 0084 3B46     		mov	r3, r7
 128 0086 FFF7FEFF 		bl	__aeabi_ddiv
 129              	.LVL15:
 130 008a FFF7FEFF 		bl	__aeabi_d2uiz
 131              	.LVL16:
  30:.\Generated_Source\PSoC5/NP_funcs.c ****     NP_Neo_ONTime_WritePeriod(fCyclesOn-1);
 132              		.loc 1 30 0
 133 008e 0138     		subs	r0, r0, #1
 134 0090 C0B2     		uxtb	r0, r0
ARM GAS  C:\Users\IVYLIU~1\AppData\Local\Temp\ccGNVt9y.s 			page 4


 135 0092 FFF7FEFF 		bl	NP_Neo_ONTime_WritePeriod
 136              	.LVL17:
  31:.\Generated_Source\PSoC5/NP_funcs.c ****     //Setup a DMA channel
  32:.\Generated_Source\PSoC5/NP_funcs.c ****     NP_g_nDMA_Chan = NP_DMA_DmaInitialize(NP_DMA_BYTES_PER_BURST, 
 137              		.loc 1 32 0
 138 0096 0120     		movs	r0, #1
 139 0098 4FF48043 		mov	r3, #16384
 140 009c 0146     		mov	r1, r0
 141 009e 41F6FF72 		movw	r2, #8191
 142 00a2 FFF7FEFF 		bl	NP_DMA_DmaInitialize
 143              	.LVL18:
 144 00a6 194B     		ldr	r3, .L8+44
  33:.\Generated_Source\PSoC5/NP_funcs.c ****                                                         NP_DMA_REQUEST_PER_BURST, 
  34:.\Generated_Source\PSoC5/NP_funcs.c ****                                                         HI16(NP_DMA_SRC_BASE), 
  35:.\Generated_Source\PSoC5/NP_funcs.c ****                                                         HI16(NP_DMA_DST_BASE));
  36:.\Generated_Source\PSoC5/NP_funcs.c ****     
  37:.\Generated_Source\PSoC5/NP_funcs.c ****     if(pBuffer == NULL)
 145              		.loc 1 37 0
 146 00a8 DDF804C0 		ldr	ip, [sp, #4]
  32:.\Generated_Source\PSoC5/NP_funcs.c ****                                                         NP_DMA_REQUEST_PER_BURST, 
 147              		.loc 1 32 0
 148 00ac 1870     		strb	r0, [r3]
 149              		.loc 1 37 0
 150 00ae BBF1000F 		cmp	fp, #0
 151 00b2 0AD1     		bne	.L3
  38:.\Generated_Source\PSoC5/NP_funcs.c ****     {
  39:.\Generated_Source\PSoC5/NP_funcs.c ****         NP_g_pFrameBuffer = malloc(nNumberOfNeopixels*3);
 152              		.loc 1 39 0
 153 00b4 5046     		mov	r0, r10
 154 00b6 FFF7FEFF 		bl	malloc
 155              	.LVL19:
 156 00ba 2860     		str	r0, [r5]
  40:.\Generated_Source\PSoC5/NP_funcs.c ****         if(NP_g_pFrameBuffer != NULL)
 157              		.loc 1 40 0
 158 00bc 18B1     		cbz	r0, .L4
  41:.\Generated_Source\PSoC5/NP_funcs.c ****         {
  42:.\Generated_Source\PSoC5/NP_funcs.c ****             NP_g_bOwnsBuffer = 1;
 159              		.loc 1 42 0
 160 00be 144B     		ldr	r3, .L8+48
 161 00c0 0122     		movs	r2, #1
 162 00c2 1A70     		strb	r2, [r3]
 163 00c4 06E0     		b	.L5
 164              	.L4:
  43:.\Generated_Source\PSoC5/NP_funcs.c ****         }
  44:.\Generated_Source\PSoC5/NP_funcs.c ****         else
  45:.\Generated_Source\PSoC5/NP_funcs.c ****         {
  46:.\Generated_Source\PSoC5/NP_funcs.c ****             NP_g_nFrameBufferSize = 0;
 165              		.loc 1 46 0
 166 00c6 2060     		str	r0, [r4]
  47:.\Generated_Source\PSoC5/NP_funcs.c ****             return NULL;
 167              		.loc 1 47 0
 168 00c8 07E0     		b	.L2
 169              	.L3:
  48:.\Generated_Source\PSoC5/NP_funcs.c ****         }
  49:.\Generated_Source\PSoC5/NP_funcs.c ****     }
  50:.\Generated_Source\PSoC5/NP_funcs.c ****     else
  51:.\Generated_Source\PSoC5/NP_funcs.c ****     {
ARM GAS  C:\Users\IVYLIU~1\AppData\Local\Temp\ccGNVt9y.s 			page 5


  52:.\Generated_Source\PSoC5/NP_funcs.c ****         NP_g_pFrameBuffer = pBuffer;
  53:.\Generated_Source\PSoC5/NP_funcs.c ****         NP_g_bOwnsBuffer = 0;
 170              		.loc 1 53 0
 171 00ca 114B     		ldr	r3, .L8+48
  52:.\Generated_Source\PSoC5/NP_funcs.c ****         NP_g_bOwnsBuffer = 0;
 172              		.loc 1 52 0
 173 00cc C5F800B0 		str	fp, [r5]
 174              		.loc 1 53 0
 175 00d0 83F800C0 		strb	ip, [r3]
 176              	.L5:
  54:.\Generated_Source\PSoC5/NP_funcs.c ****     }
  55:.\Generated_Source\PSoC5/NP_funcs.c ****     return NP_g_pFrameBuffer;
 177              		.loc 1 55 0
 178 00d4 2868     		ldr	r0, [r5]
 179 00d6 00E0     		b	.L2
 180              	.LVL20:
 181              	.L6:
  16:.\Generated_Source\PSoC5/NP_funcs.c ****     
 182              		.loc 1 16 0
 183 00d8 2046     		mov	r0, r4
 184              	.LVL21:
 185              	.L2:
  56:.\Generated_Source\PSoC5/NP_funcs.c **** }
 186              		.loc 1 56 0
 187 00da 03B0     		add	sp, sp, #12
 188              		.cfi_def_cfa_offset 36
 189              		@ sp needed
 190 00dc BDE8F08F 		pop	{r4, r5, r6, r7, r8, r9, r10, fp, pc}
 191              	.LVL22:
 192              	.L9:
 193              		.align	3
 194              	.L8:
 195 00e0 00000000 		.word	0
 196 00e4 00E06F40 		.word	1081073664
 197 00e8 66666666 		.word	1717986918
 198 00ec 6666D63F 		.word	1071015526
 199 00f0 66666666 		.word	1717986918
 200 00f4 6666E63F 		.word	1072064102
 201 00f8 00000000 		.word	NP_g_pFrameBuffer
 202 00fc 0000F03F 		.word	1072693248
 203 0100 0000F43F 		.word	1072955392
 204 0104 00000000 		.word	NP_g_nFrameBufferSize
 205 0108 30640040 		.word	1073767472
 206 010c 00000000 		.word	NP_g_nDMA_Chan
 207 0110 00000000 		.word	NP_g_bOwnsBuffer
 208              		.cfi_endproc
 209              	.LFE0:
 210              		.size	NP_Start, .-NP_Start
 211 0114 AFF30080 		.section	.text.NP_Update,"ax",%progbits
 212              		.align	1
 213              		.global	NP_Update
 214              		.thumb
 215              		.thumb_func
 216              		.type	NP_Update, %function
 217              	NP_Update:
 218              	.LFB1:
  57:.\Generated_Source\PSoC5/NP_funcs.c **** 
ARM GAS  C:\Users\IVYLIU~1\AppData\Local\Temp\ccGNVt9y.s 			page 6


  58:.\Generated_Source\PSoC5/NP_funcs.c **** //copy frame buffer to LEDs
  59:.\Generated_Source\PSoC5/NP_funcs.c **** void NP_Update()
  60:.\Generated_Source\PSoC5/NP_funcs.c **** {
 219              		.loc 1 60 0
 220              		.cfi_startproc
 221              		@ args = 0, pretend = 0, frame = 0
 222              		@ frame_needed = 0, uses_anonymous_args = 0
 223 0000 38B5     		push	{r3, r4, r5, lr}
 224              		.cfi_def_cfa_offset 16
 225              		.cfi_offset 3, -16
 226              		.cfi_offset 4, -12
 227              		.cfi_offset 5, -8
 228              		.cfi_offset 14, -4
  61:.\Generated_Source\PSoC5/NP_funcs.c ****     if(NP_g_pFrameBuffer)
 229              		.loc 1 61 0
 230 0002 0F4D     		ldr	r5, .L12
 231 0004 2B68     		ldr	r3, [r5]
 232 0006 D3B1     		cbz	r3, .L10
  62:.\Generated_Source\PSoC5/NP_funcs.c ****     {
  63:.\Generated_Source\PSoC5/NP_funcs.c ****         NP_g_nDMA_TD = CyDmaTdAllocate();
 233              		.loc 1 63 0
 234 0008 FFF7FEFF 		bl	CyDmaTdAllocate
 235              	.LVL23:
  64:.\Generated_Source\PSoC5/NP_funcs.c ****         CyDmaTdSetConfiguration(NP_g_nDMA_TD, NP_g_nFrameBufferSize, CY_DMA_DISABLE_TD, TD_INC_SRC_
 236              		.loc 1 64 0
 237 000c 0D4B     		ldr	r3, .L12+4
  63:.\Generated_Source\PSoC5/NP_funcs.c ****         CyDmaTdSetConfiguration(NP_g_nDMA_TD, NP_g_nFrameBufferSize, CY_DMA_DISABLE_TD, TD_INC_SRC_
 238              		.loc 1 63 0
 239 000e 0E4C     		ldr	r4, .L12+8
 240              		.loc 1 64 0
 241 0010 1988     		ldrh	r1, [r3]
 242 0012 FE22     		movs	r2, #254
 243 0014 2123     		movs	r3, #33
  63:.\Generated_Source\PSoC5/NP_funcs.c ****         CyDmaTdSetConfiguration(NP_g_nDMA_TD, NP_g_nFrameBufferSize, CY_DMA_DISABLE_TD, TD_INC_SRC_
 244              		.loc 1 63 0
 245 0016 2070     		strb	r0, [r4]
 246              		.loc 1 64 0
 247 0018 FFF7FEFF 		bl	CyDmaTdSetConfiguration
 248              	.LVL24:
  65:.\Generated_Source\PSoC5/NP_funcs.c ****         CyDmaTdSetAddress(NP_g_nDMA_TD, LO16((uint32)NP_g_pFrameBuffer), LO16((uint32)NP_Neo_DPTH_F
 249              		.loc 1 65 0
 250 001c 2988     		ldrh	r1, [r5]
  66:.\Generated_Source\PSoC5/NP_funcs.c ****         CyDmaChSetInitialTd(NP_g_nDMA_Chan, NP_g_nDMA_TD);
 251              		.loc 1 66 0
 252 001e 0B4D     		ldr	r5, .L12+12
  65:.\Generated_Source\PSoC5/NP_funcs.c ****         CyDmaTdSetAddress(NP_g_nDMA_TD, LO16((uint32)NP_g_pFrameBuffer), LO16((uint32)NP_Neo_DPTH_F
 253              		.loc 1 65 0
 254 0020 2078     		ldrb	r0, [r4]	@ zero_extendqisi2
 255 0022 46F24042 		movw	r2, #25664
 256 0026 FFF7FEFF 		bl	CyDmaTdSetAddress
 257              	.LVL25:
 258              		.loc 1 66 0
 259 002a 2178     		ldrb	r1, [r4]	@ zero_extendqisi2
 260 002c 2878     		ldrb	r0, [r5]	@ zero_extendqisi2
 261 002e FFF7FEFF 		bl	CyDmaChSetInitialTd
 262              	.LVL26:
  67:.\Generated_Source\PSoC5/NP_funcs.c ****         CyDmaChEnable(NP_g_nDMA_Chan, 1);
ARM GAS  C:\Users\IVYLIU~1\AppData\Local\Temp\ccGNVt9y.s 			page 7


 263              		.loc 1 67 0
 264 0032 2878     		ldrb	r0, [r5]	@ zero_extendqisi2
 265 0034 0121     		movs	r1, #1
  68:.\Generated_Source\PSoC5/NP_funcs.c ****     }
  69:.\Generated_Source\PSoC5/NP_funcs.c **** }
 266              		.loc 1 69 0
 267 0036 BDE83840 		pop	{r3, r4, r5, lr}
 268              		.cfi_remember_state
 269              		.cfi_restore 14
 270              		.cfi_restore 5
 271              		.cfi_restore 4
 272              		.cfi_restore 3
 273              		.cfi_def_cfa_offset 0
  67:.\Generated_Source\PSoC5/NP_funcs.c ****         CyDmaChEnable(NP_g_nDMA_Chan, 1);
 274              		.loc 1 67 0
 275 003a FFF7FEBF 		b	CyDmaChEnable
 276              	.LVL27:
 277              	.L10:
 278              		.cfi_restore_state
 279 003e 38BD     		pop	{r3, r4, r5, pc}
 280              	.L13:
 281              		.align	2
 282              	.L12:
 283 0040 00000000 		.word	NP_g_pFrameBuffer
 284 0044 00000000 		.word	NP_g_nFrameBufferSize
 285 0048 00000000 		.word	NP_g_nDMA_TD
 286 004c 00000000 		.word	NP_g_nDMA_Chan
 287              		.cfi_endproc
 288              	.LFE1:
 289              		.size	NP_Update, .-NP_Update
 290              		.section	.text.NP_Stop,"ax",%progbits
 291              		.align	1
 292              		.global	NP_Stop
 293              		.thumb
 294              		.thumb_func
 295              		.type	NP_Stop, %function
 296              	NP_Stop:
 297              	.LFB2:
  70:.\Generated_Source\PSoC5/NP_funcs.c **** 
  71:.\Generated_Source\PSoC5/NP_funcs.c **** void NP_Stop()
  72:.\Generated_Source\PSoC5/NP_funcs.c **** {
 298              		.loc 1 72 0
 299              		.cfi_startproc
 300              		@ args = 0, pretend = 0, frame = 0
 301              		@ frame_needed = 0, uses_anonymous_args = 0
 302 0000 10B5     		push	{r4, lr}
 303              		.cfi_def_cfa_offset 8
 304              		.cfi_offset 4, -8
 305              		.cfi_offset 14, -4
  73:.\Generated_Source\PSoC5/NP_funcs.c ****     if(NP_g_pFrameBuffer != NULL)
 306              		.loc 1 73 0
 307 0002 0A4C     		ldr	r4, .L21
 308 0004 2368     		ldr	r3, [r4]
 309 0006 6BB1     		cbz	r3, .L16
  74:.\Generated_Source\PSoC5/NP_funcs.c ****     {
  75:.\Generated_Source\PSoC5/NP_funcs.c ****         CyDmaChFree(NP_g_nDMA_Chan);
 310              		.loc 1 75 0
ARM GAS  C:\Users\IVYLIU~1\AppData\Local\Temp\ccGNVt9y.s 			page 8


 311 0008 094B     		ldr	r3, .L21+4
 312 000a 1878     		ldrb	r0, [r3]	@ zero_extendqisi2
 313 000c FFF7FEFF 		bl	CyDmaChFree
 314              	.LVL28:
  76:.\Generated_Source\PSoC5/NP_funcs.c ****         CyDmaTdFree(NP_g_nDMA_TD);
 315              		.loc 1 76 0
 316 0010 084B     		ldr	r3, .L21+8
 317 0012 1878     		ldrb	r0, [r3]	@ zero_extendqisi2
 318 0014 FFF7FEFF 		bl	CyDmaTdFree
 319              	.LVL29:
  77:.\Generated_Source\PSoC5/NP_funcs.c ****         if(NP_g_bOwnsBuffer)
 320              		.loc 1 77 0
 321 0018 074B     		ldr	r3, .L21+12
 322 001a 1B78     		ldrb	r3, [r3]	@ zero_extendqisi2
 323 001c 13B1     		cbz	r3, .L16
  78:.\Generated_Source\PSoC5/NP_funcs.c ****             free((void*)NP_g_pFrameBuffer);
 324              		.loc 1 78 0
 325 001e 2068     		ldr	r0, [r4]
 326 0020 FFF7FEFF 		bl	free
 327              	.LVL30:
 328              	.L16:
  79:.\Generated_Source\PSoC5/NP_funcs.c ****     }
  80:.\Generated_Source\PSoC5/NP_funcs.c ****     NP_g_pFrameBuffer = NULL;
 329              		.loc 1 80 0
 330 0024 0023     		movs	r3, #0
 331 0026 2360     		str	r3, [r4]
 332 0028 10BD     		pop	{r4, pc}
 333              	.L22:
 334 002a 00BF     		.align	2
 335              	.L21:
 336 002c 00000000 		.word	NP_g_pFrameBuffer
 337 0030 00000000 		.word	NP_g_nDMA_Chan
 338 0034 00000000 		.word	NP_g_nDMA_TD
 339 0038 00000000 		.word	NP_g_bOwnsBuffer
 340              		.cfi_endproc
 341              	.LFE2:
 342              		.size	NP_Stop, .-NP_Stop
 343              		.comm	NP_g_nFrameBufferSize,4,4
 344              		.comm	NP_g_pFrameBuffer,4,4
 345              		.comm	NP_g_bOwnsBuffer,1,1
 346              		.comm	NP_g_nDMA_TD,1,1
 347              		.comm	NP_g_nDMA_Chan,1,1
 348              		.comm	NP_g_nNumberOfPixels,4,4
 349              		.text
 350              	.Letext0:
 351              		.file 2 ".\\Generated_Source\\PSoC5\\cytypes.h"
 352              		.file 3 "c:\\program files (x86)\\cypress\\psoc creator\\3.3\\psoc creator\\import\\gnu\\arm\\4.9.
 353              		.file 4 ".\\Generated_Source\\PSoC5\\NP_funcs.h"
 354              		.file 5 ".\\Generated_Source\\PSoC5\\NP_Neo_BITCNT.h"
 355              		.file 6 ".\\Generated_Source\\PSoC5\\NP_Neo_ONTime.h"
 356              		.file 7 ".\\Generated_Source\\PSoC5\\NP_Neo_OFFTime.h"
 357              		.file 8 ".\\Generated_Source\\PSoC5\\NP_DMA_DMA.h"
 358              		.file 9 "c:\\program files (x86)\\cypress\\psoc creator\\3.3\\psoc creator\\import\\gnu\\arm\\4.9.
 359              		.file 10 "Generated_Source\\PSoC5/CYDMAC.H"