ARM GAS  C:\Users\IVYLIU~1\AppData\Local\Temp\ccC2NF0Z.s 			page 1


   1              		.syntax unified
   2              		.cpu cortex-m3
   3              		.fpu softvfp
   4              		.eabi_attribute 20, 1
   5              		.eabi_attribute 21, 1
   6              		.eabi_attribute 23, 3
   7              		.eabi_attribute 24, 1
   8              		.eabi_attribute 25, 1
   9              		.eabi_attribute 26, 1
  10              		.eabi_attribute 30, 4
  11              		.eabi_attribute 34, 1
  12              		.eabi_attribute 18, 4
  13              		.thumb
  14              		.file	"NP_Neo_ONTime.c"
  15              		.text
  16              	.Ltext0:
  17              		.cfi_sections	.debug_frame
  18              		.section	.text.NP_Neo_ONTime_Init,"ax",%progbits
  19              		.align	1
  20              		.global	NP_Neo_ONTime_Init
  21              		.thumb
  22              		.thumb_func
  23              		.type	NP_Neo_ONTime_Init, %function
  24              	NP_Neo_ONTime_Init:
  25              	.LFB0:
  26              		.file 1 ".\\Generated_Source\\PSoC5\\NP_Neo_ONTime.c"
   1:.\Generated_Source\PSoC5/NP_Neo_ONTime.c **** /*******************************************************************************
   2:.\Generated_Source\PSoC5/NP_Neo_ONTime.c **** * File Name: NP_Neo_ONTime.c
   3:.\Generated_Source\PSoC5/NP_Neo_ONTime.c **** * Version 1.0
   4:.\Generated_Source\PSoC5/NP_Neo_ONTime.c **** *
   5:.\Generated_Source\PSoC5/NP_Neo_ONTime.c **** * Description:
   6:.\Generated_Source\PSoC5/NP_Neo_ONTime.c **** *  This file provides source code for the Count7 component's API.
   7:.\Generated_Source\PSoC5/NP_Neo_ONTime.c **** *
   8:.\Generated_Source\PSoC5/NP_Neo_ONTime.c **** * Note:
   9:.\Generated_Source\PSoC5/NP_Neo_ONTime.c **** *
  10:.\Generated_Source\PSoC5/NP_Neo_ONTime.c **** ********************************************************************************
  11:.\Generated_Source\PSoC5/NP_Neo_ONTime.c **** * Copyright 2013, Cypress Semiconductor Corporation.  All rights reserved.
  12:.\Generated_Source\PSoC5/NP_Neo_ONTime.c **** * You may use this file only in accordance with the license, terms, conditions,
  13:.\Generated_Source\PSoC5/NP_Neo_ONTime.c **** * disclaimers, and limitations in the end user license agreement accompanying
  14:.\Generated_Source\PSoC5/NP_Neo_ONTime.c **** * the software package with which this file was provided.
  15:.\Generated_Source\PSoC5/NP_Neo_ONTime.c **** *******************************************************************************/
  16:.\Generated_Source\PSoC5/NP_Neo_ONTime.c **** 
  17:.\Generated_Source\PSoC5/NP_Neo_ONTime.c **** #include "NP_Neo_ONTime.h"
  18:.\Generated_Source\PSoC5/NP_Neo_ONTime.c **** #include "CyLib.h"
  19:.\Generated_Source\PSoC5/NP_Neo_ONTime.c **** 
  20:.\Generated_Source\PSoC5/NP_Neo_ONTime.c **** 
  21:.\Generated_Source\PSoC5/NP_Neo_ONTime.c **** uint8 NP_Neo_ONTime_initVar = 0u;
  22:.\Generated_Source\PSoC5/NP_Neo_ONTime.c **** 
  23:.\Generated_Source\PSoC5/NP_Neo_ONTime.c **** 
  24:.\Generated_Source\PSoC5/NP_Neo_ONTime.c **** /*******************************************************************************
  25:.\Generated_Source\PSoC5/NP_Neo_ONTime.c **** * Function Name: NP_Neo_ONTime_Init
  26:.\Generated_Source\PSoC5/NP_Neo_ONTime.c **** ********************************************************************************
  27:.\Generated_Source\PSoC5/NP_Neo_ONTime.c **** *
  28:.\Generated_Source\PSoC5/NP_Neo_ONTime.c **** * Summary:
  29:.\Generated_Source\PSoC5/NP_Neo_ONTime.c **** *  Initializes or restores the component according to the parameter editor
  30:.\Generated_Source\PSoC5/NP_Neo_ONTime.c **** *  settings.
  31:.\Generated_Source\PSoC5/NP_Neo_ONTime.c **** *
ARM GAS  C:\Users\IVYLIU~1\AppData\Local\Temp\ccC2NF0Z.s 			page 2


  32:.\Generated_Source\PSoC5/NP_Neo_ONTime.c **** * Parameters:
  33:.\Generated_Source\PSoC5/NP_Neo_ONTime.c **** *  None
  34:.\Generated_Source\PSoC5/NP_Neo_ONTime.c **** *
  35:.\Generated_Source\PSoC5/NP_Neo_ONTime.c **** * Return:
  36:.\Generated_Source\PSoC5/NP_Neo_ONTime.c **** *  None
  37:.\Generated_Source\PSoC5/NP_Neo_ONTime.c **** *
  38:.\Generated_Source\PSoC5/NP_Neo_ONTime.c **** * Theory:
  39:.\Generated_Source\PSoC5/NP_Neo_ONTime.c **** *  It is not necessary to call Count7_Init() because the Count7_Start() API
  40:.\Generated_Source\PSoC5/NP_Neo_ONTime.c **** *  calls this function and is the preferred method to begin component
  41:.\Generated_Source\PSoC5/NP_Neo_ONTime.c **** *  operation.
  42:.\Generated_Source\PSoC5/NP_Neo_ONTime.c **** *
  43:.\Generated_Source\PSoC5/NP_Neo_ONTime.c **** *******************************************************************************/
  44:.\Generated_Source\PSoC5/NP_Neo_ONTime.c **** void NP_Neo_ONTime_Init(void) 
  45:.\Generated_Source\PSoC5/NP_Neo_ONTime.c **** {
  27              		.loc 1 45 0
  28              		.cfi_startproc
  29              		@ args = 0, pretend = 0, frame = 0
  30              		@ frame_needed = 0, uses_anonymous_args = 0
  31              		@ link register save eliminated.
  46:.\Generated_Source\PSoC5/NP_Neo_ONTime.c ****     /* Set the initial period value from parameter editor */
  47:.\Generated_Source\PSoC5/NP_Neo_ONTime.c ****     NP_Neo_ONTime_PERIOD_REG = NP_Neo_ONTime_INITIAL_PERIOD;
  32              		.loc 1 47 0
  33 0000 014B     		ldr	r3, .L2
  34 0002 0C22     		movs	r2, #12
  35 0004 1A70     		strb	r2, [r3]
  36 0006 7047     		bx	lr
  37              	.L3:
  38              		.align	2
  39              	.L2:
  40 0008 80640040 		.word	1073767552
  41              		.cfi_endproc
  42              	.LFE0:
  43              		.size	NP_Neo_ONTime_Init, .-NP_Neo_ONTime_Init
  44              		.section	.text.NP_Neo_ONTime_Enable,"ax",%progbits
  45              		.align	1
  46              		.global	NP_Neo_ONTime_Enable
  47              		.thumb
  48              		.thumb_func
  49              		.type	NP_Neo_ONTime_Enable, %function
  50              	NP_Neo_ONTime_Enable:
  51              	.LFB1:
  48:.\Generated_Source\PSoC5/NP_Neo_ONTime.c **** }
  49:.\Generated_Source\PSoC5/NP_Neo_ONTime.c **** 
  50:.\Generated_Source\PSoC5/NP_Neo_ONTime.c **** 
  51:.\Generated_Source\PSoC5/NP_Neo_ONTime.c **** /*******************************************************************************
  52:.\Generated_Source\PSoC5/NP_Neo_ONTime.c **** * Function Name: NP_Neo_ONTime_Enable
  53:.\Generated_Source\PSoC5/NP_Neo_ONTime.c **** ********************************************************************************
  54:.\Generated_Source\PSoC5/NP_Neo_ONTime.c **** *
  55:.\Generated_Source\PSoC5/NP_Neo_ONTime.c **** * Summary:
  56:.\Generated_Source\PSoC5/NP_Neo_ONTime.c **** *  Enables the software enable of the counter.
  57:.\Generated_Source\PSoC5/NP_Neo_ONTime.c **** *
  58:.\Generated_Source\PSoC5/NP_Neo_ONTime.c **** * Parameters:
  59:.\Generated_Source\PSoC5/NP_Neo_ONTime.c **** *  None
  60:.\Generated_Source\PSoC5/NP_Neo_ONTime.c **** *
  61:.\Generated_Source\PSoC5/NP_Neo_ONTime.c **** * Return:
  62:.\Generated_Source\PSoC5/NP_Neo_ONTime.c **** *  None
  63:.\Generated_Source\PSoC5/NP_Neo_ONTime.c **** *
ARM GAS  C:\Users\IVYLIU~1\AppData\Local\Temp\ccC2NF0Z.s 			page 3


  64:.\Generated_Source\PSoC5/NP_Neo_ONTime.c **** * Theory:
  65:.\Generated_Source\PSoC5/NP_Neo_ONTime.c **** *  It is not necessary to call Count7_Enable() because the Count7_Start() API
  66:.\Generated_Source\PSoC5/NP_Neo_ONTime.c **** *  calls this function, which is the preferred method to begin component
  67:.\Generated_Source\PSoC5/NP_Neo_ONTime.c **** *  operation.
  68:.\Generated_Source\PSoC5/NP_Neo_ONTime.c **** *  This API performs modification of auxiliary control register which is a
  69:.\Generated_Source\PSoC5/NP_Neo_ONTime.c **** *  shared resource so it is required to disable interrupts until the
  70:.\Generated_Source\PSoC5/NP_Neo_ONTime.c **** *  modification will complete.
  71:.\Generated_Source\PSoC5/NP_Neo_ONTime.c **** *
  72:.\Generated_Source\PSoC5/NP_Neo_ONTime.c **** *******************************************************************************/
  73:.\Generated_Source\PSoC5/NP_Neo_ONTime.c **** void NP_Neo_ONTime_Enable(void) 
  74:.\Generated_Source\PSoC5/NP_Neo_ONTime.c **** {
  52              		.loc 1 74 0
  53              		.cfi_startproc
  54              		@ args = 0, pretend = 0, frame = 0
  55              		@ frame_needed = 0, uses_anonymous_args = 0
  56 0000 08B5     		push	{r3, lr}
  57              		.cfi_def_cfa_offset 8
  58              		.cfi_offset 3, -8
  59              		.cfi_offset 14, -4
  75:.\Generated_Source\PSoC5/NP_Neo_ONTime.c ****     uint8 interruptState;
  76:.\Generated_Source\PSoC5/NP_Neo_ONTime.c **** 
  77:.\Generated_Source\PSoC5/NP_Neo_ONTime.c ****     interruptState = CyEnterCriticalSection();
  60              		.loc 1 77 0
  61 0002 FFF7FEFF 		bl	CyEnterCriticalSection
  62              	.LVL0:
  78:.\Generated_Source\PSoC5/NP_Neo_ONTime.c ****     /* Set the counter start bit in auxiliary control. If routed enable
  79:.\Generated_Source\PSoC5/NP_Neo_ONTime.c ****     * isn't used then this will immediately star the Count7 operation.
  80:.\Generated_Source\PSoC5/NP_Neo_ONTime.c ****     */
  81:.\Generated_Source\PSoC5/NP_Neo_ONTime.c ****     NP_Neo_ONTime_AUX_CONTROL_REG |= NP_Neo_ONTime_COUNTER_START;
  63              		.loc 1 81 0
  64 0006 044A     		ldr	r2, .L5
  65 0008 1378     		ldrb	r3, [r2]	@ zero_extendqisi2
  66 000a 43F02003 		orr	r3, r3, #32
  67 000e 1370     		strb	r3, [r2]
  82:.\Generated_Source\PSoC5/NP_Neo_ONTime.c **** 
  83:.\Generated_Source\PSoC5/NP_Neo_ONTime.c ****     CyExitCriticalSection(interruptState);
  84:.\Generated_Source\PSoC5/NP_Neo_ONTime.c **** }
  68              		.loc 1 84 0
  69 0010 BDE80840 		pop	{r3, lr}
  70              		.cfi_restore 14
  71              		.cfi_restore 3
  72              		.cfi_def_cfa_offset 0
  83:.\Generated_Source\PSoC5/NP_Neo_ONTime.c **** }
  73              		.loc 1 83 0
  74 0014 FFF7FEBF 		b	CyExitCriticalSection
  75              	.LVL1:
  76              	.L6:
  77              		.align	2
  78              	.L5:
  79 0018 90640040 		.word	1073767568
  80              		.cfi_endproc
  81              	.LFE1:
  82              		.size	NP_Neo_ONTime_Enable, .-NP_Neo_ONTime_Enable
  83              		.section	.text.NP_Neo_ONTime_Start,"ax",%progbits
  84              		.align	1
  85              		.global	NP_Neo_ONTime_Start
  86              		.thumb
ARM GAS  C:\Users\IVYLIU~1\AppData\Local\Temp\ccC2NF0Z.s 			page 4


  87              		.thumb_func
  88              		.type	NP_Neo_ONTime_Start, %function
  89              	NP_Neo_ONTime_Start:
  90              	.LFB2:
  85:.\Generated_Source\PSoC5/NP_Neo_ONTime.c **** 
  86:.\Generated_Source\PSoC5/NP_Neo_ONTime.c **** 
  87:.\Generated_Source\PSoC5/NP_Neo_ONTime.c **** /*******************************************************************************
  88:.\Generated_Source\PSoC5/NP_Neo_ONTime.c **** * Function Name: NP_Neo_ONTime_Start
  89:.\Generated_Source\PSoC5/NP_Neo_ONTime.c **** ********************************************************************************
  90:.\Generated_Source\PSoC5/NP_Neo_ONTime.c **** *
  91:.\Generated_Source\PSoC5/NP_Neo_ONTime.c **** * Summary:
  92:.\Generated_Source\PSoC5/NP_Neo_ONTime.c **** *  Performs all of the required initialization for the component and enables
  93:.\Generated_Source\PSoC5/NP_Neo_ONTime.c **** *  the counter. The first time the routine is executed, the period is set as
  94:.\Generated_Source\PSoC5/NP_Neo_ONTime.c **** *  configured in the customizer. When called to restart the counter following a
  95:.\Generated_Source\PSoC5/NP_Neo_ONTime.c **** *  Count7_Stop() call, the current period value is retained.
  96:.\Generated_Source\PSoC5/NP_Neo_ONTime.c **** *
  97:.\Generated_Source\PSoC5/NP_Neo_ONTime.c **** * Parameters:
  98:.\Generated_Source\PSoC5/NP_Neo_ONTime.c **** *  None.
  99:.\Generated_Source\PSoC5/NP_Neo_ONTime.c **** *
 100:.\Generated_Source\PSoC5/NP_Neo_ONTime.c **** * Global Variables:
 101:.\Generated_Source\PSoC5/NP_Neo_ONTime.c **** *  NP_Neo_ONTime_initVar - global variable.
 102:.\Generated_Source\PSoC5/NP_Neo_ONTime.c **** *
 103:.\Generated_Source\PSoC5/NP_Neo_ONTime.c **** * Return:
 104:.\Generated_Source\PSoC5/NP_Neo_ONTime.c **** *  None.
 105:.\Generated_Source\PSoC5/NP_Neo_ONTime.c **** *
 106:.\Generated_Source\PSoC5/NP_Neo_ONTime.c **** *******************************************************************************/
 107:.\Generated_Source\PSoC5/NP_Neo_ONTime.c **** void NP_Neo_ONTime_Start(void) 
 108:.\Generated_Source\PSoC5/NP_Neo_ONTime.c **** {
  91              		.loc 1 108 0
  92              		.cfi_startproc
  93              		@ args = 0, pretend = 0, frame = 0
  94              		@ frame_needed = 0, uses_anonymous_args = 0
  95              		@ link register save eliminated.
 109:.\Generated_Source\PSoC5/NP_Neo_ONTime.c ****     /* If not initialized then perform initialization */
 110:.\Generated_Source\PSoC5/NP_Neo_ONTime.c ****     if(NP_Neo_ONTime_initVar == 0u)
  96              		.loc 1 110 0
  97 0000 044B     		ldr	r3, .L10
  98 0002 1A78     		ldrb	r2, [r3]	@ zero_extendqisi2
  99 0004 22B9     		cbnz	r2, .L8
 100              	.LBB4:
 101              	.LBB5:
  47:.\Generated_Source\PSoC5/NP_Neo_ONTime.c **** }
 102              		.loc 1 47 0
 103 0006 044A     		ldr	r2, .L10+4
 104 0008 0C21     		movs	r1, #12
 105 000a 1170     		strb	r1, [r2]
 106              	.LBE5:
 107              	.LBE4:
 111:.\Generated_Source\PSoC5/NP_Neo_ONTime.c ****     {
 112:.\Generated_Source\PSoC5/NP_Neo_ONTime.c ****         NP_Neo_ONTime_Init();
 113:.\Generated_Source\PSoC5/NP_Neo_ONTime.c ****         NP_Neo_ONTime_initVar = 1u;
 108              		.loc 1 113 0
 109 000c 0122     		movs	r2, #1
 110 000e 1A70     		strb	r2, [r3]
 111              	.L8:
 114:.\Generated_Source\PSoC5/NP_Neo_ONTime.c ****     }
 115:.\Generated_Source\PSoC5/NP_Neo_ONTime.c **** 
ARM GAS  C:\Users\IVYLIU~1\AppData\Local\Temp\ccC2NF0Z.s 			page 5


 116:.\Generated_Source\PSoC5/NP_Neo_ONTime.c ****     /* Enable Count7 */
 117:.\Generated_Source\PSoC5/NP_Neo_ONTime.c ****     NP_Neo_ONTime_Enable();
 112              		.loc 1 117 0
 113 0010 FFF7FEBF 		b	NP_Neo_ONTime_Enable
 114              	.LVL2:
 115              	.L11:
 116              		.align	2
 117              	.L10:
 118 0014 00000000 		.word	.LANCHOR0
 119 0018 80640040 		.word	1073767552
 120              		.cfi_endproc
 121              	.LFE2:
 122              		.size	NP_Neo_ONTime_Start, .-NP_Neo_ONTime_Start
 123              		.section	.text.NP_Neo_ONTime_Stop,"ax",%progbits
 124              		.align	1
 125              		.global	NP_Neo_ONTime_Stop
 126              		.thumb
 127              		.thumb_func
 128              		.type	NP_Neo_ONTime_Stop, %function
 129              	NP_Neo_ONTime_Stop:
 130              	.LFB3:
 118:.\Generated_Source\PSoC5/NP_Neo_ONTime.c **** }
 119:.\Generated_Source\PSoC5/NP_Neo_ONTime.c **** 
 120:.\Generated_Source\PSoC5/NP_Neo_ONTime.c **** 
 121:.\Generated_Source\PSoC5/NP_Neo_ONTime.c **** /*******************************************************************************
 122:.\Generated_Source\PSoC5/NP_Neo_ONTime.c **** * Function Name: NP_Neo_ONTime_Stop
 123:.\Generated_Source\PSoC5/NP_Neo_ONTime.c **** ********************************************************************************
 124:.\Generated_Source\PSoC5/NP_Neo_ONTime.c **** *
 125:.\Generated_Source\PSoC5/NP_Neo_ONTime.c **** * Summary:
 126:.\Generated_Source\PSoC5/NP_Neo_ONTime.c **** *  Disables the software enable of the counter.
 127:.\Generated_Source\PSoC5/NP_Neo_ONTime.c **** *
 128:.\Generated_Source\PSoC5/NP_Neo_ONTime.c **** * Parameters:
 129:.\Generated_Source\PSoC5/NP_Neo_ONTime.c **** *  None
 130:.\Generated_Source\PSoC5/NP_Neo_ONTime.c **** *
 131:.\Generated_Source\PSoC5/NP_Neo_ONTime.c **** * Return:
 132:.\Generated_Source\PSoC5/NP_Neo_ONTime.c **** *  None
 133:.\Generated_Source\PSoC5/NP_Neo_ONTime.c **** *
 134:.\Generated_Source\PSoC5/NP_Neo_ONTime.c **** *******************************************************************************/
 135:.\Generated_Source\PSoC5/NP_Neo_ONTime.c **** void NP_Neo_ONTime_Stop(void) 
 136:.\Generated_Source\PSoC5/NP_Neo_ONTime.c **** {
 131              		.loc 1 136 0
 132              		.cfi_startproc
 133              		@ args = 0, pretend = 0, frame = 0
 134              		@ frame_needed = 0, uses_anonymous_args = 0
 135 0000 08B5     		push	{r3, lr}
 136              		.cfi_def_cfa_offset 8
 137              		.cfi_offset 3, -8
 138              		.cfi_offset 14, -4
 137:.\Generated_Source\PSoC5/NP_Neo_ONTime.c ****     uint8 interruptState;
 138:.\Generated_Source\PSoC5/NP_Neo_ONTime.c **** 
 139:.\Generated_Source\PSoC5/NP_Neo_ONTime.c ****     interruptState = CyEnterCriticalSection();
 139              		.loc 1 139 0
 140 0002 FFF7FEFF 		bl	CyEnterCriticalSection
 141              	.LVL3:
 140:.\Generated_Source\PSoC5/NP_Neo_ONTime.c ****     /* Clear the counter start bit in auxiliary control. */
 141:.\Generated_Source\PSoC5/NP_Neo_ONTime.c ****     NP_Neo_ONTime_AUX_CONTROL_REG &= (uint8) ~((uint8) NP_Neo_ONTime_COUNTER_START);
 142              		.loc 1 141 0
ARM GAS  C:\Users\IVYLIU~1\AppData\Local\Temp\ccC2NF0Z.s 			page 6


 143 0006 044A     		ldr	r2, .L13
 144 0008 1378     		ldrb	r3, [r2]	@ zero_extendqisi2
 145 000a 03F0DF03 		and	r3, r3, #223
 146 000e 1370     		strb	r3, [r2]
 142:.\Generated_Source\PSoC5/NP_Neo_ONTime.c **** 
 143:.\Generated_Source\PSoC5/NP_Neo_ONTime.c ****     CyExitCriticalSection(interruptState);
 144:.\Generated_Source\PSoC5/NP_Neo_ONTime.c **** }
 147              		.loc 1 144 0
 148 0010 BDE80840 		pop	{r3, lr}
 149              		.cfi_restore 14
 150              		.cfi_restore 3
 151              		.cfi_def_cfa_offset 0
 143:.\Generated_Source\PSoC5/NP_Neo_ONTime.c **** }
 152              		.loc 1 143 0
 153 0014 FFF7FEBF 		b	CyExitCriticalSection
 154              	.LVL4:
 155              	.L14:
 156              		.align	2
 157              	.L13:
 158 0018 90640040 		.word	1073767568
 159              		.cfi_endproc
 160              	.LFE3:
 161              		.size	NP_Neo_ONTime_Stop, .-NP_Neo_ONTime_Stop
 162              		.section	.text.NP_Neo_ONTime_WriteCounter,"ax",%progbits
 163              		.align	1
 164              		.global	NP_Neo_ONTime_WriteCounter
 165              		.thumb
 166              		.thumb_func
 167              		.type	NP_Neo_ONTime_WriteCounter, %function
 168              	NP_Neo_ONTime_WriteCounter:
 169              	.LFB4:
 145:.\Generated_Source\PSoC5/NP_Neo_ONTime.c **** 
 146:.\Generated_Source\PSoC5/NP_Neo_ONTime.c **** 
 147:.\Generated_Source\PSoC5/NP_Neo_ONTime.c **** /*******************************************************************************
 148:.\Generated_Source\PSoC5/NP_Neo_ONTime.c **** * Function Name: NP_Neo_ONTime_WriteCounter
 149:.\Generated_Source\PSoC5/NP_Neo_ONTime.c **** ********************************************************************************
 150:.\Generated_Source\PSoC5/NP_Neo_ONTime.c **** *
 151:.\Generated_Source\PSoC5/NP_Neo_ONTime.c **** * Summary:
 152:.\Generated_Source\PSoC5/NP_Neo_ONTime.c **** *  This function writes the counter directly. The counter should be disabled
 153:.\Generated_Source\PSoC5/NP_Neo_ONTime.c **** *  before calling this function.
 154:.\Generated_Source\PSoC5/NP_Neo_ONTime.c **** *
 155:.\Generated_Source\PSoC5/NP_Neo_ONTime.c **** * Parameters:
 156:.\Generated_Source\PSoC5/NP_Neo_ONTime.c **** *  count - Value to be written to counter.
 157:.\Generated_Source\PSoC5/NP_Neo_ONTime.c **** *
 158:.\Generated_Source\PSoC5/NP_Neo_ONTime.c **** * Return:
 159:.\Generated_Source\PSoC5/NP_Neo_ONTime.c **** *  None
 160:.\Generated_Source\PSoC5/NP_Neo_ONTime.c **** *
 161:.\Generated_Source\PSoC5/NP_Neo_ONTime.c **** *******************************************************************************/
 162:.\Generated_Source\PSoC5/NP_Neo_ONTime.c **** void NP_Neo_ONTime_WriteCounter(uint8 count) 
 163:.\Generated_Source\PSoC5/NP_Neo_ONTime.c **** {
 170              		.loc 1 163 0
 171              		.cfi_startproc
 172              		@ args = 0, pretend = 0, frame = 0
 173              		@ frame_needed = 0, uses_anonymous_args = 0
 174              		@ link register save eliminated.
 175              	.LVL5:
 164:.\Generated_Source\PSoC5/NP_Neo_ONTime.c ****     NP_Neo_ONTime_COUNT_REG = (count & NP_Neo_ONTime_COUNT_7BIT_MASK);
ARM GAS  C:\Users\IVYLIU~1\AppData\Local\Temp\ccC2NF0Z.s 			page 7


 176              		.loc 1 164 0
 177 0000 024B     		ldr	r3, .L16
 178 0002 00F07F00 		and	r0, r0, #127
 179              	.LVL6:
 180 0006 1870     		strb	r0, [r3]
 181 0008 7047     		bx	lr
 182              	.L17:
 183 000a 00BF     		.align	2
 184              	.L16:
 185 000c 70640040 		.word	1073767536
 186              		.cfi_endproc
 187              	.LFE4:
 188              		.size	NP_Neo_ONTime_WriteCounter, .-NP_Neo_ONTime_WriteCounter
 189              		.section	.text.NP_Neo_ONTime_ReadCounter,"ax",%progbits
 190              		.align	1
 191              		.global	NP_Neo_ONTime_ReadCounter
 192              		.thumb
 193              		.thumb_func
 194              		.type	NP_Neo_ONTime_ReadCounter, %function
 195              	NP_Neo_ONTime_ReadCounter:
 196              	.LFB5:
 165:.\Generated_Source\PSoC5/NP_Neo_ONTime.c **** }
 166:.\Generated_Source\PSoC5/NP_Neo_ONTime.c **** 
 167:.\Generated_Source\PSoC5/NP_Neo_ONTime.c **** 
 168:.\Generated_Source\PSoC5/NP_Neo_ONTime.c **** /*******************************************************************************
 169:.\Generated_Source\PSoC5/NP_Neo_ONTime.c **** * Function Name: NP_Neo_ONTime_ReadCounter
 170:.\Generated_Source\PSoC5/NP_Neo_ONTime.c **** ********************************************************************************
 171:.\Generated_Source\PSoC5/NP_Neo_ONTime.c **** *
 172:.\Generated_Source\PSoC5/NP_Neo_ONTime.c **** * Summary:
 173:.\Generated_Source\PSoC5/NP_Neo_ONTime.c **** *  This function reads the counter value.
 174:.\Generated_Source\PSoC5/NP_Neo_ONTime.c **** *
 175:.\Generated_Source\PSoC5/NP_Neo_ONTime.c **** * Parameters:
 176:.\Generated_Source\PSoC5/NP_Neo_ONTime.c **** *  None
 177:.\Generated_Source\PSoC5/NP_Neo_ONTime.c **** *
 178:.\Generated_Source\PSoC5/NP_Neo_ONTime.c **** * Return:
 179:.\Generated_Source\PSoC5/NP_Neo_ONTime.c **** *  None
 180:.\Generated_Source\PSoC5/NP_Neo_ONTime.c **** *
 181:.\Generated_Source\PSoC5/NP_Neo_ONTime.c **** *******************************************************************************/
 182:.\Generated_Source\PSoC5/NP_Neo_ONTime.c **** uint8 NP_Neo_ONTime_ReadCounter(void) 
 183:.\Generated_Source\PSoC5/NP_Neo_ONTime.c **** {
 197              		.loc 1 183 0
 198              		.cfi_startproc
 199              		@ args = 0, pretend = 0, frame = 0
 200              		@ frame_needed = 0, uses_anonymous_args = 0
 201              		@ link register save eliminated.
 184:.\Generated_Source\PSoC5/NP_Neo_ONTime.c ****     return(NP_Neo_ONTime_COUNT_REG & NP_Neo_ONTime_COUNT_7BIT_MASK);
 202              		.loc 1 184 0
 203 0000 024B     		ldr	r3, .L19
 204 0002 1878     		ldrb	r0, [r3]	@ zero_extendqisi2
 185:.\Generated_Source\PSoC5/NP_Neo_ONTime.c **** }
 205              		.loc 1 185 0
 206 0004 00F07F00 		and	r0, r0, #127
 207 0008 7047     		bx	lr
 208              	.L20:
 209 000a 00BF     		.align	2
 210              	.L19:
 211 000c 70640040 		.word	1073767536
ARM GAS  C:\Users\IVYLIU~1\AppData\Local\Temp\ccC2NF0Z.s 			page 8


 212              		.cfi_endproc
 213              	.LFE5:
 214              		.size	NP_Neo_ONTime_ReadCounter, .-NP_Neo_ONTime_ReadCounter
 215              		.section	.text.NP_Neo_ONTime_WritePeriod,"ax",%progbits
 216              		.align	1
 217              		.global	NP_Neo_ONTime_WritePeriod
 218              		.thumb
 219              		.thumb_func
 220              		.type	NP_Neo_ONTime_WritePeriod, %function
 221              	NP_Neo_ONTime_WritePeriod:
 222              	.LFB6:
 186:.\Generated_Source\PSoC5/NP_Neo_ONTime.c **** 
 187:.\Generated_Source\PSoC5/NP_Neo_ONTime.c **** 
 188:.\Generated_Source\PSoC5/NP_Neo_ONTime.c **** /*******************************************************************************
 189:.\Generated_Source\PSoC5/NP_Neo_ONTime.c **** * Function Name: NP_Neo_ONTime_WritePeriod
 190:.\Generated_Source\PSoC5/NP_Neo_ONTime.c **** ********************************************************************************
 191:.\Generated_Source\PSoC5/NP_Neo_ONTime.c **** *
 192:.\Generated_Source\PSoC5/NP_Neo_ONTime.c **** * Summary:
 193:.\Generated_Source\PSoC5/NP_Neo_ONTime.c **** *  This function writes the period register. The actual period is one greater
 194:.\Generated_Source\PSoC5/NP_Neo_ONTime.c **** *  than the value in the period register since the counting sequence starts
 195:.\Generated_Source\PSoC5/NP_Neo_ONTime.c **** *  with the period register and counts down to 0 inclusive. The period of the
 196:.\Generated_Source\PSoC5/NP_Neo_ONTime.c **** *  counter output does not change until the counter is reloaded following the
 197:.\Generated_Source\PSoC5/NP_Neo_ONTime.c **** *  terminal count value of 0 or due to a hardware load signal.
 198:.\Generated_Source\PSoC5/NP_Neo_ONTime.c **** *
 199:.\Generated_Source\PSoC5/NP_Neo_ONTime.c **** * Parameters:
 200:.\Generated_Source\PSoC5/NP_Neo_ONTime.c **** *  period - Period value to be written.
 201:.\Generated_Source\PSoC5/NP_Neo_ONTime.c **** *
 202:.\Generated_Source\PSoC5/NP_Neo_ONTime.c **** * Return:
 203:.\Generated_Source\PSoC5/NP_Neo_ONTime.c **** *  None
 204:.\Generated_Source\PSoC5/NP_Neo_ONTime.c **** *
 205:.\Generated_Source\PSoC5/NP_Neo_ONTime.c **** *******************************************************************************/
 206:.\Generated_Source\PSoC5/NP_Neo_ONTime.c **** void NP_Neo_ONTime_WritePeriod(uint8 period) 
 207:.\Generated_Source\PSoC5/NP_Neo_ONTime.c **** {
 223              		.loc 1 207 0
 224              		.cfi_startproc
 225              		@ args = 0, pretend = 0, frame = 0
 226              		@ frame_needed = 0, uses_anonymous_args = 0
 227              		@ link register save eliminated.
 228              	.LVL7:
 208:.\Generated_Source\PSoC5/NP_Neo_ONTime.c ****     NP_Neo_ONTime_PERIOD_REG = period;
 229              		.loc 1 208 0
 230 0000 014B     		ldr	r3, .L22
 231 0002 1870     		strb	r0, [r3]
 232 0004 7047     		bx	lr
 233              	.L23:
 234 0006 00BF     		.align	2
 235              	.L22:
 236 0008 80640040 		.word	1073767552
 237              		.cfi_endproc
 238              	.LFE6:
 239              		.size	NP_Neo_ONTime_WritePeriod, .-NP_Neo_ONTime_WritePeriod
 240              		.section	.text.NP_Neo_ONTime_ReadPeriod,"ax",%progbits
 241              		.align	1
 242              		.global	NP_Neo_ONTime_ReadPeriod
 243              		.thumb
 244              		.thumb_func
 245              		.type	NP_Neo_ONTime_ReadPeriod, %function
ARM GAS  C:\Users\IVYLIU~1\AppData\Local\Temp\ccC2NF0Z.s 			page 9


 246              	NP_Neo_ONTime_ReadPeriod:
 247              	.LFB7:
 209:.\Generated_Source\PSoC5/NP_Neo_ONTime.c **** }
 210:.\Generated_Source\PSoC5/NP_Neo_ONTime.c **** 
 211:.\Generated_Source\PSoC5/NP_Neo_ONTime.c **** 
 212:.\Generated_Source\PSoC5/NP_Neo_ONTime.c **** /*******************************************************************************
 213:.\Generated_Source\PSoC5/NP_Neo_ONTime.c **** * Function Name: NP_Neo_ONTime_ReadPeriod
 214:.\Generated_Source\PSoC5/NP_Neo_ONTime.c **** ********************************************************************************
 215:.\Generated_Source\PSoC5/NP_Neo_ONTime.c **** *
 216:.\Generated_Source\PSoC5/NP_Neo_ONTime.c **** * Summary:
 217:.\Generated_Source\PSoC5/NP_Neo_ONTime.c **** *  This function reads the period register.
 218:.\Generated_Source\PSoC5/NP_Neo_ONTime.c **** *
 219:.\Generated_Source\PSoC5/NP_Neo_ONTime.c **** * Parameters:
 220:.\Generated_Source\PSoC5/NP_Neo_ONTime.c **** *  None
 221:.\Generated_Source\PSoC5/NP_Neo_ONTime.c **** *
 222:.\Generated_Source\PSoC5/NP_Neo_ONTime.c **** * Return:
 223:.\Generated_Source\PSoC5/NP_Neo_ONTime.c **** *  uint8 - Current period value.
 224:.\Generated_Source\PSoC5/NP_Neo_ONTime.c **** *
 225:.\Generated_Source\PSoC5/NP_Neo_ONTime.c **** *******************************************************************************/
 226:.\Generated_Source\PSoC5/NP_Neo_ONTime.c **** uint8 NP_Neo_ONTime_ReadPeriod(void) 
 227:.\Generated_Source\PSoC5/NP_Neo_ONTime.c **** {
 248              		.loc 1 227 0
 249              		.cfi_startproc
 250              		@ args = 0, pretend = 0, frame = 0
 251              		@ frame_needed = 0, uses_anonymous_args = 0
 252              		@ link register save eliminated.
 228:.\Generated_Source\PSoC5/NP_Neo_ONTime.c ****     return(NP_Neo_ONTime_PERIOD_REG);
 253              		.loc 1 228 0
 254 0000 014B     		ldr	r3, .L25
 255 0002 1878     		ldrb	r0, [r3]	@ zero_extendqisi2
 229:.\Generated_Source\PSoC5/NP_Neo_ONTime.c **** }
 256              		.loc 1 229 0
 257 0004 7047     		bx	lr
 258              	.L26:
 259 0006 00BF     		.align	2
 260              	.L25:
 261 0008 80640040 		.word	1073767552
 262              		.cfi_endproc
 263              	.LFE7:
 264              		.size	NP_Neo_ONTime_ReadPeriod, .-NP_Neo_ONTime_ReadPeriod
 265              		.global	NP_Neo_ONTime_initVar
 266              		.bss
 267              		.set	.LANCHOR0,. + 0
 268              		.type	NP_Neo_ONTime_initVar, %object
 269              		.size	NP_Neo_ONTime_initVar, 1
 270              	NP_Neo_ONTime_initVar:
 271 0000 00       		.space	1
 272              		.text
 273              	.Letext0:
 274              		.file 2 ".\\Generated_Source\\PSoC5\\cytypes.h"
 275              		.file 3 ".\\Generated_Source\\PSoC5\\CyLib.h"