ARM GAS  C:\Users\IVYLIU~1\AppData\Local\Temp\ccn1EaSm.s 			page 1


   1              		.syntax unified
   2              		.cpu cortex-m3
   3              		.fpu softvfp
   4              		.eabi_attribute 20, 1
   5              		.eabi_attribute 21, 1
   6              		.eabi_attribute 23, 3
   7              		.eabi_attribute 24, 1
   8              		.eabi_attribute 25, 1
   9              		.eabi_attribute 26, 1
  10              		.eabi_attribute 30, 4
  11              		.eabi_attribute 34, 1
  12              		.eabi_attribute 18, 4
  13              		.thumb
  14              		.file	"NP_Neo_OFFTime_PM.c"
  15              		.text
  16              	.Ltext0:
  17              		.cfi_sections	.debug_frame
  18              		.section	.text.NP_Neo_OFFTime_SaveConfig,"ax",%progbits
  19              		.align	1
  20              		.global	NP_Neo_OFFTime_SaveConfig
  21              		.thumb
  22              		.thumb_func
  23              		.type	NP_Neo_OFFTime_SaveConfig, %function
  24              	NP_Neo_OFFTime_SaveConfig:
  25              	.LFB0:
  26              		.file 1 ".\\Generated_Source\\PSoC5\\NP_Neo_OFFTime_PM.c"
   1:.\Generated_Source\PSoC5/NP_Neo_OFFTime_PM.c **** /*******************************************************************************
   2:.\Generated_Source\PSoC5/NP_Neo_OFFTime_PM.c **** * File Name: NP_Neo_OFFTime_PM.c
   3:.\Generated_Source\PSoC5/NP_Neo_OFFTime_PM.c **** * Version 1.0
   4:.\Generated_Source\PSoC5/NP_Neo_OFFTime_PM.c **** *
   5:.\Generated_Source\PSoC5/NP_Neo_OFFTime_PM.c **** * Description:
   6:.\Generated_Source\PSoC5/NP_Neo_OFFTime_PM.c **** *  This file provides Low power mode APIs for Count7 component.
   7:.\Generated_Source\PSoC5/NP_Neo_OFFTime_PM.c **** *
   8:.\Generated_Source\PSoC5/NP_Neo_OFFTime_PM.c **** * Note:
   9:.\Generated_Source\PSoC5/NP_Neo_OFFTime_PM.c **** *  None
  10:.\Generated_Source\PSoC5/NP_Neo_OFFTime_PM.c **** *
  11:.\Generated_Source\PSoC5/NP_Neo_OFFTime_PM.c **** ********************************************************************************
  12:.\Generated_Source\PSoC5/NP_Neo_OFFTime_PM.c **** * Copyright 2013, Cypress Semiconductor Corporation.  All rights reserved.
  13:.\Generated_Source\PSoC5/NP_Neo_OFFTime_PM.c **** * You may use this file only in accordance with the license, terms, conditions,
  14:.\Generated_Source\PSoC5/NP_Neo_OFFTime_PM.c **** * disclaimers, and limitations in the end user license agreement accompanying
  15:.\Generated_Source\PSoC5/NP_Neo_OFFTime_PM.c **** * the software package with which this file was provided.
  16:.\Generated_Source\PSoC5/NP_Neo_OFFTime_PM.c **** *******************************************************************************/
  17:.\Generated_Source\PSoC5/NP_Neo_OFFTime_PM.c **** 
  18:.\Generated_Source\PSoC5/NP_Neo_OFFTime_PM.c **** #include "NP_Neo_OFFTime.h"
  19:.\Generated_Source\PSoC5/NP_Neo_OFFTime_PM.c **** 
  20:.\Generated_Source\PSoC5/NP_Neo_OFFTime_PM.c **** 
  21:.\Generated_Source\PSoC5/NP_Neo_OFFTime_PM.c **** NP_Neo_OFFTime_BACKUP_STRUCT NP_Neo_OFFTime_backup;
  22:.\Generated_Source\PSoC5/NP_Neo_OFFTime_PM.c **** 
  23:.\Generated_Source\PSoC5/NP_Neo_OFFTime_PM.c **** 
  24:.\Generated_Source\PSoC5/NP_Neo_OFFTime_PM.c **** /*******************************************************************************
  25:.\Generated_Source\PSoC5/NP_Neo_OFFTime_PM.c **** * Function Name: NP_Neo_OFFTime_SaveConfig
  26:.\Generated_Source\PSoC5/NP_Neo_OFFTime_PM.c **** ********************************************************************************
  27:.\Generated_Source\PSoC5/NP_Neo_OFFTime_PM.c **** *
  28:.\Generated_Source\PSoC5/NP_Neo_OFFTime_PM.c **** * Summary:
  29:.\Generated_Source\PSoC5/NP_Neo_OFFTime_PM.c **** *  This function saves the component configuration and non-retention registers.
  30:.\Generated_Source\PSoC5/NP_Neo_OFFTime_PM.c **** *  This function is called by the Count7_Sleep() function.
  31:.\Generated_Source\PSoC5/NP_Neo_OFFTime_PM.c **** *
ARM GAS  C:\Users\IVYLIU~1\AppData\Local\Temp\ccn1EaSm.s 			page 2


  32:.\Generated_Source\PSoC5/NP_Neo_OFFTime_PM.c **** * Parameters:
  33:.\Generated_Source\PSoC5/NP_Neo_OFFTime_PM.c **** *  None
  34:.\Generated_Source\PSoC5/NP_Neo_OFFTime_PM.c **** *
  35:.\Generated_Source\PSoC5/NP_Neo_OFFTime_PM.c **** * Return:
  36:.\Generated_Source\PSoC5/NP_Neo_OFFTime_PM.c **** *  None
  37:.\Generated_Source\PSoC5/NP_Neo_OFFTime_PM.c **** *
  38:.\Generated_Source\PSoC5/NP_Neo_OFFTime_PM.c **** * Global Variables:
  39:.\Generated_Source\PSoC5/NP_Neo_OFFTime_PM.c **** *  NP_Neo_OFFTime_backup - used to save component configuration and non-
  40:.\Generated_Source\PSoC5/NP_Neo_OFFTime_PM.c **** *  retention registers before enter sleep mode.
  41:.\Generated_Source\PSoC5/NP_Neo_OFFTime_PM.c **** *
  42:.\Generated_Source\PSoC5/NP_Neo_OFFTime_PM.c **** *******************************************************************************/
  43:.\Generated_Source\PSoC5/NP_Neo_OFFTime_PM.c **** void NP_Neo_OFFTime_SaveConfig(void) 
  44:.\Generated_Source\PSoC5/NP_Neo_OFFTime_PM.c **** {
  27              		.loc 1 44 0
  28              		.cfi_startproc
  29              		@ args = 0, pretend = 0, frame = 0
  30              		@ frame_needed = 0, uses_anonymous_args = 0
  31              		@ link register save eliminated.
  45:.\Generated_Source\PSoC5/NP_Neo_OFFTime_PM.c ****     NP_Neo_OFFTime_backup.count = NP_Neo_OFFTime_COUNT_REG;
  32              		.loc 1 45 0
  33 0000 024B     		ldr	r3, .L2
  34 0002 1A78     		ldrb	r2, [r3]	@ zero_extendqisi2
  35 0004 024B     		ldr	r3, .L2+4
  36 0006 5A70     		strb	r2, [r3, #1]
  37 0008 7047     		bx	lr
  38              	.L3:
  39 000a 00BF     		.align	2
  40              	.L2:
  41 000c 7F640040 		.word	1073767551
  42 0010 00000000 		.word	NP_Neo_OFFTime_backup
  43              		.cfi_endproc
  44              	.LFE0:
  45              		.size	NP_Neo_OFFTime_SaveConfig, .-NP_Neo_OFFTime_SaveConfig
  46              		.section	.text.NP_Neo_OFFTime_Sleep,"ax",%progbits
  47              		.align	1
  48              		.global	NP_Neo_OFFTime_Sleep
  49              		.thumb
  50              		.thumb_func
  51              		.type	NP_Neo_OFFTime_Sleep, %function
  52              	NP_Neo_OFFTime_Sleep:
  53              	.LFB1:
  46:.\Generated_Source\PSoC5/NP_Neo_OFFTime_PM.c **** }
  47:.\Generated_Source\PSoC5/NP_Neo_OFFTime_PM.c **** 
  48:.\Generated_Source\PSoC5/NP_Neo_OFFTime_PM.c **** 
  49:.\Generated_Source\PSoC5/NP_Neo_OFFTime_PM.c **** /*******************************************************************************
  50:.\Generated_Source\PSoC5/NP_Neo_OFFTime_PM.c **** * Function Name: NP_Neo_OFFTime_Sleep
  51:.\Generated_Source\PSoC5/NP_Neo_OFFTime_PM.c **** ********************************************************************************
  52:.\Generated_Source\PSoC5/NP_Neo_OFFTime_PM.c **** *
  53:.\Generated_Source\PSoC5/NP_Neo_OFFTime_PM.c **** * Summary:
  54:.\Generated_Source\PSoC5/NP_Neo_OFFTime_PM.c **** *  This is the preferred API to prepare the component for low power mode
  55:.\Generated_Source\PSoC5/NP_Neo_OFFTime_PM.c **** *  operation. The Count7_Sleep() API saves the current component state using
  56:.\Generated_Source\PSoC5/NP_Neo_OFFTime_PM.c **** *  Count7_SaveConfig() and disables the counter.
  57:.\Generated_Source\PSoC5/NP_Neo_OFFTime_PM.c **** *
  58:.\Generated_Source\PSoC5/NP_Neo_OFFTime_PM.c **** * Parameters:
  59:.\Generated_Source\PSoC5/NP_Neo_OFFTime_PM.c **** *  None
  60:.\Generated_Source\PSoC5/NP_Neo_OFFTime_PM.c **** *
  61:.\Generated_Source\PSoC5/NP_Neo_OFFTime_PM.c **** * Return:
ARM GAS  C:\Users\IVYLIU~1\AppData\Local\Temp\ccn1EaSm.s 			page 3


  62:.\Generated_Source\PSoC5/NP_Neo_OFFTime_PM.c **** *  None
  63:.\Generated_Source\PSoC5/NP_Neo_OFFTime_PM.c **** *
  64:.\Generated_Source\PSoC5/NP_Neo_OFFTime_PM.c **** *******************************************************************************/
  65:.\Generated_Source\PSoC5/NP_Neo_OFFTime_PM.c **** void NP_Neo_OFFTime_Sleep(void) 
  66:.\Generated_Source\PSoC5/NP_Neo_OFFTime_PM.c **** {
  54              		.loc 1 66 0
  55              		.cfi_startproc
  56              		@ args = 0, pretend = 0, frame = 0
  57              		@ frame_needed = 0, uses_anonymous_args = 0
  58 0000 08B5     		push	{r3, lr}
  59              		.cfi_def_cfa_offset 8
  60              		.cfi_offset 3, -8
  61              		.cfi_offset 14, -4
  67:.\Generated_Source\PSoC5/NP_Neo_OFFTime_PM.c ****     if(0u != (NP_Neo_OFFTime_AUX_CONTROL_REG & NP_Neo_OFFTime_COUNTER_START))
  62              		.loc 1 67 0
  63 0002 094B     		ldr	r3, .L8
  64 0004 094A     		ldr	r2, .L8+4
  65 0006 1B78     		ldrb	r3, [r3]	@ zero_extendqisi2
  66 0008 03F02003 		and	r3, r3, #32
  67 000c 03F0FF01 		and	r1, r3, #255
  68 0010 23B1     		cbz	r3, .L5
  68:.\Generated_Source\PSoC5/NP_Neo_OFFTime_PM.c ****     {
  69:.\Generated_Source\PSoC5/NP_Neo_OFFTime_PM.c ****         NP_Neo_OFFTime_backup.enableState = 1u;
  69              		.loc 1 69 0
  70 0012 0123     		movs	r3, #1
  71 0014 1370     		strb	r3, [r2]
  70:.\Generated_Source\PSoC5/NP_Neo_OFFTime_PM.c ****         NP_Neo_OFFTime_Stop();
  72              		.loc 1 70 0
  73 0016 FFF7FEFF 		bl	NP_Neo_OFFTime_Stop
  74              	.LVL0:
  75 001a 00E0     		b	.L6
  76              	.L5:
  71:.\Generated_Source\PSoC5/NP_Neo_OFFTime_PM.c ****     }
  72:.\Generated_Source\PSoC5/NP_Neo_OFFTime_PM.c ****     else
  73:.\Generated_Source\PSoC5/NP_Neo_OFFTime_PM.c ****     {
  74:.\Generated_Source\PSoC5/NP_Neo_OFFTime_PM.c ****         NP_Neo_OFFTime_backup.enableState = 0u;
  77              		.loc 1 74 0
  78 001c 1170     		strb	r1, [r2]
  79              	.L6:
  75:.\Generated_Source\PSoC5/NP_Neo_OFFTime_PM.c ****     }
  76:.\Generated_Source\PSoC5/NP_Neo_OFFTime_PM.c **** 
  77:.\Generated_Source\PSoC5/NP_Neo_OFFTime_PM.c ****     NP_Neo_OFFTime_SaveConfig();
  78:.\Generated_Source\PSoC5/NP_Neo_OFFTime_PM.c **** }
  80              		.loc 1 78 0
  81 001e BDE80840 		pop	{r3, lr}
  82              		.cfi_restore 14
  83              		.cfi_restore 3
  84              		.cfi_def_cfa_offset 0
  77:.\Generated_Source\PSoC5/NP_Neo_OFFTime_PM.c **** }
  85              		.loc 1 77 0
  86 0022 FFF7FEBF 		b	NP_Neo_OFFTime_SaveConfig
  87              	.LVL1:
  88              	.L9:
  89 0026 00BF     		.align	2
  90              	.L8:
  91 0028 9F640040 		.word	1073767583
  92 002c 00000000 		.word	NP_Neo_OFFTime_backup
ARM GAS  C:\Users\IVYLIU~1\AppData\Local\Temp\ccn1EaSm.s 			page 4


  93              		.cfi_endproc
  94              	.LFE1:
  95              		.size	NP_Neo_OFFTime_Sleep, .-NP_Neo_OFFTime_Sleep
  96              		.section	.text.NP_Neo_OFFTime_RestoreConfig,"ax",%progbits
  97              		.align	1
  98              		.global	NP_Neo_OFFTime_RestoreConfig
  99              		.thumb
 100              		.thumb_func
 101              		.type	NP_Neo_OFFTime_RestoreConfig, %function
 102              	NP_Neo_OFFTime_RestoreConfig:
 103              	.LFB2:
  79:.\Generated_Source\PSoC5/NP_Neo_OFFTime_PM.c **** 
  80:.\Generated_Source\PSoC5/NP_Neo_OFFTime_PM.c **** 
  81:.\Generated_Source\PSoC5/NP_Neo_OFFTime_PM.c **** /*******************************************************************************
  82:.\Generated_Source\PSoC5/NP_Neo_OFFTime_PM.c **** * Function Name: NP_Neo_OFFTime_RestoreConfig
  83:.\Generated_Source\PSoC5/NP_Neo_OFFTime_PM.c **** ********************************************************************************
  84:.\Generated_Source\PSoC5/NP_Neo_OFFTime_PM.c **** *
  85:.\Generated_Source\PSoC5/NP_Neo_OFFTime_PM.c **** * Summary:
  86:.\Generated_Source\PSoC5/NP_Neo_OFFTime_PM.c **** *  This function restores the component configuration and non-retention
  87:.\Generated_Source\PSoC5/NP_Neo_OFFTime_PM.c **** *  registers. This function is called by the Count7_Wakeup() function.
  88:.\Generated_Source\PSoC5/NP_Neo_OFFTime_PM.c **** *
  89:.\Generated_Source\PSoC5/NP_Neo_OFFTime_PM.c **** * Parameters:
  90:.\Generated_Source\PSoC5/NP_Neo_OFFTime_PM.c **** *  None
  91:.\Generated_Source\PSoC5/NP_Neo_OFFTime_PM.c **** *
  92:.\Generated_Source\PSoC5/NP_Neo_OFFTime_PM.c **** * Return:
  93:.\Generated_Source\PSoC5/NP_Neo_OFFTime_PM.c **** *  None
  94:.\Generated_Source\PSoC5/NP_Neo_OFFTime_PM.c **** *
  95:.\Generated_Source\PSoC5/NP_Neo_OFFTime_PM.c **** * Global Variables:
  96:.\Generated_Source\PSoC5/NP_Neo_OFFTime_PM.c **** *  NP_Neo_OFFTime_backup - used to save component configuration and
  97:.\Generated_Source\PSoC5/NP_Neo_OFFTime_PM.c **** *  non-retention registers before exit sleep mode.
  98:.\Generated_Source\PSoC5/NP_Neo_OFFTime_PM.c **** *
  99:.\Generated_Source\PSoC5/NP_Neo_OFFTime_PM.c **** *******************************************************************************/
 100:.\Generated_Source\PSoC5/NP_Neo_OFFTime_PM.c **** void NP_Neo_OFFTime_RestoreConfig(void) 
 101:.\Generated_Source\PSoC5/NP_Neo_OFFTime_PM.c **** {
 104              		.loc 1 101 0
 105              		.cfi_startproc
 106              		@ args = 0, pretend = 0, frame = 0
 107              		@ frame_needed = 0, uses_anonymous_args = 0
 108              		@ link register save eliminated.
 102:.\Generated_Source\PSoC5/NP_Neo_OFFTime_PM.c ****     NP_Neo_OFFTime_COUNT_REG = NP_Neo_OFFTime_backup.count;
 109              		.loc 1 102 0
 110 0000 024B     		ldr	r3, .L11
 111 0002 5A78     		ldrb	r2, [r3, #1]	@ zero_extendqisi2
 112 0004 024B     		ldr	r3, .L11+4
 113 0006 1A70     		strb	r2, [r3]
 114 0008 7047     		bx	lr
 115              	.L12:
 116 000a 00BF     		.align	2
 117              	.L11:
 118 000c 00000000 		.word	NP_Neo_OFFTime_backup
 119 0010 7F640040 		.word	1073767551
 120              		.cfi_endproc
 121              	.LFE2:
 122              		.size	NP_Neo_OFFTime_RestoreConfig, .-NP_Neo_OFFTime_RestoreConfig
 123              		.section	.text.NP_Neo_OFFTime_Wakeup,"ax",%progbits
 124              		.align	1
 125              		.global	NP_Neo_OFFTime_Wakeup
ARM GAS  C:\Users\IVYLIU~1\AppData\Local\Temp\ccn1EaSm.s 			page 5


 126              		.thumb
 127              		.thumb_func
 128              		.type	NP_Neo_OFFTime_Wakeup, %function
 129              	NP_Neo_OFFTime_Wakeup:
 130              	.LFB3:
 103:.\Generated_Source\PSoC5/NP_Neo_OFFTime_PM.c **** }
 104:.\Generated_Source\PSoC5/NP_Neo_OFFTime_PM.c **** 
 105:.\Generated_Source\PSoC5/NP_Neo_OFFTime_PM.c **** 
 106:.\Generated_Source\PSoC5/NP_Neo_OFFTime_PM.c **** /*******************************************************************************
 107:.\Generated_Source\PSoC5/NP_Neo_OFFTime_PM.c **** * Function Name: NP_Neo_OFFTime_Wakeup
 108:.\Generated_Source\PSoC5/NP_Neo_OFFTime_PM.c **** ********************************************************************************
 109:.\Generated_Source\PSoC5/NP_Neo_OFFTime_PM.c **** *
 110:.\Generated_Source\PSoC5/NP_Neo_OFFTime_PM.c **** * Summary:
 111:.\Generated_Source\PSoC5/NP_Neo_OFFTime_PM.c **** *  This is the preferred API to restore the component to the state when
 112:.\Generated_Source\PSoC5/NP_Neo_OFFTime_PM.c **** *  Count7_Sleep() was called. The Count7_Wakeup() function calls the
 113:.\Generated_Source\PSoC5/NP_Neo_OFFTime_PM.c **** *  Count7_RestoreConfig() function to restore the configuration.
 114:.\Generated_Source\PSoC5/NP_Neo_OFFTime_PM.c **** *
 115:.\Generated_Source\PSoC5/NP_Neo_OFFTime_PM.c **** * Parameters:
 116:.\Generated_Source\PSoC5/NP_Neo_OFFTime_PM.c **** *  None
 117:.\Generated_Source\PSoC5/NP_Neo_OFFTime_PM.c **** *
 118:.\Generated_Source\PSoC5/NP_Neo_OFFTime_PM.c **** * Return:
 119:.\Generated_Source\PSoC5/NP_Neo_OFFTime_PM.c **** *  None
 120:.\Generated_Source\PSoC5/NP_Neo_OFFTime_PM.c **** *
 121:.\Generated_Source\PSoC5/NP_Neo_OFFTime_PM.c **** *******************************************************************************/
 122:.\Generated_Source\PSoC5/NP_Neo_OFFTime_PM.c **** void NP_Neo_OFFTime_Wakeup(void) 
 123:.\Generated_Source\PSoC5/NP_Neo_OFFTime_PM.c **** {
 131              		.loc 1 123 0
 132              		.cfi_startproc
 133              		@ args = 0, pretend = 0, frame = 0
 134              		@ frame_needed = 0, uses_anonymous_args = 0
 135 0000 08B5     		push	{r3, lr}
 136              		.cfi_def_cfa_offset 8
 137              		.cfi_offset 3, -8
 138              		.cfi_offset 14, -4
 124:.\Generated_Source\PSoC5/NP_Neo_OFFTime_PM.c ****     NP_Neo_OFFTime_RestoreConfig();
 139              		.loc 1 124 0
 140 0002 FFF7FEFF 		bl	NP_Neo_OFFTime_RestoreConfig
 141              	.LVL2:
 125:.\Generated_Source\PSoC5/NP_Neo_OFFTime_PM.c **** 
 126:.\Generated_Source\PSoC5/NP_Neo_OFFTime_PM.c ****     /* Restore enable state */
 127:.\Generated_Source\PSoC5/NP_Neo_OFFTime_PM.c ****     if (NP_Neo_OFFTime_backup.enableState != 0u)
 142              		.loc 1 127 0
 143 0006 044B     		ldr	r3, .L15
 144 0008 1B78     		ldrb	r3, [r3]	@ zero_extendqisi2
 145 000a 1BB1     		cbz	r3, .L13
 128:.\Generated_Source\PSoC5/NP_Neo_OFFTime_PM.c ****     {
 129:.\Generated_Source\PSoC5/NP_Neo_OFFTime_PM.c ****         NP_Neo_OFFTime_Enable();
 130:.\Generated_Source\PSoC5/NP_Neo_OFFTime_PM.c ****     }
 131:.\Generated_Source\PSoC5/NP_Neo_OFFTime_PM.c **** }
 146              		.loc 1 131 0
 147 000c BDE80840 		pop	{r3, lr}
 148              		.cfi_remember_state
 149              		.cfi_restore 14
 150              		.cfi_restore 3
 151              		.cfi_def_cfa_offset 0
 129:.\Generated_Source\PSoC5/NP_Neo_OFFTime_PM.c ****     }
 152              		.loc 1 129 0
ARM GAS  C:\Users\IVYLIU~1\AppData\Local\Temp\ccn1EaSm.s 			page 6


 153 0010 FFF7FEBF 		b	NP_Neo_OFFTime_Enable
 154              	.LVL3:
 155              	.L13:
 156              		.cfi_restore_state
 157 0014 08BD     		pop	{r3, pc}
 158              	.L16:
 159 0016 00BF     		.align	2
 160              	.L15:
 161 0018 00000000 		.word	NP_Neo_OFFTime_backup
 162              		.cfi_endproc
 163              	.LFE3:
 164              		.size	NP_Neo_OFFTime_Wakeup, .-NP_Neo_OFFTime_Wakeup
 165              		.comm	NP_Neo_OFFTime_backup,2,1
 166              		.text
 167              	.Letext0:
 168              		.file 2 ".\\Generated_Source\\PSoC5\\cytypes.h"
 169              		.file 3 ".\\Generated_Source\\PSoC5\\NP_Neo_OFFTime.h"