ARM GAS  C:\Users\IVYLIU~1\AppData\Local\Temp\ccR7pDhK.s 			page 1


   1              		.syntax unified
   2              		.cpu cortex-m3
   3              		.fpu softvfp
   4              		.eabi_attribute 20, 1
   5              		.eabi_attribute 21, 1
   6              		.eabi_attribute 23, 3
   7              		.eabi_attribute 24, 1
   8              		.eabi_attribute 25, 1
   9              		.eabi_attribute 26, 1
  10              		.eabi_attribute 30, 4
  11              		.eabi_attribute 34, 1
  12              		.eabi_attribute 18, 4
  13              		.thumb
  14              		.file	"tft.c"
  15              		.text
  16              	.Ltext0:
  17              		.cfi_sections	.debug_frame
  18              		.section	.text.write8_a0,"ax",%progbits
  19              		.align	1
  20              		.global	write8_a0
  21              		.thumb
  22              		.thumb_func
  23              		.type	write8_a0, %function
  24              	write8_a0:
  25              	.LFB67:
  26              		.file 1 ".\\tft.c"
   1:.\tft.c       **** /* ========================================
   2:.\tft.c       ****  *
   3:.\tft.c       ****  * Copyright YOUR COMPANY, THE YEAR
   4:.\tft.c       ****  * All Rights Reserved
   5:.\tft.c       ****  * UNPUBLISHED, LICENSED SOFTWARE.
   6:.\tft.c       ****  *
   7:.\tft.c       ****  * CONFIDENTIAL AND PROPRIETARY INFORMATION
   8:.\tft.c       ****  * WHICH IS THE PROPERTY OF your company.
   9:.\tft.c       ****  *
  10:.\tft.c       ****  * ========================================
  11:.\tft.c       **** */
  12:.\tft.c       **** #include "tft.h"
  13:.\tft.c       **** 
  14:.\tft.c       **** //==============================================================
  15:.\tft.c       **** // write8_a0()
  16:.\tft.c       **** // writes an 8-bit value to the TFT with the D/C line low
  17:.\tft.c       **** //
  18:.\tft.c       **** // Arguments:
  19:.\tft.c       **** //      data - 8-bit value
  20:.\tft.c       **** //==============================================================
  21:.\tft.c       **** void write8_a0(uint8 data)
  22:.\tft.c       **** {
  27              		.loc 1 22 0
  28              		.cfi_startproc
  29              		@ args = 0, pretend = 0, frame = 0
  30              		@ frame_needed = 0, uses_anonymous_args = 0
  31              	.LVL0:
  32 0000 10B5     		push	{r4, lr}
  33              		.cfi_def_cfa_offset 8
  34              		.cfi_offset 4, -8
  35              		.cfi_offset 14, -4
ARM GAS  C:\Users\IVYLIU~1\AppData\Local\Temp\ccR7pDhK.s 			page 2


  36              		.loc 1 22 0
  37 0002 0446     		mov	r4, r0
  23:.\tft.c       **** 	DC_Write(0x00); 						        // set DC line low
  38              		.loc 1 23 0
  39 0004 0020     		movs	r0, #0
  40              	.LVL1:
  41 0006 FFF7FEFF 		bl	DC_Write
  42              	.LVL2:
  24:.\tft.c       ****     SPIM_1_WriteTxData(data);         		        // send data to transmit buffer
  43              		.loc 1 24 0
  44 000a 2046     		mov	r0, r4
  45 000c FFF7FEFF 		bl	SPIM_1_WriteTxData
  46              	.LVL3:
  47              	.L2:
  25:.\tft.c       ****     while (!(SPIM_1_ReadTxStatus() & 0x01)){};	    // wait for data to be sent
  48              		.loc 1 25 0 discriminator 1
  49 0010 FFF7FEFF 		bl	SPIM_1_ReadTxStatus
  50              	.LVL4:
  51 0014 C307     		lsls	r3, r0, #31
  52 0016 FBD5     		bpl	.L2
  26:.\tft.c       **** }
  53              		.loc 1 26 0
  54 0018 10BD     		pop	{r4, pc}
  55              		.cfi_endproc
  56              	.LFE67:
  57              		.size	write8_a0, .-write8_a0
  58              		.section	.text.write8_a1,"ax",%progbits
  59              		.align	1
  60              		.global	write8_a1
  61              		.thumb
  62              		.thumb_func
  63              		.type	write8_a1, %function
  64              	write8_a1:
  65              	.LFB68:
  27:.\tft.c       **** 
  28:.\tft.c       **** //==============================================================
  29:.\tft.c       **** // write8_a1()
  30:.\tft.c       **** // writes an 8-bit value to the TFT with the D/C line high
  31:.\tft.c       **** //
  32:.\tft.c       **** // Arguments:
  33:.\tft.c       **** //      data - 8-bit value
  34:.\tft.c       **** //==============================================================
  35:.\tft.c       **** void write8_a1(uint8 data)
  36:.\tft.c       **** {
  66              		.loc 1 36 0
  67              		.cfi_startproc
  68              		@ args = 0, pretend = 0, frame = 0
  69              		@ frame_needed = 0, uses_anonymous_args = 0
  70              	.LVL5:
  71 0000 10B5     		push	{r4, lr}
  72              		.cfi_def_cfa_offset 8
  73              		.cfi_offset 4, -8
  74              		.cfi_offset 14, -4
  75              		.loc 1 36 0
  76 0002 0446     		mov	r4, r0
  37:.\tft.c       **** 	DC_Write(0x01); 						        // set DC line high
  77              		.loc 1 37 0
ARM GAS  C:\Users\IVYLIU~1\AppData\Local\Temp\ccR7pDhK.s 			page 3


  78 0004 0120     		movs	r0, #1
  79              	.LVL6:
  80 0006 FFF7FEFF 		bl	DC_Write
  81              	.LVL7:
  38:.\tft.c       ****     SPIM_1_WriteTxData(data);                       // send data to transmit buffer
  82              		.loc 1 38 0
  83 000a 2046     		mov	r0, r4
  84 000c FFF7FEFF 		bl	SPIM_1_WriteTxData
  85              	.LVL8:
  86              	.L7:
  39:.\tft.c       ****     while (!(SPIM_1_ReadTxStatus() & 0x01)){};	    // wait for data to be sent
  87              		.loc 1 39 0 discriminator 1
  88 0010 FFF7FEFF 		bl	SPIM_1_ReadTxStatus
  89              	.LVL9:
  90 0014 C307     		lsls	r3, r0, #31
  91 0016 FBD5     		bpl	.L7
  40:.\tft.c       **** }
  92              		.loc 1 40 0
  93 0018 10BD     		pop	{r4, pc}
  94              		.cfi_endproc
  95              	.LFE68:
  96              		.size	write8_a1, .-write8_a1
  97              		.section	.text.writeM8_a1,"ax",%progbits
  98              		.align	1
  99              		.global	writeM8_a1
 100              		.thumb
 101              		.thumb_func
 102              		.type	writeM8_a1, %function
 103              	writeM8_a1:
 104              	.LFB69:
  41:.\tft.c       **** 
  42:.\tft.c       **** //==============================================================
  43:.\tft.c       **** // writeM8_a1()
  44:.\tft.c       **** // writes multiple bytes to the TFT with the D/C line high
  45:.\tft.c       **** //
  46:.\tft.c       **** // Arguments:
  47:.\tft.c       **** //      pData - pointer to an array of 8-bit data values
  48:.\tft.c       **** //      N - the size of the array *pData
  49:.\tft.c       **** //==============================================================
  50:.\tft.c       **** void writeM8_a1(uint8 *pData, int N)
  51:.\tft.c       **** {
 105              		.loc 1 51 0
 106              		.cfi_startproc
 107              		@ args = 0, pretend = 0, frame = 0
 108              		@ frame_needed = 0, uses_anonymous_args = 0
 109              	.LVL10:
 110 0000 70B5     		push	{r4, r5, r6, lr}
 111              		.cfi_def_cfa_offset 16
 112              		.cfi_offset 4, -16
 113              		.cfi_offset 5, -12
 114              		.cfi_offset 6, -8
 115              		.cfi_offset 14, -4
 116              		.loc 1 51 0
 117 0002 0546     		mov	r5, r0
  52:.\tft.c       **** 	DC_Write(0x01); 						        // set DC line high
 118              		.loc 1 52 0
 119 0004 0120     		movs	r0, #1
ARM GAS  C:\Users\IVYLIU~1\AppData\Local\Temp\ccR7pDhK.s 			page 4


 120              	.LVL11:
  51:.\tft.c       **** 	DC_Write(0x01); 						        // set DC line high
 121              		.loc 1 51 0
 122 0006 0E46     		mov	r6, r1
  53:.\tft.c       ****     int i;
  54:.\tft.c       ****     for (i=0; i<N; i++)
 123              		.loc 1 54 0
 124 0008 2C46     		mov	r4, r5
  52:.\tft.c       ****     int i;
 125              		.loc 1 52 0
 126 000a FFF7FEFF 		bl	DC_Write
 127              	.LVL12:
 128              	.L11:
 129 000e 631B     		subs	r3, r4, r5
 130              		.loc 1 54 0 discriminator 1
 131 0010 B342     		cmp	r3, r6
 132 0012 08DA     		bge	.L16
  55:.\tft.c       ****     {
  56:.\tft.c       ****         SPIM_1_WriteTxData(pData[i]);               // send data to transmit buffer
 133              		.loc 1 56 0
 134 0014 14F8010B 		ldrb	r0, [r4], #1	@ zero_extendqisi2
 135              	.LVL13:
 136 0018 FFF7FEFF 		bl	SPIM_1_WriteTxData
 137              	.LVL14:
 138              	.L12:
  57:.\tft.c       ****         while (!(SPIM_1_ReadTxStatus() & 0x01)){};  // wait for data to be sent
 139              		.loc 1 57 0 discriminator 1
 140 001c FFF7FEFF 		bl	SPIM_1_ReadTxStatus
 141              	.LVL15:
 142 0020 C307     		lsls	r3, r0, #31
 143 0022 FBD5     		bpl	.L12
 144 0024 F3E7     		b	.L11
 145              	.LVL16:
 146              	.L16:
  58:.\tft.c       ****     }
  59:.\tft.c       **** }
 147              		.loc 1 59 0
 148 0026 70BD     		pop	{r4, r5, r6, pc}
 149              		.cfi_endproc
 150              	.LFE69:
 151              		.size	writeM8_a1, .-writeM8_a1
 152              		.section	.text.read8_a1,"ax",%progbits
 153              		.align	1
 154              		.global	read8_a1
 155              		.thumb
 156              		.thumb_func
 157              		.type	read8_a1, %function
 158              	read8_a1:
 159              	.LFB70:
  60:.\tft.c       **** 
  61:.\tft.c       **** //==============================================================
  62:.\tft.c       **** // read8_a1()
  63:.\tft.c       **** // reads an 8-bit value to the TFT with the D/C line high
  64:.\tft.c       **** //==============================================================
  65:.\tft.c       **** uint8 read8_a1(void)
  66:.\tft.c       **** {
 160              		.loc 1 66 0
ARM GAS  C:\Users\IVYLIU~1\AppData\Local\Temp\ccR7pDhK.s 			page 5


 161              		.cfi_startproc
 162              		@ Volatile: function does not return.
 163              		@ args = 0, pretend = 0, frame = 0
 164              		@ frame_needed = 0, uses_anonymous_args = 0
 165              		@ link register save eliminated.
 166              	.L18:
  67:.\tft.c       **** 	for (;;) {}                                     // read function not implemented
 167              		.loc 1 67 0 discriminator 1
 168 0000 FEE7     		b	.L18
 169              		.cfi_endproc
 170              	.LFE70:
 171              		.size	read8_a1, .-read8_a1
 172              		.section	.text.readM8_a1,"ax",%progbits
 173              		.align	1
 174              		.global	readM8_a1
 175              		.thumb
 176              		.thumb_func
 177              		.type	readM8_a1, %function
 178              	readM8_a1:
 179              	.LFB71:
  68:.\tft.c       **** };
  69:.\tft.c       **** 
  70:.\tft.c       **** //==============================================================
  71:.\tft.c       **** // readM8_a1()
  72:.\tft.c       **** // reads multple 8-bit values from the TFT with the D/C line high
  73:.\tft.c       **** //
  74:.\tft.c       **** // Arguments:
  75:.\tft.c       **** //      pData - an array where the read values we be stored
  76:.\tft.c       **** //      N - the number of values that will be read (also size of 
  77:.\tft.c       **** //          the array pData)
  78:.\tft.c       **** //==============================================================
  79:.\tft.c       **** void readM8_a1(uint8 *pData, int N)
  80:.\tft.c       **** {
 180              		.loc 1 80 0
 181              		.cfi_startproc
 182              		@ Volatile: function does not return.
 183              		@ args = 0, pretend = 0, frame = 0
 184              		@ frame_needed = 0, uses_anonymous_args = 0
 185              		@ link register save eliminated.
 186              	.LVL17:
 187              	.L20:
  81:.\tft.c       **** 	for (;;) {}                                     // read function not implemented
 188              		.loc 1 81 0 discriminator 1
 189 0000 FEE7     		b	.L20
 190              		.cfi_endproc
 191              	.LFE71:
 192              		.size	readM8_a1, .-readM8_a1
 193              		.section	.text.tftStart,"ax",%progbits
 194              		.align	1
 195              		.global	tftStart
 196              		.thumb
 197              		.thumb_func
 198              		.type	tftStart, %function
 199              	tftStart:
 200              	.LFB72:
  82:.\tft.c       **** }
  83:.\tft.c       **** 
ARM GAS  C:\Users\IVYLIU~1\AppData\Local\Temp\ccR7pDhK.s 			page 6


  84:.\tft.c       **** //==============================================================
  85:.\tft.c       **** // tftStart()
  86:.\tft.c       **** // this function must be called to initializes the TFT
  87:.\tft.c       **** //==============================================================
  88:.\tft.c       **** void tftStart(void)
  89:.\tft.c       **** {
 201              		.loc 1 89 0
 202              		.cfi_startproc
 203              		@ args = 0, pretend = 0, frame = 0
 204              		@ frame_needed = 0, uses_anonymous_args = 0
 205 0000 08B5     		push	{r3, lr}
 206              		.cfi_def_cfa_offset 8
 207              		.cfi_offset 3, -8
 208              		.cfi_offset 14, -4
  90:.\tft.c       ****     write8_a0(0x01);         			// send Software Reset Command (must wait at least 5ms after comman
 209              		.loc 1 90 0
 210 0002 0120     		movs	r0, #1
 211 0004 FFF7FEFF 		bl	write8_a0
 212              	.LVL18:
  91:.\tft.c       ****     CyDelay(10);
 213              		.loc 1 91 0
 214 0008 0A20     		movs	r0, #10
 215 000a FFF7FEFF 		bl	CyDelay
 216              	.LVL19:
  92:.\tft.c       ****     write8_a0(0x36);         			// send Memory Access Control command
 217              		.loc 1 92 0
 218 000e 3620     		movs	r0, #54
 219 0010 FFF7FEFF 		bl	write8_a0
 220              	.LVL20:
  93:.\tft.c       **** 	write8_a1(0x88);
 221              		.loc 1 93 0
 222 0014 8820     		movs	r0, #136
 223 0016 FFF7FEFF 		bl	write8_a1
 224              	.LVL21:
  94:.\tft.c       ****     write8_a0(0x3A);         			// send COLMOD: Pixel Format Set command
 225              		.loc 1 94 0
 226 001a 3A20     		movs	r0, #58
 227 001c FFF7FEFF 		bl	write8_a0
 228              	.LVL22:
  95:.\tft.c       ****     write8_a1(0x55);
 229              		.loc 1 95 0
 230 0020 5520     		movs	r0, #85
 231 0022 FFF7FEFF 		bl	write8_a1
 232              	.LVL23:
  96:.\tft.c       ****     write8_a0(0x11);         			// send Sleep Out command
 233              		.loc 1 96 0
 234 0026 1120     		movs	r0, #17
 235 0028 FFF7FEFF 		bl	write8_a0
 236              	.LVL24:
  97:.\tft.c       ****     write8_a0(0x29);         			// send Display ON command
 237              		.loc 1 97 0
 238 002c 2920     		movs	r0, #41
 239 002e FFF7FEFF 		bl	write8_a0
 240              	.LVL25:
  98:.\tft.c       ****     CyDelay(250);            			// delay to allow all changes to take effect	
  99:.\tft.c       **** }
 241              		.loc 1 99 0
ARM GAS  C:\Users\IVYLIU~1\AppData\Local\Temp\ccR7pDhK.s 			page 7


 242 0032 BDE80840 		pop	{r3, lr}
 243              		.cfi_restore 14
 244              		.cfi_restore 3
 245              		.cfi_def_cfa_offset 0
  98:.\tft.c       ****     CyDelay(250);            			// delay to allow all changes to take effect	
 246              		.loc 1 98 0
 247 0036 FA20     		movs	r0, #250
 248 0038 FFF7FEBF 		b	CyDelay
 249              	.LVL26:
 250              		.cfi_endproc
 251              	.LFE72:
 252              		.size	tftStart, .-tftStart
 253              		.comm	NP_g_nFrameBufferSize,4,4
 254              		.comm	NP_g_pFrameBuffer,4,4
 255              		.comm	NP_g_bOwnsBuffer,1,1
 256              		.comm	NP_g_nDMA_TD,1,1
 257              		.comm	NP_g_nDMA_Chan,1,1
 258              		.comm	NP_g_nNumberOfPixels,4,4
 259              		.text
 260              	.Letext0:
 261              		.file 2 "c:\\program files (x86)\\cypress\\psoc creator\\3.3\\psoc creator\\import\\gnu\\arm\\4.9.
 262              		.file 3 "c:\\program files (x86)\\cypress\\psoc creator\\3.3\\psoc creator\\import\\gnu\\arm\\4.9.
 263              		.file 4 "Generated_Source\\PSoC5/cytypes.h"
 264              		.file 5 "Generated_Source\\PSoC5/NP_funcs.h"
 265              		.file 6 ".\\Core\\Include/cmsis_gcc.h"
 266              		.file 7 ".\\Core\\Include/core_cm3.h"
 267              		.file 8 "Generated_Source\\PSoC5/DC.h"
 268              		.file 9 "Generated_Source\\PSoC5/SPIM_1.h"
 269              		.file 10 "Generated_Source\\PSoC5/CyLib.h"