ARM GAS  C:\Users\IVYLIU~1\AppData\Local\Temp\ccWSfWRg.s 			page 1


   1              		.syntax unified
   2              		.cpu cortex-m3
   3              		.fpu softvfp
   4              		.eabi_attribute 20, 1
   5              		.eabi_attribute 21, 1
   6              		.eabi_attribute 23, 3
   7              		.eabi_attribute 24, 1
   8              		.eabi_attribute 25, 1
   9              		.eabi_attribute 26, 1
  10              		.eabi_attribute 30, 1
  11              		.eabi_attribute 34, 1
  12              		.eabi_attribute 18, 4
  13              		.thumb
  14              		.file	"main.c"
  15              		.text
  16              	.Ltext0:
  17              		.cfi_sections	.debug_frame
  18              		.section	.text.MainTask,"ax",%progbits
  19              		.align	2
  20              		.global	MainTask
  21              		.thumb
  22              		.thumb_func
  23              		.type	MainTask, %function
  24              	MainTask:
  25              	.LFB124:
  26              		.file 1 ".\\main.c"
   1:.\main.c      **** /* ========================================
   2:.\main.c      ****  *
   3:.\main.c      ****  * Copyright YOUR COMPANY, THE YEAR
   4:.\main.c      ****  * All Rights Reserved
   5:.\main.c      ****  * UNPUBLISHED, LICENSED SOFTWARE.
   6:.\main.c      ****  *
   7:.\main.c      ****  * CONFIDENTIAL AND PROPRIETARY INFORMATION
   8:.\main.c      ****  * WHICH IS THE PROPERTY OF your company.
   9:.\main.c      ****  *
  10:.\main.c      ****  * ========================================
  11:.\main.c      **** */
  12:.\main.c      **** #include <project.h>
  13:.\main.c      **** #include <stdio.h>
  14:.\main.c      **** #include "GUI.h"
  15:.\main.c      **** #include "arm_math.h"
  16:.\main.c      **** #include <arm_const_structs.h>
  17:.\main.c      **** #include "tft.h"
  18:.\main.c      **** #include "math.h"
  19:.\main.c      **** 
  20:.\main.c      **** char test_string[16]; // TODO: remove, for writing test values to for display
  21:.\main.c      **** /* ------------------------------------------------------------------
  22:.\main.c      **** * Global variables for LEDs
  23:.\main.c      **** * ------------------------------------------------------------------- */
  24:.\main.c      **** #define LED_NUM 144
  25:.\main.c      **** //Allocate an array for LED_NUM NeoPixels
  26:.\main.c      **** unsigned char pPixelArray[LED_NUM*3];
  27:.\main.c      **** //Set up some variables for animation code
  28:.\main.c      **** float power = 1;
  29:.\main.c      **** float Deltapower = 0.005;
  30:.\main.c      **** float offset = 0;
  31:.\main.c      **** 
ARM GAS  C:\Users\IVYLIU~1\AppData\Local\Temp\ccWSfWRg.s 			page 2


  32:.\main.c      **** void setPixel(int i, int r, int b, int g);
  33:.\main.c      **** 
  34:.\main.c      **** /* ------------------------------------------------------------------
  35:.\main.c      **** * Global variables for FFT Bins
  36:.\main.c      **** * ------------------------------------------------------------------- */
  37:.\main.c      **** uint32_t adcResult = 0;
  38:.\main.c      **** #define TEST_LENGTH_SAMPLES 2048
  39:.\main.c      **** uint32_t fftSize = 1024;            // number of bins
  40:.\main.c      **** uint32_t ifftFlag = 0;
  41:.\main.c      **** uint32_t doBitReverse = 1;
  42:.\main.c      **** arm_cfft_instance_f32 varInstCfftF32;
  43:.\main.c      **** uint32_t testIndex = 0;
  44:.\main.c      **** int middle_c_bin = 988;
  45:.\main.c      **** 
  46:.\main.c      **** float32_t testInput[TEST_LENGTH_SAMPLES];
  47:.\main.c      **** float32_t testOutput[TEST_LENGTH_SAMPLES/2];
  48:.\main.c      **** int detectNote(void);
  49:.\main.c      **** 
  50:.\main.c      **** /* ------------------------------------------------------------------
  51:.\main.c      **** * Global variables for TFT Display
  52:.\main.c      **** * ------------------------------------------------------------------- */
  53:.\main.c      **** #define TOP_MARGIN 20
  54:.\main.c      **** #define SCREEN_WIDTH 240
  55:.\main.c      **** #define RIGHT_MARGIN SCREEN_WIDTH - TOP_MARGIN
  56:.\main.c      **** #define BAR_SPACING 15
  57:.\main.c      **** #define NOTE_SPACING BAR_SPACING/2
  58:.\main.c      **** #define BETWEEN_CLEFS BAR_SPACING*3
  59:.\main.c      **** #define LINE_NUM 5
  60:.\main.c      **** #define LOWER_OFFSET BAR_SPACING*LINE_NUM + BETWEEN_CLEFS
  61:.\main.c      **** #define NOTE_WIDTH 12
  62:.\main.c      **** #define NOTE_HEIGHT 8
  63:.\main.c      **** enum States {
  64:.\main.c      ****     START,
  65:.\main.c      ****     MODE_SELECT,
  66:.\main.c      ****     SONG_SELECT,
  67:.\main.c      ****     SONG_DONE,
  68:.\main.c      ****     CALIBRATE_SETUP,
  69:.\main.c      ****     CALIBRATE,
  70:.\main.c      ****     RESET,
  71:.\main.c      ****     TESTING
  72:.\main.c      **** }; 
  73:.\main.c      **** 
  74:.\main.c      **** struct Notes
  75:.\main.c      **** {
  76:.\main.c      ****     const char *name;
  77:.\main.c      ****     int offset;             //fft offset from midde C/C4
  78:.\main.c      ****     int key_num;            //key number on piano, TODO: use less memory by changing from strings t
  79:.\main.c      **** };
  80:.\main.c      **** 
  81:.\main.c      **** void MainTask(void);
  82:.\main.c      **** void drawClefs(void);
  83:.\main.c      **** void drawNote(char* input_name);
  84:.\main.c      **** char* getNoteName(int input_offset);
  85:.\main.c      **** void drawStartScreen(void);
  86:.\main.c      **** void drawCalibrateScreen(void);
  87:.\main.c      **** int drawSongSelection(void);
  88:.\main.c      **** void drawPlaySong(int song_index);
ARM GAS  C:\Users\IVYLIU~1\AppData\Local\Temp\ccWSfWRg.s 			page 3


  89:.\main.c      **** 
  90:.\main.c      **** //https://stackoverflow.com/questions/47880223/how-to-programmatically-map-integers-to-const-string
  91:.\main.c      **** // offset = cur_freq - middle_c_freq
  92:.\main.c      **** struct Notes notes[] = {
  93:.\main.c      ****     { .offset = -179,  .name = "G5", .key_num = 59},
  94:.\main.c      ****     { .offset = -66,  .name = "F#5", .key_num = 58},
  95:.\main.c      ****     { .offset = -60,  .name = "F5", .key_num = 57},
  96:.\main.c      ****     { .offset = -54,  .name = "E5", .key_num = 56},
  97:.\main.c      ****     { .offset = -49,  .name = "D#5", .key_num = 55},
  98:.\main.c      ****     { .offset = -44,  .name = "D5", .key_num = 54},
  99:.\main.c      ****     { .offset = -40,  .name = "C#5", .key_num = 53},
 100:.\main.c      ****     { .offset = -36,  .name = "C5", .key_num = 52},
 101:.\main.c      ****     { .offset = -32,  .name = "B4", .key_num = 51},
 102:.\main.c      ****     { .offset = -28,  .name = "A#4", .key_num = 50},
 103:.\main.c      ****     { .offset = -24,  .name = "A4", .key_num = 49},
 104:.\main.c      ****     { .offset = -21,  .name = "G#4", .key_num = 48},
 105:.\main.c      ****     { .offset = -18,  .name = "G4", .key_num = 47},
 106:.\main.c      ****     { .offset = -15,  .name = "F#4", .key_num = 46},
 107:.\main.c      ****     { .offset = -12,  .name = "F4", .key_num = 45},
 108:.\main.c      ****     { .offset = -9,  .name = "E4", .key_num = 44},
 109:.\main.c      ****     { .offset = -7,  .name = "D#4", .key_num = 43},
 110:.\main.c      ****     { .offset = -4,  .name = "D4", .key_num = 42},
 111:.\main.c      ****     { .offset = -2,  .name = "C#4", .key_num = 41},
 112:.\main.c      ****     { .offset = 0,  .name = "C4", .key_num = 40},   // Middle C, 988 Hz
 113:.\main.c      ****     { .offset = 2,  .name = "B3", .key_num = 39},
 114:.\main.c      ****     { .offset = 0,  .name = "A#3", .key_num = 38},
 115:.\main.c      ****     { .offset = 0,  .name = "A3", .key_num = 37},
 116:.\main.c      ****     { .offset = 0,  .name = "G#3", .key_num = 36},
 117:.\main.c      ****     { .offset = 0,  .name = "G3", .key_num = 35},
 118:.\main.c      ****     { .offset = 0,  .name = "F#3", .key_num = 34},
 119:.\main.c      ****     { .offset = 0,  .name = "F3", .key_num = 33},
 120:.\main.c      ****     { .offset = 0,  .name = "E3", .key_num = 32},
 121:.\main.c      ****     { .offset = 0,  .name = "D#3", .key_num = 31},
 122:.\main.c      ****     { .offset = 0,  .name = "D3", .key_num = 30},
 123:.\main.c      ****     { .offset = 0,  .name = "C#3", .key_num = 29},
 124:.\main.c      ****     { .offset = 0,  .name = "C3", .key_num = 28},
 125:.\main.c      ****     { .offset = 0,  .name = "B2", .key_num = 27},
 126:.\main.c      ****     { .offset = 0,  .name = "A#2", .key_num = 26},
 127:.\main.c      ****     { .offset = 0,  .name = "A2", .key_num = 25},
 128:.\main.c      ****     { .offset = 0,  .name = "G#2", .key_num = 24},
 129:.\main.c      ****     { .offset = 0,  .name = "G2", .key_num = 23},
 130:.\main.c      ****     { .offset = 0,  .name = "F#2", .key_num = 22},
 131:.\main.c      ****     { .offset = 0,  .name = "F2", .key_num = 21},
 132:.\main.c      ****     { .offset = 0,  .name = "E2", .key_num = 20},
 133:.\main.c      ****     { .name = NULL }
 134:.\main.c      **** };
 135:.\main.c      **** 
 136:.\main.c      **** struct Songs
 137:.\main.c      **** {
 138:.\main.c      ****     const int song_number;
 139:.\main.c      ****     const char *name;
 140:.\main.c      ****     const char **note_seq;
 141:.\main.c      ****     const int song_length;
 142:.\main.c      **** };
 143:.\main.c      **** 
 144:.\main.c      **** const char *SONG0_SEQ[] = 
 145:.\main.c      ****     {"E5", "D#5", "E5", "D#5", "E5", "B4", "D5", "C5",
ARM GAS  C:\Users\IVYLIU~1\AppData\Local\Temp\ccWSfWRg.s 			page 4


 146:.\main.c      ****      "A4", "C4", "E4", "A4", "B4", "E4", "G#4", "B4",
 147:.\main.c      ****      "C5", "E4", "E5", "D#5", "E5", "D#5", "E5", "B4", "D5", "C5", "A4", "C4", "E4", "A4",
 148:.\main.c      ****      "B4", "E4", "C5", "B4", "A4", "B4", "C5", "D5",
 149:.\main.c      ****      "E5", "G4", "F5", "E5", "D5", "F4", "E5", "D5", "C5", "E4", "D5", "C5",
 150:.\main.c      ****      "B4", "E5", "D#5", "E5", "D#5", "E5", "B4", "D5", "C5", "A4", "C4", "E4", "A4",
 151:.\main.c      ****      "B4", "E4", "G#4", "B4", "C5", "E4", "E5", "D#5", "E5", "D#5", "E5", "B4", "D5", "C5",
 152:.\main.c      ****      "A4", "C4", "E4", "A4", "B4", "E4", "C5", "A4"
 153:.\main.c      ****     };
 154:.\main.c      **** const char *SONG1_SEQ[] = 
 155:.\main.c      ****     {"C4", "C4", "G4", "G4", "A4", "A4", "G4",
 156:.\main.c      ****      "F4", "F4", "E4", "E4", "D4", "D4", "C4",
 157:.\main.c      ****      "G4", "G4", "F4", "F4", "E4", "E4", "D4",
 158:.\main.c      ****      "G4", "G4", "F4", "F4", "E4", "E4", "D4",
 159:.\main.c      ****      "C4", "C4", "G4", "G4", "A4", "A4", "G4",
 160:.\main.c      ****      "F4", "F4", "E4", "E4", "D4", "D4", "C4"
 161:.\main.c      ****     };
 162:.\main.c      **** 
 163:.\main.c      **** const int SONGS_LENGTH = 2;
 164:.\main.c      **** struct Songs songs[] = {
 165:.\main.c      ****     { .song_number = 0, .name = "Fur Elise", .note_seq = SONG0_SEQ, .song_length = 85},
 166:.\main.c      ****     { .song_number = 1, .name = "Twinkle, Twinkle,\nLittle Star", .note_seq = SONG1_SEQ, .song_leng
 167:.\main.c      **** };
 168:.\main.c      **** 
 169:.\main.c      **** int main()
 170:.\main.c      **** {
 171:.\main.c      ****     /* -------------------------------------------------------------------
 172:.\main.c      ****     * External Input and Output buffer Declarations for FFT Bin Example
 173:.\main.c      ****     * ------------------------------------------------------------------- */
 174:.\main.c      ****     CyGlobalIntEnable;                      // Enable global interrupts
 175:.\main.c      ****     SPIM_1_Start();                         // initialize SPIM component 
 176:.\main.c      ****     GUI_Init();                             // initilize graphics library
 177:.\main.c      ****     ADC_DelSig_1_Start();				    // start the ADC_DelSig_1
 178:.\main.c      ****     ADC_DelSig_1_StartConvert();		    // start the ADC_DelSig_1 conversion
 179:.\main.c      ****     NP_Start(LED_NUM, pPixelArray, 12.8);   //Start the NeoPixel component (LED_NUM pix, User array
 180:.\main.c      **** 
 181:.\main.c      ****     int state = START;
 182:.\main.c      **** 
 183:.\main.c      ****     for(;;) {
 184:.\main.c      ****         switch (state) {
 185:.\main.c      ****             case START: // draw start screen
 186:.\main.c      ****                 drawStartScreen();
 187:.\main.c      ****                 state = MODE_SELECT; 
 188:.\main.c      ****                 break;
 189:.\main.c      ****             case MODE_SELECT: // wait for mode selection
 190:.\main.c      ****                 if (!SW2_Read()) {
 191:.\main.c      ****                     while(!SW2_Read());
 192:.\main.c      ****                     state = SONG_SELECT;
 193:.\main.c      ****                 } else if (!SW3_Read()) {
 194:.\main.c      ****                     while(!SW3_Read());
 195:.\main.c      ****                     state = CALIBRATE_SETUP;
 196:.\main.c      ****                 }
 197:.\main.c      ****                 break;
 198:.\main.c      ****             case SONG_SELECT: // draw song selection and song
 199:.\main.c      ****                 drawPlaySong(drawSongSelection());
 200:.\main.c      ****                 state = SONG_DONE;
 201:.\main.c      ****                 break;
 202:.\main.c      ****             case SONG_DONE:
ARM GAS  C:\Users\IVYLIU~1\AppData\Local\Temp\ccWSfWRg.s 			page 5


 203:.\main.c      ****                 if (!SW3_Read()) {
 204:.\main.c      ****                     while(!SW3_Read());
 205:.\main.c      ****                     state = START;
 206:.\main.c      ****                 }
 207:.\main.c      ****                 break;
 208:.\main.c      ****             case CALIBRATE_SETUP:
 209:.\main.c      ****                 drawCalibrateScreen();
 210:.\main.c      ****                 setPixel(80, 0, 100, 100);
 211:.\main.c      ****                 setPixel(81, 0, 100, 100);
 212:.\main.c      ****                 NP_Update();
 213:.\main.c      ****                 state = CALIBRATE;
 214:.\main.c      ****                 break;
 215:.\main.c      ****             case CALIBRATE: // calibrate
 216:.\main.c      ****                 // TODO: change to trigger on playing middle C
 217:.\main.c      ****                 middle_c_bin = detectNote();
 218:.\main.c      ****                 
 219:.\main.c      ****                 GUI_SetBkColor(GUI_WHITE);
 220:.\main.c      ****                 GUI_SetColor(GUI_BLACK);
 221:.\main.c      ****                 GUI_SetFont(&GUI_Font24B_ASCII);
 222:.\main.c      ****                 GUI_Clear();
 223:.\main.c      ****                 
 224:.\main.c      ****                 sprintf(test_string, "Middle C Bin\n%d", middle_c_bin);
 225:.\main.c      ****                 GUI_DispStringHCenterAt(test_string, 120, 160);
 226:.\main.c      ****                    
 227:.\main.c      ****                 setPixel(80, 0, 0, 0);
 228:.\main.c      ****                 setPixel(81, 0, 0, 0);
 229:.\main.c      ****                 NP_Update();
 230:.\main.c      ****                 state = START;
 231:.\main.c      ****                 break;
 232:.\main.c      ****             case TESTING:   // currently: testing FFT -> drawing note on tft
 233:.\main.c      ****                 GUI_SetBkColor(GUI_WHITE);
 234:.\main.c      ****                 GUI_SetColor(GUI_BLACK);
 235:.\main.c      ****                 GUI_Clear();
 236:.\main.c      ****                 drawClefs();
 237:.\main.c      ****                 drawNote(getNoteName(detectNote() - middle_c_bin));
 238:.\main.c      ****                 break;
 239:.\main.c      ****             default: // reset if unexpected state
 240:.\main.c      ****                 state = START;
 241:.\main.c      ****                 break;
 242:.\main.c      ****         }
 243:.\main.c      ****     }                             
 244:.\main.c      **** }
 245:.\main.c      **** 
 246:.\main.c      **** void MainTask()
 247:.\main.c      **** {
  27              		.loc 1 247 0
  28              		.cfi_startproc
  29              		@ args = 0, pretend = 0, frame = 0
  30              		@ frame_needed = 0, uses_anonymous_args = 0
  31              		@ link register save eliminated.
  32 0000 7047     		bx	lr
  33              		.cfi_endproc
  34              	.LFE124:
  35              		.size	MainTask, .-MainTask
  36 0002 00BF     		.section	.text.setPixel,"ax",%progbits
  37              		.align	2
  38              		.global	setPixel
ARM GAS  C:\Users\IVYLIU~1\AppData\Local\Temp\ccWSfWRg.s 			page 6


  39              		.thumb
  40              		.thumb_func
  41              		.type	setPixel, %function
  42              	setPixel:
  43              	.LFB125:
 248:.\main.c      ****     /// Function: Display Each Note (for testing purposes)
 249:.\main.c      ****     // GUI_SetBkColor(GUI_WHITE);
 250:.\main.c      ****     // GUI_SetColor(GUI_BLACK);
 251:.\main.c      ****     // GUI_Clear();
 252:.\main.c      ****     // char *note_names[] = 
 253:.\main.c      ****     //     {"G5", "F#5", "F5", "E5", "D#5", "D5", "C#5", "C5",
 254:.\main.c      ****     //      "B4", "A#4", "A4", "G#4", "G4", "F#4", "F4", "E4",
 255:.\main.c      ****     //      "D#4", "D4", "C#4", "C4", "B3", "A#3", "A3", "G#3",
 256:.\main.c      ****     //      "G3", "F#3", "F3", "E3", "D#3", "D3", "C#3", "C3", 
 257:.\main.c      ****     //      "B2", "A#2", "A2", "G#2", "G2", "F#2", "F2", "E2"};
 258:.\main.c      ****     
 259:.\main.c      ****     // int i = 0;
 260:.\main.c      ****     // for(;i < 40; i++) {
 261:.\main.c      ****     //     GUI_Clear();
 262:.\main.c      ****     //     drawClefs();
 263:.\main.c      ****     //     drawNote(note_names[i]);
 264:.\main.c      ****     //     CyDelay(1000);
 265:.\main.c      ****     // }
 266:.\main.c      ****     ///
 267:.\main.c      **** }
 268:.\main.c      **** 
 269:.\main.c      **** void setPixel(int i, int r, int g, int b) {
  44              		.loc 1 269 0
  45              		.cfi_startproc
  46              		@ args = 0, pretend = 0, frame = 0
  47              		@ frame_needed = 0, uses_anonymous_args = 0
  48              		@ link register save eliminated.
  49              	.LVL0:
  50              		.loc 1 269 0
  51 0000 10B4     		push	{r4}
  52              		.cfi_def_cfa_offset 4
  53              		.cfi_offset 4, -4
 270:.\main.c      ****     //Compute Green Component
 271:.\main.c      ****     pPixelArray[i*3] = g;
  54              		.loc 1 271 0
  55 0002 00EB4000 		add	r0, r0, r0, lsl #1
  56              	.LVL1:
  57 0006 044C     		ldr	r4, .L4
  58 0008 2254     		strb	r2, [r4, r0]
 272:.\main.c      ****     //Compute Red Component
 273:.\main.c      ****     pPixelArray[1+i*3] = r;
  59              		.loc 1 273 0
  60 000a 421C     		adds	r2, r0, #1
  61              	.LVL2:
  62 000c A154     		strb	r1, [r4, r2]
 274:.\main.c      ****     //Compute Blue Component
 275:.\main.c      ****     pPixelArray[2+i*3] = b;
  63              		.loc 1 275 0
  64 000e 0230     		adds	r0, r0, #2
  65 0010 2354     		strb	r3, [r4, r0]
 276:.\main.c      **** }
  66              		.loc 1 276 0
ARM GAS  C:\Users\IVYLIU~1\AppData\Local\Temp\ccWSfWRg.s 			page 7


  67 0012 5DF8044B 		ldr	r4, [sp], #4
  68              		.cfi_restore 4
  69              		.cfi_def_cfa_offset 0
  70 0016 7047     		bx	lr
  71              	.L5:
  72              		.align	2
  73              	.L4:
  74 0018 00000000 		.word	pPixelArray
  75              		.cfi_endproc
  76              	.LFE125:
  77              		.size	setPixel, .-setPixel
  78              		.global	__aeabi_ui2f
  79              		.section	.text.detectNote,"ax",%progbits
  80              		.align	2
  81              		.global	detectNote
  82              		.thumb
  83              		.thumb_func
  84              		.type	detectNote, %function
  85              	detectNote:
  86              	.LFB126:
 277:.\main.c      **** 
 278:.\main.c      **** int detectNote() {
  87              		.loc 1 278 0
  88              		.cfi_startproc
  89              		@ args = 0, pretend = 0, frame = 8
  90              		@ frame_needed = 0, uses_anonymous_args = 0
  91 0000 F0B5     		push	{r4, r5, r6, r7, lr}
  92              		.cfi_def_cfa_offset 20
  93              		.cfi_offset 4, -20
  94              		.cfi_offset 5, -16
  95              		.cfi_offset 6, -12
  96              		.cfi_offset 7, -8
  97              		.cfi_offset 14, -4
  98 0002 83B0     		sub	sp, sp, #12
  99              		.cfi_def_cfa_offset 32
 100              	.LVL3:
 279:.\main.c      ****     int fft_start = 0;
 280:.\main.c      ****     uint16_t i = 0;
 101              		.loc 1 280 0
 102 0004 0024     		movs	r4, #0
 279:.\main.c      ****     int fft_start = 0;
 103              		.loc 1 279 0
 104 0006 2546     		mov	r5, r4
 105              	.LVL4:
 106              	.L8:
 281:.\main.c      **** 
 282:.\main.c      ****     while (1==1) {
 283:.\main.c      ****         if(ADC_DelSig_1_IsEndConversion(ADC_DelSig_1_WAIT_FOR_RESULT) )
 107              		.loc 1 283 0
 108 0008 0020     		movs	r0, #0
 109 000a FFF7FEFF 		bl	ADC_DelSig_1_IsEndConversion
 110              	.LVL5:
 111 000e 0028     		cmp	r0, #0
 112 0010 FAD0     		beq	.L8
 284:.\main.c      ****         {
 285:.\main.c      ****             adcResult = ADC_DelSig_1_GetResult32();		// read the adc and assign the value adcResult
 113              		.loc 1 285 0
ARM GAS  C:\Users\IVYLIU~1\AppData\Local\Temp\ccWSfWRg.s 			page 8


 114 0012 FFF7FEFF 		bl	ADC_DelSig_1_GetResult32
 115              	.LVL6:
 116 0016 214B     		ldr	r3, .L12
 117 0018 1860     		str	r0, [r3]
 286:.\main.c      ****             
 287:.\main.c      ****             // if the adc is above a certain threshold, start sampling for fft
 288:.\main.c      ****             if (adcResult > 36000 || adcResult < 30000) {
 118              		.loc 1 288 0
 119 001a A0F5EA40 		sub	r0, r0, #29952
 120 001e 3038     		subs	r0, r0, #48
 121 0020 41F27073 		movw	r3, #6000
 122 0024 9842     		cmp	r0, r3
 123 0026 03D9     		bls	.L9
 289:.\main.c      ****                 adc_threshold_Write(1);
 124              		.loc 1 289 0
 125 0028 0120     		movs	r0, #1
 126 002a FFF7FEFF 		bl	adc_threshold_Write
 127              	.LVL7:
 290:.\main.c      ****                 fft_start = 1;
 128              		.loc 1 290 0
 129 002e 0125     		movs	r5, #1
 130              	.LVL8:
 131              	.L9:
 291:.\main.c      ****             }
 292:.\main.c      ****             
 293:.\main.c      ****             if (fft_start) {
 132              		.loc 1 293 0
 133 0030 002D     		cmp	r5, #0
 134 0032 E9D0     		beq	.L8
 294:.\main.c      ****                 testInput[i] = adcResult;
 135              		.loc 1 294 0
 136 0034 194B     		ldr	r3, .L12
 137 0036 1868     		ldr	r0, [r3]
 138 0038 FFF7FEFF 		bl	__aeabi_ui2f
 139              	.LVL9:
 140 003c 184B     		ldr	r3, .L12+4
 141 003e 43F82400 		str	r0, [r3, r4, lsl #2]	@ float
 295:.\main.c      ****                 i++;
 142              		.loc 1 295 0
 143 0042 0134     		adds	r4, r4, #1
 144              	.LVL10:
 145 0044 A4B2     		uxth	r4, r4
 146              	.LVL11:
 296:.\main.c      ****             
 297:.\main.c      ****                 if (i > 2047) {
 147              		.loc 1 297 0
 148 0046 B4F5006F 		cmp	r4, #2048
 149 004a DDD3     		bcc	.L8
 150              	.LBB2:
 298:.\main.c      ****                     float32_t maxValue;
 299:.\main.c      ****                     arm_cfft_init_f32(&varInstCfftF32,fftSize);
 151              		.loc 1 299 0
 152 004c 154E     		ldr	r6, .L12+8
 153 004e 164C     		ldr	r4, .L12+12
 154              	.LVL12:
 155 0050 3046     		mov	r0, r6
 156 0052 2188     		ldrh	r1, [r4]
ARM GAS  C:\Users\IVYLIU~1\AppData\Local\Temp\ccWSfWRg.s 			page 9


 157 0054 FFF7FEFF 		bl	arm_cfft_init_f32
 158              	.LVL13:
 300:.\main.c      ****                     /* Process the data through the CFFT/CIFFT module */
 301:.\main.c      ****                     arm_cfft_f32(&varInstCfftF32, testInput, ifftFlag, doBitReverse);
 159              		.loc 1 301 0
 160 0058 114F     		ldr	r7, .L12+4
 161 005a 104D     		ldr	r5, .L12
 162              	.LVL14:
 163 005c 3046     		mov	r0, r6
 164 005e 3946     		mov	r1, r7
 165 0060 2A79     		ldrb	r2, [r5, #4]	@ zero_extendqisi2
 166 0062 2379     		ldrb	r3, [r4, #4]	@ zero_extendqisi2
 167 0064 FFF7FEFF 		bl	arm_cfft_f32
 168              	.LVL15:
 302:.\main.c      ****                     /* Process the data through the Complex Magnitude Module for
 303:.\main.c      ****                     calculating the magnitude at each bin */
 304:.\main.c      ****                     arm_cmplx_mag_f32(testInput, testOutput, fftSize);
 169              		.loc 1 304 0
 170 0068 104E     		ldr	r6, .L12+16
 171 006a 3846     		mov	r0, r7
 172 006c 3146     		mov	r1, r6
 173 006e 2268     		ldr	r2, [r4]
 174 0070 FFF7FEFF 		bl	arm_cmplx_mag_f32
 175              	.LVL16:
 305:.\main.c      ****                     /* Calculates maxValue and returns corresponding BIN value */
 306:.\main.c      ****                     testOutput[0] = 0;
 176              		.loc 1 306 0
 177 0074 0023     		movs	r3, #0
 178 0076 3360     		str	r3, [r6]	@ float
 307:.\main.c      ****                     arm_max_f32(testOutput, fftSize, &maxValue, &testIndex);
 179              		.loc 1 307 0
 180 0078 3046     		mov	r0, r6
 181 007a 2168     		ldr	r1, [r4]
 182 007c 01AA     		add	r2, sp, #4
 183 007e 05F10803 		add	r3, r5, #8
 184 0082 FFF7FEFF 		bl	arm_max_f32
 185              	.LVL17:
 308:.\main.c      ****                     
 309:.\main.c      ****                     i = 0;
 310:.\main.c      ****                     adc_threshold_Write(0);
 186              		.loc 1 310 0
 187 0086 0020     		movs	r0, #0
 188 0088 FFF7FEFF 		bl	adc_threshold_Write
 189              	.LVL18:
 311:.\main.c      ****                     fft_start = 0;
 312:.\main.c      ****                     CyDelay(400);									// delay in milliseconds
 190              		.loc 1 312 0
 191 008c 4FF4C870 		mov	r0, #400
 192 0090 FFF7FEFF 		bl	CyDelay
 193              	.LVL19:
 194              	.LBE2:
 313:.\main.c      ****                     return testIndex;
 314:.\main.c      ****                 }
 315:.\main.c      ****             }
 316:.\main.c      ****         }
 317:.\main.c      ****     }
 318:.\main.c      **** }
ARM GAS  C:\Users\IVYLIU~1\AppData\Local\Temp\ccWSfWRg.s 			page 10


 195              		.loc 1 318 0
 196 0094 A868     		ldr	r0, [r5, #8]
 197 0096 03B0     		add	sp, sp, #12
 198              		.cfi_def_cfa_offset 20
 199              		@ sp needed
 200 0098 F0BD     		pop	{r4, r5, r6, r7, pc}
 201              	.L13:
 202 009a 00BF     		.align	2
 203              	.L12:
 204 009c 00000000 		.word	.LANCHOR0
 205 00a0 00000000 		.word	testInput
 206 00a4 00000000 		.word	varInstCfftF32
 207 00a8 00000000 		.word	.LANCHOR1
 208 00ac 00000000 		.word	testOutput
 209              		.cfi_endproc
 210              	.LFE126:
 211              		.size	detectNote, .-detectNote
 212              		.section	.text.getNoteName,"ax",%progbits
 213              		.align	2
 214              		.global	getNoteName
 215              		.thumb
 216              		.thumb_func
 217              		.type	getNoteName, %function
 218              	getNoteName:
 219              	.LFB127:
 319:.\main.c      **** 
 320:.\main.c      **** char* getNoteName(int input_offset)
 321:.\main.c      **** {
 220              		.loc 1 321 0
 221              		.cfi_startproc
 222              		@ args = 0, pretend = 0, frame = 0
 223              		@ frame_needed = 0, uses_anonymous_args = 0
 224              		@ link register save eliminated.
 225              	.LVL20:
 322:.\main.c      ****     struct Notes *cur_note = notes;
 226              		.loc 1 322 0
 227 0000 054B     		ldr	r3, .L19
 323:.\main.c      ****     const char *note = "Unrecognized note";
 324:.\main.c      **** 
 325:.\main.c      ****     while (cur_note->name) {
 228              		.loc 1 325 0
 229 0002 03E0     		b	.L15
 230              	.LVL21:
 231              	.L18:
 326:.\main.c      ****         if (cur_note->offset == input_offset) {
 232              		.loc 1 326 0
 233 0004 5968     		ldr	r1, [r3, #4]
 234 0006 8142     		cmp	r1, r0
 235 0008 04D0     		beq	.L17
 327:.\main.c      ****                 note = cur_note->name;
 328:.\main.c      ****                 break;
 329:.\main.c      ****         }
 330:.\main.c      ****         ++cur_note;
 236              		.loc 1 330 0
 237 000a 0C33     		adds	r3, r3, #12
 238              	.LVL22:
 239              	.L15:
ARM GAS  C:\Users\IVYLIU~1\AppData\Local\Temp\ccWSfWRg.s 			page 11


 325:.\main.c      ****         if (cur_note->offset == input_offset) {
 240              		.loc 1 325 0
 241 000c 1A68     		ldr	r2, [r3]
 242 000e 002A     		cmp	r2, #0
 243 0010 F8D1     		bne	.L18
 323:.\main.c      **** 
 244              		.loc 1 323 0
 245 0012 024A     		ldr	r2, .L19+4
 246              	.L17:
 247              	.LVL23:
 331:.\main.c      ****     }
 332:.\main.c      **** 
 333:.\main.c      ****     return note;
 334:.\main.c      **** }
 248              		.loc 1 334 0
 249 0014 1046     		mov	r0, r2
 250              	.LVL24:
 251 0016 7047     		bx	lr
 252              	.L20:
 253              		.align	2
 254              	.L19:
 255 0018 08000000 		.word	.LANCHOR1+8
 256 001c 00000000 		.word	.LC0
 257              		.cfi_endproc
 258              	.LFE127:
 259              		.size	getNoteName, .-getNoteName
 260              		.section	.text.drawSongSelection,"ax",%progbits
 261              		.align	2
 262              		.global	drawSongSelection
 263              		.thumb
 264              		.thumb_func
 265              		.type	drawSongSelection, %function
 266              	drawSongSelection:
 267              	.LFB129:
 335:.\main.c      **** 
 336:.\main.c      **** void drawPlaySong(int song_index) {
 337:.\main.c      ****     // Setup
 338:.\main.c      ****     GUI_SetBkColor(GUI_WHITE);
 339:.\main.c      ****     GUI_SetColor(GUI_BLACK);
 340:.\main.c      ****     GUI_SetTextMode(GUI_TM_TRANS);
 341:.\main.c      ****     GUI_SetTextAlign(GUI_TA_VCENTER); // Bug: GUI_TA_HCENTER fails to center text horizontally
 342:.\main.c      **** 
 343:.\main.c      ****     GUI_Clear();
 344:.\main.c      ****     drawClefs();
 345:.\main.c      ****     
 346:.\main.c      ****     int note_index = 0;
 347:.\main.c      ****     char score_buf[3];
 348:.\main.c      ****     struct Songs cur_song = songs[song_index];
 349:.\main.c      ****     
 350:.\main.c      ****     // Display first note
 351:.\main.c      ****     drawNote(cur_song.note_seq[note_index]);
 352:.\main.c      ****     GUI_SetFont(&GUI_Font24B_ASCII);
 353:.\main.c      **** 
 354:.\main.c      ****     sprintf(score_buf, "%d", note_index);   //put index into str buffer for displaying score
 355:.\main.c      ****     GUI_DispStringHCenterAt("Score", SCREEN_WIDTH/2 - 20, 280);
 356:.\main.c      ****     GUI_DispStringHCenterAt(score_buf, SCREEN_WIDTH/2 + 40, 280);
 357:.\main.c      ****     
ARM GAS  C:\Users\IVYLIU~1\AppData\Local\Temp\ccWSfWRg.s 			page 12


 358:.\main.c      ****     // Exits playing if SW3 is pressed
 359:.\main.c      ****     while (SW3_Read()) {
 360:.\main.c      ****         // Detect if note is played
 361:.\main.c      ****         // If correct note, move onto the next note
 362:.\main.c      ****         if (strcmp(getNoteName(detectNote() - middle_c_bin), cur_song.note_seq[note_index]) == 0) {
 363:.\main.c      ****             while(!SW2_Read());
 364:.\main.c      ****             // Erase current note and score drawing
 365:.\main.c      ****             GUI_SetColor(GUI_WHITE);
 366:.\main.c      ****             drawNote(cur_song.note_seq[note_index]);
 367:.\main.c      ****             
 368:.\main.c      ****             GUI_SetFont(&GUI_Font24B_ASCII);
 369:.\main.c      ****             GUI_DispStringHCenterAt("Score", SCREEN_WIDTH/2 - 20, 280);
 370:.\main.c      ****             GUI_DispStringHCenterAt(score_buf, SCREEN_WIDTH/2 + 40, 280);
 371:.\main.c      ****             
 372:.\main.c      ****             // Redraw clefs
 373:.\main.c      ****             GUI_SetColor(GUI_BLACK);
 374:.\main.c      ****             drawClefs();
 375:.\main.c      ****             
 376:.\main.c      ****             // Determine next note
 377:.\main.c      ****             note_index++;
 378:.\main.c      ****             sprintf(score_buf, "%d", note_index);   //put index into str buffer for displaying scor
 379:.\main.c      ****             
 380:.\main.c      ****             if (note_index >= cur_song.song_length) {
 381:.\main.c      ****                 // print final score then exit playing mode
 382:.\main.c      ****                 GUI_DispStringHCenterAt("Well Done!", SCREEN_WIDTH/2, 240);
 383:.\main.c      ****                 GUI_DispStringHCenterAt("Score", SCREEN_WIDTH/2 - 20, 280);
 384:.\main.c      ****                 GUI_DispStringHCenterAt(score_buf, SCREEN_WIDTH/2 + 40, 280);
 385:.\main.c      ****                 break;
 386:.\main.c      ****             } else {
 387:.\main.c      ****                 // show next note and display score
 388:.\main.c      ****                 GUI_DispStringHCenterAt("Score", SCREEN_WIDTH/2 - 20, 280);
 389:.\main.c      ****                 GUI_DispStringHCenterAt(score_buf, SCREEN_WIDTH/2 + 40, 280);
 390:.\main.c      ****                 drawNote(cur_song.note_seq[note_index]);
 391:.\main.c      ****             }
 392:.\main.c      ****         }
 393:.\main.c      ****     }
 394:.\main.c      **** }
 395:.\main.c      **** 
 396:.\main.c      **** int drawSongSelection(){
 268              		.loc 1 396 0
 269              		.cfi_startproc
 270              		@ args = 0, pretend = 0, frame = 0
 271              		@ frame_needed = 0, uses_anonymous_args = 0
 272 0000 38B5     		push	{r3, r4, r5, lr}
 273              		.cfi_def_cfa_offset 16
 274              		.cfi_offset 3, -16
 275              		.cfi_offset 4, -12
 276              		.cfi_offset 5, -8
 277              		.cfi_offset 14, -4
 397:.\main.c      ****     // Setup
 398:.\main.c      ****     GUI_SetBkColor(GUI_WHITE);
 278              		.loc 1 398 0
 279 0002 4FF0FF30 		mov	r0, #-1
 280 0006 FFF7FEFF 		bl	GUI_SetBkColor
 281              	.LVL25:
 399:.\main.c      ****     GUI_SetColor(GUI_BLACK);
 282              		.loc 1 399 0
ARM GAS  C:\Users\IVYLIU~1\AppData\Local\Temp\ccWSfWRg.s 			page 13


 283 000a 4FF07F40 		mov	r0, #-16777216
 284 000e FFF7FEFF 		bl	GUI_SetColor
 285              	.LVL26:
 400:.\main.c      ****     GUI_SetFont(&GUI_Font16B_ASCII);
 286              		.loc 1 400 0
 287 0012 354D     		ldr	r5, .L29
 288 0014 2846     		mov	r0, r5
 289 0016 FFF7FEFF 		bl	GUI_SetFont
 290              	.LVL27:
 401:.\main.c      ****     GUI_SetTextMode(GUI_TM_TRANS);
 291              		.loc 1 401 0
 292 001a 0220     		movs	r0, #2
 293 001c FFF7FEFF 		bl	GUI_SetTextMode
 294              	.LVL28:
 402:.\main.c      ****     GUI_SetTextAlign(GUI_TA_VCENTER); // Bug: GUI_TA_HCENTER fails to center text horizontally
 295              		.loc 1 402 0
 296 0020 0C20     		movs	r0, #12
 297 0022 FFF7FEFF 		bl	GUI_SetTextAlign
 298              	.LVL29:
 403:.\main.c      ****     
 404:.\main.c      ****     GUI_Clear();
 299              		.loc 1 404 0
 300 0026 FFF7FEFF 		bl	GUI_Clear
 301              	.LVL30:
 405:.\main.c      **** 
 406:.\main.c      ****     // Display page title + first song name
 407:.\main.c      ****     int song_index = 0;
 408:.\main.c      ****     GUI_SetFont(&GUI_Font32B_ASCII);
 302              		.loc 1 408 0
 303 002a 304C     		ldr	r4, .L29+4
 304 002c 2046     		mov	r0, r4
 305 002e FFF7FEFF 		bl	GUI_SetFont
 306              	.LVL31:
 409:.\main.c      ****     GUI_DispStringHCenterAt("Song Selection", SCREEN_WIDTH/2, 20);
 307              		.loc 1 409 0
 308 0032 2F48     		ldr	r0, .L29+8
 309 0034 7821     		movs	r1, #120
 310 0036 1422     		movs	r2, #20
 311 0038 FFF7FEFF 		bl	GUI_DispStringHCenterAt
 312              	.LVL32:
 410:.\main.c      ****     
 411:.\main.c      ****     GUI_SetFont(&GUI_Font16B_ASCII);
 313              		.loc 1 411 0
 314 003c 2846     		mov	r0, r5
 315 003e FFF7FEFF 		bl	GUI_SetFont
 316              	.LVL33:
 412:.\main.c      ****     GUI_DispStringHCenterAt("Press SW2 for next option.", SCREEN_WIDTH/2,60);
 317              		.loc 1 412 0
 318 0042 2C48     		ldr	r0, .L29+12
 319 0044 7821     		movs	r1, #120
 320 0046 3C22     		movs	r2, #60
 321 0048 FFF7FEFF 		bl	GUI_DispStringHCenterAt
 322              	.LVL34:
 413:.\main.c      ****     GUI_DispStringHCenterAt("Press SW3 to confirm selection.", SCREEN_WIDTH/2,80);
 323              		.loc 1 413 0
 324 004c 2A48     		ldr	r0, .L29+16
 325 004e 7821     		movs	r1, #120
ARM GAS  C:\Users\IVYLIU~1\AppData\Local\Temp\ccWSfWRg.s 			page 14


 326 0050 5022     		movs	r2, #80
 327 0052 FFF7FEFF 		bl	GUI_DispStringHCenterAt
 328              	.LVL35:
 414:.\main.c      ****     
 415:.\main.c      ****     GUI_SetFont(&GUI_Font32B_ASCII);
 329              		.loc 1 415 0
 330 0056 2046     		mov	r0, r4
 331 0058 FFF7FEFF 		bl	GUI_SetFont
 332              	.LVL36:
 416:.\main.c      ****     GUI_DispStringHCenterAt(songs[song_index].name, SCREEN_WIDTH/2, 320/2);
 333              		.loc 1 416 0
 334 005c 274B     		ldr	r3, .L29+20
 335 005e D3F8F801 		ldr	r0, [r3, #504]
 336 0062 7821     		movs	r1, #120
 337 0064 A022     		movs	r2, #160
 338 0066 FFF7FEFF 		bl	GUI_DispStringHCenterAt
 339              	.LVL37:
 407:.\main.c      ****     GUI_SetFont(&GUI_Font32B_ASCII);
 340              		.loc 1 407 0
 341 006a 0025     		movs	r5, #0
 417:.\main.c      ****     
 418:.\main.c      ****     // Wait for song to be selected
 419:.\main.c      ****     while (SW3_Read()) {
 342              		.loc 1 419 0
 343 006c 23E0     		b	.L23
 344              	.LVL38:
 345              	.L25:
 420:.\main.c      ****         // Cycle to next song when SW3 pressed
 421:.\main.c      ****         if (!SW2_Read()) {
 346              		.loc 1 421 0
 347 006e FFF7FEFF 		bl	SW2_Read
 348              	.LVL39:
 349 0072 00BB     		cbnz	r0, .L23
 422:.\main.c      ****             song_index++;
 350              		.loc 1 422 0
 351 0074 6C1C     		adds	r4, r5, #1
 352              	.LVL40:
 423:.\main.c      ****             song_index %= SONGS_LENGTH;
 353              		.loc 1 423 0
 354 0076 224B     		ldr	r3, .L29+24
 355 0078 1C40     		ands	r4, r4, r3
 356              	.LVL41:
 357 007a 03D5     		bpl	.L24
 358 007c 013C     		subs	r4, r4, #1
 359 007e 64F00104 		orn	r4, r4, #1
 360 0082 0134     		adds	r4, r4, #1
 361              	.L24:
 362 0084 2546     		mov	r5, r4
 363              	.LVL42:
 424:.\main.c      ****             GUI_SetColor(GUI_GetBkColor());
 364              		.loc 1 424 0
 365 0086 FFF7FEFF 		bl	GUI_GetBkColor
 366              	.LVL43:
 367 008a FFF7FEFF 		bl	GUI_SetColor
 368              	.LVL44:
 425:.\main.c      ****             GUI_FillRect(0, 100, 240, 300);
 369              		.loc 1 425 0
ARM GAS  C:\Users\IVYLIU~1\AppData\Local\Temp\ccWSfWRg.s 			page 15


 370 008e 0020     		movs	r0, #0
 371 0090 6421     		movs	r1, #100
 372 0092 F022     		movs	r2, #240
 373 0094 4FF49673 		mov	r3, #300
 374 0098 FFF7FEFF 		bl	GUI_FillRect
 375              	.LVL45:
 426:.\main.c      ****             GUI_SetColor(GUI_BLACK);
 376              		.loc 1 426 0
 377 009c 4FF07F40 		mov	r0, #-16777216
 378 00a0 FFF7FEFF 		bl	GUI_SetColor
 379              	.LVL46:
 427:.\main.c      ****             GUI_DispStringHCenterAt(songs[song_index].name, SCREEN_WIDTH/2, 160);
 380              		.loc 1 427 0
 381 00a4 154B     		ldr	r3, .L29+20
 382 00a6 03EB0414 		add	r4, r3, r4, lsl #4
 383              	.LVL47:
 384 00aa D4F8F801 		ldr	r0, [r4, #504]
 385 00ae 7821     		movs	r1, #120
 386 00b0 A022     		movs	r2, #160
 387 00b2 FFF7FEFF 		bl	GUI_DispStringHCenterAt
 388              	.LVL48:
 389              	.L23:
 419:.\main.c      ****         // Cycle to next song when SW3 pressed
 390              		.loc 1 419 0
 391 00b6 FFF7FEFF 		bl	SW3_Read
 392              	.LVL49:
 393 00ba 0028     		cmp	r0, #0
 394 00bc D7D1     		bne	.L25
 395 00be 01E0     		b	.L26
 396              	.L27:
 428:.\main.c      ****         }   
 429:.\main.c      ****     }
 430:.\main.c      ****     
 431:.\main.c      ****     while (!SW3_Read())
 432:.\main.c      **** 
 433:.\main.c      ****     //Song Selection Confirmation
 434:.\main.c      ****     GUI_Clear();
 397              		.loc 1 434 0
 398 00c0 FFF7FEFF 		bl	GUI_Clear
 399              	.LVL50:
 400              	.L26:
 431:.\main.c      **** 
 401              		.loc 1 431 0
 402 00c4 FFF7FEFF 		bl	SW3_Read
 403              	.LVL51:
 404 00c8 0028     		cmp	r0, #0
 405 00ca F9D0     		beq	.L27
 435:.\main.c      ****     GUI_SetFont(&GUI_Font32B_ASCII);
 406              		.loc 1 435 0
 407 00cc 0748     		ldr	r0, .L29+4
 408 00ce FFF7FEFF 		bl	GUI_SetFont
 409              	.LVL52:
 436:.\main.c      ****     GUI_DispStringHCenterAt("Song Selected!", SCREEN_WIDTH/2, 320/2);
 410              		.loc 1 436 0
 411 00d2 0C48     		ldr	r0, .L29+28
 412 00d4 7821     		movs	r1, #120
 413 00d6 A022     		movs	r2, #160
ARM GAS  C:\Users\IVYLIU~1\AppData\Local\Temp\ccWSfWRg.s 			page 16


 414 00d8 FFF7FEFF 		bl	GUI_DispStringHCenterAt
 415              	.LVL53:
 437:.\main.c      ****     CyDelay(500);
 416              		.loc 1 437 0
 417 00dc 4FF4FA70 		mov	r0, #500
 418 00e0 FFF7FEFF 		bl	CyDelay
 419              	.LVL54:
 438:.\main.c      ****     return song_index;
 439:.\main.c      **** }
 420              		.loc 1 439 0
 421 00e4 2846     		mov	r0, r5
 422 00e6 38BD     		pop	{r3, r4, r5, pc}
 423              	.LVL55:
 424              	.L30:
 425              		.align	2
 426              	.L29:
 427 00e8 00000000 		.word	GUI_Font16B_ASCII
 428 00ec 00000000 		.word	GUI_Font32B_ASCII
 429 00f0 14000000 		.word	.LC1
 430 00f4 24000000 		.word	.LC2
 431 00f8 40000000 		.word	.LC3
 432 00fc 00000000 		.word	.LANCHOR1
 433 0100 01000080 		.word	-2147483647
 434 0104 60000000 		.word	.LC4
 435              		.cfi_endproc
 436              	.LFE129:
 437              		.size	drawSongSelection, .-drawSongSelection
 438              		.section	.text.drawCalibrateScreen,"ax",%progbits
 439              		.align	2
 440              		.global	drawCalibrateScreen
 441              		.thumb
 442              		.thumb_func
 443              		.type	drawCalibrateScreen, %function
 444              	drawCalibrateScreen:
 445              	.LFB130:
 440:.\main.c      **** 
 441:.\main.c      **** void drawCalibrateScreen(){
 446              		.loc 1 441 0
 447              		.cfi_startproc
 448              		@ args = 0, pretend = 0, frame = 0
 449              		@ frame_needed = 0, uses_anonymous_args = 0
 450 0000 08B5     		push	{r3, lr}
 451              		.cfi_def_cfa_offset 8
 452              		.cfi_offset 3, -8
 453              		.cfi_offset 14, -4
 442:.\main.c      ****     // Setup
 443:.\main.c      ****     GUI_SetBkColor(GUI_WHITE);
 454              		.loc 1 443 0
 455 0002 4FF0FF30 		mov	r0, #-1
 456 0006 FFF7FEFF 		bl	GUI_SetBkColor
 457              	.LVL56:
 444:.\main.c      ****     GUI_SetColor(GUI_BLACK);
 458              		.loc 1 444 0
 459 000a 4FF07F40 		mov	r0, #-16777216
 460 000e FFF7FEFF 		bl	GUI_SetColor
 461              	.LVL57:
 445:.\main.c      ****     GUI_SetFont(&GUI_Font20B_ASCII);
ARM GAS  C:\Users\IVYLIU~1\AppData\Local\Temp\ccWSfWRg.s 			page 17


 462              		.loc 1 445 0
 463 0012 0848     		ldr	r0, .L33
 464 0014 FFF7FEFF 		bl	GUI_SetFont
 465              	.LVL58:
 446:.\main.c      ****     GUI_SetTextMode(GUI_TM_TRANS);
 466              		.loc 1 446 0
 467 0018 0220     		movs	r0, #2
 468 001a FFF7FEFF 		bl	GUI_SetTextMode
 469              	.LVL59:
 447:.\main.c      ****     GUI_SetTextAlign(GUI_TA_VCENTER); // Bug: GUI_TA_HCENTER fails to center text horizontally
 470              		.loc 1 447 0
 471 001e 0C20     		movs	r0, #12
 472 0020 FFF7FEFF 		bl	GUI_SetTextAlign
 473              	.LVL60:
 448:.\main.c      ****     
 449:.\main.c      ****     GUI_Clear();
 474              		.loc 1 449 0
 475 0024 FFF7FEFF 		bl	GUI_Clear
 476              	.LVL61:
 450:.\main.c      **** 
 451:.\main.c      ****     // TODO: change to play Middle C note to trigger back to start
 452:.\main.c      ****     GUI_DispStringHCenterAt("Line up lit LEDs over\nthe middle C key.\nPress SW3 when done.", SCREE
 477              		.loc 1 452 0
 478 0028 0348     		ldr	r0, .L33+4
 479 002a 7821     		movs	r1, #120
 480 002c 0A46     		mov	r2, r1
 481 002e FFF7FEFF 		bl	GUI_DispStringHCenterAt
 482              	.LVL62:
 483 0032 08BD     		pop	{r3, pc}
 484              	.L34:
 485              		.align	2
 486              	.L33:
 487 0034 00000000 		.word	GUI_Font20B_ASCII
 488 0038 70000000 		.word	.LC5
 489              		.cfi_endproc
 490              	.LFE130:
 491              		.size	drawCalibrateScreen, .-drawCalibrateScreen
 492              		.section	.text.drawStartScreen,"ax",%progbits
 493              		.align	2
 494              		.global	drawStartScreen
 495              		.thumb
 496              		.thumb_func
 497              		.type	drawStartScreen, %function
 498              	drawStartScreen:
 499              	.LFB131:
 453:.\main.c      **** }
 454:.\main.c      **** 
 455:.\main.c      **** void drawStartScreen(){
 500              		.loc 1 455 0
 501              		.cfi_startproc
 502              		@ args = 0, pretend = 0, frame = 0
 503              		@ frame_needed = 0, uses_anonymous_args = 0
 504 0000 10B5     		push	{r4, lr}
 505              		.cfi_def_cfa_offset 8
 506              		.cfi_offset 4, -8
 507              		.cfi_offset 14, -4
 508 0002 82B0     		sub	sp, sp, #8
ARM GAS  C:\Users\IVYLIU~1\AppData\Local\Temp\ccWSfWRg.s 			page 18


 509              		.cfi_def_cfa_offset 16
 456:.\main.c      ****     // Setup
 457:.\main.c      ****     GUI_SetBkColor(GUI_WHITE);
 510              		.loc 1 457 0
 511 0004 4FF0FF30 		mov	r0, #-1
 512 0008 FFF7FEFF 		bl	GUI_SetBkColor
 513              	.LVL63:
 458:.\main.c      ****     GUI_SetColor(GUI_BLACK);
 514              		.loc 1 458 0
 515 000c 4FF07F40 		mov	r0, #-16777216
 516 0010 FFF7FEFF 		bl	GUI_SetColor
 517              	.LVL64:
 459:.\main.c      ****     GUI_SetFont(&GUI_Font32B_ASCII);
 518              		.loc 1 459 0
 519 0014 1D48     		ldr	r0, .L37
 520 0016 FFF7FEFF 		bl	GUI_SetFont
 521              	.LVL65:
 460:.\main.c      ****     GUI_SetTextMode(GUI_TM_TRANS);
 522              		.loc 1 460 0
 523 001a 0220     		movs	r0, #2
 524 001c FFF7FEFF 		bl	GUI_SetTextMode
 525              	.LVL66:
 461:.\main.c      ****     GUI_SetTextAlign(GUI_TA_VCENTER); // Bug: GUI_TA_HCENTER fails to center text horizontally
 526              		.loc 1 461 0
 527 0020 0C20     		movs	r0, #12
 528 0022 FFF7FEFF 		bl	GUI_SetTextAlign
 529              	.LVL67:
 462:.\main.c      ****     
 463:.\main.c      ****     GUI_Clear();
 530              		.loc 1 463 0
 531 0026 FFF7FEFF 		bl	GUI_Clear
 532              	.LVL68:
 464:.\main.c      **** 
 465:.\main.c      ****     GUI_DispStringHCenterAt("Welcome to\nPiano Tiles!", SCREEN_WIDTH/2, 40);
 533              		.loc 1 465 0
 534 002a 1948     		ldr	r0, .L37+4
 535 002c 7821     		movs	r1, #120
 536 002e 2822     		movs	r2, #40
 537 0030 FFF7FEFF 		bl	GUI_DispStringHCenterAt
 538              	.LVL69:
 466:.\main.c      **** 
 467:.\main.c      ****     // Button 1: Play
 468:.\main.c      ****     GUI_SetColor(GUI_GREEN);
 539              		.loc 1 468 0
 540 0034 4FF0FF20 		mov	r0, #-16711936
 541 0038 FFF7FEFF 		bl	GUI_SetColor
 542              	.LVL70:
 469:.\main.c      ****     GUI_FillRoundedRect(40, 120, 200, 200, 10);
 543              		.loc 1 469 0
 544 003c 0A24     		movs	r4, #10
 545 003e 0094     		str	r4, [sp]
 546 0040 2820     		movs	r0, #40
 547 0042 7821     		movs	r1, #120
 548 0044 C822     		movs	r2, #200
 549 0046 1346     		mov	r3, r2
 550 0048 FFF7FEFF 		bl	GUI_FillRoundedRect
 551              	.LVL71:
ARM GAS  C:\Users\IVYLIU~1\AppData\Local\Temp\ccWSfWRg.s 			page 19


 470:.\main.c      ****     GUI_SetColor(GUI_WHITE);
 552              		.loc 1 470 0
 553 004c 4FF0FF30 		mov	r0, #-1
 554 0050 FFF7FEFF 		bl	GUI_SetColor
 555              	.LVL72:
 471:.\main.c      ****     GUI_DispStringHCenterAt("Play", SCREEN_WIDTH/2, 160);
 556              		.loc 1 471 0
 557 0054 0F48     		ldr	r0, .L37+8
 558 0056 7821     		movs	r1, #120
 559 0058 A022     		movs	r2, #160
 560 005a FFF7FEFF 		bl	GUI_DispStringHCenterAt
 561              	.LVL73:
 472:.\main.c      **** 
 473:.\main.c      ****     // Button 2: Calibrate
 474:.\main.c      ****     GUI_SetColor(GUI_BLUE);
 562              		.loc 1 474 0
 563 005e 0E48     		ldr	r0, .L37+12
 564 0060 FFF7FEFF 		bl	GUI_SetColor
 565              	.LVL74:
 475:.\main.c      ****     GUI_FillRoundedRect(40, 220, 200, 300, 10);
 566              		.loc 1 475 0
 567 0064 0094     		str	r4, [sp]
 568 0066 2820     		movs	r0, #40
 569 0068 DC21     		movs	r1, #220
 570 006a C822     		movs	r2, #200
 571 006c 4FF49673 		mov	r3, #300
 572 0070 FFF7FEFF 		bl	GUI_FillRoundedRect
 573              	.LVL75:
 476:.\main.c      ****     GUI_SetColor(GUI_WHITE);
 574              		.loc 1 476 0
 575 0074 4FF0FF30 		mov	r0, #-1
 576 0078 FFF7FEFF 		bl	GUI_SetColor
 577              	.LVL76:
 477:.\main.c      ****     GUI_DispStringHCenterAt("Calibrate", SCREEN_WIDTH/2, 260);
 578              		.loc 1 477 0
 579 007c 0748     		ldr	r0, .L37+16
 580 007e 7821     		movs	r1, #120
 581 0080 4FF48272 		mov	r2, #260
 582 0084 FFF7FEFF 		bl	GUI_DispStringHCenterAt
 583              	.LVL77:
 478:.\main.c      **** }
 584              		.loc 1 478 0
 585 0088 02B0     		add	sp, sp, #8
 586              		.cfi_def_cfa_offset 8
 587              		@ sp needed
 588 008a 10BD     		pop	{r4, pc}
 589              	.L38:
 590              		.align	2
 591              	.L37:
 592 008c 00000000 		.word	GUI_Font32B_ASCII
 593 0090 B0000000 		.word	.LC6
 594 0094 C8000000 		.word	.LC7
 595 0098 FF0000FF 		.word	-16776961
 596 009c D0000000 		.word	.LC8
 597              		.cfi_endproc
 598              	.LFE131:
 599              		.size	drawStartScreen, .-drawStartScreen
ARM GAS  C:\Users\IVYLIU~1\AppData\Local\Temp\ccWSfWRg.s 			page 20


 600              		.section	.text.drawNote,"ax",%progbits
 601              		.align	2
 602              		.global	drawNote
 603              		.thumb
 604              		.thumb_func
 605              		.type	drawNote, %function
 606              	drawNote:
 607              	.LFB132:
 479:.\main.c      **** 
 480:.\main.c      **** void drawNote(char* input_name){
 608              		.loc 1 480 0
 609              		.cfi_startproc
 610              		@ args = 0, pretend = 0, frame = 0
 611              		@ frame_needed = 0, uses_anonymous_args = 0
 612              	.LVL78:
 613 0000 10B5     		push	{r4, lr}
 614              		.cfi_def_cfa_offset 8
 615              		.cfi_offset 4, -8
 616              		.cfi_offset 14, -4
 617 0002 0446     		mov	r4, r0
 481:.\main.c      ****     // Center text and set size
 482:.\main.c      ****     GUI_SetFont(&GUI_Font32B_ASCII);
 618              		.loc 1 482 0
 619 0004 B948     		ldr	r0, .L82
 620              	.LVL79:
 621 0006 FFF7FEFF 		bl	GUI_SetFont
 622              	.LVL80:
 483:.\main.c      ****     GUI_SetTextMode(GUI_TM_TRANS);
 623              		.loc 1 483 0
 624 000a 0220     		movs	r0, #2
 625 000c FFF7FEFF 		bl	GUI_SetTextMode
 626              	.LVL81:
 484:.\main.c      ****     GUI_SetTextAlign(GUI_TA_HCENTER | GUI_TA_VCENTER);
 627              		.loc 1 484 0
 628 0010 0E20     		movs	r0, #14
 629 0012 FFF7FEFF 		bl	GUI_SetTextAlign
 630              	.LVL82:
 485:.\main.c      ****     
 486:.\main.c      ****     int text_x = SCREEN_WIDTH/2;
 487:.\main.c      ****     int text_y = 240;
 488:.\main.c      ****     
 489:.\main.c      ****     if (strcmp(input_name, "G5") == 0) {
 631              		.loc 1 489 0
 632 0016 2046     		mov	r0, r4
 633 0018 B549     		ldr	r1, .L82+4
 634 001a FFF7FEFF 		bl	strcmp
 635              	.LVL83:
 636 001e 58B9     		cbnz	r0, .L40
 490:.\main.c      ****         GUI_FillEllipse(SCREEN_WIDTH/2, TOP_MARGIN - NOTE_SPACING, NOTE_WIDTH, NOTE_HEIGHT);
 637              		.loc 1 490 0
 638 0020 7820     		movs	r0, #120
 639 0022 0D21     		movs	r1, #13
 640 0024 0C22     		movs	r2, #12
 641 0026 0823     		movs	r3, #8
 642 0028 FFF7FEFF 		bl	GUI_FillEllipse
 643              	.LVL84:
 491:.\main.c      ****         GUI_DispStringAt("G5", text_x, text_y);
ARM GAS  C:\Users\IVYLIU~1\AppData\Local\Temp\ccWSfWRg.s 			page 21


 644              		.loc 1 491 0
 645 002c B048     		ldr	r0, .L82+4
 646 002e 7821     		movs	r1, #120
 647 0030 F022     		movs	r2, #240
 648 0032 FFF7FEFF 		bl	GUI_DispStringAt
 649              	.LVL85:
 650 0036 10BD     		pop	{r4, pc}
 651              	.LVL86:
 652              	.L40:
 492:.\main.c      ****     } else if (strcmp(input_name, "F#5") == 0) {
 653              		.loc 1 492 0
 654 0038 2046     		mov	r0, r4
 655 003a AE49     		ldr	r1, .L82+8
 656 003c FFF7FEFF 		bl	strcmp
 657              	.LVL87:
 658 0040 98B9     		cbnz	r0, .L42
 493:.\main.c      ****         GUI_FillEllipse(SCREEN_WIDTH/2, TOP_MARGIN, NOTE_WIDTH, NOTE_HEIGHT);
 659              		.loc 1 493 0
 660 0042 7820     		movs	r0, #120
 661 0044 1421     		movs	r1, #20
 662 0046 0C22     		movs	r2, #12
 663 0048 0823     		movs	r3, #8
 664 004a FFF7FEFF 		bl	GUI_FillEllipse
 665              	.LVL88:
 494:.\main.c      ****         GUI_DispStringAt("F#5", text_x, text_y);
 666              		.loc 1 494 0
 667 004e A948     		ldr	r0, .L82+8
 668 0050 7821     		movs	r1, #120
 669 0052 F022     		movs	r2, #240
 670 0054 FFF7FEFF 		bl	GUI_DispStringAt
 671              	.LVL89:
 495:.\main.c      **** 
 496:.\main.c      ****         GUI_SetFont(&GUI_Font24B_ASCII);
 672              		.loc 1 496 0
 673 0058 A748     		ldr	r0, .L82+12
 674 005a FFF7FEFF 		bl	GUI_SetFont
 675              	.LVL90:
 497:.\main.c      ****         GUI_DispStringAt("#", SCREEN_WIDTH/2 + 2*NOTE_WIDTH, TOP_MARGIN);
 676              		.loc 1 497 0
 677 005e A748     		ldr	r0, .L82+16
 678 0060 9021     		movs	r1, #144
 679 0062 1422     		movs	r2, #20
 680 0064 FFF7FEFF 		bl	GUI_DispStringAt
 681              	.LVL91:
 682 0068 10BD     		pop	{r4, pc}
 683              	.LVL92:
 684              	.L42:
 498:.\main.c      ****     } else if (strcmp(input_name, "F5") == 0) {
 685              		.loc 1 498 0
 686 006a 2046     		mov	r0, r4
 687 006c A449     		ldr	r1, .L82+20
 688 006e FFF7FEFF 		bl	strcmp
 689              	.LVL93:
 690 0072 58B9     		cbnz	r0, .L43
 499:.\main.c      ****         GUI_FillEllipse(SCREEN_WIDTH/2, TOP_MARGIN, NOTE_WIDTH, NOTE_HEIGHT);
 691              		.loc 1 499 0
 692 0074 7820     		movs	r0, #120
ARM GAS  C:\Users\IVYLIU~1\AppData\Local\Temp\ccWSfWRg.s 			page 22


 693 0076 1421     		movs	r1, #20
 694 0078 0C22     		movs	r2, #12
 695 007a 0823     		movs	r3, #8
 696 007c FFF7FEFF 		bl	GUI_FillEllipse
 697              	.LVL94:
 500:.\main.c      ****         GUI_DispStringAt("F5", text_x, text_y);
 698              		.loc 1 500 0
 699 0080 9F48     		ldr	r0, .L82+20
 700 0082 7821     		movs	r1, #120
 701 0084 F022     		movs	r2, #240
 702 0086 FFF7FEFF 		bl	GUI_DispStringAt
 703              	.LVL95:
 704 008a 10BD     		pop	{r4, pc}
 705              	.LVL96:
 706              	.L43:
 501:.\main.c      ****     } else if (strcmp(input_name, "E5") == 0) {
 707              		.loc 1 501 0
 708 008c 2046     		mov	r0, r4
 709 008e 9D49     		ldr	r1, .L82+24
 710 0090 FFF7FEFF 		bl	strcmp
 711              	.LVL97:
 712 0094 58B9     		cbnz	r0, .L44
 502:.\main.c      ****         GUI_FillEllipse(SCREEN_WIDTH/2, TOP_MARGIN + NOTE_SPACING, NOTE_WIDTH, NOTE_HEIGHT);
 713              		.loc 1 502 0
 714 0096 7820     		movs	r0, #120
 715 0098 1B21     		movs	r1, #27
 716 009a 0C22     		movs	r2, #12
 717 009c 0823     		movs	r3, #8
 718 009e FFF7FEFF 		bl	GUI_FillEllipse
 719              	.LVL98:
 503:.\main.c      ****         GUI_DispStringAt("E5", text_x, text_y);
 720              		.loc 1 503 0
 721 00a2 9848     		ldr	r0, .L82+24
 722 00a4 7821     		movs	r1, #120
 723 00a6 F022     		movs	r2, #240
 724 00a8 FFF7FEFF 		bl	GUI_DispStringAt
 725              	.LVL99:
 726 00ac 10BD     		pop	{r4, pc}
 727              	.LVL100:
 728              	.L44:
 504:.\main.c      ****     } else if (strcmp(input_name, "D#5") == 0) {
 729              		.loc 1 504 0
 730 00ae 2046     		mov	r0, r4
 731 00b0 9549     		ldr	r1, .L82+28
 732 00b2 FFF7FEFF 		bl	strcmp
 733              	.LVL101:
 734 00b6 98B9     		cbnz	r0, .L45
 505:.\main.c      ****         GUI_FillEllipse(SCREEN_WIDTH/2, TOP_MARGIN + 2*NOTE_SPACING, NOTE_WIDTH, NOTE_HEIGHT);
 735              		.loc 1 505 0
 736 00b8 7820     		movs	r0, #120
 737 00ba 2321     		movs	r1, #35
 738 00bc 0C22     		movs	r2, #12
 739 00be 0823     		movs	r3, #8
 740 00c0 FFF7FEFF 		bl	GUI_FillEllipse
 741              	.LVL102:
 506:.\main.c      ****         GUI_DispStringAt("D#5", text_x, text_y);
 742              		.loc 1 506 0
ARM GAS  C:\Users\IVYLIU~1\AppData\Local\Temp\ccWSfWRg.s 			page 23


 743 00c4 9048     		ldr	r0, .L82+28
 744 00c6 7821     		movs	r1, #120
 745 00c8 F022     		movs	r2, #240
 746 00ca FFF7FEFF 		bl	GUI_DispStringAt
 747              	.LVL103:
 507:.\main.c      **** 
 508:.\main.c      ****         GUI_SetFont(&GUI_Font24B_ASCII);
 748              		.loc 1 508 0
 749 00ce 8A48     		ldr	r0, .L82+12
 750 00d0 FFF7FEFF 		bl	GUI_SetFont
 751              	.LVL104:
 509:.\main.c      ****         GUI_DispStringAt("#", SCREEN_WIDTH/2 + 2*NOTE_WIDTH, TOP_MARGIN + 2*NOTE_SPACING);
 752              		.loc 1 509 0
 753 00d4 8948     		ldr	r0, .L82+16
 754 00d6 9021     		movs	r1, #144
 755 00d8 2322     		movs	r2, #35
 756 00da FFF7FEFF 		bl	GUI_DispStringAt
 757              	.LVL105:
 758 00de 10BD     		pop	{r4, pc}
 759              	.LVL106:
 760              	.L45:
 510:.\main.c      ****     } else if (strcmp(input_name, "D5") == 0) {
 761              		.loc 1 510 0
 762 00e0 2046     		mov	r0, r4
 763 00e2 8A49     		ldr	r1, .L82+32
 764 00e4 FFF7FEFF 		bl	strcmp
 765              	.LVL107:
 766 00e8 58B9     		cbnz	r0, .L46
 511:.\main.c      ****         GUI_FillEllipse(SCREEN_WIDTH/2, TOP_MARGIN + 2*NOTE_SPACING, NOTE_WIDTH, NOTE_HEIGHT);
 767              		.loc 1 511 0
 768 00ea 7820     		movs	r0, #120
 769 00ec 2321     		movs	r1, #35
 770 00ee 0C22     		movs	r2, #12
 771 00f0 0823     		movs	r3, #8
 772 00f2 FFF7FEFF 		bl	GUI_FillEllipse
 773              	.LVL108:
 512:.\main.c      ****         GUI_DispStringAt("D5", text_x, text_y);
 774              		.loc 1 512 0
 775 00f6 8548     		ldr	r0, .L82+32
 776 00f8 7821     		movs	r1, #120
 777 00fa F022     		movs	r2, #240
 778 00fc FFF7FEFF 		bl	GUI_DispStringAt
 779              	.LVL109:
 780 0100 10BD     		pop	{r4, pc}
 781              	.LVL110:
 782              	.L46:
 513:.\main.c      ****     } else if (strcmp(input_name, "C#5") == 0) {
 783              		.loc 1 513 0
 784 0102 2046     		mov	r0, r4
 785 0104 8249     		ldr	r1, .L82+36
 786 0106 FFF7FEFF 		bl	strcmp
 787              	.LVL111:
 788 010a 98B9     		cbnz	r0, .L47
 514:.\main.c      ****         GUI_FillEllipse(SCREEN_WIDTH/2, TOP_MARGIN + 3*NOTE_SPACING, NOTE_WIDTH, NOTE_HEIGHT);
 789              		.loc 1 514 0
 790 010c 7820     		movs	r0, #120
 791 010e 2A21     		movs	r1, #42
ARM GAS  C:\Users\IVYLIU~1\AppData\Local\Temp\ccWSfWRg.s 			page 24


 792 0110 0C22     		movs	r2, #12
 793 0112 0823     		movs	r3, #8
 794 0114 FFF7FEFF 		bl	GUI_FillEllipse
 795              	.LVL112:
 515:.\main.c      ****         GUI_DispStringAt("C#5", text_x, text_y);
 796              		.loc 1 515 0
 797 0118 7D48     		ldr	r0, .L82+36
 798 011a 7821     		movs	r1, #120
 799 011c F022     		movs	r2, #240
 800 011e FFF7FEFF 		bl	GUI_DispStringAt
 801              	.LVL113:
 516:.\main.c      **** 
 517:.\main.c      ****         GUI_SetFont(&GUI_Font24B_ASCII);
 802              		.loc 1 517 0
 803 0122 7548     		ldr	r0, .L82+12
 804 0124 FFF7FEFF 		bl	GUI_SetFont
 805              	.LVL114:
 518:.\main.c      ****         GUI_DispStringAt("#", SCREEN_WIDTH/2 + 2*NOTE_WIDTH, TOP_MARGIN + 3*NOTE_SPACING);
 806              		.loc 1 518 0
 807 0128 7448     		ldr	r0, .L82+16
 808 012a 9021     		movs	r1, #144
 809 012c 2A22     		movs	r2, #42
 810 012e FFF7FEFF 		bl	GUI_DispStringAt
 811              	.LVL115:
 812 0132 10BD     		pop	{r4, pc}
 813              	.LVL116:
 814              	.L47:
 519:.\main.c      ****     } else if (strcmp(input_name, "C5") == 0) {
 815              		.loc 1 519 0
 816 0134 2046     		mov	r0, r4
 817 0136 7749     		ldr	r1, .L82+40
 818 0138 FFF7FEFF 		bl	strcmp
 819              	.LVL117:
 820 013c 58B9     		cbnz	r0, .L48
 520:.\main.c      ****         GUI_FillEllipse(SCREEN_WIDTH/2, TOP_MARGIN + 3*NOTE_SPACING, NOTE_WIDTH, NOTE_HEIGHT);
 821              		.loc 1 520 0
 822 013e 7820     		movs	r0, #120
 823 0140 2A21     		movs	r1, #42
 824 0142 0C22     		movs	r2, #12
 825 0144 0823     		movs	r3, #8
 826 0146 FFF7FEFF 		bl	GUI_FillEllipse
 827              	.LVL118:
 521:.\main.c      ****         GUI_DispStringAt("C5", text_x, text_y);
 828              		.loc 1 521 0
 829 014a 7248     		ldr	r0, .L82+40
 830 014c 7821     		movs	r1, #120
 831 014e F022     		movs	r2, #240
 832 0150 FFF7FEFF 		bl	GUI_DispStringAt
 833              	.LVL119:
 834 0154 10BD     		pop	{r4, pc}
 835              	.LVL120:
 836              	.L48:
 522:.\main.c      ****     } else if (strcmp(input_name, "B4") == 0) {
 837              		.loc 1 522 0
 838 0156 2046     		mov	r0, r4
 839 0158 6F49     		ldr	r1, .L82+44
 840 015a FFF7FEFF 		bl	strcmp
ARM GAS  C:\Users\IVYLIU~1\AppData\Local\Temp\ccWSfWRg.s 			page 25


 841              	.LVL121:
 842 015e 58B9     		cbnz	r0, .L49
 523:.\main.c      ****         GUI_FillEllipse(SCREEN_WIDTH/2, TOP_MARGIN + 4*NOTE_SPACING, NOTE_WIDTH, NOTE_HEIGHT);
 843              		.loc 1 523 0
 844 0160 7820     		movs	r0, #120
 845 0162 3221     		movs	r1, #50
 846 0164 0C22     		movs	r2, #12
 847 0166 0823     		movs	r3, #8
 848 0168 FFF7FEFF 		bl	GUI_FillEllipse
 849              	.LVL122:
 524:.\main.c      ****         GUI_DispStringAt("B4", text_x, text_y);
 850              		.loc 1 524 0
 851 016c 6A48     		ldr	r0, .L82+44
 852 016e 7821     		movs	r1, #120
 853 0170 F022     		movs	r2, #240
 854 0172 FFF7FEFF 		bl	GUI_DispStringAt
 855              	.LVL123:
 856 0176 10BD     		pop	{r4, pc}
 857              	.LVL124:
 858              	.L49:
 525:.\main.c      ****     } else if (strcmp(input_name, "A#4") == 0) {
 859              		.loc 1 525 0
 860 0178 2046     		mov	r0, r4
 861 017a 6849     		ldr	r1, .L82+48
 862 017c FFF7FEFF 		bl	strcmp
 863              	.LVL125:
 864 0180 98B9     		cbnz	r0, .L50
 526:.\main.c      ****         GUI_FillEllipse(SCREEN_WIDTH/2, TOP_MARGIN + 5*NOTE_SPACING, NOTE_WIDTH, NOTE_HEIGHT);
 865              		.loc 1 526 0
 866 0182 7820     		movs	r0, #120
 867 0184 3921     		movs	r1, #57
 868 0186 0C22     		movs	r2, #12
 869 0188 0823     		movs	r3, #8
 870 018a FFF7FEFF 		bl	GUI_FillEllipse
 871              	.LVL126:
 527:.\main.c      ****         GUI_DispStringAt("A#4", text_x, text_y);
 872              		.loc 1 527 0
 873 018e 6348     		ldr	r0, .L82+48
 874 0190 7821     		movs	r1, #120
 875 0192 F022     		movs	r2, #240
 876 0194 FFF7FEFF 		bl	GUI_DispStringAt
 877              	.LVL127:
 528:.\main.c      **** 
 529:.\main.c      ****         GUI_SetFont(&GUI_Font24B_ASCII);
 878              		.loc 1 529 0
 879 0198 5748     		ldr	r0, .L82+12
 880 019a FFF7FEFF 		bl	GUI_SetFont
 881              	.LVL128:
 530:.\main.c      ****         GUI_DispStringAt("#", SCREEN_WIDTH/2 + 2*NOTE_WIDTH, TOP_MARGIN + 5*NOTE_SPACING);
 882              		.loc 1 530 0
 883 019e 5748     		ldr	r0, .L82+16
 884 01a0 9021     		movs	r1, #144
 885 01a2 3922     		movs	r2, #57
 886 01a4 FFF7FEFF 		bl	GUI_DispStringAt
 887              	.LVL129:
 888 01a8 10BD     		pop	{r4, pc}
 889              	.LVL130:
ARM GAS  C:\Users\IVYLIU~1\AppData\Local\Temp\ccWSfWRg.s 			page 26


 890              	.L50:
 531:.\main.c      ****     } else if (strcmp(input_name, "A4") == 0) {
 891              		.loc 1 531 0
 892 01aa 2046     		mov	r0, r4
 893 01ac 5C49     		ldr	r1, .L82+52
 894 01ae FFF7FEFF 		bl	strcmp
 895              	.LVL131:
 896 01b2 58B9     		cbnz	r0, .L51
 532:.\main.c      ****         GUI_FillEllipse(SCREEN_WIDTH/2, TOP_MARGIN + 5*NOTE_SPACING, NOTE_WIDTH, NOTE_HEIGHT);
 897              		.loc 1 532 0
 898 01b4 7820     		movs	r0, #120
 899 01b6 3921     		movs	r1, #57
 900 01b8 0C22     		movs	r2, #12
 901 01ba 0823     		movs	r3, #8
 902 01bc FFF7FEFF 		bl	GUI_FillEllipse
 903              	.LVL132:
 533:.\main.c      ****         GUI_DispStringAt("A4", text_x, text_y);
 904              		.loc 1 533 0
 905 01c0 5748     		ldr	r0, .L82+52
 906 01c2 7821     		movs	r1, #120
 907 01c4 F022     		movs	r2, #240
 908 01c6 FFF7FEFF 		bl	GUI_DispStringAt
 909              	.LVL133:
 910 01ca 10BD     		pop	{r4, pc}
 911              	.LVL134:
 912              	.L51:
 534:.\main.c      ****     } else if (strcmp(input_name, "G#4") == 0) {
 913              		.loc 1 534 0
 914 01cc 2046     		mov	r0, r4
 915 01ce 5549     		ldr	r1, .L82+56
 916 01d0 FFF7FEFF 		bl	strcmp
 917              	.LVL135:
 918 01d4 98B9     		cbnz	r0, .L52
 535:.\main.c      ****         GUI_FillEllipse(SCREEN_WIDTH/2, TOP_MARGIN + 6*NOTE_SPACING, NOTE_WIDTH, NOTE_HEIGHT);
 919              		.loc 1 535 0
 920 01d6 7820     		movs	r0, #120
 921 01d8 4121     		movs	r1, #65
 922 01da 0C22     		movs	r2, #12
 923 01dc 0823     		movs	r3, #8
 924 01de FFF7FEFF 		bl	GUI_FillEllipse
 925              	.LVL136:
 536:.\main.c      ****         GUI_DispStringAt("G#4", text_x, text_y);
 926              		.loc 1 536 0
 927 01e2 5048     		ldr	r0, .L82+56
 928 01e4 7821     		movs	r1, #120
 929 01e6 F022     		movs	r2, #240
 930 01e8 FFF7FEFF 		bl	GUI_DispStringAt
 931              	.LVL137:
 537:.\main.c      **** 
 538:.\main.c      ****         GUI_SetFont(&GUI_Font24B_ASCII);
 932              		.loc 1 538 0
 933 01ec 4248     		ldr	r0, .L82+12
 934 01ee FFF7FEFF 		bl	GUI_SetFont
 935              	.LVL138:
 539:.\main.c      ****         GUI_DispStringAt("#", SCREEN_WIDTH/2 + 2*NOTE_WIDTH, TOP_MARGIN + 6*NOTE_SPACING);
 936              		.loc 1 539 0
 937 01f2 4248     		ldr	r0, .L82+16
ARM GAS  C:\Users\IVYLIU~1\AppData\Local\Temp\ccWSfWRg.s 			page 27


 938 01f4 9021     		movs	r1, #144
 939 01f6 4122     		movs	r2, #65
 940 01f8 FFF7FEFF 		bl	GUI_DispStringAt
 941              	.LVL139:
 942 01fc 10BD     		pop	{r4, pc}
 943              	.LVL140:
 944              	.L52:
 540:.\main.c      ****     } else if (strcmp(input_name, "G4") == 0) {
 945              		.loc 1 540 0
 946 01fe 2046     		mov	r0, r4
 947 0200 4949     		ldr	r1, .L82+60
 948 0202 FFF7FEFF 		bl	strcmp
 949              	.LVL141:
 950 0206 58B9     		cbnz	r0, .L53
 541:.\main.c      ****         GUI_FillEllipse(SCREEN_WIDTH/2, TOP_MARGIN + 6*NOTE_SPACING, NOTE_WIDTH, NOTE_HEIGHT);
 951              		.loc 1 541 0
 952 0208 7820     		movs	r0, #120
 953 020a 4121     		movs	r1, #65
 954 020c 0C22     		movs	r2, #12
 955 020e 0823     		movs	r3, #8
 956 0210 FFF7FEFF 		bl	GUI_FillEllipse
 957              	.LVL142:
 542:.\main.c      ****         GUI_DispStringAt("G4", text_x, text_y);
 958              		.loc 1 542 0
 959 0214 4448     		ldr	r0, .L82+60
 960 0216 7821     		movs	r1, #120
 961 0218 F022     		movs	r2, #240
 962 021a FFF7FEFF 		bl	GUI_DispStringAt
 963              	.LVL143:
 964 021e 10BD     		pop	{r4, pc}
 965              	.LVL144:
 966              	.L53:
 543:.\main.c      ****     } else if (strcmp(input_name, "F#4") == 0) {
 967              		.loc 1 543 0
 968 0220 2046     		mov	r0, r4
 969 0222 4249     		ldr	r1, .L82+64
 970 0224 FFF7FEFF 		bl	strcmp
 971              	.LVL145:
 972 0228 98B9     		cbnz	r0, .L54
 544:.\main.c      ****         GUI_FillEllipse(SCREEN_WIDTH/2, TOP_MARGIN + 7*NOTE_SPACING, NOTE_WIDTH, NOTE_HEIGHT);
 973              		.loc 1 544 0
 974 022a 7820     		movs	r0, #120
 975 022c 4821     		movs	r1, #72
 976 022e 0C22     		movs	r2, #12
 977 0230 0823     		movs	r3, #8
 978 0232 FFF7FEFF 		bl	GUI_FillEllipse
 979              	.LVL146:
 545:.\main.c      ****         GUI_DispStringAt("F#4", text_x, text_y);
 980              		.loc 1 545 0
 981 0236 3D48     		ldr	r0, .L82+64
 982 0238 7821     		movs	r1, #120
 983 023a F022     		movs	r2, #240
 984 023c FFF7FEFF 		bl	GUI_DispStringAt
 985              	.LVL147:
 546:.\main.c      **** 
 547:.\main.c      ****         GUI_SetFont(&GUI_Font24B_ASCII);
 986              		.loc 1 547 0
ARM GAS  C:\Users\IVYLIU~1\AppData\Local\Temp\ccWSfWRg.s 			page 28


 987 0240 2D48     		ldr	r0, .L82+12
 988 0242 FFF7FEFF 		bl	GUI_SetFont
 989              	.LVL148:
 548:.\main.c      ****         GUI_DispStringAt("#", SCREEN_WIDTH/2 + 2*NOTE_WIDTH, TOP_MARGIN + 7*NOTE_SPACING);
 990              		.loc 1 548 0
 991 0246 2D48     		ldr	r0, .L82+16
 992 0248 9021     		movs	r1, #144
 993 024a 4822     		movs	r2, #72
 994 024c FFF7FEFF 		bl	GUI_DispStringAt
 995              	.LVL149:
 996 0250 10BD     		pop	{r4, pc}
 997              	.LVL150:
 998              	.L54:
 549:.\main.c      ****     } else if (strcmp(input_name, "F4") == 0) {
 999              		.loc 1 549 0
 1000 0252 2046     		mov	r0, r4
 1001 0254 3649     		ldr	r1, .L82+68
 1002 0256 FFF7FEFF 		bl	strcmp
 1003              	.LVL151:
 1004 025a 58B9     		cbnz	r0, .L55
 550:.\main.c      ****         GUI_FillEllipse(SCREEN_WIDTH/2, TOP_MARGIN + 7*NOTE_SPACING, NOTE_WIDTH, NOTE_HEIGHT);
 1005              		.loc 1 550 0
 1006 025c 7820     		movs	r0, #120
 1007 025e 4821     		movs	r1, #72
 1008 0260 0C22     		movs	r2, #12
 1009 0262 0823     		movs	r3, #8
 1010 0264 FFF7FEFF 		bl	GUI_FillEllipse
 1011              	.LVL152:
 551:.\main.c      ****         GUI_DispStringAt("F4", text_x, text_y);
 1012              		.loc 1 551 0
 1013 0268 3148     		ldr	r0, .L82+68
 1014 026a 7821     		movs	r1, #120
 1015 026c F022     		movs	r2, #240
 1016 026e FFF7FEFF 		bl	GUI_DispStringAt
 1017              	.LVL153:
 1018 0272 10BD     		pop	{r4, pc}
 1019              	.LVL154:
 1020              	.L55:
 552:.\main.c      ****     } else if (strcmp(input_name, "E4") == 0) {
 1021              		.loc 1 552 0
 1022 0274 2046     		mov	r0, r4
 1023 0276 2F49     		ldr	r1, .L82+72
 1024 0278 FFF7FEFF 		bl	strcmp
 1025              	.LVL155:
 1026 027c 58B9     		cbnz	r0, .L56
 553:.\main.c      ****         GUI_FillEllipse(SCREEN_WIDTH/2, TOP_MARGIN + 8*NOTE_SPACING, NOTE_WIDTH, NOTE_HEIGHT);
 1027              		.loc 1 553 0
 1028 027e 7820     		movs	r0, #120
 1029 0280 5021     		movs	r1, #80
 1030 0282 0C22     		movs	r2, #12
 1031 0284 0823     		movs	r3, #8
 1032 0286 FFF7FEFF 		bl	GUI_FillEllipse
 1033              	.LVL156:
 554:.\main.c      ****         GUI_DispStringAt("E4", text_x, text_y);
 1034              		.loc 1 554 0
 1035 028a 2A48     		ldr	r0, .L82+72
 1036 028c 7821     		movs	r1, #120
ARM GAS  C:\Users\IVYLIU~1\AppData\Local\Temp\ccWSfWRg.s 			page 29


 1037 028e F022     		movs	r2, #240
 1038 0290 FFF7FEFF 		bl	GUI_DispStringAt
 1039              	.LVL157:
 1040 0294 10BD     		pop	{r4, pc}
 1041              	.LVL158:
 1042              	.L56:
 555:.\main.c      ****     } else if (strcmp(input_name, "D#4") == 0) {
 1043              		.loc 1 555 0
 1044 0296 2046     		mov	r0, r4
 1045 0298 2749     		ldr	r1, .L82+76
 1046 029a FFF7FEFF 		bl	strcmp
 1047              	.LVL159:
 1048 029e 98B9     		cbnz	r0, .L57
 556:.\main.c      ****         GUI_FillEllipse(SCREEN_WIDTH/2, TOP_MARGIN + 9*NOTE_SPACING, NOTE_WIDTH, NOTE_HEIGHT);
 1049              		.loc 1 556 0
 1050 02a0 7820     		movs	r0, #120
 1051 02a2 5721     		movs	r1, #87
 1052 02a4 0C22     		movs	r2, #12
 1053 02a6 0823     		movs	r3, #8
 1054 02a8 FFF7FEFF 		bl	GUI_FillEllipse
 1055              	.LVL160:
 557:.\main.c      ****         GUI_DispStringAt("D#4", text_x, text_y);
 1056              		.loc 1 557 0
 1057 02ac 2248     		ldr	r0, .L82+76
 1058 02ae 7821     		movs	r1, #120
 1059 02b0 F022     		movs	r2, #240
 1060 02b2 FFF7FEFF 		bl	GUI_DispStringAt
 1061              	.LVL161:
 558:.\main.c      **** 
 559:.\main.c      ****         GUI_SetFont(&GUI_Font24B_ASCII);
 1062              		.loc 1 559 0
 1063 02b6 1048     		ldr	r0, .L82+12
 1064 02b8 FFF7FEFF 		bl	GUI_SetFont
 1065              	.LVL162:
 560:.\main.c      ****         GUI_DispStringAt("#", SCREEN_WIDTH/2 + 2*NOTE_WIDTH, TOP_MARGIN + 9*NOTE_SPACING);
 1066              		.loc 1 560 0
 1067 02bc 0F48     		ldr	r0, .L82+16
 1068 02be 9021     		movs	r1, #144
 1069 02c0 5722     		movs	r2, #87
 1070 02c2 FFF7FEFF 		bl	GUI_DispStringAt
 1071              	.LVL163:
 1072 02c6 10BD     		pop	{r4, pc}
 1073              	.LVL164:
 1074              	.L57:
 561:.\main.c      ****     } else if (strcmp(input_name, "D4") == 0) {
 1075              		.loc 1 561 0
 1076 02c8 2046     		mov	r0, r4
 1077 02ca 1C49     		ldr	r1, .L82+80
 1078 02cc FFF7FEFF 		bl	strcmp
 1079              	.LVL165:
 1080 02d0 B0BB     		cbnz	r0, .L58
 562:.\main.c      ****         GUI_FillEllipse(SCREEN_WIDTH/2, TOP_MARGIN + 9*NOTE_SPACING, NOTE_WIDTH, NOTE_HEIGHT);
 1081              		.loc 1 562 0
 1082 02d2 7820     		movs	r0, #120
 1083 02d4 5721     		movs	r1, #87
 1084 02d6 0C22     		movs	r2, #12
 1085 02d8 0823     		movs	r3, #8
ARM GAS  C:\Users\IVYLIU~1\AppData\Local\Temp\ccWSfWRg.s 			page 30


 1086 02da FFF7FEFF 		bl	GUI_FillEllipse
 1087              	.LVL166:
 563:.\main.c      ****         GUI_DispStringAt("D4", text_x, text_y);
 1088              		.loc 1 563 0
 1089 02de 1748     		ldr	r0, .L82+80
 1090 02e0 7821     		movs	r1, #120
 1091 02e2 F022     		movs	r2, #240
 1092 02e4 FFF7FEFF 		bl	GUI_DispStringAt
 1093              	.LVL167:
 1094 02e8 10BD     		pop	{r4, pc}
 1095              	.LVL168:
 1096              	.L83:
 1097 02ea 00BF     		.align	2
 1098              	.L82:
 1099 02ec 00000000 		.word	GUI_Font32B_ASCII
 1100 02f0 DC000000 		.word	.LC9
 1101 02f4 E0000000 		.word	.LC10
 1102 02f8 00000000 		.word	GUI_Font24B_ASCII
 1103 02fc E4000000 		.word	.LC11
 1104 0300 E8000000 		.word	.LC12
 1105 0304 EC000000 		.word	.LC13
 1106 0308 F0000000 		.word	.LC14
 1107 030c F4000000 		.word	.LC15
 1108 0310 F8000000 		.word	.LC16
 1109 0314 FC000000 		.word	.LC17
 1110 0318 00010000 		.word	.LC18
 1111 031c 04010000 		.word	.LC19
 1112 0320 08010000 		.word	.LC20
 1113 0324 0C010000 		.word	.LC21
 1114 0328 10010000 		.word	.LC22
 1115 032c 14010000 		.word	.LC23
 1116 0330 18010000 		.word	.LC24
 1117 0334 1C010000 		.word	.LC25
 1118 0338 20010000 		.word	.LC26
 1119 033c 24010000 		.word	.LC27
 1120              	.LVL169:
 1121              	.L58:
 564:.\main.c      ****     } else if (strcmp(input_name, "C#4") == 0) {
 1122              		.loc 1 564 0
 1123 0340 2046     		mov	r0, r4
 1124 0342 BD49     		ldr	r1, .L84
 1125 0344 FFF7FEFF 		bl	strcmp
 1126              	.LVL170:
 1127 0348 98B9     		cbnz	r0, .L59
 565:.\main.c      ****         GUI_FillEllipse(SCREEN_WIDTH/2, TOP_MARGIN + 10*NOTE_SPACING, NOTE_WIDTH, NOTE_HEIGHT);
 1128              		.loc 1 565 0
 1129 034a 7820     		movs	r0, #120
 1130 034c 5F21     		movs	r1, #95
 1131 034e 0C22     		movs	r2, #12
 1132 0350 0823     		movs	r3, #8
 1133 0352 FFF7FEFF 		bl	GUI_FillEllipse
 1134              	.LVL171:
 566:.\main.c      ****         GUI_DispStringAt("C#4", text_x, text_y);
 1135              		.loc 1 566 0
 1136 0356 B848     		ldr	r0, .L84
 1137 0358 7821     		movs	r1, #120
 1138 035a F022     		movs	r2, #240
ARM GAS  C:\Users\IVYLIU~1\AppData\Local\Temp\ccWSfWRg.s 			page 31


 1139 035c FFF7FEFF 		bl	GUI_DispStringAt
 1140              	.LVL172:
 567:.\main.c      **** 
 568:.\main.c      ****         GUI_SetFont(&GUI_Font24B_ASCII);
 1141              		.loc 1 568 0
 1142 0360 B648     		ldr	r0, .L84+4
 1143 0362 FFF7FEFF 		bl	GUI_SetFont
 1144              	.LVL173:
 569:.\main.c      ****         GUI_DispStringAt("#", SCREEN_WIDTH/2 + 2*NOTE_WIDTH, TOP_MARGIN + 10*NOTE_SPACING);
 1145              		.loc 1 569 0
 1146 0366 B648     		ldr	r0, .L84+8
 1147 0368 9021     		movs	r1, #144
 1148 036a 5F22     		movs	r2, #95
 1149 036c FFF7FEFF 		bl	GUI_DispStringAt
 1150              	.LVL174:
 1151 0370 10BD     		pop	{r4, pc}
 1152              	.LVL175:
 1153              	.L59:
 570:.\main.c      ****     } else if (strcmp(input_name, "C4") == 0) { //Middle C
 1154              		.loc 1 570 0
 1155 0372 2046     		mov	r0, r4
 1156 0374 B349     		ldr	r1, .L84+12
 1157 0376 FFF7FEFF 		bl	strcmp
 1158              	.LVL176:
 1159 037a 58B9     		cbnz	r0, .L60
 571:.\main.c      ****         GUI_FillEllipse(SCREEN_WIDTH/2, TOP_MARGIN + 10*NOTE_HEIGHT, NOTE_WIDTH, NOTE_HEIGHT);
 1160              		.loc 1 571 0
 1161 037c 7820     		movs	r0, #120
 1162 037e 6421     		movs	r1, #100
 1163 0380 0C22     		movs	r2, #12
 1164 0382 0823     		movs	r3, #8
 1165 0384 FFF7FEFF 		bl	GUI_FillEllipse
 1166              	.LVL177:
 572:.\main.c      ****         GUI_DispStringAt("C4", text_x, text_y);
 1167              		.loc 1 572 0
 1168 0388 AE48     		ldr	r0, .L84+12
 1169 038a 7821     		movs	r1, #120
 1170 038c F022     		movs	r2, #240
 1171 038e FFF7FEFF 		bl	GUI_DispStringAt
 1172              	.LVL178:
 1173 0392 10BD     		pop	{r4, pc}
 1174              	.LVL179:
 1175              	.L60:
 573:.\main.c      ****     } else if (strcmp(input_name, "B3") == 0) {
 1176              		.loc 1 573 0
 1177 0394 2046     		mov	r0, r4
 1178 0396 AC49     		ldr	r1, .L84+16
 1179 0398 FFF7FEFF 		bl	strcmp
 1180              	.LVL180:
 1181 039c 58B9     		cbnz	r0, .L61
 574:.\main.c      ****         GUI_FillEllipse(SCREEN_WIDTH/2, LOWER_OFFSET - NOTE_SPACING, NOTE_WIDTH, NOTE_HEIGHT);
 1182              		.loc 1 574 0
 1183 039e 7820     		movs	r0, #120
 1184 03a0 7121     		movs	r1, #113
 1185 03a2 0C22     		movs	r2, #12
 1186 03a4 0823     		movs	r3, #8
 1187 03a6 FFF7FEFF 		bl	GUI_FillEllipse
ARM GAS  C:\Users\IVYLIU~1\AppData\Local\Temp\ccWSfWRg.s 			page 32


 1188              	.LVL181:
 575:.\main.c      ****         GUI_DispStringAt("B3", text_x, text_y);
 1189              		.loc 1 575 0
 1190 03aa A748     		ldr	r0, .L84+16
 1191 03ac 7821     		movs	r1, #120
 1192 03ae F022     		movs	r2, #240
 1193 03b0 FFF7FEFF 		bl	GUI_DispStringAt
 1194              	.LVL182:
 1195 03b4 10BD     		pop	{r4, pc}
 1196              	.LVL183:
 1197              	.L61:
 576:.\main.c      ****     } else if (strcmp(input_name, "A#3") == 0) {
 1198              		.loc 1 576 0
 1199 03b6 2046     		mov	r0, r4
 1200 03b8 A449     		ldr	r1, .L84+20
 1201 03ba FFF7FEFF 		bl	strcmp
 1202              	.LVL184:
 1203 03be 98B9     		cbnz	r0, .L62
 577:.\main.c      ****         GUI_FillEllipse(SCREEN_WIDTH/2, LOWER_OFFSET, NOTE_WIDTH, NOTE_HEIGHT);
 1204              		.loc 1 577 0
 1205 03c0 7820     		movs	r0, #120
 1206 03c2 0146     		mov	r1, r0
 1207 03c4 0C22     		movs	r2, #12
 1208 03c6 0823     		movs	r3, #8
 1209 03c8 FFF7FEFF 		bl	GUI_FillEllipse
 1210              	.LVL185:
 578:.\main.c      ****         GUI_DispStringAt("A#3", text_x, text_y);
 1211              		.loc 1 578 0
 1212 03cc 9F48     		ldr	r0, .L84+20
 1213 03ce 7821     		movs	r1, #120
 1214 03d0 F022     		movs	r2, #240
 1215 03d2 FFF7FEFF 		bl	GUI_DispStringAt
 1216              	.LVL186:
 579:.\main.c      **** 
 580:.\main.c      ****         GUI_SetFont(&GUI_Font24B_ASCII);
 1217              		.loc 1 580 0
 1218 03d6 9948     		ldr	r0, .L84+4
 1219 03d8 FFF7FEFF 		bl	GUI_SetFont
 1220              	.LVL187:
 581:.\main.c      ****         GUI_DispStringAt("#", SCREEN_WIDTH/2 + 2*NOTE_WIDTH, LOWER_OFFSET);
 1221              		.loc 1 581 0
 1222 03dc 9848     		ldr	r0, .L84+8
 1223 03de 9021     		movs	r1, #144
 1224 03e0 7822     		movs	r2, #120
 1225 03e2 FFF7FEFF 		bl	GUI_DispStringAt
 1226              	.LVL188:
 1227 03e6 10BD     		pop	{r4, pc}
 1228              	.LVL189:
 1229              	.L62:
 582:.\main.c      ****     } else if (strcmp(input_name, "A3") == 0) {
 1230              		.loc 1 582 0
 1231 03e8 2046     		mov	r0, r4
 1232 03ea 9949     		ldr	r1, .L84+24
 1233 03ec FFF7FEFF 		bl	strcmp
 1234              	.LVL190:
 1235 03f0 58B9     		cbnz	r0, .L63
 583:.\main.c      ****         GUI_FillEllipse(SCREEN_WIDTH/2, LOWER_OFFSET, NOTE_WIDTH, NOTE_HEIGHT);
ARM GAS  C:\Users\IVYLIU~1\AppData\Local\Temp\ccWSfWRg.s 			page 33


 1236              		.loc 1 583 0
 1237 03f2 7820     		movs	r0, #120
 1238 03f4 0146     		mov	r1, r0
 1239 03f6 0C22     		movs	r2, #12
 1240 03f8 0823     		movs	r3, #8
 1241 03fa FFF7FEFF 		bl	GUI_FillEllipse
 1242              	.LVL191:
 584:.\main.c      ****         GUI_DispStringAt("A3", text_x, text_y);
 1243              		.loc 1 584 0
 1244 03fe 9448     		ldr	r0, .L84+24
 1245 0400 7821     		movs	r1, #120
 1246 0402 F022     		movs	r2, #240
 1247 0404 FFF7FEFF 		bl	GUI_DispStringAt
 1248              	.LVL192:
 1249 0408 10BD     		pop	{r4, pc}
 1250              	.LVL193:
 1251              	.L63:
 585:.\main.c      ****     } else if (strcmp(input_name, "G#3") == 0) {
 1252              		.loc 1 585 0
 1253 040a 2046     		mov	r0, r4
 1254 040c 9149     		ldr	r1, .L84+28
 1255 040e FFF7FEFF 		bl	strcmp
 1256              	.LVL194:
 1257 0412 98B9     		cbnz	r0, .L64
 586:.\main.c      ****         GUI_FillEllipse(SCREEN_WIDTH/2, LOWER_OFFSET + NOTE_SPACING, NOTE_WIDTH, NOTE_HEIGHT);
 1258              		.loc 1 586 0
 1259 0414 7820     		movs	r0, #120
 1260 0416 7F21     		movs	r1, #127
 1261 0418 0C22     		movs	r2, #12
 1262 041a 0823     		movs	r3, #8
 1263 041c FFF7FEFF 		bl	GUI_FillEllipse
 1264              	.LVL195:
 587:.\main.c      ****         GUI_DispStringAt("G#3", text_x, text_y);
 1265              		.loc 1 587 0
 1266 0420 8C48     		ldr	r0, .L84+28
 1267 0422 7821     		movs	r1, #120
 1268 0424 F022     		movs	r2, #240
 1269 0426 FFF7FEFF 		bl	GUI_DispStringAt
 1270              	.LVL196:
 588:.\main.c      **** 
 589:.\main.c      ****         GUI_SetFont(&GUI_Font24B_ASCII);
 1271              		.loc 1 589 0
 1272 042a 8448     		ldr	r0, .L84+4
 1273 042c FFF7FEFF 		bl	GUI_SetFont
 1274              	.LVL197:
 590:.\main.c      ****         GUI_DispStringAt("#", SCREEN_WIDTH/2 + 2*NOTE_WIDTH, LOWER_OFFSET + NOTE_SPACING);
 1275              		.loc 1 590 0
 1276 0430 8348     		ldr	r0, .L84+8
 1277 0432 9021     		movs	r1, #144
 1278 0434 7F22     		movs	r2, #127
 1279 0436 FFF7FEFF 		bl	GUI_DispStringAt
 1280              	.LVL198:
 1281 043a 10BD     		pop	{r4, pc}
 1282              	.LVL199:
 1283              	.L64:
 591:.\main.c      ****     } else if (strcmp(input_name, "G3") == 0) {
 1284              		.loc 1 591 0
ARM GAS  C:\Users\IVYLIU~1\AppData\Local\Temp\ccWSfWRg.s 			page 34


 1285 043c 2046     		mov	r0, r4
 1286 043e 8649     		ldr	r1, .L84+32
 1287 0440 FFF7FEFF 		bl	strcmp
 1288              	.LVL200:
 1289 0444 58B9     		cbnz	r0, .L65
 592:.\main.c      ****         GUI_FillEllipse(SCREEN_WIDTH/2, LOWER_OFFSET + NOTE_SPACING, NOTE_WIDTH, NOTE_HEIGHT);
 1290              		.loc 1 592 0
 1291 0446 7820     		movs	r0, #120
 1292 0448 7F21     		movs	r1, #127
 1293 044a 0C22     		movs	r2, #12
 1294 044c 0823     		movs	r3, #8
 1295 044e FFF7FEFF 		bl	GUI_FillEllipse
 1296              	.LVL201:
 593:.\main.c      ****         GUI_DispStringAt("G3", text_x, text_y);
 1297              		.loc 1 593 0
 1298 0452 8148     		ldr	r0, .L84+32
 1299 0454 7821     		movs	r1, #120
 1300 0456 F022     		movs	r2, #240
 1301 0458 FFF7FEFF 		bl	GUI_DispStringAt
 1302              	.LVL202:
 1303 045c 10BD     		pop	{r4, pc}
 1304              	.LVL203:
 1305              	.L65:
 594:.\main.c      ****     } else if (strcmp(input_name, "F#3") == 0) {
 1306              		.loc 1 594 0
 1307 045e 2046     		mov	r0, r4
 1308 0460 7E49     		ldr	r1, .L84+36
 1309 0462 FFF7FEFF 		bl	strcmp
 1310              	.LVL204:
 1311 0466 98B9     		cbnz	r0, .L66
 595:.\main.c      ****         GUI_FillEllipse(SCREEN_WIDTH/2, LOWER_OFFSET + 2*NOTE_SPACING, NOTE_WIDTH, NOTE_HEIGHT);
 1312              		.loc 1 595 0
 1313 0468 7820     		movs	r0, #120
 1314 046a 8721     		movs	r1, #135
 1315 046c 0C22     		movs	r2, #12
 1316 046e 0823     		movs	r3, #8
 1317 0470 FFF7FEFF 		bl	GUI_FillEllipse
 1318              	.LVL205:
 596:.\main.c      ****         GUI_DispStringAt("F#3", text_x, text_y);
 1319              		.loc 1 596 0
 1320 0474 7948     		ldr	r0, .L84+36
 1321 0476 7821     		movs	r1, #120
 1322 0478 F022     		movs	r2, #240
 1323 047a FFF7FEFF 		bl	GUI_DispStringAt
 1324              	.LVL206:
 597:.\main.c      **** 
 598:.\main.c      ****         GUI_SetFont(&GUI_Font24B_ASCII);
 1325              		.loc 1 598 0
 1326 047e 6F48     		ldr	r0, .L84+4
 1327 0480 FFF7FEFF 		bl	GUI_SetFont
 1328              	.LVL207:
 599:.\main.c      ****         GUI_DispStringAt("#", SCREEN_WIDTH/2 + 2*NOTE_WIDTH, LOWER_OFFSET + 2*NOTE_SPACING);
 1329              		.loc 1 599 0
 1330 0484 6E48     		ldr	r0, .L84+8
 1331 0486 9021     		movs	r1, #144
 1332 0488 8722     		movs	r2, #135
 1333 048a FFF7FEFF 		bl	GUI_DispStringAt
ARM GAS  C:\Users\IVYLIU~1\AppData\Local\Temp\ccWSfWRg.s 			page 35


 1334              	.LVL208:
 1335 048e 10BD     		pop	{r4, pc}
 1336              	.LVL209:
 1337              	.L66:
 600:.\main.c      ****     } else if (strcmp(input_name, "F3") == 0) {
 1338              		.loc 1 600 0
 1339 0490 2046     		mov	r0, r4
 1340 0492 7349     		ldr	r1, .L84+40
 1341 0494 FFF7FEFF 		bl	strcmp
 1342              	.LVL210:
 1343 0498 58B9     		cbnz	r0, .L67
 601:.\main.c      ****         GUI_FillEllipse(SCREEN_WIDTH/2, LOWER_OFFSET + 2*NOTE_SPACING, NOTE_WIDTH, NOTE_HEIGHT);
 1344              		.loc 1 601 0
 1345 049a 7820     		movs	r0, #120
 1346 049c 8721     		movs	r1, #135
 1347 049e 0C22     		movs	r2, #12
 1348 04a0 0823     		movs	r3, #8
 1349 04a2 FFF7FEFF 		bl	GUI_FillEllipse
 1350              	.LVL211:
 602:.\main.c      ****         GUI_DispStringAt("F3", text_x, text_y);
 1351              		.loc 1 602 0
 1352 04a6 6E48     		ldr	r0, .L84+40
 1353 04a8 7821     		movs	r1, #120
 1354 04aa F022     		movs	r2, #240
 1355 04ac FFF7FEFF 		bl	GUI_DispStringAt
 1356              	.LVL212:
 1357 04b0 10BD     		pop	{r4, pc}
 1358              	.LVL213:
 1359              	.L67:
 603:.\main.c      ****     } else if (strcmp(input_name, "E3") == 0) {
 1360              		.loc 1 603 0
 1361 04b2 2046     		mov	r0, r4
 1362 04b4 6B49     		ldr	r1, .L84+44
 1363 04b6 FFF7FEFF 		bl	strcmp
 1364              	.LVL214:
 1365 04ba 58B9     		cbnz	r0, .L68
 604:.\main.c      ****         GUI_FillEllipse(SCREEN_WIDTH/2, LOWER_OFFSET + 3*NOTE_SPACING, NOTE_WIDTH, NOTE_HEIGHT);
 1366              		.loc 1 604 0
 1367 04bc 7820     		movs	r0, #120
 1368 04be 8E21     		movs	r1, #142
 1369 04c0 0C22     		movs	r2, #12
 1370 04c2 0823     		movs	r3, #8
 1371 04c4 FFF7FEFF 		bl	GUI_FillEllipse
 1372              	.LVL215:
 605:.\main.c      ****         GUI_DispStringAt("E3", text_x, text_y);
 1373              		.loc 1 605 0
 1374 04c8 6648     		ldr	r0, .L84+44
 1375 04ca 7821     		movs	r1, #120
 1376 04cc F022     		movs	r2, #240
 1377 04ce FFF7FEFF 		bl	GUI_DispStringAt
 1378              	.LVL216:
 1379 04d2 10BD     		pop	{r4, pc}
 1380              	.LVL217:
 1381              	.L68:
 606:.\main.c      ****     } else if (strcmp(input_name, "D#3") == 0) {
 1382              		.loc 1 606 0
 1383 04d4 2046     		mov	r0, r4
ARM GAS  C:\Users\IVYLIU~1\AppData\Local\Temp\ccWSfWRg.s 			page 36


 1384 04d6 6449     		ldr	r1, .L84+48
 1385 04d8 FFF7FEFF 		bl	strcmp
 1386              	.LVL218:
 1387 04dc 98B9     		cbnz	r0, .L69
 607:.\main.c      ****         GUI_FillEllipse(SCREEN_WIDTH/2, LOWER_OFFSET + 4*NOTE_SPACING, NOTE_WIDTH, NOTE_HEIGHT);
 1388              		.loc 1 607 0
 1389 04de 7820     		movs	r0, #120
 1390 04e0 9621     		movs	r1, #150
 1391 04e2 0C22     		movs	r2, #12
 1392 04e4 0823     		movs	r3, #8
 1393 04e6 FFF7FEFF 		bl	GUI_FillEllipse
 1394              	.LVL219:
 608:.\main.c      ****         GUI_DispStringAt("D#3", text_x, text_y);
 1395              		.loc 1 608 0
 1396 04ea 5F48     		ldr	r0, .L84+48
 1397 04ec 7821     		movs	r1, #120
 1398 04ee F022     		movs	r2, #240
 1399 04f0 FFF7FEFF 		bl	GUI_DispStringAt
 1400              	.LVL220:
 609:.\main.c      **** 
 610:.\main.c      ****         GUI_SetFont(&GUI_Font24B_ASCII);
 1401              		.loc 1 610 0
 1402 04f4 5148     		ldr	r0, .L84+4
 1403 04f6 FFF7FEFF 		bl	GUI_SetFont
 1404              	.LVL221:
 611:.\main.c      ****         GUI_DispStringAt("#", SCREEN_WIDTH/2 + 2*NOTE_WIDTH, LOWER_OFFSET + 4*NOTE_SPACING);
 1405              		.loc 1 611 0
 1406 04fa 5148     		ldr	r0, .L84+8
 1407 04fc 9021     		movs	r1, #144
 1408 04fe 9622     		movs	r2, #150
 1409 0500 FFF7FEFF 		bl	GUI_DispStringAt
 1410              	.LVL222:
 1411 0504 10BD     		pop	{r4, pc}
 1412              	.LVL223:
 1413              	.L69:
 612:.\main.c      ****     } else if (strcmp(input_name, "D3") == 0) {
 1414              		.loc 1 612 0
 1415 0506 2046     		mov	r0, r4
 1416 0508 5849     		ldr	r1, .L84+52
 1417 050a FFF7FEFF 		bl	strcmp
 1418              	.LVL224:
 1419 050e 58B9     		cbnz	r0, .L70
 613:.\main.c      ****         GUI_FillEllipse(SCREEN_WIDTH/2, LOWER_OFFSET + 4*NOTE_SPACING, NOTE_WIDTH, NOTE_HEIGHT);
 1420              		.loc 1 613 0
 1421 0510 7820     		movs	r0, #120
 1422 0512 9621     		movs	r1, #150
 1423 0514 0C22     		movs	r2, #12
 1424 0516 0823     		movs	r3, #8
 1425 0518 FFF7FEFF 		bl	GUI_FillEllipse
 1426              	.LVL225:
 614:.\main.c      ****         GUI_DispStringAt("D3", text_x, text_y);
 1427              		.loc 1 614 0
 1428 051c 5348     		ldr	r0, .L84+52
 1429 051e 7821     		movs	r1, #120
 1430 0520 F022     		movs	r2, #240
 1431 0522 FFF7FEFF 		bl	GUI_DispStringAt
 1432              	.LVL226:
ARM GAS  C:\Users\IVYLIU~1\AppData\Local\Temp\ccWSfWRg.s 			page 37


 1433 0526 10BD     		pop	{r4, pc}
 1434              	.LVL227:
 1435              	.L70:
 615:.\main.c      ****     } else if (strcmp(input_name, "C#3") == 0) {
 1436              		.loc 1 615 0
 1437 0528 2046     		mov	r0, r4
 1438 052a 5149     		ldr	r1, .L84+56
 1439 052c FFF7FEFF 		bl	strcmp
 1440              	.LVL228:
 1441 0530 98B9     		cbnz	r0, .L71
 616:.\main.c      ****         GUI_FillEllipse(SCREEN_WIDTH/2, LOWER_OFFSET + 5*NOTE_SPACING, NOTE_WIDTH, NOTE_HEIGHT);
 1442              		.loc 1 616 0
 1443 0532 7820     		movs	r0, #120
 1444 0534 9D21     		movs	r1, #157
 1445 0536 0C22     		movs	r2, #12
 1446 0538 0823     		movs	r3, #8
 1447 053a FFF7FEFF 		bl	GUI_FillEllipse
 1448              	.LVL229:
 617:.\main.c      ****         GUI_DispStringAt("C#3", text_x, text_y);
 1449              		.loc 1 617 0
 1450 053e 4C48     		ldr	r0, .L84+56
 1451 0540 7821     		movs	r1, #120
 1452 0542 F022     		movs	r2, #240
 1453 0544 FFF7FEFF 		bl	GUI_DispStringAt
 1454              	.LVL230:
 618:.\main.c      **** 
 619:.\main.c      ****         GUI_SetFont(&GUI_Font24B_ASCII);
 1455              		.loc 1 619 0
 1456 0548 3C48     		ldr	r0, .L84+4
 1457 054a FFF7FEFF 		bl	GUI_SetFont
 1458              	.LVL231:
 620:.\main.c      ****         GUI_DispStringAt("#", SCREEN_WIDTH/2 + 2*NOTE_WIDTH, LOWER_OFFSET + 5*NOTE_SPACING);
 1459              		.loc 1 620 0
 1460 054e 3C48     		ldr	r0, .L84+8
 1461 0550 9021     		movs	r1, #144
 1462 0552 9D22     		movs	r2, #157
 1463 0554 FFF7FEFF 		bl	GUI_DispStringAt
 1464              	.LVL232:
 1465 0558 10BD     		pop	{r4, pc}
 1466              	.LVL233:
 1467              	.L71:
 621:.\main.c      ****     } else if (strcmp(input_name, "C3") == 0) {
 1468              		.loc 1 621 0
 1469 055a 2046     		mov	r0, r4
 1470 055c 4549     		ldr	r1, .L84+60
 1471 055e FFF7FEFF 		bl	strcmp
 1472              	.LVL234:
 1473 0562 58B9     		cbnz	r0, .L72
 622:.\main.c      ****         GUI_FillEllipse(SCREEN_WIDTH/2, LOWER_OFFSET + 5*NOTE_SPACING, NOTE_WIDTH, NOTE_HEIGHT);
 1474              		.loc 1 622 0
 1475 0564 7820     		movs	r0, #120
 1476 0566 9D21     		movs	r1, #157
 1477 0568 0C22     		movs	r2, #12
 1478 056a 0823     		movs	r3, #8
 1479 056c FFF7FEFF 		bl	GUI_FillEllipse
 1480              	.LVL235:
 623:.\main.c      ****         GUI_DispStringAt("C3", text_x, text_y);
ARM GAS  C:\Users\IVYLIU~1\AppData\Local\Temp\ccWSfWRg.s 			page 38


 1481              		.loc 1 623 0
 1482 0570 4048     		ldr	r0, .L84+60
 1483 0572 7821     		movs	r1, #120
 1484 0574 F022     		movs	r2, #240
 1485 0576 FFF7FEFF 		bl	GUI_DispStringAt
 1486              	.LVL236:
 1487 057a 10BD     		pop	{r4, pc}
 1488              	.LVL237:
 1489              	.L72:
 624:.\main.c      ****     } else if (strcmp(input_name, "B2") == 0) {
 1490              		.loc 1 624 0
 1491 057c 2046     		mov	r0, r4
 1492 057e 3E49     		ldr	r1, .L84+64
 1493 0580 FFF7FEFF 		bl	strcmp
 1494              	.LVL238:
 1495 0584 58B9     		cbnz	r0, .L73
 625:.\main.c      ****         GUI_FillEllipse(SCREEN_WIDTH/2, LOWER_OFFSET + 6*NOTE_SPACING, NOTE_WIDTH, NOTE_HEIGHT);
 1496              		.loc 1 625 0
 1497 0586 7820     		movs	r0, #120
 1498 0588 A521     		movs	r1, #165
 1499 058a 0C22     		movs	r2, #12
 1500 058c 0823     		movs	r3, #8
 1501 058e FFF7FEFF 		bl	GUI_FillEllipse
 1502              	.LVL239:
 626:.\main.c      ****         GUI_DispStringAt("B2", text_x, text_y);
 1503              		.loc 1 626 0
 1504 0592 3948     		ldr	r0, .L84+64
 1505 0594 7821     		movs	r1, #120
 1506 0596 F022     		movs	r2, #240
 1507 0598 FFF7FEFF 		bl	GUI_DispStringAt
 1508              	.LVL240:
 1509 059c 10BD     		pop	{r4, pc}
 1510              	.LVL241:
 1511              	.L73:
 627:.\main.c      ****     } else if (strcmp(input_name, "A#2") == 0) {
 1512              		.loc 1 627 0
 1513 059e 2046     		mov	r0, r4
 1514 05a0 3649     		ldr	r1, .L84+68
 1515 05a2 FFF7FEFF 		bl	strcmp
 1516              	.LVL242:
 1517 05a6 98B9     		cbnz	r0, .L74
 628:.\main.c      ****         GUI_FillEllipse(SCREEN_WIDTH/2, LOWER_OFFSET + 7*NOTE_SPACING, NOTE_WIDTH, NOTE_HEIGHT);
 1518              		.loc 1 628 0
 1519 05a8 7820     		movs	r0, #120
 1520 05aa AC21     		movs	r1, #172
 1521 05ac 0C22     		movs	r2, #12
 1522 05ae 0823     		movs	r3, #8
 1523 05b0 FFF7FEFF 		bl	GUI_FillEllipse
 1524              	.LVL243:
 629:.\main.c      ****         GUI_DispStringAt("A#2", text_x, text_y);
 1525              		.loc 1 629 0
 1526 05b4 3148     		ldr	r0, .L84+68
 1527 05b6 7821     		movs	r1, #120
 1528 05b8 F022     		movs	r2, #240
 1529 05ba FFF7FEFF 		bl	GUI_DispStringAt
 1530              	.LVL244:
 630:.\main.c      **** 
ARM GAS  C:\Users\IVYLIU~1\AppData\Local\Temp\ccWSfWRg.s 			page 39


 631:.\main.c      ****         GUI_SetFont(&GUI_Font24B_ASCII);
 1531              		.loc 1 631 0
 1532 05be 1F48     		ldr	r0, .L84+4
 1533 05c0 FFF7FEFF 		bl	GUI_SetFont
 1534              	.LVL245:
 632:.\main.c      ****         GUI_DispStringAt("#", SCREEN_WIDTH/2 + 2*NOTE_WIDTH, LOWER_OFFSET + 7*NOTE_SPACING);
 1535              		.loc 1 632 0
 1536 05c4 1E48     		ldr	r0, .L84+8
 1537 05c6 9021     		movs	r1, #144
 1538 05c8 AC22     		movs	r2, #172
 1539 05ca FFF7FEFF 		bl	GUI_DispStringAt
 1540              	.LVL246:
 1541 05ce 10BD     		pop	{r4, pc}
 1542              	.LVL247:
 1543              	.L74:
 633:.\main.c      ****     } else if (strcmp(input_name, "A2") == 0) {
 1544              		.loc 1 633 0
 1545 05d0 2046     		mov	r0, r4
 1546 05d2 2B49     		ldr	r1, .L84+72
 1547 05d4 FFF7FEFF 		bl	strcmp
 1548              	.LVL248:
 1549 05d8 58B9     		cbnz	r0, .L75
 634:.\main.c      ****         GUI_FillEllipse(SCREEN_WIDTH/2, LOWER_OFFSET + 7*NOTE_SPACING, NOTE_WIDTH, NOTE_HEIGHT);
 1550              		.loc 1 634 0
 1551 05da 7820     		movs	r0, #120
 1552 05dc AC21     		movs	r1, #172
 1553 05de 0C22     		movs	r2, #12
 1554 05e0 0823     		movs	r3, #8
 1555 05e2 FFF7FEFF 		bl	GUI_FillEllipse
 1556              	.LVL249:
 635:.\main.c      ****         GUI_DispStringAt("A2", text_x, text_y);
 1557              		.loc 1 635 0
 1558 05e6 2648     		ldr	r0, .L84+72
 1559 05e8 7821     		movs	r1, #120
 1560 05ea F022     		movs	r2, #240
 1561 05ec FFF7FEFF 		bl	GUI_DispStringAt
 1562              	.LVL250:
 1563 05f0 10BD     		pop	{r4, pc}
 1564              	.LVL251:
 1565              	.L75:
 636:.\main.c      ****     } else if (strcmp(input_name, "G#2") == 0) {
 1566              		.loc 1 636 0
 1567 05f2 2046     		mov	r0, r4
 1568 05f4 2349     		ldr	r1, .L84+76
 1569 05f6 FFF7FEFF 		bl	strcmp
 1570              	.LVL252:
 1571 05fa 58B9     		cbnz	r0, .L76
 637:.\main.c      ****         GUI_FillEllipse(SCREEN_WIDTH/2, LOWER_OFFSET + 8*NOTE_SPACING, NOTE_WIDTH, NOTE_HEIGHT);
 1572              		.loc 1 637 0
 1573 05fc 7820     		movs	r0, #120
 1574 05fe B421     		movs	r1, #180
 1575 0600 0C22     		movs	r2, #12
 1576 0602 0823     		movs	r3, #8
 1577 0604 FFF7FEFF 		bl	GUI_FillEllipse
 1578              	.LVL253:
 638:.\main.c      ****         GUI_DispStringAt("G#2", text_x, text_y);
 1579              		.loc 1 638 0
ARM GAS  C:\Users\IVYLIU~1\AppData\Local\Temp\ccWSfWRg.s 			page 40


 1580 0608 1E48     		ldr	r0, .L84+76
 1581 060a 7821     		movs	r1, #120
 1582 060c F022     		movs	r2, #240
 1583 060e FFF7FEFF 		bl	GUI_DispStringAt
 1584              	.LVL254:
 1585 0612 10BD     		pop	{r4, pc}
 1586              	.LVL255:
 1587              	.L76:
 639:.\main.c      ****     } else if (strcmp(input_name, "G2") == 0) {
 1588              		.loc 1 639 0
 1589 0614 2046     		mov	r0, r4
 1590 0616 1C49     		ldr	r1, .L84+80
 1591 0618 FFF7FEFF 		bl	strcmp
 1592              	.LVL256:
 1593 061c B0BB     		cbnz	r0, .L77
 640:.\main.c      ****         GUI_FillEllipse(SCREEN_WIDTH/2, LOWER_OFFSET + 8*NOTE_SPACING, NOTE_WIDTH, NOTE_HEIGHT);
 1594              		.loc 1 640 0
 1595 061e 7820     		movs	r0, #120
 1596 0620 B421     		movs	r1, #180
 1597 0622 0C22     		movs	r2, #12
 1598 0624 0823     		movs	r3, #8
 1599 0626 FFF7FEFF 		bl	GUI_FillEllipse
 1600              	.LVL257:
 641:.\main.c      ****         GUI_DispStringAt("G2", text_x, text_y);
 1601              		.loc 1 641 0
 1602 062a 1748     		ldr	r0, .L84+80
 1603 062c 7821     		movs	r1, #120
 1604 062e F022     		movs	r2, #240
 1605 0630 FFF7FEFF 		bl	GUI_DispStringAt
 1606              	.LVL258:
 1607 0634 10BD     		pop	{r4, pc}
 1608              	.LVL259:
 1609              	.L85:
 1610 0636 00BF     		.align	2
 1611              	.L84:
 1612 0638 28010000 		.word	.LC28
 1613 063c 00000000 		.word	GUI_Font24B_ASCII
 1614 0640 E4000000 		.word	.LC11
 1615 0644 2C010000 		.word	.LC29
 1616 0648 30010000 		.word	.LC30
 1617 064c 34010000 		.word	.LC31
 1618 0650 38010000 		.word	.LC32
 1619 0654 3C010000 		.word	.LC33
 1620 0658 40010000 		.word	.LC34
 1621 065c 44010000 		.word	.LC35
 1622 0660 48010000 		.word	.LC36
 1623 0664 4C010000 		.word	.LC37
 1624 0668 50010000 		.word	.LC38
 1625 066c 54010000 		.word	.LC39
 1626 0670 58010000 		.word	.LC40
 1627 0674 5C010000 		.word	.LC41
 1628 0678 60010000 		.word	.LC42
 1629 067c 64010000 		.word	.LC43
 1630 0680 68010000 		.word	.LC44
 1631 0684 6C010000 		.word	.LC45
 1632 0688 70010000 		.word	.LC46
 1633              	.LVL260:
ARM GAS  C:\Users\IVYLIU~1\AppData\Local\Temp\ccWSfWRg.s 			page 41


 1634              	.L77:
 642:.\main.c      ****     } else if (strcmp(input_name, "F#2") == 0) {
 1635              		.loc 1 642 0
 1636 068c 2046     		mov	r0, r4
 1637 068e 2049     		ldr	r1, .L86
 1638 0690 FFF7FEFF 		bl	strcmp
 1639              	.LVL261:
 1640 0694 98B9     		cbnz	r0, .L78
 643:.\main.c      ****         GUI_FillEllipse(SCREEN_WIDTH/2, LOWER_OFFSET + 9*NOTE_SPACING, NOTE_WIDTH, NOTE_HEIGHT);
 1641              		.loc 1 643 0
 1642 0696 7820     		movs	r0, #120
 1643 0698 BB21     		movs	r1, #187
 1644 069a 0C22     		movs	r2, #12
 1645 069c 0823     		movs	r3, #8
 1646 069e FFF7FEFF 		bl	GUI_FillEllipse
 1647              	.LVL262:
 644:.\main.c      ****         GUI_DispStringAt("F#2", text_x, text_y);
 1648              		.loc 1 644 0
 1649 06a2 1B48     		ldr	r0, .L86
 1650 06a4 7821     		movs	r1, #120
 1651 06a6 F022     		movs	r2, #240
 1652 06a8 FFF7FEFF 		bl	GUI_DispStringAt
 1653              	.LVL263:
 645:.\main.c      **** 
 646:.\main.c      ****         GUI_SetFont(&GUI_Font24B_ASCII);
 1654              		.loc 1 646 0
 1655 06ac 1948     		ldr	r0, .L86+4
 1656 06ae FFF7FEFF 		bl	GUI_SetFont
 1657              	.LVL264:
 647:.\main.c      ****         GUI_DispStringAt("#", SCREEN_WIDTH/2 + 2*NOTE_WIDTH, LOWER_OFFSET + 9*NOTE_SPACING);
 1658              		.loc 1 647 0
 1659 06b2 1948     		ldr	r0, .L86+8
 1660 06b4 9021     		movs	r1, #144
 1661 06b6 BB22     		movs	r2, #187
 1662 06b8 FFF7FEFF 		bl	GUI_DispStringAt
 1663              	.LVL265:
 1664 06bc 10BD     		pop	{r4, pc}
 1665              	.LVL266:
 1666              	.L78:
 648:.\main.c      ****     } else if (strcmp(input_name, "F2") == 0) {
 1667              		.loc 1 648 0
 1668 06be 2046     		mov	r0, r4
 1669 06c0 1649     		ldr	r1, .L86+12
 1670 06c2 FFF7FEFF 		bl	strcmp
 1671              	.LVL267:
 1672 06c6 58B9     		cbnz	r0, .L79
 649:.\main.c      ****         GUI_FillEllipse(SCREEN_WIDTH/2, LOWER_OFFSET + 9*NOTE_SPACING, NOTE_WIDTH, NOTE_HEIGHT);
 1673              		.loc 1 649 0
 1674 06c8 7820     		movs	r0, #120
 1675 06ca BB21     		movs	r1, #187
 1676 06cc 0C22     		movs	r2, #12
 1677 06ce 0823     		movs	r3, #8
 1678 06d0 FFF7FEFF 		bl	GUI_FillEllipse
 1679              	.LVL268:
 650:.\main.c      ****         GUI_DispStringAt("F2", text_x, text_y);
 1680              		.loc 1 650 0
 1681 06d4 1148     		ldr	r0, .L86+12
ARM GAS  C:\Users\IVYLIU~1\AppData\Local\Temp\ccWSfWRg.s 			page 42


 1682 06d6 7821     		movs	r1, #120
 1683 06d8 F022     		movs	r2, #240
 1684 06da FFF7FEFF 		bl	GUI_DispStringAt
 1685              	.LVL269:
 1686 06de 10BD     		pop	{r4, pc}
 1687              	.LVL270:
 1688              	.L79:
 651:.\main.c      ****     } else if (strcmp(input_name, "E2") == 0) {
 1689              		.loc 1 651 0
 1690 06e0 2046     		mov	r0, r4
 1691 06e2 0F49     		ldr	r1, .L86+16
 1692 06e4 FFF7FEFF 		bl	strcmp
 1693              	.LVL271:
 1694 06e8 58B9     		cbnz	r0, .L80
 652:.\main.c      ****         GUI_FillEllipse(SCREEN_WIDTH/2, LOWER_OFFSET + 10*NOTE_SPACING, NOTE_WIDTH, NOTE_HEIGHT);
 1695              		.loc 1 652 0
 1696 06ea 7820     		movs	r0, #120
 1697 06ec C321     		movs	r1, #195
 1698 06ee 0C22     		movs	r2, #12
 1699 06f0 0823     		movs	r3, #8
 1700 06f2 FFF7FEFF 		bl	GUI_FillEllipse
 1701              	.LVL272:
 653:.\main.c      ****         GUI_DispStringAt("E2", text_x, text_y);
 1702              		.loc 1 653 0
 1703 06f6 0A48     		ldr	r0, .L86+16
 1704 06f8 7821     		movs	r1, #120
 1705 06fa F022     		movs	r2, #240
 1706 06fc FFF7FEFF 		bl	GUI_DispStringAt
 1707              	.LVL273:
 1708 0700 10BD     		pop	{r4, pc}
 1709              	.LVL274:
 1710              	.L80:
 654:.\main.c      ****     } else {
 655:.\main.c      ****         GUI_DispStringAt("Invalid!", text_x, text_y);
 1711              		.loc 1 655 0
 1712 0702 0848     		ldr	r0, .L86+20
 1713 0704 7821     		movs	r1, #120
 1714 0706 F022     		movs	r2, #240
 1715 0708 FFF7FEFF 		bl	GUI_DispStringAt
 1716              	.LVL275:
 1717 070c 10BD     		pop	{r4, pc}
 1718              	.LVL276:
 1719              	.L87:
 1720 070e 00BF     		.align	2
 1721              	.L86:
 1722 0710 74010000 		.word	.LC47
 1723 0714 00000000 		.word	GUI_Font24B_ASCII
 1724 0718 E4000000 		.word	.LC11
 1725 071c 78010000 		.word	.LC48
 1726 0720 7C010000 		.word	.LC49
 1727 0724 80010000 		.word	.LC50
 1728              		.cfi_endproc
 1729              	.LFE132:
 1730              		.size	drawNote, .-drawNote
 1731              		.section	.text.drawClefs,"ax",%progbits
 1732              		.align	2
 1733              		.global	drawClefs
ARM GAS  C:\Users\IVYLIU~1\AppData\Local\Temp\ccWSfWRg.s 			page 43


 1734              		.thumb
 1735              		.thumb_func
 1736              		.type	drawClefs, %function
 1737              	drawClefs:
 1738              	.LFB133:
 656:.\main.c      ****     }
 657:.\main.c      **** }
 658:.\main.c      **** 
 659:.\main.c      **** void drawClefs(){
 1739              		.loc 1 659 0
 1740              		.cfi_startproc
 1741              		@ args = 0, pretend = 0, frame = 0
 1742              		@ frame_needed = 0, uses_anonymous_args = 0
 1743 0000 38B5     		push	{r3, r4, r5, lr}
 1744              		.cfi_def_cfa_offset 16
 1745              		.cfi_offset 3, -16
 1746              		.cfi_offset 4, -12
 1747              		.cfi_offset 5, -8
 1748              		.cfi_offset 14, -4
 1749              	.LVL277:
 660:.\main.c      ****     int i;
 661:.\main.c      ****     for (i = 0; i < LINE_NUM; i++) {
 1750              		.loc 1 661 0
 1751 0002 0024     		movs	r4, #0
 1752 0004 11E0     		b	.L89
 1753              	.LVL278:
 1754              	.L90:
 662:.\main.c      ****         // Draw treble clef lines
 663:.\main.c      ****         GUI_DrawRect(TOP_MARGIN, i*BAR_SPACING + TOP_MARGIN, RIGHT_MARGIN, i*BAR_SPACING + TOP_MARG
 1755              		.loc 1 663 0 discriminator 3
 1756 0006 C4EB0415 		rsb	r5, r4, r4, lsl #4
 1757 000a 1420     		movs	r0, #20
 1758 000c 2918     		adds	r1, r5, r0
 1759 000e DC22     		movs	r2, #220
 1760 0010 05F11503 		add	r3, r5, #21
 1761 0014 FFF7FEFF 		bl	GUI_DrawRect
 1762              	.LVL279:
 664:.\main.c      ****         // Draw bass clef lines
 665:.\main.c      ****         GUI_DrawRect(TOP_MARGIN, LOWER_OFFSET + i*BAR_SPACING, RIGHT_MARGIN, LOWER_OFFSET + i*BAR_S
 1763              		.loc 1 665 0 discriminator 3
 1764 0018 1420     		movs	r0, #20
 1765 001a 05F17801 		add	r1, r5, #120
 1766 001e DC22     		movs	r2, #220
 1767 0020 05F17903 		add	r3, r5, #121
 1768 0024 FFF7FEFF 		bl	GUI_DrawRect
 1769              	.LVL280:
 661:.\main.c      ****         // Draw treble clef lines
 1770              		.loc 1 661 0 discriminator 3
 1771 0028 0134     		adds	r4, r4, #1
 1772              	.LVL281:
 1773              	.L89:
 661:.\main.c      ****         // Draw treble clef lines
 1774              		.loc 1 661 0 is_stmt 0 discriminator 1
 1775 002a 042C     		cmp	r4, #4
 1776 002c EBDD     		ble	.L90
 666:.\main.c      ****     }
 667:.\main.c      **** }
ARM GAS  C:\Users\IVYLIU~1\AppData\Local\Temp\ccWSfWRg.s 			page 44


 1777              		.loc 1 667 0 is_stmt 1
 1778 002e 38BD     		pop	{r3, r4, r5, pc}
 1779              		.cfi_endproc
 1780              	.LFE133:
 1781              		.size	drawClefs, .-drawClefs
 1782              		.section	.text.drawPlaySong,"ax",%progbits
 1783              		.align	2
 1784              		.global	drawPlaySong
 1785              		.thumb
 1786              		.thumb_func
 1787              		.type	drawPlaySong, %function
 1788              	drawPlaySong:
 1789              	.LFB128:
 336:.\main.c      ****     // Setup
 1790              		.loc 1 336 0
 1791              		.cfi_startproc
 1792              		@ args = 0, pretend = 0, frame = 24
 1793              		@ frame_needed = 0, uses_anonymous_args = 0
 1794              	.LVL282:
 1795 0000 70B5     		push	{r4, r5, r6, lr}
 1796              		.cfi_def_cfa_offset 16
 1797              		.cfi_offset 4, -16
 1798              		.cfi_offset 5, -12
 1799              		.cfi_offset 6, -8
 1800              		.cfi_offset 14, -4
 1801 0002 86B0     		sub	sp, sp, #24
 1802              		.cfi_def_cfa_offset 40
 1803 0004 0446     		mov	r4, r0
 338:.\main.c      ****     GUI_SetColor(GUI_BLACK);
 1804              		.loc 1 338 0
 1805 0006 4FF0FF30 		mov	r0, #-1
 1806              	.LVL283:
 1807 000a FFF7FEFF 		bl	GUI_SetBkColor
 1808              	.LVL284:
 339:.\main.c      ****     GUI_SetTextMode(GUI_TM_TRANS);
 1809              		.loc 1 339 0
 1810 000e 4FF07F40 		mov	r0, #-16777216
 1811 0012 FFF7FEFF 		bl	GUI_SetColor
 1812              	.LVL285:
 340:.\main.c      ****     GUI_SetTextAlign(GUI_TA_VCENTER); // Bug: GUI_TA_HCENTER fails to center text horizontally
 1813              		.loc 1 340 0
 1814 0016 0220     		movs	r0, #2
 1815 0018 FFF7FEFF 		bl	GUI_SetTextMode
 1816              	.LVL286:
 341:.\main.c      **** 
 1817              		.loc 1 341 0
 1818 001c 0C20     		movs	r0, #12
 1819 001e FFF7FEFF 		bl	GUI_SetTextAlign
 1820              	.LVL287:
 343:.\main.c      ****     drawClefs();
 1821              		.loc 1 343 0
 1822 0022 FFF7FEFF 		bl	GUI_Clear
 1823              	.LVL288:
 344:.\main.c      ****     
 1824              		.loc 1 344 0
 1825 0026 FFF7FEFF 		bl	drawClefs
 1826              	.LVL289:
ARM GAS  C:\Users\IVYLIU~1\AppData\Local\Temp\ccWSfWRg.s 			page 45


 348:.\main.c      ****     
 1827              		.loc 1 348 0
 1828 002a 424B     		ldr	r3, .L100
 1829 002c 03EB0413 		add	r3, r3, r4, lsl #4
 1830 0030 03F5FA73 		add	r3, r3, #500
 1831 0034 01AC     		add	r4, sp, #4
 1832              	.LVL290:
 1833 0036 0FCB     		ldmia	r3, {r0, r1, r2, r3}
 1834 0038 84E80F00 		stmia	r4, {r0, r1, r2, r3}
 351:.\main.c      ****     GUI_SetFont(&GUI_Font24B_ASCII);
 1835              		.loc 1 351 0
 1836 003c 039D     		ldr	r5, [sp, #12]
 1837 003e 2868     		ldr	r0, [r5]
 1838 0040 FFF7FEFF 		bl	drawNote
 1839              	.LVL291:
 352:.\main.c      **** 
 1840              		.loc 1 352 0
 1841 0044 3C48     		ldr	r0, .L100+4
 1842 0046 FFF7FEFF 		bl	GUI_SetFont
 1843              	.LVL292:
 354:.\main.c      ****     GUI_DispStringHCenterAt("Score", SCREEN_WIDTH/2 - 20, 280);
 1844              		.loc 1 354 0
 1845 004a 05A8     		add	r0, sp, #20
 1846 004c 3B49     		ldr	r1, .L100+8
 1847 004e 0022     		movs	r2, #0
 1848 0050 FFF7FEFF 		bl	sprintf
 1849              	.LVL293:
 355:.\main.c      ****     GUI_DispStringHCenterAt(score_buf, SCREEN_WIDTH/2 + 40, 280);
 1850              		.loc 1 355 0
 1851 0054 3A48     		ldr	r0, .L100+12
 1852 0056 6421     		movs	r1, #100
 1853 0058 4FF48C72 		mov	r2, #280
 1854 005c FFF7FEFF 		bl	GUI_DispStringHCenterAt
 1855              	.LVL294:
 356:.\main.c      ****     
 1856              		.loc 1 356 0
 1857 0060 05A8     		add	r0, sp, #20
 1858 0062 A021     		movs	r1, #160
 1859 0064 4FF48C72 		mov	r2, #280
 1860 0068 FFF7FEFF 		bl	GUI_DispStringHCenterAt
 1861              	.LVL295:
 346:.\main.c      ****     char score_buf[3];
 1862              		.loc 1 346 0
 1863 006c 0024     		movs	r4, #0
 359:.\main.c      ****         // Detect if note is played
 1864              		.loc 1 359 0
 1865 006e 5AE0     		b	.L94
 1866              	.LVL296:
 1867              	.L98:
 362:.\main.c      ****             while(!SW2_Read());
 1868              		.loc 1 362 0
 1869 0070 FFF7FEFF 		bl	detectNote
 1870              	.LVL297:
 1871 0074 2F4B     		ldr	r3, .L100
 1872 0076 D3F81432 		ldr	r3, [r3, #532]
 1873 007a C01A     		subs	r0, r0, r3
 1874 007c FFF7FEFF 		bl	getNoteName
ARM GAS  C:\Users\IVYLIU~1\AppData\Local\Temp\ccWSfWRg.s 			page 46


 1875              	.LVL298:
 1876 0080 05EB8406 		add	r6, r5, r4, lsl #2
 1877 0084 55F82410 		ldr	r1, [r5, r4, lsl #2]
 1878 0088 FFF7FEFF 		bl	strcmp
 1879              	.LVL299:
 1880 008c 0028     		cmp	r0, #0
 1881 008e 4AD1     		bne	.L94
 1882              	.L95:
 363:.\main.c      ****             // Erase current note and score drawing
 1883              		.loc 1 363 0 discriminator 1
 1884 0090 FFF7FEFF 		bl	SW2_Read
 1885              	.LVL300:
 1886 0094 0028     		cmp	r0, #0
 1887 0096 FBD0     		beq	.L95
 365:.\main.c      ****             drawNote(cur_song.note_seq[note_index]);
 1888              		.loc 1 365 0
 1889 0098 4FF0FF30 		mov	r0, #-1
 1890 009c FFF7FEFF 		bl	GUI_SetColor
 1891              	.LVL301:
 366:.\main.c      ****             
 1892              		.loc 1 366 0
 1893 00a0 3068     		ldr	r0, [r6]
 1894 00a2 FFF7FEFF 		bl	drawNote
 1895              	.LVL302:
 368:.\main.c      ****             GUI_DispStringHCenterAt("Score", SCREEN_WIDTH/2 - 20, 280);
 1896              		.loc 1 368 0
 1897 00a6 2448     		ldr	r0, .L100+4
 1898 00a8 FFF7FEFF 		bl	GUI_SetFont
 1899              	.LVL303:
 369:.\main.c      ****             GUI_DispStringHCenterAt(score_buf, SCREEN_WIDTH/2 + 40, 280);
 1900              		.loc 1 369 0
 1901 00ac 2448     		ldr	r0, .L100+12
 1902 00ae 6421     		movs	r1, #100
 1903 00b0 4FF48C72 		mov	r2, #280
 1904 00b4 FFF7FEFF 		bl	GUI_DispStringHCenterAt
 1905              	.LVL304:
 370:.\main.c      ****             
 1906              		.loc 1 370 0
 1907 00b8 05A8     		add	r0, sp, #20
 1908 00ba A021     		movs	r1, #160
 1909 00bc 4FF48C72 		mov	r2, #280
 1910 00c0 FFF7FEFF 		bl	GUI_DispStringHCenterAt
 1911              	.LVL305:
 373:.\main.c      ****             drawClefs();
 1912              		.loc 1 373 0
 1913 00c4 4FF07F40 		mov	r0, #-16777216
 1914 00c8 FFF7FEFF 		bl	GUI_SetColor
 1915              	.LVL306:
 374:.\main.c      ****             
 1916              		.loc 1 374 0
 1917 00cc FFF7FEFF 		bl	drawClefs
 1918              	.LVL307:
 377:.\main.c      ****             sprintf(score_buf, "%d", note_index);   //put index into str buffer for displaying scor
 1919              		.loc 1 377 0
 1920 00d0 0134     		adds	r4, r4, #1
 1921              	.LVL308:
 378:.\main.c      ****             
ARM GAS  C:\Users\IVYLIU~1\AppData\Local\Temp\ccWSfWRg.s 			page 47


 1922              		.loc 1 378 0
 1923 00d2 05A8     		add	r0, sp, #20
 1924 00d4 1949     		ldr	r1, .L100+8
 1925 00d6 2246     		mov	r2, r4
 1926 00d8 FFF7FEFF 		bl	sprintf
 1927              	.LVL309:
 380:.\main.c      ****                 // print final score then exit playing mode
 1928              		.loc 1 380 0
 1929 00dc 049B     		ldr	r3, [sp, #16]
 1930 00de A342     		cmp	r3, r4
 1931 00e0 11DC     		bgt	.L96
 382:.\main.c      ****                 GUI_DispStringHCenterAt("Score", SCREEN_WIDTH/2 - 20, 280);
 1932              		.loc 1 382 0
 1933 00e2 1848     		ldr	r0, .L100+16
 1934 00e4 7821     		movs	r1, #120
 1935 00e6 F022     		movs	r2, #240
 1936 00e8 FFF7FEFF 		bl	GUI_DispStringHCenterAt
 1937              	.LVL310:
 383:.\main.c      ****                 GUI_DispStringHCenterAt(score_buf, SCREEN_WIDTH/2 + 40, 280);
 1938              		.loc 1 383 0
 1939 00ec 1448     		ldr	r0, .L100+12
 1940 00ee 6421     		movs	r1, #100
 1941 00f0 4FF48C72 		mov	r2, #280
 1942 00f4 FFF7FEFF 		bl	GUI_DispStringHCenterAt
 1943              	.LVL311:
 384:.\main.c      ****                 break;
 1944              		.loc 1 384 0
 1945 00f8 05A8     		add	r0, sp, #20
 1946 00fa A021     		movs	r1, #160
 1947 00fc 4FF48C72 		mov	r2, #280
 1948 0100 FFF7FEFF 		bl	GUI_DispStringHCenterAt
 1949              	.LVL312:
 385:.\main.c      ****             } else {
 1950              		.loc 1 385 0
 1951 0104 13E0     		b	.L92
 1952              	.L96:
 388:.\main.c      ****                 GUI_DispStringHCenterAt(score_buf, SCREEN_WIDTH/2 + 40, 280);
 1953              		.loc 1 388 0
 1954 0106 0E48     		ldr	r0, .L100+12
 1955 0108 6421     		movs	r1, #100
 1956 010a 4FF48C72 		mov	r2, #280
 1957 010e FFF7FEFF 		bl	GUI_DispStringHCenterAt
 1958              	.LVL313:
 389:.\main.c      ****                 drawNote(cur_song.note_seq[note_index]);
 1959              		.loc 1 389 0
 1960 0112 05A8     		add	r0, sp, #20
 1961 0114 A021     		movs	r1, #160
 1962 0116 4FF48C72 		mov	r2, #280
 1963 011a FFF7FEFF 		bl	GUI_DispStringHCenterAt
 1964              	.LVL314:
 390:.\main.c      ****             }
 1965              		.loc 1 390 0
 1966 011e 55F82400 		ldr	r0, [r5, r4, lsl #2]
 1967 0122 FFF7FEFF 		bl	drawNote
 1968              	.LVL315:
 1969              	.L94:
 359:.\main.c      ****         // Detect if note is played
ARM GAS  C:\Users\IVYLIU~1\AppData\Local\Temp\ccWSfWRg.s 			page 48


 1970              		.loc 1 359 0
 1971 0126 FFF7FEFF 		bl	SW3_Read
 1972              	.LVL316:
 1973 012a 0028     		cmp	r0, #0
 1974 012c A0D1     		bne	.L98
 1975              	.L92:
 394:.\main.c      **** 
 1976              		.loc 1 394 0
 1977 012e 06B0     		add	sp, sp, #24
 1978              		.cfi_def_cfa_offset 16
 1979              		@ sp needed
 1980 0130 70BD     		pop	{r4, r5, r6, pc}
 1981              	.LVL317:
 1982              	.L101:
 1983 0132 00BF     		.align	2
 1984              	.L100:
 1985 0134 00000000 		.word	.LANCHOR1
 1986 0138 00000000 		.word	GUI_Font24B_ASCII
 1987 013c 8C010000 		.word	.LC51
 1988 0140 90010000 		.word	.LC52
 1989 0144 98010000 		.word	.LC53
 1990              		.cfi_endproc
 1991              	.LFE128:
 1992              		.size	drawPlaySong, .-drawPlaySong
 1993              		.section	.text.main,"ax",%progbits
 1994              		.align	2
 1995              		.global	main
 1996              		.thumb
 1997              		.thumb_func
 1998              		.type	main, %function
 1999              	main:
 2000              	.LFB123:
 170:.\main.c      ****     /* -------------------------------------------------------------------
 2001              		.loc 1 170 0
 2002              		.cfi_startproc
 2003              		@ args = 0, pretend = 0, frame = 0
 2004              		@ frame_needed = 0, uses_anonymous_args = 0
 2005 0000 38B5     		push	{r3, r4, r5, lr}
 2006              		.cfi_def_cfa_offset 16
 2007              		.cfi_offset 3, -16
 2008              		.cfi_offset 4, -12
 2009              		.cfi_offset 5, -8
 2010              		.cfi_offset 14, -4
 174:.\main.c      ****     SPIM_1_Start();                         // initialize SPIM component 
 2011              		.loc 1 174 0
 2012              	@ 174 ".\main.c" 1
 2013 0002 62B6     		CPSIE   i
 2014              	@ 0 "" 2
 175:.\main.c      ****     GUI_Init();                             // initilize graphics library
 2015              		.loc 1 175 0
 2016              		.thumb
 2017 0004 FFF7FEFF 		bl	SPIM_1_Start
 2018              	.LVL318:
 176:.\main.c      ****     ADC_DelSig_1_Start();				    // start the ADC_DelSig_1
 2019              		.loc 1 176 0
 2020 0008 FFF7FEFF 		bl	GUI_Init
 2021              	.LVL319:
ARM GAS  C:\Users\IVYLIU~1\AppData\Local\Temp\ccWSfWRg.s 			page 49


 177:.\main.c      ****     ADC_DelSig_1_StartConvert();		    // start the ADC_DelSig_1 conversion
 2022              		.loc 1 177 0
 2023 000c FFF7FEFF 		bl	ADC_DelSig_1_Start
 2024              	.LVL320:
 178:.\main.c      ****     NP_Start(LED_NUM, pPixelArray, 12.8);   //Start the NeoPixel component (LED_NUM pix, User array
 2025              		.loc 1 178 0
 2026 0010 FFF7FEFF 		bl	ADC_DelSig_1_StartConvert
 2027              	.LVL321:
 179:.\main.c      **** 
 2028              		.loc 1 179 0
 2029 0014 9020     		movs	r0, #144
 2030 0016 5049     		ldr	r1, .L120+8
 2031 0018 4DA3     		adr	r3, .L120
 2032 001a D3E90023 		ldrd	r2, [r3]
 2033 001e FFF7FEFF 		bl	NP_Start
 2034              	.LVL322:
 181:.\main.c      **** 
 2035              		.loc 1 181 0
 2036 0022 0024     		movs	r4, #0
 2037 0024 00E0     		b	.L104
 2038              	.LVL323:
 2039              	.L118:
 240:.\main.c      ****                 break;
 2040              		.loc 1 240 0
 2041 0026 0024     		movs	r4, #0
 2042              	.LVL324:
 2043              	.L104:
 184:.\main.c      ****             case START: // draw start screen
 2044              		.loc 1 184 0
 2045 0028 072C     		cmp	r4, #7
 2046 002a FCD8     		bhi	.L118
 2047 002c 01A3     		adr	r3, .L106
 2048 002e 53F824F0 		ldr	pc, [r3, r4, lsl #2]
 2049 0032 00BF     		.p2align 2
 2050              	.L106:
 2051 0034 55000000 		.word	.L105+1
 2052 0038 5D000000 		.word	.L107+1
 2053 003c 83000000 		.word	.L108+1
 2054 0040 8F000000 		.word	.L109+1
 2055 0044 A3000000 		.word	.L110+1
 2056 0048 C7000000 		.word	.L111+1
 2057 004c 27000000 		.word	.L118+1
 2058 0050 23010000 		.word	.L112+1
 2059              		.p2align 1
 2060              	.L105:
 186:.\main.c      ****                 state = MODE_SELECT; 
 2061              		.loc 1 186 0
 2062 0054 FFF7FEFF 		bl	drawStartScreen
 2063              	.LVL325:
 187:.\main.c      ****                 break;
 2064              		.loc 1 187 0
 2065 0058 0124     		movs	r4, #1
 188:.\main.c      ****             case MODE_SELECT: // wait for mode selection
 2066              		.loc 1 188 0
 2067 005a E5E7     		b	.L104
 2068              	.LVL326:
 2069              	.L107:
ARM GAS  C:\Users\IVYLIU~1\AppData\Local\Temp\ccWSfWRg.s 			page 50


 190:.\main.c      ****                     while(!SW2_Read());
 2070              		.loc 1 190 0
 2071 005c FFF7FEFF 		bl	SW2_Read
 2072              	.LVL327:
 2073 0060 28B9     		cbnz	r0, .L114
 2074              	.L115:
 191:.\main.c      ****                     state = SONG_SELECT;
 2075              		.loc 1 191 0 discriminator 1
 2076 0062 FFF7FEFF 		bl	SW2_Read
 2077              	.LVL328:
 2078 0066 0028     		cmp	r0, #0
 2079 0068 FBD0     		beq	.L115
 192:.\main.c      ****                 } else if (!SW3_Read()) {
 2080              		.loc 1 192 0
 2081 006a 0224     		movs	r4, #2
 2082              	.LVL329:
 2083 006c DCE7     		b	.L104
 2084              	.LVL330:
 2085              	.L114:
 193:.\main.c      ****                     while(!SW3_Read());
 2086              		.loc 1 193 0
 2087 006e FFF7FEFF 		bl	SW3_Read
 2088              	.LVL331:
 2089 0072 0028     		cmp	r0, #0
 2090 0074 D8D1     		bne	.L104
 2091              	.L116:
 194:.\main.c      ****                     state = CALIBRATE_SETUP;
 2092              		.loc 1 194 0 discriminator 1
 2093 0076 FFF7FEFF 		bl	SW3_Read
 2094              	.LVL332:
 2095 007a 0028     		cmp	r0, #0
 2096 007c FBD0     		beq	.L116
 195:.\main.c      ****                 }
 2097              		.loc 1 195 0
 2098 007e 0424     		movs	r4, #4
 2099              	.LVL333:
 2100 0080 D2E7     		b	.L104
 2101              	.LVL334:
 2102              	.L108:
 199:.\main.c      ****                 state = SONG_DONE;
 2103              		.loc 1 199 0
 2104 0082 FFF7FEFF 		bl	drawSongSelection
 2105              	.LVL335:
 2106 0086 FFF7FEFF 		bl	drawPlaySong
 2107              	.LVL336:
 200:.\main.c      ****                 break;
 2108              		.loc 1 200 0
 2109 008a 0324     		movs	r4, #3
 201:.\main.c      ****             case SONG_DONE:
 2110              		.loc 1 201 0
 2111 008c CCE7     		b	.L104
 2112              	.LVL337:
 2113              	.L109:
 203:.\main.c      ****                     while(!SW3_Read());
 2114              		.loc 1 203 0
 2115 008e FFF7FEFF 		bl	SW3_Read
 2116              	.LVL338:
ARM GAS  C:\Users\IVYLIU~1\AppData\Local\Temp\ccWSfWRg.s 			page 51


 2117 0092 0028     		cmp	r0, #0
 2118 0094 C8D1     		bne	.L104
 2119              	.L117:
 204:.\main.c      ****                     state = START;
 2120              		.loc 1 204 0 discriminator 1
 2121 0096 FFF7FEFF 		bl	SW3_Read
 2122              	.LVL339:
 2123 009a 0028     		cmp	r0, #0
 2124 009c FBD0     		beq	.L117
 205:.\main.c      ****                 }
 2125              		.loc 1 205 0
 2126 009e 0024     		movs	r4, #0
 2127              	.LVL340:
 2128 00a0 C2E7     		b	.L104
 2129              	.LVL341:
 2130              	.L110:
 209:.\main.c      ****                 setPixel(80, 0, 100, 100);
 2131              		.loc 1 209 0
 2132 00a2 FFF7FEFF 		bl	drawCalibrateScreen
 2133              	.LVL342:
 210:.\main.c      ****                 setPixel(81, 0, 100, 100);
 2134              		.loc 1 210 0
 2135 00a6 5020     		movs	r0, #80
 2136 00a8 0021     		movs	r1, #0
 2137 00aa 6422     		movs	r2, #100
 2138 00ac 1346     		mov	r3, r2
 2139 00ae FFF7FEFF 		bl	setPixel
 2140              	.LVL343:
 211:.\main.c      ****                 NP_Update();
 2141              		.loc 1 211 0
 2142 00b2 5120     		movs	r0, #81
 2143 00b4 0021     		movs	r1, #0
 2144 00b6 6422     		movs	r2, #100
 2145 00b8 1346     		mov	r3, r2
 2146 00ba FFF7FEFF 		bl	setPixel
 2147              	.LVL344:
 212:.\main.c      ****                 state = CALIBRATE;
 2148              		.loc 1 212 0
 2149 00be FFF7FEFF 		bl	NP_Update
 2150              	.LVL345:
 213:.\main.c      ****                 break;
 2151              		.loc 1 213 0
 2152 00c2 0524     		movs	r4, #5
 214:.\main.c      ****             case CALIBRATE: // calibrate
 2153              		.loc 1 214 0
 2154 00c4 B0E7     		b	.L104
 2155              	.LVL346:
 2156              	.L111:
 217:.\main.c      ****                 
 2157              		.loc 1 217 0
 2158 00c6 FFF7FEFF 		bl	detectNote
 2159              	.LVL347:
 2160 00ca 244D     		ldr	r5, .L120+12
 2161 00cc C5F81402 		str	r0, [r5, #532]
 219:.\main.c      ****                 GUI_SetColor(GUI_BLACK);
 2162              		.loc 1 219 0
 2163 00d0 4FF0FF30 		mov	r0, #-1
ARM GAS  C:\Users\IVYLIU~1\AppData\Local\Temp\ccWSfWRg.s 			page 52


 2164 00d4 FFF7FEFF 		bl	GUI_SetBkColor
 2165              	.LVL348:
 220:.\main.c      ****                 GUI_SetFont(&GUI_Font24B_ASCII);
 2166              		.loc 1 220 0
 2167 00d8 4FF07F40 		mov	r0, #-16777216
 2168 00dc FFF7FEFF 		bl	GUI_SetColor
 2169              	.LVL349:
 221:.\main.c      ****                 GUI_Clear();
 2170              		.loc 1 221 0
 2171 00e0 1F48     		ldr	r0, .L120+16
 2172 00e2 FFF7FEFF 		bl	GUI_SetFont
 2173              	.LVL350:
 222:.\main.c      ****                 
 2174              		.loc 1 222 0
 2175 00e6 FFF7FEFF 		bl	GUI_Clear
 2176              	.LVL351:
 224:.\main.c      ****                 GUI_DispStringHCenterAt(test_string, 120, 160);
 2177              		.loc 1 224 0
 2178 00ea 1E4C     		ldr	r4, .L120+20
 2179              	.LVL352:
 2180 00ec 2046     		mov	r0, r4
 2181 00ee 1E49     		ldr	r1, .L120+24
 2182 00f0 D5F81422 		ldr	r2, [r5, #532]
 2183 00f4 FFF7FEFF 		bl	sprintf
 2184              	.LVL353:
 225:.\main.c      ****                    
 2185              		.loc 1 225 0
 2186 00f8 2046     		mov	r0, r4
 2187 00fa 7821     		movs	r1, #120
 2188 00fc A022     		movs	r2, #160
 2189 00fe FFF7FEFF 		bl	GUI_DispStringHCenterAt
 2190              	.LVL354:
 227:.\main.c      ****                 setPixel(81, 0, 0, 0);
 2191              		.loc 1 227 0
 2192 0102 5020     		movs	r0, #80
 2193 0104 0021     		movs	r1, #0
 2194 0106 0A46     		mov	r2, r1
 2195 0108 0B46     		mov	r3, r1
 2196 010a FFF7FEFF 		bl	setPixel
 2197              	.LVL355:
 228:.\main.c      ****                 NP_Update();
 2198              		.loc 1 228 0
 2199 010e 5120     		movs	r0, #81
 2200 0110 0021     		movs	r1, #0
 2201 0112 0A46     		mov	r2, r1
 2202 0114 0B46     		mov	r3, r1
 2203 0116 FFF7FEFF 		bl	setPixel
 2204              	.LVL356:
 229:.\main.c      ****                 state = START;
 2205              		.loc 1 229 0
 2206 011a FFF7FEFF 		bl	NP_Update
 2207              	.LVL357:
 230:.\main.c      ****                 break;
 2208              		.loc 1 230 0
 2209 011e 0024     		movs	r4, #0
 231:.\main.c      ****             case TESTING:   // currently: testing FFT -> drawing note on tft
 2210              		.loc 1 231 0
ARM GAS  C:\Users\IVYLIU~1\AppData\Local\Temp\ccWSfWRg.s 			page 53


 2211 0120 82E7     		b	.L104
 2212              	.LVL358:
 2213              	.L112:
 233:.\main.c      ****                 GUI_SetColor(GUI_BLACK);
 2214              		.loc 1 233 0
 2215 0122 4FF0FF30 		mov	r0, #-1
 2216 0126 FFF7FEFF 		bl	GUI_SetBkColor
 2217              	.LVL359:
 234:.\main.c      ****                 GUI_Clear();
 2218              		.loc 1 234 0
 2219 012a 4FF07F40 		mov	r0, #-16777216
 2220 012e FFF7FEFF 		bl	GUI_SetColor
 2221              	.LVL360:
 235:.\main.c      ****                 drawClefs();
 2222              		.loc 1 235 0
 2223 0132 FFF7FEFF 		bl	GUI_Clear
 2224              	.LVL361:
 236:.\main.c      ****                 drawNote(getNoteName(detectNote() - middle_c_bin));
 2225              		.loc 1 236 0
 2226 0136 FFF7FEFF 		bl	drawClefs
 2227              	.LVL362:
 237:.\main.c      ****                 break;
 2228              		.loc 1 237 0
 2229 013a FFF7FEFF 		bl	detectNote
 2230              	.LVL363:
 2231 013e 074B     		ldr	r3, .L120+12
 2232 0140 D3F81432 		ldr	r3, [r3, #532]
 2233 0144 C01A     		subs	r0, r0, r3
 2234 0146 FFF7FEFF 		bl	getNoteName
 2235              	.LVL364:
 2236 014a FFF7FEFF 		bl	drawNote
 2237              	.LVL365:
 238:.\main.c      ****             default: // reset if unexpected state
 2238              		.loc 1 238 0
 2239 014e 6BE7     		b	.L104
 2240              	.L121:
 2241              		.align	3
 2242              	.L120:
 2243 0150 9A999999 		.word	-1717986918
 2244 0154 99992940 		.word	1076468121
 2245 0158 00000000 		.word	pPixelArray
 2246 015c 00000000 		.word	.LANCHOR1
 2247 0160 00000000 		.word	GUI_Font24B_ASCII
 2248 0164 00000000 		.word	test_string
 2249 0168 A4010000 		.word	.LC54
 2250              		.cfi_endproc
 2251              	.LFE123:
 2252              		.size	main, .-main
 2253              		.global	songs
 2254              		.global	SONGS_LENGTH
 2255              		.global	SONG1_SEQ
 2256              		.global	SONG0_SEQ
 2257              		.global	notes
 2258              		.comm	testOutput,4096,4
 2259              		.comm	testInput,8192,4
 2260              		.global	middle_c_bin
 2261              		.global	testIndex
ARM GAS  C:\Users\IVYLIU~1\AppData\Local\Temp\ccWSfWRg.s 			page 54


 2262              		.comm	varInstCfftF32,16,4
 2263              		.global	doBitReverse
 2264              		.global	ifftFlag
 2265              		.global	fftSize
 2266              		.global	adcResult
 2267              		.global	offset
 2268              		.global	Deltapower
 2269              		.global	power
 2270              		.comm	pPixelArray,432,4
 2271              		.comm	test_string,16,4
 2272              		.comm	NP_g_nFrameBufferSize,4,4
 2273              		.comm	NP_g_pFrameBuffer,4,4
 2274              		.comm	NP_g_bOwnsBuffer,1,1
 2275              		.comm	NP_g_nDMA_TD,1,1
 2276              		.comm	NP_g_nDMA_Chan,1,1
 2277              		.comm	NP_g_nNumberOfPixels,4,4
 2278 016c AFF30080 		.section	.rodata
 2279              		.align	2
 2280              		.type	SONGS_LENGTH, %object
 2281              		.size	SONGS_LENGTH, 4
 2282              	SONGS_LENGTH:
 2283 0000 02000000 		.word	2
 2284              		.data
 2285              		.align	2
 2286              		.set	.LANCHOR1,. + 0
 2287              		.type	fftSize, %object
 2288              		.size	fftSize, 4
 2289              	fftSize:
 2290 0000 00040000 		.word	1024
 2291              		.type	doBitReverse, %object
 2292              		.size	doBitReverse, 4
 2293              	doBitReverse:
 2294 0004 01000000 		.word	1
 2295              		.type	notes, %object
 2296              		.size	notes, 492
 2297              	notes:
 2298 0008 DC000000 		.word	.LC9
 2299 000c 4DFFFFFF 		.word	-179
 2300 0010 3B000000 		.word	59
 2301 0014 E0000000 		.word	.LC10
 2302 0018 BEFFFFFF 		.word	-66
 2303 001c 3A000000 		.word	58
 2304 0020 E8000000 		.word	.LC12
 2305 0024 C4FFFFFF 		.word	-60
 2306 0028 39000000 		.word	57
 2307 002c EC000000 		.word	.LC13
 2308 0030 CAFFFFFF 		.word	-54
 2309 0034 38000000 		.word	56
 2310 0038 F0000000 		.word	.LC14
 2311 003c CFFFFFFF 		.word	-49
 2312 0040 37000000 		.word	55
 2313 0044 F4000000 		.word	.LC15
 2314 0048 D4FFFFFF 		.word	-44
 2315 004c 36000000 		.word	54
 2316 0050 F8000000 		.word	.LC16
 2317 0054 D8FFFFFF 		.word	-40
 2318 0058 35000000 		.word	53
ARM GAS  C:\Users\IVYLIU~1\AppData\Local\Temp\ccWSfWRg.s 			page 55


 2319 005c FC000000 		.word	.LC17
 2320 0060 DCFFFFFF 		.word	-36
 2321 0064 34000000 		.word	52
 2322 0068 00010000 		.word	.LC18
 2323 006c E0FFFFFF 		.word	-32
 2324 0070 33000000 		.word	51
 2325 0074 04010000 		.word	.LC19
 2326 0078 E4FFFFFF 		.word	-28
 2327 007c 32000000 		.word	50
 2328 0080 08010000 		.word	.LC20
 2329 0084 E8FFFFFF 		.word	-24
 2330 0088 31000000 		.word	49
 2331 008c 0C010000 		.word	.LC21
 2332 0090 EBFFFFFF 		.word	-21
 2333 0094 30000000 		.word	48
 2334 0098 10010000 		.word	.LC22
 2335 009c EEFFFFFF 		.word	-18
 2336 00a0 2F000000 		.word	47
 2337 00a4 14010000 		.word	.LC23
 2338 00a8 F1FFFFFF 		.word	-15
 2339 00ac 2E000000 		.word	46
 2340 00b0 18010000 		.word	.LC24
 2341 00b4 F4FFFFFF 		.word	-12
 2342 00b8 2D000000 		.word	45
 2343 00bc 1C010000 		.word	.LC25
 2344 00c0 F7FFFFFF 		.word	-9
 2345 00c4 2C000000 		.word	44
 2346 00c8 20010000 		.word	.LC26
 2347 00cc F9FFFFFF 		.word	-7
 2348 00d0 2B000000 		.word	43
 2349 00d4 24010000 		.word	.LC27
 2350 00d8 FCFFFFFF 		.word	-4
 2351 00dc 2A000000 		.word	42
 2352 00e0 28010000 		.word	.LC28
 2353 00e4 FEFFFFFF 		.word	-2
 2354 00e8 29000000 		.word	41
 2355 00ec 2C010000 		.word	.LC29
 2356 00f0 00000000 		.word	0
 2357 00f4 28000000 		.word	40
 2358 00f8 30010000 		.word	.LC30
 2359 00fc 02000000 		.word	2
 2360 0100 27000000 		.word	39
 2361 0104 34010000 		.word	.LC31
 2362 0108 00000000 		.word	0
 2363 010c 26000000 		.word	38
 2364 0110 38010000 		.word	.LC32
 2365 0114 00000000 		.word	0
 2366 0118 25000000 		.word	37
 2367 011c 3C010000 		.word	.LC33
 2368 0120 00000000 		.word	0
 2369 0124 24000000 		.word	36
 2370 0128 40010000 		.word	.LC34
 2371 012c 00000000 		.word	0
 2372 0130 23000000 		.word	35
 2373 0134 44010000 		.word	.LC35
 2374 0138 00000000 		.word	0
 2375 013c 22000000 		.word	34
ARM GAS  C:\Users\IVYLIU~1\AppData\Local\Temp\ccWSfWRg.s 			page 56


 2376 0140 48010000 		.word	.LC36
 2377 0144 00000000 		.word	0
 2378 0148 21000000 		.word	33
 2379 014c 4C010000 		.word	.LC37
 2380 0150 00000000 		.word	0
 2381 0154 20000000 		.word	32
 2382 0158 50010000 		.word	.LC38
 2383 015c 00000000 		.word	0
 2384 0160 1F000000 		.word	31
 2385 0164 54010000 		.word	.LC39
 2386 0168 00000000 		.word	0
 2387 016c 1E000000 		.word	30
 2388 0170 58010000 		.word	.LC40
 2389 0174 00000000 		.word	0
 2390 0178 1D000000 		.word	29
 2391 017c 5C010000 		.word	.LC41
 2392 0180 00000000 		.word	0
 2393 0184 1C000000 		.word	28
 2394 0188 60010000 		.word	.LC42
 2395 018c 00000000 		.word	0
 2396 0190 1B000000 		.word	27
 2397 0194 64010000 		.word	.LC43
 2398 0198 00000000 		.word	0
 2399 019c 1A000000 		.word	26
 2400 01a0 68010000 		.word	.LC44
 2401 01a4 00000000 		.word	0
 2402 01a8 19000000 		.word	25
 2403 01ac 6C010000 		.word	.LC45
 2404 01b0 00000000 		.word	0
 2405 01b4 18000000 		.word	24
 2406 01b8 70010000 		.word	.LC46
 2407 01bc 00000000 		.word	0
 2408 01c0 17000000 		.word	23
 2409 01c4 74010000 		.word	.LC47
 2410 01c8 00000000 		.word	0
 2411 01cc 16000000 		.word	22
 2412 01d0 78010000 		.word	.LC48
 2413 01d4 00000000 		.word	0
 2414 01d8 15000000 		.word	21
 2415 01dc 7C010000 		.word	.LC49
 2416 01e0 00000000 		.word	0
 2417 01e4 14000000 		.word	20
 2418 01e8 00000000 		.word	0
 2419 01ec 00000000 		.space	8
 2419      00000000 
 2420              		.type	songs, %object
 2421              		.size	songs, 32
 2422              	songs:
 2423 01f4 00000000 		.word	0
 2424 01f8 B4010000 		.word	.LC55
 2425 01fc 00000000 		.word	SONG0_SEQ
 2426 0200 55000000 		.word	85
 2427 0204 01000000 		.word	1
 2428 0208 C0010000 		.word	.LC56
 2429 020c 00000000 		.word	SONG1_SEQ
 2430 0210 2A000000 		.word	42
 2431              		.type	middle_c_bin, %object
ARM GAS  C:\Users\IVYLIU~1\AppData\Local\Temp\ccWSfWRg.s 			page 57


 2432              		.size	middle_c_bin, 4
 2433              	middle_c_bin:
 2434 0214 DC030000 		.word	988
 2435              		.type	SONG1_SEQ, %object
 2436              		.size	SONG1_SEQ, 168
 2437              	SONG1_SEQ:
 2438 0218 2C010000 		.word	.LC29
 2439 021c 2C010000 		.word	.LC29
 2440 0220 10010000 		.word	.LC22
 2441 0224 10010000 		.word	.LC22
 2442 0228 08010000 		.word	.LC20
 2443 022c 08010000 		.word	.LC20
 2444 0230 10010000 		.word	.LC22
 2445 0234 18010000 		.word	.LC24
 2446 0238 18010000 		.word	.LC24
 2447 023c 1C010000 		.word	.LC25
 2448 0240 1C010000 		.word	.LC25
 2449 0244 24010000 		.word	.LC27
 2450 0248 24010000 		.word	.LC27
 2451 024c 2C010000 		.word	.LC29
 2452 0250 10010000 		.word	.LC22
 2453 0254 10010000 		.word	.LC22
 2454 0258 18010000 		.word	.LC24
 2455 025c 18010000 		.word	.LC24
 2456 0260 1C010000 		.word	.LC25
 2457 0264 1C010000 		.word	.LC25
 2458 0268 24010000 		.word	.LC27
 2459 026c 10010000 		.word	.LC22
 2460 0270 10010000 		.word	.LC22
 2461 0274 18010000 		.word	.LC24
 2462 0278 18010000 		.word	.LC24
 2463 027c 1C010000 		.word	.LC25
 2464 0280 1C010000 		.word	.LC25
 2465 0284 24010000 		.word	.LC27
 2466 0288 2C010000 		.word	.LC29
 2467 028c 2C010000 		.word	.LC29
 2468 0290 10010000 		.word	.LC22
 2469 0294 10010000 		.word	.LC22
 2470 0298 08010000 		.word	.LC20
 2471 029c 08010000 		.word	.LC20
 2472 02a0 10010000 		.word	.LC22
 2473 02a4 18010000 		.word	.LC24
 2474 02a8 18010000 		.word	.LC24
 2475 02ac 1C010000 		.word	.LC25
 2476 02b0 1C010000 		.word	.LC25
 2477 02b4 24010000 		.word	.LC27
 2478 02b8 24010000 		.word	.LC27
 2479 02bc 2C010000 		.word	.LC29
 2480              		.type	SONG0_SEQ, %object
 2481              		.size	SONG0_SEQ, 340
 2482              	SONG0_SEQ:
 2483 02c0 EC000000 		.word	.LC13
 2484 02c4 F0000000 		.word	.LC14
 2485 02c8 EC000000 		.word	.LC13
 2486 02cc F0000000 		.word	.LC14
 2487 02d0 EC000000 		.word	.LC13
 2488 02d4 00010000 		.word	.LC18
ARM GAS  C:\Users\IVYLIU~1\AppData\Local\Temp\ccWSfWRg.s 			page 58


 2489 02d8 F4000000 		.word	.LC15
 2490 02dc FC000000 		.word	.LC17
 2491 02e0 08010000 		.word	.LC20
 2492 02e4 2C010000 		.word	.LC29
 2493 02e8 1C010000 		.word	.LC25
 2494 02ec 08010000 		.word	.LC20
 2495 02f0 00010000 		.word	.LC18
 2496 02f4 1C010000 		.word	.LC25
 2497 02f8 0C010000 		.word	.LC21
 2498 02fc 00010000 		.word	.LC18
 2499 0300 FC000000 		.word	.LC17
 2500 0304 1C010000 		.word	.LC25
 2501 0308 EC000000 		.word	.LC13
 2502 030c F0000000 		.word	.LC14
 2503 0310 EC000000 		.word	.LC13
 2504 0314 F0000000 		.word	.LC14
 2505 0318 EC000000 		.word	.LC13
 2506 031c 00010000 		.word	.LC18
 2507 0320 F4000000 		.word	.LC15
 2508 0324 FC000000 		.word	.LC17
 2509 0328 08010000 		.word	.LC20
 2510 032c 2C010000 		.word	.LC29
 2511 0330 1C010000 		.word	.LC25
 2512 0334 08010000 		.word	.LC20
 2513 0338 00010000 		.word	.LC18
 2514 033c 1C010000 		.word	.LC25
 2515 0340 FC000000 		.word	.LC17
 2516 0344 00010000 		.word	.LC18
 2517 0348 08010000 		.word	.LC20
 2518 034c 00010000 		.word	.LC18
 2519 0350 FC000000 		.word	.LC17
 2520 0354 F4000000 		.word	.LC15
 2521 0358 EC000000 		.word	.LC13
 2522 035c 10010000 		.word	.LC22
 2523 0360 E8000000 		.word	.LC12
 2524 0364 EC000000 		.word	.LC13
 2525 0368 F4000000 		.word	.LC15
 2526 036c 18010000 		.word	.LC24
 2527 0370 EC000000 		.word	.LC13
 2528 0374 F4000000 		.word	.LC15
 2529 0378 FC000000 		.word	.LC17
 2530 037c 1C010000 		.word	.LC25
 2531 0380 F4000000 		.word	.LC15
 2532 0384 FC000000 		.word	.LC17
 2533 0388 00010000 		.word	.LC18
 2534 038c EC000000 		.word	.LC13
 2535 0390 F0000000 		.word	.LC14
 2536 0394 EC000000 		.word	.LC13
 2537 0398 F0000000 		.word	.LC14
 2538 039c EC000000 		.word	.LC13
 2539 03a0 00010000 		.word	.LC18
 2540 03a4 F4000000 		.word	.LC15
 2541 03a8 FC000000 		.word	.LC17
 2542 03ac 08010000 		.word	.LC20
 2543 03b0 2C010000 		.word	.LC29
 2544 03b4 1C010000 		.word	.LC25
 2545 03b8 08010000 		.word	.LC20
ARM GAS  C:\Users\IVYLIU~1\AppData\Local\Temp\ccWSfWRg.s 			page 59


 2546 03bc 00010000 		.word	.LC18
 2547 03c0 1C010000 		.word	.LC25
 2548 03c4 0C010000 		.word	.LC21
 2549 03c8 00010000 		.word	.LC18
 2550 03cc FC000000 		.word	.LC17
 2551 03d0 1C010000 		.word	.LC25
 2552 03d4 EC000000 		.word	.LC13
 2553 03d8 F0000000 		.word	.LC14
 2554 03dc EC000000 		.word	.LC13
 2555 03e0 F0000000 		.word	.LC14
 2556 03e4 EC000000 		.word	.LC13
 2557 03e8 00010000 		.word	.LC18
 2558 03ec F4000000 		.word	.LC15
 2559 03f0 FC000000 		.word	.LC17
 2560 03f4 08010000 		.word	.LC20
 2561 03f8 2C010000 		.word	.LC29
 2562 03fc 1C010000 		.word	.LC25
 2563 0400 08010000 		.word	.LC20
 2564 0404 00010000 		.word	.LC18
 2565 0408 1C010000 		.word	.LC25
 2566 040c FC000000 		.word	.LC17
 2567 0410 08010000 		.word	.LC20
 2568              		.type	Deltapower, %object
 2569              		.size	Deltapower, 4
 2570              	Deltapower:
 2571 0414 0AD7A33B 		.word	1000593162
 2572              		.type	power, %object
 2573              		.size	power, 4
 2574              	power:
 2575 0418 0000803F 		.word	1065353216
 2576              		.section	.rodata.str1.4,"aMS",%progbits,1
 2577              		.align	2
 2578              	.LC0:
 2579 0000 556E7265 		.ascii	"Unrecognized note\000"
 2579      636F676E 
 2579      697A6564 
 2579      206E6F74 
 2579      6500
 2580 0012 0000     		.space	2
 2581              	.LC1:
 2582 0014 536F6E67 		.ascii	"Song Selection\000"
 2582      2053656C 
 2582      65637469 
 2582      6F6E00
 2583 0023 00       		.space	1
 2584              	.LC2:
 2585 0024 50726573 		.ascii	"Press SW2 for next option.\000"
 2585      73205357 
 2585      3220666F 
 2585      72206E65 
 2585      7874206F 
 2586 003f 00       		.space	1
 2587              	.LC3:
 2588 0040 50726573 		.ascii	"Press SW3 to confirm selection.\000"
 2588      73205357 
 2588      3320746F 
 2588      20636F6E 
ARM GAS  C:\Users\IVYLIU~1\AppData\Local\Temp\ccWSfWRg.s 			page 60


 2588      6669726D 
 2589              	.LC4:
 2590 0060 536F6E67 		.ascii	"Song Selected!\000"
 2590      2053656C 
 2590      65637465 
 2590      642100
 2591 006f 00       		.space	1
 2592              	.LC5:
 2593 0070 4C696E65 		.ascii	"Line up lit LEDs over\012the middle C key.\012Press"
 2593      20757020 
 2593      6C697420 
 2593      4C454473 
 2593      206F7665 
 2594 009d 20535733 		.ascii	" SW3 when done.\000"
 2594      20776865 
 2594      6E20646F 
 2594      6E652E00 
 2595 00ad 000000   		.space	3
 2596              	.LC6:
 2597 00b0 57656C63 		.ascii	"Welcome to\012Piano Tiles!\000"
 2597      6F6D6520 
 2597      746F0A50 
 2597      69616E6F 
 2597      2054696C 
 2598              	.LC7:
 2599 00c8 506C6179 		.ascii	"Play\000"
 2599      00
 2600 00cd 000000   		.space	3
 2601              	.LC8:
 2602 00d0 43616C69 		.ascii	"Calibrate\000"
 2602      62726174 
 2602      6500
 2603 00da 0000     		.space	2
 2604              	.LC9:
 2605 00dc 473500   		.ascii	"G5\000"
 2606 00df 00       		.space	1
 2607              	.LC10:
 2608 00e0 46233500 		.ascii	"F#5\000"
 2609              	.LC11:
 2610 00e4 2300     		.ascii	"#\000"
 2611 00e6 0000     		.space	2
 2612              	.LC12:
 2613 00e8 463500   		.ascii	"F5\000"
 2614 00eb 00       		.space	1
 2615              	.LC13:
 2616 00ec 453500   		.ascii	"E5\000"
 2617 00ef 00       		.space	1
 2618              	.LC14:
 2619 00f0 44233500 		.ascii	"D#5\000"
 2620              	.LC15:
 2621 00f4 443500   		.ascii	"D5\000"
 2622 00f7 00       		.space	1
 2623              	.LC16:
 2624 00f8 43233500 		.ascii	"C#5\000"
 2625              	.LC17:
 2626 00fc 433500   		.ascii	"C5\000"
 2627 00ff 00       		.space	1
ARM GAS  C:\Users\IVYLIU~1\AppData\Local\Temp\ccWSfWRg.s 			page 61


 2628              	.LC18:
 2629 0100 423400   		.ascii	"B4\000"
 2630 0103 00       		.space	1
 2631              	.LC19:
 2632 0104 41233400 		.ascii	"A#4\000"
 2633              	.LC20:
 2634 0108 413400   		.ascii	"A4\000"
 2635 010b 00       		.space	1
 2636              	.LC21:
 2637 010c 47233400 		.ascii	"G#4\000"
 2638              	.LC22:
 2639 0110 473400   		.ascii	"G4\000"
 2640 0113 00       		.space	1
 2641              	.LC23:
 2642 0114 46233400 		.ascii	"F#4\000"
 2643              	.LC24:
 2644 0118 463400   		.ascii	"F4\000"
 2645 011b 00       		.space	1
 2646              	.LC25:
 2647 011c 453400   		.ascii	"E4\000"
 2648 011f 00       		.space	1
 2649              	.LC26:
 2650 0120 44233400 		.ascii	"D#4\000"
 2651              	.LC27:
 2652 0124 443400   		.ascii	"D4\000"
 2653 0127 00       		.space	1
 2654              	.LC28:
 2655 0128 43233400 		.ascii	"C#4\000"
 2656              	.LC29:
 2657 012c 433400   		.ascii	"C4\000"
 2658 012f 00       		.space	1
 2659              	.LC30:
 2660 0130 423300   		.ascii	"B3\000"
 2661 0133 00       		.space	1
 2662              	.LC31:
 2663 0134 41233300 		.ascii	"A#3\000"
 2664              	.LC32:
 2665 0138 413300   		.ascii	"A3\000"
 2666 013b 00       		.space	1
 2667              	.LC33:
 2668 013c 47233300 		.ascii	"G#3\000"
 2669              	.LC34:
 2670 0140 473300   		.ascii	"G3\000"
 2671 0143 00       		.space	1
 2672              	.LC35:
 2673 0144 46233300 		.ascii	"F#3\000"
 2674              	.LC36:
 2675 0148 463300   		.ascii	"F3\000"
 2676 014b 00       		.space	1
 2677              	.LC37:
 2678 014c 453300   		.ascii	"E3\000"
 2679 014f 00       		.space	1
 2680              	.LC38:
 2681 0150 44233300 		.ascii	"D#3\000"
 2682              	.LC39:
 2683 0154 443300   		.ascii	"D3\000"
 2684 0157 00       		.space	1
ARM GAS  C:\Users\IVYLIU~1\AppData\Local\Temp\ccWSfWRg.s 			page 62


 2685              	.LC40:
 2686 0158 43233300 		.ascii	"C#3\000"
 2687              	.LC41:
 2688 015c 433300   		.ascii	"C3\000"
 2689 015f 00       		.space	1
 2690              	.LC42:
 2691 0160 423200   		.ascii	"B2\000"
 2692 0163 00       		.space	1
 2693              	.LC43:
 2694 0164 41233200 		.ascii	"A#2\000"
 2695              	.LC44:
 2696 0168 413200   		.ascii	"A2\000"
 2697 016b 00       		.space	1
 2698              	.LC45:
 2699 016c 47233200 		.ascii	"G#2\000"
 2700              	.LC46:
 2701 0170 473200   		.ascii	"G2\000"
 2702 0173 00       		.space	1
 2703              	.LC47:
 2704 0174 46233200 		.ascii	"F#2\000"
 2705              	.LC48:
 2706 0178 463200   		.ascii	"F2\000"
 2707 017b 00       		.space	1
 2708              	.LC49:
 2709 017c 453200   		.ascii	"E2\000"
 2710 017f 00       		.space	1
 2711              	.LC50:
 2712 0180 496E7661 		.ascii	"Invalid!\000"
 2712      6C696421 
 2712      00
 2713 0189 000000   		.space	3
 2714              	.LC51:
 2715 018c 256400   		.ascii	"%d\000"
 2716 018f 00       		.space	1
 2717              	.LC52:
 2718 0190 53636F72 		.ascii	"Score\000"
 2718      6500
 2719 0196 0000     		.space	2
 2720              	.LC53:
 2721 0198 57656C6C 		.ascii	"Well Done!\000"
 2721      20446F6E 
 2721      652100
 2722 01a3 00       		.space	1
 2723              	.LC54:
 2724 01a4 4D696464 		.ascii	"Middle C Bin\012%d\000"
 2724      6C652043 
 2724      2042696E 
 2724      0A256400 
 2725              	.LC55:
 2726 01b4 46757220 		.ascii	"Fur Elise\000"
 2726      456C6973 
 2726      6500
 2727 01be 0000     		.space	2
 2728              	.LC56:
 2729 01c0 5477696E 		.ascii	"Twinkle, Twinkle,\012Little Star\000"
 2729      6B6C652C 
 2729      20547769 
ARM GAS  C:\Users\IVYLIU~1\AppData\Local\Temp\ccWSfWRg.s 			page 63


 2729      6E6B6C65 
 2729      2C0A4C69 
 2730 01de 0000     		.bss
 2731              		.align	2
 2732              		.set	.LANCHOR0,. + 0
 2733              		.type	adcResult, %object
 2734              		.size	adcResult, 4
 2735              	adcResult:
 2736 0000 00000000 		.space	4
 2737              		.type	ifftFlag, %object
 2738              		.size	ifftFlag, 4
 2739              	ifftFlag:
 2740 0004 00000000 		.space	4
 2741              		.type	testIndex, %object
 2742              		.size	testIndex, 4
 2743              	testIndex:
 2744 0008 00000000 		.space	4
 2745              		.type	offset, %object
 2746              		.size	offset, 4
 2747              	offset:
 2748 000c 00000000 		.space	4
 2749              		.text
 2750              	.Letext0:
 2751              		.file 2 "c:\\program files (x86)\\cypress\\psoc creator\\3.3\\psoc creator\\import\\gnu\\arm\\4.9.
 2752              		.file 3 "c:\\program files (x86)\\cypress\\psoc creator\\3.3\\psoc creator\\import\\gnu\\arm\\4.9.
 2753              		.file 4 "Generated_Source\\PSoC5/cytypes.h"
 2754              		.file 5 "..\\emWinGraphics_v5_46\\Code\\Include\\PSoC4_5/LCD.h"
 2755              		.file 6 "..\\emWinGraphics_v5_46\\Code\\Include\\PSoC4_5/GUI_Type.h"
 2756              		.file 7 ".\\DSP\\Include/arm_math_types.h"
 2757              		.file 8 ".\\DSP\\Include/dsp/transform_functions.h"
 2758              		.file 9 "Generated_Source\\PSoC5/NP_funcs.h"
 2759              		.file 10 ".\\Core\\Include/cmsis_gcc.h"
 2760              		.file 11 ".\\Core\\Include/core_cm3.h"
 2761              		.file 12 "..\\emWinGraphics_v5_46\\Code\\Include\\PSoC4_5/GUI.h"
 2762              		.file 13 ".\\DSP\\Include/dsp/complex_math_functions.h"
 2763              		.file 14 ".\\DSP\\Include/dsp/statistics_functions.h"
 2764              		.file 15 "Generated_Source\\PSoC5/adc_threshold.h"
 2765              		.file 16 "Generated_Source\\PSoC5/CyLib.h"
 2766              		.file 17 "Generated_Source\\PSoC5/ADC_DelSig_1.h"
 2767              		.file 18 "Generated_Source\\PSoC5/SW2.h"
 2768              		.file 19 "Generated_Source\\PSoC5/SW3.h"
 2769              		.file 20 "c:\\program files (x86)\\cypress\\psoc creator\\3.3\\psoc creator\\import\\gnu\\arm\\4.9
 2770              		.file 21 "c:\\program files (x86)\\cypress\\psoc creator\\3.3\\psoc creator\\import\\gnu\\arm\\4.9
 2771              		.file 22 "Generated_Source\\PSoC5/SPIM_1.h"