ARM GAS  C:\Users\IVYLIU~1\AppData\Local\Temp\ccWSfWRg.s 			page 1


   1              		.syntax unified
   2              		.cpu cortex-m3
   3              		.fpu softvfp
   4              		.eabi_attribute 20, 1
   5              		.eabi_attribute 21, 1
   6              		.eabi_attribute 23, 3
   7              		.eabi_attribute 24, 1
   8              		.eabi_attribute 25, 1
   9              		.eabi_attribute 26, 1
  10              		.eabi_attribute 30, 1
  11              		.eabi_attribute 34, 1
  12              		.eabi_attribute 18, 4
  13              		.thumb
  14              		.file	"main.c"
  15              		.text
  16              	.Ltext0:
  17              		.cfi_sections	.debug_frame
  18              		.section	.text.MainTask,"ax",%progbits
  19              		.align	2
  20              		.global	MainTask
  21              		.thumb
  22              		.thumb_func
  23              		.type	MainTask, %function
  24              	MainTask:
  25              	.LFB124:
  26              		.file 1 ".\\main.c"
   1:.\main.c      **** /* ========================================
   2:.\main.c      ****  *
   3:.\main.c      ****  * Copyright YOUR COMPANY, THE YEAR
   4:.\main.c      ****  * All Rights Reserved
   5:.\main.c      ****  * UNPUBLISHED, LICENSED SOFTWARE.
   6:.\main.c      ****  *
   7:.\main.c      ****  * CONFIDENTIAL AND PROPRIETARY INFORMATION
   8:.\main.c      ****  * WHICH IS THE PROPERTY OF your company.
   9:.\main.c      ****  *
  10:.\main.c      ****  * ========================================
  11:.\main.c      **** */
  12:.\main.c      **** #include <project.h>
  13:.\main.c      **** #include <stdio.h>
  14:.\main.c      **** #include "GUI.h"
  15:.\main.c      **** #include "arm_math.h"
  16:.\main.c      **** #include <arm_const_structs.h>
  17:.\main.c      **** #include "tft.h"
  18:.\main.c      **** #include "math.h"
  19:.\main.c      **** 
  20:.\main.c      **** char test_string[16]; // TODO: remove, for writing test values to for display
  21:.\main.c      **** /* ------------------------------------------------------------------
  22:.\main.c      **** * Global variables for LEDs
  23:.\main.c      **** * ------------------------------------------------------------------- */
  24:.\main.c      **** #define LED_NUM 144
  25:.\main.c      **** //Allocate an array for LED_NUM NeoPixels
  26:.\main.c      **** unsigned char pPixelArray[LED_NUM*3];
  27:.\main.c      **** //Set up some variables for animation code
  28:.\main.c      **** float power = 1;
  29:.\main.c      **** float Deltapower = 0.005;
  30:.\main.c      **** float offset = 0;
  31:.\main.c      **** 
ARM GAS  C:\Users\IVYLIU~1\AppData\Local\Temp\ccWSfWRg.s 			page 2


  32:.\main.c      **** void setPixel(int i, int r, int b, int g);
  33:.\main.c      **** 
  34:.\main.c      **** /* ------------------------------------------------------------------
  35:.\main.c      **** * Global variables for FFT Bins
  36:.\main.c      **** * ------------------------------------------------------------------- */
  37:.\main.c      **** uint32_t adcResult = 0;
  38:.\main.c      **** #define TEST_LENGTH_SAMPLES 2048
  39:.\main.c      **** uint32_t fftSize = 1024;            // number of bins
  40:.\main.c      **** uint32_t ifftFlag = 0;
  41:.\main.c      **** uint32_t doBitReverse = 1;
  42:.\main.c      **** arm_cfft_instance_f32 varInstCfftF32;
  43:.\main.c      **** uint32_t testIndex = 0;
  44:.\main.c      **** int middle_c_bin = 988;
  45:.\main.c      **** 
  46:.\main.c      **** float32_t testInput[TEST_LENGTH_SAMPLES];
  47:.\main.c      **** float32_t testOutput[TEST_LENGTH_SAMPLES/2];
  48:.\main.c      **** int detectNote(void);
  49:.\main.c      **** 
  50:.\main.c      **** /* ------------------------------------------------------------------
  51:.\main.c      **** * Global variables for TFT Display
  52:.\main.c      **** * ------------------------------------------------------------------- */
  53:.\main.c      **** #define TOP_MARGIN 20
  54:.\main.c      **** #define SCREEN_WIDTH 240
  55:.\main.c      **** #define RIGHT_MARGIN SCREEN_WIDTH - TOP_MARGIN
  56:.\main.c      **** #define BAR_SPACING 15
  57:.\main.c      **** #define NOTE_SPACING BAR_SPACING/2
  58:.\main.c      **** #define BETWEEN_CLEFS BAR_SPACING*3
  59:.\main.c      **** #define LINE_NUM 5
  60:.\main.c      **** #define LOWER_OFFSET BAR_SPACING*LINE_NUM + BETWEEN_CLEFS
  61:.\main.c      **** #define NOTE_WIDTH 12
  62:.\main.c      **** #define NOTE_HEIGHT 8
  63:.\main.c      **** enum States {
  64:.\main.c      ****     START,
  65:.\main.c      ****     MODE_SELECT,
  66:.\main.c      ****     SONG_SELECT,
  67:.\main.c      ****     SONG_DONE,
  68:.\main.c      ****     CALIBRATE_SETUP,
  69:.\main.c      ****     CALIBRATE,
  70:.\main.c      ****     RESET,
  71:.\main.c      ****     TESTING
  72:.\main.c      **** }; 
  73:.\main.c      **** 
  74:.\main.c      **** struct Notes
  75:.\main.c      **** {
  76:.\main.c      ****     const char *name;
  77:.\main.c      ****     int offset;             //fft offset from midde C/C4
  78:.\main.c      ****     int key_num;            //key number on piano, TODO: use less memory by changing from strings t
  79:.\main.c      **** };
  80:.\main.c      **** 
  81:.\main.c      **** void MainTask(void);
  82:.\main.c      **** void drawClefs(void);
  83:.\main.c      **** void drawNote(char* input_name);
  84:.\main.c      **** char* getNoteName(int input_offset);
  85:.\main.c      **** void drawStartScreen(void);
  86:.\main.c      **** void drawCalibrateScreen(void);
  87:.\main.c      **** int drawSongSelection(void);
  88:.\main.c      **** void drawPlaySong(int song_index);
ARM GAS  C:\Users\IVYLIU~1\AppData\Local\Temp\ccWSfWRg.s 			page 3


  89:.\main.c      **** 
  90:.\main.c      **** //https://stackoverflow.com/questions/47880223/how-to-programmatically-map-integers-to-const-string
  91:.\main.c      **** // offset = cur_freq - middle_c_freq
  92:.\main.c      **** struct Notes notes[] = {
  93:.\main.c      ****     { .offset = -179,  .name = "G5", .key_num = 59},
  94:.\main.c      ****     { .offset = -66,  .name = "F#5", .key_num = 58},
  95:.\main.c      ****     { .offset = -60,  .name = "F5", .key_num = 57},
  96:.\main.c      ****     { .offset = -54,  .name = "E5", .key_num = 56},
  97:.\main.c      ****     { .offset = -49,  .name = "D#5", .key_num = 55},
  98:.\main.c      ****     { .offset = -44,  .name = "D5", .key_num = 54},
  99:.\main.c      ****     { .offset = -40,  .name = "C#5", .key_num = 53},
 100:.\main.c      ****     { .offset = -36,  .name = "C5", .key_num = 52},
 101:.\main.c      ****     { .offset = -32,  .name = "B4", .key_num = 51},
 102:.\main.c      ****     { .offset = -28,  .name = "A#4", .key_num = 50},
 103:.\main.c      ****     { .offset = -24,  .name = "A4", .key_num = 49},
 104:.\main.c      ****     { .offset = -21,  .name = "G#4", .key_num = 48},
 105:.\main.c      ****     { .offset = -18,  .name = "G4", .key_num = 47},
 106:.\main.c      ****     { .offset = -15,  .name = "F#4", .key_num = 46},
 107:.\main.c      ****     { .offset = -12,  .name = "F4", .key_num = 45},
 108:.\main.c      ****     { .offset = -9,  .name = "E4", .key_num = 44},
 109:.\main.c      ****     { .offset = -7,  .name = "D#4", .key_num = 43},
 110:.\main.c      ****     { .offset = -4,  .name = "D4", .key_num = 42},
 111:.\main.c      ****     { .offset = -2,  .name = "C#4", .key_num = 41},
 112:.\main.c      ****     { .offset = 0,  .name = "C4", .key_num = 40},   // Middle C, 988 Hz
 113:.\main.c      ****     { .offset = 2,  .name = "B3", .key_num = 39},
 114:.\main.c      ****     { .offset = 0,  .name = "A#3", .key_num = 38},
 115:.\main.c      ****     { .offset = 0,  .name = "A3", .key_num = 37},
 116:.\main.c      ****     { .offset = 0,  .name = "G#3", .key_num = 36},
 117:.\main.c      ****     { .offset = 0,  .name = "G3", .key_num = 35},
 118:.\main.c      ****     { .offset = 0,  .name = "F#3", .key_num = 34},
 119:.\main.c      ****     { .offset = 0,  .name = "F3", .key_num = 33},
 120:.\main.c      ****     { .offset = 0,  .name = "E3", .key_num = 32},
 121:.\main.c      ****     { .offset = 0,  .name = "D#3", .key_num = 31},
 122:.\main.c      ****     { .offset = 0,  .name = "D3", .key_num = 30},
 123:.\main.c      ****     { .offset = 0,  .name = "C#3", .key_num = 29},
 124:.\main.c      ****     { .offset = 0,  .name = "C3", .key_num = 28},
 125:.\main.c      ****     { .offset = 0,  .name = "B2", .key_num = 27},
 126:.\main.c      ****     { .offset = 0,  .name = "A#2", .key_num = 26},
 127:.\main.c      ****     { .offset = 0,  .name = "A2", .key_num = 25},
 128:.\main.c      ****     { .offset = 0,  .name = "G#2", .key_num = 24},
 129:.\main.c      ****     { .offset = 0,  .name = "G2", .key_num = 23},
 130:.\main.c      ****     { .offset = 0,  .name = "F#2", .key_num = 22},
 131:.\main.c      ****     { .offset = 0,  .name = "F2", .key_num = 21},
 132:.\main.c      ****     { .offset = 0,  .name = "E2", .key_num = 20},
 133:.\main.c      ****     { .name = NULL }
 134:.\main.c      **** };
 135:.\main.c      **** 
 136:.\main.c      **** struct Songs
 137:.\main.c      **** {
 138:.\main.c      ****     const int song_number;
 139:.\main.c      ****     const char *name;
 140:.\main.c      ****     const char **note_seq;
 141:.\main.c      ****     const int song_length;
 142:.\main.c      **** };
 143:.\main.c      **** 
 144:.\main.c      **** const char *SONG0_SEQ[] = 
 145:.\main.c      ****     {"E5", "D#5", "E5", "D#5", "E5", "B4", "D5", "C5",
ARM GAS  C:\Users\IVYLIU~1\AppData\Local\Temp\ccWSfWRg.s 			page 4


 146:.\main.c      ****      "A4", "C4", "E4", "A4", "B4", "E4", "G#4", "B4",
 147:.\main.c      ****      "C5", "E4", "E5", "D#5", "E5", "D#5", "E5", "B4", "D5", "C5", "A4", "C4", "E4", "A4",
 148:.\main.c      ****      "B4", "E4", "C5", "B4", "A4", "B4", "C5", "D5",
 149:.\main.c      ****      "E5", "G4", "F5", "E5", "D5", "F4", "E5", "D5", "C5", "E4", "D5", "C5",
 150:.\main.c      ****      "B4", "E5", "D#5", "E5", "D#5", "E5", "B4", "D5", "C5", "A4", "C4", "E4", "A4",
 151:.\main.c      ****      "B4", "E4", "G#4", "B4", "C5", "E4", "E5", "D#5", "E5", "D#5", "E5", "B4", "D5", "C5",
 152:.\main.c      ****      "A4", "C4", "E4", "A4", "B4", "E4", "C5", "A4"
 153:.\main.c      ****     };
 154:.\main.c      **** const char *SONG1_SEQ[] = 
 155:.\main.c      ****     {"C4", "C4", "G4", "G4", "A4", "A4", "G4",
 156:.\main.c      ****      "F4", "F4", "E4", "E4", "D4", "D4", "C4",
 157:.\main.c      ****      "G4", "G4", "F4", "F4", "E4", "E4", "D4",
 158:.\main.c      ****      "G4", "G4", "F4", "F4", "E4", "E4", "D4",
 159:.\main.c      ****      "C4", "C4", "G4", "G4", "A4", "A4", "G4",
 160:.\main.c      ****      "F4", "F4", "E4", "E4", "D4", "D4", "C4"
 161:.\main.c      ****     };
 162:.\main.c      **** 
 163:.\main.c      **** const int SONGS_LENGTH = 2;
 164:.\main.c      **** struct Songs songs[] = {
 165:.\main.c      ****     { .song_number = 0, .name = "Fur Elise", .note_seq = SONG0_SEQ, .song_length = 85},
 166:.\main.c      ****     { .song_number = 1, .name = "Twinkle, Twinkle,\nLittle Star", .note_seq = SONG1_SEQ, .song_leng
 167:.\main.c      **** };
 168:.\main.c      **** 
 169:.\main.c      **** int main()
 170:.\main.c      **** {
 171:.\main.c      ****     /* -------------------------------------------------------------------
 172:.\main.c      ****     * External Input and Output buffer Declarations for FFT Bin Example
 173:.\main.c      ****     * ------------------------------------------------------------------- */
 174:.\main.c      ****     CyGlobalIntEnable;                      // Enable global interrupts
 175:.\main.c      ****     SPIM_1_Start();                         // initialize SPIM component 
 176:.\main.c      ****     GUI_Init();                             // initilize graphics library
 177:.\main.c      ****     ADC_DelSig_1_Start();				    // start the ADC_DelSig_1
 178:.\main.c      ****     ADC_DelSig_1_StartConvert();		    // start the ADC_DelSig_1 conversion
 179:.\main.c      ****     NP_Start(LED_NUM, pPixelArray, 12.8);   //Start the NeoPixel component (LED_NUM pix, User array
 180:.\main.c      **** 
 181:.\main.c      ****     int state = START;
 182:.\main.c      **** 
 183:.\main.c      ****     for(;;) {
 184:.\main.c      ****         switch (state) {
 185:.\main.c      ****             case START: // draw start screen
 186:.\main.c      ****                 drawStartScreen();
 187:.\main.c      ****                 state = MODE_SELECT; 
 188:.\main.c      ****                 break;
 189:.\main.c      ****             case MODE_SELECT: // wait for mode selection
 190:.\main.c      ****                 if (!SW2_Read()) {
 191:.\main.c      ****                     while(!SW2_Read());
 192:.\main.c      ****                     state = SONG_SELECT;
 193:.\main.c      ****                 } else if (!SW3_Read()) {
 194:.\main.c      ****                     while(!SW3_Read());
 195:.\main.c      ****                     state = CALIBRATE_SETUP;
 196:.\main.c      ****                 }
 197:.\main.c      ****                 break;
 198:.\main.c      ****             case SONG_SELECT: // draw song selection and song
 199:.\main.c      ****                 drawPlaySong(drawSongSelection());
 200:.\main.c      ****                 state = SONG_DONE;
 201:.\main.c      ****                 break;
 202:.\main.c      ****             case SONG_DONE:
ARM GAS  C:\Users\IVYLIU~1\AppData\Local\Temp\ccWSfWRg.s 			page 5


 203:.\main.c      ****                 if (!SW3_Read()) {
 204:.\main.c      ****                     while(!SW3_Read());
 205:.\main.c      ****                     state = START;
 206:.\main.c      ****                 }
 207:.\main.c      ****                 break;
 208:.\main.c      ****             case CALIBRATE_SETUP:
 209:.\main.c      ****                 drawCalibrateScreen();
 210:.\main.c      ****                 setPixel(80, 0, 100, 100);
 211:.\main.c      ****                 setPixel(81, 0, 100, 100);
 212:.\main.c      ****                 NP_Update();
 213:.\main.c      ****                 state = CALIBRATE;
 214:.\main.c      ****                 break;
 215:.\main.c      ****             case CALIBRATE: // calibrate
 216:.\main.c      ****                 // TODO: change to trigger on playing middle C
 217:.\main.c      ****                 middle_c_bin = detectNote();
 218:.\main.c      ****                 
 219:.\main.c      ****                 GUI_SetBkColor(GUI_WHITE);
 220:.\main.c      ****                 GUI_SetColor(GUI_BLACK);
 221:.\main.c      ****                 GUI_SetFont(&GUI_Font24B_ASCII);
 222:.\main.c      ****                 GUI_Clear();
 223:.\main.c      ****                 
 224:.\main.c      ****                 sprintf(test_string, "Middle C Bin\n%d", middle_c_bin);
 225:.\main.c      ****                 GUI_DispStringHCenterAt(test_string, 120, 160);
 226:.\main.c      ****                    
 227:.\main.c      ****                 setPixel(80, 0, 0, 0);
 228:.\main.c      ****                 setPixel(81, 0, 0, 0);
 229:.\main.c      ****                 NP_Update();
 230:.\main.c      ****                 state = START;
 231:.\main.c      ****                 break;
 232:.\main.c      ****             case TESTING:   // currently: testing FFT -> drawing note on tft
 233:.\main.c      ****                 GUI_SetBkColor(GUI_WHITE);
 234:.\main.c      ****                 GUI_SetColor(GUI_BLACK);
 235:.\main.c      ****                 GUI_Clear();
 236:.\main.c      ****                 drawClefs();
 237:.\main.c      ****                 drawNote(getNoteName(detectNote() - middle_c_bin));
 238:.\main.c      ****                 break;
 239:.\main.c      ****             default: // reset if unexpected state
 240:.\main.c      ****                 state = START;
 241:.\main.c      ****                 break;
 242:.\main.c      ****         }
 243:.\main.c      ****     }                             
 244:.\main.c      **** }
 245:.\main.c      **** 
 246:.\main.c      **** void MainTask()
 247:.\main.c      **** {
  27              		.loc 1 247 0
  28              		.cfi_startproc
  29              		@ args = 0, pretend = 0, frame = 0
  30              		@ frame_needed = 0, uses_anonymous_args = 0
  31              		@ link register save eliminated.
  32 0000 7047     		bx	lr
  33              		.cfi_endproc
  34              	.LFE124:
  35              		.size	MainTask, .-MainTask
  36 0002 00BF     		.section	.text.setPixel,"ax",%progbits
  37              		.align	2
  38              		.global	setPixel
ARM GAS  C:\Users\IVYLIU~1\AppData\Local\Temp\ccWSfWRg.s 			page 6


  39              		.thumb
  40              		.thumb_func
  41              		.type	setPixel, %function
  42              	setPixel:
  43              	.LFB125:
 248:.\main.c      ****     /// Function: Display Each Note (for testing purposes)
 249:.\main.c      ****     // GUI_SetBkColor(GUI_WHITE);
 250:.\main.c      ****     // GUI_SetColor(GUI_BLACK);
 251:.\main.c      ****     // GUI_Clear();
 252:.\main.c      ****     // char *note_names[] = 
 253:.\main.c      ****     //     {"G5", "F#5", "F5", "E5", "D#5", "D5", "C#5", "C5",
 254:.\main.c      ****     //      "B4", "A#4", "A4", "G#4", "G4", "F#4", "F4", "E4",
 255:.\main.c      ****     //      "D#4", "D4", "C#4", "C4", "B3", "A#3", "A3", "G#3",
 256:.\main.c      ****     //      "G3", "F#3", "F3", "E3", "D#3", "D3", "C#3", "C3", 
 257:.\main.c      ****     //      "B2", "A#2", "A2", "G#2", "G2", "F#2", "F2", "E2"};
 258:.\main.c      ****     
 259:.\main.c      ****     // int i = 0;
 260:.\main.c      ****     // for(;i < 40; i++) {
 261:.\main.c      ****     //     GUI_Clear();
 262:.\main.c      ****     //     drawClefs();
 263:.\main.c      ****     //     drawNote(note_names[i]);
 264:.\main.c      ****     //     CyDelay(1000);
 265:.\main.c      ****     // }
 266:.\main.c      ****     ///
 267:.\main.c      **** }
 268:.\main.c      **** 
 269:.\main.c      **** void setPixel(int i, int r, int g, int b) {
  44              		.loc 1 269 0
  45              		.cfi_startproc
  46              		@ args = 0, pretend = 0, frame = 0
  47              		@ frame_needed = 0, uses_anonymous_args = 0
  48              		@ link register save eliminated.
  49              	.LVL0:
  50              		.loc 1 269 0
  51 0000 10B4     		push	{r4}
  52              		.cfi_def_cfa_offset 4
  53              		.cfi_offset 4, -4
 270:.\main.c      ****     //Compute Green Component
 271:.\main.c      ****     pPixelArray[i*3] = g;
  54              		.loc 1 271 0
  55 0002 00EB4000 		add	r0, r0, r0, lsl #1
  56              	.LVL1:
  57 0006 044C     		ldr	r4, .L4
  58 0008 2254     		strb	r2, [r4, r0]
 272:.\main.c      ****     //Compute Red Component
 273:.\main.c      ****     pPixelArray[1+i*3] = r;
  59              		.loc 1 273 0
  60 000a 421C     		adds	r2, r0, #1
  61              	.LVL2:
  62 000c A154     		strb	r1, [r4, r2]
 274:.\main.c      ****     //Compute Blue Component
 275:.\main.c      ****     pPixelArray[2+i*3] = b;
  63              		.loc 1 275 0
  64 000e 0230     		adds	r0, r0, #2
  65 0010 2354     		strb	r3, [r4, r0]
 276:.\main.c      **** }
  66              		.loc 1 276 0
ARM GAS  C:\Users\IVYLIU~1\AppData\Local\Temp\ccWSfWRg.s 			page 7


  67 0012 5DF8044B 		ldr	r4, [sp], #4
  68              		.cfi_restore 4
  69              		.cfi_def_cfa_offset 0
  70 0016 7047     		bx	lr
  71              	.L5:
  72              		.align	2
  73              	.L4:
  74 0018 00000000 		.word	pPixelArray
  75              		.cfi_endproc
  76              	.LFE125:
  77              		.size	setPixel, .-setPixel
  78              		.global	__aeabi_ui2f
  79              		.section	.text.detectNote,"ax",%progbits
  80              		.align	2
  81              		.global	detectNote
  82              		.thumb
  83              		.thumb_func
  84              		.type	detectNote, %function
  85              	detectNote:
  86              	.LFB126:
 277:.\main.c      **** 
 278:.\main.c      **** int detectNote() {
  87              		.loc 1 278 0
  88              		.cfi_startproc
  89              		@ args = 0, pretend = 0, frame = 8
  90              		@ frame_needed = 0, uses_anonymous_args = 0
  91 0000 F0B5     		push	{r4, r5, r6, r7, lr}
  92              		.cfi_def_cfa_offset 20
  93              		.cfi_offset 4, -20
  94              		.cfi_offset 5, -16
  95              		.cfi_offset 6, -12
  96              		.cfi_offset 7, -8
  97              		.cfi_offset 14, -4
  98 0002 83B0     		sub	sp, sp, #12
  99              		.cfi_def_cfa_offset 32
 100              	.LVL3:
 279:.\main.c      ****     int fft_start = 0;
 280:.\main.c      ****     uint16_t i = 0;
 101              		.loc 1 280 0
 102 0004 0024     		movs	r4, #0
 279:.\main.c      ****     int fft_start = 0;
 103              		.loc 1 279 0
 104 0006 2546     		mov	r5, r4
 105              	.LVL4:
 106              	.L8:
 281:.\main.c      **** 
 282:.\main.c      ****     while (1==1) {
 283:.\main.c      ****         if(ADC_DelSig_1_IsEndConversion(ADC_DelSig_1_WAIT_FOR_RESULT) )
 107              		.loc 1 283 0
 108 0008 0020     		movs	r0, #0
 109 000a FFF7FEFF 		bl	ADC_DelSig_1_IsEndConversion
 110              	.LVL5:
 111 000e 0028     		cmp	r0, #0
 112 0010 FAD0     		beq	.L8
 284:.\main.c      ****         {
 285:.\main.c      ****             adcResult = ADC_DelSig_1_GetResult32();		// read the adc and assign the value adcResult
 113              		.loc 1 285 0
ARM GAS  C:\Users\IVYLIU~1\AppData\Local\Temp\ccWSfWRg.s 			page 8


 114 0012 FFF7FEFF 		bl	ADC_DelSig_1_GetResult32
 115              	.LVL6:
 116 0016 214B     		ldr	r3, .L12
 117 0018 1860     		str	r0, [r3]
 286:.\main.c      ****             
 287:.\main.c      ****             // if the adc is above a certain threshold, start sampling for fft
 288:.\main.c      ****             if (adcResult > 36000 || adcResult < 30000) {
 118              		.loc 1 288 0
 119 001a A0F5EA40 		sub	r0, r0, #29952
 120 001e 3038     		subs	r0, r0, #48
 121 0020 41F27073 		movw	r3, #6000
 122 0024 9842     		cmp	r0, r3
 123 0026 03D9     		bls	.L9
 289:.\main.c      ****                 adc_threshold_Write(1);
 124              		.loc 1 289 0
 125 0028 0120     		movs	r0, #1
 126 002a FFF7FEFF 		bl	adc_threshold_Write
 127              	.LVL7:
 290:.\main.c      ****                 fft_start = 1;
 128              		.loc 1 290 0
 129 002e 0125     		movs	r5, #1
 130              	.LVL8:
 131              	.L9:
 291:.\main.c      ****             }
 292:.\main.c      ****             
 293:.\main.c      ****             if (fft_start) {
 132              		.loc 1 293 0
 133 0030 002D     		cmp	r5, #0
 134 0032 E9D0     		beq	.L8
 294:.\main.c      ****                 testInput[i] = adcResult;
 135              		.loc 1 294 0
 136 0034 194B     		ldr	r3, .L12
 137 0036 1868     		ldr	r0, [r3]
 138 0038 FFF7FEFF 		bl	__aeabi_ui2f
 139              	.LVL9:
 140 003c 184B     		ldr	r3, .L12+4
 141 003e 43F82400 		str	r0, [r3, r4, lsl #2]	@ float
 295:.\main.c      ****                 i++;
 142              		.loc 1 295 0
 143 0042 0134     		adds	r4, r4, #1
 144              	.LVL10:
 145 0044 A4B2     		uxth	r4, r4
 146              	.LVL11:
 296:.\main.c      ****             
 297:.\main.c      ****                 if (i > 2047) {
 147              		.loc 1 297 0
 148 0046 B4F5006F 		cmp	r4, #2048
 149 004a DDD3     		bcc	.L8
 150              	.LBB2:
 298:.\main.c      ****                     float32_t maxValue;
 299:.\main.c      ****                     arm_cfft_init_f32(&varInstCfftF32,fftSize);
 151              		.loc 1 299 0
 152 004c 154E     		ldr	r6, .L12+8
 153 004e 164C     		ldr	r4, .L12+12
 154              	.LVL12:
 155 0050 3046     		mov	r0, r6
 156 0052 2188     		ldrh	r1, [r4]
ARM GAS  C:\Users\IVYLIU~1\AppData\Local\Temp\ccWSfWRg.s 			page 9


 157 0054 FFF7FEFF 		bl	arm_cfft_init_f32
 158              	.LVL13:
 300:.\main.c      ****                     /* Process the data through the CFFT/CIFFT module */
 301:.\main.c      ****                     arm_cfft_f32(&varInstCfftF32, testInput, ifftFlag, doBitReverse);
 159              		.loc 1 301 0
 160 0058 114F     		ldr	r7, .L12+4
 161 005a 104D     		ldr	r5, .L12
 162              	.LVL14:
 163 005c 3046     		mov	r0, r6
 164 005e 3946     		mov	r1, r7
 165 0060 2A79     		ldrb	r2, [r5, #4]	@ zero_extendqisi2
 166 0062 2379     		ldrb	r3, [r4, #4]	@ zero_extendqisi2
 167 0064 FFF7FEFF 		bl	arm_cfft_f32
 168              	.LVL15:
 302:.\main.c      ****                     /* Process the data through the Complex Magnitude Module for
 303:.\main.c      ****                     calculating the magnitude at each bin */
 304:.\main.c      ****                     arm_cmplx_mag_f32(testInput, testOutput, fftSize);
 169              		.loc 1 304 0
 170 0068 104E     		ldr	r6, .L12+16
 171 006a 3846     		mov	r0, r7
 172 006c 3146     		mov	r1, r6
 173 006e 2268     		ldr	r2, [r4]
 174 0070 FFF7FEFF 		bl	arm_cmplx_mag_f32
 175              	.LVL16:
 305:.\main.c      ****                     /* Calculates maxValue and returns corresponding BIN value */
 306:.\main.c      ****                     testOutput[0] = 0;
 176              		.loc 1 306 0
 177 0074 0023     		movs	r3, #0
 178 0076 3360     		str	r3, [r6]	@ float
 307:.\main.c      ****                     arm_max_f32(testOutput, fftSize, &maxValue, &testIndex);
 179              		.loc 1 307 0
 180 0078 3046     		mov	r0, r6
 181 007a 2168     		ldr	r1, [r4]
 182 007c 01AA     		add	r2, sp, #4
 183 007e 05F10803 		add	r3, r5, #8
 184 0082 FFF7FEFF 		bl	arm_max_f32
 185              	.LVL17:
 308:.\main.c      ****                     
 309:.\main.c      ****                     i = 0;
 310:.\main.c      ****                     adc_threshold_Write(0);
 186              		.loc 1 310 0
 187 0086 0020     		movs	r0, #0
 188 0088 FFF7FEFF 		bl	adc_threshold_Write
 189              	.LVL18:
 311:.\main.c      ****                     fft_start = 0;
 312:.\main.c      ****                     CyDelay(400);									// delay in milliseconds
 190              		.loc 1 312 0
 191 008c 4FF4C870 		mov	r0, #400
 192 0090 FFF7FEFF 		bl	CyDelay
 193              	.LVL19:
 194              	.LBE2:
 313:.\main.c      ****                     return testIndex;
 314:.\main.c      ****                 }
 315:.\main.c      ****             }
 316:.\main.c      ****         }
 317:.\main.c      ****     }
 318:.\main.c      **** }
ARM GAS  C:\Users\IVYLIU~1\AppData\Local\Temp\ccWSfWRg.s 			page 10


 195              		.loc 1 318 0
 196 0094 A868     		ldr	r0, [r5, #8]
 197 0096 03B0     		add	sp, sp, #12
 198              		.cfi_def_cfa_offset 20
 199              		@ sp needed
 200 0098 F0BD     		pop	{r4, r5, r6, r7, pc}
 201              	.L13:
 202 009a 00BF     		.align	2
 203              	.L12:
 204 009c 00000000 		.word	.LANCHOR0
 205 00a0 00000000 		.word	testInput
 206 00a4 00000000 		.word	varInstCfftF32
 207 00a8 00000000 		.word	.LANCHOR1
 208 00ac 00000000 		.word	testOutput
 209              		.cfi_endproc
 210              	.LFE126:
 211              		.size	detectNote, .-detectNote
 212              		.section	.text.getNoteName,"ax",%progbits
 213              		.align	2
 214              		.global	getNoteName
 215              		.thumb
 216              		.thumb_func
 217              		.type	getNoteName, %function
 218              	getNoteName:
 219              	.LFB127:
 319:.\main.c      **** 
 320:.\main.c      **** char* getNoteName(int input_offset)
 321:.\main.c      **** {
 220              		.loc 1 321 0
 221              		.cfi_startproc
 222              		@ args = 0, pretend = 0, frame = 0
 223              		@ frame_needed = 0, uses_anonymous_args = 0
 224              		@ link register save eliminated.
 225              	.LVL20:
 322:.\main.c      ****     struct Notes *cur_note = notes;
 226              		.loc 1 322 0
 227 0000 054B     		ldr	r3, .L19
 323:.\main.c      ****     const char *note = "Unrecognized note";
 324:.\main.c      **** 
 325:.\main.c      ****     while (cur_note->name) {
 228              		.loc 1 325 0
 229 0002 03E0     		b	.L15
 230              	.LVL21:
 231              	.L18:
 326:.\main.c      ****         if (cur_note->offset == input_offset) {
 232              		.loc 1 326 0
 233 0004 5968     		ldr	r1, [r3, #4]
 234 0006 8142     		cmp	r1, r0
 235 0008 04D0     		beq	.L17
 327:.\main.c      ****                 note = cur_note->name;
 328:.\main.c      ****                 break;
 329:.\main.c      ****         }
 330:.\main.c      ****         ++cur_note;
 236              		.loc 1 330 0
 237 000a 0C33     		adds	r3, r3, #12
 238              	.LVL22:
 239              	.L15:
ARM GAS  C:\Users\IVYLIU~1\AppData\Local\Temp\ccWSfWRg.s 			page 11


 325:.\main.c      ****         if (cur_note->offset == input_offset) {
 240              		.loc 1 325 0
 241 000c 1A68     		ldr	r2, [r3]
 242 000e 002A     		cmp	r2, #0
 243 0010 F8D1     		bne	.L18
 323:.\main.c      **** 
 244              		.loc 1 323 0
 245 0012 024A     		ldr	r2, .L19+4
 246              	.L17:
 247              	.LVL23:
 331:.\main.c      ****     }
 332:.\main.c      **** 
 333:.\main.c      ****     return note;
 334:.\main.c      **** }
 248              		.loc 1 334 0
 249 0014 1046     		mov	r0, r2
 250              	.LVL24:
 251 0016 7047     		bx	lr
 252              	.L20:
 253              		.align	2
 254              	.L19:
 255 0018 08000000 		.word	.LANCHOR1+8
 256 001c 00000000 		.word	.LC0
 257              		.cfi_endproc
 258              	.LFE127:
 259              		.size	getNoteName, .-getNoteName
 260              		.section	.text.drawSongSelection,"ax",%progbits
 261              		.align	2
 262              		.global	drawSongSelection
 263              		.thumb
 264              		.thumb_func
 265              		.type	drawSongSelection, %function
 266              	drawSongSelection:
 267              	.LFB129:
 335:.\main.c      **** 
 336:.\main.c      **** void drawPlaySong(int song_index) {
 337:.\main.c      ****     // Setup
 338:.\main.c      ****     GUI_SetBkColor(GUI_WHITE);
 339:.\main.c      ****     GUI_SetColor(GUI_BLACK);
 340:.\main.c      ****     GUI_SetTextMode(GUI_TM_TRANS);
 341:.\main.c      ****     GUI_SetTextAlign(GUI_TA_VCENTER); // Bug: GUI_TA_HCENTER fails to center text horizontally
 342:.\main.c      **** 
 343:.\main.c      ****     GUI_Clear();
 344:.\main.c      ****     drawClefs();
 345:.\main.c      ****     
 346:.\main.c      ****     int note_index = 0;
 347:.\main.c      ****     char score_buf[3];
 348:.\main.c      ****     struct Songs cur_song = songs[song_index];
 349:.\main.c      ****     
 350:.\main.c      ****     // Display first note
 351:.\main.c      ****     drawNote(cur_song.note_seq[note_index]);
 352:.\main.c      ****     GUI_SetFont(&GUI_Font24B_ASCII);
 353:.\main.c      **** 
 354:.\main.c      ****     sprintf(score_buf, "%d", note_index);   //put index into str buffer for displaying score
 355:.\main.c      ****     GUI_DispStringHCenterAt("Score", SCREEN_WIDTH/2 - 20, 280);
 356:.\main.c      ****     GUI_DispStringHCenterAt(score_buf, SCREEN_WIDTH/2 + 40, 280);
 357:.\main.c      ****     
ARM GAS  C:\Users\IVYLIU~1\AppData\Local\Temp\ccWSfWRg.s 			page 12


 358:.\main.c      ****     // Exits playing if SW3 is pressed
 359:.\main.c      ****     while (SW3_Read()) {
 360:.\main.c      ****         // Detect if note is played
 361:.\main.c      ****         // If correct note, move onto the next note
 362:.\main.c      ****         if (strcmp(getNoteName(detectNote() - middle_c_bin), cur_song.note_seq[note_index]) == 0) {
 363:.\main.c      ****             while(!SW2_Read());
 364:.\main.c      ****             // Erase current note and score drawing
 365:.\main.c      ****             GUI_SetColor(GUI_WHITE);
 366:.\main.c      ****             drawNote(cur_song.note_seq[note_index]);
 367:.\main.c      ****             
 368:.\main.c      ****             GUI_SetFont(&GUI_Font24B_ASCII);
 369:.\main.c      ****             GUI_DispStringHCenterAt("Score", SCREEN_WIDTH/2 - 20, 280);
 370:.\main.c      ****             GUI_DispStringHCenterAt(score_buf, SCREEN_WIDTH/2 + 40, 280);
 371:.\main.c      ****             
 372:.\main.c      ****             // Redraw clefs
 373:.\main.c      ****             GUI_SetColor(GUI_BLACK);
 374:.\main.c      ****             drawClefs();
 375:.\main.c      ****             
 376:.\main.c      ****             // Determine next note
 377:.\main.c      ****             note_index++;
 378:.\main.c      ****             sprintf(score_buf, "%d", note_index);   //put index into str buffer for displaying scor
 379:.\main.c      ****             
 380:.\main.c      ****             if (note_index >= cur_song.song_length) {
 381:.\main.c      ****                 // print final score then exit playing mode
 382:.\main.c      ****                 GUI_DispStringHCenterAt("Well Done!", SCREEN_WIDTH/2, 240);
 383:.\main.c      ****                 GUI_DispStringHCenterAt("Score", SCREEN_WIDTH/2 - 20, 280);
 384:.\main.c      ****                 GUI_DispStringHCenterAt(score_buf, SCREEN_WIDTH/2 + 40, 280);
 385:.\main.c      ****                 break;
 386:.\main.c      ****             } else {
 387:.\main.c      ****                 // show next note and display score
 388:.\main.c      ****                 GUI_DispStringHCenterAt("Score", SCREEN_WIDTH/2 - 20, 280);
 389:.\main.c      ****                 GUI_DispStringHCenterAt(score_buf, SCREEN_WIDTH/2 + 40, 280);
 390:.\main.c      ****                 drawNote(cur_song.note_seq[note_index]);
 391:.\main.c      ****             }
 392:.\main.c      ****         }
 393:.\main.c      ****     }
 394:.\main.c      **** }
 395:.\main.c      **** 
 396:.\main.c      **** int drawSongSelection(){
 268              		.loc 1 396 0
 269              		.cfi_startproc
 270              		@ args = 0, pretend = 0, frame = 0
 271              		@ frame_needed = 0, uses_anonymous_args = 0
 272 0000 38B5     		push	{r3, r4, r5, lr}
 273              		.cfi_def_cfa_offset 16
 274              		.cfi_offset 3, -16
 275              		.cfi_offset 4, -12
 276              		.cfi_offset 5, -8
 277              		.cfi_offset 14, -4
 397:.\main.c      ****     // Setup
 398:.\main.c      ****     GUI_SetBkColor(GUI_WHITE);
 278              		.loc 1 398 0
 279 0002 4FF0FF30 		mov	r0, #-1
 280 0006 FFF7FEFF 		bl	GUI_SetBkColor
 281              	.LVL25:
 399:.\main.c      ****     GUI_SetColor(GUI_BLACK);
 282              		.loc 1 399 0
ARM GAS  C:\Users\IVYLIU~1\AppData\Local\Temp\ccWSfWRg.s 			page 13


 283 000a 4FF07F40 		mov	r0, #-16777216
 284 000e FFF7FEFF 		bl	GUI_SetColor
 285              	.LVL26:
 400:.\main.c      ****     GUI_SetFont(&GUI_Font16B_ASCII);
 286              		.loc 1 400 0
 287 0012 354D     		ldr	r5, .L29
 288 0014 2846     		mov	r0, r5
 289 0016 FFF7FEFF 		bl	GUI_SetFont
 290              	.LVL27:
 401:.\main.c      ****     GUI_SetTextMode(GUI_TM_TRANS);
 291              		.loc 1 401 0
 292 001a 0220     		movs	r0, #2
 293 001c FFF7FEFF 		bl	GUI_SetTextMode
 294              	.LVL28:
 402:.\main.c      ****     GUI_SetTextAlign(GUI_TA_VCENTER); // Bug: GUI_TA_HCENTER fails to center text horizontally
 295              		.loc 1 402 0
 296 0020 0C20     		movs	r0, #12
 297 0022 FFF7FEFF 		bl	GUI_SetTextAlign
 298              	.LVL29:
 403:.\main.c      ****     
 404:.\main.c      ****     GUI_Clear();
 299              		.loc 1 404 0
 300 0026 FFF7FEFF 		bl	GUI_Clear
 301              	.LVL30:
 405:.\main.c      **** 
 406:.\main.c      ****     // Display page title + first song name
 407:.\main.c      ****     int song_index = 0;
 408:.\main.c      ****     GUI_SetFont(&GUI_Font32B_ASCII);
 302              		.loc 1 408 0
 303 002a 304C     		ldr	r4, .L29+4
 304 002c 2046     		mov	r0, r4
 305 002e FFF7FEFF 		bl	GUI_SetFont
 306              	.LVL31:
 409:.\main.c      ****     GUI_DispStringHCenterAt("Song Selection", SCREEN_WIDTH/2, 20);
 307              		.loc 1 409 0
 308 0032 2F48     		ldr	r0, .L29+8
 309 0034 7821     		movs	r1, #120
 310 0036 1422     		movs	r2, #20
 311 0038 FFF7FEFF 		bl	GUI_DispStringHCenterAt
 312              	.LVL32:
 410:.\main.c      ****     
 411:.\main.c      ****     GUI_SetFont(&GUI_Font16B_ASCII);
 313              		.loc 1 411 0
 314 003c 2846     		mov	r0, r5
 315 003e FFF7FEFF 		bl	GUI_SetFont
 316              	.LVL33:
 412:.\main.c      ****     GUI_DispStringHCenterAt("Press SW2 for next option.", SCREEN_WIDTH/2,60);
 317              		.loc 1 412 0
 318 0042 2C48     		ldr	r0, .L29+12
 319 0044 7821     		movs	r1, #120
 320 0046 3C22     		movs	r2, #60
 321 0048 FFF7FEFF 		bl	GUI_DispStringHCenterAt
 322              	.LVL34:
 413:.\main.c      ****     GUI_DispStringHCenterAt("Press SW3 to confirm selection.", SCREEN_WIDTH/2,80);
 323              		.loc 1 413 0
 324 004c 2A48     		ldr	r0, .L29+16
 325 004e 7821     		movs	r1, #120
ARM GAS  C:\Users\IVYLIU~1\AppData\Local\Temp\ccWSfWRg.s 			page 14


 326 0050 5022     		movs	r2, #80
 327 0052 FFF7FEFF 		bl	GUI_DispStringHCenterAt
 328              	.LVL35:
 414:.\main.c      ****     
 415:.\main.c      ****     GUI_SetFont(&GUI_Font32B_ASCII);
 329              		.loc 1 415 0
 330 0056 2046     		mov	r0, r4
 331 0058 FFF7FEFF 		bl	GUI_SetFont
 332              	.LVL36:
 416:.\main.c      ****     GUI_DispStringHCenterAt(songs[song_index].name, SCREEN_WIDTH/2, 320/2);
 333              		.loc 1 416 0
 334 005c 274B     		ldr	r3, .L29+20
 335 005e D3F8F801 		ldr	r0, [r3, #504]
 336 0062 7821     		movs	r1, #120
 337 0064 A022     		movs	r2, #160
 338 0066 FFF7FEFF 		bl	GUI_DispStringHCenterAt
 339              	.LVL37:
 407:.\main.c      ****     GUI_SetFont(&GUI_Font32B_ASCII);
 340              		.loc 1 407 0
 341 006a 0025     		movs	r5, #0
 417:.\main.c      ****     
 418:.\main.c      ****     // Wait for song to be selected
 419:.\main.c      ****     while (SW3_Read()) {
 342              		.loc 1 419 0
 343 006c 23E0     		b	.L23
 344              	.LVL38:
 345              	.L25:
 420:.\main.c      ****         // Cycle to next song when SW3 pressed
 421:.\main.c      ****         if (!SW2_Read()) {
 346              		.loc 1 421 0
 347 006e FFF7FEFF 		bl	SW2_Read
 348              	.LVL39:
 349 0072 00BB     		cbnz	r0, .L23
 422:.\main.c      ****             song_index++;
 350              		.loc 1 422 0
 351 0074 6C1C     		adds	r4, r5, #1
 352              	.LVL40:
 423:.\main.c      ****             song_index %= SONGS_LENGTH;
 353              		.loc 1 423 0
 354 0076 224B     		ldr	r3, .L29+24
 355 0078 1C40     		ands	r4, r4, r3
 356              	.LVL41:
 357 007a 03D5     		bpl	.L24
 358 007c 013C     		subs	r4, r4, #1
 359 007e 64F00104 		orn	r4, r4, #1
 360 0082 0134     		adds	r4, r4, #1
 361              	.L24:
 362 0084 2546     		mov	r5, r4
 363              	.LVL42:
 424:.\main.c      ****             GUI_SetColor(GUI_GetBkColor());
 364              		.loc 1 424 0
 365 0086 FFF7FEFF 		bl	GUI_GetBkColor
 366              	.LVL43:
 367 008a FFF7FEFF 		bl	GUI_SetColor
 368              	.LVL44:
 425:.\main.c      ****             GUI_FillRect(0, 100, 240, 300);
 369              		.loc 1 425 0
ARM GAS  C:\Users\IVYLIU~1\AppData\Local\Temp\ccWSfWRg.s 			page 15


 370 008e 0020     		movs	r0, #0
 371 0090 6421     		movs	r1, #100
 372 0092 F022     		movs	r2, #240
 373 0094 4FF49673 		mov	r3, #300
 374 0098 FFF7FEFF 		bl	GUI_FillRect
 375              	.LVL45:
 426:.\main.c      ****             GUI_SetColor(GUI_BLACK);
 376              		.loc 1 426 0
 377 009c 4FF07F40 		mov	r0, #-16777216
 378 00a0 FFF7FEFF 		bl	GUI_SetColor
 379              	.LVL46:
 427:.\main.c      ****             GUI_DispStringHCenterAt(songs[song_index].name, SCREEN_WIDTH/2, 160);
 380              		.loc 1 427 0
 381 00a4 154B     		ldr	r3, .L29+20
 382 00a6 03EB0414 		add	r4, r3, r4, lsl #4
 383              	.LVL47:
 384 00aa D4F8F801 		ldr	r0, [r4, #504]
 385 00ae 7821     		movs	r1, #120
 386 00b0 A022     		movs	r2, #160
 387 00b2 FFF7FEFF 		bl	GUI_DispStringHCenterAt
 388              	.LVL48:
 389              	.L23:
 419:.\main.c      ****         // Cycle to next song when SW3 pressed
 390              		.loc 1 419 0
 391 00b6 FFF7FEFF 		bl	SW3_Read
 392              	.LVL49:
 393 00ba 0028     		cmp	r0, #0
 394 00bc D7D1     		bne	.L25
 395 00be 01E0     		b	.L26
 396              	.L27:
 428:.\main.c      ****         }   
 429:.\main.c      ****     }
 430:.\main.c      ****     
 431:.\main.c      ****     while (!SW3_Read())
 432:.\main.c      **** 
 433:.\main.c      ****     //Song Selection Confirmation
 434:.\main.c      ****     GUI_Clear();
 397              		.loc 1 434 0
 398 00c0 FFF7FEFF 		bl	GUI_Clear
 399              	.LVL50:
 400              	.L26:
 431:.\main.c      **** 
 401              		.loc 1 431 0
 402 00c4 FFF7FEFF 		bl	SW3_Read
 403              	.LVL51:
 404 00c8 0028     		cmp	r0, #0
 405 00ca F9D0     		beq	.L27
 435:.\main.c      ****     GUI_SetFont(&GUI_Font32B_ASCII);
 406              		.loc 1 435 0
 407 00cc 0748     		ldr	r0, .L29+4
 408 00ce FFF7FEFF 		bl	GUI_SetFont
 409              	.LVL52:
 436:.\main.c      ****     GUI_DispStringHCenterAt("Song Selected!", SCREEN_WIDTH/2, 320/2);
 410              		.loc 1 436 0
 411 00d2 0C48     		ldr	r0, .L29+28
 412 00d4 7821     		movs	r1, #120
 413 00d6 A022     		movs	r2, #160
ARM GAS  C:\Users\IVYLIU~1\AppData\Local\Temp\ccWSfWRg.s 			page 16


 414 00d8 FFF7FEFF 		bl	GUI_DispStringHCenterAt
 415              	.LVL53:
 437:.\main.c      ****     CyDelay(500);
 416              		.loc 1 437 0
 417 00dc 4FF4FA70 		mov	r0, #500
 418 00e0 FFF7FEFF 		bl	CyDelay
 419              	.LVL54:
 438:.\main.c      ****     return song_index;
 439:.\main.c      **** }
 420              		.loc 1 439 0
 421 00e4 2846     		mov	r0, r5
 422 00e6 38BD     		pop	{r3, r4, r5, pc}
 423              	.LVL55:
 424              	.L30:
 425              		.align	2
 426              	.L29:
 427 00e8 00000000 		.word	GUI_Font16B_ASCII
 428 00ec 00000000 		.word	GUI_Font32B_ASCII
 429 00f0 14000000 		.word	.LC1
 430 00f4 24000000 		.word	.LC2
 431 00f8 40000000 		.word	.LC3
 432 00fc 00000000 		.word	.LANCHOR1
 433 0100 01000080 		.word	-2147483647
 434 0104 60000000 		.word	.LC4
 435              		.cfi_endproc
 436              	.LFE129:
 437              		.size	drawSongSelection, .-drawSongSelection
 438              		.section	.text.drawCalibrateScreen,"ax",%progbits
 439              		.align	2
 440              		.global	drawCalibrateScreen
 441              		.thumb
 442              		.thumb_func
 443              		.type	drawCalibrateScreen, %function
 444              	drawCalibrateScreen:
 445              	.LFB130:
 440:.\main.c      **** 
 441:.\main.c      **** void drawCalibrateScreen(){
 446              		.loc 1 441 0
 447              		.cfi_startproc
 448              		@ args = 0, pretend = 0, frame = 0
 449              		@ frame_needed = 0, uses_anonymous_args = 0
 450 0000 08B5     		push	{r3, lr}
 451              		.cfi_def_cfa_offset 8
 452              		.cfi_offset 3, -8
 453              		.cfi_offset 14, -4
 442:.\main.c      ****     // Setup
 443:.\main.c      ****     GUI_SetBkColor(GUI_WHITE);
 454              		.loc 1 443 0
 455 0002 4FF0FF30 		mov	r0, #-1
 456 0006 FFF7FEFF 		bl	GUI_SetBkColor
 457              	.LVL56:
 444:.\main.c      ****     GUI_SetColor(GUI_BLACK);
 458              		.loc 1 444 0
 459 000a 4FF07F40 		mov	r0, #-16777216
 460 000e FFF7FEFF 		bl	GUI_SetColor
 461              	.LVL57:
 445:.\main.c      ****     GUI_SetFont(&GUI_Font20B_ASCII);
ARM GAS  C:\Users\IVYLIU~1\AppData\Local\Temp\ccWSfWRg.s 			page 17


 462              		.loc 1 445 0
 463 0012 0848     		ldr	r0, .L33
 464 0014 FFF7FEFF 		bl	GUI_SetFont
 465              	.LVL58:
 446:.\main.c      ****     GUI_SetTextMode(GUI_TM_TRANS);
 466              		.loc 1 446 0
 467 0018 0220     		movs	r0, #2
 468 001a FFF7FEFF 		bl	GUI_SetTextMode
 469              	.LVL59:
 447:.\main.c      ****     GUI_SetTextAlign(GUI_TA_VCENTER); // Bug: GUI_TA_HCENTER fails to center text horizontally
 470              		.loc 1 447 0
 471 001e 0C20     		movs	r0, #12
 472 0020 FFF7FEFF 		bl	GUI_SetTextAlign
 473              	.LVL60:
 448:.\main.c      ****     
 449:.\main.c      ****     GUI_Clear();
 474              		.loc 1 449 0
 475 0024 FFF7FEFF 		bl	GUI_Clear
 476              	.LVL61:
 450:.\main.c      **** 
 451:.\main.c      ****     // TODO: change to play Middle C note to trigger back to start
 452:.\main.c      ****     GUI_DispStringHCenterAt("Line up lit LEDs over\nthe middle C key.\nPress SW3 when done.", SCREE
 477              		.loc 1 452 0
 478 0028 0348     		ldr	r0, .L33+4
 479 002a 7821     		movs	r1, #120
 480 002c 0A46     		mov	r2, r1
 481 002e FFF7FEFF 		bl	GUI_DispStringHCenterAt
 482              	.LVL62:
 483 0032 08BD     		pop	{r3, pc}
 484              	.L34:
 485              		.align	2
 486              	.L33:
 487 0034 00000000 		.word	GUI_Font20B_ASCII
 488 0038 70000000 		.word	.LC5
 489              		.cfi_endproc
 490              	.LFE130:
 491              		.size	drawCalibrateScreen, .-drawCalibrateScreen
 492              		.section	.text.drawStartScreen,"ax",%progbits
 493              		.align	2
 494              		.global	drawStartScreen
 495              		.thumb
 496              		.thumb_func
 497              		.type	drawStartScreen, %function
 498              	drawStartScreen:
 499              	.LFB131:
 453:.\main.c      **** }
 454:.\main.c      **** 
 455:.\main.c      **** void drawStartScreen(){
 500              		.loc 1 455 0
 501              		.cfi_startproc
 502              		@ args = 0, pretend = 0, frame = 0
 503              		@ frame_needed = 0, uses_anonymous_args = 0
 504 0000 10B5     		push	{r4, lr}
 505              		.cfi_def_cfa_offset 8
 506              		.cfi_offset 4, -8
 507              		.cfi_offset 14, -4
 508 0002 82B0     		sub	sp, sp, #8
ARM GAS  C:\Users\IVYLIU~1\AppData\Local\Temp\ccWSfWRg.s 			page 18


 509              		.cfi_def_cfa_offset 16
 456:.\main.c      ****     // Setup
 457:.\main.c      ****     GUI_SetBkColor(GUI_WHITE);
 510              		.loc 1 457 0
 511 0004 4FF0FF30 		mov	r0, #-1
 512 0008 FFF7FEFF 		bl	GUI_SetBkColor
 513              	.LVL63:
 458:.\main.c      ****     GUI_SetColor(GUI_BLACK);
 514              		.loc 1 458 0
 515 000c 4FF07F40 		mov	r0, #-16777216
 516 0010 FFF7FEFF 		bl	GUI_SetColor
 517              	.LVL64:
 459:.\main.c      ****     GUI_SetFont(&GUI_Font32B_ASCII);
 518              		.loc 1 459 0
 519 0014 1D48     		ldr	r0, .L37
 520 0016 FFF7FEFF 		bl	GUI_SetFont
 521              	.LVL65:
 460:.\main.c      ****     GUI_SetTextMode(GUI_TM_TRANS);
 522              		.loc 1 460 0
 523 001a 0220     		movs	r0, #2
 524 001c FFF7FEFF 		bl	GUI_SetTextMode
 525              	.LVL66:
 461:.\main.c      ****     GUI_SetTextAlign(GUI_TA_VCENTER); // Bug: GUI_TA_HCENTER fails to center text horizontally
 526              		.loc 1 461 0
 527 0020 0C20     		movs	r0, #12
 528 0022 FFF7FEFF 		bl	GUI_SetTextAlign
 529              	.LVL67:
 462:.\main.c      ****     
 463:.\main.c      ****     GUI_Clear();
 530              		.loc 1 463 0
 531 0026 FFF7FEFF 		bl	GUI_Clear
 532              	.LVL68:
 464:.\main.c      **** 
 465:.\main.c      ****     GUI_DispStringHCenterAt("Welcome to\nPiano Tiles!", SCREEN_WIDTH/2, 40);
 533              		.loc 1 465 0
 534 002a 1948     		ldr	r0, .L37+4
 535 002c 7821     		movs	r1, #120
 536 002e 2822     		movs	r2, #40
 537 0030 FFF7FEFF 		bl	GUI_DispStringHCenterAt
 538              	.LVL69:
 466:.\main.c      **** 
 467:.\main.c      ****     // Button 1: Play
 468:.\main.c      ****     GUI_SetColor(GUI_GREEN);
 539              		.loc 1 468 0
 540 0034 4FF0FF20 		mov	r0, #-16711936
 541 0038 FFF7FEFF 		bl	GUI_SetColor
 542              	.LVL70:
 469:.\main.c      ****     GUI_FillRoundedRect(40, 120, 200, 200, 10);
 543              		.loc 1 469 0
 544 003c 0A24     		movs	r4, #10
 545 003e 0094     		str	r4, [sp]
 546 0040 2820     		movs	r0, #40
 547 0042 7821     		movs	r1, #120
 548 0044 C822     		movs	r2, #200
 549 0046 1346     		mov	r3, r2
 550 0048 FFF7FEFF 		bl	GUI_FillRoundedRect
 551              	.LVL71:
ARM GAS  C:\Users\IVYLIU~1\AppData\Local\Temp\ccWSfWRg.s 			page 19


 470:.\main.c      ****     GUI_SetColor(GUI_WHITE);
 552              		.loc 1 470 0
 553 004c 4FF0FF30 		mov	r0, #-1
 554 0050 FFF7FEFF 		bl	GUI_SetColor
 555              	.LVL72:
 471:.\main.c      ****     GUI_DispStringHCenterAt("Play", SCREEN_WIDTH/2, 160);
 556              		.loc 1 471 0
 557 0054 0F48     		ldr	r0, .L37+8
 558 0056 7821     		movs	r1, #120
 559 0058 A022     		movs	r2, #160
 560 005a FFF7FEFF 		bl	GUI_DispStringHCenterAt
 561              	.LVL73:
 472:.\main.c      **** 
 473:.\main.c      ****     // Button 2: Calibrate
 474:.\main.c      ****     GUI_SetColor(GUI_BLUE);
 562              		.loc 1 474 0
 563 005e 0E48     		ldr	r0, .L37+12
 564 0060 FFF7FEFF 		bl	GUI_SetColor
 565              	.LVL74:
 475:.\main.c      ****     GUI_FillRoundedRect(40, 220, 200, 300, 10);
 566              		.loc 1 475 0
 567 0064 0094     		str	r4, [sp]
 568 0066 2820     		movs	r0, #40
 569 0068 DC21     		movs	r1, #220
 570 006a C822     		movs	r2, #200
 571 006c 4FF49673 		mov	r3, #300
 572 0070 FFF7FEFF 		bl	GUI_FillRoundedRect
 573              	.LVL75:
 476:.\main.c      ****     GUI_SetColor(GUI_WHITE);
 574              		.loc 1 476 0
 575 0074 4FF0FF30 		mov	r0, #-1
 576 0078 FFF7FEFF 		bl	GUI_SetColor
 577              	.LVL76:
 477:.\main.c      ****     GUI_DispStringHCenterAt("Calibrate", SCREEN_WIDTH/2, 260);
 578              		.loc 1 477 0
 579 007c 0748     		ldr	r0, .L37+16
 580 007e 7821     		movs	r1, #120
 581 0080 4FF48272 		mov	r2, #260
 582 0084 FFF7FEFF 		bl	GUI_DispStringHCenterAt
 583              	.LVL77:
 478:.\main.c      **** }
 584              		.loc 1 478 0
 585 0088 02B0     		add	sp, sp, #8
 586              		.cfi_def_cfa_offset 8
 587              		@ sp needed
 588 008a 10BD     		pop	{r4, pc}
 589              	.L38:
 590              		.align	2
 591              	.L37:
 592 008c 00000000 		.word	GUI_Font32B_ASCII
 593 0090 B0000000 		.word	.LC6
 594 0094 C8000000 		.word	.LC7
 595 0098 FF0000FF 		.word	-16776961
 596 009c D0000000 		.word	.LC8
 597              		.cfi_endproc
 598              	.LFE131:
 599              		.size	drawStartScreen, .-drawStartScreen
ARM GAS  C:\Users\IVYLIU~1\AppData\Local\Temp\ccWSfWRg.s 			page 20


 600              		.section	.text.drawNote,"ax",%progbits
 601              		.align	2
 602              		.global	drawNote
 603              		.thumb
 604              		.thumb_func
 605              		.type	drawNote, %function
 606              	drawNote:
 607              	.LFB132:
 479:.\main.c      **** 
 480:.\main.c      **** void drawNote(char* input_name){
 608              		.loc 1 480 0
 609              		.cfi_startproc
 610              		@ args = 0, pretend = 0, frame = 0
 611              		@ frame_needed = 0, uses_anonymous_args = 0
 612              	.LVL78:
 613 0000 10B5     		push	{r4, lr}
 614              		.cfi_def_cfa_offset 8
 615              		.cfi_offset 4, -8
 616              		.cfi_offset 14, -4
 617 0002 0446     		mov	r4, r0
 481:.\main.c      ****     // Center text and set size
 482:.\main.c      ****     GUI_SetFont(&GUI_Font32B_ASCII);
 618              		.loc 1 482 0
 619 0004 B948     		ldr	r0, .L82
 620              	.LVL79:
 621 0006 FFF7FEFF 		bl	GUI_SetFont
 622              	.LVL80:
 483:.\main.c      ****     GUI_SetTextMode(GUI_TM_TRANS);
 623              		.loc 1 483 0
 624 000a 0220     		movs	r0, #2
 625 000c FFF7FEFF 		bl	GUI_SetTextMode
 626              	.LVL81:
 484:.\main.c      ****     GUI_SetTextAlign(GUI_TA_HCENTER | GUI_TA_VCENTER);
 627              		.loc 1 484 0
 628 0010 0E20     		movs	r0, #14
 629 0012 FFF7FEFF 		bl	GUI_SetTextAlign
 630              	.LVL82:
 485:.\main.c      ****     
 486:.\main.c      ****     int text_x = SCREEN_WIDTH/2;
 487:.\main.c      ****     int text_y = 240;
 488:.\main.c      ****     
 489:.\main.c      ****     if (strcmp(input_name, "G5") == 0) {
 631              		.loc 1 489 0
 632 0016 2046     		mov	r0, r4
 633 0018 B549     		ldr	r1, .L82+4
 634 001a FFF7FEFF 		bl	strcmp
 635              	.LVL83:
 636 001e 58B9     		cbnz	r0, .L40
 490:.\main.c      ****         GUI_FillEllipse(SCREEN_WIDTH/2, TOP_MARGIN - NOTE_SPACING, NOTE_WIDTH, NOTE_HEIGHT);
 637              		.loc 1 490 0
 638 0020 7820     		movs	r0, #120
 639 0022 0D21     		movs	r1, #13
 640 0024 0C22     		movs	r2, #12
 641 0026 0823     		movs	r3, #8
 642 0028 FFF7FEFF 		bl	GUI_FillEllipse
 643              	.LVL84:
 491:.\main.c      ****         GUI_DispStringAt("G5", text_x, text_y);
ARM GAS  C:\Users\IVYLIU~1\AppData\Local\Temp\ccWSfWRg.s 			page 21


 644              		.loc 1 491 0
 645 002c B048     		ldr	r0, .L82+4
 646 002e 7821     		movs	r1, #120
 647 0030 F022     		movs	r2, #240
 648 0032 FFF7FEFF 		bl	GUI_DispStringAt
 649              	.LVL85:
 650 0036 10BD     		pop	{r4, pc}
 651              	.LVL86:
 652              	.L40:
 492:.\main.c      ****     } else if (strcmp(input_name, "F#5") == 0) {
 653              		.loc 1 492 0
 654 0038 2046     		mov	r0, r4
 655 003a AE49     		ldr	r1, .L82+8
 656 003c FFF7FEFF 		bl	strcmp
 657              	.LVL87:
 658 0040 98B9     		cbnz	r0, .L42
 493:.\main.c      ****         GUI_FillEllipse(SCREEN_WIDTH/2, TOP_MARGIN, NOTE_WIDTH, NOTE_HEIGHT);
 659              		.loc 1 493 0
 660 0042 7820     		movs	r0, #120
 661 0044 1421     		movs	r1, #20
 662 0046 0C22     		movs	r2, #12
 663 0048 0823     		movs	r3, #8
 664 004a FFF7FEFF 		bl	GUI_FillEllipse
 665              	.LVL88:
 494:.\main.c      ****         GUI_DispStringAt("F#5", text_x, text_y);
 666              		.loc 1 494 0
 667 004e A948     		ldr	r0, .L82+8
 668 0050 7821     		movs	r1, #120
 669 0052 F022     		movs	r2, #240
 670 0054 FFF7FEFF 		bl	GUI_DispStringAt
 671              	.LVL89:
 495:.\main.c      **** 
 496:.\main.c      ****         GUI_SetFont(&GUI_Font24B_ASCII);
 672              		.loc 1 496 0
 673 0058 A748     		ldr	r0, .L82+12
 674 005a FFF7FEFF 		bl	GUI_SetFont
 675              	.LVL90:
 497:.\main.c      ****         GUI_DispStringAt("#", SCREEN_WIDTH/2 + 2*NOTE_WIDTH, TOP_MARGIN);
 676              		.loc 1 497 0
 677 005e A748     		ldr	r0, .L82+16
 678 0060 9021     		movs	r1, #144
 679 0062 1422     		movs	r2, #20
 680 0064 FFF7FEFF 		bl	GUI_DispStringAt
 681              	.LVL91:
 682 0068 10BD     		pop	{r4, pc}
 683              	.LVL92:
 684              	.L42:
 498:.\main.c      ****     } else if (strcmp(input_name, "F5") == 0) {
 685              		.loc 1 498 0
 686 006a 2046     		mov	r0, r4
 687 006c A449     		ldr	r1, .L82+20
 688 006e FFF7FEFF 		bl	strcmp
 689              	.LVL93:
 690 0072 58B9     		cbnz	r0, .L43
 499:.\main.c      ****         GUI_FillEllipse(SCREEN_WIDTH/2, TOP_MARGIN, NOTE_WIDTH, NOTE_HEIGHT);
 691              		.loc 1 499 0
 692 0074 7820     		movs	r0, #120
ARM GAS  C:\Users\IVYLIU~1\AppData\Local\Temp\ccWSfWRg.s 			page 22


 693 0076 1421     		movs	r1, #20
 694 0078 0C22     		movs	r2, #12
 695 007a 0823     		movs	r3, #8
 696 007c FFF7FEFF 		bl	GUI_FillEllipse
 697              	.LVL94:
 500:.\main.c      ****         GUI_DispStringAt("F5", text_x, text_y);
 698              		.loc 1 500 0
 699 0080 9F48     		ldr	r0, .L82+20
 700 0082 7821     		movs	r1, #120
 701 0084 F022     		movs	r2, #240
 702 0086 FFF7FEFF 		bl	GUI_DispStringAt
 703              	.LVL95:
 704 008a 10BD     		pop	{r4, pc}
 705              	.LVL96:
 706              	.L43:
 501:.\main.c      ****     } else if (strcmp(input_name, "E5") == 0) {
 707              		.loc 1 501 0
 708 008c 2046     		mov	r0, r4
 709 008e 9D49     		ldr	r1, .L82+24
 710 0090 FFF7FEFF 		bl	strcmp
 711              	.LVL97:
 712 0094 58B9     		cbnz	r0, .L44
 502:.\main.c      ****         GUI_FillEllipse(SCREEN_WIDTH/2, TOP_MARGIN + NOTE_SPACING, NOTE_WIDTH, NOTE_HEIGHT);
 713              		.loc 1 502 0
 714 0096 7820     		movs	r0, #120
 715 0098 1B21     		movs	r1, #27
 716 009a 0C22     		movs	r2, #12
 717 009c 0823     		movs	r3, #8
 718 009e FFF7FEFF 		bl	GUI_FillEllipse
 719              	.LVL98:
 503:.\main.c      ****         GUI_DispStringAt("E5", text_x, text_y);
 720              		.loc 1 503 0
 721 00a2 9848     		ldr	r0, .L82+24
 722 00a4 7821     		movs	r1, #120
 723 00a6 F022     		movs	r2, #240
 724 00a8 FFF7FEFF 		bl	GUI_DispStringAt
 725              	.LVL99:
 726 00ac 10BD     		pop	{r4, pc}
 727              	.LVL100:
 728              	.L44:
 504:.\main.c      ****     } else if (strcmp(input_name, "D#5") == 0) {
 729              		.loc 1 504 0
 730 00ae 2046     		mov	r0, r4
 731 00b0 9549     		ldr	r1, .L82+28
 732 00b2 FFF7FEFF 		bl	strcmp
 733              	.LVL101:
 734 00b6 98B9     		cbnz	r0, .L45
 505:.\main.c      ****         GUI_FillEllipse(SCREEN_WIDTH/2, TOP_MARGIN + 2*NOTE_SPACING, NOTE_WIDTH, NOTE_HEIGHT);
 735              		.loc 1 505 0
 736 00b8 7820     		movs	r0, #120
 737 00ba 2321     		movs	r1, #35
 738 00bc 0C22     		movs	r2, #12
 739 00be 0823     		movs	r3, #8
 740 00c0 FFF7FEFF 		bl	GUI_FillEllipse
 741              	.LVL102:
 506:.\main.c      ****         GUI_DispStringAt("D#5", text_x, text_y);
 742              		.loc 1 506 0
ARM GAS  C:\Users\IVYLIU~1\AppData\Local\Temp\ccWSfWRg.s 			page 23


 743 00c4 9048     		ldr	r0, .L82+28
 744 00c6 7821     		movs	r1, #120
 745 00c8 F022     		movs	r2, #240
 746 00ca FFF7FEFF 		bl	GUI_DispStringAt
 747              	.LVL103:
 507:.\main.c      **** 
 508:.\main.c      ****         GUI_SetFont(&GUI_Font24B_ASCII);
 748              		.loc 1 508 0
 749 00ce 8A48     		ldr	r0, .L82+12
 750 00d0 FFF7FEFF 		bl	GUI_SetFont
 751              	.LVL104:
 509:.\main.c      ****         GUI_DispStringAt("#", SCREEN_WIDTH/2 + 2*NOTE_WIDTH, TOP_MARGIN + 2*NOTE_SPACING);
 752              		.loc 1 509 0
 753 00d4 8948     		ldr	r0, .L82+16
 754 00d6 9021     		movs	r1, #144
 755 00d8 2322     		movs	r2, #35
 756 00da FFF7FEFF 		bl	GUI_DispStringAt
 757              	.LVL105:
 758 00de 10BD     		pop	{r4, pc}
 759              	.LVL106:
 760              	.L45:
 510:.\main.c      ****     } else if (strcmp(input_name, "D5") == 0) {
 761              		.loc 1 510 0
 762 00e0 2046     		mov	r0, r4
 763 00e2 8A49     		ldr	r1, .L82+32
 764 00e4 FFF7FEFF 		bl	strcmp
 765              	.LVL107:
 766 00e8 58B9     		cbnz	r0, .L46
 511:.\main.c      ****         GUI_FillEllipse(SCREEN_WIDTH/2, TOP_MARGIN + 2*NOTE_SPACING, NOTE_WIDTH, NOTE_HEIGHT);
 767              		.loc 1 511 0
 768 00ea 7820     		movs	r0, #120
 769 00ec 2321     		movs	r1, #35
 770 00ee 0C22     		movs	r2, #12
 771 00f0 0823     		movs	r3, #8
 772 00f2 FFF7FEFF 		bl	GUI_FillEllipse
 773              	.LVL108:
 512:.\main.c      ****         GUI_DispStringAt("D5", text_x, text_y);
 774              		.loc 1 512 0
 775 00f6 8548     		ldr	r0, .L82+32
 776 00f8 7821     		movs	r1, #120
 777 00fa F022     		movs	r2, #240
 778 00fc FFF7FEFF 		bl	GUI_DispStringAt
 779              	.LVL109:
 780 0100 10BD     		pop	{r4, pc}
 781              	.LVL110:
 782              	.L46:
 513:.\main.c      ****     } else if (strcmp(input_name, "C#5") == 0) {
 783              		.loc 1 513 0
 784 0102 2046     		mov	r0, r4
 785 0104 8249     		ldr	r1, .L82+36
 786 0106 FFF7FEFF 		bl	strcmp
 787              	.LVL111:
 788 010a 98B9     		cbnz	r0, .L47
 514:.\main.c      ****         GUI_FillEllipse(SCREEN_WIDTH/2, TOP_MARGIN + 3*NOTE_SPACING, NOTE_WIDTH, NOTE_HEIGHT);
 789              		.loc 1 514 0
 790 010c 7820     		movs	r0, #120
 791 010e 2A21     		movs	r1, #42
ARM GAS  C:\Users\IVYLIU~1\AppData\Local\Temp\ccWSfWRg.s 			page 24


 792 0110 0C22     		movs	r2, #12
 793 0112 0823     		movs	r3, #8
 794 0114 FFF7FEFF 		bl	GUI_FillEllipse
 795              	.LVL112:
 515:.\main.c      ****         GUI_DispStringAt("C#5", text_x, text_y);
 796              		.loc 1 515 0
 797 0118 7D48     		ldr	r0, .L82+36
 798 011a 7821     		movs	r1, #120
 799 011c F022     		movs	r2, #240
 800 011e FFF7FEFF 		bl	GUI_DispStringAt
 801              	.LVL113:
 516:.\main.c      **** 
 517:.\main.c      ****         GUI_SetFont(&GUI_Font24B_ASCII);
 802              		.loc 1 517 0
 803 0122 7548     		ldr	r0, .L82+12
 804 0124 FFF7FEFF 		bl	GUI_SetFont
 805              	.LVL114:
 518:.\main.c      ****         GUI_DispStringAt("#", SCREEN_WIDTH/2 + 2*NOTE_WIDTH, TOP_MARGIN + 3*NOTE_SPACING);
 806              		.loc 1 518 0
 807 0128 7448     		ldr	r0, .L82+16
 808 012a 9021     		movs	r1, #144
 809 012c 2A22     		movs	r2, #42
 810 012e FFF7FEFF 		bl	GUI_DispStringAt
 811              	.LVL115:
 812 0132 10BD     		pop	{r4, pc}
 813              	.LVL116:
 814              	.L47:
 519:.\main.c      ****     } else if (strcmp(input_name, "C5") == 0) {
 815              		.loc 1 519 0
 816 0134 2046     		mov	r0, r4
 817 0136 7749     		ldr	r1, .L82+40
 818 0138 FFF7FEFF 		bl	strcmp
 819              	.LVL117:
 820 013c 58B9     		cbnz	r0, .L48
 520:.\main.c      ****         GUI_FillEllipse(SCREEN_WIDTH/2, TOP_MARGIN + 3*NOTE_SPACING, NOTE_WIDTH, NOTE_HEIGHT);
 821              		.loc 1 520 0
 822 013e 7820     		movs	r0, #120
 823 0140 2A21     		movs	r1, #42
 824 0142 0C22     		movs	r2, #12
 825 0144 0823     		movs	r3, #8
 826 0146 FFF7FEFF 		bl	GUI_FillEllipse
 827              	.LVL118:
 521:.\main.c      ****         GUI_DispStringAt("C5", text_x, text_y);
 828              		.loc 1 521 0
 829 014a 7248     		ldr	r0, .L82+40
 830 014c 7821     		movs	r1, #120
 831 014e F022     		movs	r2, #240
 832 0150 FFF7FEFF 		bl	GUI_DispStringAt
 833              	.LVL119:
 834 0154 10BD     		pop	{r4, pc}
 835              	.LVL120:
 836              	.L48:
 522:.\main.c      ****     } else if (strcmp(input_name, "B4") == 0) {
 837              		.loc 1 522 0
 838 0156 2046     		mov	r0, r4
 839 0158 6F49     		ldr	r1, .L82+44
 840 015a FFF7FEFF 		bl	strcmp
ARM GAS  C:\Users\IVYLIU~1\AppData\Local\Temp\ccWSfWRg.s 			page 25


 841              	.LVL121:
 842 015e 58B9     		cbnz	r0, .L49
 523:.\main.c      ****         GUI_FillEllipse(SCREEN_WIDTH/2, TOP_MARGIN + 4*NOTE_SPACING, NOTE_WIDTH, NOTE_HEIGHT);
 843              		.loc 1 523 0
 844 0160 7820     		movs	r0, #120
 845 0162 3221     		movs	r1, #50
 846 0164 0C22     		movs	r2, #12
 847 0166 0823     		movs	r3, #8
 848 0168 FFF7FEFF 		bl	GUI_FillEllipse
 849              	.LVL122:
 524:.\main.c      ****         GUI_DispStringAt("B4", text_x, text_y);
 850              		.loc 1 524 0
 851 016c 6A48     		ldr	r0, .L82+44
 852 016e 7821     		movs	r1, #120
 853 0170 F022     		movs	r2, #240
 854 0172 FFF7FEFF 		bl	GUI_DispStringAt
 855              	.LVL123:
 856 0176 10BD     		pop	{r4, pc}
 857              	.LVL124:
 858              	.L49:
 525:.\main.c      ****     } else if (strcmp(input_name, "A#4") == 0) {
 859              		.loc 1 525 0
 860 0178 2046     		mov	r0, r4
 861 017a 6849     		ldr	r1, .L82+48
 862 017c FFF7FEFF 		bl	strcmp
 863              	.LVL125:
 864 0180 98B9     		cbnz	r0, .L50
 526:.\main.c      ****         GUI_FillEllipse(SCREEN_WIDTH/2, TOP_MARGIN + 5*NOTE_SPACING, NOTE_WIDTH, NOTE_HEIGHT);
 865              		.loc 1 526 0
 866 0182 7820     		movs	r0, #120
 867 0184 3921     		movs	r1, #57
 868 0186 0C22     		movs	r2, #12
 869 0188 0823     		movs	r3, #8
 870 018a FFF7FEFF 		bl	GUI_FillEllipse
 871              	.LVL126:
 527:.\main.c      ****         GUI_DispStringAt("A#4", text_x, text_y);
 872              		.loc 1 527 0
 873 018e 6348     		ldr	r0, .L82+48
 874 0190 7821     		movs	r1, #120
 875 0192 F022     		movs	r2, #240
 876 0194 FFF7FEFF 		bl	GUI_DispStringAt
 877              	.LVL127:
 528:.\main.c      **** 
 529:.\main.c      ****         GUI_SetFont(&GUI_Font24B_ASCII);
 878              		.loc 1 529 0
 879 0198 5748     		ldr	r0, .L82+12
 880 019a FFF7FEFF 		bl	GUI_SetFont
 881              	.LVL128:
 530:.\main.c      ****         GUI_DispStringAt("#", SCREEN_WIDTH/2 + 2*NOTE_WIDTH, TOP_MARGIN + 5*NOTE_SPACING);
 882              		.loc 1 530 0
 883 019e 5748     		ldr	r0, .L82+16
 884 01a0 9021     		movs	r1, #144
 885 01a2 3922     		movs	r2, #57
 886 01a4 FFF7FEFF 		bl	GUI_DispStringAt
 887              	.LVL129:
 888 01a8 10BD     		pop	{r4, pc}
 889              	.LVL130:
ARM GAS  C:\Users\IVYLIU~1\AppData\Local\Temp\ccWSfWRg.s 			page 26


 890              	.L50:
 531:.\main.c      ****     } else if (strcmp(input_name, "A4") == 0) {
 891              		.loc 1 531 0
 892 01aa 2046     		mov	r0, r4
 893 01ac 5C49     		ldr	r1, .L82+52
 894 01ae FFF7FEFF 		bl	strcmp
 895              	.LVL131:
 896 01b2 58B9     		cbnz	r0, .L51
 532:.\main.c      ****         GUI_FillEllipse(SCREEN_WIDTH/2, TOP_MARGIN + 5*NOTE_SPACING, NOTE_WIDTH, NOTE_HEIGHT);
 897              		.loc 1 532 0
 898 01b4 7820     		movs	r0, #120
 899 01b6 3921     		movs	r1, #57
 900 01b8 0C22     		movs	r2, #12
 901 01ba 0823     		movs	r3, #8
 902 01bc FFF7FEFF 		bl	GUI_FillEllipse
 903              	.LVL132:
 533:.\main.c      ****         GUI_DispStringAt("A4", text_x, text_y);
 904              		.loc 1 533 0
 905 01c0 5748     		ldr	r0, .L82+52
 906 01c2 7821     		movs	r1, #120
 907 01c4 F022     		movs	r2, #240
 908 01c6 FFF7FEFF 		bl	GUI_DispStringAt
 909              	.LVL133:
 910 01ca 10BD     		pop	{r4, pc}
 911              	.LVL134:
 912              	.L51:
 534:.\main.c      ****     } else if (strcmp(input_name, "G#4") == 0) {
 913              		.loc 1 534 0
 914 01cc 2046     		mov	r0, r4
 915 01ce 5549     		ldr	r1, .L82+56
 916 01d0 FFF7FEFF 		bl	strcmp
 917              	.LVL135:
 918 01d4 98B9     		cbnz	r0, .L52
 535:.\main.c      ****         GUI_FillEllipse(SCREEN_WIDTH/2, TOP_MARGIN + 6*NOTE_SPACING, NOTE_WIDTH, NOTE_HEIGHT);
 919              		.loc 1 535 0
 920 01d6 7820     		movs	r0, #120
 921 01d8 4121     		movs	r1, #65
 922 01da 0C22     		movs	r2, #12
 923 01dc 0823     		movs	r3, #8
 924 01de FFF7FEFF 		bl	GUI_FillEllipse
 925              	.LVL136:
 536:.\main.c      ****         GUI_DispStringAt("G#4", text_x, text_y);
 926              		.loc 1 536 0
 927 01e2 5048     		ldr	r0, .L82+56
 928 01e4 7821     		movs	r1, #120
 929 01e6 F022     		movs	r2, #240
 930 01e8 FFF7FEFF 		bl	GUI_DispStringAt
 931              	.LVL137:
 537:.\main.c      **** 
 538:.\main.c      ****         GUI_SetFont(&GUI_Font24B_ASCII);
 932              		.loc 1 538 0
 933 01ec 4248     		ldr	r0, .L82+12
 934 01ee FFF7FEFF 		bl	GUI_SetFont
 935              	.LVL138:
 539:.\main.c      ****         GUI_DispStringAt("#", SCREEN_WIDTH/2 + 2*NOTE_WIDTH, TOP_MARGIN + 6*NOTE_SPACING);
 936              		.loc 1 539 0
 937 01f2 4248     		ldr	r0, .L82+16
ARM GAS  C:\Users\IVYLIU~1\AppData\Local\Temp\ccWSfWRg.s 			page 27


 938 01f4 9021     		movs	r1, #144
 939 01f6 4122     		movs	r2, #65
 940 01f8 FFF7FEFF 		bl	GUI_DispStringAt
 941              	.LVL139:
 942 01fc 10BD     		pop	{r4, pc}
 943              	.LVL140:
 944              	.L52:
 540:.\main.c      ****     } else if (strcmp(input_name, "G4") == 0) {
 945              		.loc 1 540 0
 946 01fe 2046     		mov	r0, r4
 947 0200 4949     		ldr	r1, .L82+60
 948 0202 FFF7FEFF 		bl	strcmp
 949              	.LVL141:
 950 0206 58B9     		cbnz	r0, .L53
 541:.\main.c      ****         GUI_FillEllipse(SCREEN_WIDTH/2, TOP_MARGIN + 6*NOTE_SPACING, NOTE_WIDTH, NOTE_HEIGHT);
 951              		.loc 1 541 0
 952 0208 7820     		movs	r0, #120
 953 020a 4121     		movs	r1, #65
 954 020c 0C22     		movs	r2, #12
 955 020e 0823     		movs	r3, #8
 956 0210 FFF7FEFF 		bl	GUI_FillEllipse
 957              	.LVL142:
 542:.\main.c      ****         GUI_DispStringAt("G4", text_x, text_y);
 958              		.loc 1 542 0
 959 0214 4448     		ldr	r0, .L82+60
 960 0216 7821     		movs	r1, #120
 961 0218 F022     		movs	r2, #240
 962 021a FFF7FEFF 		bl	GUI_DispStringAt
 963              	.LVL143:
 964 021e 10BD     		pop	{r4, pc}
 965              	.LVL144:
 966              	.L53:
 543:.\main.c      ****     } else if (strcmp(input_name, "F#4") == 0) {
 967              		.loc 1 543 0
 968 0220 2046     		mov	r0, r4
 969 0222 4249     		ldr	r1, .L82+64
 970 0224 FFF7FEFF 		bl	strcmp
 971              	.LVL145:
 972 0228 98B9     		cbnz	r0, .L54
 544:.\main.c      ****         GUI_FillEllipse(SCREEN_WIDTH/2, TOP_MARGIN + 7*NOTE_SPACING, NOTE_WIDTH, NOTE_HEIGHT);
 973              		.loc 1 544 0
 974 022a 7820     		movs	r0, #120
 975 022c 4821     		movs	r1, #72
 976 022e 0C22     		movs	r2, #12
 977 0230 0823     		movs	r3, #8
 978 0232 FFF7FEFF 		bl	GUI_FillEllipse
 979              	.LVL146:
 545:.\main.c      ****         GUI_DispStringAt("F#4", text_x, text_y);
 980              		.loc 1 545 0
 981 0236 3D48     		ldr	r0, .L82+64
 982 0238 7821     		movs	r1, #120
 983 023a F022     		movs	r2, #240
 984 023c FFF7FEFF 		bl	GUI_DispStringAt
 985              	.LVL147:
 546:.\main.c      **** 
 547:.\main.c      ****         GUI_SetFont(&GUI_Font24B_ASCII);
 986              		.loc 1 547 0
ARM GAS  C:\Users\IVYLIU~1\AppData\Local\Temp\ccWSfWRg.s 			page 28


 987 0240 2D48     		ldr	r0, .L82+12
 988 0242 FFF7FEFF 		bl	GUI_SetFont
 989              	.LVL148:
 548:.\main.c      ****         GUI_DispStringAt("#", SCREEN_WIDTH/2 + 2*NOTE_WIDTH, TOP_MARGIN + 7*NOTE_SPACING);
 990              		.loc 1 548 0
 991 0246 2D48     		ldr	r0, .L82+16
 992 0248 9021     		movs	r1, #144
 993 024a 4822     		movs	r2, #72
 994 024c FFF7FEFF 		bl	GUI_DispStringAt
 995              	.LVL149:
 996 0250 10BD     		pop	{r4, pc}
 997              	.LVL150:
 998              	.L54:
 549:.\main.c      ****     } else if (strcmp(input_name, "F4") == 0) {
 999              		.loc 1 549 0
 1000 0252 2046     		mov	r0, r4
 1001 0254 3649     		ldr	r1, .L82+68
 1002 0256 FFF7FEFF 		bl	strcmp
 1003              	.LVL151:
 1004 025a 58B9     		cbnz	r0, .L55
 550:.\main.c      ****         GUI_FillEllipse(SCREEN_WIDTH/2, TOP_MARGIN + 7*NOTE_SPACING, NOTE_WIDTH, NOTE_HEIGHT);
 1005              		.loc 1 550 0
 1006 025c 7820     		movs	r0, #120
 1007 025e 4821     		movs	r1, #72
 1008 0260 0C22     		movs	r2, #12
 1009 0262 0823     		movs	r3, #8
 1010 0264 FFF7FEFF 		bl	GUI_FillEllipse
 1011              	.LVL152:
 551:.\main.c      ****         GUI_DispStringAt("F4", text_x, text_y);
 1012              		.loc 1 551 0
 1013 0268 3148     		ldr	r0, .L82+68
 1014 026a 7821     		movs	r1, #120
 1015 026c F022     		movs	r2, #240
 1016 026e FFF7FEFF 		bl	GUI_DispStringAt
 1017              	.LVL153:
 1018 0272 10BD     		pop	{r4, pc}
 1019              	.LVL154:
 1020              	.L55:
 552:.\main.c      ****     } else if (strcmp(input_name, "E4") == 0) {
 1021              		.loc 1 552 0
 1022 0274 2046     		mov	r0, r4
 1023 0276 2F49     		ldr	r1, .L82+72
 1024 0278 FFF7FEFF 		bl	strcmp
 1025              	.LVL155:
 1026 027c 58B9     		cbnz	r0, .L56
 553:.\main.c      ****         GUI_FillEllipse(SCREEN_WIDTH/2, TOP_MARGIN + 8*NOTE_SPACING, NOTE_WIDTH, NOTE_HEIGHT);
 1027              		.loc 1 553 0
 1028 027e 7820     		movs	r0, #120
 1029 0280 5021     		movs	r1, #80
 1030 0282 0C22     		movs	r2, #12
 1031 0284 0823     		movs	r3, #8
 1032 0286 FFF7FEFF 		bl	GUI_FillEllipse
 1033              	.LVL156:
 554:.\main.c      ****         GUI_DispStringAt("E4", text_x, text_y);
 1034              		.loc 1 554 0
 1035 028a 2A48     		ldr	r0, .L82+72
 1036 028c 7821     		movs	r1, #120
ARM GAS  C:\Users\IVYLIU~1\AppData\Local\Temp\ccWSfWRg.s 			page 29


 1037 028e F022     		movs	r2, #240
 1038 0290 FFF7FEFF 		bl	GUI_DispStringAt
 1039              	.LVL157:
 1040 0294 10BD     		pop	{r4, pc}
 1041              	.LVL158:
 1042              	.L56:
 555:.\main.c      ****     } else if (strcmp(input_name, "D#4") == 0) {
 1043              		.loc 1 555 0
 1044 0296 2046     		mov	r0, r4
 1045 0298 2749     		ldr	r1, .L82+76
 1046 029a FFF7FEFF 		bl	strcmp
 1047              	.LVL159:
 1048 029e 98B9     		cbnz	r0, .L57
 556:.\main.c      ****         GUI_FillEllipse(SCREEN_WIDTH/2, TOP_MARGIN + 9*NOTE_SPACING, NOTE_WIDTH, NOTE_HEIGHT);
 1049              		.loc 1 556 0
 1050 02a0 7820     		movs	r0, #120
 1051 02a2 5721     		movs	r1, #87
 1052 02a4 0C22     		movs	r2, #12
 1053 02a6 0823     		movs	r3, #8
 1054 02a8 FFF7FEFF 		bl	GUI_FillEllipse
 1055              	.LVL160:
 557:.\main.c      ****         GUI_DispStringAt("D#4", text_x, text_y);
 1056              		.loc 1 557 0
 1057 02ac 2248     		ldr	r0, .L82+76
 1058 02ae 7821     		movs	r1, #120
 1059 02b0 F022     		movs	r2, #240
 1060 02b2 FFF7FEFF 		bl	GUI_DispStringAt
 1061              	.LVL161:
 558:.\main.c      **** 
 559:.\main.c      ****         GUI_SetFont(&GUI_Font24B_ASCII);
 1062              		.loc 1 559 0
 1063 02b6 1048     		ldr	r0, .L82+12
 1064 02b8 FFF7FEFF 		bl	GUI_SetFont
 1065              	.LVL162:
 560:.\main.c      ****         GUI_DispStringAt("#", SCREEN_WIDTH/2 + 2*NOTE_WIDTH, TOP_MARGIN + 9*NOTE_SPACING);
 1066              		.loc 1 560 0
 1067 02bc 0F48     		ldr	r0, .L82+16
 1068 02be 9021     		movs	r1, #144
 1069 02c0 5722     		movs	r2, #87
 1070 02c2 FFF7FEFF 		bl	GUI_DispStringAt
 1071              	.LVL163:
 1072 02c6 10BD     		pop	{r4, pc}
 1073              	.LVL164:
 1074              	.L57:
 561:.\main.c      ****     } else if (strcmp(input_name, "D4") == 0) {
 1075              		.loc 1 561 0
 1076 02c8 2046     		mov	r0, r4
 1077 02ca 1C49     		ldr	r1, .L82+80
 1078 02cc FFF7FEFF 		bl	strcmp
 1079              	.LVL165:
 1080 02d0 B0BB     		cbnz	r0, .L58
 562:.\main.c      ****         GUI_FillEllipse(SCREEN_WIDTH/2, TOP_MARGIN + 9*NOTE_SPACING, NOTE_WIDTH, NOTE_HEIGHT);
 1081              		.loc 1 562 0
 1082 02d2 7820     		movs	r0, #120
 1083 02d4 5721     		movs	r1, #87
 1084 02d6 0C22     		movs	r2, #12
 1085 02d8 0823     		movs	r3, #8
ARM GAS  C:\Users\IVYLIU~1\AppData\Local\Temp\ccWSfWRg.s 			page 30


 1086 02da FFF7FEFF 		bl	GUI_FillEllipse
 1087              	.LVL166:
 563:.\main.c      ****         GUI_DispStringAt("D4", text_x, text_y);
 1088              		.loc 1 563 0
 1089 02de 1748     		ldr	r0, .L82+80
 1090 02e0 7821     		movs	r1, #120
 1091 02e2 F022     		movs	r2, #240
 1092 02e4 FFF7FEFF 		bl	GUI_DispStringAt
 1093              	.LVL167:
 1094 02e8 10BD     		pop	{r4, pc}
 1095              	.LVL168:
 1096              	.L83:
 1097 02ea 00BF     		.align	2
 1098              	.L82:
 1099 02ec 00000000 		.word	GUI_Font32B_ASCII
 1100 02f0 DC000000 		.word	.LC9
 1101 02f4 E0000000 		.word	.LC10
 1102 02f8 00000000 		.word	GUI_Font24B_ASCII
 1103 02fc E4000000 		.word	.LC11
 1104 0300 E8000000 		.word	.LC12
 1105 0304 EC000000 		.word	.LC13
 1106 0308 F0000000 		.word	.LC14
 1107 030c F4000000 		.word	.LC15
 1108 0310 F8000000 		.word	.LC16
 1109 0314 FC000000 		.word	.LC17
 1110 0318 00010000 		.word	.LC18
 1111 031c 04010000 		.word	.LC19
 1112 0320 08010000 		.word	.LC20
 1113 0324 0C010000 		.word	.LC21
 1114 0328 10010000 		.word	.LC22
 1115 032c 14010000 		.word	.LC23
 1116 0330 18010000 		.word	.LC24
 1117 0334 1C010000 		.word	.LC25
 1118 0338 20010000 		.word	.LC26
 1119 033c 24010000 		.word	.LC27
 1120              	.LVL169:
 1121              	.L58:
 564:.\main.c      ****     } else if (strcmp(input_name, "C#4") == 0) {
 1122              		.loc 1 564 0
 1123 0340 2046     		mov	r0, r4
 1124 0342 BD49     		ldr	r1, .L84
 1125 0344 FFF7FEFF 		bl	strcmp
 1126              	.LVL170:
 1127 0348 98B9     		cbnz	r0, .L59
 565:.\main.c      ****         GUI_FillEllipse(SCREEN_WIDTH/2, TOP_MARGIN + 10*NOTE_SPACING, NOTE_WIDTH, NOTE_HEIGHT);
 1128              		.loc 1 565 0
 1129 034a 7820     		movs	r0, #120
 1130 034c 5F21     		movs	r1, #95
 1131 034e 0C22     		movs	r2, #12
 1132 0350 0823     		movs	r3, #8
 1133 0352 FFF7FEFF 		bl	GUI_FillEllipse
 1134              	.LVL171:
 566:.\main.c      ****         GUI_DispStringAt("C#4", text_x, text_y);
 1135              		.loc 1 566 0
 1136 0356 B848     		ldr	r0, .L84
 1137 0358 7821     		movs	r1, #120
 1138 035a F022     		movs	r2, #240
ARM GAS  C:\Users\IVYLIU~1\AppData\Local\Temp\ccWSfWRg.s 			page 31


 1139 035c FFF7FEFF 		bl	GUI_DispStringAt
 1140              	.LVL172:
 567:.\main.c      **** 
 568:.\main.c      ****         GUI_SetFont(&GUI_Font24B_ASCII);
 1141              		.loc 1 568 0
 1142 0360 B648     		ldr	r0, .L84+4
 1143 0362 FFF7FEFF 		bl	GUI_SetFont
 1144              	.LVL173:
 569:.\main.c      ****         GUI_DispStringAt("#", SCREEN_WIDTH/2 + 2*NOTE_WIDTH, TOP_MARGIN + 10*NOTE_SPACING);
 1145              		.loc 1 569 0
 1146 0366 B648     		ldr	r0, .L84+8
 1147 0368 9021     		movs	r1, #144
 1148 036a 5F22     		movs	r2, #95
 1149 036c FFF7FEFF 		bl	GUI_DispStringAt
 1150              	.LVL174:
 1151 0370 10BD     		pop	{r4, pc}
 1152              	.LVL175:
 1153              	.L59:
 570:.\main.c      ****     } else if (strcmp(input_name, "C4") == 0) { //Middle C
 1154              		.loc 1 570 0
 1155 0372 2046     		mov	r0, r4
 1156 0374 B349     		ldr	r1, .L84+12
 1157 0376 FFF7FEFF 		bl	strcmp
 1158              	.LVL176:
 1159 037a 58B9     		cbnz	r0, .L60
 571:.\main.c      ****         GUI_FillEllipse(SCREEN_WIDTH/2, TOP_MARGIN + 10*NOTE_HEIGHT, NOTE_WIDTH, NOTE_HEIGHT);
 1160              		.loc 1 571 0
 1161 037c 7820     		movs	r0, #120
 1162 037e 6421     		movs	r1, #100
 1163 0380 0C22     		movs	r2, #12
 1164 0382 0823     		movs	r3, #8
 1165 0384 FFF7FEFF 		bl	GUI_FillEllipse
 1166              	.LVL177:
 572:.\main.c      ****         GUI_DispStringAt("C4", text_x, text_y);
 1167              		.loc 1 572 0
 1168 0388 AE48     		ldr	r0, .L84+12
 1169 038a 7821     		movs	r1, #120
 1170 038c F022     		movs	r2, #240
 1171 038e FFF7FEFF 		bl	GUI_DispStringAt
 1172              	.LVL178:
 1173 0392 10BD     		pop	{r4, pc}
 1174              	.LVL179:
 1175              	.L60:
 573:.\main.c      ****     } else if (strcmp(input_name, "B3") == 0) {
 1176              		.loc 1 573 0
 1177 0394 2046     		mov	r0, r4
 1178 0396 AC49     		ldr	r1, .L84+16
 1179 0398 FFF7FEFF 		bl	strcmp
 1180              	.LVL180:
 1181 039c 58B9     		cbnz	r0, .L61
 574:.\main.c      ****         GUI_FillEllipse(SCREEN_WIDTH/2, LOWER_OFFSET - NOTE_SPACING, NOTE_WIDTH, NOTE_HEIGHT);
 1182              		.loc 1 574 0
 1183 039e 7820     		movs	r0, #120
 1184 03a0 7121     		movs	r1, #113
 1185 03a2 0C22     		movs	r2, #12
 1186 03a4 0823     		movs	r3, #8
 1187 03a6 FFF7FEFF 		bl	GUI_FillEllipse
ARM GAS  C:\Users\IVYLIU~1\AppData\Local\Temp\ccWSfWRg.s 			page 32


 1188              	.LVL181:
 575:.\main.c      ****         GUI_DispStringAt("B3", text_x, text_y);
 1189              		.loc 1 575 0
 1190 03aa A748     		ldr	r0, .L84+16
 1191 03ac 7821     		movs	r1, #120
 1192 03ae F022     		movs	r2, #240
 1193 03b0 FFF7FEFF 		bl	GUI_DispStringAt
 1194              	.LVL182:
 1195 03b4 10BD     		pop	{r4, pc}
 1196              	.LVL183:
 1197              	.L61:
 576:.\main.c      ****     } else if (strcmp(input_name, "A#3") == 0) {
 1198              		.loc 1 576 0
 1199 03b6 2046     		mov	r0, r4
 1200 03b8 A449     		ldr	r1, .L84+20
 1201 03ba FFF7FEFF 		bl	strcmp
 1202              	.LVL184:
 1203 03be 98B9     		cbnz	r0, .L62
 577:.\main.c      ****         GUI_FillEllipse(SCREEN_WIDTH/2, LOWER_OFFSET, NOTE_WIDTH, NOTE_HEIGHT);
 1204              		.loc 1 577 0
 1205 03c0 7820     		movs	r0, #120
 1206 03c2 0146     		mov	r1, r0
 1207 03c4 0C22     		movs	r2, #12
 1208 03c6 0823     		movs	r3, #8
 1209 03c8 FFF7FEFF 		bl	GUI_FillEllipse
 1210              	.LVL185:
 578:.\main.c      ****         GUI_DispStringAt("A#3", text_x, text_y);
 1211              		.loc 1 578 0
 1212 03cc 9F48     		ldr	r0, .L84+20
 1213 03ce 7821     		movs	r1, #120
 1214 03d0 F022     		movs	r2, #240
 1215 03d2 FFF7FEFF 		bl	GUI_DispStringAt
 1216              	.LVL186:
 579:.\main.c      **** 
 580:.\main.c      ****         GUI_SetFont(&GUI_Font24B_ASCII);
 1217              		.loc 1 580 0
 1218 03d6 9948     		ldr	r0, .L84+4
 1219 03d8 FFF7FEFF 		bl	GUI_SetFont
 1220              	.LVL187:
 581:.\main.c      ****         GUI_DispStringAt("#", SCREEN_WIDTH/2 + 2*NOTE_WIDTH, LOWER_OFFSET);
 1221              		.loc 1 581 0
 1222 03dc 9848     		ldr	r0, .L84+8
 1223 03de 9021     		movs	r1, #144
 1224 03e0 7822     		movs	r2, #120
 1225 03e2 FFF7FEFF 		bl	GUI_DispStringAt
 1226              	.LVL188:
 1227 03e6 10BD     		pop	{r4, pc}
 1228              	.LVL189:
 1229              	.L62:
 582:.\main.c      ****     } else if (strcmp(input_name, "A3") == 0) {
 1230              		.loc 1 582 0
 1231 03e8 2046     		mov	r0, r4
 1232 03ea 9949     		ldr	r1, .L84+24
 1233 03ec FFF7FEFF 		bl	strcmp
 1234              	.LVL190:
 1235 03f0 58B9     		cbnz	r0, .L63
 583:.\main.c      ****         GUI_FillEllipse(SCREEN_WIDTH/2, LOWER_OFFSET, NOTE_WIDTH, NOTE_HEIGHT);
ARM GAS  C:\Users\IVYLIU~1\AppData\Local\Temp\ccWSfWRg.s 			page 33


 1236              		.loc 1 583 0
 1237 03f2 7820     		movs	r0, #120
 1238 03f4 0146     		mov	r1, r0
 1239 03f6 0C22     		movs	r2, #12
 1240 03f8 0823     		movs	r3, #8
 1241 03fa FFF7FEFF 		bl	GUI_FillEllipse
 1242              	.LVL191:
 584:.\main.c      ****         GUI_DispStringAt("A3", text_x, text_y);
 1243              		.loc 1 584 0
 1244 03fe 9448     		ldr	r0, .L84+24
 1245 0400 7821     		movs	r1, #120
 1246 0402 F022     		movs	r2, #240
 1247 0404 FFF7FEFF 		bl	GUI_DispStringAt
 1248              	.LVL192:
 1249 0408 10BD     		pop	{r4, pc}
 1250              	.LVL193:
 1251              	.L63:
 585:.\main.c      ****     } else if (strcmp(input_name, "G#3") == 0) {
 1252              		.loc 1 585 0
 1253 040a 2046     		mov	r0, r4
 1254 040c 9149     		ldr	r1, .L84+28
 1255 040e FFF7FEFF 		bl	strcmp
 1256              	.LVL194:
 1257 0412 98B9     		cbnz	r0, .L64
 586:.\main.c      ****         GUI_FillEllipse(SCREEN_WIDTH/2, LOWER_OFFSET + NOTE_SPACING, NOTE_WIDTH, NOTE_HEIGHT);
 1258              		.loc 1 586 0
 1259 0414 7820     		movs	r0, #120
 1260 0416 7F21     		movs	r1, #127
 1261 0418 0C22     		movs	r2, #12
 1262 041a 0823     		movs	r3, #8
 1263 041c FFF7FEFF 		bl	GUI_FillEllipse
 1264              	.LVL195:
 587:.\main.c      ****         GUI_DispStringAt("G#3", text_x, text_y);
 1265              		.loc 1 587 0
 1266 0420 8C48     		ldr	r0, .L84+28
 1267 0422 7821     		movs	r1, #120
 1268 0424 F022     		movs	r2, #240
 1269 0426 FFF7FEFF 		bl	GUI_DispStringAt
 1270              	.LVL196:
 588:.\main.c      **** 
 589:.\main.c      ****         GUI_SetFont(&GUI_Font24B_ASCII);
 1271              		.loc 1 589 0
 1272 042a 8448     		ldr	r0, .L84+4
 1273 042c FFF7FEFF 		bl	GUI_SetFont
 1274              	.LVL197:
 590:.\main.c      ****         GUI_DispStringAt("#", SCREEN_WIDTH/2 + 2*NOTE_WIDTH, LOWER_OFFSET + NOTE_SPACING);
 1275              		.loc 1 590 0
 1276 0430 8348     		ldr	r0, .L84+8
 1277 0432 9021     		movs	r1, #144
 1278 0434 7F22     		movs	r2, #127
 1279 0436 FFF7FEFF 		bl	GUI_DispStringAt
 1280              	.LVL198:
 1281 043a 10BD     		pop	{r4, pc}
 1282              	.LVL199:
 1283              	.L64:
 591:.\main.c      ****     } else if (strcmp(input_name, "G3") == 0) {
 1284              		.loc 1 591 0
ARM GAS  C:\Users\IVYLIU~1\AppData\Local\Temp\ccWSfWRg.s 			page 34


 1285 043c 2046     		mov	r0, r4
 1286 043e 8649     		ldr	r1, .L84+32
 1287 0440 FFF7FEFF 		bl	strcmp
 1288              	.LVL200:
 1289 0444 58B9     		cbnz	r0, .L65
 592:.\main.c      ****         GUI_FillEllipse(SCREEN_WIDTH/2, LOWER_OFFSET + NOTE_SPACING, NOTE_WIDTH, NOTE_HEIGHT);
 1290              		.loc 1 592 0
 1291 0446 7820     		movs	r0, #120
 1292 0448 7F21     		movs	r1, #127
 1293 044a 0C22     		movs	r2, #12
 1294 044c 0823     		movs	r3, #8
 1295 044e FFF7FEFF 		bl	GUI_FillEllipse
 1296              	.LVL201:
 593:.\main.c      ****         GUI_DispStringAt("G3", text_x, text_y);
 1297              		.loc 1 593 0
 1298 0452 8148     		ldr	r0, .L84+32
 1299 0454 7821     		movs	r1, #120
 1300 0456 F022     		movs	r2, #240
 1301 0458 FFF7FEFF 		bl	GUI_DispStringAt
 1302              	.LVL202:
 1303 045c 10BD     		pop	{r4, pc}
 1304              	.LVL203:
 1305              	.L65:
 594:.\main.c      ****     } else if (strcmp(input_name, "F#3") == 0) {
 1306              		.loc 1 594 0
 1307 045e 2046     		mov	r0, r4
 1308 0460 7E49     		ldr	r1, .L84+36
 1309 0462 FFF7FEFF 		bl	strcmp
 1310              	.LVL204:
 1311 0466 98B9     		cbnz	r0, .L66
 595:.\main.c      ****         GUI_FillEllipse(SCREEN_WIDTH/2, LOWER_OFFSET + 2*NOTE_SPACING, NOTE_WIDTH, NOTE_HEIGHT);
 1312              		.loc 1 595 0
 1313 0468 7820     		movs	r0, #120
 1314 046a 8721     		movs	r1, #135
 1315 046c 0C22     		movs	r2, #12
 1316 046e 0823     		movs	r3, #8
 1317 0470 FFF7FEFF 		bl	GUI_FillEllipse
 1318              	.LVL205:
 596:.\main.c      ****         GUI_DispStringAt("F#3", text_x, text_y);
 1319              		.loc 1 596 0
 1320 0474 7948     		ldr	r0, .L84+36
 1321 0476 7821     		movs	r1, #120
 1322 0478 F022     		movs	r2, #240
 1323 047a FFF7FEFF 		bl	GUI_DispStringAt
 1324              	.LVL206:
 597:.\main.c      **** 
 598:.\main.c      ****         GUI_SetFont(&GUI_Font24B_ASCII);
 1325              		.loc 1 598 0
 1326 047e 6F48     		ldr	r0, .L84+4
 1327 0480 FFF7FEFF 		bl	GUI_SetFont
 1328              	.LVL207:
 599:.\main.c      ****         GUI_DispStringAt("#", SCREEN_WIDTH/2 + 2*NOTE_WIDTH, LOWER_OFFSET + 2*NOTE_SPACING);
 1329              		.loc 1 599 0
 1330 0484 6E48     		ldr	r0, .L84+8
 1331 0486 9021     		movs	r1, #144
 1332 0488 8722     		movs	r2, #135
 1333 048a FFF7FEFF 		bl	GUI_DispStringAt
ARM GAS  C:\Users\IVYLIU~1\AppData\Local\Temp\ccWSfWRg.s 			page 35


 1334              	.LVL208:
 1335 048e 10BD     		pop	{r4, pc}
 1336              	.LVL209:
 1337              	.L66:
 600:.\main.c      ****     } else if (strcmp(input_name, "F3") == 0) {
 1338              		.loc 1 600 0
 1339 0490 2046     		mov	r0, r4
 1340 0492 7349     		ldr	r1, .L84+40
 1341 0494 FFF7FEFF 		bl	strcmp
 1342              	.LVL210:
 1343 0498 58B9     		cbnz	r0, .L67
 601:.\main.c      ****         GUI_FillEllipse(SCREEN_WIDTH/2, LOWER_OFFSET + 2*NOTE_SPACING, NOTE_WIDTH, NOTE_HEIGHT);
 1344              		.loc 1 601 0
 1345 049a 7820     		movs	r0, #120
 1346 049c 8721     		movs	r1, #135
 1347 049e 0C22     		movs	r2, #12
 1348 04a0 0823     		movs	r3, #8
 1349 04a2 FFF7FEFF 		bl	GUI_FillEllipse
 1350              	.LVL211:
 602:.\main.c      ****         GUI_DispStringAt("F3", text_x, text_y);
 1351              		.loc 1 602 0
 1352 04a6 6E48     		ldr	r0, .L84+40
 1353 04a8 7821     		movs	r1, #120
 1354 04aa F022     		movs	r2, #240
 1355 04ac FFF7FEFF 		bl	GUI_DispStringAt
 1356              	.LVL212:
 1357 04b0 10BD     		pop	{r4, pc}
 1358              	.LVL213:
 1359              	.L67:
 603:.\main.c      ****     } else if (strcmp(input_name, "E3") == 0) {
 1360              		.loc 1 603 0
 1361 04b2 2046     		mov	r0, r4
 1362 04b4 6B49     		ldr	r1, .L84+44
 1363 04b6 FFF7FEFF 		bl	strcmp
 1364              	.LVL214:
 1365 04ba 58B9     		cbnz	r0, .L68
 604:.\main.c      ****         GUI_FillEllipse(SCREEN_WIDTH/2, LOWER_OFFSET + 3*NOTE_SPACING, NOTE_WIDTH, NOTE_HEIGHT);
 1366              		.loc 1 604 0
 1367 04bc 7820     		movs	r0, #120
 1368 04be 8E21     		movs	r1, #142
 1369 04c0 0C22     		movs	r2, #12
 1370 04c2 0823     		movs	r3, #8
 1371 04c4 FFF7FEFF 		bl	GUI_FillEllipse
 1372              	.LVL215:
 605:.\main.c      ****         GUI_DispStringAt("E3", text_x, text_y);
 1373              		.loc 1 605 0
 1374 04c8 6648     		ldr	r0, .L84+44
 1375 04ca 7821     		movs	r1, #120
 1376 04cc F022     		movs	r2, #240
 1377 04ce FFF7FEFF 		bl	GUI_DispStringAt
 1378              	.LVL216:
 1379 04d2 10BD     		pop	{r4, pc}
 1380              	.LVL217:
 1381              	.L68:
 606:.\main.c      ****     } else if (strcmp(input_name, "D#3") == 0) {
 1382              		.loc 1 606 0
 1383 04d4 2046     		mov	r0, r4
ARM GAS  C:\Users\IVYLIU~1\AppData\Local\Temp\ccWSfWRg.s 			page 36


 1384 04d6 6449     		ldr	r1, .L84+48
 1385 04d8 FFF7FEFF 		bl	strcmp
 1386              	.LVL218:
 1387 04dc 98B9     		cbnz	r0, .L69
 607:.\main.c      ****         GUI_FillEllipse(SCREEN_WIDTH/2, LOWER_OFFSET + 4*NOTE_SPACING, NOTE_WIDTH, NOTE_HEIGHT);
 1388              		.loc 1 607 0
 1389 04de 7820     		movs	r0, #120
 1390 04e0 9621     		movs	r1, #150
 1391 04e2 0C22     		movs	r2, #12
 1392 04e4 0823     		movs	r3, #8
 1393 04e6 FFF7FEFF 		bl	GUI_FillEllipse
 1394              	.LVL219:
 608:.\main.c      ****         GUI_DispStringAt("D#3", text_x, text_y);
 1395              		.loc 1 608 0
 1396 04ea 5F48     		ldr	r0, .L84+48
 1397 04ec 7821     		movs	r1, #120
 1398 04ee F022     		movs	r2, #240
 1399 04f0 FFF7FEFF 		bl	GUI_DispStringAt
 1400              	.LVL220:
 609:.\main.c      **** 
 610:.\main.c      ****         GUI_SetFont(&GUI_Font24B_ASCII);
 1401              		.loc 1 610 0
 1402 04f4 5148     		ldr	r0, .L84+4
 1403 04f6 FFF7FEFF 		bl	GUI_SetFont
 1404              	.LVL221:
 611:.\main.c      ****         GUI_DispStringAt("#", SCREEN_WIDTH/2 + 2*NOTE_WIDTH, LOWER_OFFSET + 4*NOTE_SPACING);
 1405              		.loc 1 611 0
 1406 04fa 5148     		ldr	r0, .L84+8
 1407 04fc 9021     		movs	r1, #144
 1408 04fe 9622     		movs	r2, #150
 1409 0500 FFF7FEFF 		bl	GUI_DispStringAt
 1410              	.LVL222:
 1411 0504 10BD     		pop	{r4, pc}
 1412              	.LVL223:
 1413              	.L69:
 612:.\main.c      ****     } else if (strcmp(input_name, "D3") == 0) {
 1414              		.loc 1 612 0
 1415 0506 2046     		mov	r0, r4
 1416 0508 5849     		ldr	r1, .L84+52
 1417 050a FFF7FEFF 		bl	strcmp
 1418              	.LVL224:
 1419 050e 58B9     		cbnz	r0, .L70
 613:.\main.c      ****         GUI_FillEllipse(SCREEN_WIDTH/2, LOWER_OFFSET + 4*NOTE_SPACING, NOTE_WIDTH, NOTE_HEIGHT);
 1420              		.loc 1 613 0
 1421 0510 7820     		movs	r0, #120
 1422 0512 9621     		movs	r1, #150
 1423 0514 0C22     		movs	r2, #12
 1424 0516 0823     		movs	r3, #8
 1425 0518 FFF7FEFF 		bl	GUI_FillEllipse
 1426              	.LVL225:
 614:.\main.c      ****         GUI_DispStringAt("D3", text_x, text_y);
 1427              		.loc 1 614 0
 1428 051c 5348     		ldr	r0, .L84+52
 1429 051e 7821     		movs	r1, #120
 1430 0520 F022     		movs	r2, #240
 1431 0522 FFF7FEFF 		bl	GUI_DispStringAt
 1432              	.LVL226:
ARM GAS  C:\Users\IVYLIU~1\AppData\Local\Temp\ccWSfWRg.s 			page 37


 1433 0526 10BD     		pop	{r4, pc}
 1434              	.LVL227:
 1435              	.L70:
 615:.\main.c      ****     } else if (strcmp(input_name, "C#3") == 0) {
 1436              		.loc 1 615 0
 1437 0528 2046     		mov	r0, r4
 1438 052a 5149     		ldr	r1, .L84+56
 1439 052c FFF7FEFF 		bl	strcmp
 1440              	.LVL228:
 1441 0530 98B9     		cbnz	r0, .L71
 616:.\main.c      ****         GUI_FillEllipse(SCREEN_WIDTH/2, LOWER_OFFSET + 5*NOTE_SPACING, NOTE_WIDTH, NOTE_HEIGHT);
 1442              		.loc 1 616 0
 1443 0532 7820     		movs	r0, #120
 1444 0534 9D21     		movs	r1, #157
 1445 0536 0C22     		movs	r2, #12
 1446 0538 0823     		movs	r3, #8
 1447 053a FFF7FEFF 		bl	GUI_FillEllipse
 1448              	.LVL229:
 617:.\main.c      ****         GUI_DispStringAt("C#3", text_x, text_y);
 1449              		.loc 1 617 0
 1450 053e 4C48     		ldr	r0, .L84+56
 1451 0540 7821     		movs	r1, #120
 1452 0542 F022     		movs	r2, #240
 1453 0544 FFF7FEFF 		bl	GUI_DispStringAt
 1454              	.LVL230:
 618:.\main.c      **** 
 619:.\main.c      ****         GUI_SetFont(&GUI_Font24B_ASCII);
 1455              		.loc 1 619 0
 1456 0548 3C48     		ldr	r0, .L84+4
 1457 054a FFF7FEFF 		bl	GUI_SetFont
 1458              	.LVL231:
 620:.\main.c      ****         GUI_DispStringAt("#", SCREEN_WIDTH/2 + 2*NOTE_WIDTH, LOWER_OFFSET + 5*NOTE_SPACING);
 1459              		.loc 1 620 0
 1460 054e 3C48     		ldr	r0, .L84+8
 1461 0550 9021     		movs	r1, #144
 1462 0552 9D22     		movs	r2, #157
 1463 0554 FFF7FEFF 		bl	GUI_DispStringAt
 1464              	.LVL232:
 1465 0558 10BD     		pop	{r4, pc}
 1466              	.LVL233:
 1467              	.L71:
 621:.\main.c      ****     } else if (strcmp(input_name, "C3") == 0) {
 1468              		.loc 1 621 0
 1469 055a 2046     		mov	r0, r4
 1470 055c 4549     		ldr	r1, .L84+60
 1471 055e FFF7FEFF 		bl	strcmp
 1472              	.LVL234:
 1473 0562 58B9     		cbnz	r0, .L72
 622:.\main.c      ****         GUI_FillEllipse(SCREEN_WIDTH/2, LOWER_OFFSET + 5*NOTE_SPACING, NOTE_WIDTH, NOTE_HEIGHT);
 1474              		.loc 1 622 0
 1475 0564 7820     		movs	r0, #120
 1476 0566 9D21     		movs	r1, #157
 1477 0568 0C22     		movs	r2, #12
 1478 056a 0823     		movs	r3, #8
 1479 056c FFF7FEFF 		bl	GUI_FillEllipse
 1480              	.LVL235:
 623:.\main.c      ****         GUI_DispStringAt("C3", text_x, text_y);
ARM GAS  C:\Users\IVYLIU~1\AppData\Local\Temp\ccWSfWRg.s 			page 38


 1481              		.loc 1 623 0
 1482 0570 4048     		ldr	r0, .L84+60
 1483 0572 7821     		movs	r1, #120
 1484 0574 F022     		movs	r2, #240
 1485 0576 FFF7FEFF 		bl	GUI_DispStringAt
 1486              	.LVL236:
 1487 057a 10BD     		pop	{r4, pc}
 1488              	.LVL237:
 1489              	.L72:
 624:.\main.c      ****     } else if (strcmp(input_name, "B2") == 0) {
 1490              		.loc 1 624 0
 1491 057c 2046     		mov	r0, r4
 1492 057e 3E49     		ldr	r1, .L84+64
 1493 0580 FFF7FEFF 		bl	strcmp
 1494              	.LVL238:
 1495 0584 58B9     		cbnz	r0, .L73
 625:.\main.c      ****         GUI_FillEllipse(SCREEN_WIDTH/2, LOWER_OFFSET + 6*NOTE_SPACING, NOTE_WIDTH, NOTE_HEIGHT);
 1496              		.loc 1 625 0
 1497 0586 7820     		movs	r0, #120
 1498 0588 A521     		movs	r1, #165
 1499 058a 0C22     		movs	r2, #12
 1500 058c 0823     		movs	r3, #8
 1501 058e FFF7FEFF 		bl	GUI_FillEllipse
 1502              	.LVL239:
 626:.\main.c      ****         GUI_DispStringAt("B2", text_x, text_y);
 1503              		.loc 1 626 0
 1504 0592 3948     		ldr	r0, .L84+64
 1505 0594 7821     		movs	r1, #120
 1506 0596 F022     		movs	r2, #240
 1507 0598 FFF7FEFF 		bl	GUI_DispStringAt
 1508              	.LVL240:
 1509 059c 10BD     		pop	{r4, pc}
 1510              	.LVL241:
 1511              	.L73:
 627:.\main.c      ****     } else if (strcmp(input_name, "A#2") == 0) {
 1512              		.loc 1 627 0
 1513 059e 2046     		mov	r0, r4
 1514 05a0 3649     		ldr	r1, .L84+68
 1515 05a2 FFF7FEFF 		bl	strcmp
 1516              	.LVL242:
 1517 05a6 98B9     		cbnz	r0, .L74
 628:.\main.c      ****         GUI_FillEllipse(SCREEN_WIDTH/2, LOWER_OFFSET + 7*NOTE_SPACING, NOTE_WIDTH, NOTE_HEIGHT);
 1518              		.loc 1 628 0
 1519 05a8 7820     		movs	r0, #120
 1520 05aa AC21     		movs	r1, #172
 1521 05ac 0C22     		movs	r2, #12
 1522 05ae 0823     		movs	r3, #8
 1523 05b0 FFF7FEFF 		bl	GUI_FillEllipse
 1524              	.LVL243:
 629:.\main.c      ****         GUI_DispStringAt("A#2", text_x, text_y);
 1525              		.loc 1 629 0
 1526 05b4 3148     		ldr	r0, .L84+68
 1527 05b6 7821     		movs	r1, #120
 1528 05b8 F022     		movs	r2, #240
 1529 05ba FFF7FEFF 		bl	GUI_DispStringAt
 1530              	.LVL244:
 630:.\main.c      **** 
ARM GAS  C:\Users\IVYLIU~1\AppData\Local\Temp\ccWSfWRg.s 			page 39


 631:.\main.c      ****         GUI_SetFont(&GUI_Font24B_ASCII);
 1531              		.loc 1 631 0
 1532 05be 1F48     		ldr	r0, .L84+4
 1533 05c0 FFF7FEFF 		bl	GUI_SetFont
 1534              	.LVL245:
 632:.\main.c      ****         GUI_DispStringAt("#", SCREEN_WIDTH/2 + 2*NOTE_WIDTH, LOWER_OFFSET + 7*NOTE_SPACING);
 1535              		.loc 1 632 0
 1536 05c4 1E48     		ldr	r0, .L84+8
 1537 05c6 9021     		movs	r1, #144
 1538 05c8 AC22     		movs	r2, #172
 1539 05ca FFF7FEFF 		bl	GUI_DispStringAt
 1540              	.LVL246:
 1541 05ce 10BD     		pop	{r4, pc}
 1542              	.LVL247:
 1543              	.L74:
 633:.\main.c      ****     } else if (strcmp(input_name, "A2") == 0) {
 1544              		.loc 1 633 0
 1545 05d0 2046     		mov	r0, r4
 1546 05d2 2B49     		ldr	r1, .L84+72
 1547 05d4 FFF7FEFF 		bl	strcmp
 1548              	.LVL248:
 1549 05d8 58B9     		cbnz	r0, .L75
 634:.\main.c      ****         GUI_FillEllipse(SCREEN_WIDTH/2, LOWER_OFFSET + 7*NOTE_SPACING, NOTE_WIDTH, NOTE_HEIGHT);
 1550              		.loc 1 634 0
 1551 05da 7820     		movs	r0, #120
 1552 05dc AC21     		movs	r1, #172
 1553 05de 0C22     		movs	r2, #12
 1554 05e0 0823     		movs	r3, #8
 1555 05e2 FFF7FEFF 		bl	GUI_FillEllipse
 1556              	.LVL249:
 635:.\main.c      ****         GUI_DispStringAt("A2", text_x, text_y);
 1557              		.loc 1 635 0
 1558 05e6 2648     		ldr	r0, .L84+72
 1559 05e8 7821     		movs	r1, #120
 1560 05ea F022     		movs	r2, #240
 1561 05ec FFF7FEFF 		bl	GUI_DispStringAt
 1562              	.LVL250:
 1563 05f0 10BD     		pop	{r4, pc}
 1564              	.LVL251:
 1565              	.L75:
 636:.\main.c      ****     } else if (strcmp(input_name, "G#2") == 0) {
 1566              		.loc 1 636 0
 1567 05f2 2046     		mov	r0, r4
 1568 05f4 2349     		ldr	r1, .L84+76
 1569 05f6 FFF7FEFF 		bl	strcmp
 1570              	.LVL252:
 1571 05fa 58B9     		cbnz	r0, .L76
 637:.\main.c      ****         GUI_FillEllipse(SCREEN_WIDTH/2, LOWER_OFFSET + 8*NOTE_SPACING, NOTE_WIDTH, NOTE_HEIGHT);
 1572              		.loc 1 637 0
 1573 05fc 7820     		movs	r0, #120
 1574 05fe B421     		movs	r1, #180
 1575 0600 0C22     		movs	r2, #12
 1576 0602 0823     		movs	r3, #8
 1577 0604 FFF7FEFF 		bl	GUI_FillEllipse
 1578              	.LVL253:
 638:.\main.c      ****         GUI_DispStringAt("G#2", text_x, text_y);
 1579              		.loc 1 638 0
ARM GAS  C:\Users\IVYLIU~1\AppData\Local\Temp\ccWSfWRg.s 			page 40


 1580 0608 1E48     		ldr	r0, .L84+76
 1581 060a 7821     		movs	r1, #120
 1582 060c F022     		movs	r2, #240
 1583 060e FFF7FEFF 		bl	GUI_DispStringAt
 1584              	.LVL254:
 1585 0612 10BD     		pop	{r4, pc}
 1586              	.LVL255:
 1587              	.L76:
 639:.\main.c      ****     } else if (strcmp(input_name, "G2") == 0) {
 1588              		.loc 1 639 0
 1589 0614 2046     		mov	r0, r4
 1590 0616 1C49     		ldr	r1, .L84+80
 1591 0618 FFF7FEFF 		bl	strcmp
 1592              	.LVL256:
 1593 061c B0BB     		cbnz	r0, .L77
 640:.\main.c      ****         GUI_FillEllipse(SCREEN_WIDTH/2, LOWER_OFFSET + 8*NOTE_SPACING, NOTE_WIDTH, NOTE_HEIGHT);
 1594              		.loc 1 640 0
 1595 061e 7820     		movs	r0, #120
 1596 0620 B421     		movs	r1, #180
 1597 0622 0C22     		movs	r2, #12
 1598 0624 0823     		movs	r3, #8
 1599 0626 FFF7FEFF 		bl	GUI_FillEllipse
 1600              	.LVL257:
 641:.\main.c      ****         GUI_DispStringAt("G2", text_x, text_y);
 1601              		.loc 1 641 0
 1602 062a 1748     		ldr	r0, .L84+80
 1603 062c 7821     		movs	r1, #120
 1604 062e F022     		movs	r2, #240
 1605 0630 FFF7FEFF 		bl	GUI_DispStringAt
 1606              	.LVL258:
 1607 0634 10BD     		pop	{r4, pc}
 1608              	.LVL259:
 1609              	.L85:
 1610 0636 00BF     		.align	2
 1611              	.L84:
 1612 0638 28010000 		.word	.LC28
 1613 063c 00000000 		.word	GUI_Font24B_ASCII
 1614 0640 E4000000 		.word	.LC11
 1615 0644 2C010000 		.word	.LC29
 1616 0648 30010000 		.word	.LC30
 1617 064c 34010000 		.word	.LC31
 1618 0650 38010000 		.word	.LC32
 1619 0654 3C010000 		.word	.LC33
 1620 0658 40010000 		.word	.LC34
 1621 065c 44010000 		.word	.LC35
 1622 0660 48010000 		.word	.LC36
 1623 0664 4C010000 		.word	.LC37
 1624 0668 50010000 		.word	.LC38
 1625 066c 54010000 		.word	.LC39
 1626 0670 58010000 		.word	.LC40
 1627 0674 5C010000 		.word	.LC41
 1628 0678 60010000 		.word	.LC42
 1629 067c 64010000 		.word	.LC43
 1630 0680 68010000 		.word	.LC44
 1631 0684 6C010000 		.word	.LC45
 1632 0688 70010000 		.word	.LC46
 1633              	.LVL260:
ARM GAS  C:\Users\IVYLIU~1\AppData\Local\Temp\ccWSfWRg.s 			page 41


 1634              	.L77:
 642:.\main.c      ****     } else if (strcmp(input_name, "F#2") == 0) {
 1635              		.loc 1 642 0
 1636 068c 2046     		mov	r0, r4
 1637 068e 2049     		ldr	r1, .L86
 1638 0690 FFF7FEFF 		bl	strcmp
 1639              	.LVL261:
 1640 0694 98B9     		cbnz	r0, .L78
 643:.\main.c      ****         GUI_FillEllipse(SCREEN_WIDTH/2, LOWER_OFFSET + 9*NOTE_SPACING, NOTE_WIDTH, NOTE_HEIGHT);
 1641              		.loc 1 643 0
 1642 0696 7820     		movs	r0, #120
 1643 0698 BB21     		movs	r1, #187
 1644 069a 0C22     		movs	r2, #12
 1645 069c 0823     		movs	r3, #8
 1646 069e FFF7FEFF 		bl	GUI_FillEllipse
 1647              	.LVL262:
 644:.\main.c      ****         GUI_DispStringAt("F#2", text_x, text_y);
 1648              		.loc 1 644 0
 1649 06a2 1B48     		ldr	r0, .L86
 1650 06a4 7821     		movs	r1, #120
 1651 06a6 F022     		movs	r2, #240
 1652 06a8 FFF7FEFF 		bl	GUI_DispStringAt
 1653              	.LVL263:
 645:.\main.c      **** 
 646:.\main.c      ****         GUI_SetFont(&GUI_Font24B_ASCII);
 1654              		.loc 1 646 0
 1655 06ac 1948     		ldr	r0, .L86+4
 1656 06ae FFF7FEFF 		bl	GUI_SetFont
 1657              	.LVL264:
 647:.\main.c      ****         GUI_DispStringAt("#", SCREEN_WIDTH/2 + 2*NOTE_WIDTH, LOWER_OFFSET + 9*NOTE_SPACING);
 1658              		.loc 1 647 0
 1659 06b2 1948     		ldr	r0, .L86+8
 1660 06b4 9021     		movs	r1, #144
 1661 06b6 BB22     		movs	r2, #187
 1662 06b8 FFF7FEFF 		bl	GUI_DispStringAt
 1663              	.LVL265:
 1664 06bc 10BD     		pop	{r4, pc}
 1665              	.LVL266:
 1666              	.L78:
 648:.\main.c      ****     } else if (strcmp(input_name, "F2") == 0) {
 1667              		.loc 1 648 0
 1668 06be 2046     		mov	r0, r4
 1669 06c0 1649     		ldr	r1, .L86+12
 1670 06c2 FFF7FEFF 		bl	strcmp
 1671              	.LVL267:
 1672 06c6 58B9     		cbnz	r0, .L79
 649:.\main.c      ****         GUI_FillEllipse(SCREEN_WIDTH/2, LOWER_OFFSET + 9*NOTE_SPACING, NOTE_WIDTH, NOTE_HEIGHT);
 1673              		.loc 1 649 0
 1674 06c8 7820     		movs	r0, #120
 1675 06ca BB21     		movs	r1, #187
 1676 06cc 0C22     		movs	r2, #12
 1677 06ce 0823     		movs	r3, #8
 1678 06d0 FFF7FEFF 		bl	GUI_FillEllipse
 1679              	.LVL268:
 650:.\main.c      ****         GUI_DispStringAt("F2", text_x, text_y);
 1680              		.loc 1 650 0
 1681 06d4 1148     		ldr	r0, .L86+12
ARM GAS  C:\Users\IVYLIU~1\AppData\Local\Temp\ccWSfWRg.s 			page 42


 1682 06d6 7821     		movs	r1, #120
 1683 06d8 F022     		movs	r2, #240
 1684 06da FFF7FEFF 		bl	GUI_DispStringAt
 1685              	.LVL269:
 1686 06de 10BD     		pop	{r4, pc}
 1687              	.LVL270:
 1688              	.L79:
 651:.\main.c      ****     } else if (strcmp(input_name, "E2") == 0) {
 1689              		.loc 1 651 0
 1690 06e0 2046     		mov	r0, r4
 1691 06e2 0F49     		ldr	r1, .L86+16
 1692 06e4 FFF7FEFF 		bl	strcmp
 1693              	.LVL271:
 1694 06e8 58B9     		cbnz	r0, .L80
 652:.\main.c      ****         GUI_FillEllipse(SCREEN_WIDTH/2, LOWER_OFFSET + 10*NOTE_SPACING, NOTE_WIDTH, NOTE_HEIGHT);
 1695              		.loc 1 652 0
 1696 06ea 7820     		movs	r0, #120
 1697 06ec C321     		movs	r1, #195
 1698 06ee 0C22     		movs	r2, #12
 1699 06f0 0823     		movs	r3, #8
 1700 06f2 FFF7FEFF 		bl	GUI_FillEllipse
 1701              	.LVL272:
 653:.\main.c      ****         GUI_DispStringAt("E2", text_x, text_y);
 1702              		.loc 1 653 0
 1703 06f6 0A48     		ldr	r0, .L86+16
 1704 06f8 7821     		movs	r1, #120
 1705 06fa F022     		movs	r2, #240
 1706 06fc FFF7FEFF 		bl	GUI_DispStringAt
 1707              	.LVL273:
 1708 0700 10BD     		pop	{r4, pc}
 1709              	.LVL274:
 1710              	.L80:
 654:.\main.c      ****     } else {
 655:.\main.c      ****         GUI_DispStringAt("Invalid!", text_x, text_y);
 1711              		.loc 1 655 0
 1712 0702 0848     		ldr	r0, .L86+20
 1713 0704 7821     		movs	r1, #120
 1714 0706 F022     		movs	r2, #240
 1715 0708 FFF7FEFF 		bl	GUI_DispStringAt
 1716              	.LVL275:
 1717 070c 10BD     		pop	{r4, pc}
 1718              	.LVL276:
 1719              	.L87:
 1720 070e 00BF     		.align	2
 1721              	.L86:
 1722 0710 74010000 		.word	.LC47
 1723 0714 00000000 		.word	GUI_Font24B_ASCII
 1724 0718 E4000000 		.word	.LC11
 1725 071c 78010000 		.word	.LC48
 1726 0720 7C010000 		.word	.LC49
 1727 0724 80010000 		.word	.LC50
 1728              		.cfi_endproc
 1729              	.LFE132:
 1730              		.size	drawNote, .-drawNote
 1731              		.section	.text.drawClefs,"ax",%progbits
 1732              		.align	2
 1733              		.global	drawClefs
ARM GAS  C:\Users\IVYLIU~1\AppData\Local\Temp\ccWSfWRg.s 			page 43


 1734              		.thumb
 1735              		.thumb_func
 1736              		.type	drawClefs, %function
 1737              	drawClefs:
 1738              	.LFB133:
 656:.\main.c      ****     }
 657:.\main.c      **** }
 658:.\main.c      **** 
 659:.\main.c      **** void drawClefs(){
 1739              		.loc 1 659 0
 1740              		.cfi_startproc
 1741              		@ args = 0, pretend = 0, frame = 0
 1742              		@ frame_needed = 0, uses_anonymous_args = 0
 1743 0000 38B5     		push	{r3, r4, r5, lr}
 1744              		.cfi_def_cfa_offset 16
 1745              		.cfi_offset 3, -16
 1746              		.cfi_offset 4, -12
 1747              		.cfi_offset 5, -8
 1748              		.cfi_offset 14, -4
 1749              	.LVL277:
 660:.\main.c      ****     int i;
 661:.\main.c      ****     for (i = 0; i < LINE_NUM; i++) {
 1750              		.loc 1 661 0
 1751 0002 0024     		movs	r4, #0
 1752 0004 11E0     		b	.L89
 1753              	.LVL278:
 1754              	.L90:
 662:.\main.c      ****         // Draw treble clef lines
 663:.\main.c      ****         GUI_DrawRect(TOP_MARGIN, i*BAR_SPACING + TOP_MARGIN, RIGHT_MARGIN, i*BAR_SPACING + TOP_MARG
 1755              		.loc 1 663 0 discriminator 3
 1756 0006 C4EB0415 		rsb	r5, r4, r4, lsl #4
 1757 000a 1420     		movs	r0, #20
 1758 000c 2918     		adds	r1, r5, r0
 1759 000e DC22     		movs	r2, #220
 1760 0010 05F11503 		add	r3, r5, #21
 1761 0014 FFF7FEFF 		bl	GUI_DrawRect
 1762              	.LVL279:
 664:.\main.c      ****         // Draw bass clef lines
 665:.\main.c      ****         GUI_DrawRect(TOP_MARGIN, LOWER_OFFSET + i*BAR_SPACING, RIGHT_MARGIN, LOWER_OFFSET + i*BAR_S
 1763              		.loc 1 665 0 discriminator 3
 1764 0018 1420     		movs	r0, #20
 1765 001a 05F17801 		add	r1, r5, #120
 1766 001e DC22     		movs	r2, #220
 1767 0020 05F17903 		add	r3, r5, #121
 1768 0024 FFF7FEFF 		bl	GUI_DrawRect
 1769              	.LVL280:
 661:.\main.c      ****         // Draw treble clef lines
 1770              		.loc 1 661 0 discriminator 3
 1771 0028 0134     		adds	r4, r4, #1
 1772              	.LVL281:
 1773              	.L89:
 661:.\main.c      ****         // Draw treble clef lines
 1774              		.loc 1 661 0 is_stmt 0 discriminator 1
 1775 002a 042C     		cmp	r4, #4
 1776 002c EBDD     		ble	.L90
 666:.\main.c      ****     }
 667:.\main.c      **** }
ARM GAS  C:\Users\IVYLIU~1\AppData\Local\Temp\ccWSfWRg.s 			page 44


 1777              		.loc 1 667 0 is_stmt 1
 1778 002e 38BD     		pop	{r3, r4, r5, pc}
 1779              		.cfi_endproc
 1780              	.LFE133:
 1781              		.size	drawClefs, .-drawClefs
 1782              		.section	.text.drawPlaySong,"ax",%progbits
 1783              		.align	2
 1784              		.global	drawPlaySong
 1785              		.thumb
 1786              		.thumb_func
 1787              		.type	drawPlaySong, %function
 1788              	drawPlaySong:
 1789              	.LFB128:
 336:.\main.c      ****     // Setup
 1790              		.loc 1 336 0
 1791              		.cfi_startproc
 1792              		@ args = 0, pretend = 0, frame = 24
 1793              		@ frame_needed = 0, uses_anonymous_args = 0
 1794              	.LVL282:
 1795 0000 70B5     		push	{r4, r5, r6, lr}
 1796              		.cfi_def_cfa_offset 16
 1797              		.cfi_offset 4, -16
 1798              		.cfi_offset 5, -12
 1799              		.cfi_offset 6, -8
 1800              		.cfi_offset 14, -4
 1801 0002 86B0     		sub	sp, sp, #24
 1802              		.cfi_def_cfa_offset 40
 1803 0004 0446     		mov	r4, r0
 338:.\main.c      ****     GUI_SetColor(GUI_BLACK);
 1804              		.loc 1 338 0
 1805 0006 4FF0FF30 		mov	r0, #-1
 1806              	.LVL283:
 1807 000a FFF7FEFF 		bl	GUI_SetBkColor
 1808              	.LVL284:
 339:.\main.c      ****     GUI_SetTextMode(GUI_TM_TRANS);
 1809              		.loc 1 339 0
 1810 000e 4FF07F40 		mov	r0, #-16777216
 1811 0012 FFF7FEFF 		bl	GUI_SetColor
 1812              	.LVL285:
 340:.\main.c      ****     GUI_SetTextAlign(GUI_TA_VCENTER); // Bug: GUI_TA_HCENTER fails to center text horizontally
 1813              		.loc 1 340 0
 1814 0016 0220     		movs	r0, #2
 1815 0018 FFF7FEFF 		bl	GUI_SetTextMode
 1816              	.LVL286:
 341:.\main.c      **** 
 1817              		.loc 1 341 0
 1818 001c 0C20     		movs	r0, #12
 1819 001e FFF7FEFF 		bl	GUI_SetTextAlign
 1820              	.LVL287:
 343:.\main.c      ****     drawClefs();
 1821              		.loc 1 343 0
 1822 0022 FFF7FEFF 		bl	GUI_Clear
 1823              	.LVL288:
 344:.\main.c      ****     
 1824              		.loc 1 344 0
 1825 0026 FFF7FEFF 		bl	drawClefs
 1826              	.LVL289:
ARM GAS  C:\Users\IVYLIU~1\AppData\Local\Temp\ccWSfWRg.s 			page 45


 348:.\main.c      ****     
 1827              		.loc 1 348 0
 1828 002a 424B     		ldr	r3, .L100
 1829 002c 03EB0413 		add	r3, r3, r4, lsl #4
 1830 0030 03F5FA73 		add	r3, r3, #500
 1831 0034 01AC     		add	r4, sp, #4
 1832              	.LVL290:
 1833 0036 0FCB     		ldmia	r3, {r0, r1, r2, r3}
 1834 0038 84E80F00 		stmia	r4, {r0, r1, r2, r3}
 351:.\main.c      ****     GUI_SetFont(&GUI_Font24B_ASCII);
 1835              		.loc 1 351 0
 1836 003c 039D     		ldr	r5, [sp, #12]
 1837 003e 2868     		ldr	r0, [r5]
 1838 0040 FFF7FEFF 		bl	drawNote
 1839              	.LVL291:
 352:.\main.c      **** 
 1840              		.loc 1 352 0
 1841 0044 3C48     		ldr	r0, .L100+4
 1842 0046 FFF7FEFF 		bl	GUI_SetFont
 1843              	.LVL292:
 354:.\main.c      ****     GUI_DispStringHCenterAt("Score", SCREEN_WIDTH/2 - 20, 280);
 1844              		.loc 1 354 0
 1845 004a 05A8     		add	r0, sp, #20
 1846 004c 3B49     		ldr	r1, .L100+8
 1847 004e 0022     		movs	r2, #0
 1848 0050 FFF7FEFF 		bl	sprintf
 1849              	.LVL293:
 355:.\main.c      ****     GUI_DispStringHCenterAt(score_buf, SCREEN_WIDTH/2 + 40, 280);
 1850              		.loc 1 355 0
 1851 0054 3A48     		ldr	r0, .L100+12
 1852 0056 6421     		movs	r1, #100
 1853 0058 4FF48C72 		mov	r2, #280
 1854 005c FFF7FEFF 		bl	GUI_DispStringHCenterAt
 1855              	.LVL294:
 356:.\main.c      ****     
 1856              		.loc 1 356 0
 1857 0060 05A8     		add	r0, sp, #20
 1858 0062 A021     		movs	r1, #160
 1859 0064 4FF48C72 		mov	r2, #280
 1860 0068 FFF7FEFF 		bl	GUI_DispStringHCenterAt
 1861              	.LVL295:
 346:.\main.c      ****     char score_buf[3];
 1862              		.loc 1 346 0
 1863 006c 0024     		movs	r4, #0
 359:.\main.c      ****         // Detect if note is played
 1864              		.loc 1 359 0
 1865 006e 5AE0     		b	.L94
 1866              	.LVL296:
 1867              	.L98:
 362:.\main.c      ****             while(!SW2_Read());
 1868              		.loc 1 362 0
 1869 0070 FFF7FEFF 		bl	detectNote
 1870              	.LVL297:
 1871 0074 2F4B     		ldr	r3, .L100
 1872 0076 D3F81432 		ldr	r3, [r3, #532]
 1873 007a C01A     		subs	r0, r0, r3
 1874 007c FFF7FEFF 		bl	getNoteName
ARM GAS  C:\Users\IVYLIU~1\AppData\Local\Temp\ccWSfWRg.s 			page 46


 1875              	.LVL298:
 1876 0080 05EB8406 		add	r6, r5, r4, lsl #2
 1877 0084 55F82410 		ldr	r1, [r5, r4, lsl #2]
 1878 0088 FFF7FEFF 		bl	strcmp
 1879              	.LVL299:
 1880 008c 0028     		cmp	r0, #0
 1881 008e 4AD1     		bne	.L94
 1882              	.L95:
 363:.\main.c      ****             // Erase current note and score drawing
 1883              		.loc 1 363 0 discriminator 1
 1884 0090 FFF7FEFF 		bl	SW2_Read
 1885              	.LVL300:
 1886 0094 0028     		cmp	r0, #0
 1887 0096 FBD0     		beq	.L95
 365:.\main.c      ****             drawNote(cur_song.note_seq[note_index]);
 1888              		.loc 1 365 0
 1889 0098 4FF0FF30 		mov	r0, #-1
 1890 009c FFF7FEFF 		bl	GUI_SetColor
 1891              	.LVL301:
 366:.\main.c      ****             
 1892              		.loc 1 366 0
 1893 00a0 3068     		ldr	r0, [r6]
 1894 00a2 FFF7FEFF 		bl	drawNote
 1895              	.LVL302:
 368:.\main.c      ****             GUI_DispStringHCenterAt("Score", SCREEN_WIDTH/2 - 20, 280);
 1896              		.loc 1 368 0
 1897 00a6 2448     		ldr	r0, .L100+4
 1898 00a8 FFF7FEFF 		bl	GUI_SetFont
 1899              	.LVL303:
 369:.\main.c      ****             GUI_DispStringHCenterAt(score_buf, SCREEN_WIDTH/2 + 40, 280);
 1900              		.loc 1 369 0
 1901 00ac 2448     		ldr	r0, .L100+12
 1902 00ae 6421     		movs	r1, #100
 1903 00b0 4FF48C72 		mov	r2, #280
 1904 00b4 FFF7FEFF 		bl	GUI_DispStringHCenterAt
 1905              	.LVL304:
 370:.\main.c      ****             
 1906              		.loc 1 370 0
 1907 00b8 05A8     		add	r0, sp, #20
 1908 00ba A021     		movs	r1, #160
 1909 00bc 4FF48C72 		mov	r2, #280
 1910 00c0 FFF7FEFF 		bl	GUI_DispStringHCenterAt
 1911              	.LVL305:
 373:.\main.c      ****             drawClefs();
 1912              		.loc 1 373 0
 1913 00c4 4FF07F40 		mov	r0, #-16777216
 1914 00c8 FFF7FEFF 		bl	GUI_SetColor
 1915              	.LVL306:
 374:.\main.c      ****             
 1916              		.loc 1 374 0
 1917 00cc FFF7FEFF 		bl	drawClefs
 1918              	.LVL307:
 377:.\main.c      ****             sprintf(score_buf, "%d", note_index);   //put index into str buffer for displaying scor
 1919              		.loc 1 377 0
 1920 00d0 0134     		adds	r4, r4, #1
 1921              	.LVL308:
 378:.\main.c      ****             
ARM GAS  C:\Users\IVYLIU~1\AppData\Local\Temp\ccWSfWRg.s 			page 47


 1922              		.loc 1 378 0
 1923 00d2 05A8     		add	r0, sp, #20
 1924 00d4 1949     		ldr	r1, .L100+8
 1925 00d6 2246     		mov	r2, r4
 1926 00d8 FFF7FEFF 		bl	sprintf
 1927              	.LVL309:
 380:.\main.c      ****                 // print final score then exit playing mode
 1928              		.loc 1 380 0
 1929 00dc 049B     		ldr	r3, [sp, #16]
 1930 00de A342     		cmp	r3, r4
 1931 00e0 11DC     		bgt	.L96
 382:.\main.c      ****                 GUI_DispStringHCenterAt("Score", SCREEN_WIDTH/2 - 20, 280);
 1932              		.loc 1 382 0
 1933 00e2 1848     		ldr	r0, .L100+16
 1934 00e4 7821     		movs	r1, #120
 1935 00e6 F022     		movs	r2, #240
 1936 00e8 FFF7FEFF 		bl	GUI_DispStringHCenterAt
 1937              	.LVL310:
 383:.\main.c      ****                 GUI_DispStringHCenterAt(score_buf, SCREEN_WIDTH/2 + 40, 280);
 1938              		.loc 1 383 0
 1939 00ec 1448     		ldr	r0, .L100+12
 1940 00ee 6421     		movs	r1, #100
 1941 00f0 4FF48C72 		mov	r2, #280
 1942 00f4 FFF7FEFF 		bl	GUI_DispStringHCenterAt
 1943              	.LVL311:
 384:.\main.c      ****                 break;
 1944              		.loc 1 384 0
 1945 00f8 05A8     		add	r0, sp, #20
 1946 00fa A021     		movs	r1, #160
 1947 00fc 4FF48C72 		mov	r2, #280
 1948 0100 FFF7FEFF 		bl	GUI_DispStringHCenterAt
 1949              	.LVL312:
 385:.\main.c      ****             } else {
 1950              		.loc 1 385 0
 1951 0104 13E0     		b	.L92
 1952              	.L96:
 388:.\main.c      ****                 GUI_DispStringHCenterAt(score_buf, SCREEN_WIDTH/2 + 40, 280);
 1953              		.loc 1 388 0
 1954 0106 0E48     		ldr	r0, .L100+12
 1955 0108 6421     		movs	r1, #100
 1956 010a 4FF48C72 		mov	r2, #280
 1957 010e FFF7FEFF 		bl	GUI_DispStringHCenterAt
 1958              	.LVL313:
 389:.\main.c      ****                 drawNote(cur_song.note_seq[note_index]);
 1959              		.loc 1 389 0
 1960 0112 05A8     		add	r0, sp, #20
 1961 0114 A021     		movs	r1, #160
 1962 0116 4FF48C72 		mov	r2, #280
 1963 011a FFF7FEFF 		bl	GUI_DispStringHCenterAt
 1964              	.LVL314:
 390:.\main.c      ****             }
 1965              		.loc 1 390 0
 1966 011e 55F82400 		ldr	r0, [r5, r4, lsl #2]
 1967 0122 FFF7FEFF 		bl	drawNote
 1968              	.LVL315:
 1969              	.L94:
 359:.\main.c      ****         // Detect if note is played
ARM GAS  C:\Users\IVYLIU~1\AppData\Local\Temp\ccWSfWRg.s 			page 48


 1970              		.loc 1 359 0
 1971 0126 FFF7FEFF 		bl	SW3_Read
 1972              	.LVL316:
 1973 012a 0028     		cmp	r0, #0
 1974 012c A0D1     		bne	.L98
 1975              	.L92:
 394:.\main.c      **** 
 1976              		.loc 1 394 0
 1977 012e 06B0     		add	sp, sp, #24
 1978              		.cfi_def_cfa_offset 16
 1979              		@ sp needed
 1980 0130 70BD     		pop	{r4, r5, r6, pc}
 1981              	.LVL317:
 1982              	.L101:
 1983 0132 00BF     		.align	2
 1984              	.L100:
 1985 0134 00000000 		.word	.LANCHOR1
 1986 0138 00000000 		.word	GUI_Font24B_ASCII
 1987 013c 8C010000 		.word	.LC51
 1988 0140 90010000 		.word	.LC52
 1989 0144 98010000 		.word	.LC53
 1990              		.cfi_endproc
 1991              	.LFE128:
 1992              		.size	drawPlaySong, .-drawPlaySong
 1993              		.section	.text.main,"ax",%progbits
 1994              		.align	2
 1995              		.global	main
 1996              		.thumb
 1997              		.thumb_func
 1998              		.type	main, %function
 1999              	main:
 2000              	.LFB123:
 170:.\main.c      ****     /* -------------------------------------------------------------------
 2001              		.loc 1 170 0
 2002              		.cfi_startproc
 2003              		@ args = 0, pretend = 0, frame = 0
 2004              		@ frame_needed = 0, uses_anonymous_args = 0
 2005 0000 38B5     		push	{r3, r4, r5, lr}
 2006              		.cfi_def_cfa_offset 16
 2007              		.cfi_offset 3, -16
 2008              		.cfi_offset 4, -12
 2009              		.cfi_offset 5, -8
 2010              		.cfi_offset 14, -4
 174:.\main.c      ****     SPIM_1_Start();                         // initialize SPIM component 
 2011              		.loc 1 174 0
 2012              	@ 174 ".\main.c" 1
 2013 0002 62B6     		CPSIE   i
 2014              	@ 0 "" 2
 175:.\main.c      ****     GUI_Init();                             // initilize graphics library
 2015              		.loc 1 175 0
 2016              		.thumb
 2017 0004 FFF7FEFF 		bl	SPIM_1_Start
 2018              	.LVL318:
 176:.\main.c      ****     ADC_DelSig_1_Start();				    // start the ADC_DelSig_1
 2019              		.loc 1 176 0
 2020 0008 FFF7FEFF 		bl	GUI_Init
 2021              	.LVL319:
ARM GAS  C:\Users\IVYLIU~1\AppData\Local\Temp\ccWSfWRg.s 			page 49


 177:.\main.c      ****     ADC_DelSig_1_StartConvert();		    // start the ADC_DelSig_1 conversion
 2022              		.loc 1 177 0
 2023 000c FFF7FEFF 		bl	ADC_DelSig_1_Start
 2024              	.LVL320:
 178:.\main.c      ****     NP_Start(LED_NUM, pPixelArray, 12.8);   //Start the NeoPixel component (LED_NUM pix, User array
 2025              		.loc 1 178 0
 2026 0010 FFF7FEFF 		bl	ADC_DelSig_1_StartConvert
 2027              	.LVL321:
 179:.\main.c      **** 
 2028              		.loc 1 179 0
 2029 0014 9020     		movs	r0, #144
 2030 0016 5049     		ldr	r1, .L120+8
 2031 0018 4DA3     		adr	r3, .L120
 2032 001a D3E90023 		ldrd	r2, [r3]
 2033 001e FFF7FEFF 		bl	NP_Start
 2034              	.LVL322:
 181:.\main.c      **** 
 2035              		.loc 1 181 0
 2036 0022 0024     		movs	r4, #0
 2037 0024 00E0     		b	.L104
 2038              	.LVL323:
 2039              	.L118:
 240:.\main.c      ****                 break;
 2040              		.loc 1 240 0
 2041 0026 0024     		movs	r4, #0
 2042              	.LVL324:
 2043              	.L104:
 184:.\main.c      ****             case START: // draw start screen
 2044              		.loc 1 184 0
 2045 0028 072C     		cmp	r4, #7
 2046 002a FCD8     		bhi	.L118
 2047 002c 01A3     		adr	r3, .L106
 2048 002e 53F824F0 		ldr	pc, [r3, r4, lsl #2]
 2049 0032 00BF     		.p2align 2
 2050              	.L106:
 2051 0034 55000000 		.word	.L105+1
 2052 0038 5D000000 		.word	.L107+1
 2053 003c 83000000 		.word	.L108+1
 2054 0040 8F000000 		.word	.L109+1
 2055 0044 A3000000 		.word	.L110+1
 2056 0048 C7000000 		.word	.L111+1
 2057 004c 27000000 		.word	.L118+1
 2058 0050 23010000 		.word	.L112+1
 2059              		.p2align 1
 2060              	.L105:
 186:.\main.c      ****                 state = MODE_SELECT; 
 2061              		.loc 1 186 0
 2062 0054 FFF7FEFF 		bl	drawStartScreen
 2063              	.LVL325:
 187:.\main.c      ****                 break;
 2064              		.loc 1 187 0
 2065 0058 0124     		movs	r4, #1
 188:.\main.c      ****             case MODE_SELECT: // wait for mode selection
 2066              		.loc 1 188 0
 2067 005a E5E7     		b	.L104
 2068              	.LVL326:
 2069              	.L107:
ARM GAS  C:\Users\IVYLIU~1\AppData\Local\Temp\ccWSfWRg.s 			page 50


 190:.\main.c      ****                     while(!SW2_Read());
 2070              		.loc 1 190 0
 2071 005c FFF7FEFF 		bl	SW2_Read
 2072              	.LVL327:
 2073 0060 28B9     		cbnz	r0, .L114
 2074              	.L115:
 191:.\main.c      ****                     state = SONG_SELECT;
 2075              		.loc 1 191 0 discriminator 1
 2076 0062 FFF7FEFF 		bl	SW2_Read
 2077              	.LVL328:
 2078 0066 0028     		cmp	r0, #0
 2079 0068 FBD0     		beq	.L115
 192:.\main.c      ****                 } else if (!SW3_Read()) {
 2080              		.loc 1 192 0
 2081 006a 0224     		movs	r4, #2
 2082              	.LVL329:
 2083 006c DCE7     		b	.L104
 2084              	.LVL330:
 2085              	.L114:
 193:.\main.c      ****                     while(!SW3_Read());
 2086              		.loc 1 193 0
 2087 006e FFF7FEFF 		bl	SW3_Read
 2088              	.LVL331:
 2089 0072 0028     		cmp	r0, #0
 2090 0074 D8D1     		bne	.L104
 2091              	.L116:
 194:.\main.c      ****                     state = CALIBRATE_SETUP;
 2092              		.loc 1 194 0 discriminator 1
 2093 0076 FFF7FEFF 		bl	SW3_Read
 2094              	.LVL332:
 2095 007a 0028     		cmp	r0, #0
 2096 007c FBD0     		beq	.L116
 195:.\main.c      ****                 }
 2097              		.loc 1 195 0
 2098 007e 0424     		movs	r4, #4
 2099              	.LVL333:
 2100 0080 D2E7     		b	.L104
 2101              	.LVL334:
 2102              	.L108:
 199:.\main.c      ****                 state = SONG_DONE;
 2103              		.loc 1 199 0
 2104 0082 FFF7FEFF 		bl	drawSongSelection
 2105              	.LVL335:
 2106 0086 FFF7FEFF 		bl	drawPlaySong
 2107              	.LVL336:
 200:.\main.c      ****                 break;
 2108              		.loc 1 200 0
 2109 008a 0324     		movs	r4, #3
 201:.\main.c      ****             case SONG_DONE:
 2110              		.loc 1 201 0
 2111 008c CCE7     		b	.L104
 2112              	.LVL337:
 2113              	.L109:
 203:.\main.c      ****                     while(!SW3_Read());
 2114              		.loc 1 203 0
 2115 008e FFF7FEFF 		bl	SW3_Read
 2116              	.LVL338:
ARM GAS  C:\Users\IVYLIU~1\AppData\Local\Temp\ccWSfWRg.s 			page 51


 2117 0092 0028     		cmp	r0, #0
 2118 0094 C8D1     		bne	.L104
 2119              	.L117:
 204:.\main.c      ****                     state = START;
 2120              		.loc 1 204 0 discriminator 1
 2121 0096 FFF7FEFF 		bl	SW3_Read
 2122              	.LVL339:
 2123 009a 0028     		cmp	r0, #0
 2124 009c FBD0     		beq	.L117
 205:.\main.c      ****                 }
 2125              		.loc 1 205 0
 2126 009e 0024     		movs	r4, #0
 2127              	.LVL340:
 2128 00a0 C2E7     		b	.L104
 2129              	.LVL341:
 2130              	.L110:
 209:.\main.c      ****                 setPixel(80, 0, 100, 100);
 2131              		.loc 1 209 0
 2132 00a2 FFF7FEFF 		bl	drawCalibrateScreen
 2133              	.LVL342:
 210:.\main.c      ****                 setPixel(81, 0, 100, 100);
 2134              		.loc 1 210 0
 2135 00a6 5020     		movs	r0, #80
 2136 00a8 0021     		movs	r1, #0
 2137 00aa 6422     		movs	r2, #100
 2138 00ac 1346     		mov	r3, r2
 2139 00ae FFF7FEFF 		bl	setPixel
 2140              	.LVL343:
 211:.\main.c      ****                 NP_Update();
 2141              		.loc 1 211 0
 2142 00b2 5120     		movs	r0, #81
 2143 00b4 0021     		movs	r1, #0
 2144 00b6 6422     		movs	r2, #100
 2145 00b8 1346     		mov	r3, r2
 2146 00ba FFF7FEFF 		bl	setPixel
 2147              	.LVL344:
 212:.\main.c      ****                 state = CALIBRATE;
 2148              		.loc 1 212 0
 2149 00be FFF7FEFF 		bl	NP_Update
 2150              	.LVL345:
 213:.\main.c      ****                 break;
 2151              		.loc 1 213 0
 2152 00c2 0524     		movs	r4, #5
 214:.\main.c      ****             case CALIBRATE: // calibrate
 2153              		.loc 1 214 0
 2154 00c4 B0E7     		b	.L104
 2155              	.LVL346:
 2156              	.L111:
 217:.\main.c      ****                 
 2157              		.loc 1 217 0
 2158 00c6 FFF7FEFF 		bl	detectNote
 2159              	.LVL347:
 2160 00ca 244D     		ldr	r5, .L120+12
 2161 00cc C5F81402 		str	r0, [r5, #532]
 219:.\main.c      ****                 GUI_SetColor(GUI_BLACK);
 2162              		.loc 1 219 0
 2163 00d0 4FF0FF30 		mov	r0, #-1
ARM GAS  C:\Users\IVYLIU~1\AppData\Local\Temp\ccWSfWRg.s 			page 52


 2164 00d4 FFF7FEFF 		bl	GUI_SetBkColor
 2165              	.LVL348:
 220:.\main.c      ****                 GUI_SetFont(&GUI_Font24B_ASCII);
 2166              		.loc 1 220 0
 2167 00d8 4FF07F40 		mov	r0, #-16777216
 2168 00dc FFF7FEFF 		bl	GUI_SetColor
 2169              	.LVL349:
 221:.\main.c      ****                 GUI_Clear();
 2170              		.loc 1 221 0
 2171 00e0 1F48     		ldr	r0, .L120+16
 2172 00e2 FFF7FEFF 		bl	GUI_SetFont
 2173              	.LVL350:
 222:.\main.c      ****                 
 2174              		.loc 1 222 0
 2175 00e6 FFF7FEFF 		bl	GUI_Clear
 2176              	.LVL351:
 224:.\main.c      ****                 GUI_DispStringHCenterAt(test_string, 120, 160);
 2177              		.loc 1 224 0
 2178 00ea 1E4C     		ldr	r4, .L120+20
 2179              	.LVL352:
 2180 00ec 2046     		mov	r0, r4
 2181 00ee 1E49     		ldr	r1, .L120+24
 2182 00f0 D5F81422 		ldr	r2, [r5, #532]
 2183 00f4 FFF7FEFF 		bl	sprintf
 2184              	.LVL353:
 225:.\main.c      ****                    
 2185              		.loc 1 225 0
 2186 00f8 2046     		mov	r0, r4
 2187 00fa 7821     		movs	r1, #120
 2188 00fc A022     		movs	r2, #160
 2189 00fe FFF7FEFF 		bl	GUI_DispStringHCenterAt
 2190              	.LVL354:
 227:.\main.c      ****                 setPixel(81, 0, 0, 0);
 2191              		.loc 1 227 0
 2192 0102 5020     		movs	r0, #80
 2193 0104 0021     		movs	r1, #0
 2194 0106 0A46     		mov	r2, r1
 2195 0108 0B46     		mov	r3, r1
 2196 010a FFF7FEFF 		bl	setPixel
 2197              	.LVL355:
 228:.\main.c      ****                 NP_Update();
 2198              		.loc 1 228 0
 2199 010e 5120     		movs	r0, #81
 2200 0110 0021     		movs	r1, #0
 2201 0112 0A46     		mov	r2, r1
 2202 0114 0B46     		mov	r3, r1
 2203 0116 FFF7FEFF 		bl	setPixel
 2204              	.LVL356:
 229:.\main.c      ****                 state = START;
 2205              		.loc 1 229 0
 2206 011a FFF7FEFF 		bl	NP_Update
 2207              	.LVL357:
 230:.\main.c      ****                 break;
 2208              		.loc 1 230 0
 2209 011e 0024     		movs	r4, #0
 231:.\main.c      ****             case TESTING:   // currently: testing FFT -> drawing note on tft
 2210              		.loc 1 231 0
ARM GAS  C:\Users\IVYLIU~1\AppData\Local\Temp\ccWSfWRg.s 			page 53


 2211 0120 82E7     		b	.L104
 2212              	.LVL358:
 2213              	.L112:
 233:.\main.c      ****                 GUI_SetColor(GUI_BLACK);
 2214              		.loc 1 233 0
 2215 0122 4FF0FF30 		mov	r0, #-1
 2216 0126 FFF7FEFF 		bl	GUI_SetBkColor
 2217              	.LVL359:
 234:.\main.c      ****                 GUI_Clear();
 2218              		.loc 1 234 0
 2219 012a 4FF07F40 		mov	r0, #-16777216
 2220 012e FFF7FEFF 		bl	GUI_SetColor
 2221              	.LVL360:
 235:.\main.c      ****                 drawClefs();
 2222              		.loc 1 235 0
 2223 0132 FFF7FEFF 		bl	GUI_Clear
 2224              	.LVL361:
 236:.\main.c      ****                 drawNote(getNoteName(detectNote() - middle_c_bin));
 2225              		.loc 1 236 0
 2226 0136 FFF7FEFF 		bl	drawClefs
 2227              	.LVL362:
 237:.\main.c      ****                 break;
 2228              		.loc 1 237 0
 2229 013a FFF7FEFF 		bl	detectNote
 2230              	.LVL363:
 2231 013e 074B     		ldr	r3, .L120+12
 2232 0140 D3F81432 		ldr	r3, [r3, #532]
 2233 0144 C01A     		subs	r0, r0, r3
 2234 0146 FFF7FEFF 		bl	getNoteName
 2235              	.LVL364:
 2236 014a FFF7FEFF 		bl	drawNote
 2237              	.LVL365:
 238:.\main.c      ****             default: // reset if unexpected state
 2238              		.loc 1 238 0
 2239 014e 6BE7     		b	.L104
 2240              	.L121:
 2241              		.align	3
 2242              	.L120:
 2243 0150 9A999999 		.word	-1717986918
 2244 0154 99992940 		.word	1076468121
 2245 0158 00000000 		.word	pPixelArray
 2246 015c 00000000 		.word	.LANCHOR1
 2247 0160 00000000 		.word	GUI_Font24B_ASCII
 2248 0164 00000000 		.word	test_string
 2249 0168 A4010000 		.word	.LC54
 2250              		.cfi_endproc
 2251              	.LFE123:
 2252              		.size	main, .-main
 2253              		.global	songs
 2254              		.global	SONGS_LENGTH
 2255              		.global	SONG1_SEQ
 2256              		.global	SONG0_SEQ
 2257              		.global	notes
 2258              		.comm	testOutput,4096,4
 2259              		.comm	testInput,8192,4
 2260              		.global	middle_c_bin
 2261              		.global	testIndex
ARM GAS  C:\Users\IVYLIU~1\AppData\Local\Temp\ccWSfWRg.s 			page 54


 2262              		.comm	varInstCfftF32,16,4
 2263              		.global	doBitReverse
 2264              		.global	ifftFlag
 2265              		.global	fftSize
 2266              		.global	adcResult
 2267              		.global	offset
 2268              		.global	Deltapower
 2269              		.global	power
 2270              		.comm	pPixelArray,432,4
 2271              		.comm	test_string,16,4
 2272              		.comm	NP_g_nFrameBufferSize,4,4
 2273              		.comm	NP_g_pFrameBuffer,4,4
 2274              		.comm	NP_g_bOwnsBuffer,1,1
 2275              		.comm	NP_g_nDMA_TD,1,1
 2276              		.comm	NP_g_nDMA_Chan,1,1
 2277              		.comm	NP_g_nNumberOfPixels,4,4
 2278 016c AFF30080 		.section	.rodata
 2279              		.align	2
 2280              		.type	SONGS_LENGTH, %object
 2281              		.size	SONGS_LENGTH, 4
 2282              	SONGS_LENGTH:
 2283 0000 02000000 		.word	2
 2284              		.data
 2285              		.align	2
 2286              		.set	.LANCHOR1,. + 0
 2287              		.type	fftSize, %object
 2288              		.size	fftSize, 4
 2289              	fftSize:
 2290 0000 00040000 		.word	1024
 2291              		.type	doBitReverse, %object
 2292              		.size	doBitReverse, 4
 2293              	doBitReverse:
 2294 0004 01000000 		.word	1
 2295              		.type	notes, %object
 2296              		.size	notes, 492
 2297              	notes:
 2298 0008 DC000000 		.word	.LC9
 2299 000c 4DFFFFFF 		.word	-179
 2300 0010 3B000000 		.word	59
 2301 0014 E0000000 		.word	.LC10
 2302 0018 BEFFFFFF 		.word	-66
 2303 001c 3A000000 		.word	58
 2304 0020 E8000000 		.word	.LC12
 2305 0024 C4FFFFFF 		.word	-60
 2306 0028 39000000 		.word	57
 2307 002c EC000000 		.word	.LC13
 2308 0030 CAFFFFFF 		.word	-54
 2309 0034 38000000 		.word	56
 2310 0038 F0000000 		.word	.LC14
 2311 003c CFFFFFFF 		.word	-49
 2312 0040 37000000 		.word	55
 2313 0044 F4000000 		.word	.LC15
 2314 0048 D4FFFFFF 		.word	-44
 2315 004c 36000000 		.word	54
 2316 0050 F8000000 		.word	.LC16
 2317 0054 D8FFFFFF 		.word	-40
 2318 0058 35000000 		.word	53
ARM GAS  C:\Users\IVYLIU~1\AppData\Local\Temp\ccWSfWRg.s 			page 55


 2319 005c FC000000 		.word	.LC17
 2320 0060 DCFFFFFF 		.word	-36
 2321 0064 34000000 		.word	52
 2322 0068 00010000 		.word	.LC18
 2323 006c E0FFFFFF 		.word	-32
 2324 0070 33000000 		.word	51
 2325 0074 04010000 		.word	.LC19
 2326 0078 E4FFFFFF 		.word	-28
 2327 007c 32000000 		.word	50
 2328 0080 08010000 		.word	.LC20
 2329 0084 E8FFFFFF 		.word	-24
 2330 0088 31000000 		.word	49
 2331 008c 0C010000 		.word	.LC21
 2332 0090 EBFFFFFF 		.word	-21
 2333 0094 30000000 		.word	48
 2334 0098 10010000 		.word	.LC22
 2335 009c EEFFFFFF 		.word	-18
 2336 00a0 2F000000 		.word	47
 2337 00a4 14010000 		.word	.LC23
 2338 00a8 F1FFFFFF 		.word	-15
 2339 00ac 2E000000 		.word	46
 2340 00b0 18010000 		.word	.LC24
 2341 00b4 F4FFFFFF 		.word	-12
 2342 00b8 2D000000 		.word	45
 2343 00bc 1C010000 		.word	.LC25
 2344 00c0 F7FFFFFF 		.word	-9
 2345 00c4 2C000000 		.word	44
 2346 00c8 20010000 		.word	.LC26
 2347 00cc F9FFFFFF 		.word	-7
 2348 00d0 2B000000 		.word	43
 2349 00d4 24010000 		.word	.LC27
 2350 00d8 FCFFFFFF 		.word	-4
 2351 00dc 2A000000 		.word	42
 2352 00e0 28010000 		.word	.LC28
 2353 00e4 FEFFFFFF 		.word	-2
 2354 00e8 29000000 		.word	41
 2355 00ec 2C010000 		.word	.LC29
 2356 00f0 00000000 		.word	0
 2357 00f4 28000000 		.word	40
 2358 00f8 30010000 		.word	.LC30
 2359 00fc 02000000 		.word	2
 2360 0100 27000000 		.word	39
 2361 0104 34010000 		.word	.LC31
 2362 0108 00000000 		.word	0
 2363 010c 26000000 		.word	38
 2364 0110 38010000 		.word	.LC32
 2365 0114 00000000 		.word	0
 2366 0118 25000000 		.word	37
 2367 011c 3C010000 		.word	.LC33
 2368 0120 00000000 		.word	0
 2369 0124 24000000 		.word	36
 2370 0128 40010000 		.word	.LC34
 2371 012c 00000000 		.word	0
 2372 0130 23000000 		.word	35
 2373 0134 44010000 		.word	.LC35
 2374 0138 00000000 		.word	0
 2375 013c 22000000 		.word	34
ARM GAS  C:\Users\IVYLIU~1\AppData\Local\Temp\ccWSfWRg.s 			page 56


 2376 0140 48010000 		.word	.LC36
 2377 0144 00000000 		.word	0
 2378 0148 21000000 		.word	33
 2379 014c 4C010000 		.word	.LC37
 2380 0150 00000000 		.word	0
 2381 0154 20000000 		.word	32
 2382 0158 50010000 		.word	.LC38
 2383 015c 00000000 		.word	0
 2384 0160 1F000000 		.word	31
 2385 0164 54010000 		.word	.LC39
 2386 0168 00000000 		.word	0
 2387 016c 1E000000 		.word	30
 2388 0170 58010000 		.word	.LC40
 2389 0174 00000000 		.word	0
 2390 0178 1D000000 		.word	29
 2391 017c 5C010000 		.word	.LC41
 2392 0180 00000000 		.word	0
 2393 0184 1C000000 		.word	28
 2394 0188 60010000 		.word	.LC42
 2395 018c 00000000 		.word	0
 2396 0190 1B000000 		.word	27
 2397 0194 64010000 		.word	.LC43
 2398 0198 00000000 		.word	0
 2399 019c 1A000000 		.word	26
 2400 01a0 68010000 		.word	.LC44
 2401 01a4 00000000 		.word	0
 2402 01a8 19000000 		.word	25
 2403 01ac 6C010000 		.word	.LC45
 2404 01b0 00000000 		.word	0
 2405 01b4 18000000 		.word	24
 2406 01b8 70010000 		.word	.LC46
 2407 01bc 00000000 		.word	0
 2408 01c0 17000000 		.word	23
 2409 01c4 74010000 		.word	.LC47
 2410 01c8 00000000 		.word	0
 2411 01cc 16000000 		.word	22
 2412 01d0 78010000 		.word	.LC48
 2413 01d4 00000000 		.word	0
 2414 01d8 15000000 		.word	21
 2415 01dc 7C010000 		.word	.LC49
 2416 01e0 00000000 		.word	0
 2417 01e4 14000000 		.word	20
 2418 01e8 00000000 		.word	0
 2419 01ec 00000000 		.space	8
 2419      00000000 
 2420              		.type	songs, %object
 2421              		.size	songs, 32
 2422              	songs:
 2423 01f4 00000000 		.word	0
 2424 01f8 B4010000 		.word	.LC55
 2425 01fc 00000000 		.word	SONG0_SEQ
 2426 0200 55000000 		.word	85
 2427 0204 01000000 		.word	1
 2428 0208 C0010000 		.word	.LC56
 2429 020c 00000000 		.word	SONG1_SEQ
 2430 0210 2A000000 		.word	42
 2431              		.type	middle_c_bin, %object
ARM GAS  C:\Users\IVYLIU~1\AppData\Local\Temp\ccWSfWRg.s 			page 57


 2432              		.size	middle_c_bin, 4
 2433              	middle_c_bin:
 2434 0214 DC030000 		.word	988
 2435              		.type	SONG1_SEQ, %object
 2436              		.size	SONG1_SEQ, 168
 2437              	SONG1_SEQ:
 2438 0218 2C010000 		.word	.LC29
 2439 021c 2C010000 		.word	.LC29
 2440 0220 10010000 		.word	.LC22
 2441 0224 10010000 		.word	.LC22
 2442 0228 08010000 		.word	.LC20
 2443 022c 08010000 		.word	.LC20
 2444 0230 10010000 		.word	.LC22
 2445 0234 18010000 		.word	.LC24
 2446 0238 18010000 		.word	.LC24
 2447 023c 1C010000 		.word	.LC25
 2448 0240 1C010000 		.word	.LC25
 2449 0244 24010000 		.word	.LC27
 2450 0248 24010000 		.word	.LC27
 2451 024c 2C010000 		.word	.LC29
 2452 0250 10010000 		.word	.LC22
 2453 0254 10010000 		.word	.LC22
 2454 0258 18010000 		.word	.LC24
 2455 025c 18010000 		.word	.LC24
 2456 0260 1C010000 		.word	.LC25
 2457 0264 1C010000 		.word	.LC25
 2458 0268 24010000 		.word	.LC27
 2459 026c 10010000 		.word	.LC22
 2460 0270 10010000 		.word	.LC22
 2461 0274 18010000 		.word	.LC24
 2462 0278 18010000 		.word	.LC24
 2463 027c 1C010000 		.word	.LC25
 2464 0280 1C010000 		.word	.LC25
 2465 0284 24010000 		.word	.LC27
 2466 0288 2C010000 		.word	.LC29
 2467 028c 2C010000 		.word	.LC29
 2468 0290 10010000 		.word	.LC22
 2469 0294 10010000 		.word	.LC22
 2470 0298 08010000 		.word	.LC20
 2471 029c 08010000 		.word	.LC20
 2472 02a0 10010000 		.word	.LC22
 2473 02a4 18010000 		.word	.LC24
 2474 02a8 18010000 		.word	.LC24
 2475 02ac 1C010000 		.word	.LC25
 2476 02b0 1C010000 		.word	.LC25
 2477 02b4 24010000 		.word	.LC27
 2478 02b8 24010000 		.word	.LC27
 2479 02bc 2C010000 		.word	.LC29
 2480              		.type	SONG0_SEQ, %object
 2481              		.size	SONG0_SEQ, 340
 2482              	SONG0_SEQ:
 2483 02c0 EC000000 		.word	.LC13
 2484 02c4 F0000000 		.word	.LC14
 2485 02c8 EC000000 		.word	.LC13
 2486 02cc F0000000 		.word	.LC14
 2487 02d0 EC000000 		.word	.LC13
 2488 02d4 00010000 		.word	.LC18
ARM GAS  C:\Users\IVYLIU~1\AppData\Local\Temp\ccWSfWRg.s 			page 58


 2489 02d8 F4000000 		.word	.LC15
 2490 02dc FC000000 		.word	.LC17
 2491 02e0 08010000 		.word	.LC20
 2492 02e4 2C010000 		.word	.LC29
 2493 02e8 1C010000 		.word	.LC25
 2494 02ec 08010000 		.word	.LC20
 2495 02f0 00010000 		.word	.LC18
 2496 02f4 1C010000 		.word	.LC25
 2497 02f8 0C010000 		.word	.LC21
 2498 02fc 00010000 		.word	.LC18
 2499 0300 FC000000 		.word	.LC17
 2500 0304 1C010000 		.word	.LC25
 2501 0308 EC000000 		.word	.LC13
 2502 030c F0000000 		.word	.LC14
 2503 0310 EC000000 		.word	.LC13
 2504 0314 F0000000 		.word	.LC14
 2505 0318 EC000000 		.word	.LC13
 2506 031c 00010000 		.word	.LC18
 2507 0320 F4000000 		.word	.LC15
 2508 0324 FC000000 		.word	.LC17
 2509 0328 08010000 		.word	.LC20
 2510 032c 2C010000 		.word	.LC29
 2511 0330 1C010000 		.word	.LC25
 2512 0334 08010000 		.word	.LC20
 2513 0338 00010000 		.word	.LC18
 2514 033c 1C010000 		.word	.LC25
 2515 0340 FC000000 		.word	.LC17
 2516 0344 00010000 		.word	.LC18
 2517 0348 08010000 		.word	.LC20
 2518 034c 00010000 		.word	.LC18
 2519 0350 FC000000 		.word	.LC17
 2520 0354 F4000000 		.word	.LC15
 2521 0358 EC000000 		.word	.LC13
 2522 035c 10010000 		.word	.LC22
 2523 0360 E8000000 		.word	.LC12
 2524 0364 EC000000 		.word	.LC13
 2525 0368 F4000000 		.word	.LC15
 2526 036c 18010000 		.word	.LC24
 2527 0370 EC000000 		.word	.LC13
 2528 0374 F4000000 		.word	.LC15
 2529 0378 FC000000 		.word	.LC17
 2530 037c 1C010000 		.word	.LC25
 2531 0380 F4000000 		.word	.LC15
 2532 0384 FC000000 		.word	.LC17
 2533 0388 00010000 		.word	.LC18
 2534 038c EC000000 		.word	.LC13
 2535 0390 F0000000 		.word	.LC14
 2536 0394 EC000000 		.word	.LC13
 2537 0398 F0000000 		.word	.LC14
 2538 039c EC000000 		.word	.LC13
 2539 03a0 00010000 		.word	.LC18
 2540 03a4 F4000000 		.word	.LC15
 2541 03a8 FC000000 		.word	.LC17
 2542 03ac 08010000 		.word	.LC20
 2543 03b0 2C010000 		.word	.LC29
 2544 03b4 1C010000 		.word	.LC25
 2545 03b8 08010000 		.word	.LC20
ARM GAS  C:\Users\IVYLIU~1\AppData\Local\Temp\ccWSfWRg.s 			page 59


 2546 03bc 00010000 		.word	.LC18
 2547 03c0 1C010000 		.word	.LC25
 2548 03c4 0C010000 		.word	.LC21
 2549 03c8 00010000 		.word	.LC18
 2550 03cc FC000000 		.word	.LC17
 2551 03d0 1C010000 		.word	.LC25
 2552 03d4 EC000000 		.word	.LC13
 2553 03d8 F0000000 		.word	.LC14
 2554 03dc EC000000 		.word	.LC13
 2555 03e0 F0000000 		.word	.LC14
 2556 03e4 EC000000 		.word	.LC13
 2557 03e8 00010000 		.word	.LC18
 2558 03ec F4000000 		.word	.LC15
 2559 03f0 FC000000 		.word	.LC17
 2560 03f4 08010000 		.word	.LC20
 2561 03f8 2C010000 		.word	.LC29
 2562 03fc 1C010000 		.word	.LC25
 2563 0400 08010000 		.word	.LC20
 2564 0404 00010000 		.word	.LC18
 2565 0408 1C010000 		.word	.LC25
 2566 040c FC000000 		.word	.LC17
 2567 0410 08010000 		.word	.LC20
 2568              		.type	Deltapower, %object
 2569              		.size	Deltapower, 4
 2570              	Deltapower:
 2571 0414 0AD7A33B 		.word	1000593162
 2572              		.type	power, %object
 2573              		.size	power, 4
 2574              	power:
 2575 0418 0000803F 		.word	1065353216
 2576              		.section	.rodata.str1.4,"aMS",%progbits,1
 2577              		.align	2
 2578              	.LC0:
 2579 0000 556E7265 		.ascii	"Unrecognized note\000"
 2579      636F676E 
 2579      697A6564 
 2579      206E6F74 
 2579      6500
 2580 0012 0000     		.space	2
 2581              	.LC1:
 2582 0014 536F6E67 		.ascii	"Song Selection\000"
 2582      2053656C 
 2582      65637469 
 2582      6F6E00
 2583 0023 00       		.space	1
 2584              	.LC2:
 2585 0024 50726573 		.ascii	"Press SW2 for next option.\000"
 2585      73205357 
 2585      3220666F 
 2585      72206E65 
 2585      7874206F 
 2586 003f 00       		.space	1
 2587              	.LC3:
 2588 0040 50726573 		.ascii	"Press SW3 to confirm selection.\000"
 2588      73205357 
 2588      3320746F 
 2588      20636F6E 
ARM GAS  C:\Users\IVYLIU~1\AppData\Local\Temp\ccWSfWRg.s 			page 60


 2588      6669726D 
 2589              	.LC4:
 2590 0060 536F6E67 		.ascii	"Song Selected!\000"
 2590      2053656C 
 2590      65637465 
 2590      642100
 2591 006f 00       		.space	1
 2592              	.LC5:
 2593 0070 4C696E65 		.ascii	"Line up lit LEDs over\012the middle C key.\012Press"
 2593      20757020 
 2593      6C697420 
 2593      4C454473 
 2593      206F7665 
 2594 009d 20535733 		.ascii	" SW3 when done.\000"
 2594      20776865 
 2594      6E20646F 
 2594      6E652E00 
 2595 00ad 000000   		.space	3
 2596              	.LC6:
 2597 00b0 57656C63 		.ascii	"Welcome to\012Piano Tiles!\000"
 2597      6F6D6520 
 2597      746F0A50 
 2597      69616E6F 
 2597      2054696C 
 2598              	.LC7:
 2599 00c8 506C6179 		.ascii	"Play\000"
 2599      00
 2600 00cd 000000   		.space	3
 2601              	.LC8:
 2602 00d0 43616C69 		.ascii	"Calibrate\000"
 2602      62726174 
 2602      6500
 2603 00da 0000     		.space	2
 2604              	.LC9:
 2605 00dc 473500   		.ascii	"G5\000"
 2606 00df 00       		.space	1
 2607              	.LC10:
 2608 00e0 46233500 		.ascii	"F#5\000"
 2609              	.LC11:
 2610 00e4 2300     		.ascii	"#\000"
 2611 00e6 0000     		.space	2
 2612              	.LC12:
 2613 00e8 463500   		.ascii	"F5\000"
 2614 00eb 00       		.space	1
 2615              	.LC13:
 2616 00ec 453500   		.ascii	"E5\000"
 2617 00ef 00       		.space	1
 2618              	.LC14:
 2619 00f0 44233500 		.ascii	"D#5\000"
 2620              	.LC15:
 2621 00f4 443500   		.ascii	"D5\000"
 2622 00f7 00       		.space	1
 2623              	.LC16:
 2624 00f8 43233500 		.ascii	"C#5\000"
 2625              	.LC17:
 2626 00fc 433500   		.ascii	"C5\000"
 2627 00ff 00       		.space	1
ARM GAS  C:\Users\IVYLIU~1\AppData\Local\Temp\ccWSfWRg.s 			page 61


 2628              	.LC18:
 2629 0100 423400   		.ascii	"B4\000"
 2630 0103 00       		.space	1
 2631              	.LC19:
 2632 0104 41233400 		.ascii	"A#4\000"
 2633              	.LC20:
 2634 0108 413400   		.ascii	"A4\000"
 2635 010b 00       		.space	1
 2636              	.LC21:
 2637 010c 47233400 		.ascii	"G#4\000"
 2638              	.LC22:
 2639 0110 473400   		.ascii	"G4\000"
 2640 0113 00       		.space	1
 2641              	.LC23:
 2642 0114 46233400 		.ascii	"F#4\000"
 2643              	.LC24:
 2644 0118 463400   		.ascii	"F4\000"
 2645 011b 00       		.space	1
 2646              	.LC25:
 2647 011c 453400   		.ascii	"E4\000"
 2648 011f 00       		.space	1
 2649              	.LC26:
 2650 0120 44233400 		.ascii	"D#4\000"
 2651              	.LC27:
 2652 0124 443400   		.ascii	"D4\000"
 2653 0127 00       		.space	1
 2654              	.LC28:
 2655 0128 43233400 		.ascii	"C#4\000"
 2656              	.LC29:
 2657 012c 433400   		.ascii	"C4\000"
 2658 012f 00       		.space	1
 2659              	.LC30:
 2660 0130 423300   		.ascii	"B3\000"
 2661 0133 00       		.space	1
 2662              	.LC31:
 2663 0134 41233300 		.ascii	"A#3\000"
 2664              	.LC32:
 2665 0138 413300   		.ascii	"A3\000"
 2666 013b 00       		.space	1
 2667              	.LC33:
 2668 013c 47233300 		.ascii	"G#3\000"
 2669              	.LC34:
 2670 0140 473300   		.ascii	"G3\000"
 2671 0143 00       		.space	1
 2672              	.LC35:
 2673 0144 46233300 		.ascii	"F#3\000"
 2674              	.LC36:
 2675 0148 463300   		.ascii	"F3\000"
 2676 014b 00       		.space	1
 2677              	.LC37:
 2678 014c 453300   		.ascii	"E3\000"
 2679 014f 00       		.space	1
 2680              	.LC38:
 2681 0150 44233300 		.ascii	"D#3\000"
 2682              	.LC39:
 2683 0154 443300   		.ascii	"D3\000"
 2684 0157 00       		.space	1
ARM GAS  C:\Users\IVYLIU~1\AppData\Local\Temp\ccWSfWRg.s 			page 62


 2685              	.LC40:
 2686 0158 43233300 		.ascii	"C#3\000"
 2687              	.LC41:
 2688 015c 433300   		.ascii	"C3\000"
 2689 015f 00       		.space	1
 2690              	.LC42:
 2691 0160 423200   		.ascii	"B2\000"
 2692 0163 00       		.space	1
 2693              	.LC43:
 2694 0164 41233200 		.ascii	"A#2\000"
 2695              	.LC44:
 2696 0168 413200   		.ascii	"A2\000"
 2697 016b 00       		.space	1
 2698              	.LC45:
 2699 016c 47233200 		.ascii	"G#2\000"
 2700              	.LC46:
 2701 0170 473200   		.ascii	"G2\000"
 2702 0173 00       		.space	1
 2703              	.LC47:
 2704 0174 46233200 		.ascii	"F#2\000"
 2705              	.LC48:
 2706 0178 463200   		.ascii	"F2\000"
 2707 017b 00       		.space	1
 2708              	.LC49:
 2709 017c 453200   		.ascii	"E2\000"
 2710 017f 00       		.space	1
 2711              	.LC50:
 2712 0180 496E7661 		.ascii	"Invalid!\000"
 2712      6C696421 
 2712      00
 2713 0189 000000   		.space	3
 2714              	.LC51:
 2715 018c 256400   		.ascii	"%d\000"
 2716 018f 00       		.space	1
 2717              	.LC52:
 2718 0190 53636F72 		.ascii	"Score\000"
 2718      6500
 2719 0196 0000     		.space	2
 2720              	.LC53:
 2721 0198 57656C6C 		.ascii	"Well Done!\000"
 2721      20446F6E 
 2721      652100
 2722 01a3 00       		.space	1
 2723              	.LC54:
 2724 01a4 4D696464 		.ascii	"Middle C Bin\012%d\000"
 2724      6C652043 
 2724      2042696E 
 2724      0A256400 
 2725              	.LC55:
 2726 01b4 46757220 		.ascii	"Fur Elise\000"
 2726      456C6973 
 2726      6500
 2727 01be 0000     		.space	2
 2728              	.LC56:
 2729 01c0 5477696E 		.ascii	"Twinkle, Twinkle,\012Little Star\000"
 2729      6B6C652C 
 2729      20547769 
ARM GAS  C:\Users\IVYLIU~1\AppData\Local\Temp\ccWSfWRg.s 			page 63


 2729      6E6B6C65 
 2729      2C0A4C69 
 2730 01de 0000     		.bss
 2731              		.align	2
 2732              		.set	.LANCHOR0,. + 0
 2733              		.type	adcResult, %object
 2734              		.size	adcResult, 4
 2735              	adcResult:
 2736 0000 00000000 		.space	4
 2737              		.type	ifftFlag, %object
 2738              		.size	ifftFlag, 4
 2739              	ifftFlag:
 2740 0004 00000000 		.space	4
 2741              		.type	testIndex, %object
 2742              		.size	testIndex, 4
 2743              	testIndex:
 2744 0008 00000000 		.space	4
 2745              		.type	offset, %object
 2746              		.size	offset, 4
 2747              	offset:
 2748 000c 00000000 		.space	4
 2749              		.text
 2750              	.Letext0:
 2751              		.file 2 "c:\\program files (x86)\\cypress\\psoc creator\\3.3\\psoc creator\\import\\gnu\\arm\\4.9.
 2752              		.file 3 "c:\\program files (x86)\\cypress\\psoc creator\\3.3\\psoc creator\\import\\gnu\\arm\\4.9.
 2753              		.file 4 "Generated_Source\\PSoC5/cytypes.h"
 2754              		.file 5 "..\\emWinGraphics_v5_46\\Code\\Include\\PSoC4_5/LCD.h"
 2755              		.file 6 "..\\emWinGraphics_v5_46\\Code\\Include\\PSoC4_5/GUI_Type.h"
 2756              		.file 7 ".\\DSP\\Include/arm_math_types.h"
 2757              		.file 8 ".\\DSP\\Include/dsp/transform_functions.h"
 2758              		.file 9 "Generated_Source\\PSoC5/NP_funcs.h"
 2759              		.file 10 ".\\Core\\Include/cmsis_gcc.h"
 2760              		.file 11 ".\\Core\\Include/core_cm3.h"
 2761              		.file 12 "..\\emWinGraphics_v5_46\\Code\\Include\\PSoC4_5/GUI.h"
 2762              		.file 13 ".\\DSP\\Include/dsp/complex_math_functions.h"
 2763              		.file 14 ".\\DSP\\Include/dsp/statistics_functions.h"
 2764              		.file 15 "Generated_Source\\PSoC5/adc_threshold.h"
 2765              		.file 16 "Generated_Source\\PSoC5/CyLib.h"
 2766              		.file 17 "Generated_Source\\PSoC5/ADC_DelSig_1.h"
 2767              		.file 18 "Generated_Source\\PSoC5/SW2.h"
 2768              		.file 19 "Generated_Source\\PSoC5/SW3.h"
 2769              		.file 20 "c:\\program files (x86)\\cypress\\psoc creator\\3.3\\psoc creator\\import\\gnu\\arm\\4.9
 2770              		.file 21 "c:\\program files (x86)\\cypress\\psoc creator\\3.3\\psoc creator\\import\\gnu\\arm\\4.9
 2771              		.file 22 "Generated_Source\\PSoC5/SPIM_1.h"
 2772              		.section	.debug_info,"",%progbits
 2773              	.Ldebug_info0:
 2774 0000 E82B0000 		.4byte	0x2be8
 2775 0004 0400     		.2byte	0x4
 2776 0006 00000000 		.4byte	.Ldebug_abbrev0
 2777 000a 04       		.byte	0x4
 2778 000b 01       		.uleb128 0x1
 2779 000c D2090000 		.4byte	.LASF202
 2780 0010 01       		.byte	0x1
 2781 0011 92050000 		.4byte	.LASF203
 2782 0015 FB000000 		.4byte	.LASF204
 2783 0019 00000000 		.4byte	.Ldebug_ranges0+0
 2784 001d 00000000 		.4byte	0
ARM GAS  C:\Users\IVYLIU~1\AppData\Local\Temp\ccWSfWRg.s 			page 64


 2785 0021 00000000 		.4byte	.Ldebug_line0
 2786 0025 02       		.uleb128 0x2
 2787 0026 08       		.byte	0x8
 2788 0027 04       		.byte	0x4
 2789 0028 FA020000 		.4byte	.LASF0
 2790 002c 02       		.uleb128 0x2
 2791 002d 01       		.byte	0x1
 2792 002e 06       		.byte	0x6
 2793 002f F8010000 		.4byte	.LASF1
 2794 0033 03       		.uleb128 0x3
 2795 0034 94000000 		.4byte	.LASF4
 2796 0038 02       		.byte	0x2
 2797 0039 1D       		.byte	0x1d
 2798 003a 3E000000 		.4byte	0x3e
 2799 003e 02       		.uleb128 0x2
 2800 003f 01       		.byte	0x1
 2801 0040 08       		.byte	0x8
 2802 0041 BC060000 		.4byte	.LASF2
 2803 0045 02       		.uleb128 0x2
 2804 0046 02       		.byte	0x2
 2805 0047 05       		.byte	0x5
 2806 0048 DA060000 		.4byte	.LASF3
 2807 004c 03       		.uleb128 0x3
 2808 004d FE070000 		.4byte	.LASF5
 2809 0051 02       		.byte	0x2
 2810 0052 2B       		.byte	0x2b
 2811 0053 57000000 		.4byte	0x57
 2812 0057 02       		.uleb128 0x2
 2813 0058 02       		.byte	0x2
 2814 0059 07       		.byte	0x7
 2815 005a 3B040000 		.4byte	.LASF6
 2816 005e 03       		.uleb128 0x3
 2817 005f 8E010000 		.4byte	.LASF7
 2818 0063 02       		.byte	0x2
 2819 0064 3F       		.byte	0x3f
 2820 0065 69000000 		.4byte	0x69
 2821 0069 02       		.uleb128 0x2
 2822 006a 04       		.byte	0x4
 2823 006b 05       		.byte	0x5
 2824 006c B1020000 		.4byte	.LASF8
 2825 0070 03       		.uleb128 0x3
 2826 0071 2C080000 		.4byte	.LASF9
 2827 0075 02       		.byte	0x2
 2828 0076 41       		.byte	0x41
 2829 0077 7B000000 		.4byte	0x7b
 2830 007b 02       		.uleb128 0x2
 2831 007c 04       		.byte	0x4
 2832 007d 07       		.byte	0x7
 2833 007e 03040000 		.4byte	.LASF10
 2834 0082 02       		.uleb128 0x2
 2835 0083 08       		.byte	0x8
 2836 0084 05       		.byte	0x5
 2837 0085 EA010000 		.4byte	.LASF11
 2838 0089 02       		.uleb128 0x2
 2839 008a 08       		.byte	0x8
 2840 008b 07       		.byte	0x7
 2841 008c 4A010000 		.4byte	.LASF12
ARM GAS  C:\Users\IVYLIU~1\AppData\Local\Temp\ccWSfWRg.s 			page 65


 2842 0090 04       		.uleb128 0x4
 2843 0091 04       		.byte	0x4
 2844 0092 05       		.byte	0x5
 2845 0093 696E7400 		.ascii	"int\000"
 2846 0097 02       		.uleb128 0x2
 2847 0098 04       		.byte	0x4
 2848 0099 07       		.byte	0x7
 2849 009a F6030000 		.4byte	.LASF13
 2850 009e 03       		.uleb128 0x3
 2851 009f 06090000 		.4byte	.LASF14
 2852 00a3 03       		.byte	0x3
 2853 00a4 15       		.byte	0x15
 2854 00a5 33000000 		.4byte	0x33
 2855 00a9 03       		.uleb128 0x3
 2856 00aa E6020000 		.4byte	.LASF15
 2857 00ae 03       		.byte	0x3
 2858 00af 21       		.byte	0x21
 2859 00b0 4C000000 		.4byte	0x4c
 2860 00b4 03       		.uleb128 0x3
 2861 00b5 B4060000 		.4byte	.LASF16
 2862 00b9 03       		.byte	0x3
 2863 00ba 2C       		.byte	0x2c
 2864 00bb 5E000000 		.4byte	0x5e
 2865 00bf 03       		.uleb128 0x3
 2866 00c0 A6080000 		.4byte	.LASF17
 2867 00c4 03       		.byte	0x3
 2868 00c5 2D       		.byte	0x2d
 2869 00c6 70000000 		.4byte	0x70
 2870 00ca 05       		.uleb128 0x5
 2871 00cb CA020000 		.4byte	.LASF18
 2872 00cf 04       		.byte	0x4
 2873 00d0 9201     		.2byte	0x192
 2874 00d2 3E000000 		.4byte	0x3e
 2875 00d6 05       		.uleb128 0x5
 2876 00d7 68030000 		.4byte	.LASF19
 2877 00db 04       		.byte	0x4
 2878 00dc 9401     		.2byte	0x194
 2879 00de 7B000000 		.4byte	0x7b
 2880 00e2 05       		.uleb128 0x5
 2881 00e3 C7030000 		.4byte	.LASF20
 2882 00e7 04       		.byte	0x4
 2883 00e8 9701     		.2byte	0x197
 2884 00ea 69000000 		.4byte	0x69
 2885 00ee 02       		.uleb128 0x2
 2886 00ef 04       		.byte	0x4
 2887 00f0 04       		.byte	0x4
 2888 00f1 20060000 		.4byte	.LASF21
 2889 00f5 02       		.uleb128 0x2
 2890 00f6 01       		.byte	0x1
 2891 00f7 08       		.byte	0x8
 2892 00f8 C7070000 		.4byte	.LASF22
 2893 00fc 06       		.uleb128 0x6
 2894 00fd CA000000 		.4byte	0xca
 2895 0101 02       		.uleb128 0x2
 2896 0102 04       		.byte	0x4
 2897 0103 07       		.byte	0x7
 2898 0104 5F050000 		.4byte	.LASF23
ARM GAS  C:\Users\IVYLIU~1\AppData\Local\Temp\ccWSfWRg.s 			page 66


 2899 0108 07       		.uleb128 0x7
 2900 0109 04       		.byte	0x4
 2901 010a 08       		.uleb128 0x8
 2902 010b 04       		.byte	0x4
 2903 010c F5000000 		.4byte	0xf5
 2904 0110 08       		.uleb128 0x8
 2905 0111 04       		.byte	0x4
 2906 0112 16010000 		.4byte	0x116
 2907 0116 09       		.uleb128 0x9
 2908 0117 F5000000 		.4byte	0xf5
 2909 011b 03       		.uleb128 0x3
 2910 011c 11050000 		.4byte	.LASF24
 2911 0120 05       		.byte	0x5
 2912 0121 6A       		.byte	0x6a
 2913 0122 7B000000 		.4byte	0x7b
 2914 0126 08       		.uleb128 0x8
 2915 0127 04       		.byte	0x4
 2916 0128 2C010000 		.4byte	0x12c
 2917 012c 09       		.uleb128 0x9
 2918 012d 3E000000 		.4byte	0x3e
 2919 0131 08       		.uleb128 0x8
 2920 0132 04       		.byte	0x4
 2921 0133 37010000 		.4byte	0x137
 2922 0137 0A       		.uleb128 0xa
 2923 0138 03       		.uleb128 0x3
 2924 0139 8A040000 		.4byte	.LASF25
 2925 013d 06       		.byte	0x6
 2926 013e 3D       		.byte	0x3d
 2927 013f 1B010000 		.4byte	0x11b
 2928 0143 0B       		.uleb128 0xb
 2929 0144 04       		.byte	0x4
 2930 0145 06       		.byte	0x6
 2931 0146 B6       		.byte	0xb6
 2932 0147 62010000 		.4byte	0x162
 2933 014b 0C       		.uleb128 0xc
 2934 014c 633000   		.ascii	"c0\000"
 2935 014f 06       		.byte	0x6
 2936 0150 B7       		.byte	0xb7
 2937 0151 45000000 		.4byte	0x45
 2938 0155 00       		.byte	0
 2939 0156 0C       		.uleb128 0xc
 2940 0157 633100   		.ascii	"c1\000"
 2941 015a 06       		.byte	0x6
 2942 015b B8       		.byte	0xb8
 2943 015c 45000000 		.4byte	0x45
 2944 0160 02       		.byte	0x2
 2945 0161 00       		.byte	0
 2946 0162 03       		.uleb128 0x3
 2947 0163 E3030000 		.4byte	.LASF26
 2948 0167 06       		.byte	0x6
 2949 0168 B9       		.byte	0xb9
 2950 0169 43010000 		.4byte	0x143
 2951 016d 0B       		.uleb128 0xb
 2952 016e 08       		.byte	0x8
 2953 016f 06       		.byte	0x6
 2954 0170 BB       		.byte	0xbb
 2955 0171 9A010000 		.4byte	0x19a
ARM GAS  C:\Users\IVYLIU~1\AppData\Local\Temp\ccWSfWRg.s 			page 67


 2956 0175 0D       		.uleb128 0xd
 2957 0176 5B090000 		.4byte	.LASF27
 2958 017a 06       		.byte	0x6
 2959 017b BC       		.byte	0xbc
 2960 017c 57000000 		.4byte	0x57
 2961 0180 00       		.byte	0
 2962 0181 0D       		.uleb128 0xd
 2963 0182 27020000 		.4byte	.LASF28
 2964 0186 06       		.byte	0x6
 2965 0187 BD       		.byte	0xbd
 2966 0188 57000000 		.4byte	0x57
 2967 018c 02       		.byte	0x2
 2968 018d 0D       		.uleb128 0xd
 2969 018e A0080000 		.4byte	.LASF29
 2970 0192 06       		.byte	0x6
 2971 0193 BE       		.byte	0xbe
 2972 0194 9A010000 		.4byte	0x19a
 2973 0198 04       		.byte	0x4
 2974 0199 00       		.byte	0
 2975 019a 08       		.uleb128 0x8
 2976 019b 04       		.byte	0x4
 2977 019c A0010000 		.4byte	0x1a0
 2978 01a0 09       		.uleb128 0x9
 2979 01a1 62010000 		.4byte	0x162
 2980 01a5 03       		.uleb128 0x3
 2981 01a6 56000000 		.4byte	.LASF30
 2982 01aa 06       		.byte	0x6
 2983 01ab BF       		.byte	0xbf
 2984 01ac 6D010000 		.4byte	0x16d
 2985 01b0 0B       		.uleb128 0xb
 2986 01b1 08       		.byte	0x8
 2987 01b2 06       		.byte	0x6
 2988 01b3 C1       		.byte	0xc1
 2989 01b4 E9010000 		.4byte	0x1e9
 2990 01b8 0D       		.uleb128 0xd
 2991 01b9 FA080000 		.4byte	.LASF31
 2992 01bd 06       		.byte	0x6
 2993 01be C2       		.byte	0xc2
 2994 01bf 3E000000 		.4byte	0x3e
 2995 01c3 00       		.byte	0
 2996 01c4 0D       		.uleb128 0xd
 2997 01c5 CA060000 		.4byte	.LASF32
 2998 01c9 06       		.byte	0x6
 2999 01ca C3       		.byte	0xc3
 3000 01cb 3E000000 		.4byte	0x3e
 3001 01cf 01       		.byte	0x1
 3002 01d0 0D       		.uleb128 0xd
 3003 01d1 85050000 		.4byte	.LASF33
 3004 01d5 06       		.byte	0x6
 3005 01d6 C4       		.byte	0xc4
 3006 01d7 3E000000 		.4byte	0x3e
 3007 01db 02       		.byte	0x2
 3008 01dc 0D       		.uleb128 0xd
 3009 01dd BE090000 		.4byte	.LASF34
 3010 01e1 06       		.byte	0x6
 3011 01e2 C5       		.byte	0xc5
 3012 01e3 26010000 		.4byte	0x126
ARM GAS  C:\Users\IVYLIU~1\AppData\Local\Temp\ccWSfWRg.s 			page 68


 3013 01e7 04       		.byte	0x4
 3014 01e8 00       		.byte	0
 3015 01e9 03       		.uleb128 0x3
 3016 01ea 14070000 		.4byte	.LASF35
 3017 01ee 06       		.byte	0x6
 3018 01ef C6       		.byte	0xc6
 3019 01f0 B0010000 		.4byte	0x1b0
 3020 01f4 0B       		.uleb128 0xb
 3021 01f5 0C       		.byte	0xc
 3022 01f6 06       		.byte	0x6
 3023 01f7 C8       		.byte	0xc8
 3024 01f8 45020000 		.4byte	0x245
 3025 01fc 0D       		.uleb128 0xd
 3026 01fd FA080000 		.4byte	.LASF31
 3027 0201 06       		.byte	0x6
 3028 0202 C9       		.byte	0xc9
 3029 0203 3E000000 		.4byte	0x3e
 3030 0207 00       		.byte	0
 3031 0208 0D       		.uleb128 0xd
 3032 0209 00090000 		.4byte	.LASF36
 3033 020d 06       		.byte	0x6
 3034 020e CA       		.byte	0xca
 3035 020f 3E000000 		.4byte	0x3e
 3036 0213 01       		.byte	0x1
 3037 0214 0D       		.uleb128 0xd
 3038 0215 9D0A0000 		.4byte	.LASF37
 3039 0219 06       		.byte	0x6
 3040 021a CB       		.byte	0xcb
 3041 021b 2C000000 		.4byte	0x2c
 3042 021f 02       		.byte	0x2
 3043 0220 0D       		.uleb128 0xd
 3044 0221 80000000 		.4byte	.LASF38
 3045 0225 06       		.byte	0x6
 3046 0226 CC       		.byte	0xcc
 3047 0227 2C000000 		.4byte	0x2c
 3048 022b 03       		.byte	0x3
 3049 022c 0D       		.uleb128 0xd
 3050 022d CA060000 		.4byte	.LASF32
 3051 0231 06       		.byte	0x6
 3052 0232 CD       		.byte	0xcd
 3053 0233 3E000000 		.4byte	0x3e
 3054 0237 04       		.byte	0x4
 3055 0238 0D       		.uleb128 0xd
 3056 0239 BE090000 		.4byte	.LASF34
 3057 023d 06       		.byte	0x6
 3058 023e CE       		.byte	0xce
 3059 023f 26010000 		.4byte	0x126
 3060 0243 08       		.byte	0x8
 3061 0244 00       		.byte	0
 3062 0245 03       		.uleb128 0x3
 3063 0246 AE000000 		.4byte	.LASF39
 3064 024a 06       		.byte	0x6
 3065 024b CF       		.byte	0xcf
 3066 024c F4010000 		.4byte	0x1f4
 3067 0250 0E       		.uleb128 0xe
 3068 0251 85020000 		.4byte	.LASF44
 3069 0255 0C       		.byte	0xc
ARM GAS  C:\Users\IVYLIU~1\AppData\Local\Temp\ccWSfWRg.s 			page 69


 3070 0256 06       		.byte	0x6
 3071 0257 D1       		.byte	0xd1
 3072 0258 8D020000 		.4byte	0x28d
 3073 025c 0D       		.uleb128 0xd
 3074 025d A1060000 		.4byte	.LASF40
 3075 0261 06       		.byte	0x6
 3076 0262 D2       		.byte	0xd2
 3077 0263 57000000 		.4byte	0x57
 3078 0267 00       		.byte	0
 3079 0268 0D       		.uleb128 0xd
 3080 0269 65090000 		.4byte	.LASF41
 3081 026d 06       		.byte	0x6
 3082 026e D3       		.byte	0xd3
 3083 026f 57000000 		.4byte	0x57
 3084 0273 02       		.byte	0x2
 3085 0274 0D       		.uleb128 0xd
 3086 0275 72070000 		.4byte	.LASF42
 3087 0279 06       		.byte	0x6
 3088 027a D4       		.byte	0xd4
 3089 027b 8D020000 		.4byte	0x28d
 3090 027f 04       		.byte	0x4
 3091 0280 0D       		.uleb128 0xd
 3092 0281 9E000000 		.4byte	.LASF43
 3093 0285 06       		.byte	0x6
 3094 0286 D5       		.byte	0xd5
 3095 0287 98020000 		.4byte	0x298
 3096 028b 08       		.byte	0x8
 3097 028c 00       		.byte	0
 3098 028d 08       		.uleb128 0x8
 3099 028e 04       		.byte	0x4
 3100 028f 93020000 		.4byte	0x293
 3101 0293 09       		.uleb128 0x9
 3102 0294 E9010000 		.4byte	0x1e9
 3103 0298 08       		.uleb128 0x8
 3104 0299 04       		.byte	0x4
 3105 029a 9E020000 		.4byte	0x29e
 3106 029e 09       		.uleb128 0x9
 3107 029f 50020000 		.4byte	0x250
 3108 02a3 03       		.uleb128 0x3
 3109 02a4 85020000 		.4byte	.LASF44
 3110 02a8 06       		.byte	0x6
 3111 02a9 D6       		.byte	0xd6
 3112 02aa 50020000 		.4byte	0x250
 3113 02ae 0E       		.uleb128 0xe
 3114 02af D9000000 		.4byte	.LASF45
 3115 02b3 0C       		.byte	0xc
 3116 02b4 06       		.byte	0x6
 3117 02b5 D8       		.byte	0xd8
 3118 02b6 EB020000 		.4byte	0x2eb
 3119 02ba 0D       		.uleb128 0xd
 3120 02bb A1060000 		.4byte	.LASF40
 3121 02bf 06       		.byte	0x6
 3122 02c0 D9       		.byte	0xd9
 3123 02c1 57000000 		.4byte	0x57
 3124 02c5 00       		.byte	0
 3125 02c6 0D       		.uleb128 0xd
 3126 02c7 65090000 		.4byte	.LASF41
ARM GAS  C:\Users\IVYLIU~1\AppData\Local\Temp\ccWSfWRg.s 			page 70


 3127 02cb 06       		.byte	0x6
 3128 02cc DA       		.byte	0xda
 3129 02cd 57000000 		.4byte	0x57
 3130 02d1 02       		.byte	0x2
 3131 02d2 0D       		.uleb128 0xd
 3132 02d3 72070000 		.4byte	.LASF42
 3133 02d7 06       		.byte	0x6
 3134 02d8 DB       		.byte	0xdb
 3135 02d9 EB020000 		.4byte	0x2eb
 3136 02dd 04       		.byte	0x4
 3137 02de 0D       		.uleb128 0xd
 3138 02df 9E000000 		.4byte	.LASF43
 3139 02e3 06       		.byte	0x6
 3140 02e4 DC       		.byte	0xdc
 3141 02e5 F6020000 		.4byte	0x2f6
 3142 02e9 08       		.byte	0x8
 3143 02ea 00       		.byte	0
 3144 02eb 08       		.uleb128 0x8
 3145 02ec 04       		.byte	0x4
 3146 02ed F1020000 		.4byte	0x2f1
 3147 02f1 09       		.uleb128 0x9
 3148 02f2 45020000 		.4byte	0x245
 3149 02f6 08       		.uleb128 0x8
 3150 02f7 04       		.byte	0x4
 3151 02f8 FC020000 		.4byte	0x2fc
 3152 02fc 09       		.uleb128 0x9
 3153 02fd AE020000 		.4byte	0x2ae
 3154 0301 03       		.uleb128 0x3
 3155 0302 D9000000 		.4byte	.LASF45
 3156 0306 06       		.byte	0x6
 3157 0307 DD       		.byte	0xdd
 3158 0308 AE020000 		.4byte	0x2ae
 3159 030c 0B       		.uleb128 0xb
 3160 030d 14       		.byte	0x14
 3161 030e 06       		.byte	0x6
 3162 030f DF       		.byte	0xdf
 3163 0310 75030000 		.4byte	0x375
 3164 0314 0D       		.uleb128 0xd
 3165 0315 BE090000 		.4byte	.LASF34
 3166 0319 06       		.byte	0x6
 3167 031a E0       		.byte	0xe0
 3168 031b 26010000 		.4byte	0x126
 3169 031f 00       		.byte	0
 3170 0320 0D       		.uleb128 0xd
 3171 0321 78060000 		.4byte	.LASF46
 3172 0325 06       		.byte	0x6
 3173 0326 E1       		.byte	0xe1
 3174 0327 26010000 		.4byte	0x126
 3175 032b 04       		.byte	0x4
 3176 032c 0D       		.uleb128 0xd
 3177 032d D7040000 		.4byte	.LASF47
 3178 0331 06       		.byte	0x6
 3179 0332 E2       		.byte	0xe2
 3180 0333 75030000 		.4byte	0x375
 3181 0337 08       		.byte	0x8
 3182 0338 0D       		.uleb128 0xd
 3183 0339 5B090000 		.4byte	.LASF27
ARM GAS  C:\Users\IVYLIU~1\AppData\Local\Temp\ccWSfWRg.s 			page 71


 3184 033d 06       		.byte	0x6
 3185 033e E3       		.byte	0xe3
 3186 033f 57000000 		.4byte	0x57
 3187 0343 0C       		.byte	0xc
 3188 0344 0D       		.uleb128 0xd
 3189 0345 27020000 		.4byte	.LASF28
 3190 0349 06       		.byte	0x6
 3191 034a E4       		.byte	0xe4
 3192 034b 57000000 		.4byte	0x57
 3193 034f 0E       		.byte	0xe
 3194 0350 0D       		.uleb128 0xd
 3195 0351 FA080000 		.4byte	.LASF31
 3196 0355 06       		.byte	0x6
 3197 0356 E5       		.byte	0xe5
 3198 0357 3E000000 		.4byte	0x3e
 3199 035b 10       		.byte	0x10
 3200 035c 0D       		.uleb128 0xd
 3201 035d CA060000 		.4byte	.LASF32
 3202 0361 06       		.byte	0x6
 3203 0362 E6       		.byte	0xe6
 3204 0363 3E000000 		.4byte	0x3e
 3205 0367 11       		.byte	0x11
 3206 0368 0D       		.uleb128 0xd
 3207 0369 85050000 		.4byte	.LASF33
 3208 036d 06       		.byte	0x6
 3209 036e E7       		.byte	0xe7
 3210 036f 3E000000 		.4byte	0x3e
 3211 0373 12       		.byte	0x12
 3212 0374 00       		.byte	0
 3213 0375 08       		.uleb128 0x8
 3214 0376 04       		.byte	0x4
 3215 0377 7B030000 		.4byte	0x37b
 3216 037b 09       		.uleb128 0x9
 3217 037c A5010000 		.4byte	0x1a5
 3218 0380 03       		.uleb128 0x3
 3219 0381 B5050000 		.4byte	.LASF48
 3220 0385 06       		.byte	0x6
 3221 0386 E8       		.byte	0xe8
 3222 0387 0C030000 		.4byte	0x30c
 3223 038b 0B       		.uleb128 0xb
 3224 038c 06       		.byte	0x6
 3225 038d 06       		.byte	0x6
 3226 038e F1       		.byte	0xf1
 3227 038f C4030000 		.4byte	0x3c4
 3228 0393 0D       		.uleb128 0xd
 3229 0394 20080000 		.4byte	.LASF49
 3230 0398 06       		.byte	0x6
 3231 0399 F2       		.byte	0xf2
 3232 039a 57000000 		.4byte	0x57
 3233 039e 00       		.byte	0
 3234 039f 0D       		.uleb128 0xd
 3235 03a0 81040000 		.4byte	.LASF50
 3236 03a4 06       		.byte	0x6
 3237 03a5 F3       		.byte	0xf3
 3238 03a6 3E000000 		.4byte	0x3e
 3239 03aa 02       		.byte	0x2
 3240 03ab 0D       		.uleb128 0xd
ARM GAS  C:\Users\IVYLIU~1\AppData\Local\Temp\ccWSfWRg.s 			page 72


 3241 03ac F3000000 		.4byte	.LASF51
 3242 03b0 06       		.byte	0x6
 3243 03b1 F4       		.byte	0xf4
 3244 03b2 3E000000 		.4byte	0x3e
 3245 03b6 03       		.byte	0x3
 3246 03b7 0D       		.uleb128 0xd
 3247 03b8 DE040000 		.4byte	.LASF52
 3248 03bc 06       		.byte	0x6
 3249 03bd F5       		.byte	0xf5
 3250 03be 3E000000 		.4byte	0x3e
 3251 03c2 04       		.byte	0x4
 3252 03c3 00       		.byte	0
 3253 03c4 03       		.uleb128 0x3
 3254 03c5 AA040000 		.4byte	.LASF53
 3255 03c9 06       		.byte	0x6
 3256 03ca F6       		.byte	0xf6
 3257 03cb 8B030000 		.4byte	0x38b
 3258 03cf 05       		.uleb128 0x5
 3259 03d0 01030000 		.4byte	.LASF54
 3260 03d4 06       		.byte	0x6
 3261 03d5 1301     		.2byte	0x113
 3262 03d7 DB030000 		.4byte	0x3db
 3263 03db 0F       		.uleb128 0xf
 3264 03dc 90000000 		.4byte	0x90
 3265 03e0 EF030000 		.4byte	0x3ef
 3266 03e4 10       		.uleb128 0x10
 3267 03e5 10010000 		.4byte	0x110
 3268 03e9 10       		.uleb128 0x10
 3269 03ea 90000000 		.4byte	0x90
 3270 03ee 00       		.byte	0
 3271 03ef 05       		.uleb128 0x5
 3272 03f0 78030000 		.4byte	.LASF55
 3273 03f4 06       		.byte	0x6
 3274 03f5 1401     		.2byte	0x114
 3275 03f7 DB030000 		.4byte	0x3db
 3276 03fb 05       		.uleb128 0x5
 3277 03fc A7060000 		.4byte	.LASF56
 3278 0400 06       		.byte	0x6
 3279 0401 1501     		.2byte	0x115
 3280 0403 07040000 		.4byte	0x407
 3281 0407 11       		.uleb128 0x11
 3282 0408 17040000 		.4byte	0x417
 3283 040c 10       		.uleb128 0x10
 3284 040d 10010000 		.4byte	0x110
 3285 0411 10       		.uleb128 0x10
 3286 0412 90000000 		.4byte	0x90
 3287 0416 00       		.byte	0
 3288 0417 12       		.uleb128 0x12
 3289 0418 0C       		.byte	0xc
 3290 0419 06       		.byte	0x6
 3291 041a 1701     		.2byte	0x117
 3292 041c 48040000 		.4byte	0x448
 3293 0420 13       		.uleb128 0x13
 3294 0421 E4060000 		.4byte	.LASF57
 3295 0425 06       		.byte	0x6
 3296 0426 1801     		.2byte	0x118
 3297 0428 48040000 		.4byte	0x448
ARM GAS  C:\Users\IVYLIU~1\AppData\Local\Temp\ccWSfWRg.s 			page 73


 3298 042c 00       		.byte	0
 3299 042d 13       		.uleb128 0x13
 3300 042e 89080000 		.4byte	.LASF58
 3301 0432 06       		.byte	0x6
 3302 0433 1901     		.2byte	0x119
 3303 0435 4E040000 		.4byte	0x44e
 3304 0439 04       		.byte	0x4
 3305 043a 13       		.uleb128 0x13
 3306 043b 97070000 		.4byte	.LASF59
 3307 043f 06       		.byte	0x6
 3308 0440 1A01     		.2byte	0x11a
 3309 0442 54040000 		.4byte	0x454
 3310 0446 08       		.byte	0x8
 3311 0447 00       		.byte	0
 3312 0448 08       		.uleb128 0x8
 3313 0449 04       		.byte	0x4
 3314 044a CF030000 		.4byte	0x3cf
 3315 044e 08       		.uleb128 0x8
 3316 044f 04       		.byte	0x4
 3317 0450 EF030000 		.4byte	0x3ef
 3318 0454 08       		.uleb128 0x8
 3319 0455 04       		.byte	0x4
 3320 0456 FB030000 		.4byte	0x3fb
 3321 045a 05       		.uleb128 0x5
 3322 045b ED070000 		.4byte	.LASF60
 3323 045f 06       		.byte	0x6
 3324 0460 1B01     		.2byte	0x11b
 3325 0462 17040000 		.4byte	0x417
 3326 0466 05       		.uleb128 0x5
 3327 0467 6F030000 		.4byte	.LASF61
 3328 046b 06       		.byte	0x6
 3329 046c 2401     		.2byte	0x124
 3330 046e 72040000 		.4byte	0x472
 3331 0472 14       		.uleb128 0x14
 3332 0473 6F030000 		.4byte	.LASF61
 3333 0477 24       		.byte	0x24
 3334 0478 06       		.byte	0x6
 3335 0479 B101     		.2byte	0x1b1
 3336 047b 34050000 		.4byte	0x534
 3337 047f 13       		.uleb128 0x13
 3338 0480 EF020000 		.4byte	.LASF62
 3339 0484 06       		.byte	0x6
 3340 0485 B201     		.2byte	0x1b2
 3341 0487 3F060000 		.4byte	0x63f
 3342 048b 00       		.byte	0
 3343 048c 13       		.uleb128 0x13
 3344 048d D9050000 		.4byte	.LASF63
 3345 0491 06       		.byte	0x6
 3346 0492 B301     		.2byte	0x1b3
 3347 0494 45060000 		.4byte	0x645
 3348 0498 04       		.byte	0x4
 3349 0499 13       		.uleb128 0x13
 3350 049a 49020000 		.4byte	.LASF64
 3351 049e 06       		.byte	0x6
 3352 049f B401     		.2byte	0x1b4
 3353 04a1 4B060000 		.4byte	0x64b
 3354 04a5 08       		.byte	0x8
ARM GAS  C:\Users\IVYLIU~1\AppData\Local\Temp\ccWSfWRg.s 			page 74


 3355 04a6 13       		.uleb128 0x13
 3356 04a7 8C0A0000 		.4byte	.LASF65
 3357 04ab 06       		.byte	0x6
 3358 04ac B501     		.2byte	0x1b5
 3359 04ae 51060000 		.4byte	0x651
 3360 04b2 0C       		.byte	0xc
 3361 04b3 13       		.uleb128 0x13
 3362 04b4 B2010000 		.4byte	.LASF66
 3363 04b8 06       		.byte	0x6
 3364 04b9 B601     		.2byte	0x1b6
 3365 04bb 57060000 		.4byte	0x657
 3366 04bf 10       		.byte	0x10
 3367 04c0 13       		.uleb128 0x13
 3368 04c1 43080000 		.4byte	.LASF67
 3369 04c5 06       		.byte	0x6
 3370 04c6 B701     		.2byte	0x1b7
 3371 04c8 5D060000 		.4byte	0x65d
 3372 04cc 14       		.byte	0x14
 3373 04cd 13       		.uleb128 0x13
 3374 04ce 00090000 		.4byte	.LASF36
 3375 04d2 06       		.byte	0x6
 3376 04d3 B801     		.2byte	0x1b8
 3377 04d5 3E000000 		.4byte	0x3e
 3378 04d9 18       		.byte	0x18
 3379 04da 13       		.uleb128 0x13
 3380 04db 88030000 		.4byte	.LASF68
 3381 04df 06       		.byte	0x6
 3382 04e0 B901     		.2byte	0x1b9
 3383 04e2 3E000000 		.4byte	0x3e
 3384 04e6 19       		.byte	0x19
 3385 04e7 13       		.uleb128 0x13
 3386 04e8 DE030000 		.4byte	.LASF69
 3387 04ec 06       		.byte	0x6
 3388 04ed BA01     		.2byte	0x1ba
 3389 04ef 3E000000 		.4byte	0x3e
 3390 04f3 1A       		.byte	0x1a
 3391 04f4 13       		.uleb128 0x13
 3392 04f5 5E070000 		.4byte	.LASF70
 3393 04f9 06       		.byte	0x6
 3394 04fa BB01     		.2byte	0x1bb
 3395 04fc 3E000000 		.4byte	0x3e
 3396 0500 1B       		.byte	0x1b
 3397 0501 15       		.uleb128 0x15
 3398 0502 7000     		.ascii	"p\000"
 3399 0504 06       		.byte	0x6
 3400 0505 C101     		.2byte	0x1c1
 3401 0507 E4050000 		.4byte	0x5e4
 3402 050b 1C       		.byte	0x1c
 3403 050c 13       		.uleb128 0x13
 3404 050d 81040000 		.4byte	.LASF50
 3405 0511 06       		.byte	0x6
 3406 0512 C201     		.2byte	0x1c2
 3407 0514 3E000000 		.4byte	0x3e
 3408 0518 20       		.byte	0x20
 3409 0519 13       		.uleb128 0x13
 3410 051a F3000000 		.4byte	.LASF51
 3411 051e 06       		.byte	0x6
ARM GAS  C:\Users\IVYLIU~1\AppData\Local\Temp\ccWSfWRg.s 			page 75


 3412 051f C301     		.2byte	0x1c3
 3413 0521 3E000000 		.4byte	0x3e
 3414 0525 21       		.byte	0x21
 3415 0526 13       		.uleb128 0x13
 3416 0527 DE040000 		.4byte	.LASF52
 3417 052b 06       		.byte	0x6
 3418 052c C401     		.2byte	0x1c4
 3419 052e 3E000000 		.4byte	0x3e
 3420 0532 22       		.byte	0x22
 3421 0533 00       		.byte	0
 3422 0534 05       		.uleb128 0x5
 3423 0535 CA040000 		.4byte	.LASF71
 3424 0539 06       		.byte	0x6
 3425 053a 2601     		.2byte	0x126
 3426 053c 40050000 		.4byte	0x540
 3427 0540 11       		.uleb128 0x11
 3428 0541 4B050000 		.4byte	0x54b
 3429 0545 10       		.uleb128 0x10
 3430 0546 57000000 		.4byte	0x57
 3431 054a 00       		.byte	0
 3432 054b 05       		.uleb128 0x5
 3433 054c 1A040000 		.4byte	.LASF72
 3434 0550 06       		.byte	0x6
 3435 0551 2701     		.2byte	0x127
 3436 0553 57050000 		.4byte	0x557
 3437 0557 0F       		.uleb128 0xf
 3438 0558 90000000 		.4byte	0x90
 3439 055c 6B050000 		.4byte	0x56b
 3440 0560 10       		.uleb128 0x10
 3441 0561 57000000 		.4byte	0x57
 3442 0565 10       		.uleb128 0x10
 3443 0566 6B050000 		.4byte	0x56b
 3444 056a 00       		.byte	0
 3445 056b 08       		.uleb128 0x8
 3446 056c 04       		.byte	0x4
 3447 056d 90000000 		.4byte	0x90
 3448 0571 05       		.uleb128 0x5
 3449 0572 68050000 		.4byte	.LASF73
 3450 0576 06       		.byte	0x6
 3451 0577 2801     		.2byte	0x128
 3452 0579 7D050000 		.4byte	0x57d
 3453 057d 11       		.uleb128 0x11
 3454 057e 8D050000 		.4byte	0x58d
 3455 0582 10       		.uleb128 0x10
 3456 0583 8D050000 		.4byte	0x58d
 3457 0587 10       		.uleb128 0x10
 3458 0588 98050000 		.4byte	0x598
 3459 058c 00       		.byte	0
 3460 058d 08       		.uleb128 0x8
 3461 058e 04       		.byte	0x4
 3462 058f 93050000 		.4byte	0x593
 3463 0593 09       		.uleb128 0x9
 3464 0594 66040000 		.4byte	0x466
 3465 0598 08       		.uleb128 0x8
 3466 0599 04       		.byte	0x4
 3467 059a C4030000 		.4byte	0x3c4
 3468 059e 05       		.uleb128 0x5
ARM GAS  C:\Users\IVYLIU~1\AppData\Local\Temp\ccWSfWRg.s 			page 76


 3469 059f A5010000 		.4byte	.LASF74
 3470 05a3 06       		.byte	0x6
 3471 05a4 2901     		.2byte	0x129
 3472 05a6 AA050000 		.4byte	0x5aa
 3473 05aa 0F       		.uleb128 0xf
 3474 05ab F5000000 		.4byte	0xf5
 3475 05af BE050000 		.4byte	0x5be
 3476 05b3 10       		.uleb128 0x10
 3477 05b4 8D050000 		.4byte	0x58d
 3478 05b8 10       		.uleb128 0x10
 3479 05b9 57000000 		.4byte	0x57
 3480 05bd 00       		.byte	0
 3481 05be 05       		.uleb128 0x5
 3482 05bf 58030000 		.4byte	.LASF75
 3483 05c3 06       		.byte	0x6
 3484 05c4 2A01     		.2byte	0x12a
 3485 05c6 CA050000 		.4byte	0x5ca
 3486 05ca 0F       		.uleb128 0xf
 3487 05cb 90000000 		.4byte	0x90
 3488 05cf DE050000 		.4byte	0x5de
 3489 05d3 10       		.uleb128 0x10
 3490 05d4 57000000 		.4byte	0x57
 3491 05d8 10       		.uleb128 0x10
 3492 05d9 DE050000 		.4byte	0x5de
 3493 05dd 00       		.byte	0
 3494 05de 08       		.uleb128 0x8
 3495 05df 04       		.byte	0x4
 3496 05e0 45020000 		.4byte	0x245
 3497 05e4 16       		.uleb128 0x16
 3498 05e5 04       		.byte	0x4
 3499 05e6 06       		.byte	0x6
 3500 05e7 BC01     		.2byte	0x1bc
 3501 05e9 1E060000 		.4byte	0x61e
 3502 05ed 17       		.uleb128 0x17
 3503 05ee B7040000 		.4byte	.LASF76
 3504 05f2 06       		.byte	0x6
 3505 05f3 BD01     		.2byte	0x1bd
 3506 05f5 31010000 		.4byte	0x131
 3507 05f9 17       		.uleb128 0x17
 3508 05fa 970A0000 		.4byte	.LASF77
 3509 05fe 06       		.byte	0x6
 3510 05ff BE01     		.2byte	0x1be
 3511 0601 1E060000 		.4byte	0x61e
 3512 0605 17       		.uleb128 0x17
 3513 0606 2D030000 		.4byte	.LASF78
 3514 060a 06       		.byte	0x6
 3515 060b BF01     		.2byte	0x1bf
 3516 060d 29060000 		.4byte	0x629
 3517 0611 17       		.uleb128 0x17
 3518 0612 C9090000 		.4byte	.LASF79
 3519 0616 06       		.byte	0x6
 3520 0617 C001     		.2byte	0x1c0
 3521 0619 34060000 		.4byte	0x634
 3522 061d 00       		.byte	0
 3523 061e 08       		.uleb128 0x8
 3524 061f 04       		.byte	0x4
 3525 0620 24060000 		.4byte	0x624
ARM GAS  C:\Users\IVYLIU~1\AppData\Local\Temp\ccWSfWRg.s 			page 77


 3526 0624 09       		.uleb128 0x9
 3527 0625 80030000 		.4byte	0x380
 3528 0629 08       		.uleb128 0x8
 3529 062a 04       		.byte	0x4
 3530 062b 2F060000 		.4byte	0x62f
 3531 062f 09       		.uleb128 0x9
 3532 0630 A3020000 		.4byte	0x2a3
 3533 0634 08       		.uleb128 0x8
 3534 0635 04       		.byte	0x4
 3535 0636 3A060000 		.4byte	0x63a
 3536 063a 09       		.uleb128 0x9
 3537 063b 01030000 		.4byte	0x301
 3538 063f 08       		.uleb128 0x8
 3539 0640 04       		.byte	0x4
 3540 0641 34050000 		.4byte	0x534
 3541 0645 08       		.uleb128 0x8
 3542 0646 04       		.byte	0x4
 3543 0647 4B050000 		.4byte	0x54b
 3544 064b 08       		.uleb128 0x8
 3545 064c 04       		.byte	0x4
 3546 064d 71050000 		.4byte	0x571
 3547 0651 08       		.uleb128 0x8
 3548 0652 04       		.byte	0x4
 3549 0653 9E050000 		.4byte	0x59e
 3550 0657 08       		.uleb128 0x8
 3551 0658 04       		.byte	0x4
 3552 0659 BE050000 		.4byte	0x5be
 3553 065d 08       		.uleb128 0x8
 3554 065e 04       		.byte	0x4
 3555 065f 63060000 		.4byte	0x663
 3556 0663 09       		.uleb128 0x9
 3557 0664 5A040000 		.4byte	0x45a
 3558 0668 02       		.uleb128 0x2
 3559 0669 08       		.byte	0x8
 3560 066a 04       		.byte	0x4
 3561 066b A2070000 		.4byte	.LASF80
 3562 066f 05       		.uleb128 0x5
 3563 0670 96080000 		.4byte	.LASF81
 3564 0674 07       		.byte	0x7
 3565 0675 2F01     		.2byte	0x12f
 3566 0677 EE000000 		.4byte	0xee
 3567 067b 18       		.uleb128 0x18
 3568 067c 01       		.byte	0x1
 3569 067d 07       		.byte	0x7
 3570 067e 5802     		.2byte	0x258
 3571 0680 B5060000 		.4byte	0x6b5
 3572 0684 19       		.uleb128 0x19
 3573 0685 BF000000 		.4byte	.LASF82
 3574 0689 00       		.sleb128 0
 3575 068a 19       		.uleb128 0x19
 3576 068b 90090000 		.4byte	.LASF83
 3577 068f 7F       		.sleb128 -1
 3578 0690 19       		.uleb128 0x19
 3579 0691 ED050000 		.4byte	.LASF84
 3580 0695 7E       		.sleb128 -2
 3581 0696 19       		.uleb128 0x19
 3582 0697 09080000 		.4byte	.LASF85
ARM GAS  C:\Users\IVYLIU~1\AppData\Local\Temp\ccWSfWRg.s 			page 78


 3583 069b 7D       		.sleb128 -3
 3584 069c 19       		.uleb128 0x19
 3585 069d 64020000 		.4byte	.LASF86
 3586 06a1 7C       		.sleb128 -4
 3587 06a2 19       		.uleb128 0x19
 3588 06a3 26060000 		.4byte	.LASF87
 3589 06a7 7B       		.sleb128 -5
 3590 06a8 19       		.uleb128 0x19
 3591 06a9 94040000 		.4byte	.LASF88
 3592 06ad 7A       		.sleb128 -6
 3593 06ae 19       		.uleb128 0x19
 3594 06af 62040000 		.4byte	.LASF89
 3595 06b3 79       		.sleb128 -7
 3596 06b4 00       		.byte	0
 3597 06b5 05       		.uleb128 0x5
 3598 06b6 2F090000 		.4byte	.LASF90
 3599 06ba 07       		.byte	0x7
 3600 06bb 6102     		.2byte	0x261
 3601 06bd 7B060000 		.4byte	0x67b
 3602 06c1 08       		.uleb128 0x8
 3603 06c2 04       		.byte	0x4
 3604 06c3 6F060000 		.4byte	0x66f
 3605 06c7 08       		.uleb128 0x8
 3606 06c8 04       		.byte	0x4
 3607 06c9 CD060000 		.4byte	0x6cd
 3608 06cd 09       		.uleb128 0x9
 3609 06ce 6F060000 		.4byte	0x66f
 3610 06d2 08       		.uleb128 0x8
 3611 06d3 04       		.byte	0x4
 3612 06d4 D8060000 		.4byte	0x6d8
 3613 06d8 09       		.uleb128 0x9
 3614 06d9 A9000000 		.4byte	0xa9
 3615 06dd 12       		.uleb128 0x12
 3616 06de 10       		.byte	0x10
 3617 06df 08       		.byte	0x8
 3618 06e0 1101     		.2byte	0x111
 3619 06e2 1B070000 		.4byte	0x71b
 3620 06e6 13       		.uleb128 0x13
 3621 06e7 CD030000 		.4byte	.LASF91
 3622 06eb 08       		.byte	0x8
 3623 06ec 1301     		.2byte	0x113
 3624 06ee A9000000 		.4byte	0xa9
 3625 06f2 00       		.byte	0
 3626 06f3 13       		.uleb128 0x13
 3627 06f4 E1080000 		.4byte	.LASF92
 3628 06f8 08       		.byte	0x8
 3629 06f9 1401     		.2byte	0x114
 3630 06fb C7060000 		.4byte	0x6c7
 3631 06ff 04       		.byte	0x4
 3632 0700 13       		.uleb128 0x13
 3633 0701 D9020000 		.4byte	.LASF93
 3634 0705 08       		.byte	0x8
 3635 0706 1501     		.2byte	0x115
 3636 0708 D2060000 		.4byte	0x6d2
 3637 070c 08       		.byte	0x8
 3638 070d 13       		.uleb128 0x13
 3639 070e 94060000 		.4byte	.LASF94
ARM GAS  C:\Users\IVYLIU~1\AppData\Local\Temp\ccWSfWRg.s 			page 79


 3640 0712 08       		.byte	0x8
 3641 0713 1601     		.2byte	0x116
 3642 0715 A9000000 		.4byte	0xa9
 3643 0719 0C       		.byte	0xc
 3644 071a 00       		.byte	0
 3645 071b 05       		.uleb128 0x5
 3646 071c 00000000 		.4byte	.LASF95
 3647 0720 08       		.byte	0x8
 3648 0721 1F01     		.2byte	0x11f
 3649 0723 DD060000 		.4byte	0x6dd
 3650 0727 08       		.uleb128 0x8
 3651 0728 04       		.byte	0x4
 3652 0729 2D070000 		.4byte	0x72d
 3653 072d 09       		.uleb128 0x9
 3654 072e BF000000 		.4byte	0xbf
 3655 0732 1A       		.uleb128 0x1a
 3656 0733 42020000 		.4byte	.LASF205
 3657 0737 01       		.byte	0x1
 3658 0738 01       		.byte	0x1
 3659 0739 3F       		.byte	0x3f
 3660 073a 6F070000 		.4byte	0x76f
 3661 073e 19       		.uleb128 0x19
 3662 073f F4080000 		.4byte	.LASF96
 3663 0743 00       		.sleb128 0
 3664 0744 19       		.uleb128 0x19
 3665 0745 82010000 		.4byte	.LASF97
 3666 0749 01       		.sleb128 1
 3667 074a 19       		.uleb128 0x19
 3668 074b B8080000 		.4byte	.LASF98
 3669 074f 02       		.sleb128 2
 3670 0750 19       		.uleb128 0x19
 3671 0751 3A070000 		.4byte	.LASF99
 3672 0755 03       		.sleb128 3
 3673 0756 19       		.uleb128 0x19
 3674 0757 96030000 		.4byte	.LASF100
 3675 075b 04       		.sleb128 4
 3676 075c 19       		.uleb128 0x19
 3677 075d 3C000000 		.4byte	.LASF101
 3678 0761 05       		.sleb128 5
 3679 0762 19       		.uleb128 0x19
 3680 0763 83060000 		.4byte	.LASF102
 3681 0767 06       		.sleb128 6
 3682 0768 19       		.uleb128 0x19
 3683 0769 8F070000 		.4byte	.LASF103
 3684 076d 07       		.sleb128 7
 3685 076e 00       		.byte	0
 3686 076f 0E       		.uleb128 0xe
 3687 0770 26080000 		.4byte	.LASF104
 3688 0774 0C       		.byte	0xc
 3689 0775 01       		.byte	0x1
 3690 0776 4A       		.byte	0x4a
 3691 0777 A0070000 		.4byte	0x7a0
 3692 077b 0D       		.uleb128 0xd
 3693 077c 15040000 		.4byte	.LASF105
 3694 0780 01       		.byte	0x1
 3695 0781 4C       		.byte	0x4c
 3696 0782 10010000 		.4byte	0x110
ARM GAS  C:\Users\IVYLIU~1\AppData\Local\Temp\ccWSfWRg.s 			page 80


 3697 0786 00       		.byte	0
 3698 0787 0D       		.uleb128 0xd
 3699 0788 4D080000 		.4byte	.LASF106
 3700 078c 01       		.byte	0x1
 3701 078d 4D       		.byte	0x4d
 3702 078e 90000000 		.4byte	0x90
 3703 0792 04       		.byte	0x4
 3704 0793 0D       		.uleb128 0xd
 3705 0794 16000000 		.4byte	.LASF107
 3706 0798 01       		.byte	0x1
 3707 0799 4E       		.byte	0x4e
 3708 079a 90000000 		.4byte	0x90
 3709 079e 08       		.byte	0x8
 3710 079f 00       		.byte	0
 3711 07a0 0E       		.uleb128 0xe
 3712 07a1 AF030000 		.4byte	.LASF108
 3713 07a5 10       		.byte	0x10
 3714 07a6 01       		.byte	0x1
 3715 07a7 88       		.byte	0x88
 3716 07a8 DD070000 		.4byte	0x7dd
 3717 07ac 0D       		.uleb128 0xd
 3718 07ad 30000000 		.4byte	.LASF109
 3719 07b1 01       		.byte	0x1
 3720 07b2 8A       		.byte	0x8a
 3721 07b3 DD070000 		.4byte	0x7dd
 3722 07b7 00       		.byte	0
 3723 07b8 0D       		.uleb128 0xd
 3724 07b9 15040000 		.4byte	.LASF105
 3725 07bd 01       		.byte	0x1
 3726 07be 8B       		.byte	0x8b
 3727 07bf 10010000 		.4byte	0x110
 3728 07c3 04       		.byte	0x4
 3729 07c4 0D       		.uleb128 0xd
 3730 07c5 86070000 		.4byte	.LASF110
 3731 07c9 01       		.byte	0x1
 3732 07ca 8C       		.byte	0x8c
 3733 07cb E2070000 		.4byte	0x7e2
 3734 07cf 08       		.byte	0x8
 3735 07d0 0D       		.uleb128 0xd
 3736 07d1 77090000 		.4byte	.LASF111
 3737 07d5 01       		.byte	0x1
 3738 07d6 8D       		.byte	0x8d
 3739 07d7 DD070000 		.4byte	0x7dd
 3740 07db 0C       		.byte	0xc
 3741 07dc 00       		.byte	0
 3742 07dd 09       		.uleb128 0x9
 3743 07de 90000000 		.4byte	0x90
 3744 07e2 08       		.uleb128 0x8
 3745 07e3 04       		.byte	0x4
 3746 07e4 10010000 		.4byte	0x110
 3747 07e8 1B       		.uleb128 0x1b
 3748 07e9 31070000 		.4byte	.LASF206
 3749 07ed 01       		.byte	0x1
 3750 07ee F6       		.byte	0xf6
 3751 07ef 00000000 		.4byte	.LFB124
 3752 07f3 02000000 		.4byte	.LFE124-.LFB124
 3753 07f7 01       		.uleb128 0x1
ARM GAS  C:\Users\IVYLIU~1\AppData\Local\Temp\ccWSfWRg.s 			page 81


 3754 07f8 9C       		.byte	0x9c
 3755 07f9 1C       		.uleb128 0x1c
 3756 07fa AF080000 		.4byte	.LASF121
 3757 07fe 01       		.byte	0x1
 3758 07ff 0D01     		.2byte	0x10d
 3759 0801 00000000 		.4byte	.LFB125
 3760 0805 1C000000 		.4byte	.LFE125-.LFB125
 3761 0809 01       		.uleb128 0x1
 3762 080a 9C       		.byte	0x9c
 3763 080b 44080000 		.4byte	0x844
 3764 080f 1D       		.uleb128 0x1d
 3765 0810 6900     		.ascii	"i\000"
 3766 0812 01       		.byte	0x1
 3767 0813 0D01     		.2byte	0x10d
 3768 0815 90000000 		.4byte	0x90
 3769 0819 00000000 		.4byte	.LLST0
 3770 081d 1E       		.uleb128 0x1e
 3771 081e 7200     		.ascii	"r\000"
 3772 0820 01       		.byte	0x1
 3773 0821 0D01     		.2byte	0x10d
 3774 0823 90000000 		.4byte	0x90
 3775 0827 01       		.uleb128 0x1
 3776 0828 51       		.byte	0x51
 3777 0829 1D       		.uleb128 0x1d
 3778 082a 6700     		.ascii	"g\000"
 3779 082c 01       		.byte	0x1
 3780 082d 0D01     		.2byte	0x10d
 3781 082f 90000000 		.4byte	0x90
 3782 0833 21000000 		.4byte	.LLST1
 3783 0837 1E       		.uleb128 0x1e
 3784 0838 6200     		.ascii	"b\000"
 3785 083a 01       		.byte	0x1
 3786 083b 0D01     		.2byte	0x10d
 3787 083d 90000000 		.4byte	0x90
 3788 0841 01       		.uleb128 0x1
 3789 0842 53       		.byte	0x53
 3790 0843 00       		.byte	0
 3791 0844 1F       		.uleb128 0x1f
 3792 0845 89060000 		.4byte	.LASF114
 3793 0849 01       		.byte	0x1
 3794 084a 1601     		.2byte	0x116
 3795 084c 90000000 		.4byte	0x90
 3796 0850 00000000 		.4byte	.LFB126
 3797 0854 B0000000 		.4byte	.LFE126-.LFB126
 3798 0858 01       		.uleb128 0x1
 3799 0859 9C       		.byte	0x9c
 3800 085a 51090000 		.4byte	0x951
 3801 085e 20       		.uleb128 0x20
 3802 085f EA080000 		.4byte	.LASF112
 3803 0863 01       		.byte	0x1
 3804 0864 1701     		.2byte	0x117
 3805 0866 90000000 		.4byte	0x90
 3806 086a 42000000 		.4byte	.LLST2
 3807 086e 21       		.uleb128 0x21
 3808 086f 6900     		.ascii	"i\000"
 3809 0871 01       		.byte	0x1
 3810 0872 1801     		.2byte	0x118
ARM GAS  C:\Users\IVYLIU~1\AppData\Local\Temp\ccWSfWRg.s 			page 82


 3811 0874 A9000000 		.4byte	0xa9
 3812 0878 84000000 		.4byte	.LLST3
 3813 087c 22       		.uleb128 0x22
 3814 087d 4C000000 		.4byte	.LBB2
 3815 0881 48000000 		.4byte	.LBE2-.LBB2
 3816 0885 25090000 		.4byte	0x925
 3817 0889 23       		.uleb128 0x23
 3818 088a 46000000 		.4byte	.LASF113
 3819 088e 01       		.byte	0x1
 3820 088f 2A01     		.2byte	0x12a
 3821 0891 6F060000 		.4byte	0x66f
 3822 0895 02       		.uleb128 0x2
 3823 0896 91       		.byte	0x91
 3824 0897 64       		.sleb128 -28
 3825 0898 24       		.uleb128 0x24
 3826 0899 58000000 		.4byte	.LVL13
 3827 089d 4A290000 		.4byte	0x294a
 3828 08a1 AC080000 		.4byte	0x8ac
 3829 08a5 25       		.uleb128 0x25
 3830 08a6 01       		.uleb128 0x1
 3831 08a7 50       		.byte	0x50
 3832 08a8 02       		.uleb128 0x2
 3833 08a9 76       		.byte	0x76
 3834 08aa 00       		.sleb128 0
 3835 08ab 00       		.byte	0
 3836 08ac 24       		.uleb128 0x24
 3837 08ad 68000000 		.4byte	.LVL15
 3838 08b1 6B290000 		.4byte	0x296b
 3839 08b5 C6080000 		.4byte	0x8c6
 3840 08b9 25       		.uleb128 0x25
 3841 08ba 01       		.uleb128 0x1
 3842 08bb 51       		.byte	0x51
 3843 08bc 02       		.uleb128 0x2
 3844 08bd 77       		.byte	0x77
 3845 08be 00       		.sleb128 0
 3846 08bf 25       		.uleb128 0x25
 3847 08c0 01       		.uleb128 0x1
 3848 08c1 50       		.byte	0x50
 3849 08c2 02       		.uleb128 0x2
 3850 08c3 76       		.byte	0x76
 3851 08c4 00       		.sleb128 0
 3852 08c5 00       		.byte	0
 3853 08c6 24       		.uleb128 0x24
 3854 08c7 74000000 		.4byte	.LVL16
 3855 08cb 97290000 		.4byte	0x2997
 3856 08cf E0080000 		.4byte	0x8e0
 3857 08d3 25       		.uleb128 0x25
 3858 08d4 01       		.uleb128 0x1
 3859 08d5 51       		.byte	0x51
 3860 08d6 02       		.uleb128 0x2
 3861 08d7 76       		.byte	0x76
 3862 08d8 00       		.sleb128 0
 3863 08d9 25       		.uleb128 0x25
 3864 08da 01       		.uleb128 0x1
 3865 08db 50       		.byte	0x50
 3866 08dc 02       		.uleb128 0x2
 3867 08dd 77       		.byte	0x77
ARM GAS  C:\Users\IVYLIU~1\AppData\Local\Temp\ccWSfWRg.s 			page 83


 3868 08de 00       		.sleb128 0
 3869 08df 00       		.byte	0
 3870 08e0 24       		.uleb128 0x24
 3871 08e1 86000000 		.4byte	.LVL17
 3872 08e5 B2290000 		.4byte	0x29b2
 3873 08e9 00090000 		.4byte	0x900
 3874 08ed 25       		.uleb128 0x25
 3875 08ee 01       		.uleb128 0x1
 3876 08ef 53       		.byte	0x53
 3877 08f0 02       		.uleb128 0x2
 3878 08f1 75       		.byte	0x75
 3879 08f2 08       		.sleb128 8
 3880 08f3 25       		.uleb128 0x25
 3881 08f4 01       		.uleb128 0x1
 3882 08f5 52       		.byte	0x52
 3883 08f6 02       		.uleb128 0x2
 3884 08f7 91       		.byte	0x91
 3885 08f8 64       		.sleb128 -28
 3886 08f9 25       		.uleb128 0x25
 3887 08fa 01       		.uleb128 0x1
 3888 08fb 50       		.byte	0x50
 3889 08fc 02       		.uleb128 0x2
 3890 08fd 76       		.byte	0x76
 3891 08fe 00       		.sleb128 0
 3892 08ff 00       		.byte	0
 3893 0900 24       		.uleb128 0x24
 3894 0901 8C000000 		.4byte	.LVL18
 3895 0905 D3290000 		.4byte	0x29d3
 3896 0909 13090000 		.4byte	0x913
 3897 090d 25       		.uleb128 0x25
 3898 090e 01       		.uleb128 0x1
 3899 090f 50       		.byte	0x50
 3900 0910 01       		.uleb128 0x1
 3901 0911 30       		.byte	0x30
 3902 0912 00       		.byte	0
 3903 0913 26       		.uleb128 0x26
 3904 0914 94000000 		.4byte	.LVL19
 3905 0918 E4290000 		.4byte	0x29e4
 3906 091c 25       		.uleb128 0x25
 3907 091d 01       		.uleb128 0x1
 3908 091e 50       		.byte	0x50
 3909 091f 03       		.uleb128 0x3
 3910 0920 0A       		.byte	0xa
 3911 0921 9001     		.2byte	0x190
 3912 0923 00       		.byte	0
 3913 0924 00       		.byte	0
 3914 0925 24       		.uleb128 0x24
 3915 0926 0E000000 		.4byte	.LVL5
 3916 092a F5290000 		.4byte	0x29f5
 3917 092e 38090000 		.4byte	0x938
 3918 0932 25       		.uleb128 0x25
 3919 0933 01       		.uleb128 0x1
 3920 0934 50       		.byte	0x50
 3921 0935 01       		.uleb128 0x1
 3922 0936 30       		.byte	0x30
 3923 0937 00       		.byte	0
 3924 0938 27       		.uleb128 0x27
ARM GAS  C:\Users\IVYLIU~1\AppData\Local\Temp\ccWSfWRg.s 			page 84


 3925 0939 16000000 		.4byte	.LVL6
 3926 093d 0A2A0000 		.4byte	0x2a0a
 3927 0941 26       		.uleb128 0x26
 3928 0942 2E000000 		.4byte	.LVL7
 3929 0946 D3290000 		.4byte	0x29d3
 3930 094a 25       		.uleb128 0x25
 3931 094b 01       		.uleb128 0x1
 3932 094c 50       		.byte	0x50
 3933 094d 01       		.uleb128 0x1
 3934 094e 31       		.byte	0x31
 3935 094f 00       		.byte	0
 3936 0950 00       		.byte	0
 3937 0951 28       		.uleb128 0x28
 3938 0952 FD060000 		.4byte	.LASF115
 3939 0956 01       		.byte	0x1
 3940 0957 4001     		.2byte	0x140
 3941 0959 0A010000 		.4byte	0x10a
 3942 095d 00000000 		.4byte	.LFB127
 3943 0961 20000000 		.4byte	.LFE127-.LFB127
 3944 0965 01       		.uleb128 0x1
 3945 0966 9C       		.byte	0x9c
 3946 0967 9C090000 		.4byte	0x99c
 3947 096b 29       		.uleb128 0x29
 3948 096c B1090000 		.4byte	.LASF116
 3949 0970 01       		.byte	0x1
 3950 0971 4001     		.2byte	0x140
 3951 0973 90000000 		.4byte	0x90
 3952 0977 BA000000 		.4byte	.LLST4
 3953 097b 20       		.uleb128 0x20
 3954 097c C3050000 		.4byte	.LASF117
 3955 0980 01       		.byte	0x1
 3956 0981 4201     		.2byte	0x142
 3957 0983 9C090000 		.4byte	0x99c
 3958 0987 DB000000 		.4byte	.LLST5
 3959 098b 20       		.uleb128 0x20
 3960 098c D0060000 		.4byte	.LASF118
 3961 0990 01       		.byte	0x1
 3962 0991 4301     		.2byte	0x143
 3963 0993 10010000 		.4byte	0x110
 3964 0997 FE000000 		.4byte	.LLST6
 3965 099b 00       		.byte	0
 3966 099c 08       		.uleb128 0x8
 3967 099d 04       		.byte	0x4
 3968 099e 6F070000 		.4byte	0x76f
 3969 09a2 28       		.uleb128 0x28
 3970 09a3 7A0A0000 		.4byte	.LASF119
 3971 09a7 01       		.byte	0x1
 3972 09a8 8C01     		.2byte	0x18c
 3973 09aa 90000000 		.4byte	0x90
 3974 09ae 00000000 		.4byte	.LFB129
 3975 09b2 08010000 		.4byte	.LFE129-.LFB129
 3976 09b6 01       		.uleb128 0x1
 3977 09b7 9C       		.byte	0x9c
 3978 09b8 C10B0000 		.4byte	0xbc1
 3979 09bc 20       		.uleb128 0x20
 3980 09bd 13030000 		.4byte	.LASF120
 3981 09c1 01       		.byte	0x1
ARM GAS  C:\Users\IVYLIU~1\AppData\Local\Temp\ccWSfWRg.s 			page 85


 3982 09c2 9701     		.2byte	0x197
 3983 09c4 90000000 		.4byte	0x90
 3984 09c8 21010000 		.4byte	.LLST7
 3985 09cc 24       		.uleb128 0x24
 3986 09cd 0A000000 		.4byte	.LVL25
 3987 09d1 152A0000 		.4byte	0x2a15
 3988 09d5 E0090000 		.4byte	0x9e0
 3989 09d9 25       		.uleb128 0x25
 3990 09da 01       		.uleb128 0x1
 3991 09db 50       		.byte	0x50
 3992 09dc 02       		.uleb128 0x2
 3993 09dd 09       		.byte	0x9
 3994 09de FF       		.byte	0xff
 3995 09df 00       		.byte	0
 3996 09e0 24       		.uleb128 0x24
 3997 09e1 12000000 		.4byte	.LVL26
 3998 09e5 272A0000 		.4byte	0x2a27
 3999 09e9 F6090000 		.4byte	0x9f6
 4000 09ed 25       		.uleb128 0x25
 4001 09ee 01       		.uleb128 0x1
 4002 09ef 50       		.byte	0x50
 4003 09f0 04       		.uleb128 0x4
 4004 09f1 40       		.byte	0x40
 4005 09f2 44       		.byte	0x44
 4006 09f3 24       		.byte	0x24
 4007 09f4 1F       		.byte	0x1f
 4008 09f5 00       		.byte	0
 4009 09f6 24       		.uleb128 0x24
 4010 09f7 1A000000 		.4byte	.LVL27
 4011 09fb 392A0000 		.4byte	0x2a39
 4012 09ff 0A0A0000 		.4byte	0xa0a
 4013 0a03 25       		.uleb128 0x25
 4014 0a04 01       		.uleb128 0x1
 4015 0a05 50       		.byte	0x50
 4016 0a06 02       		.uleb128 0x2
 4017 0a07 75       		.byte	0x75
 4018 0a08 00       		.sleb128 0
 4019 0a09 00       		.byte	0
 4020 0a0a 24       		.uleb128 0x24
 4021 0a0b 20000000 		.4byte	.LVL28
 4022 0a0f 4F2A0000 		.4byte	0x2a4f
 4023 0a13 1D0A0000 		.4byte	0xa1d
 4024 0a17 25       		.uleb128 0x25
 4025 0a18 01       		.uleb128 0x1
 4026 0a19 50       		.byte	0x50
 4027 0a1a 01       		.uleb128 0x1
 4028 0a1b 32       		.byte	0x32
 4029 0a1c 00       		.byte	0
 4030 0a1d 24       		.uleb128 0x24
 4031 0a1e 26000000 		.4byte	.LVL29
 4032 0a22 652A0000 		.4byte	0x2a65
 4033 0a26 300A0000 		.4byte	0xa30
 4034 0a2a 25       		.uleb128 0x25
 4035 0a2b 01       		.uleb128 0x1
 4036 0a2c 50       		.byte	0x50
 4037 0a2d 01       		.uleb128 0x1
 4038 0a2e 3C       		.byte	0x3c
ARM GAS  C:\Users\IVYLIU~1\AppData\Local\Temp\ccWSfWRg.s 			page 86


 4039 0a2f 00       		.byte	0
 4040 0a30 27       		.uleb128 0x27
 4041 0a31 2A000000 		.4byte	.LVL30
 4042 0a35 7B2A0000 		.4byte	0x2a7b
 4043 0a39 24       		.uleb128 0x24
 4044 0a3a 32000000 		.4byte	.LVL31
 4045 0a3e 392A0000 		.4byte	0x2a39
 4046 0a42 4D0A0000 		.4byte	0xa4d
 4047 0a46 25       		.uleb128 0x25
 4048 0a47 01       		.uleb128 0x1
 4049 0a48 50       		.byte	0x50
 4050 0a49 02       		.uleb128 0x2
 4051 0a4a 74       		.byte	0x74
 4052 0a4b 00       		.sleb128 0
 4053 0a4c 00       		.byte	0
 4054 0a4d 24       		.uleb128 0x24
 4055 0a4e 3C000000 		.4byte	.LVL32
 4056 0a52 832A0000 		.4byte	0x2a83
 4057 0a56 6F0A0000 		.4byte	0xa6f
 4058 0a5a 25       		.uleb128 0x25
 4059 0a5b 01       		.uleb128 0x1
 4060 0a5c 52       		.byte	0x52
 4061 0a5d 01       		.uleb128 0x1
 4062 0a5e 44       		.byte	0x44
 4063 0a5f 25       		.uleb128 0x25
 4064 0a60 01       		.uleb128 0x1
 4065 0a61 51       		.byte	0x51
 4066 0a62 02       		.uleb128 0x2
 4067 0a63 08       		.byte	0x8
 4068 0a64 78       		.byte	0x78
 4069 0a65 25       		.uleb128 0x25
 4070 0a66 01       		.uleb128 0x1
 4071 0a67 50       		.byte	0x50
 4072 0a68 05       		.uleb128 0x5
 4073 0a69 03       		.byte	0x3
 4074 0a6a 14000000 		.4byte	.LC1
 4075 0a6e 00       		.byte	0
 4076 0a6f 24       		.uleb128 0x24
 4077 0a70 42000000 		.4byte	.LVL33
 4078 0a74 392A0000 		.4byte	0x2a39
 4079 0a78 830A0000 		.4byte	0xa83
 4080 0a7c 25       		.uleb128 0x25
 4081 0a7d 01       		.uleb128 0x1
 4082 0a7e 50       		.byte	0x50
 4083 0a7f 02       		.uleb128 0x2
 4084 0a80 75       		.byte	0x75
 4085 0a81 00       		.sleb128 0
 4086 0a82 00       		.byte	0
 4087 0a83 24       		.uleb128 0x24
 4088 0a84 4C000000 		.4byte	.LVL34
 4089 0a88 832A0000 		.4byte	0x2a83
 4090 0a8c A60A0000 		.4byte	0xaa6
 4091 0a90 25       		.uleb128 0x25
 4092 0a91 01       		.uleb128 0x1
 4093 0a92 52       		.byte	0x52
 4094 0a93 02       		.uleb128 0x2
 4095 0a94 08       		.byte	0x8
ARM GAS  C:\Users\IVYLIU~1\AppData\Local\Temp\ccWSfWRg.s 			page 87


 4096 0a95 3C       		.byte	0x3c
 4097 0a96 25       		.uleb128 0x25
 4098 0a97 01       		.uleb128 0x1
 4099 0a98 51       		.byte	0x51
 4100 0a99 02       		.uleb128 0x2
 4101 0a9a 08       		.byte	0x8
 4102 0a9b 78       		.byte	0x78
 4103 0a9c 25       		.uleb128 0x25
 4104 0a9d 01       		.uleb128 0x1
 4105 0a9e 50       		.byte	0x50
 4106 0a9f 05       		.uleb128 0x5
 4107 0aa0 03       		.byte	0x3
 4108 0aa1 24000000 		.4byte	.LC2
 4109 0aa5 00       		.byte	0
 4110 0aa6 24       		.uleb128 0x24
 4111 0aa7 56000000 		.4byte	.LVL35
 4112 0aab 832A0000 		.4byte	0x2a83
 4113 0aaf C90A0000 		.4byte	0xac9
 4114 0ab3 25       		.uleb128 0x25
 4115 0ab4 01       		.uleb128 0x1
 4116 0ab5 52       		.byte	0x52
 4117 0ab6 02       		.uleb128 0x2
 4118 0ab7 08       		.byte	0x8
 4119 0ab8 50       		.byte	0x50
 4120 0ab9 25       		.uleb128 0x25
 4121 0aba 01       		.uleb128 0x1
 4122 0abb 51       		.byte	0x51
 4123 0abc 02       		.uleb128 0x2
 4124 0abd 08       		.byte	0x8
 4125 0abe 78       		.byte	0x78
 4126 0abf 25       		.uleb128 0x25
 4127 0ac0 01       		.uleb128 0x1
 4128 0ac1 50       		.byte	0x50
 4129 0ac2 05       		.uleb128 0x5
 4130 0ac3 03       		.byte	0x3
 4131 0ac4 40000000 		.4byte	.LC3
 4132 0ac8 00       		.byte	0
 4133 0ac9 24       		.uleb128 0x24
 4134 0aca 5C000000 		.4byte	.LVL36
 4135 0ace 392A0000 		.4byte	0x2a39
 4136 0ad2 DD0A0000 		.4byte	0xadd
 4137 0ad6 25       		.uleb128 0x25
 4138 0ad7 01       		.uleb128 0x1
 4139 0ad8 50       		.byte	0x50
 4140 0ad9 02       		.uleb128 0x2
 4141 0ada 74       		.byte	0x74
 4142 0adb 00       		.sleb128 0
 4143 0adc 00       		.byte	0
 4144 0add 24       		.uleb128 0x24
 4145 0ade 6A000000 		.4byte	.LVL37
 4146 0ae2 832A0000 		.4byte	0x2a83
 4147 0ae6 F70A0000 		.4byte	0xaf7
 4148 0aea 25       		.uleb128 0x25
 4149 0aeb 01       		.uleb128 0x1
 4150 0aec 52       		.byte	0x52
 4151 0aed 02       		.uleb128 0x2
 4152 0aee 08       		.byte	0x8
ARM GAS  C:\Users\IVYLIU~1\AppData\Local\Temp\ccWSfWRg.s 			page 88


 4153 0aef A0       		.byte	0xa0
 4154 0af0 25       		.uleb128 0x25
 4155 0af1 01       		.uleb128 0x1
 4156 0af2 51       		.byte	0x51
 4157 0af3 02       		.uleb128 0x2
 4158 0af4 08       		.byte	0x8
 4159 0af5 78       		.byte	0x78
 4160 0af6 00       		.byte	0
 4161 0af7 27       		.uleb128 0x27
 4162 0af8 72000000 		.4byte	.LVL39
 4163 0afc 9F2A0000 		.4byte	0x2a9f
 4164 0b00 27       		.uleb128 0x27
 4165 0b01 8A000000 		.4byte	.LVL43
 4166 0b05 AA2A0000 		.4byte	0x2aaa
 4167 0b09 27       		.uleb128 0x27
 4168 0b0a 8E000000 		.4byte	.LVL44
 4169 0b0e 272A0000 		.4byte	0x2a27
 4170 0b12 24       		.uleb128 0x24
 4171 0b13 9C000000 		.4byte	.LVL45
 4172 0b17 B62A0000 		.4byte	0x2ab6
 4173 0b1b 380B0000 		.4byte	0xb38
 4174 0b1f 25       		.uleb128 0x25
 4175 0b20 01       		.uleb128 0x1
 4176 0b21 53       		.byte	0x53
 4177 0b22 03       		.uleb128 0x3
 4178 0b23 0A       		.byte	0xa
 4179 0b24 2C01     		.2byte	0x12c
 4180 0b26 25       		.uleb128 0x25
 4181 0b27 01       		.uleb128 0x1
 4182 0b28 52       		.byte	0x52
 4183 0b29 02       		.uleb128 0x2
 4184 0b2a 08       		.byte	0x8
 4185 0b2b F0       		.byte	0xf0
 4186 0b2c 25       		.uleb128 0x25
 4187 0b2d 01       		.uleb128 0x1
 4188 0b2e 51       		.byte	0x51
 4189 0b2f 02       		.uleb128 0x2
 4190 0b30 08       		.byte	0x8
 4191 0b31 64       		.byte	0x64
 4192 0b32 25       		.uleb128 0x25
 4193 0b33 01       		.uleb128 0x1
 4194 0b34 50       		.byte	0x50
 4195 0b35 01       		.uleb128 0x1
 4196 0b36 30       		.byte	0x30
 4197 0b37 00       		.byte	0
 4198 0b38 24       		.uleb128 0x24
 4199 0b39 A4000000 		.4byte	.LVL46
 4200 0b3d 272A0000 		.4byte	0x2a27
 4201 0b41 4E0B0000 		.4byte	0xb4e
 4202 0b45 25       		.uleb128 0x25
 4203 0b46 01       		.uleb128 0x1
 4204 0b47 50       		.byte	0x50
 4205 0b48 04       		.uleb128 0x4
 4206 0b49 40       		.byte	0x40
 4207 0b4a 44       		.byte	0x44
 4208 0b4b 24       		.byte	0x24
 4209 0b4c 1F       		.byte	0x1f
ARM GAS  C:\Users\IVYLIU~1\AppData\Local\Temp\ccWSfWRg.s 			page 89


 4210 0b4d 00       		.byte	0
 4211 0b4e 24       		.uleb128 0x24
 4212 0b4f B6000000 		.4byte	.LVL48
 4213 0b53 832A0000 		.4byte	0x2a83
 4214 0b57 680B0000 		.4byte	0xb68
 4215 0b5b 25       		.uleb128 0x25
 4216 0b5c 01       		.uleb128 0x1
 4217 0b5d 52       		.byte	0x52
 4218 0b5e 02       		.uleb128 0x2
 4219 0b5f 08       		.byte	0x8
 4220 0b60 A0       		.byte	0xa0
 4221 0b61 25       		.uleb128 0x25
 4222 0b62 01       		.uleb128 0x1
 4223 0b63 51       		.byte	0x51
 4224 0b64 02       		.uleb128 0x2
 4225 0b65 08       		.byte	0x8
 4226 0b66 78       		.byte	0x78
 4227 0b67 00       		.byte	0
 4228 0b68 27       		.uleb128 0x27
 4229 0b69 BA000000 		.4byte	.LVL49
 4230 0b6d D72A0000 		.4byte	0x2ad7
 4231 0b71 27       		.uleb128 0x27
 4232 0b72 C4000000 		.4byte	.LVL50
 4233 0b76 7B2A0000 		.4byte	0x2a7b
 4234 0b7a 27       		.uleb128 0x27
 4235 0b7b C8000000 		.4byte	.LVL51
 4236 0b7f D72A0000 		.4byte	0x2ad7
 4237 0b83 27       		.uleb128 0x27
 4238 0b84 D2000000 		.4byte	.LVL52
 4239 0b88 392A0000 		.4byte	0x2a39
 4240 0b8c 24       		.uleb128 0x24
 4241 0b8d DC000000 		.4byte	.LVL53
 4242 0b91 832A0000 		.4byte	0x2a83
 4243 0b95 AF0B0000 		.4byte	0xbaf
 4244 0b99 25       		.uleb128 0x25
 4245 0b9a 01       		.uleb128 0x1
 4246 0b9b 52       		.byte	0x52
 4247 0b9c 02       		.uleb128 0x2
 4248 0b9d 08       		.byte	0x8
 4249 0b9e A0       		.byte	0xa0
 4250 0b9f 25       		.uleb128 0x25
 4251 0ba0 01       		.uleb128 0x1
 4252 0ba1 51       		.byte	0x51
 4253 0ba2 02       		.uleb128 0x2
 4254 0ba3 08       		.byte	0x8
 4255 0ba4 78       		.byte	0x78
 4256 0ba5 25       		.uleb128 0x25
 4257 0ba6 01       		.uleb128 0x1
 4258 0ba7 50       		.byte	0x50
 4259 0ba8 05       		.uleb128 0x5
 4260 0ba9 03       		.byte	0x3
 4261 0baa 60000000 		.4byte	.LC4
 4262 0bae 00       		.byte	0
 4263 0baf 26       		.uleb128 0x26
 4264 0bb0 E4000000 		.4byte	.LVL54
 4265 0bb4 E4290000 		.4byte	0x29e4
 4266 0bb8 25       		.uleb128 0x25
ARM GAS  C:\Users\IVYLIU~1\AppData\Local\Temp\ccWSfWRg.s 			page 90


 4267 0bb9 01       		.uleb128 0x1
 4268 0bba 50       		.byte	0x50
 4269 0bbb 03       		.uleb128 0x3
 4270 0bbc 0A       		.byte	0xa
 4271 0bbd F401     		.2byte	0x1f4
 4272 0bbf 00       		.byte	0
 4273 0bc0 00       		.byte	0
 4274 0bc1 1C       		.uleb128 0x1c
 4275 0bc2 61010000 		.4byte	.LASF122
 4276 0bc6 01       		.byte	0x1
 4277 0bc7 B901     		.2byte	0x1b9
 4278 0bc9 00000000 		.4byte	.LFB130
 4279 0bcd 3C000000 		.4byte	.LFE130-.LFB130
 4280 0bd1 01       		.uleb128 0x1
 4281 0bd2 9C       		.byte	0x9c
 4282 0bd3 590C0000 		.4byte	0xc59
 4283 0bd7 24       		.uleb128 0x24
 4284 0bd8 0A000000 		.4byte	.LVL56
 4285 0bdc 152A0000 		.4byte	0x2a15
 4286 0be0 EB0B0000 		.4byte	0xbeb
 4287 0be4 25       		.uleb128 0x25
 4288 0be5 01       		.uleb128 0x1
 4289 0be6 50       		.byte	0x50
 4290 0be7 02       		.uleb128 0x2
 4291 0be8 09       		.byte	0x9
 4292 0be9 FF       		.byte	0xff
 4293 0bea 00       		.byte	0
 4294 0beb 24       		.uleb128 0x24
 4295 0bec 12000000 		.4byte	.LVL57
 4296 0bf0 272A0000 		.4byte	0x2a27
 4297 0bf4 010C0000 		.4byte	0xc01
 4298 0bf8 25       		.uleb128 0x25
 4299 0bf9 01       		.uleb128 0x1
 4300 0bfa 50       		.byte	0x50
 4301 0bfb 04       		.uleb128 0x4
 4302 0bfc 40       		.byte	0x40
 4303 0bfd 44       		.byte	0x44
 4304 0bfe 24       		.byte	0x24
 4305 0bff 1F       		.byte	0x1f
 4306 0c00 00       		.byte	0
 4307 0c01 27       		.uleb128 0x27
 4308 0c02 18000000 		.4byte	.LVL58
 4309 0c06 392A0000 		.4byte	0x2a39
 4310 0c0a 24       		.uleb128 0x24
 4311 0c0b 1E000000 		.4byte	.LVL59
 4312 0c0f 4F2A0000 		.4byte	0x2a4f
 4313 0c13 1D0C0000 		.4byte	0xc1d
 4314 0c17 25       		.uleb128 0x25
 4315 0c18 01       		.uleb128 0x1
 4316 0c19 50       		.byte	0x50
 4317 0c1a 01       		.uleb128 0x1
 4318 0c1b 32       		.byte	0x32
 4319 0c1c 00       		.byte	0
 4320 0c1d 24       		.uleb128 0x24
 4321 0c1e 24000000 		.4byte	.LVL60
 4322 0c22 652A0000 		.4byte	0x2a65
 4323 0c26 300C0000 		.4byte	0xc30
ARM GAS  C:\Users\IVYLIU~1\AppData\Local\Temp\ccWSfWRg.s 			page 91


 4324 0c2a 25       		.uleb128 0x25
 4325 0c2b 01       		.uleb128 0x1
 4326 0c2c 50       		.byte	0x50
 4327 0c2d 01       		.uleb128 0x1
 4328 0c2e 3C       		.byte	0x3c
 4329 0c2f 00       		.byte	0
 4330 0c30 27       		.uleb128 0x27
 4331 0c31 28000000 		.4byte	.LVL61
 4332 0c35 7B2A0000 		.4byte	0x2a7b
 4333 0c39 26       		.uleb128 0x26
 4334 0c3a 32000000 		.4byte	.LVL62
 4335 0c3e 832A0000 		.4byte	0x2a83
 4336 0c42 25       		.uleb128 0x25
 4337 0c43 01       		.uleb128 0x1
 4338 0c44 52       		.byte	0x52
 4339 0c45 02       		.uleb128 0x2
 4340 0c46 08       		.byte	0x8
 4341 0c47 78       		.byte	0x78
 4342 0c48 25       		.uleb128 0x25
 4343 0c49 01       		.uleb128 0x1
 4344 0c4a 51       		.byte	0x51
 4345 0c4b 02       		.uleb128 0x2
 4346 0c4c 08       		.byte	0x8
 4347 0c4d 78       		.byte	0x78
 4348 0c4e 25       		.uleb128 0x25
 4349 0c4f 01       		.uleb128 0x1
 4350 0c50 50       		.byte	0x50
 4351 0c51 05       		.uleb128 0x5
 4352 0c52 03       		.byte	0x3
 4353 0c53 70000000 		.4byte	.LC5
 4354 0c57 00       		.byte	0
 4355 0c58 00       		.byte	0
 4356 0c59 1C       		.uleb128 0x1c
 4357 0c5a 2B040000 		.4byte	.LASF123
 4358 0c5e 01       		.byte	0x1
 4359 0c5f C701     		.2byte	0x1c7
 4360 0c61 00000000 		.4byte	.LFB131
 4361 0c65 A0000000 		.4byte	.LFE131-.LFB131
 4362 0c69 01       		.uleb128 0x1
 4363 0c6a 9C       		.byte	0x9c
 4364 0c6b E90D0000 		.4byte	0xde9
 4365 0c6f 24       		.uleb128 0x24
 4366 0c70 0C000000 		.4byte	.LVL63
 4367 0c74 152A0000 		.4byte	0x2a15
 4368 0c78 830C0000 		.4byte	0xc83
 4369 0c7c 25       		.uleb128 0x25
 4370 0c7d 01       		.uleb128 0x1
 4371 0c7e 50       		.byte	0x50
 4372 0c7f 02       		.uleb128 0x2
 4373 0c80 09       		.byte	0x9
 4374 0c81 FF       		.byte	0xff
 4375 0c82 00       		.byte	0
 4376 0c83 24       		.uleb128 0x24
 4377 0c84 14000000 		.4byte	.LVL64
 4378 0c88 272A0000 		.4byte	0x2a27
 4379 0c8c 990C0000 		.4byte	0xc99
 4380 0c90 25       		.uleb128 0x25
ARM GAS  C:\Users\IVYLIU~1\AppData\Local\Temp\ccWSfWRg.s 			page 92


 4381 0c91 01       		.uleb128 0x1
 4382 0c92 50       		.byte	0x50
 4383 0c93 04       		.uleb128 0x4
 4384 0c94 40       		.byte	0x40
 4385 0c95 44       		.byte	0x44
 4386 0c96 24       		.byte	0x24
 4387 0c97 1F       		.byte	0x1f
 4388 0c98 00       		.byte	0
 4389 0c99 27       		.uleb128 0x27
 4390 0c9a 1A000000 		.4byte	.LVL65
 4391 0c9e 392A0000 		.4byte	0x2a39
 4392 0ca2 24       		.uleb128 0x24
 4393 0ca3 20000000 		.4byte	.LVL66
 4394 0ca7 4F2A0000 		.4byte	0x2a4f
 4395 0cab B50C0000 		.4byte	0xcb5
 4396 0caf 25       		.uleb128 0x25
 4397 0cb0 01       		.uleb128 0x1
 4398 0cb1 50       		.byte	0x50
 4399 0cb2 01       		.uleb128 0x1
 4400 0cb3 32       		.byte	0x32
 4401 0cb4 00       		.byte	0
 4402 0cb5 24       		.uleb128 0x24
 4403 0cb6 26000000 		.4byte	.LVL67
 4404 0cba 652A0000 		.4byte	0x2a65
 4405 0cbe C80C0000 		.4byte	0xcc8
 4406 0cc2 25       		.uleb128 0x25
 4407 0cc3 01       		.uleb128 0x1
 4408 0cc4 50       		.byte	0x50
 4409 0cc5 01       		.uleb128 0x1
 4410 0cc6 3C       		.byte	0x3c
 4411 0cc7 00       		.byte	0
 4412 0cc8 27       		.uleb128 0x27
 4413 0cc9 2A000000 		.4byte	.LVL68
 4414 0ccd 7B2A0000 		.4byte	0x2a7b
 4415 0cd1 24       		.uleb128 0x24
 4416 0cd2 34000000 		.4byte	.LVL69
 4417 0cd6 832A0000 		.4byte	0x2a83
 4418 0cda F40C0000 		.4byte	0xcf4
 4419 0cde 25       		.uleb128 0x25
 4420 0cdf 01       		.uleb128 0x1
 4421 0ce0 52       		.byte	0x52
 4422 0ce1 02       		.uleb128 0x2
 4423 0ce2 08       		.byte	0x8
 4424 0ce3 28       		.byte	0x28
 4425 0ce4 25       		.uleb128 0x25
 4426 0ce5 01       		.uleb128 0x1
 4427 0ce6 51       		.byte	0x51
 4428 0ce7 02       		.uleb128 0x2
 4429 0ce8 08       		.byte	0x8
 4430 0ce9 78       		.byte	0x78
 4431 0cea 25       		.uleb128 0x25
 4432 0ceb 01       		.uleb128 0x1
 4433 0cec 50       		.byte	0x50
 4434 0ced 05       		.uleb128 0x5
 4435 0cee 03       		.byte	0x3
 4436 0cef B0000000 		.4byte	.LC6
 4437 0cf3 00       		.byte	0
ARM GAS  C:\Users\IVYLIU~1\AppData\Local\Temp\ccWSfWRg.s 			page 93


 4438 0cf4 24       		.uleb128 0x24
 4439 0cf5 3C000000 		.4byte	.LVL70
 4440 0cf9 272A0000 		.4byte	0x2a27
 4441 0cfd 0B0D0000 		.4byte	0xd0b
 4442 0d01 25       		.uleb128 0x25
 4443 0d02 01       		.uleb128 0x1
 4444 0d03 50       		.byte	0x50
 4445 0d04 05       		.uleb128 0x5
 4446 0d05 11       		.byte	0x11
 4447 0d06 80FE8378 		.sleb128 -16711936
 4448 0d0a 00       		.byte	0
 4449 0d0b 24       		.uleb128 0x24
 4450 0d0c 4C000000 		.4byte	.LVL71
 4451 0d10 E22A0000 		.4byte	0x2ae2
 4452 0d14 380D0000 		.4byte	0xd38
 4453 0d18 25       		.uleb128 0x25
 4454 0d19 01       		.uleb128 0x1
 4455 0d1a 53       		.byte	0x53
 4456 0d1b 02       		.uleb128 0x2
 4457 0d1c 08       		.byte	0x8
 4458 0d1d C8       		.byte	0xc8
 4459 0d1e 25       		.uleb128 0x25
 4460 0d1f 01       		.uleb128 0x1
 4461 0d20 52       		.byte	0x52
 4462 0d21 02       		.uleb128 0x2
 4463 0d22 08       		.byte	0x8
 4464 0d23 C8       		.byte	0xc8
 4465 0d24 25       		.uleb128 0x25
 4466 0d25 01       		.uleb128 0x1
 4467 0d26 51       		.byte	0x51
 4468 0d27 02       		.uleb128 0x2
 4469 0d28 08       		.byte	0x8
 4470 0d29 78       		.byte	0x78
 4471 0d2a 25       		.uleb128 0x25
 4472 0d2b 01       		.uleb128 0x1
 4473 0d2c 50       		.byte	0x50
 4474 0d2d 02       		.uleb128 0x2
 4475 0d2e 08       		.byte	0x8
 4476 0d2f 28       		.byte	0x28
 4477 0d30 25       		.uleb128 0x25
 4478 0d31 02       		.uleb128 0x2
 4479 0d32 7D       		.byte	0x7d
 4480 0d33 00       		.sleb128 0
 4481 0d34 02       		.uleb128 0x2
 4482 0d35 74       		.byte	0x74
 4483 0d36 00       		.sleb128 0
 4484 0d37 00       		.byte	0
 4485 0d38 24       		.uleb128 0x24
 4486 0d39 54000000 		.4byte	.LVL72
 4487 0d3d 272A0000 		.4byte	0x2a27
 4488 0d41 4C0D0000 		.4byte	0xd4c
 4489 0d45 25       		.uleb128 0x25
 4490 0d46 01       		.uleb128 0x1
 4491 0d47 50       		.byte	0x50
 4492 0d48 02       		.uleb128 0x2
 4493 0d49 09       		.byte	0x9
 4494 0d4a FF       		.byte	0xff
ARM GAS  C:\Users\IVYLIU~1\AppData\Local\Temp\ccWSfWRg.s 			page 94


 4495 0d4b 00       		.byte	0
 4496 0d4c 24       		.uleb128 0x24
 4497 0d4d 5E000000 		.4byte	.LVL73
 4498 0d51 832A0000 		.4byte	0x2a83
 4499 0d55 6F0D0000 		.4byte	0xd6f
 4500 0d59 25       		.uleb128 0x25
 4501 0d5a 01       		.uleb128 0x1
 4502 0d5b 52       		.byte	0x52
 4503 0d5c 02       		.uleb128 0x2
 4504 0d5d 08       		.byte	0x8
 4505 0d5e A0       		.byte	0xa0
 4506 0d5f 25       		.uleb128 0x25
 4507 0d60 01       		.uleb128 0x1
 4508 0d61 51       		.byte	0x51
 4509 0d62 02       		.uleb128 0x2
 4510 0d63 08       		.byte	0x8
 4511 0d64 78       		.byte	0x78
 4512 0d65 25       		.uleb128 0x25
 4513 0d66 01       		.uleb128 0x1
 4514 0d67 50       		.byte	0x50
 4515 0d68 05       		.uleb128 0x5
 4516 0d69 03       		.byte	0x3
 4517 0d6a C8000000 		.4byte	.LC7
 4518 0d6e 00       		.byte	0
 4519 0d6f 24       		.uleb128 0x24
 4520 0d70 64000000 		.4byte	.LVL74
 4521 0d74 272A0000 		.4byte	0x2a27
 4522 0d78 860D0000 		.4byte	0xd86
 4523 0d7c 25       		.uleb128 0x25
 4524 0d7d 01       		.uleb128 0x1
 4525 0d7e 50       		.byte	0x50
 4526 0d7f 05       		.uleb128 0x5
 4527 0d80 11       		.byte	0x11
 4528 0d81 FF818078 		.sleb128 -16776961
 4529 0d85 00       		.byte	0
 4530 0d86 24       		.uleb128 0x24
 4531 0d87 74000000 		.4byte	.LVL75
 4532 0d8b E22A0000 		.4byte	0x2ae2
 4533 0d8f B40D0000 		.4byte	0xdb4
 4534 0d93 25       		.uleb128 0x25
 4535 0d94 01       		.uleb128 0x1
 4536 0d95 53       		.byte	0x53
 4537 0d96 03       		.uleb128 0x3
 4538 0d97 0A       		.byte	0xa
 4539 0d98 2C01     		.2byte	0x12c
 4540 0d9a 25       		.uleb128 0x25
 4541 0d9b 01       		.uleb128 0x1
 4542 0d9c 52       		.byte	0x52
 4543 0d9d 02       		.uleb128 0x2
 4544 0d9e 08       		.byte	0x8
 4545 0d9f C8       		.byte	0xc8
 4546 0da0 25       		.uleb128 0x25
 4547 0da1 01       		.uleb128 0x1
 4548 0da2 51       		.byte	0x51
 4549 0da3 02       		.uleb128 0x2
 4550 0da4 08       		.byte	0x8
 4551 0da5 DC       		.byte	0xdc
ARM GAS  C:\Users\IVYLIU~1\AppData\Local\Temp\ccWSfWRg.s 			page 95


 4552 0da6 25       		.uleb128 0x25
 4553 0da7 01       		.uleb128 0x1
 4554 0da8 50       		.byte	0x50
 4555 0da9 02       		.uleb128 0x2
 4556 0daa 08       		.byte	0x8
 4557 0dab 28       		.byte	0x28
 4558 0dac 25       		.uleb128 0x25
 4559 0dad 02       		.uleb128 0x2
 4560 0dae 7D       		.byte	0x7d
 4561 0daf 00       		.sleb128 0
 4562 0db0 02       		.uleb128 0x2
 4563 0db1 74       		.byte	0x74
 4564 0db2 00       		.sleb128 0
 4565 0db3 00       		.byte	0
 4566 0db4 24       		.uleb128 0x24
 4567 0db5 7C000000 		.4byte	.LVL76
 4568 0db9 272A0000 		.4byte	0x2a27
 4569 0dbd C80D0000 		.4byte	0xdc8
 4570 0dc1 25       		.uleb128 0x25
 4571 0dc2 01       		.uleb128 0x1
 4572 0dc3 50       		.byte	0x50
 4573 0dc4 02       		.uleb128 0x2
 4574 0dc5 09       		.byte	0x9
 4575 0dc6 FF       		.byte	0xff
 4576 0dc7 00       		.byte	0
 4577 0dc8 26       		.uleb128 0x26
 4578 0dc9 88000000 		.4byte	.LVL77
 4579 0dcd 832A0000 		.4byte	0x2a83
 4580 0dd1 25       		.uleb128 0x25
 4581 0dd2 01       		.uleb128 0x1
 4582 0dd3 52       		.byte	0x52
 4583 0dd4 03       		.uleb128 0x3
 4584 0dd5 0A       		.byte	0xa
 4585 0dd6 0401     		.2byte	0x104
 4586 0dd8 25       		.uleb128 0x25
 4587 0dd9 01       		.uleb128 0x1
 4588 0dda 51       		.byte	0x51
 4589 0ddb 02       		.uleb128 0x2
 4590 0ddc 08       		.byte	0x8
 4591 0ddd 78       		.byte	0x78
 4592 0dde 25       		.uleb128 0x25
 4593 0ddf 01       		.uleb128 0x1
 4594 0de0 50       		.byte	0x50
 4595 0de1 05       		.uleb128 0x5
 4596 0de2 03       		.byte	0x3
 4597 0de3 D0000000 		.4byte	.LC8
 4598 0de7 00       		.byte	0
 4599 0de8 00       		.byte	0
 4600 0de9 1C       		.uleb128 0x1c
 4601 0dea 7D070000 		.4byte	.LASF124
 4602 0dee 01       		.byte	0x1
 4603 0def E001     		.2byte	0x1e0
 4604 0df1 00000000 		.4byte	.LFB132
 4605 0df5 28070000 		.4byte	.LFE132-.LFB132
 4606 0df9 01       		.uleb128 0x1
 4607 0dfa 9C       		.byte	0x9c
 4608 0dfb A7200000 		.4byte	0x20a7
ARM GAS  C:\Users\IVYLIU~1\AppData\Local\Temp\ccWSfWRg.s 			page 96


 4609 0dff 29       		.uleb128 0x29
 4610 0e00 24090000 		.4byte	.LASF125
 4611 0e04 01       		.byte	0x1
 4612 0e05 E001     		.2byte	0x1e0
 4613 0e07 0A010000 		.4byte	0x10a
 4614 0e0b 79010000 		.4byte	.LLST8
 4615 0e0f 2A       		.uleb128 0x2a
 4616 0e10 19020000 		.4byte	.LASF126
 4617 0e14 01       		.byte	0x1
 4618 0e15 E601     		.2byte	0x1e6
 4619 0e17 90000000 		.4byte	0x90
 4620 0e1b 78       		.byte	0x78
 4621 0e1c 2A       		.uleb128 0x2a
 4622 0e1d 20020000 		.4byte	.LASF127
 4623 0e21 01       		.byte	0x1
 4624 0e22 E701     		.2byte	0x1e7
 4625 0e24 90000000 		.4byte	0x90
 4626 0e28 F0       		.byte	0xf0
 4627 0e29 27       		.uleb128 0x27
 4628 0e2a 0A000000 		.4byte	.LVL80
 4629 0e2e 392A0000 		.4byte	0x2a39
 4630 0e32 24       		.uleb128 0x24
 4631 0e33 10000000 		.4byte	.LVL81
 4632 0e37 4F2A0000 		.4byte	0x2a4f
 4633 0e3b 450E0000 		.4byte	0xe45
 4634 0e3f 25       		.uleb128 0x25
 4635 0e40 01       		.uleb128 0x1
 4636 0e41 50       		.byte	0x50
 4637 0e42 01       		.uleb128 0x1
 4638 0e43 32       		.byte	0x32
 4639 0e44 00       		.byte	0
 4640 0e45 24       		.uleb128 0x24
 4641 0e46 16000000 		.4byte	.LVL82
 4642 0e4a 652A0000 		.4byte	0x2a65
 4643 0e4e 580E0000 		.4byte	0xe58
 4644 0e52 25       		.uleb128 0x25
 4645 0e53 01       		.uleb128 0x1
 4646 0e54 50       		.byte	0x50
 4647 0e55 01       		.uleb128 0x1
 4648 0e56 3E       		.byte	0x3e
 4649 0e57 00       		.byte	0
 4650 0e58 24       		.uleb128 0x24
 4651 0e59 1E000000 		.4byte	.LVL83
 4652 0e5d 082B0000 		.4byte	0x2b08
 4653 0e61 750E0000 		.4byte	0xe75
 4654 0e65 25       		.uleb128 0x25
 4655 0e66 01       		.uleb128 0x1
 4656 0e67 51       		.byte	0x51
 4657 0e68 05       		.uleb128 0x5
 4658 0e69 03       		.byte	0x3
 4659 0e6a DC000000 		.4byte	.LC9
 4660 0e6e 25       		.uleb128 0x25
 4661 0e6f 01       		.uleb128 0x1
 4662 0e70 50       		.byte	0x50
 4663 0e71 02       		.uleb128 0x2
 4664 0e72 74       		.byte	0x74
 4665 0e73 00       		.sleb128 0
ARM GAS  C:\Users\IVYLIU~1\AppData\Local\Temp\ccWSfWRg.s 			page 97


 4666 0e74 00       		.byte	0
 4667 0e75 24       		.uleb128 0x24
 4668 0e76 2C000000 		.4byte	.LVL84
 4669 0e7a 222B0000 		.4byte	0x2b22
 4670 0e7e 980E0000 		.4byte	0xe98
 4671 0e82 25       		.uleb128 0x25
 4672 0e83 01       		.uleb128 0x1
 4673 0e84 53       		.byte	0x53
 4674 0e85 01       		.uleb128 0x1
 4675 0e86 38       		.byte	0x38
 4676 0e87 25       		.uleb128 0x25
 4677 0e88 01       		.uleb128 0x1
 4678 0e89 52       		.byte	0x52
 4679 0e8a 01       		.uleb128 0x1
 4680 0e8b 3C       		.byte	0x3c
 4681 0e8c 25       		.uleb128 0x25
 4682 0e8d 01       		.uleb128 0x1
 4683 0e8e 51       		.byte	0x51
 4684 0e8f 01       		.uleb128 0x1
 4685 0e90 3D       		.byte	0x3d
 4686 0e91 25       		.uleb128 0x25
 4687 0e92 01       		.uleb128 0x1
 4688 0e93 50       		.byte	0x50
 4689 0e94 02       		.uleb128 0x2
 4690 0e95 08       		.byte	0x8
 4691 0e96 78       		.byte	0x78
 4692 0e97 00       		.byte	0
 4693 0e98 24       		.uleb128 0x24
 4694 0e99 36000000 		.4byte	.LVL85
 4695 0e9d 432B0000 		.4byte	0x2b43
 4696 0ea1 BB0E0000 		.4byte	0xebb
 4697 0ea5 25       		.uleb128 0x25
 4698 0ea6 01       		.uleb128 0x1
 4699 0ea7 52       		.byte	0x52
 4700 0ea8 02       		.uleb128 0x2
 4701 0ea9 08       		.byte	0x8
 4702 0eaa F0       		.byte	0xf0
 4703 0eab 25       		.uleb128 0x25
 4704 0eac 01       		.uleb128 0x1
 4705 0ead 51       		.byte	0x51
 4706 0eae 02       		.uleb128 0x2
 4707 0eaf 08       		.byte	0x8
 4708 0eb0 78       		.byte	0x78
 4709 0eb1 25       		.uleb128 0x25
 4710 0eb2 01       		.uleb128 0x1
 4711 0eb3 50       		.byte	0x50
 4712 0eb4 05       		.uleb128 0x5
 4713 0eb5 03       		.byte	0x3
 4714 0eb6 DC000000 		.4byte	.LC9
 4715 0eba 00       		.byte	0
 4716 0ebb 24       		.uleb128 0x24
 4717 0ebc 40000000 		.4byte	.LVL87
 4718 0ec0 082B0000 		.4byte	0x2b08
 4719 0ec4 D80E0000 		.4byte	0xed8
 4720 0ec8 25       		.uleb128 0x25
 4721 0ec9 01       		.uleb128 0x1
 4722 0eca 51       		.byte	0x51
ARM GAS  C:\Users\IVYLIU~1\AppData\Local\Temp\ccWSfWRg.s 			page 98


 4723 0ecb 05       		.uleb128 0x5
 4724 0ecc 03       		.byte	0x3
 4725 0ecd E0000000 		.4byte	.LC10
 4726 0ed1 25       		.uleb128 0x25
 4727 0ed2 01       		.uleb128 0x1
 4728 0ed3 50       		.byte	0x50
 4729 0ed4 02       		.uleb128 0x2
 4730 0ed5 74       		.byte	0x74
 4731 0ed6 00       		.sleb128 0
 4732 0ed7 00       		.byte	0
 4733 0ed8 24       		.uleb128 0x24
 4734 0ed9 4E000000 		.4byte	.LVL88
 4735 0edd 222B0000 		.4byte	0x2b22
 4736 0ee1 FB0E0000 		.4byte	0xefb
 4737 0ee5 25       		.uleb128 0x25
 4738 0ee6 01       		.uleb128 0x1
 4739 0ee7 53       		.byte	0x53
 4740 0ee8 01       		.uleb128 0x1
 4741 0ee9 38       		.byte	0x38
 4742 0eea 25       		.uleb128 0x25
 4743 0eeb 01       		.uleb128 0x1
 4744 0eec 52       		.byte	0x52
 4745 0eed 01       		.uleb128 0x1
 4746 0eee 3C       		.byte	0x3c
 4747 0eef 25       		.uleb128 0x25
 4748 0ef0 01       		.uleb128 0x1
 4749 0ef1 51       		.byte	0x51
 4750 0ef2 01       		.uleb128 0x1
 4751 0ef3 44       		.byte	0x44
 4752 0ef4 25       		.uleb128 0x25
 4753 0ef5 01       		.uleb128 0x1
 4754 0ef6 50       		.byte	0x50
 4755 0ef7 02       		.uleb128 0x2
 4756 0ef8 08       		.byte	0x8
 4757 0ef9 78       		.byte	0x78
 4758 0efa 00       		.byte	0
 4759 0efb 24       		.uleb128 0x24
 4760 0efc 58000000 		.4byte	.LVL89
 4761 0f00 432B0000 		.4byte	0x2b43
 4762 0f04 1E0F0000 		.4byte	0xf1e
 4763 0f08 25       		.uleb128 0x25
 4764 0f09 01       		.uleb128 0x1
 4765 0f0a 52       		.byte	0x52
 4766 0f0b 02       		.uleb128 0x2
 4767 0f0c 08       		.byte	0x8
 4768 0f0d F0       		.byte	0xf0
 4769 0f0e 25       		.uleb128 0x25
 4770 0f0f 01       		.uleb128 0x1
 4771 0f10 51       		.byte	0x51
 4772 0f11 02       		.uleb128 0x2
 4773 0f12 08       		.byte	0x8
 4774 0f13 78       		.byte	0x78
 4775 0f14 25       		.uleb128 0x25
 4776 0f15 01       		.uleb128 0x1
 4777 0f16 50       		.byte	0x50
 4778 0f17 05       		.uleb128 0x5
 4779 0f18 03       		.byte	0x3
ARM GAS  C:\Users\IVYLIU~1\AppData\Local\Temp\ccWSfWRg.s 			page 99


 4780 0f19 E0000000 		.4byte	.LC10
 4781 0f1d 00       		.byte	0
 4782 0f1e 27       		.uleb128 0x27
 4783 0f1f 5E000000 		.4byte	.LVL90
 4784 0f23 392A0000 		.4byte	0x2a39
 4785 0f27 24       		.uleb128 0x24
 4786 0f28 68000000 		.4byte	.LVL91
 4787 0f2c 432B0000 		.4byte	0x2b43
 4788 0f30 490F0000 		.4byte	0xf49
 4789 0f34 25       		.uleb128 0x25
 4790 0f35 01       		.uleb128 0x1
 4791 0f36 52       		.byte	0x52
 4792 0f37 01       		.uleb128 0x1
 4793 0f38 44       		.byte	0x44
 4794 0f39 25       		.uleb128 0x25
 4795 0f3a 01       		.uleb128 0x1
 4796 0f3b 51       		.byte	0x51
 4797 0f3c 02       		.uleb128 0x2
 4798 0f3d 08       		.byte	0x8
 4799 0f3e 90       		.byte	0x90
 4800 0f3f 25       		.uleb128 0x25
 4801 0f40 01       		.uleb128 0x1
 4802 0f41 50       		.byte	0x50
 4803 0f42 05       		.uleb128 0x5
 4804 0f43 03       		.byte	0x3
 4805 0f44 E4000000 		.4byte	.LC11
 4806 0f48 00       		.byte	0
 4807 0f49 24       		.uleb128 0x24
 4808 0f4a 72000000 		.4byte	.LVL93
 4809 0f4e 082B0000 		.4byte	0x2b08
 4810 0f52 660F0000 		.4byte	0xf66
 4811 0f56 25       		.uleb128 0x25
 4812 0f57 01       		.uleb128 0x1
 4813 0f58 51       		.byte	0x51
 4814 0f59 05       		.uleb128 0x5
 4815 0f5a 03       		.byte	0x3
 4816 0f5b E8000000 		.4byte	.LC12
 4817 0f5f 25       		.uleb128 0x25
 4818 0f60 01       		.uleb128 0x1
 4819 0f61 50       		.byte	0x50
 4820 0f62 02       		.uleb128 0x2
 4821 0f63 74       		.byte	0x74
 4822 0f64 00       		.sleb128 0
 4823 0f65 00       		.byte	0
 4824 0f66 24       		.uleb128 0x24
 4825 0f67 80000000 		.4byte	.LVL94
 4826 0f6b 222B0000 		.4byte	0x2b22
 4827 0f6f 890F0000 		.4byte	0xf89
 4828 0f73 25       		.uleb128 0x25
 4829 0f74 01       		.uleb128 0x1
 4830 0f75 53       		.byte	0x53
 4831 0f76 01       		.uleb128 0x1
 4832 0f77 38       		.byte	0x38
 4833 0f78 25       		.uleb128 0x25
 4834 0f79 01       		.uleb128 0x1
 4835 0f7a 52       		.byte	0x52
 4836 0f7b 01       		.uleb128 0x1
ARM GAS  C:\Users\IVYLIU~1\AppData\Local\Temp\ccWSfWRg.s 			page 100


 4837 0f7c 3C       		.byte	0x3c
 4838 0f7d 25       		.uleb128 0x25
 4839 0f7e 01       		.uleb128 0x1
 4840 0f7f 51       		.byte	0x51
 4841 0f80 01       		.uleb128 0x1
 4842 0f81 44       		.byte	0x44
 4843 0f82 25       		.uleb128 0x25
 4844 0f83 01       		.uleb128 0x1
 4845 0f84 50       		.byte	0x50
 4846 0f85 02       		.uleb128 0x2
 4847 0f86 08       		.byte	0x8
 4848 0f87 78       		.byte	0x78
 4849 0f88 00       		.byte	0
 4850 0f89 24       		.uleb128 0x24
 4851 0f8a 8A000000 		.4byte	.LVL95
 4852 0f8e 432B0000 		.4byte	0x2b43
 4853 0f92 AC0F0000 		.4byte	0xfac
 4854 0f96 25       		.uleb128 0x25
 4855 0f97 01       		.uleb128 0x1
 4856 0f98 52       		.byte	0x52
 4857 0f99 02       		.uleb128 0x2
 4858 0f9a 08       		.byte	0x8
 4859 0f9b F0       		.byte	0xf0
 4860 0f9c 25       		.uleb128 0x25
 4861 0f9d 01       		.uleb128 0x1
 4862 0f9e 51       		.byte	0x51
 4863 0f9f 02       		.uleb128 0x2
 4864 0fa0 08       		.byte	0x8
 4865 0fa1 78       		.byte	0x78
 4866 0fa2 25       		.uleb128 0x25
 4867 0fa3 01       		.uleb128 0x1
 4868 0fa4 50       		.byte	0x50
 4869 0fa5 05       		.uleb128 0x5
 4870 0fa6 03       		.byte	0x3
 4871 0fa7 E8000000 		.4byte	.LC12
 4872 0fab 00       		.byte	0
 4873 0fac 24       		.uleb128 0x24
 4874 0fad 94000000 		.4byte	.LVL97
 4875 0fb1 082B0000 		.4byte	0x2b08
 4876 0fb5 C90F0000 		.4byte	0xfc9
 4877 0fb9 25       		.uleb128 0x25
 4878 0fba 01       		.uleb128 0x1
 4879 0fbb 51       		.byte	0x51
 4880 0fbc 05       		.uleb128 0x5
 4881 0fbd 03       		.byte	0x3
 4882 0fbe EC000000 		.4byte	.LC13
 4883 0fc2 25       		.uleb128 0x25
 4884 0fc3 01       		.uleb128 0x1
 4885 0fc4 50       		.byte	0x50
 4886 0fc5 02       		.uleb128 0x2
 4887 0fc6 74       		.byte	0x74
 4888 0fc7 00       		.sleb128 0
 4889 0fc8 00       		.byte	0
 4890 0fc9 24       		.uleb128 0x24
 4891 0fca A2000000 		.4byte	.LVL98
 4892 0fce 222B0000 		.4byte	0x2b22
 4893 0fd2 EC0F0000 		.4byte	0xfec
ARM GAS  C:\Users\IVYLIU~1\AppData\Local\Temp\ccWSfWRg.s 			page 101


 4894 0fd6 25       		.uleb128 0x25
 4895 0fd7 01       		.uleb128 0x1
 4896 0fd8 53       		.byte	0x53
 4897 0fd9 01       		.uleb128 0x1
 4898 0fda 38       		.byte	0x38
 4899 0fdb 25       		.uleb128 0x25
 4900 0fdc 01       		.uleb128 0x1
 4901 0fdd 52       		.byte	0x52
 4902 0fde 01       		.uleb128 0x1
 4903 0fdf 3C       		.byte	0x3c
 4904 0fe0 25       		.uleb128 0x25
 4905 0fe1 01       		.uleb128 0x1
 4906 0fe2 51       		.byte	0x51
 4907 0fe3 01       		.uleb128 0x1
 4908 0fe4 4B       		.byte	0x4b
 4909 0fe5 25       		.uleb128 0x25
 4910 0fe6 01       		.uleb128 0x1
 4911 0fe7 50       		.byte	0x50
 4912 0fe8 02       		.uleb128 0x2
 4913 0fe9 08       		.byte	0x8
 4914 0fea 78       		.byte	0x78
 4915 0feb 00       		.byte	0
 4916 0fec 24       		.uleb128 0x24
 4917 0fed AC000000 		.4byte	.LVL99
 4918 0ff1 432B0000 		.4byte	0x2b43
 4919 0ff5 0F100000 		.4byte	0x100f
 4920 0ff9 25       		.uleb128 0x25
 4921 0ffa 01       		.uleb128 0x1
 4922 0ffb 52       		.byte	0x52
 4923 0ffc 02       		.uleb128 0x2
 4924 0ffd 08       		.byte	0x8
 4925 0ffe F0       		.byte	0xf0
 4926 0fff 25       		.uleb128 0x25
 4927 1000 01       		.uleb128 0x1
 4928 1001 51       		.byte	0x51
 4929 1002 02       		.uleb128 0x2
 4930 1003 08       		.byte	0x8
 4931 1004 78       		.byte	0x78
 4932 1005 25       		.uleb128 0x25
 4933 1006 01       		.uleb128 0x1
 4934 1007 50       		.byte	0x50
 4935 1008 05       		.uleb128 0x5
 4936 1009 03       		.byte	0x3
 4937 100a EC000000 		.4byte	.LC13
 4938 100e 00       		.byte	0
 4939 100f 24       		.uleb128 0x24
 4940 1010 B6000000 		.4byte	.LVL101
 4941 1014 082B0000 		.4byte	0x2b08
 4942 1018 2C100000 		.4byte	0x102c
 4943 101c 25       		.uleb128 0x25
 4944 101d 01       		.uleb128 0x1
 4945 101e 51       		.byte	0x51
 4946 101f 05       		.uleb128 0x5
 4947 1020 03       		.byte	0x3
 4948 1021 F0000000 		.4byte	.LC14
 4949 1025 25       		.uleb128 0x25
 4950 1026 01       		.uleb128 0x1
ARM GAS  C:\Users\IVYLIU~1\AppData\Local\Temp\ccWSfWRg.s 			page 102


 4951 1027 50       		.byte	0x50
 4952 1028 02       		.uleb128 0x2
 4953 1029 74       		.byte	0x74
 4954 102a 00       		.sleb128 0
 4955 102b 00       		.byte	0
 4956 102c 24       		.uleb128 0x24
 4957 102d C4000000 		.4byte	.LVL102
 4958 1031 222B0000 		.4byte	0x2b22
 4959 1035 50100000 		.4byte	0x1050
 4960 1039 25       		.uleb128 0x25
 4961 103a 01       		.uleb128 0x1
 4962 103b 53       		.byte	0x53
 4963 103c 01       		.uleb128 0x1
 4964 103d 38       		.byte	0x38
 4965 103e 25       		.uleb128 0x25
 4966 103f 01       		.uleb128 0x1
 4967 1040 52       		.byte	0x52
 4968 1041 01       		.uleb128 0x1
 4969 1042 3C       		.byte	0x3c
 4970 1043 25       		.uleb128 0x25
 4971 1044 01       		.uleb128 0x1
 4972 1045 51       		.byte	0x51
 4973 1046 02       		.uleb128 0x2
 4974 1047 08       		.byte	0x8
 4975 1048 23       		.byte	0x23
 4976 1049 25       		.uleb128 0x25
 4977 104a 01       		.uleb128 0x1
 4978 104b 50       		.byte	0x50
 4979 104c 02       		.uleb128 0x2
 4980 104d 08       		.byte	0x8
 4981 104e 78       		.byte	0x78
 4982 104f 00       		.byte	0
 4983 1050 24       		.uleb128 0x24
 4984 1051 CE000000 		.4byte	.LVL103
 4985 1055 432B0000 		.4byte	0x2b43
 4986 1059 73100000 		.4byte	0x1073
 4987 105d 25       		.uleb128 0x25
 4988 105e 01       		.uleb128 0x1
 4989 105f 52       		.byte	0x52
 4990 1060 02       		.uleb128 0x2
 4991 1061 08       		.byte	0x8
 4992 1062 F0       		.byte	0xf0
 4993 1063 25       		.uleb128 0x25
 4994 1064 01       		.uleb128 0x1
 4995 1065 51       		.byte	0x51
 4996 1066 02       		.uleb128 0x2
 4997 1067 08       		.byte	0x8
 4998 1068 78       		.byte	0x78
 4999 1069 25       		.uleb128 0x25
 5000 106a 01       		.uleb128 0x1
 5001 106b 50       		.byte	0x50
 5002 106c 05       		.uleb128 0x5
 5003 106d 03       		.byte	0x3
 5004 106e F0000000 		.4byte	.LC14
 5005 1072 00       		.byte	0
 5006 1073 27       		.uleb128 0x27
 5007 1074 D4000000 		.4byte	.LVL104
ARM GAS  C:\Users\IVYLIU~1\AppData\Local\Temp\ccWSfWRg.s 			page 103


 5008 1078 392A0000 		.4byte	0x2a39
 5009 107c 24       		.uleb128 0x24
 5010 107d DE000000 		.4byte	.LVL105
 5011 1081 432B0000 		.4byte	0x2b43
 5012 1085 9F100000 		.4byte	0x109f
 5013 1089 25       		.uleb128 0x25
 5014 108a 01       		.uleb128 0x1
 5015 108b 52       		.byte	0x52
 5016 108c 02       		.uleb128 0x2
 5017 108d 08       		.byte	0x8
 5018 108e 23       		.byte	0x23
 5019 108f 25       		.uleb128 0x25
 5020 1090 01       		.uleb128 0x1
 5021 1091 51       		.byte	0x51
 5022 1092 02       		.uleb128 0x2
 5023 1093 08       		.byte	0x8
 5024 1094 90       		.byte	0x90
 5025 1095 25       		.uleb128 0x25
 5026 1096 01       		.uleb128 0x1
 5027 1097 50       		.byte	0x50
 5028 1098 05       		.uleb128 0x5
 5029 1099 03       		.byte	0x3
 5030 109a E4000000 		.4byte	.LC11
 5031 109e 00       		.byte	0
 5032 109f 24       		.uleb128 0x24
 5033 10a0 E8000000 		.4byte	.LVL107
 5034 10a4 082B0000 		.4byte	0x2b08
 5035 10a8 BC100000 		.4byte	0x10bc
 5036 10ac 25       		.uleb128 0x25
 5037 10ad 01       		.uleb128 0x1
 5038 10ae 51       		.byte	0x51
 5039 10af 05       		.uleb128 0x5
 5040 10b0 03       		.byte	0x3
 5041 10b1 F4000000 		.4byte	.LC15
 5042 10b5 25       		.uleb128 0x25
 5043 10b6 01       		.uleb128 0x1
 5044 10b7 50       		.byte	0x50
 5045 10b8 02       		.uleb128 0x2
 5046 10b9 74       		.byte	0x74
 5047 10ba 00       		.sleb128 0
 5048 10bb 00       		.byte	0
 5049 10bc 24       		.uleb128 0x24
 5050 10bd F6000000 		.4byte	.LVL108
 5051 10c1 222B0000 		.4byte	0x2b22
 5052 10c5 E0100000 		.4byte	0x10e0
 5053 10c9 25       		.uleb128 0x25
 5054 10ca 01       		.uleb128 0x1
 5055 10cb 53       		.byte	0x53
 5056 10cc 01       		.uleb128 0x1
 5057 10cd 38       		.byte	0x38
 5058 10ce 25       		.uleb128 0x25
 5059 10cf 01       		.uleb128 0x1
 5060 10d0 52       		.byte	0x52
 5061 10d1 01       		.uleb128 0x1
 5062 10d2 3C       		.byte	0x3c
 5063 10d3 25       		.uleb128 0x25
 5064 10d4 01       		.uleb128 0x1
ARM GAS  C:\Users\IVYLIU~1\AppData\Local\Temp\ccWSfWRg.s 			page 104


 5065 10d5 51       		.byte	0x51
 5066 10d6 02       		.uleb128 0x2
 5067 10d7 08       		.byte	0x8
 5068 10d8 23       		.byte	0x23
 5069 10d9 25       		.uleb128 0x25
 5070 10da 01       		.uleb128 0x1
 5071 10db 50       		.byte	0x50
 5072 10dc 02       		.uleb128 0x2
 5073 10dd 08       		.byte	0x8
 5074 10de 78       		.byte	0x78
 5075 10df 00       		.byte	0
 5076 10e0 24       		.uleb128 0x24
 5077 10e1 00010000 		.4byte	.LVL109
 5078 10e5 432B0000 		.4byte	0x2b43
 5079 10e9 03110000 		.4byte	0x1103
 5080 10ed 25       		.uleb128 0x25
 5081 10ee 01       		.uleb128 0x1
 5082 10ef 52       		.byte	0x52
 5083 10f0 02       		.uleb128 0x2
 5084 10f1 08       		.byte	0x8
 5085 10f2 F0       		.byte	0xf0
 5086 10f3 25       		.uleb128 0x25
 5087 10f4 01       		.uleb128 0x1
 5088 10f5 51       		.byte	0x51
 5089 10f6 02       		.uleb128 0x2
 5090 10f7 08       		.byte	0x8
 5091 10f8 78       		.byte	0x78
 5092 10f9 25       		.uleb128 0x25
 5093 10fa 01       		.uleb128 0x1
 5094 10fb 50       		.byte	0x50
 5095 10fc 05       		.uleb128 0x5
 5096 10fd 03       		.byte	0x3
 5097 10fe F4000000 		.4byte	.LC15
 5098 1102 00       		.byte	0
 5099 1103 24       		.uleb128 0x24
 5100 1104 0A010000 		.4byte	.LVL111
 5101 1108 082B0000 		.4byte	0x2b08
 5102 110c 20110000 		.4byte	0x1120
 5103 1110 25       		.uleb128 0x25
 5104 1111 01       		.uleb128 0x1
 5105 1112 51       		.byte	0x51
 5106 1113 05       		.uleb128 0x5
 5107 1114 03       		.byte	0x3
 5108 1115 F8000000 		.4byte	.LC16
 5109 1119 25       		.uleb128 0x25
 5110 111a 01       		.uleb128 0x1
 5111 111b 50       		.byte	0x50
 5112 111c 02       		.uleb128 0x2
 5113 111d 74       		.byte	0x74
 5114 111e 00       		.sleb128 0
 5115 111f 00       		.byte	0
 5116 1120 24       		.uleb128 0x24
 5117 1121 18010000 		.4byte	.LVL112
 5118 1125 222B0000 		.4byte	0x2b22
 5119 1129 44110000 		.4byte	0x1144
 5120 112d 25       		.uleb128 0x25
 5121 112e 01       		.uleb128 0x1
ARM GAS  C:\Users\IVYLIU~1\AppData\Local\Temp\ccWSfWRg.s 			page 105


 5122 112f 53       		.byte	0x53
 5123 1130 01       		.uleb128 0x1
 5124 1131 38       		.byte	0x38
 5125 1132 25       		.uleb128 0x25
 5126 1133 01       		.uleb128 0x1
 5127 1134 52       		.byte	0x52
 5128 1135 01       		.uleb128 0x1
 5129 1136 3C       		.byte	0x3c
 5130 1137 25       		.uleb128 0x25
 5131 1138 01       		.uleb128 0x1
 5132 1139 51       		.byte	0x51
 5133 113a 02       		.uleb128 0x2
 5134 113b 08       		.byte	0x8
 5135 113c 2A       		.byte	0x2a
 5136 113d 25       		.uleb128 0x25
 5137 113e 01       		.uleb128 0x1
 5138 113f 50       		.byte	0x50
 5139 1140 02       		.uleb128 0x2
 5140 1141 08       		.byte	0x8
 5141 1142 78       		.byte	0x78
 5142 1143 00       		.byte	0
 5143 1144 24       		.uleb128 0x24
 5144 1145 22010000 		.4byte	.LVL113
 5145 1149 432B0000 		.4byte	0x2b43
 5146 114d 67110000 		.4byte	0x1167
 5147 1151 25       		.uleb128 0x25
 5148 1152 01       		.uleb128 0x1
 5149 1153 52       		.byte	0x52
 5150 1154 02       		.uleb128 0x2
 5151 1155 08       		.byte	0x8
 5152 1156 F0       		.byte	0xf0
 5153 1157 25       		.uleb128 0x25
 5154 1158 01       		.uleb128 0x1
 5155 1159 51       		.byte	0x51
 5156 115a 02       		.uleb128 0x2
 5157 115b 08       		.byte	0x8
 5158 115c 78       		.byte	0x78
 5159 115d 25       		.uleb128 0x25
 5160 115e 01       		.uleb128 0x1
 5161 115f 50       		.byte	0x50
 5162 1160 05       		.uleb128 0x5
 5163 1161 03       		.byte	0x3
 5164 1162 F8000000 		.4byte	.LC16
 5165 1166 00       		.byte	0
 5166 1167 27       		.uleb128 0x27
 5167 1168 28010000 		.4byte	.LVL114
 5168 116c 392A0000 		.4byte	0x2a39
 5169 1170 24       		.uleb128 0x24
 5170 1171 32010000 		.4byte	.LVL115
 5171 1175 432B0000 		.4byte	0x2b43
 5172 1179 93110000 		.4byte	0x1193
 5173 117d 25       		.uleb128 0x25
 5174 117e 01       		.uleb128 0x1
 5175 117f 52       		.byte	0x52
 5176 1180 02       		.uleb128 0x2
 5177 1181 08       		.byte	0x8
 5178 1182 2A       		.byte	0x2a
ARM GAS  C:\Users\IVYLIU~1\AppData\Local\Temp\ccWSfWRg.s 			page 106


 5179 1183 25       		.uleb128 0x25
 5180 1184 01       		.uleb128 0x1
 5181 1185 51       		.byte	0x51
 5182 1186 02       		.uleb128 0x2
 5183 1187 08       		.byte	0x8
 5184 1188 90       		.byte	0x90
 5185 1189 25       		.uleb128 0x25
 5186 118a 01       		.uleb128 0x1
 5187 118b 50       		.byte	0x50
 5188 118c 05       		.uleb128 0x5
 5189 118d 03       		.byte	0x3
 5190 118e E4000000 		.4byte	.LC11
 5191 1192 00       		.byte	0
 5192 1193 24       		.uleb128 0x24
 5193 1194 3C010000 		.4byte	.LVL117
 5194 1198 082B0000 		.4byte	0x2b08
 5195 119c B0110000 		.4byte	0x11b0
 5196 11a0 25       		.uleb128 0x25
 5197 11a1 01       		.uleb128 0x1
 5198 11a2 51       		.byte	0x51
 5199 11a3 05       		.uleb128 0x5
 5200 11a4 03       		.byte	0x3
 5201 11a5 FC000000 		.4byte	.LC17
 5202 11a9 25       		.uleb128 0x25
 5203 11aa 01       		.uleb128 0x1
 5204 11ab 50       		.byte	0x50
 5205 11ac 02       		.uleb128 0x2
 5206 11ad 74       		.byte	0x74
 5207 11ae 00       		.sleb128 0
 5208 11af 00       		.byte	0
 5209 11b0 24       		.uleb128 0x24
 5210 11b1 4A010000 		.4byte	.LVL118
 5211 11b5 222B0000 		.4byte	0x2b22
 5212 11b9 D4110000 		.4byte	0x11d4
 5213 11bd 25       		.uleb128 0x25
 5214 11be 01       		.uleb128 0x1
 5215 11bf 53       		.byte	0x53
 5216 11c0 01       		.uleb128 0x1
 5217 11c1 38       		.byte	0x38
 5218 11c2 25       		.uleb128 0x25
 5219 11c3 01       		.uleb128 0x1
 5220 11c4 52       		.byte	0x52
 5221 11c5 01       		.uleb128 0x1
 5222 11c6 3C       		.byte	0x3c
 5223 11c7 25       		.uleb128 0x25
 5224 11c8 01       		.uleb128 0x1
 5225 11c9 51       		.byte	0x51
 5226 11ca 02       		.uleb128 0x2
 5227 11cb 08       		.byte	0x8
 5228 11cc 2A       		.byte	0x2a
 5229 11cd 25       		.uleb128 0x25
 5230 11ce 01       		.uleb128 0x1
 5231 11cf 50       		.byte	0x50
 5232 11d0 02       		.uleb128 0x2
 5233 11d1 08       		.byte	0x8
 5234 11d2 78       		.byte	0x78
 5235 11d3 00       		.byte	0
ARM GAS  C:\Users\IVYLIU~1\AppData\Local\Temp\ccWSfWRg.s 			page 107


 5236 11d4 24       		.uleb128 0x24
 5237 11d5 54010000 		.4byte	.LVL119
 5238 11d9 432B0000 		.4byte	0x2b43
 5239 11dd F7110000 		.4byte	0x11f7
 5240 11e1 25       		.uleb128 0x25
 5241 11e2 01       		.uleb128 0x1
 5242 11e3 52       		.byte	0x52
 5243 11e4 02       		.uleb128 0x2
 5244 11e5 08       		.byte	0x8
 5245 11e6 F0       		.byte	0xf0
 5246 11e7 25       		.uleb128 0x25
 5247 11e8 01       		.uleb128 0x1
 5248 11e9 51       		.byte	0x51
 5249 11ea 02       		.uleb128 0x2
 5250 11eb 08       		.byte	0x8
 5251 11ec 78       		.byte	0x78
 5252 11ed 25       		.uleb128 0x25
 5253 11ee 01       		.uleb128 0x1
 5254 11ef 50       		.byte	0x50
 5255 11f0 05       		.uleb128 0x5
 5256 11f1 03       		.byte	0x3
 5257 11f2 FC000000 		.4byte	.LC17
 5258 11f6 00       		.byte	0
 5259 11f7 24       		.uleb128 0x24
 5260 11f8 5E010000 		.4byte	.LVL121
 5261 11fc 082B0000 		.4byte	0x2b08
 5262 1200 14120000 		.4byte	0x1214
 5263 1204 25       		.uleb128 0x25
 5264 1205 01       		.uleb128 0x1
 5265 1206 51       		.byte	0x51
 5266 1207 05       		.uleb128 0x5
 5267 1208 03       		.byte	0x3
 5268 1209 00010000 		.4byte	.LC18
 5269 120d 25       		.uleb128 0x25
 5270 120e 01       		.uleb128 0x1
 5271 120f 50       		.byte	0x50
 5272 1210 02       		.uleb128 0x2
 5273 1211 74       		.byte	0x74
 5274 1212 00       		.sleb128 0
 5275 1213 00       		.byte	0
 5276 1214 24       		.uleb128 0x24
 5277 1215 6C010000 		.4byte	.LVL122
 5278 1219 222B0000 		.4byte	0x2b22
 5279 121d 38120000 		.4byte	0x1238
 5280 1221 25       		.uleb128 0x25
 5281 1222 01       		.uleb128 0x1
 5282 1223 53       		.byte	0x53
 5283 1224 01       		.uleb128 0x1
 5284 1225 38       		.byte	0x38
 5285 1226 25       		.uleb128 0x25
 5286 1227 01       		.uleb128 0x1
 5287 1228 52       		.byte	0x52
 5288 1229 01       		.uleb128 0x1
 5289 122a 3C       		.byte	0x3c
 5290 122b 25       		.uleb128 0x25
 5291 122c 01       		.uleb128 0x1
 5292 122d 51       		.byte	0x51
ARM GAS  C:\Users\IVYLIU~1\AppData\Local\Temp\ccWSfWRg.s 			page 108


 5293 122e 02       		.uleb128 0x2
 5294 122f 08       		.byte	0x8
 5295 1230 32       		.byte	0x32
 5296 1231 25       		.uleb128 0x25
 5297 1232 01       		.uleb128 0x1
 5298 1233 50       		.byte	0x50
 5299 1234 02       		.uleb128 0x2
 5300 1235 08       		.byte	0x8
 5301 1236 78       		.byte	0x78
 5302 1237 00       		.byte	0
 5303 1238 24       		.uleb128 0x24
 5304 1239 76010000 		.4byte	.LVL123
 5305 123d 432B0000 		.4byte	0x2b43
 5306 1241 5B120000 		.4byte	0x125b
 5307 1245 25       		.uleb128 0x25
 5308 1246 01       		.uleb128 0x1
 5309 1247 52       		.byte	0x52
 5310 1248 02       		.uleb128 0x2
 5311 1249 08       		.byte	0x8
 5312 124a F0       		.byte	0xf0
 5313 124b 25       		.uleb128 0x25
 5314 124c 01       		.uleb128 0x1
 5315 124d 51       		.byte	0x51
 5316 124e 02       		.uleb128 0x2
 5317 124f 08       		.byte	0x8
 5318 1250 78       		.byte	0x78
 5319 1251 25       		.uleb128 0x25
 5320 1252 01       		.uleb128 0x1
 5321 1253 50       		.byte	0x50
 5322 1254 05       		.uleb128 0x5
 5323 1255 03       		.byte	0x3
 5324 1256 00010000 		.4byte	.LC18
 5325 125a 00       		.byte	0
 5326 125b 24       		.uleb128 0x24
 5327 125c 80010000 		.4byte	.LVL125
 5328 1260 082B0000 		.4byte	0x2b08
 5329 1264 78120000 		.4byte	0x1278
 5330 1268 25       		.uleb128 0x25
 5331 1269 01       		.uleb128 0x1
 5332 126a 51       		.byte	0x51
 5333 126b 05       		.uleb128 0x5
 5334 126c 03       		.byte	0x3
 5335 126d 04010000 		.4byte	.LC19
 5336 1271 25       		.uleb128 0x25
 5337 1272 01       		.uleb128 0x1
 5338 1273 50       		.byte	0x50
 5339 1274 02       		.uleb128 0x2
 5340 1275 74       		.byte	0x74
 5341 1276 00       		.sleb128 0
 5342 1277 00       		.byte	0
 5343 1278 24       		.uleb128 0x24
 5344 1279 8E010000 		.4byte	.LVL126
 5345 127d 222B0000 		.4byte	0x2b22
 5346 1281 9C120000 		.4byte	0x129c
 5347 1285 25       		.uleb128 0x25
 5348 1286 01       		.uleb128 0x1
 5349 1287 53       		.byte	0x53
ARM GAS  C:\Users\IVYLIU~1\AppData\Local\Temp\ccWSfWRg.s 			page 109


 5350 1288 01       		.uleb128 0x1
 5351 1289 38       		.byte	0x38
 5352 128a 25       		.uleb128 0x25
 5353 128b 01       		.uleb128 0x1
 5354 128c 52       		.byte	0x52
 5355 128d 01       		.uleb128 0x1
 5356 128e 3C       		.byte	0x3c
 5357 128f 25       		.uleb128 0x25
 5358 1290 01       		.uleb128 0x1
 5359 1291 51       		.byte	0x51
 5360 1292 02       		.uleb128 0x2
 5361 1293 08       		.byte	0x8
 5362 1294 39       		.byte	0x39
 5363 1295 25       		.uleb128 0x25
 5364 1296 01       		.uleb128 0x1
 5365 1297 50       		.byte	0x50
 5366 1298 02       		.uleb128 0x2
 5367 1299 08       		.byte	0x8
 5368 129a 78       		.byte	0x78
 5369 129b 00       		.byte	0
 5370 129c 24       		.uleb128 0x24
 5371 129d 98010000 		.4byte	.LVL127
 5372 12a1 432B0000 		.4byte	0x2b43
 5373 12a5 BF120000 		.4byte	0x12bf
 5374 12a9 25       		.uleb128 0x25
 5375 12aa 01       		.uleb128 0x1
 5376 12ab 52       		.byte	0x52
 5377 12ac 02       		.uleb128 0x2
 5378 12ad 08       		.byte	0x8
 5379 12ae F0       		.byte	0xf0
 5380 12af 25       		.uleb128 0x25
 5381 12b0 01       		.uleb128 0x1
 5382 12b1 51       		.byte	0x51
 5383 12b2 02       		.uleb128 0x2
 5384 12b3 08       		.byte	0x8
 5385 12b4 78       		.byte	0x78
 5386 12b5 25       		.uleb128 0x25
 5387 12b6 01       		.uleb128 0x1
 5388 12b7 50       		.byte	0x50
 5389 12b8 05       		.uleb128 0x5
 5390 12b9 03       		.byte	0x3
 5391 12ba 04010000 		.4byte	.LC19
 5392 12be 00       		.byte	0
 5393 12bf 27       		.uleb128 0x27
 5394 12c0 9E010000 		.4byte	.LVL128
 5395 12c4 392A0000 		.4byte	0x2a39
 5396 12c8 24       		.uleb128 0x24
 5397 12c9 A8010000 		.4byte	.LVL129
 5398 12cd 432B0000 		.4byte	0x2b43
 5399 12d1 EB120000 		.4byte	0x12eb
 5400 12d5 25       		.uleb128 0x25
 5401 12d6 01       		.uleb128 0x1
 5402 12d7 52       		.byte	0x52
 5403 12d8 02       		.uleb128 0x2
 5404 12d9 08       		.byte	0x8
 5405 12da 39       		.byte	0x39
 5406 12db 25       		.uleb128 0x25
ARM GAS  C:\Users\IVYLIU~1\AppData\Local\Temp\ccWSfWRg.s 			page 110


 5407 12dc 01       		.uleb128 0x1
 5408 12dd 51       		.byte	0x51
 5409 12de 02       		.uleb128 0x2
 5410 12df 08       		.byte	0x8
 5411 12e0 90       		.byte	0x90
 5412 12e1 25       		.uleb128 0x25
 5413 12e2 01       		.uleb128 0x1
 5414 12e3 50       		.byte	0x50
 5415 12e4 05       		.uleb128 0x5
 5416 12e5 03       		.byte	0x3
 5417 12e6 E4000000 		.4byte	.LC11
 5418 12ea 00       		.byte	0
 5419 12eb 24       		.uleb128 0x24
 5420 12ec B2010000 		.4byte	.LVL131
 5421 12f0 082B0000 		.4byte	0x2b08
 5422 12f4 08130000 		.4byte	0x1308
 5423 12f8 25       		.uleb128 0x25
 5424 12f9 01       		.uleb128 0x1
 5425 12fa 51       		.byte	0x51
 5426 12fb 05       		.uleb128 0x5
 5427 12fc 03       		.byte	0x3
 5428 12fd 08010000 		.4byte	.LC20
 5429 1301 25       		.uleb128 0x25
 5430 1302 01       		.uleb128 0x1
 5431 1303 50       		.byte	0x50
 5432 1304 02       		.uleb128 0x2
 5433 1305 74       		.byte	0x74
 5434 1306 00       		.sleb128 0
 5435 1307 00       		.byte	0
 5436 1308 24       		.uleb128 0x24
 5437 1309 C0010000 		.4byte	.LVL132
 5438 130d 222B0000 		.4byte	0x2b22
 5439 1311 2C130000 		.4byte	0x132c
 5440 1315 25       		.uleb128 0x25
 5441 1316 01       		.uleb128 0x1
 5442 1317 53       		.byte	0x53
 5443 1318 01       		.uleb128 0x1
 5444 1319 38       		.byte	0x38
 5445 131a 25       		.uleb128 0x25
 5446 131b 01       		.uleb128 0x1
 5447 131c 52       		.byte	0x52
 5448 131d 01       		.uleb128 0x1
 5449 131e 3C       		.byte	0x3c
 5450 131f 25       		.uleb128 0x25
 5451 1320 01       		.uleb128 0x1
 5452 1321 51       		.byte	0x51
 5453 1322 02       		.uleb128 0x2
 5454 1323 08       		.byte	0x8
 5455 1324 39       		.byte	0x39
 5456 1325 25       		.uleb128 0x25
 5457 1326 01       		.uleb128 0x1
 5458 1327 50       		.byte	0x50
 5459 1328 02       		.uleb128 0x2
 5460 1329 08       		.byte	0x8
 5461 132a 78       		.byte	0x78
 5462 132b 00       		.byte	0
 5463 132c 24       		.uleb128 0x24
ARM GAS  C:\Users\IVYLIU~1\AppData\Local\Temp\ccWSfWRg.s 			page 111


 5464 132d CA010000 		.4byte	.LVL133
 5465 1331 432B0000 		.4byte	0x2b43
 5466 1335 4F130000 		.4byte	0x134f
 5467 1339 25       		.uleb128 0x25
 5468 133a 01       		.uleb128 0x1
 5469 133b 52       		.byte	0x52
 5470 133c 02       		.uleb128 0x2
 5471 133d 08       		.byte	0x8
 5472 133e F0       		.byte	0xf0
 5473 133f 25       		.uleb128 0x25
 5474 1340 01       		.uleb128 0x1
 5475 1341 51       		.byte	0x51
 5476 1342 02       		.uleb128 0x2
 5477 1343 08       		.byte	0x8
 5478 1344 78       		.byte	0x78
 5479 1345 25       		.uleb128 0x25
 5480 1346 01       		.uleb128 0x1
 5481 1347 50       		.byte	0x50
 5482 1348 05       		.uleb128 0x5
 5483 1349 03       		.byte	0x3
 5484 134a 08010000 		.4byte	.LC20
 5485 134e 00       		.byte	0
 5486 134f 24       		.uleb128 0x24
 5487 1350 D4010000 		.4byte	.LVL135
 5488 1354 082B0000 		.4byte	0x2b08
 5489 1358 6C130000 		.4byte	0x136c
 5490 135c 25       		.uleb128 0x25
 5491 135d 01       		.uleb128 0x1
 5492 135e 51       		.byte	0x51
 5493 135f 05       		.uleb128 0x5
 5494 1360 03       		.byte	0x3
 5495 1361 0C010000 		.4byte	.LC21
 5496 1365 25       		.uleb128 0x25
 5497 1366 01       		.uleb128 0x1
 5498 1367 50       		.byte	0x50
 5499 1368 02       		.uleb128 0x2
 5500 1369 74       		.byte	0x74
 5501 136a 00       		.sleb128 0
 5502 136b 00       		.byte	0
 5503 136c 24       		.uleb128 0x24
 5504 136d E2010000 		.4byte	.LVL136
 5505 1371 222B0000 		.4byte	0x2b22
 5506 1375 90130000 		.4byte	0x1390
 5507 1379 25       		.uleb128 0x25
 5508 137a 01       		.uleb128 0x1
 5509 137b 53       		.byte	0x53
 5510 137c 01       		.uleb128 0x1
 5511 137d 38       		.byte	0x38
 5512 137e 25       		.uleb128 0x25
 5513 137f 01       		.uleb128 0x1
 5514 1380 52       		.byte	0x52
 5515 1381 01       		.uleb128 0x1
 5516 1382 3C       		.byte	0x3c
 5517 1383 25       		.uleb128 0x25
 5518 1384 01       		.uleb128 0x1
 5519 1385 51       		.byte	0x51
 5520 1386 02       		.uleb128 0x2
ARM GAS  C:\Users\IVYLIU~1\AppData\Local\Temp\ccWSfWRg.s 			page 112


 5521 1387 08       		.byte	0x8
 5522 1388 41       		.byte	0x41
 5523 1389 25       		.uleb128 0x25
 5524 138a 01       		.uleb128 0x1
 5525 138b 50       		.byte	0x50
 5526 138c 02       		.uleb128 0x2
 5527 138d 08       		.byte	0x8
 5528 138e 78       		.byte	0x78
 5529 138f 00       		.byte	0
 5530 1390 24       		.uleb128 0x24
 5531 1391 EC010000 		.4byte	.LVL137
 5532 1395 432B0000 		.4byte	0x2b43
 5533 1399 B3130000 		.4byte	0x13b3
 5534 139d 25       		.uleb128 0x25
 5535 139e 01       		.uleb128 0x1
 5536 139f 52       		.byte	0x52
 5537 13a0 02       		.uleb128 0x2
 5538 13a1 08       		.byte	0x8
 5539 13a2 F0       		.byte	0xf0
 5540 13a3 25       		.uleb128 0x25
 5541 13a4 01       		.uleb128 0x1
 5542 13a5 51       		.byte	0x51
 5543 13a6 02       		.uleb128 0x2
 5544 13a7 08       		.byte	0x8
 5545 13a8 78       		.byte	0x78
 5546 13a9 25       		.uleb128 0x25
 5547 13aa 01       		.uleb128 0x1
 5548 13ab 50       		.byte	0x50
 5549 13ac 05       		.uleb128 0x5
 5550 13ad 03       		.byte	0x3
 5551 13ae 0C010000 		.4byte	.LC21
 5552 13b2 00       		.byte	0
 5553 13b3 27       		.uleb128 0x27
 5554 13b4 F2010000 		.4byte	.LVL138
 5555 13b8 392A0000 		.4byte	0x2a39
 5556 13bc 24       		.uleb128 0x24
 5557 13bd FC010000 		.4byte	.LVL139
 5558 13c1 432B0000 		.4byte	0x2b43
 5559 13c5 DF130000 		.4byte	0x13df
 5560 13c9 25       		.uleb128 0x25
 5561 13ca 01       		.uleb128 0x1
 5562 13cb 52       		.byte	0x52
 5563 13cc 02       		.uleb128 0x2
 5564 13cd 08       		.byte	0x8
 5565 13ce 41       		.byte	0x41
 5566 13cf 25       		.uleb128 0x25
 5567 13d0 01       		.uleb128 0x1
 5568 13d1 51       		.byte	0x51
 5569 13d2 02       		.uleb128 0x2
 5570 13d3 08       		.byte	0x8
 5571 13d4 90       		.byte	0x90
 5572 13d5 25       		.uleb128 0x25
 5573 13d6 01       		.uleb128 0x1
 5574 13d7 50       		.byte	0x50
 5575 13d8 05       		.uleb128 0x5
 5576 13d9 03       		.byte	0x3
 5577 13da E4000000 		.4byte	.LC11
ARM GAS  C:\Users\IVYLIU~1\AppData\Local\Temp\ccWSfWRg.s 			page 113


 5578 13de 00       		.byte	0
 5579 13df 24       		.uleb128 0x24
 5580 13e0 06020000 		.4byte	.LVL141
 5581 13e4 082B0000 		.4byte	0x2b08
 5582 13e8 FC130000 		.4byte	0x13fc
 5583 13ec 25       		.uleb128 0x25
 5584 13ed 01       		.uleb128 0x1
 5585 13ee 51       		.byte	0x51
 5586 13ef 05       		.uleb128 0x5
 5587 13f0 03       		.byte	0x3
 5588 13f1 10010000 		.4byte	.LC22
 5589 13f5 25       		.uleb128 0x25
 5590 13f6 01       		.uleb128 0x1
 5591 13f7 50       		.byte	0x50
 5592 13f8 02       		.uleb128 0x2
 5593 13f9 74       		.byte	0x74
 5594 13fa 00       		.sleb128 0
 5595 13fb 00       		.byte	0
 5596 13fc 24       		.uleb128 0x24
 5597 13fd 14020000 		.4byte	.LVL142
 5598 1401 222B0000 		.4byte	0x2b22
 5599 1405 20140000 		.4byte	0x1420
 5600 1409 25       		.uleb128 0x25
 5601 140a 01       		.uleb128 0x1
 5602 140b 53       		.byte	0x53
 5603 140c 01       		.uleb128 0x1
 5604 140d 38       		.byte	0x38
 5605 140e 25       		.uleb128 0x25
 5606 140f 01       		.uleb128 0x1
 5607 1410 52       		.byte	0x52
 5608 1411 01       		.uleb128 0x1
 5609 1412 3C       		.byte	0x3c
 5610 1413 25       		.uleb128 0x25
 5611 1414 01       		.uleb128 0x1
 5612 1415 51       		.byte	0x51
 5613 1416 02       		.uleb128 0x2
 5614 1417 08       		.byte	0x8
 5615 1418 41       		.byte	0x41
 5616 1419 25       		.uleb128 0x25
 5617 141a 01       		.uleb128 0x1
 5618 141b 50       		.byte	0x50
 5619 141c 02       		.uleb128 0x2
 5620 141d 08       		.byte	0x8
 5621 141e 78       		.byte	0x78
 5622 141f 00       		.byte	0
 5623 1420 24       		.uleb128 0x24
 5624 1421 1E020000 		.4byte	.LVL143
 5625 1425 432B0000 		.4byte	0x2b43
 5626 1429 43140000 		.4byte	0x1443
 5627 142d 25       		.uleb128 0x25
 5628 142e 01       		.uleb128 0x1
 5629 142f 52       		.byte	0x52
 5630 1430 02       		.uleb128 0x2
 5631 1431 08       		.byte	0x8
 5632 1432 F0       		.byte	0xf0
 5633 1433 25       		.uleb128 0x25
 5634 1434 01       		.uleb128 0x1
ARM GAS  C:\Users\IVYLIU~1\AppData\Local\Temp\ccWSfWRg.s 			page 114


 5635 1435 51       		.byte	0x51
 5636 1436 02       		.uleb128 0x2
 5637 1437 08       		.byte	0x8
 5638 1438 78       		.byte	0x78
 5639 1439 25       		.uleb128 0x25
 5640 143a 01       		.uleb128 0x1
 5641 143b 50       		.byte	0x50
 5642 143c 05       		.uleb128 0x5
 5643 143d 03       		.byte	0x3
 5644 143e 10010000 		.4byte	.LC22
 5645 1442 00       		.byte	0
 5646 1443 24       		.uleb128 0x24
 5647 1444 28020000 		.4byte	.LVL145
 5648 1448 082B0000 		.4byte	0x2b08
 5649 144c 60140000 		.4byte	0x1460
 5650 1450 25       		.uleb128 0x25
 5651 1451 01       		.uleb128 0x1
 5652 1452 51       		.byte	0x51
 5653 1453 05       		.uleb128 0x5
 5654 1454 03       		.byte	0x3
 5655 1455 14010000 		.4byte	.LC23
 5656 1459 25       		.uleb128 0x25
 5657 145a 01       		.uleb128 0x1
 5658 145b 50       		.byte	0x50
 5659 145c 02       		.uleb128 0x2
 5660 145d 74       		.byte	0x74
 5661 145e 00       		.sleb128 0
 5662 145f 00       		.byte	0
 5663 1460 24       		.uleb128 0x24
 5664 1461 36020000 		.4byte	.LVL146
 5665 1465 222B0000 		.4byte	0x2b22
 5666 1469 84140000 		.4byte	0x1484
 5667 146d 25       		.uleb128 0x25
 5668 146e 01       		.uleb128 0x1
 5669 146f 53       		.byte	0x53
 5670 1470 01       		.uleb128 0x1
 5671 1471 38       		.byte	0x38
 5672 1472 25       		.uleb128 0x25
 5673 1473 01       		.uleb128 0x1
 5674 1474 52       		.byte	0x52
 5675 1475 01       		.uleb128 0x1
 5676 1476 3C       		.byte	0x3c
 5677 1477 25       		.uleb128 0x25
 5678 1478 01       		.uleb128 0x1
 5679 1479 51       		.byte	0x51
 5680 147a 02       		.uleb128 0x2
 5681 147b 08       		.byte	0x8
 5682 147c 48       		.byte	0x48
 5683 147d 25       		.uleb128 0x25
 5684 147e 01       		.uleb128 0x1
 5685 147f 50       		.byte	0x50
 5686 1480 02       		.uleb128 0x2
 5687 1481 08       		.byte	0x8
 5688 1482 78       		.byte	0x78
 5689 1483 00       		.byte	0
 5690 1484 24       		.uleb128 0x24
 5691 1485 40020000 		.4byte	.LVL147
ARM GAS  C:\Users\IVYLIU~1\AppData\Local\Temp\ccWSfWRg.s 			page 115


 5692 1489 432B0000 		.4byte	0x2b43
 5693 148d A7140000 		.4byte	0x14a7
 5694 1491 25       		.uleb128 0x25
 5695 1492 01       		.uleb128 0x1
 5696 1493 52       		.byte	0x52
 5697 1494 02       		.uleb128 0x2
 5698 1495 08       		.byte	0x8
 5699 1496 F0       		.byte	0xf0
 5700 1497 25       		.uleb128 0x25
 5701 1498 01       		.uleb128 0x1
 5702 1499 51       		.byte	0x51
 5703 149a 02       		.uleb128 0x2
 5704 149b 08       		.byte	0x8
 5705 149c 78       		.byte	0x78
 5706 149d 25       		.uleb128 0x25
 5707 149e 01       		.uleb128 0x1
 5708 149f 50       		.byte	0x50
 5709 14a0 05       		.uleb128 0x5
 5710 14a1 03       		.byte	0x3
 5711 14a2 14010000 		.4byte	.LC23
 5712 14a6 00       		.byte	0
 5713 14a7 27       		.uleb128 0x27
 5714 14a8 46020000 		.4byte	.LVL148
 5715 14ac 392A0000 		.4byte	0x2a39
 5716 14b0 24       		.uleb128 0x24
 5717 14b1 50020000 		.4byte	.LVL149
 5718 14b5 432B0000 		.4byte	0x2b43
 5719 14b9 D3140000 		.4byte	0x14d3
 5720 14bd 25       		.uleb128 0x25
 5721 14be 01       		.uleb128 0x1
 5722 14bf 52       		.byte	0x52
 5723 14c0 02       		.uleb128 0x2
 5724 14c1 08       		.byte	0x8
 5725 14c2 48       		.byte	0x48
 5726 14c3 25       		.uleb128 0x25
 5727 14c4 01       		.uleb128 0x1
 5728 14c5 51       		.byte	0x51
 5729 14c6 02       		.uleb128 0x2
 5730 14c7 08       		.byte	0x8
 5731 14c8 90       		.byte	0x90
 5732 14c9 25       		.uleb128 0x25
 5733 14ca 01       		.uleb128 0x1
 5734 14cb 50       		.byte	0x50
 5735 14cc 05       		.uleb128 0x5
 5736 14cd 03       		.byte	0x3
 5737 14ce E4000000 		.4byte	.LC11
 5738 14d2 00       		.byte	0
 5739 14d3 24       		.uleb128 0x24
 5740 14d4 5A020000 		.4byte	.LVL151
 5741 14d8 082B0000 		.4byte	0x2b08
 5742 14dc F0140000 		.4byte	0x14f0
 5743 14e0 25       		.uleb128 0x25
 5744 14e1 01       		.uleb128 0x1
 5745 14e2 51       		.byte	0x51
 5746 14e3 05       		.uleb128 0x5
 5747 14e4 03       		.byte	0x3
 5748 14e5 18010000 		.4byte	.LC24
ARM GAS  C:\Users\IVYLIU~1\AppData\Local\Temp\ccWSfWRg.s 			page 116


 5749 14e9 25       		.uleb128 0x25
 5750 14ea 01       		.uleb128 0x1
 5751 14eb 50       		.byte	0x50
 5752 14ec 02       		.uleb128 0x2
 5753 14ed 74       		.byte	0x74
 5754 14ee 00       		.sleb128 0
 5755 14ef 00       		.byte	0
 5756 14f0 24       		.uleb128 0x24
 5757 14f1 68020000 		.4byte	.LVL152
 5758 14f5 222B0000 		.4byte	0x2b22
 5759 14f9 14150000 		.4byte	0x1514
 5760 14fd 25       		.uleb128 0x25
 5761 14fe 01       		.uleb128 0x1
 5762 14ff 53       		.byte	0x53
 5763 1500 01       		.uleb128 0x1
 5764 1501 38       		.byte	0x38
 5765 1502 25       		.uleb128 0x25
 5766 1503 01       		.uleb128 0x1
 5767 1504 52       		.byte	0x52
 5768 1505 01       		.uleb128 0x1
 5769 1506 3C       		.byte	0x3c
 5770 1507 25       		.uleb128 0x25
 5771 1508 01       		.uleb128 0x1
 5772 1509 51       		.byte	0x51
 5773 150a 02       		.uleb128 0x2
 5774 150b 08       		.byte	0x8
 5775 150c 48       		.byte	0x48
 5776 150d 25       		.uleb128 0x25
 5777 150e 01       		.uleb128 0x1
 5778 150f 50       		.byte	0x50
 5779 1510 02       		.uleb128 0x2
 5780 1511 08       		.byte	0x8
 5781 1512 78       		.byte	0x78
 5782 1513 00       		.byte	0
 5783 1514 24       		.uleb128 0x24
 5784 1515 72020000 		.4byte	.LVL153
 5785 1519 432B0000 		.4byte	0x2b43
 5786 151d 37150000 		.4byte	0x1537
 5787 1521 25       		.uleb128 0x25
 5788 1522 01       		.uleb128 0x1
 5789 1523 52       		.byte	0x52
 5790 1524 02       		.uleb128 0x2
 5791 1525 08       		.byte	0x8
 5792 1526 F0       		.byte	0xf0
 5793 1527 25       		.uleb128 0x25
 5794 1528 01       		.uleb128 0x1
 5795 1529 51       		.byte	0x51
 5796 152a 02       		.uleb128 0x2
 5797 152b 08       		.byte	0x8
 5798 152c 78       		.byte	0x78
 5799 152d 25       		.uleb128 0x25
 5800 152e 01       		.uleb128 0x1
 5801 152f 50       		.byte	0x50
 5802 1530 05       		.uleb128 0x5
 5803 1531 03       		.byte	0x3
 5804 1532 18010000 		.4byte	.LC24
 5805 1536 00       		.byte	0
ARM GAS  C:\Users\IVYLIU~1\AppData\Local\Temp\ccWSfWRg.s 			page 117


 5806 1537 24       		.uleb128 0x24
 5807 1538 7C020000 		.4byte	.LVL155
 5808 153c 082B0000 		.4byte	0x2b08
 5809 1540 54150000 		.4byte	0x1554
 5810 1544 25       		.uleb128 0x25
 5811 1545 01       		.uleb128 0x1
 5812 1546 51       		.byte	0x51
 5813 1547 05       		.uleb128 0x5
 5814 1548 03       		.byte	0x3
 5815 1549 1C010000 		.4byte	.LC25
 5816 154d 25       		.uleb128 0x25
 5817 154e 01       		.uleb128 0x1
 5818 154f 50       		.byte	0x50
 5819 1550 02       		.uleb128 0x2
 5820 1551 74       		.byte	0x74
 5821 1552 00       		.sleb128 0
 5822 1553 00       		.byte	0
 5823 1554 24       		.uleb128 0x24
 5824 1555 8A020000 		.4byte	.LVL156
 5825 1559 222B0000 		.4byte	0x2b22
 5826 155d 78150000 		.4byte	0x1578
 5827 1561 25       		.uleb128 0x25
 5828 1562 01       		.uleb128 0x1
 5829 1563 53       		.byte	0x53
 5830 1564 01       		.uleb128 0x1
 5831 1565 38       		.byte	0x38
 5832 1566 25       		.uleb128 0x25
 5833 1567 01       		.uleb128 0x1
 5834 1568 52       		.byte	0x52
 5835 1569 01       		.uleb128 0x1
 5836 156a 3C       		.byte	0x3c
 5837 156b 25       		.uleb128 0x25
 5838 156c 01       		.uleb128 0x1
 5839 156d 51       		.byte	0x51
 5840 156e 02       		.uleb128 0x2
 5841 156f 08       		.byte	0x8
 5842 1570 50       		.byte	0x50
 5843 1571 25       		.uleb128 0x25
 5844 1572 01       		.uleb128 0x1
 5845 1573 50       		.byte	0x50
 5846 1574 02       		.uleb128 0x2
 5847 1575 08       		.byte	0x8
 5848 1576 78       		.byte	0x78
 5849 1577 00       		.byte	0
 5850 1578 24       		.uleb128 0x24
 5851 1579 94020000 		.4byte	.LVL157
 5852 157d 432B0000 		.4byte	0x2b43
 5853 1581 9B150000 		.4byte	0x159b
 5854 1585 25       		.uleb128 0x25
 5855 1586 01       		.uleb128 0x1
 5856 1587 52       		.byte	0x52
 5857 1588 02       		.uleb128 0x2
 5858 1589 08       		.byte	0x8
 5859 158a F0       		.byte	0xf0
 5860 158b 25       		.uleb128 0x25
 5861 158c 01       		.uleb128 0x1
 5862 158d 51       		.byte	0x51
ARM GAS  C:\Users\IVYLIU~1\AppData\Local\Temp\ccWSfWRg.s 			page 118


 5863 158e 02       		.uleb128 0x2
 5864 158f 08       		.byte	0x8
 5865 1590 78       		.byte	0x78
 5866 1591 25       		.uleb128 0x25
 5867 1592 01       		.uleb128 0x1
 5868 1593 50       		.byte	0x50
 5869 1594 05       		.uleb128 0x5
 5870 1595 03       		.byte	0x3
 5871 1596 1C010000 		.4byte	.LC25
 5872 159a 00       		.byte	0
 5873 159b 24       		.uleb128 0x24
 5874 159c 9E020000 		.4byte	.LVL159
 5875 15a0 082B0000 		.4byte	0x2b08
 5876 15a4 B8150000 		.4byte	0x15b8
 5877 15a8 25       		.uleb128 0x25
 5878 15a9 01       		.uleb128 0x1
 5879 15aa 51       		.byte	0x51
 5880 15ab 05       		.uleb128 0x5
 5881 15ac 03       		.byte	0x3
 5882 15ad 20010000 		.4byte	.LC26
 5883 15b1 25       		.uleb128 0x25
 5884 15b2 01       		.uleb128 0x1
 5885 15b3 50       		.byte	0x50
 5886 15b4 02       		.uleb128 0x2
 5887 15b5 74       		.byte	0x74
 5888 15b6 00       		.sleb128 0
 5889 15b7 00       		.byte	0
 5890 15b8 24       		.uleb128 0x24
 5891 15b9 AC020000 		.4byte	.LVL160
 5892 15bd 222B0000 		.4byte	0x2b22
 5893 15c1 DC150000 		.4byte	0x15dc
 5894 15c5 25       		.uleb128 0x25
 5895 15c6 01       		.uleb128 0x1
 5896 15c7 53       		.byte	0x53
 5897 15c8 01       		.uleb128 0x1
 5898 15c9 38       		.byte	0x38
 5899 15ca 25       		.uleb128 0x25
 5900 15cb 01       		.uleb128 0x1
 5901 15cc 52       		.byte	0x52
 5902 15cd 01       		.uleb128 0x1
 5903 15ce 3C       		.byte	0x3c
 5904 15cf 25       		.uleb128 0x25
 5905 15d0 01       		.uleb128 0x1
 5906 15d1 51       		.byte	0x51
 5907 15d2 02       		.uleb128 0x2
 5908 15d3 08       		.byte	0x8
 5909 15d4 57       		.byte	0x57
 5910 15d5 25       		.uleb128 0x25
 5911 15d6 01       		.uleb128 0x1
 5912 15d7 50       		.byte	0x50
 5913 15d8 02       		.uleb128 0x2
 5914 15d9 08       		.byte	0x8
 5915 15da 78       		.byte	0x78
 5916 15db 00       		.byte	0
 5917 15dc 24       		.uleb128 0x24
 5918 15dd B6020000 		.4byte	.LVL161
 5919 15e1 432B0000 		.4byte	0x2b43
ARM GAS  C:\Users\IVYLIU~1\AppData\Local\Temp\ccWSfWRg.s 			page 119


 5920 15e5 FF150000 		.4byte	0x15ff
 5921 15e9 25       		.uleb128 0x25
 5922 15ea 01       		.uleb128 0x1
 5923 15eb 52       		.byte	0x52
 5924 15ec 02       		.uleb128 0x2
 5925 15ed 08       		.byte	0x8
 5926 15ee F0       		.byte	0xf0
 5927 15ef 25       		.uleb128 0x25
 5928 15f0 01       		.uleb128 0x1
 5929 15f1 51       		.byte	0x51
 5930 15f2 02       		.uleb128 0x2
 5931 15f3 08       		.byte	0x8
 5932 15f4 78       		.byte	0x78
 5933 15f5 25       		.uleb128 0x25
 5934 15f6 01       		.uleb128 0x1
 5935 15f7 50       		.byte	0x50
 5936 15f8 05       		.uleb128 0x5
 5937 15f9 03       		.byte	0x3
 5938 15fa 20010000 		.4byte	.LC26
 5939 15fe 00       		.byte	0
 5940 15ff 27       		.uleb128 0x27
 5941 1600 BC020000 		.4byte	.LVL162
 5942 1604 392A0000 		.4byte	0x2a39
 5943 1608 24       		.uleb128 0x24
 5944 1609 C6020000 		.4byte	.LVL163
 5945 160d 432B0000 		.4byte	0x2b43
 5946 1611 2B160000 		.4byte	0x162b
 5947 1615 25       		.uleb128 0x25
 5948 1616 01       		.uleb128 0x1
 5949 1617 52       		.byte	0x52
 5950 1618 02       		.uleb128 0x2
 5951 1619 08       		.byte	0x8
 5952 161a 57       		.byte	0x57
 5953 161b 25       		.uleb128 0x25
 5954 161c 01       		.uleb128 0x1
 5955 161d 51       		.byte	0x51
 5956 161e 02       		.uleb128 0x2
 5957 161f 08       		.byte	0x8
 5958 1620 90       		.byte	0x90
 5959 1621 25       		.uleb128 0x25
 5960 1622 01       		.uleb128 0x1
 5961 1623 50       		.byte	0x50
 5962 1624 05       		.uleb128 0x5
 5963 1625 03       		.byte	0x3
 5964 1626 E4000000 		.4byte	.LC11
 5965 162a 00       		.byte	0
 5966 162b 24       		.uleb128 0x24
 5967 162c D0020000 		.4byte	.LVL165
 5968 1630 082B0000 		.4byte	0x2b08
 5969 1634 48160000 		.4byte	0x1648
 5970 1638 25       		.uleb128 0x25
 5971 1639 01       		.uleb128 0x1
 5972 163a 51       		.byte	0x51
 5973 163b 05       		.uleb128 0x5
 5974 163c 03       		.byte	0x3
 5975 163d 24010000 		.4byte	.LC27
 5976 1641 25       		.uleb128 0x25
ARM GAS  C:\Users\IVYLIU~1\AppData\Local\Temp\ccWSfWRg.s 			page 120


 5977 1642 01       		.uleb128 0x1
 5978 1643 50       		.byte	0x50
 5979 1644 02       		.uleb128 0x2
 5980 1645 74       		.byte	0x74
 5981 1646 00       		.sleb128 0
 5982 1647 00       		.byte	0
 5983 1648 24       		.uleb128 0x24
 5984 1649 DE020000 		.4byte	.LVL166
 5985 164d 222B0000 		.4byte	0x2b22
 5986 1651 6C160000 		.4byte	0x166c
 5987 1655 25       		.uleb128 0x25
 5988 1656 01       		.uleb128 0x1
 5989 1657 53       		.byte	0x53
 5990 1658 01       		.uleb128 0x1
 5991 1659 38       		.byte	0x38
 5992 165a 25       		.uleb128 0x25
 5993 165b 01       		.uleb128 0x1
 5994 165c 52       		.byte	0x52
 5995 165d 01       		.uleb128 0x1
 5996 165e 3C       		.byte	0x3c
 5997 165f 25       		.uleb128 0x25
 5998 1660 01       		.uleb128 0x1
 5999 1661 51       		.byte	0x51
 6000 1662 02       		.uleb128 0x2
 6001 1663 08       		.byte	0x8
 6002 1664 57       		.byte	0x57
 6003 1665 25       		.uleb128 0x25
 6004 1666 01       		.uleb128 0x1
 6005 1667 50       		.byte	0x50
 6006 1668 02       		.uleb128 0x2
 6007 1669 08       		.byte	0x8
 6008 166a 78       		.byte	0x78
 6009 166b 00       		.byte	0
 6010 166c 24       		.uleb128 0x24
 6011 166d E8020000 		.4byte	.LVL167
 6012 1671 432B0000 		.4byte	0x2b43
 6013 1675 8F160000 		.4byte	0x168f
 6014 1679 25       		.uleb128 0x25
 6015 167a 01       		.uleb128 0x1
 6016 167b 52       		.byte	0x52
 6017 167c 02       		.uleb128 0x2
 6018 167d 08       		.byte	0x8
 6019 167e F0       		.byte	0xf0
 6020 167f 25       		.uleb128 0x25
 6021 1680 01       		.uleb128 0x1
 6022 1681 51       		.byte	0x51
 6023 1682 02       		.uleb128 0x2
 6024 1683 08       		.byte	0x8
 6025 1684 78       		.byte	0x78
 6026 1685 25       		.uleb128 0x25
 6027 1686 01       		.uleb128 0x1
 6028 1687 50       		.byte	0x50
 6029 1688 05       		.uleb128 0x5
 6030 1689 03       		.byte	0x3
 6031 168a 24010000 		.4byte	.LC27
 6032 168e 00       		.byte	0
 6033 168f 24       		.uleb128 0x24
ARM GAS  C:\Users\IVYLIU~1\AppData\Local\Temp\ccWSfWRg.s 			page 121


 6034 1690 48030000 		.4byte	.LVL170
 6035 1694 082B0000 		.4byte	0x2b08
 6036 1698 AC160000 		.4byte	0x16ac
 6037 169c 25       		.uleb128 0x25
 6038 169d 01       		.uleb128 0x1
 6039 169e 51       		.byte	0x51
 6040 169f 05       		.uleb128 0x5
 6041 16a0 03       		.byte	0x3
 6042 16a1 28010000 		.4byte	.LC28
 6043 16a5 25       		.uleb128 0x25
 6044 16a6 01       		.uleb128 0x1
 6045 16a7 50       		.byte	0x50
 6046 16a8 02       		.uleb128 0x2
 6047 16a9 74       		.byte	0x74
 6048 16aa 00       		.sleb128 0
 6049 16ab 00       		.byte	0
 6050 16ac 24       		.uleb128 0x24
 6051 16ad 56030000 		.4byte	.LVL171
 6052 16b1 222B0000 		.4byte	0x2b22
 6053 16b5 D0160000 		.4byte	0x16d0
 6054 16b9 25       		.uleb128 0x25
 6055 16ba 01       		.uleb128 0x1
 6056 16bb 53       		.byte	0x53
 6057 16bc 01       		.uleb128 0x1
 6058 16bd 38       		.byte	0x38
 6059 16be 25       		.uleb128 0x25
 6060 16bf 01       		.uleb128 0x1
 6061 16c0 52       		.byte	0x52
 6062 16c1 01       		.uleb128 0x1
 6063 16c2 3C       		.byte	0x3c
 6064 16c3 25       		.uleb128 0x25
 6065 16c4 01       		.uleb128 0x1
 6066 16c5 51       		.byte	0x51
 6067 16c6 02       		.uleb128 0x2
 6068 16c7 08       		.byte	0x8
 6069 16c8 5F       		.byte	0x5f
 6070 16c9 25       		.uleb128 0x25
 6071 16ca 01       		.uleb128 0x1
 6072 16cb 50       		.byte	0x50
 6073 16cc 02       		.uleb128 0x2
 6074 16cd 08       		.byte	0x8
 6075 16ce 78       		.byte	0x78
 6076 16cf 00       		.byte	0
 6077 16d0 24       		.uleb128 0x24
 6078 16d1 60030000 		.4byte	.LVL172
 6079 16d5 432B0000 		.4byte	0x2b43
 6080 16d9 F3160000 		.4byte	0x16f3
 6081 16dd 25       		.uleb128 0x25
 6082 16de 01       		.uleb128 0x1
 6083 16df 52       		.byte	0x52
 6084 16e0 02       		.uleb128 0x2
 6085 16e1 08       		.byte	0x8
 6086 16e2 F0       		.byte	0xf0
 6087 16e3 25       		.uleb128 0x25
 6088 16e4 01       		.uleb128 0x1
 6089 16e5 51       		.byte	0x51
 6090 16e6 02       		.uleb128 0x2
ARM GAS  C:\Users\IVYLIU~1\AppData\Local\Temp\ccWSfWRg.s 			page 122


 6091 16e7 08       		.byte	0x8
 6092 16e8 78       		.byte	0x78
 6093 16e9 25       		.uleb128 0x25
 6094 16ea 01       		.uleb128 0x1
 6095 16eb 50       		.byte	0x50
 6096 16ec 05       		.uleb128 0x5
 6097 16ed 03       		.byte	0x3
 6098 16ee 28010000 		.4byte	.LC28
 6099 16f2 00       		.byte	0
 6100 16f3 27       		.uleb128 0x27
 6101 16f4 66030000 		.4byte	.LVL173
 6102 16f8 392A0000 		.4byte	0x2a39
 6103 16fc 24       		.uleb128 0x24
 6104 16fd 70030000 		.4byte	.LVL174
 6105 1701 432B0000 		.4byte	0x2b43
 6106 1705 1F170000 		.4byte	0x171f
 6107 1709 25       		.uleb128 0x25
 6108 170a 01       		.uleb128 0x1
 6109 170b 52       		.byte	0x52
 6110 170c 02       		.uleb128 0x2
 6111 170d 08       		.byte	0x8
 6112 170e 5F       		.byte	0x5f
 6113 170f 25       		.uleb128 0x25
 6114 1710 01       		.uleb128 0x1
 6115 1711 51       		.byte	0x51
 6116 1712 02       		.uleb128 0x2
 6117 1713 08       		.byte	0x8
 6118 1714 90       		.byte	0x90
 6119 1715 25       		.uleb128 0x25
 6120 1716 01       		.uleb128 0x1
 6121 1717 50       		.byte	0x50
 6122 1718 05       		.uleb128 0x5
 6123 1719 03       		.byte	0x3
 6124 171a E4000000 		.4byte	.LC11
 6125 171e 00       		.byte	0
 6126 171f 24       		.uleb128 0x24
 6127 1720 7A030000 		.4byte	.LVL176
 6128 1724 082B0000 		.4byte	0x2b08
 6129 1728 3C170000 		.4byte	0x173c
 6130 172c 25       		.uleb128 0x25
 6131 172d 01       		.uleb128 0x1
 6132 172e 51       		.byte	0x51
 6133 172f 05       		.uleb128 0x5
 6134 1730 03       		.byte	0x3
 6135 1731 2C010000 		.4byte	.LC29
 6136 1735 25       		.uleb128 0x25
 6137 1736 01       		.uleb128 0x1
 6138 1737 50       		.byte	0x50
 6139 1738 02       		.uleb128 0x2
 6140 1739 74       		.byte	0x74
 6141 173a 00       		.sleb128 0
 6142 173b 00       		.byte	0
 6143 173c 24       		.uleb128 0x24
 6144 173d 88030000 		.4byte	.LVL177
 6145 1741 222B0000 		.4byte	0x2b22
 6146 1745 60170000 		.4byte	0x1760
 6147 1749 25       		.uleb128 0x25
ARM GAS  C:\Users\IVYLIU~1\AppData\Local\Temp\ccWSfWRg.s 			page 123


 6148 174a 01       		.uleb128 0x1
 6149 174b 53       		.byte	0x53
 6150 174c 01       		.uleb128 0x1
 6151 174d 38       		.byte	0x38
 6152 174e 25       		.uleb128 0x25
 6153 174f 01       		.uleb128 0x1
 6154 1750 52       		.byte	0x52
 6155 1751 01       		.uleb128 0x1
 6156 1752 3C       		.byte	0x3c
 6157 1753 25       		.uleb128 0x25
 6158 1754 01       		.uleb128 0x1
 6159 1755 51       		.byte	0x51
 6160 1756 02       		.uleb128 0x2
 6161 1757 08       		.byte	0x8
 6162 1758 64       		.byte	0x64
 6163 1759 25       		.uleb128 0x25
 6164 175a 01       		.uleb128 0x1
 6165 175b 50       		.byte	0x50
 6166 175c 02       		.uleb128 0x2
 6167 175d 08       		.byte	0x8
 6168 175e 78       		.byte	0x78
 6169 175f 00       		.byte	0
 6170 1760 24       		.uleb128 0x24
 6171 1761 92030000 		.4byte	.LVL178
 6172 1765 432B0000 		.4byte	0x2b43
 6173 1769 83170000 		.4byte	0x1783
 6174 176d 25       		.uleb128 0x25
 6175 176e 01       		.uleb128 0x1
 6176 176f 52       		.byte	0x52
 6177 1770 02       		.uleb128 0x2
 6178 1771 08       		.byte	0x8
 6179 1772 F0       		.byte	0xf0
 6180 1773 25       		.uleb128 0x25
 6181 1774 01       		.uleb128 0x1
 6182 1775 51       		.byte	0x51
 6183 1776 02       		.uleb128 0x2
 6184 1777 08       		.byte	0x8
 6185 1778 78       		.byte	0x78
 6186 1779 25       		.uleb128 0x25
 6187 177a 01       		.uleb128 0x1
 6188 177b 50       		.byte	0x50
 6189 177c 05       		.uleb128 0x5
 6190 177d 03       		.byte	0x3
 6191 177e 2C010000 		.4byte	.LC29
 6192 1782 00       		.byte	0
 6193 1783 24       		.uleb128 0x24
 6194 1784 9C030000 		.4byte	.LVL180
 6195 1788 082B0000 		.4byte	0x2b08
 6196 178c A0170000 		.4byte	0x17a0
 6197 1790 25       		.uleb128 0x25
 6198 1791 01       		.uleb128 0x1
 6199 1792 51       		.byte	0x51
 6200 1793 05       		.uleb128 0x5
 6201 1794 03       		.byte	0x3
 6202 1795 30010000 		.4byte	.LC30
 6203 1799 25       		.uleb128 0x25
 6204 179a 01       		.uleb128 0x1
ARM GAS  C:\Users\IVYLIU~1\AppData\Local\Temp\ccWSfWRg.s 			page 124


 6205 179b 50       		.byte	0x50
 6206 179c 02       		.uleb128 0x2
 6207 179d 74       		.byte	0x74
 6208 179e 00       		.sleb128 0
 6209 179f 00       		.byte	0
 6210 17a0 24       		.uleb128 0x24
 6211 17a1 AA030000 		.4byte	.LVL181
 6212 17a5 222B0000 		.4byte	0x2b22
 6213 17a9 C4170000 		.4byte	0x17c4
 6214 17ad 25       		.uleb128 0x25
 6215 17ae 01       		.uleb128 0x1
 6216 17af 53       		.byte	0x53
 6217 17b0 01       		.uleb128 0x1
 6218 17b1 38       		.byte	0x38
 6219 17b2 25       		.uleb128 0x25
 6220 17b3 01       		.uleb128 0x1
 6221 17b4 52       		.byte	0x52
 6222 17b5 01       		.uleb128 0x1
 6223 17b6 3C       		.byte	0x3c
 6224 17b7 25       		.uleb128 0x25
 6225 17b8 01       		.uleb128 0x1
 6226 17b9 51       		.byte	0x51
 6227 17ba 02       		.uleb128 0x2
 6228 17bb 08       		.byte	0x8
 6229 17bc 71       		.byte	0x71
 6230 17bd 25       		.uleb128 0x25
 6231 17be 01       		.uleb128 0x1
 6232 17bf 50       		.byte	0x50
 6233 17c0 02       		.uleb128 0x2
 6234 17c1 08       		.byte	0x8
 6235 17c2 78       		.byte	0x78
 6236 17c3 00       		.byte	0
 6237 17c4 24       		.uleb128 0x24
 6238 17c5 B4030000 		.4byte	.LVL182
 6239 17c9 432B0000 		.4byte	0x2b43
 6240 17cd E7170000 		.4byte	0x17e7
 6241 17d1 25       		.uleb128 0x25
 6242 17d2 01       		.uleb128 0x1
 6243 17d3 52       		.byte	0x52
 6244 17d4 02       		.uleb128 0x2
 6245 17d5 08       		.byte	0x8
 6246 17d6 F0       		.byte	0xf0
 6247 17d7 25       		.uleb128 0x25
 6248 17d8 01       		.uleb128 0x1
 6249 17d9 51       		.byte	0x51
 6250 17da 02       		.uleb128 0x2
 6251 17db 08       		.byte	0x8
 6252 17dc 78       		.byte	0x78
 6253 17dd 25       		.uleb128 0x25
 6254 17de 01       		.uleb128 0x1
 6255 17df 50       		.byte	0x50
 6256 17e0 05       		.uleb128 0x5
 6257 17e1 03       		.byte	0x3
 6258 17e2 30010000 		.4byte	.LC30
 6259 17e6 00       		.byte	0
 6260 17e7 24       		.uleb128 0x24
 6261 17e8 BE030000 		.4byte	.LVL184
ARM GAS  C:\Users\IVYLIU~1\AppData\Local\Temp\ccWSfWRg.s 			page 125


 6262 17ec 082B0000 		.4byte	0x2b08
 6263 17f0 04180000 		.4byte	0x1804
 6264 17f4 25       		.uleb128 0x25
 6265 17f5 01       		.uleb128 0x1
 6266 17f6 51       		.byte	0x51
 6267 17f7 05       		.uleb128 0x5
 6268 17f8 03       		.byte	0x3
 6269 17f9 34010000 		.4byte	.LC31
 6270 17fd 25       		.uleb128 0x25
 6271 17fe 01       		.uleb128 0x1
 6272 17ff 50       		.byte	0x50
 6273 1800 02       		.uleb128 0x2
 6274 1801 74       		.byte	0x74
 6275 1802 00       		.sleb128 0
 6276 1803 00       		.byte	0
 6277 1804 24       		.uleb128 0x24
 6278 1805 CC030000 		.4byte	.LVL185
 6279 1809 222B0000 		.4byte	0x2b22
 6280 180d 28180000 		.4byte	0x1828
 6281 1811 25       		.uleb128 0x25
 6282 1812 01       		.uleb128 0x1
 6283 1813 53       		.byte	0x53
 6284 1814 01       		.uleb128 0x1
 6285 1815 38       		.byte	0x38
 6286 1816 25       		.uleb128 0x25
 6287 1817 01       		.uleb128 0x1
 6288 1818 52       		.byte	0x52
 6289 1819 01       		.uleb128 0x1
 6290 181a 3C       		.byte	0x3c
 6291 181b 25       		.uleb128 0x25
 6292 181c 01       		.uleb128 0x1
 6293 181d 51       		.byte	0x51
 6294 181e 02       		.uleb128 0x2
 6295 181f 08       		.byte	0x8
 6296 1820 78       		.byte	0x78
 6297 1821 25       		.uleb128 0x25
 6298 1822 01       		.uleb128 0x1
 6299 1823 50       		.byte	0x50
 6300 1824 02       		.uleb128 0x2
 6301 1825 08       		.byte	0x8
 6302 1826 78       		.byte	0x78
 6303 1827 00       		.byte	0
 6304 1828 24       		.uleb128 0x24
 6305 1829 D6030000 		.4byte	.LVL186
 6306 182d 432B0000 		.4byte	0x2b43
 6307 1831 4B180000 		.4byte	0x184b
 6308 1835 25       		.uleb128 0x25
 6309 1836 01       		.uleb128 0x1
 6310 1837 52       		.byte	0x52
 6311 1838 02       		.uleb128 0x2
 6312 1839 08       		.byte	0x8
 6313 183a F0       		.byte	0xf0
 6314 183b 25       		.uleb128 0x25
 6315 183c 01       		.uleb128 0x1
 6316 183d 51       		.byte	0x51
 6317 183e 02       		.uleb128 0x2
 6318 183f 08       		.byte	0x8
ARM GAS  C:\Users\IVYLIU~1\AppData\Local\Temp\ccWSfWRg.s 			page 126


 6319 1840 78       		.byte	0x78
 6320 1841 25       		.uleb128 0x25
 6321 1842 01       		.uleb128 0x1
 6322 1843 50       		.byte	0x50
 6323 1844 05       		.uleb128 0x5
 6324 1845 03       		.byte	0x3
 6325 1846 34010000 		.4byte	.LC31
 6326 184a 00       		.byte	0
 6327 184b 27       		.uleb128 0x27
 6328 184c DC030000 		.4byte	.LVL187
 6329 1850 392A0000 		.4byte	0x2a39
 6330 1854 24       		.uleb128 0x24
 6331 1855 E6030000 		.4byte	.LVL188
 6332 1859 432B0000 		.4byte	0x2b43
 6333 185d 77180000 		.4byte	0x1877
 6334 1861 25       		.uleb128 0x25
 6335 1862 01       		.uleb128 0x1
 6336 1863 52       		.byte	0x52
 6337 1864 02       		.uleb128 0x2
 6338 1865 08       		.byte	0x8
 6339 1866 78       		.byte	0x78
 6340 1867 25       		.uleb128 0x25
 6341 1868 01       		.uleb128 0x1
 6342 1869 51       		.byte	0x51
 6343 186a 02       		.uleb128 0x2
 6344 186b 08       		.byte	0x8
 6345 186c 90       		.byte	0x90
 6346 186d 25       		.uleb128 0x25
 6347 186e 01       		.uleb128 0x1
 6348 186f 50       		.byte	0x50
 6349 1870 05       		.uleb128 0x5
 6350 1871 03       		.byte	0x3
 6351 1872 E4000000 		.4byte	.LC11
 6352 1876 00       		.byte	0
 6353 1877 24       		.uleb128 0x24
 6354 1878 F0030000 		.4byte	.LVL190
 6355 187c 082B0000 		.4byte	0x2b08
 6356 1880 94180000 		.4byte	0x1894
 6357 1884 25       		.uleb128 0x25
 6358 1885 01       		.uleb128 0x1
 6359 1886 51       		.byte	0x51
 6360 1887 05       		.uleb128 0x5
 6361 1888 03       		.byte	0x3
 6362 1889 38010000 		.4byte	.LC32
 6363 188d 25       		.uleb128 0x25
 6364 188e 01       		.uleb128 0x1
 6365 188f 50       		.byte	0x50
 6366 1890 02       		.uleb128 0x2
 6367 1891 74       		.byte	0x74
 6368 1892 00       		.sleb128 0
 6369 1893 00       		.byte	0
 6370 1894 24       		.uleb128 0x24
 6371 1895 FE030000 		.4byte	.LVL191
 6372 1899 222B0000 		.4byte	0x2b22
 6373 189d B8180000 		.4byte	0x18b8
 6374 18a1 25       		.uleb128 0x25
 6375 18a2 01       		.uleb128 0x1
ARM GAS  C:\Users\IVYLIU~1\AppData\Local\Temp\ccWSfWRg.s 			page 127


 6376 18a3 53       		.byte	0x53
 6377 18a4 01       		.uleb128 0x1
 6378 18a5 38       		.byte	0x38
 6379 18a6 25       		.uleb128 0x25
 6380 18a7 01       		.uleb128 0x1
 6381 18a8 52       		.byte	0x52
 6382 18a9 01       		.uleb128 0x1
 6383 18aa 3C       		.byte	0x3c
 6384 18ab 25       		.uleb128 0x25
 6385 18ac 01       		.uleb128 0x1
 6386 18ad 51       		.byte	0x51
 6387 18ae 02       		.uleb128 0x2
 6388 18af 08       		.byte	0x8
 6389 18b0 78       		.byte	0x78
 6390 18b1 25       		.uleb128 0x25
 6391 18b2 01       		.uleb128 0x1
 6392 18b3 50       		.byte	0x50
 6393 18b4 02       		.uleb128 0x2
 6394 18b5 08       		.byte	0x8
 6395 18b6 78       		.byte	0x78
 6396 18b7 00       		.byte	0
 6397 18b8 24       		.uleb128 0x24
 6398 18b9 08040000 		.4byte	.LVL192
 6399 18bd 432B0000 		.4byte	0x2b43
 6400 18c1 DB180000 		.4byte	0x18db
 6401 18c5 25       		.uleb128 0x25
 6402 18c6 01       		.uleb128 0x1
 6403 18c7 52       		.byte	0x52
 6404 18c8 02       		.uleb128 0x2
 6405 18c9 08       		.byte	0x8
 6406 18ca F0       		.byte	0xf0
 6407 18cb 25       		.uleb128 0x25
 6408 18cc 01       		.uleb128 0x1
 6409 18cd 51       		.byte	0x51
 6410 18ce 02       		.uleb128 0x2
 6411 18cf 08       		.byte	0x8
 6412 18d0 78       		.byte	0x78
 6413 18d1 25       		.uleb128 0x25
 6414 18d2 01       		.uleb128 0x1
 6415 18d3 50       		.byte	0x50
 6416 18d4 05       		.uleb128 0x5
 6417 18d5 03       		.byte	0x3
 6418 18d6 38010000 		.4byte	.LC32
 6419 18da 00       		.byte	0
 6420 18db 24       		.uleb128 0x24
 6421 18dc 12040000 		.4byte	.LVL194
 6422 18e0 082B0000 		.4byte	0x2b08
 6423 18e4 F8180000 		.4byte	0x18f8
 6424 18e8 25       		.uleb128 0x25
 6425 18e9 01       		.uleb128 0x1
 6426 18ea 51       		.byte	0x51
 6427 18eb 05       		.uleb128 0x5
 6428 18ec 03       		.byte	0x3
 6429 18ed 3C010000 		.4byte	.LC33
 6430 18f1 25       		.uleb128 0x25
 6431 18f2 01       		.uleb128 0x1
 6432 18f3 50       		.byte	0x50
ARM GAS  C:\Users\IVYLIU~1\AppData\Local\Temp\ccWSfWRg.s 			page 128


 6433 18f4 02       		.uleb128 0x2
 6434 18f5 74       		.byte	0x74
 6435 18f6 00       		.sleb128 0
 6436 18f7 00       		.byte	0
 6437 18f8 24       		.uleb128 0x24
 6438 18f9 20040000 		.4byte	.LVL195
 6439 18fd 222B0000 		.4byte	0x2b22
 6440 1901 1C190000 		.4byte	0x191c
 6441 1905 25       		.uleb128 0x25
 6442 1906 01       		.uleb128 0x1
 6443 1907 53       		.byte	0x53
 6444 1908 01       		.uleb128 0x1
 6445 1909 38       		.byte	0x38
 6446 190a 25       		.uleb128 0x25
 6447 190b 01       		.uleb128 0x1
 6448 190c 52       		.byte	0x52
 6449 190d 01       		.uleb128 0x1
 6450 190e 3C       		.byte	0x3c
 6451 190f 25       		.uleb128 0x25
 6452 1910 01       		.uleb128 0x1
 6453 1911 51       		.byte	0x51
 6454 1912 02       		.uleb128 0x2
 6455 1913 08       		.byte	0x8
 6456 1914 7F       		.byte	0x7f
 6457 1915 25       		.uleb128 0x25
 6458 1916 01       		.uleb128 0x1
 6459 1917 50       		.byte	0x50
 6460 1918 02       		.uleb128 0x2
 6461 1919 08       		.byte	0x8
 6462 191a 78       		.byte	0x78
 6463 191b 00       		.byte	0
 6464 191c 24       		.uleb128 0x24
 6465 191d 2A040000 		.4byte	.LVL196
 6466 1921 432B0000 		.4byte	0x2b43
 6467 1925 3F190000 		.4byte	0x193f
 6468 1929 25       		.uleb128 0x25
 6469 192a 01       		.uleb128 0x1
 6470 192b 52       		.byte	0x52
 6471 192c 02       		.uleb128 0x2
 6472 192d 08       		.byte	0x8
 6473 192e F0       		.byte	0xf0
 6474 192f 25       		.uleb128 0x25
 6475 1930 01       		.uleb128 0x1
 6476 1931 51       		.byte	0x51
 6477 1932 02       		.uleb128 0x2
 6478 1933 08       		.byte	0x8
 6479 1934 78       		.byte	0x78
 6480 1935 25       		.uleb128 0x25
 6481 1936 01       		.uleb128 0x1
 6482 1937 50       		.byte	0x50
 6483 1938 05       		.uleb128 0x5
 6484 1939 03       		.byte	0x3
 6485 193a 3C010000 		.4byte	.LC33
 6486 193e 00       		.byte	0
 6487 193f 27       		.uleb128 0x27
 6488 1940 30040000 		.4byte	.LVL197
 6489 1944 392A0000 		.4byte	0x2a39
ARM GAS  C:\Users\IVYLIU~1\AppData\Local\Temp\ccWSfWRg.s 			page 129


 6490 1948 24       		.uleb128 0x24
 6491 1949 3A040000 		.4byte	.LVL198
 6492 194d 432B0000 		.4byte	0x2b43
 6493 1951 6B190000 		.4byte	0x196b
 6494 1955 25       		.uleb128 0x25
 6495 1956 01       		.uleb128 0x1
 6496 1957 52       		.byte	0x52
 6497 1958 02       		.uleb128 0x2
 6498 1959 08       		.byte	0x8
 6499 195a 7F       		.byte	0x7f
 6500 195b 25       		.uleb128 0x25
 6501 195c 01       		.uleb128 0x1
 6502 195d 51       		.byte	0x51
 6503 195e 02       		.uleb128 0x2
 6504 195f 08       		.byte	0x8
 6505 1960 90       		.byte	0x90
 6506 1961 25       		.uleb128 0x25
 6507 1962 01       		.uleb128 0x1
 6508 1963 50       		.byte	0x50
 6509 1964 05       		.uleb128 0x5
 6510 1965 03       		.byte	0x3
 6511 1966 E4000000 		.4byte	.LC11
 6512 196a 00       		.byte	0
 6513 196b 24       		.uleb128 0x24
 6514 196c 44040000 		.4byte	.LVL200
 6515 1970 082B0000 		.4byte	0x2b08
 6516 1974 88190000 		.4byte	0x1988
 6517 1978 25       		.uleb128 0x25
 6518 1979 01       		.uleb128 0x1
 6519 197a 51       		.byte	0x51
 6520 197b 05       		.uleb128 0x5
 6521 197c 03       		.byte	0x3
 6522 197d 40010000 		.4byte	.LC34
 6523 1981 25       		.uleb128 0x25
 6524 1982 01       		.uleb128 0x1
 6525 1983 50       		.byte	0x50
 6526 1984 02       		.uleb128 0x2
 6527 1985 74       		.byte	0x74
 6528 1986 00       		.sleb128 0
 6529 1987 00       		.byte	0
 6530 1988 24       		.uleb128 0x24
 6531 1989 52040000 		.4byte	.LVL201
 6532 198d 222B0000 		.4byte	0x2b22
 6533 1991 AC190000 		.4byte	0x19ac
 6534 1995 25       		.uleb128 0x25
 6535 1996 01       		.uleb128 0x1
 6536 1997 53       		.byte	0x53
 6537 1998 01       		.uleb128 0x1
 6538 1999 38       		.byte	0x38
 6539 199a 25       		.uleb128 0x25
 6540 199b 01       		.uleb128 0x1
 6541 199c 52       		.byte	0x52
 6542 199d 01       		.uleb128 0x1
 6543 199e 3C       		.byte	0x3c
 6544 199f 25       		.uleb128 0x25
 6545 19a0 01       		.uleb128 0x1
 6546 19a1 51       		.byte	0x51
ARM GAS  C:\Users\IVYLIU~1\AppData\Local\Temp\ccWSfWRg.s 			page 130


 6547 19a2 02       		.uleb128 0x2
 6548 19a3 08       		.byte	0x8
 6549 19a4 7F       		.byte	0x7f
 6550 19a5 25       		.uleb128 0x25
 6551 19a6 01       		.uleb128 0x1
 6552 19a7 50       		.byte	0x50
 6553 19a8 02       		.uleb128 0x2
 6554 19a9 08       		.byte	0x8
 6555 19aa 78       		.byte	0x78
 6556 19ab 00       		.byte	0
 6557 19ac 24       		.uleb128 0x24
 6558 19ad 5C040000 		.4byte	.LVL202
 6559 19b1 432B0000 		.4byte	0x2b43
 6560 19b5 CF190000 		.4byte	0x19cf
 6561 19b9 25       		.uleb128 0x25
 6562 19ba 01       		.uleb128 0x1
 6563 19bb 52       		.byte	0x52
 6564 19bc 02       		.uleb128 0x2
 6565 19bd 08       		.byte	0x8
 6566 19be F0       		.byte	0xf0
 6567 19bf 25       		.uleb128 0x25
 6568 19c0 01       		.uleb128 0x1
 6569 19c1 51       		.byte	0x51
 6570 19c2 02       		.uleb128 0x2
 6571 19c3 08       		.byte	0x8
 6572 19c4 78       		.byte	0x78
 6573 19c5 25       		.uleb128 0x25
 6574 19c6 01       		.uleb128 0x1
 6575 19c7 50       		.byte	0x50
 6576 19c8 05       		.uleb128 0x5
 6577 19c9 03       		.byte	0x3
 6578 19ca 40010000 		.4byte	.LC34
 6579 19ce 00       		.byte	0
 6580 19cf 24       		.uleb128 0x24
 6581 19d0 66040000 		.4byte	.LVL204
 6582 19d4 082B0000 		.4byte	0x2b08
 6583 19d8 EC190000 		.4byte	0x19ec
 6584 19dc 25       		.uleb128 0x25
 6585 19dd 01       		.uleb128 0x1
 6586 19de 51       		.byte	0x51
 6587 19df 05       		.uleb128 0x5
 6588 19e0 03       		.byte	0x3
 6589 19e1 44010000 		.4byte	.LC35
 6590 19e5 25       		.uleb128 0x25
 6591 19e6 01       		.uleb128 0x1
 6592 19e7 50       		.byte	0x50
 6593 19e8 02       		.uleb128 0x2
 6594 19e9 74       		.byte	0x74
 6595 19ea 00       		.sleb128 0
 6596 19eb 00       		.byte	0
 6597 19ec 24       		.uleb128 0x24
 6598 19ed 74040000 		.4byte	.LVL205
 6599 19f1 222B0000 		.4byte	0x2b22
 6600 19f5 101A0000 		.4byte	0x1a10
 6601 19f9 25       		.uleb128 0x25
 6602 19fa 01       		.uleb128 0x1
 6603 19fb 53       		.byte	0x53
ARM GAS  C:\Users\IVYLIU~1\AppData\Local\Temp\ccWSfWRg.s 			page 131


 6604 19fc 01       		.uleb128 0x1
 6605 19fd 38       		.byte	0x38
 6606 19fe 25       		.uleb128 0x25
 6607 19ff 01       		.uleb128 0x1
 6608 1a00 52       		.byte	0x52
 6609 1a01 01       		.uleb128 0x1
 6610 1a02 3C       		.byte	0x3c
 6611 1a03 25       		.uleb128 0x25
 6612 1a04 01       		.uleb128 0x1
 6613 1a05 51       		.byte	0x51
 6614 1a06 02       		.uleb128 0x2
 6615 1a07 08       		.byte	0x8
 6616 1a08 87       		.byte	0x87
 6617 1a09 25       		.uleb128 0x25
 6618 1a0a 01       		.uleb128 0x1
 6619 1a0b 50       		.byte	0x50
 6620 1a0c 02       		.uleb128 0x2
 6621 1a0d 08       		.byte	0x8
 6622 1a0e 78       		.byte	0x78
 6623 1a0f 00       		.byte	0
 6624 1a10 24       		.uleb128 0x24
 6625 1a11 7E040000 		.4byte	.LVL206
 6626 1a15 432B0000 		.4byte	0x2b43
 6627 1a19 331A0000 		.4byte	0x1a33
 6628 1a1d 25       		.uleb128 0x25
 6629 1a1e 01       		.uleb128 0x1
 6630 1a1f 52       		.byte	0x52
 6631 1a20 02       		.uleb128 0x2
 6632 1a21 08       		.byte	0x8
 6633 1a22 F0       		.byte	0xf0
 6634 1a23 25       		.uleb128 0x25
 6635 1a24 01       		.uleb128 0x1
 6636 1a25 51       		.byte	0x51
 6637 1a26 02       		.uleb128 0x2
 6638 1a27 08       		.byte	0x8
 6639 1a28 78       		.byte	0x78
 6640 1a29 25       		.uleb128 0x25
 6641 1a2a 01       		.uleb128 0x1
 6642 1a2b 50       		.byte	0x50
 6643 1a2c 05       		.uleb128 0x5
 6644 1a2d 03       		.byte	0x3
 6645 1a2e 44010000 		.4byte	.LC35
 6646 1a32 00       		.byte	0
 6647 1a33 27       		.uleb128 0x27
 6648 1a34 84040000 		.4byte	.LVL207
 6649 1a38 392A0000 		.4byte	0x2a39
 6650 1a3c 24       		.uleb128 0x24
 6651 1a3d 8E040000 		.4byte	.LVL208
 6652 1a41 432B0000 		.4byte	0x2b43
 6653 1a45 5F1A0000 		.4byte	0x1a5f
 6654 1a49 25       		.uleb128 0x25
 6655 1a4a 01       		.uleb128 0x1
 6656 1a4b 52       		.byte	0x52
 6657 1a4c 02       		.uleb128 0x2
 6658 1a4d 08       		.byte	0x8
 6659 1a4e 87       		.byte	0x87
 6660 1a4f 25       		.uleb128 0x25
ARM GAS  C:\Users\IVYLIU~1\AppData\Local\Temp\ccWSfWRg.s 			page 132


 6661 1a50 01       		.uleb128 0x1
 6662 1a51 51       		.byte	0x51
 6663 1a52 02       		.uleb128 0x2
 6664 1a53 08       		.byte	0x8
 6665 1a54 90       		.byte	0x90
 6666 1a55 25       		.uleb128 0x25
 6667 1a56 01       		.uleb128 0x1
 6668 1a57 50       		.byte	0x50
 6669 1a58 05       		.uleb128 0x5
 6670 1a59 03       		.byte	0x3
 6671 1a5a E4000000 		.4byte	.LC11
 6672 1a5e 00       		.byte	0
 6673 1a5f 24       		.uleb128 0x24
 6674 1a60 98040000 		.4byte	.LVL210
 6675 1a64 082B0000 		.4byte	0x2b08
 6676 1a68 7C1A0000 		.4byte	0x1a7c
 6677 1a6c 25       		.uleb128 0x25
 6678 1a6d 01       		.uleb128 0x1
 6679 1a6e 51       		.byte	0x51
 6680 1a6f 05       		.uleb128 0x5
 6681 1a70 03       		.byte	0x3
 6682 1a71 48010000 		.4byte	.LC36
 6683 1a75 25       		.uleb128 0x25
 6684 1a76 01       		.uleb128 0x1
 6685 1a77 50       		.byte	0x50
 6686 1a78 02       		.uleb128 0x2
 6687 1a79 74       		.byte	0x74
 6688 1a7a 00       		.sleb128 0
 6689 1a7b 00       		.byte	0
 6690 1a7c 24       		.uleb128 0x24
 6691 1a7d A6040000 		.4byte	.LVL211
 6692 1a81 222B0000 		.4byte	0x2b22
 6693 1a85 A01A0000 		.4byte	0x1aa0
 6694 1a89 25       		.uleb128 0x25
 6695 1a8a 01       		.uleb128 0x1
 6696 1a8b 53       		.byte	0x53
 6697 1a8c 01       		.uleb128 0x1
 6698 1a8d 38       		.byte	0x38
 6699 1a8e 25       		.uleb128 0x25
 6700 1a8f 01       		.uleb128 0x1
 6701 1a90 52       		.byte	0x52
 6702 1a91 01       		.uleb128 0x1
 6703 1a92 3C       		.byte	0x3c
 6704 1a93 25       		.uleb128 0x25
 6705 1a94 01       		.uleb128 0x1
 6706 1a95 51       		.byte	0x51
 6707 1a96 02       		.uleb128 0x2
 6708 1a97 08       		.byte	0x8
 6709 1a98 87       		.byte	0x87
 6710 1a99 25       		.uleb128 0x25
 6711 1a9a 01       		.uleb128 0x1
 6712 1a9b 50       		.byte	0x50
 6713 1a9c 02       		.uleb128 0x2
 6714 1a9d 08       		.byte	0x8
 6715 1a9e 78       		.byte	0x78
 6716 1a9f 00       		.byte	0
 6717 1aa0 24       		.uleb128 0x24
ARM GAS  C:\Users\IVYLIU~1\AppData\Local\Temp\ccWSfWRg.s 			page 133


 6718 1aa1 B0040000 		.4byte	.LVL212
 6719 1aa5 432B0000 		.4byte	0x2b43
 6720 1aa9 C31A0000 		.4byte	0x1ac3
 6721 1aad 25       		.uleb128 0x25
 6722 1aae 01       		.uleb128 0x1
 6723 1aaf 52       		.byte	0x52
 6724 1ab0 02       		.uleb128 0x2
 6725 1ab1 08       		.byte	0x8
 6726 1ab2 F0       		.byte	0xf0
 6727 1ab3 25       		.uleb128 0x25
 6728 1ab4 01       		.uleb128 0x1
 6729 1ab5 51       		.byte	0x51
 6730 1ab6 02       		.uleb128 0x2
 6731 1ab7 08       		.byte	0x8
 6732 1ab8 78       		.byte	0x78
 6733 1ab9 25       		.uleb128 0x25
 6734 1aba 01       		.uleb128 0x1
 6735 1abb 50       		.byte	0x50
 6736 1abc 05       		.uleb128 0x5
 6737 1abd 03       		.byte	0x3
 6738 1abe 48010000 		.4byte	.LC36
 6739 1ac2 00       		.byte	0
 6740 1ac3 24       		.uleb128 0x24
 6741 1ac4 BA040000 		.4byte	.LVL214
 6742 1ac8 082B0000 		.4byte	0x2b08
 6743 1acc E01A0000 		.4byte	0x1ae0
 6744 1ad0 25       		.uleb128 0x25
 6745 1ad1 01       		.uleb128 0x1
 6746 1ad2 51       		.byte	0x51
 6747 1ad3 05       		.uleb128 0x5
 6748 1ad4 03       		.byte	0x3
 6749 1ad5 4C010000 		.4byte	.LC37
 6750 1ad9 25       		.uleb128 0x25
 6751 1ada 01       		.uleb128 0x1
 6752 1adb 50       		.byte	0x50
 6753 1adc 02       		.uleb128 0x2
 6754 1add 74       		.byte	0x74
 6755 1ade 00       		.sleb128 0
 6756 1adf 00       		.byte	0
 6757 1ae0 24       		.uleb128 0x24
 6758 1ae1 C8040000 		.4byte	.LVL215
 6759 1ae5 222B0000 		.4byte	0x2b22
 6760 1ae9 041B0000 		.4byte	0x1b04
 6761 1aed 25       		.uleb128 0x25
 6762 1aee 01       		.uleb128 0x1
 6763 1aef 53       		.byte	0x53
 6764 1af0 01       		.uleb128 0x1
 6765 1af1 38       		.byte	0x38
 6766 1af2 25       		.uleb128 0x25
 6767 1af3 01       		.uleb128 0x1
 6768 1af4 52       		.byte	0x52
 6769 1af5 01       		.uleb128 0x1
 6770 1af6 3C       		.byte	0x3c
 6771 1af7 25       		.uleb128 0x25
 6772 1af8 01       		.uleb128 0x1
 6773 1af9 51       		.byte	0x51
 6774 1afa 02       		.uleb128 0x2
ARM GAS  C:\Users\IVYLIU~1\AppData\Local\Temp\ccWSfWRg.s 			page 134


 6775 1afb 08       		.byte	0x8
 6776 1afc 8E       		.byte	0x8e
 6777 1afd 25       		.uleb128 0x25
 6778 1afe 01       		.uleb128 0x1
 6779 1aff 50       		.byte	0x50
 6780 1b00 02       		.uleb128 0x2
 6781 1b01 08       		.byte	0x8
 6782 1b02 78       		.byte	0x78
 6783 1b03 00       		.byte	0
 6784 1b04 24       		.uleb128 0x24
 6785 1b05 D2040000 		.4byte	.LVL216
 6786 1b09 432B0000 		.4byte	0x2b43
 6787 1b0d 271B0000 		.4byte	0x1b27
 6788 1b11 25       		.uleb128 0x25
 6789 1b12 01       		.uleb128 0x1
 6790 1b13 52       		.byte	0x52
 6791 1b14 02       		.uleb128 0x2
 6792 1b15 08       		.byte	0x8
 6793 1b16 F0       		.byte	0xf0
 6794 1b17 25       		.uleb128 0x25
 6795 1b18 01       		.uleb128 0x1
 6796 1b19 51       		.byte	0x51
 6797 1b1a 02       		.uleb128 0x2
 6798 1b1b 08       		.byte	0x8
 6799 1b1c 78       		.byte	0x78
 6800 1b1d 25       		.uleb128 0x25
 6801 1b1e 01       		.uleb128 0x1
 6802 1b1f 50       		.byte	0x50
 6803 1b20 05       		.uleb128 0x5
 6804 1b21 03       		.byte	0x3
 6805 1b22 4C010000 		.4byte	.LC37
 6806 1b26 00       		.byte	0
 6807 1b27 24       		.uleb128 0x24
 6808 1b28 DC040000 		.4byte	.LVL218
 6809 1b2c 082B0000 		.4byte	0x2b08
 6810 1b30 441B0000 		.4byte	0x1b44
 6811 1b34 25       		.uleb128 0x25
 6812 1b35 01       		.uleb128 0x1
 6813 1b36 51       		.byte	0x51
 6814 1b37 05       		.uleb128 0x5
 6815 1b38 03       		.byte	0x3
 6816 1b39 50010000 		.4byte	.LC38
 6817 1b3d 25       		.uleb128 0x25
 6818 1b3e 01       		.uleb128 0x1
 6819 1b3f 50       		.byte	0x50
 6820 1b40 02       		.uleb128 0x2
 6821 1b41 74       		.byte	0x74
 6822 1b42 00       		.sleb128 0
 6823 1b43 00       		.byte	0
 6824 1b44 24       		.uleb128 0x24
 6825 1b45 EA040000 		.4byte	.LVL219
 6826 1b49 222B0000 		.4byte	0x2b22
 6827 1b4d 681B0000 		.4byte	0x1b68
 6828 1b51 25       		.uleb128 0x25
 6829 1b52 01       		.uleb128 0x1
 6830 1b53 53       		.byte	0x53
 6831 1b54 01       		.uleb128 0x1
ARM GAS  C:\Users\IVYLIU~1\AppData\Local\Temp\ccWSfWRg.s 			page 135


 6832 1b55 38       		.byte	0x38
 6833 1b56 25       		.uleb128 0x25
 6834 1b57 01       		.uleb128 0x1
 6835 1b58 52       		.byte	0x52
 6836 1b59 01       		.uleb128 0x1
 6837 1b5a 3C       		.byte	0x3c
 6838 1b5b 25       		.uleb128 0x25
 6839 1b5c 01       		.uleb128 0x1
 6840 1b5d 51       		.byte	0x51
 6841 1b5e 02       		.uleb128 0x2
 6842 1b5f 08       		.byte	0x8
 6843 1b60 96       		.byte	0x96
 6844 1b61 25       		.uleb128 0x25
 6845 1b62 01       		.uleb128 0x1
 6846 1b63 50       		.byte	0x50
 6847 1b64 02       		.uleb128 0x2
 6848 1b65 08       		.byte	0x8
 6849 1b66 78       		.byte	0x78
 6850 1b67 00       		.byte	0
 6851 1b68 24       		.uleb128 0x24
 6852 1b69 F4040000 		.4byte	.LVL220
 6853 1b6d 432B0000 		.4byte	0x2b43
 6854 1b71 8B1B0000 		.4byte	0x1b8b
 6855 1b75 25       		.uleb128 0x25
 6856 1b76 01       		.uleb128 0x1
 6857 1b77 52       		.byte	0x52
 6858 1b78 02       		.uleb128 0x2
 6859 1b79 08       		.byte	0x8
 6860 1b7a F0       		.byte	0xf0
 6861 1b7b 25       		.uleb128 0x25
 6862 1b7c 01       		.uleb128 0x1
 6863 1b7d 51       		.byte	0x51
 6864 1b7e 02       		.uleb128 0x2
 6865 1b7f 08       		.byte	0x8
 6866 1b80 78       		.byte	0x78
 6867 1b81 25       		.uleb128 0x25
 6868 1b82 01       		.uleb128 0x1
 6869 1b83 50       		.byte	0x50
 6870 1b84 05       		.uleb128 0x5
 6871 1b85 03       		.byte	0x3
 6872 1b86 50010000 		.4byte	.LC38
 6873 1b8a 00       		.byte	0
 6874 1b8b 27       		.uleb128 0x27
 6875 1b8c FA040000 		.4byte	.LVL221
 6876 1b90 392A0000 		.4byte	0x2a39
 6877 1b94 24       		.uleb128 0x24
 6878 1b95 04050000 		.4byte	.LVL222
 6879 1b99 432B0000 		.4byte	0x2b43
 6880 1b9d B71B0000 		.4byte	0x1bb7
 6881 1ba1 25       		.uleb128 0x25
 6882 1ba2 01       		.uleb128 0x1
 6883 1ba3 52       		.byte	0x52
 6884 1ba4 02       		.uleb128 0x2
 6885 1ba5 08       		.byte	0x8
 6886 1ba6 96       		.byte	0x96
 6887 1ba7 25       		.uleb128 0x25
 6888 1ba8 01       		.uleb128 0x1
ARM GAS  C:\Users\IVYLIU~1\AppData\Local\Temp\ccWSfWRg.s 			page 136


 6889 1ba9 51       		.byte	0x51
 6890 1baa 02       		.uleb128 0x2
 6891 1bab 08       		.byte	0x8
 6892 1bac 90       		.byte	0x90
 6893 1bad 25       		.uleb128 0x25
 6894 1bae 01       		.uleb128 0x1
 6895 1baf 50       		.byte	0x50
 6896 1bb0 05       		.uleb128 0x5
 6897 1bb1 03       		.byte	0x3
 6898 1bb2 E4000000 		.4byte	.LC11
 6899 1bb6 00       		.byte	0
 6900 1bb7 24       		.uleb128 0x24
 6901 1bb8 0E050000 		.4byte	.LVL224
 6902 1bbc 082B0000 		.4byte	0x2b08
 6903 1bc0 D41B0000 		.4byte	0x1bd4
 6904 1bc4 25       		.uleb128 0x25
 6905 1bc5 01       		.uleb128 0x1
 6906 1bc6 51       		.byte	0x51
 6907 1bc7 05       		.uleb128 0x5
 6908 1bc8 03       		.byte	0x3
 6909 1bc9 54010000 		.4byte	.LC39
 6910 1bcd 25       		.uleb128 0x25
 6911 1bce 01       		.uleb128 0x1
 6912 1bcf 50       		.byte	0x50
 6913 1bd0 02       		.uleb128 0x2
 6914 1bd1 74       		.byte	0x74
 6915 1bd2 00       		.sleb128 0
 6916 1bd3 00       		.byte	0
 6917 1bd4 24       		.uleb128 0x24
 6918 1bd5 1C050000 		.4byte	.LVL225
 6919 1bd9 222B0000 		.4byte	0x2b22
 6920 1bdd F81B0000 		.4byte	0x1bf8
 6921 1be1 25       		.uleb128 0x25
 6922 1be2 01       		.uleb128 0x1
 6923 1be3 53       		.byte	0x53
 6924 1be4 01       		.uleb128 0x1
 6925 1be5 38       		.byte	0x38
 6926 1be6 25       		.uleb128 0x25
 6927 1be7 01       		.uleb128 0x1
 6928 1be8 52       		.byte	0x52
 6929 1be9 01       		.uleb128 0x1
 6930 1bea 3C       		.byte	0x3c
 6931 1beb 25       		.uleb128 0x25
 6932 1bec 01       		.uleb128 0x1
 6933 1bed 51       		.byte	0x51
 6934 1bee 02       		.uleb128 0x2
 6935 1bef 08       		.byte	0x8
 6936 1bf0 96       		.byte	0x96
 6937 1bf1 25       		.uleb128 0x25
 6938 1bf2 01       		.uleb128 0x1
 6939 1bf3 50       		.byte	0x50
 6940 1bf4 02       		.uleb128 0x2
 6941 1bf5 08       		.byte	0x8
 6942 1bf6 78       		.byte	0x78
 6943 1bf7 00       		.byte	0
 6944 1bf8 24       		.uleb128 0x24
 6945 1bf9 26050000 		.4byte	.LVL226
ARM GAS  C:\Users\IVYLIU~1\AppData\Local\Temp\ccWSfWRg.s 			page 137


 6946 1bfd 432B0000 		.4byte	0x2b43
 6947 1c01 1B1C0000 		.4byte	0x1c1b
 6948 1c05 25       		.uleb128 0x25
 6949 1c06 01       		.uleb128 0x1
 6950 1c07 52       		.byte	0x52
 6951 1c08 02       		.uleb128 0x2
 6952 1c09 08       		.byte	0x8
 6953 1c0a F0       		.byte	0xf0
 6954 1c0b 25       		.uleb128 0x25
 6955 1c0c 01       		.uleb128 0x1
 6956 1c0d 51       		.byte	0x51
 6957 1c0e 02       		.uleb128 0x2
 6958 1c0f 08       		.byte	0x8
 6959 1c10 78       		.byte	0x78
 6960 1c11 25       		.uleb128 0x25
 6961 1c12 01       		.uleb128 0x1
 6962 1c13 50       		.byte	0x50
 6963 1c14 05       		.uleb128 0x5
 6964 1c15 03       		.byte	0x3
 6965 1c16 54010000 		.4byte	.LC39
 6966 1c1a 00       		.byte	0
 6967 1c1b 24       		.uleb128 0x24
 6968 1c1c 30050000 		.4byte	.LVL228
 6969 1c20 082B0000 		.4byte	0x2b08
 6970 1c24 381C0000 		.4byte	0x1c38
 6971 1c28 25       		.uleb128 0x25
 6972 1c29 01       		.uleb128 0x1
 6973 1c2a 51       		.byte	0x51
 6974 1c2b 05       		.uleb128 0x5
 6975 1c2c 03       		.byte	0x3
 6976 1c2d 58010000 		.4byte	.LC40
 6977 1c31 25       		.uleb128 0x25
 6978 1c32 01       		.uleb128 0x1
 6979 1c33 50       		.byte	0x50
 6980 1c34 02       		.uleb128 0x2
 6981 1c35 74       		.byte	0x74
 6982 1c36 00       		.sleb128 0
 6983 1c37 00       		.byte	0
 6984 1c38 24       		.uleb128 0x24
 6985 1c39 3E050000 		.4byte	.LVL229
 6986 1c3d 222B0000 		.4byte	0x2b22
 6987 1c41 5C1C0000 		.4byte	0x1c5c
 6988 1c45 25       		.uleb128 0x25
 6989 1c46 01       		.uleb128 0x1
 6990 1c47 53       		.byte	0x53
 6991 1c48 01       		.uleb128 0x1
 6992 1c49 38       		.byte	0x38
 6993 1c4a 25       		.uleb128 0x25
 6994 1c4b 01       		.uleb128 0x1
 6995 1c4c 52       		.byte	0x52
 6996 1c4d 01       		.uleb128 0x1
 6997 1c4e 3C       		.byte	0x3c
 6998 1c4f 25       		.uleb128 0x25
 6999 1c50 01       		.uleb128 0x1
 7000 1c51 51       		.byte	0x51
 7001 1c52 02       		.uleb128 0x2
 7002 1c53 08       		.byte	0x8
ARM GAS  C:\Users\IVYLIU~1\AppData\Local\Temp\ccWSfWRg.s 			page 138


 7003 1c54 9D       		.byte	0x9d
 7004 1c55 25       		.uleb128 0x25
 7005 1c56 01       		.uleb128 0x1
 7006 1c57 50       		.byte	0x50
 7007 1c58 02       		.uleb128 0x2
 7008 1c59 08       		.byte	0x8
 7009 1c5a 78       		.byte	0x78
 7010 1c5b 00       		.byte	0
 7011 1c5c 24       		.uleb128 0x24
 7012 1c5d 48050000 		.4byte	.LVL230
 7013 1c61 432B0000 		.4byte	0x2b43
 7014 1c65 7F1C0000 		.4byte	0x1c7f
 7015 1c69 25       		.uleb128 0x25
 7016 1c6a 01       		.uleb128 0x1
 7017 1c6b 52       		.byte	0x52
 7018 1c6c 02       		.uleb128 0x2
 7019 1c6d 08       		.byte	0x8
 7020 1c6e F0       		.byte	0xf0
 7021 1c6f 25       		.uleb128 0x25
 7022 1c70 01       		.uleb128 0x1
 7023 1c71 51       		.byte	0x51
 7024 1c72 02       		.uleb128 0x2
 7025 1c73 08       		.byte	0x8
 7026 1c74 78       		.byte	0x78
 7027 1c75 25       		.uleb128 0x25
 7028 1c76 01       		.uleb128 0x1
 7029 1c77 50       		.byte	0x50
 7030 1c78 05       		.uleb128 0x5
 7031 1c79 03       		.byte	0x3
 7032 1c7a 58010000 		.4byte	.LC40
 7033 1c7e 00       		.byte	0
 7034 1c7f 27       		.uleb128 0x27
 7035 1c80 4E050000 		.4byte	.LVL231
 7036 1c84 392A0000 		.4byte	0x2a39
 7037 1c88 24       		.uleb128 0x24
 7038 1c89 58050000 		.4byte	.LVL232
 7039 1c8d 432B0000 		.4byte	0x2b43
 7040 1c91 AB1C0000 		.4byte	0x1cab
 7041 1c95 25       		.uleb128 0x25
 7042 1c96 01       		.uleb128 0x1
 7043 1c97 52       		.byte	0x52
 7044 1c98 02       		.uleb128 0x2
 7045 1c99 08       		.byte	0x8
 7046 1c9a 9D       		.byte	0x9d
 7047 1c9b 25       		.uleb128 0x25
 7048 1c9c 01       		.uleb128 0x1
 7049 1c9d 51       		.byte	0x51
 7050 1c9e 02       		.uleb128 0x2
 7051 1c9f 08       		.byte	0x8
 7052 1ca0 90       		.byte	0x90
 7053 1ca1 25       		.uleb128 0x25
 7054 1ca2 01       		.uleb128 0x1
 7055 1ca3 50       		.byte	0x50
 7056 1ca4 05       		.uleb128 0x5
 7057 1ca5 03       		.byte	0x3
 7058 1ca6 E4000000 		.4byte	.LC11
 7059 1caa 00       		.byte	0
ARM GAS  C:\Users\IVYLIU~1\AppData\Local\Temp\ccWSfWRg.s 			page 139


 7060 1cab 24       		.uleb128 0x24
 7061 1cac 62050000 		.4byte	.LVL234
 7062 1cb0 082B0000 		.4byte	0x2b08
 7063 1cb4 C81C0000 		.4byte	0x1cc8
 7064 1cb8 25       		.uleb128 0x25
 7065 1cb9 01       		.uleb128 0x1
 7066 1cba 51       		.byte	0x51
 7067 1cbb 05       		.uleb128 0x5
 7068 1cbc 03       		.byte	0x3
 7069 1cbd 5C010000 		.4byte	.LC41
 7070 1cc1 25       		.uleb128 0x25
 7071 1cc2 01       		.uleb128 0x1
 7072 1cc3 50       		.byte	0x50
 7073 1cc4 02       		.uleb128 0x2
 7074 1cc5 74       		.byte	0x74
 7075 1cc6 00       		.sleb128 0
 7076 1cc7 00       		.byte	0
 7077 1cc8 24       		.uleb128 0x24
 7078 1cc9 70050000 		.4byte	.LVL235
 7079 1ccd 222B0000 		.4byte	0x2b22
 7080 1cd1 EC1C0000 		.4byte	0x1cec
 7081 1cd5 25       		.uleb128 0x25
 7082 1cd6 01       		.uleb128 0x1
 7083 1cd7 53       		.byte	0x53
 7084 1cd8 01       		.uleb128 0x1
 7085 1cd9 38       		.byte	0x38
 7086 1cda 25       		.uleb128 0x25
 7087 1cdb 01       		.uleb128 0x1
 7088 1cdc 52       		.byte	0x52
 7089 1cdd 01       		.uleb128 0x1
 7090 1cde 3C       		.byte	0x3c
 7091 1cdf 25       		.uleb128 0x25
 7092 1ce0 01       		.uleb128 0x1
 7093 1ce1 51       		.byte	0x51
 7094 1ce2 02       		.uleb128 0x2
 7095 1ce3 08       		.byte	0x8
 7096 1ce4 9D       		.byte	0x9d
 7097 1ce5 25       		.uleb128 0x25
 7098 1ce6 01       		.uleb128 0x1
 7099 1ce7 50       		.byte	0x50
 7100 1ce8 02       		.uleb128 0x2
 7101 1ce9 08       		.byte	0x8
 7102 1cea 78       		.byte	0x78
 7103 1ceb 00       		.byte	0
 7104 1cec 24       		.uleb128 0x24
 7105 1ced 7A050000 		.4byte	.LVL236
 7106 1cf1 432B0000 		.4byte	0x2b43
 7107 1cf5 0F1D0000 		.4byte	0x1d0f
 7108 1cf9 25       		.uleb128 0x25
 7109 1cfa 01       		.uleb128 0x1
 7110 1cfb 52       		.byte	0x52
 7111 1cfc 02       		.uleb128 0x2
 7112 1cfd 08       		.byte	0x8
 7113 1cfe F0       		.byte	0xf0
 7114 1cff 25       		.uleb128 0x25
 7115 1d00 01       		.uleb128 0x1
 7116 1d01 51       		.byte	0x51
ARM GAS  C:\Users\IVYLIU~1\AppData\Local\Temp\ccWSfWRg.s 			page 140


 7117 1d02 02       		.uleb128 0x2
 7118 1d03 08       		.byte	0x8
 7119 1d04 78       		.byte	0x78
 7120 1d05 25       		.uleb128 0x25
 7121 1d06 01       		.uleb128 0x1
 7122 1d07 50       		.byte	0x50
 7123 1d08 05       		.uleb128 0x5
 7124 1d09 03       		.byte	0x3
 7125 1d0a 5C010000 		.4byte	.LC41
 7126 1d0e 00       		.byte	0
 7127 1d0f 24       		.uleb128 0x24
 7128 1d10 84050000 		.4byte	.LVL238
 7129 1d14 082B0000 		.4byte	0x2b08
 7130 1d18 2C1D0000 		.4byte	0x1d2c
 7131 1d1c 25       		.uleb128 0x25
 7132 1d1d 01       		.uleb128 0x1
 7133 1d1e 51       		.byte	0x51
 7134 1d1f 05       		.uleb128 0x5
 7135 1d20 03       		.byte	0x3
 7136 1d21 60010000 		.4byte	.LC42
 7137 1d25 25       		.uleb128 0x25
 7138 1d26 01       		.uleb128 0x1
 7139 1d27 50       		.byte	0x50
 7140 1d28 02       		.uleb128 0x2
 7141 1d29 74       		.byte	0x74
 7142 1d2a 00       		.sleb128 0
 7143 1d2b 00       		.byte	0
 7144 1d2c 24       		.uleb128 0x24
 7145 1d2d 92050000 		.4byte	.LVL239
 7146 1d31 222B0000 		.4byte	0x2b22
 7147 1d35 501D0000 		.4byte	0x1d50
 7148 1d39 25       		.uleb128 0x25
 7149 1d3a 01       		.uleb128 0x1
 7150 1d3b 53       		.byte	0x53
 7151 1d3c 01       		.uleb128 0x1
 7152 1d3d 38       		.byte	0x38
 7153 1d3e 25       		.uleb128 0x25
 7154 1d3f 01       		.uleb128 0x1
 7155 1d40 52       		.byte	0x52
 7156 1d41 01       		.uleb128 0x1
 7157 1d42 3C       		.byte	0x3c
 7158 1d43 25       		.uleb128 0x25
 7159 1d44 01       		.uleb128 0x1
 7160 1d45 51       		.byte	0x51
 7161 1d46 02       		.uleb128 0x2
 7162 1d47 08       		.byte	0x8
 7163 1d48 A5       		.byte	0xa5
 7164 1d49 25       		.uleb128 0x25
 7165 1d4a 01       		.uleb128 0x1
 7166 1d4b 50       		.byte	0x50
 7167 1d4c 02       		.uleb128 0x2
 7168 1d4d 08       		.byte	0x8
 7169 1d4e 78       		.byte	0x78
 7170 1d4f 00       		.byte	0
 7171 1d50 24       		.uleb128 0x24
 7172 1d51 9C050000 		.4byte	.LVL240
 7173 1d55 432B0000 		.4byte	0x2b43
ARM GAS  C:\Users\IVYLIU~1\AppData\Local\Temp\ccWSfWRg.s 			page 141


 7174 1d59 731D0000 		.4byte	0x1d73
 7175 1d5d 25       		.uleb128 0x25
 7176 1d5e 01       		.uleb128 0x1
 7177 1d5f 52       		.byte	0x52
 7178 1d60 02       		.uleb128 0x2
 7179 1d61 08       		.byte	0x8
 7180 1d62 F0       		.byte	0xf0
 7181 1d63 25       		.uleb128 0x25
 7182 1d64 01       		.uleb128 0x1
 7183 1d65 51       		.byte	0x51
 7184 1d66 02       		.uleb128 0x2
 7185 1d67 08       		.byte	0x8
 7186 1d68 78       		.byte	0x78
 7187 1d69 25       		.uleb128 0x25
 7188 1d6a 01       		.uleb128 0x1
 7189 1d6b 50       		.byte	0x50
 7190 1d6c 05       		.uleb128 0x5
 7191 1d6d 03       		.byte	0x3
 7192 1d6e 60010000 		.4byte	.LC42
 7193 1d72 00       		.byte	0
 7194 1d73 24       		.uleb128 0x24
 7195 1d74 A6050000 		.4byte	.LVL242
 7196 1d78 082B0000 		.4byte	0x2b08
 7197 1d7c 901D0000 		.4byte	0x1d90
 7198 1d80 25       		.uleb128 0x25
 7199 1d81 01       		.uleb128 0x1
 7200 1d82 51       		.byte	0x51
 7201 1d83 05       		.uleb128 0x5
 7202 1d84 03       		.byte	0x3
 7203 1d85 64010000 		.4byte	.LC43
 7204 1d89 25       		.uleb128 0x25
 7205 1d8a 01       		.uleb128 0x1
 7206 1d8b 50       		.byte	0x50
 7207 1d8c 02       		.uleb128 0x2
 7208 1d8d 74       		.byte	0x74
 7209 1d8e 00       		.sleb128 0
 7210 1d8f 00       		.byte	0
 7211 1d90 24       		.uleb128 0x24
 7212 1d91 B4050000 		.4byte	.LVL243
 7213 1d95 222B0000 		.4byte	0x2b22
 7214 1d99 B41D0000 		.4byte	0x1db4
 7215 1d9d 25       		.uleb128 0x25
 7216 1d9e 01       		.uleb128 0x1
 7217 1d9f 53       		.byte	0x53
 7218 1da0 01       		.uleb128 0x1
 7219 1da1 38       		.byte	0x38
 7220 1da2 25       		.uleb128 0x25
 7221 1da3 01       		.uleb128 0x1
 7222 1da4 52       		.byte	0x52
 7223 1da5 01       		.uleb128 0x1
 7224 1da6 3C       		.byte	0x3c
 7225 1da7 25       		.uleb128 0x25
 7226 1da8 01       		.uleb128 0x1
 7227 1da9 51       		.byte	0x51
 7228 1daa 02       		.uleb128 0x2
 7229 1dab 08       		.byte	0x8
 7230 1dac AC       		.byte	0xac
ARM GAS  C:\Users\IVYLIU~1\AppData\Local\Temp\ccWSfWRg.s 			page 142


 7231 1dad 25       		.uleb128 0x25
 7232 1dae 01       		.uleb128 0x1
 7233 1daf 50       		.byte	0x50
 7234 1db0 02       		.uleb128 0x2
 7235 1db1 08       		.byte	0x8
 7236 1db2 78       		.byte	0x78
 7237 1db3 00       		.byte	0
 7238 1db4 24       		.uleb128 0x24
 7239 1db5 BE050000 		.4byte	.LVL244
 7240 1db9 432B0000 		.4byte	0x2b43
 7241 1dbd D71D0000 		.4byte	0x1dd7
 7242 1dc1 25       		.uleb128 0x25
 7243 1dc2 01       		.uleb128 0x1
 7244 1dc3 52       		.byte	0x52
 7245 1dc4 02       		.uleb128 0x2
 7246 1dc5 08       		.byte	0x8
 7247 1dc6 F0       		.byte	0xf0
 7248 1dc7 25       		.uleb128 0x25
 7249 1dc8 01       		.uleb128 0x1
 7250 1dc9 51       		.byte	0x51
 7251 1dca 02       		.uleb128 0x2
 7252 1dcb 08       		.byte	0x8
 7253 1dcc 78       		.byte	0x78
 7254 1dcd 25       		.uleb128 0x25
 7255 1dce 01       		.uleb128 0x1
 7256 1dcf 50       		.byte	0x50
 7257 1dd0 05       		.uleb128 0x5
 7258 1dd1 03       		.byte	0x3
 7259 1dd2 64010000 		.4byte	.LC43
 7260 1dd6 00       		.byte	0
 7261 1dd7 27       		.uleb128 0x27
 7262 1dd8 C4050000 		.4byte	.LVL245
 7263 1ddc 392A0000 		.4byte	0x2a39
 7264 1de0 24       		.uleb128 0x24
 7265 1de1 CE050000 		.4byte	.LVL246
 7266 1de5 432B0000 		.4byte	0x2b43
 7267 1de9 031E0000 		.4byte	0x1e03
 7268 1ded 25       		.uleb128 0x25
 7269 1dee 01       		.uleb128 0x1
 7270 1def 52       		.byte	0x52
 7271 1df0 02       		.uleb128 0x2
 7272 1df1 08       		.byte	0x8
 7273 1df2 AC       		.byte	0xac
 7274 1df3 25       		.uleb128 0x25
 7275 1df4 01       		.uleb128 0x1
 7276 1df5 51       		.byte	0x51
 7277 1df6 02       		.uleb128 0x2
 7278 1df7 08       		.byte	0x8
 7279 1df8 90       		.byte	0x90
 7280 1df9 25       		.uleb128 0x25
 7281 1dfa 01       		.uleb128 0x1
 7282 1dfb 50       		.byte	0x50
 7283 1dfc 05       		.uleb128 0x5
 7284 1dfd 03       		.byte	0x3
 7285 1dfe E4000000 		.4byte	.LC11
 7286 1e02 00       		.byte	0
 7287 1e03 24       		.uleb128 0x24
ARM GAS  C:\Users\IVYLIU~1\AppData\Local\Temp\ccWSfWRg.s 			page 143


 7288 1e04 D8050000 		.4byte	.LVL248
 7289 1e08 082B0000 		.4byte	0x2b08
 7290 1e0c 201E0000 		.4byte	0x1e20
 7291 1e10 25       		.uleb128 0x25
 7292 1e11 01       		.uleb128 0x1
 7293 1e12 51       		.byte	0x51
 7294 1e13 05       		.uleb128 0x5
 7295 1e14 03       		.byte	0x3
 7296 1e15 68010000 		.4byte	.LC44
 7297 1e19 25       		.uleb128 0x25
 7298 1e1a 01       		.uleb128 0x1
 7299 1e1b 50       		.byte	0x50
 7300 1e1c 02       		.uleb128 0x2
 7301 1e1d 74       		.byte	0x74
 7302 1e1e 00       		.sleb128 0
 7303 1e1f 00       		.byte	0
 7304 1e20 24       		.uleb128 0x24
 7305 1e21 E6050000 		.4byte	.LVL249
 7306 1e25 222B0000 		.4byte	0x2b22
 7307 1e29 441E0000 		.4byte	0x1e44
 7308 1e2d 25       		.uleb128 0x25
 7309 1e2e 01       		.uleb128 0x1
 7310 1e2f 53       		.byte	0x53
 7311 1e30 01       		.uleb128 0x1
 7312 1e31 38       		.byte	0x38
 7313 1e32 25       		.uleb128 0x25
 7314 1e33 01       		.uleb128 0x1
 7315 1e34 52       		.byte	0x52
 7316 1e35 01       		.uleb128 0x1
 7317 1e36 3C       		.byte	0x3c
 7318 1e37 25       		.uleb128 0x25
 7319 1e38 01       		.uleb128 0x1
 7320 1e39 51       		.byte	0x51
 7321 1e3a 02       		.uleb128 0x2
 7322 1e3b 08       		.byte	0x8
 7323 1e3c AC       		.byte	0xac
 7324 1e3d 25       		.uleb128 0x25
 7325 1e3e 01       		.uleb128 0x1
 7326 1e3f 50       		.byte	0x50
 7327 1e40 02       		.uleb128 0x2
 7328 1e41 08       		.byte	0x8
 7329 1e42 78       		.byte	0x78
 7330 1e43 00       		.byte	0
 7331 1e44 24       		.uleb128 0x24
 7332 1e45 F0050000 		.4byte	.LVL250
 7333 1e49 432B0000 		.4byte	0x2b43
 7334 1e4d 671E0000 		.4byte	0x1e67
 7335 1e51 25       		.uleb128 0x25
 7336 1e52 01       		.uleb128 0x1
 7337 1e53 52       		.byte	0x52
 7338 1e54 02       		.uleb128 0x2
 7339 1e55 08       		.byte	0x8
 7340 1e56 F0       		.byte	0xf0
 7341 1e57 25       		.uleb128 0x25
 7342 1e58 01       		.uleb128 0x1
 7343 1e59 51       		.byte	0x51
 7344 1e5a 02       		.uleb128 0x2
ARM GAS  C:\Users\IVYLIU~1\AppData\Local\Temp\ccWSfWRg.s 			page 144


 7345 1e5b 08       		.byte	0x8
 7346 1e5c 78       		.byte	0x78
 7347 1e5d 25       		.uleb128 0x25
 7348 1e5e 01       		.uleb128 0x1
 7349 1e5f 50       		.byte	0x50
 7350 1e60 05       		.uleb128 0x5
 7351 1e61 03       		.byte	0x3
 7352 1e62 68010000 		.4byte	.LC44
 7353 1e66 00       		.byte	0
 7354 1e67 24       		.uleb128 0x24
 7355 1e68 FA050000 		.4byte	.LVL252
 7356 1e6c 082B0000 		.4byte	0x2b08
 7357 1e70 841E0000 		.4byte	0x1e84
 7358 1e74 25       		.uleb128 0x25
 7359 1e75 01       		.uleb128 0x1
 7360 1e76 51       		.byte	0x51
 7361 1e77 05       		.uleb128 0x5
 7362 1e78 03       		.byte	0x3
 7363 1e79 6C010000 		.4byte	.LC45
 7364 1e7d 25       		.uleb128 0x25
 7365 1e7e 01       		.uleb128 0x1
 7366 1e7f 50       		.byte	0x50
 7367 1e80 02       		.uleb128 0x2
 7368 1e81 74       		.byte	0x74
 7369 1e82 00       		.sleb128 0
 7370 1e83 00       		.byte	0
 7371 1e84 24       		.uleb128 0x24
 7372 1e85 08060000 		.4byte	.LVL253
 7373 1e89 222B0000 		.4byte	0x2b22
 7374 1e8d A81E0000 		.4byte	0x1ea8
 7375 1e91 25       		.uleb128 0x25
 7376 1e92 01       		.uleb128 0x1
 7377 1e93 53       		.byte	0x53
 7378 1e94 01       		.uleb128 0x1
 7379 1e95 38       		.byte	0x38
 7380 1e96 25       		.uleb128 0x25
 7381 1e97 01       		.uleb128 0x1
 7382 1e98 52       		.byte	0x52
 7383 1e99 01       		.uleb128 0x1
 7384 1e9a 3C       		.byte	0x3c
 7385 1e9b 25       		.uleb128 0x25
 7386 1e9c 01       		.uleb128 0x1
 7387 1e9d 51       		.byte	0x51
 7388 1e9e 02       		.uleb128 0x2
 7389 1e9f 08       		.byte	0x8
 7390 1ea0 B4       		.byte	0xb4
 7391 1ea1 25       		.uleb128 0x25
 7392 1ea2 01       		.uleb128 0x1
 7393 1ea3 50       		.byte	0x50
 7394 1ea4 02       		.uleb128 0x2
 7395 1ea5 08       		.byte	0x8
 7396 1ea6 78       		.byte	0x78
 7397 1ea7 00       		.byte	0
 7398 1ea8 24       		.uleb128 0x24
 7399 1ea9 12060000 		.4byte	.LVL254
 7400 1ead 432B0000 		.4byte	0x2b43
 7401 1eb1 CB1E0000 		.4byte	0x1ecb
ARM GAS  C:\Users\IVYLIU~1\AppData\Local\Temp\ccWSfWRg.s 			page 145


 7402 1eb5 25       		.uleb128 0x25
 7403 1eb6 01       		.uleb128 0x1
 7404 1eb7 52       		.byte	0x52
 7405 1eb8 02       		.uleb128 0x2
 7406 1eb9 08       		.byte	0x8
 7407 1eba F0       		.byte	0xf0
 7408 1ebb 25       		.uleb128 0x25
 7409 1ebc 01       		.uleb128 0x1
 7410 1ebd 51       		.byte	0x51
 7411 1ebe 02       		.uleb128 0x2
 7412 1ebf 08       		.byte	0x8
 7413 1ec0 78       		.byte	0x78
 7414 1ec1 25       		.uleb128 0x25
 7415 1ec2 01       		.uleb128 0x1
 7416 1ec3 50       		.byte	0x50
 7417 1ec4 05       		.uleb128 0x5
 7418 1ec5 03       		.byte	0x3
 7419 1ec6 6C010000 		.4byte	.LC45
 7420 1eca 00       		.byte	0
 7421 1ecb 24       		.uleb128 0x24
 7422 1ecc 1C060000 		.4byte	.LVL256
 7423 1ed0 082B0000 		.4byte	0x2b08
 7424 1ed4 E81E0000 		.4byte	0x1ee8
 7425 1ed8 25       		.uleb128 0x25
 7426 1ed9 01       		.uleb128 0x1
 7427 1eda 51       		.byte	0x51
 7428 1edb 05       		.uleb128 0x5
 7429 1edc 03       		.byte	0x3
 7430 1edd 70010000 		.4byte	.LC46
 7431 1ee1 25       		.uleb128 0x25
 7432 1ee2 01       		.uleb128 0x1
 7433 1ee3 50       		.byte	0x50
 7434 1ee4 02       		.uleb128 0x2
 7435 1ee5 74       		.byte	0x74
 7436 1ee6 00       		.sleb128 0
 7437 1ee7 00       		.byte	0
 7438 1ee8 24       		.uleb128 0x24
 7439 1ee9 2A060000 		.4byte	.LVL257
 7440 1eed 222B0000 		.4byte	0x2b22
 7441 1ef1 0C1F0000 		.4byte	0x1f0c
 7442 1ef5 25       		.uleb128 0x25
 7443 1ef6 01       		.uleb128 0x1
 7444 1ef7 53       		.byte	0x53
 7445 1ef8 01       		.uleb128 0x1
 7446 1ef9 38       		.byte	0x38
 7447 1efa 25       		.uleb128 0x25
 7448 1efb 01       		.uleb128 0x1
 7449 1efc 52       		.byte	0x52
 7450 1efd 01       		.uleb128 0x1
 7451 1efe 3C       		.byte	0x3c
 7452 1eff 25       		.uleb128 0x25
 7453 1f00 01       		.uleb128 0x1
 7454 1f01 51       		.byte	0x51
 7455 1f02 02       		.uleb128 0x2
 7456 1f03 08       		.byte	0x8
 7457 1f04 B4       		.byte	0xb4
 7458 1f05 25       		.uleb128 0x25
ARM GAS  C:\Users\IVYLIU~1\AppData\Local\Temp\ccWSfWRg.s 			page 146


 7459 1f06 01       		.uleb128 0x1
 7460 1f07 50       		.byte	0x50
 7461 1f08 02       		.uleb128 0x2
 7462 1f09 08       		.byte	0x8
 7463 1f0a 78       		.byte	0x78
 7464 1f0b 00       		.byte	0
 7465 1f0c 24       		.uleb128 0x24
 7466 1f0d 34060000 		.4byte	.LVL258
 7467 1f11 432B0000 		.4byte	0x2b43
 7468 1f15 2F1F0000 		.4byte	0x1f2f
 7469 1f19 25       		.uleb128 0x25
 7470 1f1a 01       		.uleb128 0x1
 7471 1f1b 52       		.byte	0x52
 7472 1f1c 02       		.uleb128 0x2
 7473 1f1d 08       		.byte	0x8
 7474 1f1e F0       		.byte	0xf0
 7475 1f1f 25       		.uleb128 0x25
 7476 1f20 01       		.uleb128 0x1
 7477 1f21 51       		.byte	0x51
 7478 1f22 02       		.uleb128 0x2
 7479 1f23 08       		.byte	0x8
 7480 1f24 78       		.byte	0x78
 7481 1f25 25       		.uleb128 0x25
 7482 1f26 01       		.uleb128 0x1
 7483 1f27 50       		.byte	0x50
 7484 1f28 05       		.uleb128 0x5
 7485 1f29 03       		.byte	0x3
 7486 1f2a 70010000 		.4byte	.LC46
 7487 1f2e 00       		.byte	0
 7488 1f2f 24       		.uleb128 0x24
 7489 1f30 94060000 		.4byte	.LVL261
 7490 1f34 082B0000 		.4byte	0x2b08
 7491 1f38 4C1F0000 		.4byte	0x1f4c
 7492 1f3c 25       		.uleb128 0x25
 7493 1f3d 01       		.uleb128 0x1
 7494 1f3e 51       		.byte	0x51
 7495 1f3f 05       		.uleb128 0x5
 7496 1f40 03       		.byte	0x3
 7497 1f41 74010000 		.4byte	.LC47
 7498 1f45 25       		.uleb128 0x25
 7499 1f46 01       		.uleb128 0x1
 7500 1f47 50       		.byte	0x50
 7501 1f48 02       		.uleb128 0x2
 7502 1f49 74       		.byte	0x74
 7503 1f4a 00       		.sleb128 0
 7504 1f4b 00       		.byte	0
 7505 1f4c 24       		.uleb128 0x24
 7506 1f4d A2060000 		.4byte	.LVL262
 7507 1f51 222B0000 		.4byte	0x2b22
 7508 1f55 701F0000 		.4byte	0x1f70
 7509 1f59 25       		.uleb128 0x25
 7510 1f5a 01       		.uleb128 0x1
 7511 1f5b 53       		.byte	0x53
 7512 1f5c 01       		.uleb128 0x1
 7513 1f5d 38       		.byte	0x38
 7514 1f5e 25       		.uleb128 0x25
 7515 1f5f 01       		.uleb128 0x1
ARM GAS  C:\Users\IVYLIU~1\AppData\Local\Temp\ccWSfWRg.s 			page 147


 7516 1f60 52       		.byte	0x52
 7517 1f61 01       		.uleb128 0x1
 7518 1f62 3C       		.byte	0x3c
 7519 1f63 25       		.uleb128 0x25
 7520 1f64 01       		.uleb128 0x1
 7521 1f65 51       		.byte	0x51
 7522 1f66 02       		.uleb128 0x2
 7523 1f67 08       		.byte	0x8
 7524 1f68 BB       		.byte	0xbb
 7525 1f69 25       		.uleb128 0x25
 7526 1f6a 01       		.uleb128 0x1
 7527 1f6b 50       		.byte	0x50
 7528 1f6c 02       		.uleb128 0x2
 7529 1f6d 08       		.byte	0x8
 7530 1f6e 78       		.byte	0x78
 7531 1f6f 00       		.byte	0
 7532 1f70 24       		.uleb128 0x24
 7533 1f71 AC060000 		.4byte	.LVL263
 7534 1f75 432B0000 		.4byte	0x2b43
 7535 1f79 931F0000 		.4byte	0x1f93
 7536 1f7d 25       		.uleb128 0x25
 7537 1f7e 01       		.uleb128 0x1
 7538 1f7f 52       		.byte	0x52
 7539 1f80 02       		.uleb128 0x2
 7540 1f81 08       		.byte	0x8
 7541 1f82 F0       		.byte	0xf0
 7542 1f83 25       		.uleb128 0x25
 7543 1f84 01       		.uleb128 0x1
 7544 1f85 51       		.byte	0x51
 7545 1f86 02       		.uleb128 0x2
 7546 1f87 08       		.byte	0x8
 7547 1f88 78       		.byte	0x78
 7548 1f89 25       		.uleb128 0x25
 7549 1f8a 01       		.uleb128 0x1
 7550 1f8b 50       		.byte	0x50
 7551 1f8c 05       		.uleb128 0x5
 7552 1f8d 03       		.byte	0x3
 7553 1f8e 74010000 		.4byte	.LC47
 7554 1f92 00       		.byte	0
 7555 1f93 27       		.uleb128 0x27
 7556 1f94 B2060000 		.4byte	.LVL264
 7557 1f98 392A0000 		.4byte	0x2a39
 7558 1f9c 24       		.uleb128 0x24
 7559 1f9d BC060000 		.4byte	.LVL265
 7560 1fa1 432B0000 		.4byte	0x2b43
 7561 1fa5 BF1F0000 		.4byte	0x1fbf
 7562 1fa9 25       		.uleb128 0x25
 7563 1faa 01       		.uleb128 0x1
 7564 1fab 52       		.byte	0x52
 7565 1fac 02       		.uleb128 0x2
 7566 1fad 08       		.byte	0x8
 7567 1fae BB       		.byte	0xbb
 7568 1faf 25       		.uleb128 0x25
 7569 1fb0 01       		.uleb128 0x1
 7570 1fb1 51       		.byte	0x51
 7571 1fb2 02       		.uleb128 0x2
 7572 1fb3 08       		.byte	0x8
ARM GAS  C:\Users\IVYLIU~1\AppData\Local\Temp\ccWSfWRg.s 			page 148


 7573 1fb4 90       		.byte	0x90
 7574 1fb5 25       		.uleb128 0x25
 7575 1fb6 01       		.uleb128 0x1
 7576 1fb7 50       		.byte	0x50
 7577 1fb8 05       		.uleb128 0x5
 7578 1fb9 03       		.byte	0x3
 7579 1fba E4000000 		.4byte	.LC11
 7580 1fbe 00       		.byte	0
 7581 1fbf 24       		.uleb128 0x24
 7582 1fc0 C6060000 		.4byte	.LVL267
 7583 1fc4 082B0000 		.4byte	0x2b08
 7584 1fc8 DC1F0000 		.4byte	0x1fdc
 7585 1fcc 25       		.uleb128 0x25
 7586 1fcd 01       		.uleb128 0x1
 7587 1fce 51       		.byte	0x51
 7588 1fcf 05       		.uleb128 0x5
 7589 1fd0 03       		.byte	0x3
 7590 1fd1 78010000 		.4byte	.LC48
 7591 1fd5 25       		.uleb128 0x25
 7592 1fd6 01       		.uleb128 0x1
 7593 1fd7 50       		.byte	0x50
 7594 1fd8 02       		.uleb128 0x2
 7595 1fd9 74       		.byte	0x74
 7596 1fda 00       		.sleb128 0
 7597 1fdb 00       		.byte	0
 7598 1fdc 24       		.uleb128 0x24
 7599 1fdd D4060000 		.4byte	.LVL268
 7600 1fe1 222B0000 		.4byte	0x2b22
 7601 1fe5 00200000 		.4byte	0x2000
 7602 1fe9 25       		.uleb128 0x25
 7603 1fea 01       		.uleb128 0x1
 7604 1feb 53       		.byte	0x53
 7605 1fec 01       		.uleb128 0x1
 7606 1fed 38       		.byte	0x38
 7607 1fee 25       		.uleb128 0x25
 7608 1fef 01       		.uleb128 0x1
 7609 1ff0 52       		.byte	0x52
 7610 1ff1 01       		.uleb128 0x1
 7611 1ff2 3C       		.byte	0x3c
 7612 1ff3 25       		.uleb128 0x25
 7613 1ff4 01       		.uleb128 0x1
 7614 1ff5 51       		.byte	0x51
 7615 1ff6 02       		.uleb128 0x2
 7616 1ff7 08       		.byte	0x8
 7617 1ff8 BB       		.byte	0xbb
 7618 1ff9 25       		.uleb128 0x25
 7619 1ffa 01       		.uleb128 0x1
 7620 1ffb 50       		.byte	0x50
 7621 1ffc 02       		.uleb128 0x2
 7622 1ffd 08       		.byte	0x8
 7623 1ffe 78       		.byte	0x78
 7624 1fff 00       		.byte	0
 7625 2000 24       		.uleb128 0x24
 7626 2001 DE060000 		.4byte	.LVL269
 7627 2005 432B0000 		.4byte	0x2b43
 7628 2009 23200000 		.4byte	0x2023
 7629 200d 25       		.uleb128 0x25
ARM GAS  C:\Users\IVYLIU~1\AppData\Local\Temp\ccWSfWRg.s 			page 149


 7630 200e 01       		.uleb128 0x1
 7631 200f 52       		.byte	0x52
 7632 2010 02       		.uleb128 0x2
 7633 2011 08       		.byte	0x8
 7634 2012 F0       		.byte	0xf0
 7635 2013 25       		.uleb128 0x25
 7636 2014 01       		.uleb128 0x1
 7637 2015 51       		.byte	0x51
 7638 2016 02       		.uleb128 0x2
 7639 2017 08       		.byte	0x8
 7640 2018 78       		.byte	0x78
 7641 2019 25       		.uleb128 0x25
 7642 201a 01       		.uleb128 0x1
 7643 201b 50       		.byte	0x50
 7644 201c 05       		.uleb128 0x5
 7645 201d 03       		.byte	0x3
 7646 201e 78010000 		.4byte	.LC48
 7647 2022 00       		.byte	0
 7648 2023 24       		.uleb128 0x24
 7649 2024 E8060000 		.4byte	.LVL271
 7650 2028 082B0000 		.4byte	0x2b08
 7651 202c 40200000 		.4byte	0x2040
 7652 2030 25       		.uleb128 0x25
 7653 2031 01       		.uleb128 0x1
 7654 2032 51       		.byte	0x51
 7655 2033 05       		.uleb128 0x5
 7656 2034 03       		.byte	0x3
 7657 2035 7C010000 		.4byte	.LC49
 7658 2039 25       		.uleb128 0x25
 7659 203a 01       		.uleb128 0x1
 7660 203b 50       		.byte	0x50
 7661 203c 02       		.uleb128 0x2
 7662 203d 74       		.byte	0x74
 7663 203e 00       		.sleb128 0
 7664 203f 00       		.byte	0
 7665 2040 24       		.uleb128 0x24
 7666 2041 F6060000 		.4byte	.LVL272
 7667 2045 222B0000 		.4byte	0x2b22
 7668 2049 64200000 		.4byte	0x2064
 7669 204d 25       		.uleb128 0x25
 7670 204e 01       		.uleb128 0x1
 7671 204f 53       		.byte	0x53
 7672 2050 01       		.uleb128 0x1
 7673 2051 38       		.byte	0x38
 7674 2052 25       		.uleb128 0x25
 7675 2053 01       		.uleb128 0x1
 7676 2054 52       		.byte	0x52
 7677 2055 01       		.uleb128 0x1
 7678 2056 3C       		.byte	0x3c
 7679 2057 25       		.uleb128 0x25
 7680 2058 01       		.uleb128 0x1
 7681 2059 51       		.byte	0x51
 7682 205a 02       		.uleb128 0x2
 7683 205b 08       		.byte	0x8
 7684 205c C3       		.byte	0xc3
 7685 205d 25       		.uleb128 0x25
 7686 205e 01       		.uleb128 0x1
ARM GAS  C:\Users\IVYLIU~1\AppData\Local\Temp\ccWSfWRg.s 			page 150


 7687 205f 50       		.byte	0x50
 7688 2060 02       		.uleb128 0x2
 7689 2061 08       		.byte	0x8
 7690 2062 78       		.byte	0x78
 7691 2063 00       		.byte	0
 7692 2064 24       		.uleb128 0x24
 7693 2065 00070000 		.4byte	.LVL273
 7694 2069 432B0000 		.4byte	0x2b43
 7695 206d 87200000 		.4byte	0x2087
 7696 2071 25       		.uleb128 0x25
 7697 2072 01       		.uleb128 0x1
 7698 2073 52       		.byte	0x52
 7699 2074 02       		.uleb128 0x2
 7700 2075 08       		.byte	0x8
 7701 2076 F0       		.byte	0xf0
 7702 2077 25       		.uleb128 0x25
 7703 2078 01       		.uleb128 0x1
 7704 2079 51       		.byte	0x51
 7705 207a 02       		.uleb128 0x2
 7706 207b 08       		.byte	0x8
 7707 207c 78       		.byte	0x78
 7708 207d 25       		.uleb128 0x25
 7709 207e 01       		.uleb128 0x1
 7710 207f 50       		.byte	0x50
 7711 2080 05       		.uleb128 0x5
 7712 2081 03       		.byte	0x3
 7713 2082 7C010000 		.4byte	.LC49
 7714 2086 00       		.byte	0
 7715 2087 26       		.uleb128 0x26
 7716 2088 0C070000 		.4byte	.LVL275
 7717 208c 432B0000 		.4byte	0x2b43
 7718 2090 25       		.uleb128 0x25
 7719 2091 01       		.uleb128 0x1
 7720 2092 52       		.byte	0x52
 7721 2093 02       		.uleb128 0x2
 7722 2094 08       		.byte	0x8
 7723 2095 F0       		.byte	0xf0
 7724 2096 25       		.uleb128 0x25
 7725 2097 01       		.uleb128 0x1
 7726 2098 51       		.byte	0x51
 7727 2099 02       		.uleb128 0x2
 7728 209a 08       		.byte	0x8
 7729 209b 78       		.byte	0x78
 7730 209c 25       		.uleb128 0x25
 7731 209d 01       		.uleb128 0x1
 7732 209e 50       		.byte	0x50
 7733 209f 05       		.uleb128 0x5
 7734 20a0 03       		.byte	0x3
 7735 20a1 80010000 		.4byte	.LC50
 7736 20a5 00       		.byte	0
 7737 20a6 00       		.byte	0
 7738 20a7 1C       		.uleb128 0x1c
 7739 20a8 4C060000 		.4byte	.LASF128
 7740 20ac 01       		.byte	0x1
 7741 20ad 9302     		.2byte	0x293
 7742 20af 00000000 		.4byte	.LFB133
 7743 20b3 30000000 		.4byte	.LFE133-.LFB133
ARM GAS  C:\Users\IVYLIU~1\AppData\Local\Temp\ccWSfWRg.s 			page 151


 7744 20b7 01       		.uleb128 0x1
 7745 20b8 9C       		.byte	0x9c
 7746 20b9 14210000 		.4byte	0x2114
 7747 20bd 21       		.uleb128 0x21
 7748 20be 6900     		.ascii	"i\000"
 7749 20c0 01       		.byte	0x1
 7750 20c1 9402     		.2byte	0x294
 7751 20c3 90000000 		.4byte	0x90
 7752 20c7 D7010000 		.4byte	.LLST9
 7753 20cb 24       		.uleb128 0x24
 7754 20cc 18000000 		.4byte	.LVL279
 7755 20d0 5F2B0000 		.4byte	0x2b5f
 7756 20d4 F0200000 		.4byte	0x20f0
 7757 20d8 25       		.uleb128 0x25
 7758 20d9 01       		.uleb128 0x1
 7759 20da 53       		.byte	0x53
 7760 20db 02       		.uleb128 0x2
 7761 20dc 75       		.byte	0x75
 7762 20dd 15       		.sleb128 21
 7763 20de 25       		.uleb128 0x25
 7764 20df 01       		.uleb128 0x1
 7765 20e0 52       		.byte	0x52
 7766 20e1 02       		.uleb128 0x2
 7767 20e2 08       		.byte	0x8
 7768 20e3 DC       		.byte	0xdc
 7769 20e4 25       		.uleb128 0x25
 7770 20e5 01       		.uleb128 0x1
 7771 20e6 51       		.byte	0x51
 7772 20e7 02       		.uleb128 0x2
 7773 20e8 75       		.byte	0x75
 7774 20e9 14       		.sleb128 20
 7775 20ea 25       		.uleb128 0x25
 7776 20eb 01       		.uleb128 0x1
 7777 20ec 50       		.byte	0x50
 7778 20ed 01       		.uleb128 0x1
 7779 20ee 44       		.byte	0x44
 7780 20ef 00       		.byte	0
 7781 20f0 26       		.uleb128 0x26
 7782 20f1 28000000 		.4byte	.LVL280
 7783 20f5 5F2B0000 		.4byte	0x2b5f
 7784 20f9 25       		.uleb128 0x25
 7785 20fa 01       		.uleb128 0x1
 7786 20fb 53       		.byte	0x53
 7787 20fc 03       		.uleb128 0x3
 7788 20fd 75       		.byte	0x75
 7789 20fe F900     		.sleb128 121
 7790 2100 25       		.uleb128 0x25
 7791 2101 01       		.uleb128 0x1
 7792 2102 52       		.byte	0x52
 7793 2103 02       		.uleb128 0x2
 7794 2104 08       		.byte	0x8
 7795 2105 DC       		.byte	0xdc
 7796 2106 25       		.uleb128 0x25
 7797 2107 01       		.uleb128 0x1
 7798 2108 51       		.byte	0x51
 7799 2109 03       		.uleb128 0x3
 7800 210a 75       		.byte	0x75
ARM GAS  C:\Users\IVYLIU~1\AppData\Local\Temp\ccWSfWRg.s 			page 152


 7801 210b F800     		.sleb128 120
 7802 210d 25       		.uleb128 0x25
 7803 210e 01       		.uleb128 0x1
 7804 210f 50       		.byte	0x50
 7805 2110 01       		.uleb128 0x1
 7806 2111 44       		.byte	0x44
 7807 2112 00       		.byte	0
 7808 2113 00       		.byte	0
 7809 2114 1C       		.uleb128 0x1c
 7810 2115 CC050000 		.4byte	.LASF129
 7811 2119 01       		.byte	0x1
 7812 211a 5001     		.2byte	0x150
 7813 211c 00000000 		.4byte	.LFB128
 7814 2120 48010000 		.4byte	.LFE128-.LFB128
 7815 2124 01       		.uleb128 0x1
 7816 2125 9C       		.byte	0x9c
 7817 2126 D4230000 		.4byte	0x23d4
 7818 212a 29       		.uleb128 0x29
 7819 212b 13030000 		.4byte	.LASF120
 7820 212f 01       		.byte	0x1
 7821 2130 5001     		.2byte	0x150
 7822 2132 90000000 		.4byte	0x90
 7823 2136 F6010000 		.4byte	.LLST10
 7824 213a 20       		.uleb128 0x20
 7825 213b 09070000 		.4byte	.LASF130
 7826 213f 01       		.byte	0x1
 7827 2140 5A01     		.2byte	0x15a
 7828 2142 90000000 		.4byte	0x90
 7829 2146 22020000 		.4byte	.LLST11
 7830 214a 23       		.uleb128 0x23
 7831 214b F3060000 		.4byte	.LASF131
 7832 214f 01       		.byte	0x1
 7833 2150 5B01     		.2byte	0x15b
 7834 2152 D4230000 		.4byte	0x23d4
 7835 2156 02       		.uleb128 0x2
 7836 2157 91       		.byte	0x91
 7837 2158 6C       		.sleb128 -20
 7838 2159 23       		.uleb128 0x23
 7839 215a D0020000 		.4byte	.LASF132
 7840 215e 01       		.byte	0x1
 7841 215f 5C01     		.2byte	0x15c
 7842 2161 A0070000 		.4byte	0x7a0
 7843 2165 02       		.uleb128 0x2
 7844 2166 91       		.byte	0x91
 7845 2167 5C       		.sleb128 -36
 7846 2168 24       		.uleb128 0x24
 7847 2169 0E000000 		.4byte	.LVL284
 7848 216d 152A0000 		.4byte	0x2a15
 7849 2171 7C210000 		.4byte	0x217c
 7850 2175 25       		.uleb128 0x25
 7851 2176 01       		.uleb128 0x1
 7852 2177 50       		.byte	0x50
 7853 2178 02       		.uleb128 0x2
 7854 2179 09       		.byte	0x9
 7855 217a FF       		.byte	0xff
 7856 217b 00       		.byte	0
 7857 217c 24       		.uleb128 0x24
ARM GAS  C:\Users\IVYLIU~1\AppData\Local\Temp\ccWSfWRg.s 			page 153


 7858 217d 16000000 		.4byte	.LVL285
 7859 2181 272A0000 		.4byte	0x2a27
 7860 2185 92210000 		.4byte	0x2192
 7861 2189 25       		.uleb128 0x25
 7862 218a 01       		.uleb128 0x1
 7863 218b 50       		.byte	0x50
 7864 218c 04       		.uleb128 0x4
 7865 218d 40       		.byte	0x40
 7866 218e 44       		.byte	0x44
 7867 218f 24       		.byte	0x24
 7868 2190 1F       		.byte	0x1f
 7869 2191 00       		.byte	0
 7870 2192 24       		.uleb128 0x24
 7871 2193 1C000000 		.4byte	.LVL286
 7872 2197 4F2A0000 		.4byte	0x2a4f
 7873 219b A5210000 		.4byte	0x21a5
 7874 219f 25       		.uleb128 0x25
 7875 21a0 01       		.uleb128 0x1
 7876 21a1 50       		.byte	0x50
 7877 21a2 01       		.uleb128 0x1
 7878 21a3 32       		.byte	0x32
 7879 21a4 00       		.byte	0
 7880 21a5 24       		.uleb128 0x24
 7881 21a6 22000000 		.4byte	.LVL287
 7882 21aa 652A0000 		.4byte	0x2a65
 7883 21ae B8210000 		.4byte	0x21b8
 7884 21b2 25       		.uleb128 0x25
 7885 21b3 01       		.uleb128 0x1
 7886 21b4 50       		.byte	0x50
 7887 21b5 01       		.uleb128 0x1
 7888 21b6 3C       		.byte	0x3c
 7889 21b7 00       		.byte	0
 7890 21b8 27       		.uleb128 0x27
 7891 21b9 26000000 		.4byte	.LVL288
 7892 21bd 7B2A0000 		.4byte	0x2a7b
 7893 21c1 27       		.uleb128 0x27
 7894 21c2 2A000000 		.4byte	.LVL289
 7895 21c6 A7200000 		.4byte	0x20a7
 7896 21ca 27       		.uleb128 0x27
 7897 21cb 44000000 		.4byte	.LVL291
 7898 21cf E90D0000 		.4byte	0xde9
 7899 21d3 27       		.uleb128 0x27
 7900 21d4 4A000000 		.4byte	.LVL292
 7901 21d8 392A0000 		.4byte	0x2a39
 7902 21dc 24       		.uleb128 0x24
 7903 21dd 54000000 		.4byte	.LVL293
 7904 21e1 802B0000 		.4byte	0x2b80
 7905 21e5 FE210000 		.4byte	0x21fe
 7906 21e9 25       		.uleb128 0x25
 7907 21ea 01       		.uleb128 0x1
 7908 21eb 52       		.byte	0x52
 7909 21ec 01       		.uleb128 0x1
 7910 21ed 30       		.byte	0x30
 7911 21ee 25       		.uleb128 0x25
 7912 21ef 01       		.uleb128 0x1
 7913 21f0 51       		.byte	0x51
 7914 21f1 05       		.uleb128 0x5
ARM GAS  C:\Users\IVYLIU~1\AppData\Local\Temp\ccWSfWRg.s 			page 154


 7915 21f2 03       		.byte	0x3
 7916 21f3 8C010000 		.4byte	.LC51
 7917 21f7 25       		.uleb128 0x25
 7918 21f8 01       		.uleb128 0x1
 7919 21f9 50       		.byte	0x50
 7920 21fa 02       		.uleb128 0x2
 7921 21fb 91       		.byte	0x91
 7922 21fc 6C       		.sleb128 -20
 7923 21fd 00       		.byte	0
 7924 21fe 24       		.uleb128 0x24
 7925 21ff 60000000 		.4byte	.LVL294
 7926 2203 832A0000 		.4byte	0x2a83
 7927 2207 22220000 		.4byte	0x2222
 7928 220b 25       		.uleb128 0x25
 7929 220c 01       		.uleb128 0x1
 7930 220d 52       		.byte	0x52
 7931 220e 03       		.uleb128 0x3
 7932 220f 0A       		.byte	0xa
 7933 2210 1801     		.2byte	0x118
 7934 2212 25       		.uleb128 0x25
 7935 2213 01       		.uleb128 0x1
 7936 2214 51       		.byte	0x51
 7937 2215 02       		.uleb128 0x2
 7938 2216 08       		.byte	0x8
 7939 2217 64       		.byte	0x64
 7940 2218 25       		.uleb128 0x25
 7941 2219 01       		.uleb128 0x1
 7942 221a 50       		.byte	0x50
 7943 221b 05       		.uleb128 0x5
 7944 221c 03       		.byte	0x3
 7945 221d 90010000 		.4byte	.LC52
 7946 2221 00       		.byte	0
 7947 2222 24       		.uleb128 0x24
 7948 2223 6C000000 		.4byte	.LVL295
 7949 2227 832A0000 		.4byte	0x2a83
 7950 222b 43220000 		.4byte	0x2243
 7951 222f 25       		.uleb128 0x25
 7952 2230 01       		.uleb128 0x1
 7953 2231 52       		.byte	0x52
 7954 2232 03       		.uleb128 0x3
 7955 2233 0A       		.byte	0xa
 7956 2234 1801     		.2byte	0x118
 7957 2236 25       		.uleb128 0x25
 7958 2237 01       		.uleb128 0x1
 7959 2238 51       		.byte	0x51
 7960 2239 02       		.uleb128 0x2
 7961 223a 08       		.byte	0x8
 7962 223b A0       		.byte	0xa0
 7963 223c 25       		.uleb128 0x25
 7964 223d 01       		.uleb128 0x1
 7965 223e 50       		.byte	0x50
 7966 223f 02       		.uleb128 0x2
 7967 2240 91       		.byte	0x91
 7968 2241 6C       		.sleb128 -20
 7969 2242 00       		.byte	0
 7970 2243 27       		.uleb128 0x27
 7971 2244 74000000 		.4byte	.LVL297
ARM GAS  C:\Users\IVYLIU~1\AppData\Local\Temp\ccWSfWRg.s 			page 155


 7972 2248 44080000 		.4byte	0x844
 7973 224c 27       		.uleb128 0x27
 7974 224d 80000000 		.4byte	.LVL298
 7975 2251 51090000 		.4byte	0x951
 7976 2255 27       		.uleb128 0x27
 7977 2256 8C000000 		.4byte	.LVL299
 7978 225a 082B0000 		.4byte	0x2b08
 7979 225e 27       		.uleb128 0x27
 7980 225f 94000000 		.4byte	.LVL300
 7981 2263 9F2A0000 		.4byte	0x2a9f
 7982 2267 24       		.uleb128 0x24
 7983 2268 A0000000 		.4byte	.LVL301
 7984 226c 272A0000 		.4byte	0x2a27
 7985 2270 7B220000 		.4byte	0x227b
 7986 2274 25       		.uleb128 0x25
 7987 2275 01       		.uleb128 0x1
 7988 2276 50       		.byte	0x50
 7989 2277 02       		.uleb128 0x2
 7990 2278 09       		.byte	0x9
 7991 2279 FF       		.byte	0xff
 7992 227a 00       		.byte	0
 7993 227b 27       		.uleb128 0x27
 7994 227c A6000000 		.4byte	.LVL302
 7995 2280 E90D0000 		.4byte	0xde9
 7996 2284 27       		.uleb128 0x27
 7997 2285 AC000000 		.4byte	.LVL303
 7998 2289 392A0000 		.4byte	0x2a39
 7999 228d 24       		.uleb128 0x24
 8000 228e B8000000 		.4byte	.LVL304
 8001 2292 832A0000 		.4byte	0x2a83
 8002 2296 B1220000 		.4byte	0x22b1
 8003 229a 25       		.uleb128 0x25
 8004 229b 01       		.uleb128 0x1
 8005 229c 52       		.byte	0x52
 8006 229d 03       		.uleb128 0x3
 8007 229e 0A       		.byte	0xa
 8008 229f 1801     		.2byte	0x118
 8009 22a1 25       		.uleb128 0x25
 8010 22a2 01       		.uleb128 0x1
 8011 22a3 51       		.byte	0x51
 8012 22a4 02       		.uleb128 0x2
 8013 22a5 08       		.byte	0x8
 8014 22a6 64       		.byte	0x64
 8015 22a7 25       		.uleb128 0x25
 8016 22a8 01       		.uleb128 0x1
 8017 22a9 50       		.byte	0x50
 8018 22aa 05       		.uleb128 0x5
 8019 22ab 03       		.byte	0x3
 8020 22ac 90010000 		.4byte	.LC52
 8021 22b0 00       		.byte	0
 8022 22b1 24       		.uleb128 0x24
 8023 22b2 C4000000 		.4byte	.LVL305
 8024 22b6 832A0000 		.4byte	0x2a83
 8025 22ba D2220000 		.4byte	0x22d2
 8026 22be 25       		.uleb128 0x25
 8027 22bf 01       		.uleb128 0x1
 8028 22c0 52       		.byte	0x52
ARM GAS  C:\Users\IVYLIU~1\AppData\Local\Temp\ccWSfWRg.s 			page 156


 8029 22c1 03       		.uleb128 0x3
 8030 22c2 0A       		.byte	0xa
 8031 22c3 1801     		.2byte	0x118
 8032 22c5 25       		.uleb128 0x25
 8033 22c6 01       		.uleb128 0x1
 8034 22c7 51       		.byte	0x51
 8035 22c8 02       		.uleb128 0x2
 8036 22c9 08       		.byte	0x8
 8037 22ca A0       		.byte	0xa0
 8038 22cb 25       		.uleb128 0x25
 8039 22cc 01       		.uleb128 0x1
 8040 22cd 50       		.byte	0x50
 8041 22ce 02       		.uleb128 0x2
 8042 22cf 91       		.byte	0x91
 8043 22d0 6C       		.sleb128 -20
 8044 22d1 00       		.byte	0
 8045 22d2 24       		.uleb128 0x24
 8046 22d3 CC000000 		.4byte	.LVL306
 8047 22d7 272A0000 		.4byte	0x2a27
 8048 22db E8220000 		.4byte	0x22e8
 8049 22df 25       		.uleb128 0x25
 8050 22e0 01       		.uleb128 0x1
 8051 22e1 50       		.byte	0x50
 8052 22e2 04       		.uleb128 0x4
 8053 22e3 40       		.byte	0x40
 8054 22e4 44       		.byte	0x44
 8055 22e5 24       		.byte	0x24
 8056 22e6 1F       		.byte	0x1f
 8057 22e7 00       		.byte	0
 8058 22e8 27       		.uleb128 0x27
 8059 22e9 D0000000 		.4byte	.LVL307
 8060 22ed A7200000 		.4byte	0x20a7
 8061 22f1 24       		.uleb128 0x24
 8062 22f2 DC000000 		.4byte	.LVL309
 8063 22f6 802B0000 		.4byte	0x2b80
 8064 22fa 14230000 		.4byte	0x2314
 8065 22fe 25       		.uleb128 0x25
 8066 22ff 01       		.uleb128 0x1
 8067 2300 52       		.byte	0x52
 8068 2301 02       		.uleb128 0x2
 8069 2302 74       		.byte	0x74
 8070 2303 00       		.sleb128 0
 8071 2304 25       		.uleb128 0x25
 8072 2305 01       		.uleb128 0x1
 8073 2306 51       		.byte	0x51
 8074 2307 05       		.uleb128 0x5
 8075 2308 03       		.byte	0x3
 8076 2309 8C010000 		.4byte	.LC51
 8077 230d 25       		.uleb128 0x25
 8078 230e 01       		.uleb128 0x1
 8079 230f 50       		.byte	0x50
 8080 2310 02       		.uleb128 0x2
 8081 2311 91       		.byte	0x91
 8082 2312 6C       		.sleb128 -20
 8083 2313 00       		.byte	0
 8084 2314 24       		.uleb128 0x24
 8085 2315 EC000000 		.4byte	.LVL310
ARM GAS  C:\Users\IVYLIU~1\AppData\Local\Temp\ccWSfWRg.s 			page 157


 8086 2319 832A0000 		.4byte	0x2a83
 8087 231d 37230000 		.4byte	0x2337
 8088 2321 25       		.uleb128 0x25
 8089 2322 01       		.uleb128 0x1
 8090 2323 52       		.byte	0x52
 8091 2324 02       		.uleb128 0x2
 8092 2325 08       		.byte	0x8
 8093 2326 F0       		.byte	0xf0
 8094 2327 25       		.uleb128 0x25
 8095 2328 01       		.uleb128 0x1
 8096 2329 51       		.byte	0x51
 8097 232a 02       		.uleb128 0x2
 8098 232b 08       		.byte	0x8
 8099 232c 78       		.byte	0x78
 8100 232d 25       		.uleb128 0x25
 8101 232e 01       		.uleb128 0x1
 8102 232f 50       		.byte	0x50
 8103 2330 05       		.uleb128 0x5
 8104 2331 03       		.byte	0x3
 8105 2332 98010000 		.4byte	.LC53
 8106 2336 00       		.byte	0
 8107 2337 24       		.uleb128 0x24
 8108 2338 F8000000 		.4byte	.LVL311
 8109 233c 832A0000 		.4byte	0x2a83
 8110 2340 5B230000 		.4byte	0x235b
 8111 2344 25       		.uleb128 0x25
 8112 2345 01       		.uleb128 0x1
 8113 2346 52       		.byte	0x52
 8114 2347 03       		.uleb128 0x3
 8115 2348 0A       		.byte	0xa
 8116 2349 1801     		.2byte	0x118
 8117 234b 25       		.uleb128 0x25
 8118 234c 01       		.uleb128 0x1
 8119 234d 51       		.byte	0x51
 8120 234e 02       		.uleb128 0x2
 8121 234f 08       		.byte	0x8
 8122 2350 64       		.byte	0x64
 8123 2351 25       		.uleb128 0x25
 8124 2352 01       		.uleb128 0x1
 8125 2353 50       		.byte	0x50
 8126 2354 05       		.uleb128 0x5
 8127 2355 03       		.byte	0x3
 8128 2356 90010000 		.4byte	.LC52
 8129 235a 00       		.byte	0
 8130 235b 24       		.uleb128 0x24
 8131 235c 04010000 		.4byte	.LVL312
 8132 2360 832A0000 		.4byte	0x2a83
 8133 2364 7C230000 		.4byte	0x237c
 8134 2368 25       		.uleb128 0x25
 8135 2369 01       		.uleb128 0x1
 8136 236a 52       		.byte	0x52
 8137 236b 03       		.uleb128 0x3
 8138 236c 0A       		.byte	0xa
 8139 236d 1801     		.2byte	0x118
 8140 236f 25       		.uleb128 0x25
 8141 2370 01       		.uleb128 0x1
 8142 2371 51       		.byte	0x51
ARM GAS  C:\Users\IVYLIU~1\AppData\Local\Temp\ccWSfWRg.s 			page 158


 8143 2372 02       		.uleb128 0x2
 8144 2373 08       		.byte	0x8
 8145 2374 A0       		.byte	0xa0
 8146 2375 25       		.uleb128 0x25
 8147 2376 01       		.uleb128 0x1
 8148 2377 50       		.byte	0x50
 8149 2378 02       		.uleb128 0x2
 8150 2379 91       		.byte	0x91
 8151 237a 6C       		.sleb128 -20
 8152 237b 00       		.byte	0
 8153 237c 24       		.uleb128 0x24
 8154 237d 12010000 		.4byte	.LVL313
 8155 2381 832A0000 		.4byte	0x2a83
 8156 2385 A0230000 		.4byte	0x23a0
 8157 2389 25       		.uleb128 0x25
 8158 238a 01       		.uleb128 0x1
 8159 238b 52       		.byte	0x52
 8160 238c 03       		.uleb128 0x3
 8161 238d 0A       		.byte	0xa
 8162 238e 1801     		.2byte	0x118
 8163 2390 25       		.uleb128 0x25
 8164 2391 01       		.uleb128 0x1
 8165 2392 51       		.byte	0x51
 8166 2393 02       		.uleb128 0x2
 8167 2394 08       		.byte	0x8
 8168 2395 64       		.byte	0x64
 8169 2396 25       		.uleb128 0x25
 8170 2397 01       		.uleb128 0x1
 8171 2398 50       		.byte	0x50
 8172 2399 05       		.uleb128 0x5
 8173 239a 03       		.byte	0x3
 8174 239b 90010000 		.4byte	.LC52
 8175 239f 00       		.byte	0
 8176 23a0 24       		.uleb128 0x24
 8177 23a1 1E010000 		.4byte	.LVL314
 8178 23a5 832A0000 		.4byte	0x2a83
 8179 23a9 C1230000 		.4byte	0x23c1
 8180 23ad 25       		.uleb128 0x25
 8181 23ae 01       		.uleb128 0x1
 8182 23af 52       		.byte	0x52
 8183 23b0 03       		.uleb128 0x3
 8184 23b1 0A       		.byte	0xa
 8185 23b2 1801     		.2byte	0x118
 8186 23b4 25       		.uleb128 0x25
 8187 23b5 01       		.uleb128 0x1
 8188 23b6 51       		.byte	0x51
 8189 23b7 02       		.uleb128 0x2
 8190 23b8 08       		.byte	0x8
 8191 23b9 A0       		.byte	0xa0
 8192 23ba 25       		.uleb128 0x25
 8193 23bb 01       		.uleb128 0x1
 8194 23bc 50       		.byte	0x50
 8195 23bd 02       		.uleb128 0x2
 8196 23be 91       		.byte	0x91
 8197 23bf 6C       		.sleb128 -20
 8198 23c0 00       		.byte	0
 8199 23c1 27       		.uleb128 0x27
ARM GAS  C:\Users\IVYLIU~1\AppData\Local\Temp\ccWSfWRg.s 			page 159


 8200 23c2 26010000 		.4byte	.LVL315
 8201 23c6 E90D0000 		.4byte	0xde9
 8202 23ca 27       		.uleb128 0x27
 8203 23cb 2A010000 		.4byte	.LVL316
 8204 23cf D72A0000 		.4byte	0x2ad7
 8205 23d3 00       		.byte	0
 8206 23d4 2B       		.uleb128 0x2b
 8207 23d5 F5000000 		.4byte	0xf5
 8208 23d9 E4230000 		.4byte	0x23e4
 8209 23dd 2C       		.uleb128 0x2c
 8210 23de 01010000 		.4byte	0x101
 8211 23e2 02       		.byte	0x2
 8212 23e3 00       		.byte	0
 8213 23e4 2D       		.uleb128 0x2d
 8214 23e5 C4090000 		.4byte	.LASF133
 8215 23e9 01       		.byte	0x1
 8216 23ea A9       		.byte	0xa9
 8217 23eb 90000000 		.4byte	0x90
 8218 23ef 00000000 		.4byte	.LFB123
 8219 23f3 6C010000 		.4byte	.LFE123-.LFB123
 8220 23f7 01       		.uleb128 0x1
 8221 23f8 9C       		.byte	0x9c
 8222 23f9 37260000 		.4byte	0x2637
 8223 23fd 2E       		.uleb128 0x2e
 8224 23fe AB020000 		.4byte	.LASF134
 8225 2402 01       		.byte	0x1
 8226 2403 B5       		.byte	0xb5
 8227 2404 90000000 		.4byte	0x90
 8228 2408 41020000 		.4byte	.LLST12
 8229 240c 27       		.uleb128 0x27
 8230 240d 08000000 		.4byte	.LVL318
 8231 2411 9B2B0000 		.4byte	0x2b9b
 8232 2415 27       		.uleb128 0x27
 8233 2416 0C000000 		.4byte	.LVL319
 8234 241a A22B0000 		.4byte	0x2ba2
 8235 241e 27       		.uleb128 0x27
 8236 241f 10000000 		.4byte	.LVL320
 8237 2423 AE2B0000 		.4byte	0x2bae
 8238 2427 27       		.uleb128 0x27
 8239 2428 14000000 		.4byte	.LVL321
 8240 242c B52B0000 		.4byte	0x2bb5
 8241 2430 24       		.uleb128 0x24
 8242 2431 22000000 		.4byte	.LVL322
 8243 2435 BC2B0000 		.4byte	0x2bbc
 8244 2439 61240000 		.4byte	0x2461
 8245 243d 25       		.uleb128 0x25
 8246 243e 06       		.uleb128 0x6
 8247 243f 52       		.byte	0x52
 8248 2440 93       		.byte	0x93
 8249 2441 04       		.uleb128 0x4
 8250 2442 53       		.byte	0x53
 8251 2443 93       		.byte	0x93
 8252 2444 04       		.uleb128 0x4
 8253 2445 0B       		.uleb128 0xb
 8254 2446 F4       		.byte	0xf4
 8255 2447 25       		.uleb128 0x25
 8256 2448 08       		.byte	0x8
ARM GAS  C:\Users\IVYLIU~1\AppData\Local\Temp\ccWSfWRg.s 			page 160


 8257 2449 9A999999 		.4byte	0x9999999a
 8258 244d 99992940 		.4byte	0x40299999
 8259 2451 25       		.uleb128 0x25
 8260 2452 01       		.uleb128 0x1
 8261 2453 51       		.byte	0x51
 8262 2454 05       		.uleb128 0x5
 8263 2455 03       		.byte	0x3
 8264 2456 00000000 		.4byte	pPixelArray
 8265 245a 25       		.uleb128 0x25
 8266 245b 01       		.uleb128 0x1
 8267 245c 50       		.byte	0x50
 8268 245d 02       		.uleb128 0x2
 8269 245e 08       		.byte	0x8
 8270 245f 90       		.byte	0x90
 8271 2460 00       		.byte	0
 8272 2461 27       		.uleb128 0x27
 8273 2462 58000000 		.4byte	.LVL325
 8274 2466 590C0000 		.4byte	0xc59
 8275 246a 27       		.uleb128 0x27
 8276 246b 60000000 		.4byte	.LVL327
 8277 246f 9F2A0000 		.4byte	0x2a9f
 8278 2473 27       		.uleb128 0x27
 8279 2474 66000000 		.4byte	.LVL328
 8280 2478 9F2A0000 		.4byte	0x2a9f
 8281 247c 27       		.uleb128 0x27
 8282 247d 72000000 		.4byte	.LVL331
 8283 2481 D72A0000 		.4byte	0x2ad7
 8284 2485 27       		.uleb128 0x27
 8285 2486 7A000000 		.4byte	.LVL332
 8286 248a D72A0000 		.4byte	0x2ad7
 8287 248e 27       		.uleb128 0x27
 8288 248f 86000000 		.4byte	.LVL335
 8289 2493 A2090000 		.4byte	0x9a2
 8290 2497 27       		.uleb128 0x27
 8291 2498 8A000000 		.4byte	.LVL336
 8292 249c 14210000 		.4byte	0x2114
 8293 24a0 27       		.uleb128 0x27
 8294 24a1 92000000 		.4byte	.LVL338
 8295 24a5 D72A0000 		.4byte	0x2ad7
 8296 24a9 27       		.uleb128 0x27
 8297 24aa 9A000000 		.4byte	.LVL339
 8298 24ae D72A0000 		.4byte	0x2ad7
 8299 24b2 27       		.uleb128 0x27
 8300 24b3 A6000000 		.4byte	.LVL342
 8301 24b7 C10B0000 		.4byte	0xbc1
 8302 24bb 24       		.uleb128 0x24
 8303 24bc B2000000 		.4byte	.LVL343
 8304 24c0 F9070000 		.4byte	0x7f9
 8305 24c4 E0240000 		.4byte	0x24e0
 8306 24c8 25       		.uleb128 0x25
 8307 24c9 01       		.uleb128 0x1
 8308 24ca 53       		.byte	0x53
 8309 24cb 02       		.uleb128 0x2
 8310 24cc 08       		.byte	0x8
 8311 24cd 64       		.byte	0x64
 8312 24ce 25       		.uleb128 0x25
 8313 24cf 01       		.uleb128 0x1
ARM GAS  C:\Users\IVYLIU~1\AppData\Local\Temp\ccWSfWRg.s 			page 161


 8314 24d0 52       		.byte	0x52
 8315 24d1 02       		.uleb128 0x2
 8316 24d2 08       		.byte	0x8
 8317 24d3 64       		.byte	0x64
 8318 24d4 25       		.uleb128 0x25
 8319 24d5 01       		.uleb128 0x1
 8320 24d6 51       		.byte	0x51
 8321 24d7 01       		.uleb128 0x1
 8322 24d8 30       		.byte	0x30
 8323 24d9 25       		.uleb128 0x25
 8324 24da 01       		.uleb128 0x1
 8325 24db 50       		.byte	0x50
 8326 24dc 02       		.uleb128 0x2
 8327 24dd 08       		.byte	0x8
 8328 24de 50       		.byte	0x50
 8329 24df 00       		.byte	0
 8330 24e0 24       		.uleb128 0x24
 8331 24e1 BE000000 		.4byte	.LVL344
 8332 24e5 F9070000 		.4byte	0x7f9
 8333 24e9 05250000 		.4byte	0x2505
 8334 24ed 25       		.uleb128 0x25
 8335 24ee 01       		.uleb128 0x1
 8336 24ef 53       		.byte	0x53
 8337 24f0 02       		.uleb128 0x2
 8338 24f1 08       		.byte	0x8
 8339 24f2 64       		.byte	0x64
 8340 24f3 25       		.uleb128 0x25
 8341 24f4 01       		.uleb128 0x1
 8342 24f5 52       		.byte	0x52
 8343 24f6 02       		.uleb128 0x2
 8344 24f7 08       		.byte	0x8
 8345 24f8 64       		.byte	0x64
 8346 24f9 25       		.uleb128 0x25
 8347 24fa 01       		.uleb128 0x1
 8348 24fb 51       		.byte	0x51
 8349 24fc 01       		.uleb128 0x1
 8350 24fd 30       		.byte	0x30
 8351 24fe 25       		.uleb128 0x25
 8352 24ff 01       		.uleb128 0x1
 8353 2500 50       		.byte	0x50
 8354 2501 02       		.uleb128 0x2
 8355 2502 08       		.byte	0x8
 8356 2503 51       		.byte	0x51
 8357 2504 00       		.byte	0
 8358 2505 27       		.uleb128 0x27
 8359 2506 C2000000 		.4byte	.LVL345
 8360 250a E22B0000 		.4byte	0x2be2
 8361 250e 27       		.uleb128 0x27
 8362 250f CA000000 		.4byte	.LVL347
 8363 2513 44080000 		.4byte	0x844
 8364 2517 24       		.uleb128 0x24
 8365 2518 D8000000 		.4byte	.LVL348
 8366 251c 152A0000 		.4byte	0x2a15
 8367 2520 2B250000 		.4byte	0x252b
 8368 2524 25       		.uleb128 0x25
 8369 2525 01       		.uleb128 0x1
 8370 2526 50       		.byte	0x50
ARM GAS  C:\Users\IVYLIU~1\AppData\Local\Temp\ccWSfWRg.s 			page 162


 8371 2527 02       		.uleb128 0x2
 8372 2528 09       		.byte	0x9
 8373 2529 FF       		.byte	0xff
 8374 252a 00       		.byte	0
 8375 252b 24       		.uleb128 0x24
 8376 252c E0000000 		.4byte	.LVL349
 8377 2530 272A0000 		.4byte	0x2a27
 8378 2534 41250000 		.4byte	0x2541
 8379 2538 25       		.uleb128 0x25
 8380 2539 01       		.uleb128 0x1
 8381 253a 50       		.byte	0x50
 8382 253b 04       		.uleb128 0x4
 8383 253c 40       		.byte	0x40
 8384 253d 44       		.byte	0x44
 8385 253e 24       		.byte	0x24
 8386 253f 1F       		.byte	0x1f
 8387 2540 00       		.byte	0
 8388 2541 27       		.uleb128 0x27
 8389 2542 E6000000 		.4byte	.LVL350
 8390 2546 392A0000 		.4byte	0x2a39
 8391 254a 27       		.uleb128 0x27
 8392 254b EA000000 		.4byte	.LVL351
 8393 254f 7B2A0000 		.4byte	0x2a7b
 8394 2553 24       		.uleb128 0x24
 8395 2554 F8000000 		.4byte	.LVL353
 8396 2558 802B0000 		.4byte	0x2b80
 8397 255c 70250000 		.4byte	0x2570
 8398 2560 25       		.uleb128 0x25
 8399 2561 01       		.uleb128 0x1
 8400 2562 51       		.byte	0x51
 8401 2563 05       		.uleb128 0x5
 8402 2564 03       		.byte	0x3
 8403 2565 A4010000 		.4byte	.LC54
 8404 2569 25       		.uleb128 0x25
 8405 256a 01       		.uleb128 0x1
 8406 256b 50       		.byte	0x50
 8407 256c 02       		.uleb128 0x2
 8408 256d 74       		.byte	0x74
 8409 256e 00       		.sleb128 0
 8410 256f 00       		.byte	0
 8411 2570 24       		.uleb128 0x24
 8412 2571 02010000 		.4byte	.LVL354
 8413 2575 832A0000 		.4byte	0x2a83
 8414 2579 90250000 		.4byte	0x2590
 8415 257d 25       		.uleb128 0x25
 8416 257e 01       		.uleb128 0x1
 8417 257f 52       		.byte	0x52
 8418 2580 02       		.uleb128 0x2
 8419 2581 08       		.byte	0x8
 8420 2582 A0       		.byte	0xa0
 8421 2583 25       		.uleb128 0x25
 8422 2584 01       		.uleb128 0x1
 8423 2585 51       		.byte	0x51
 8424 2586 02       		.uleb128 0x2
 8425 2587 08       		.byte	0x8
 8426 2588 78       		.byte	0x78
 8427 2589 25       		.uleb128 0x25
ARM GAS  C:\Users\IVYLIU~1\AppData\Local\Temp\ccWSfWRg.s 			page 163


 8428 258a 01       		.uleb128 0x1
 8429 258b 50       		.byte	0x50
 8430 258c 02       		.uleb128 0x2
 8431 258d 74       		.byte	0x74
 8432 258e 00       		.sleb128 0
 8433 258f 00       		.byte	0
 8434 2590 24       		.uleb128 0x24
 8435 2591 0E010000 		.4byte	.LVL355
 8436 2595 F9070000 		.4byte	0x7f9
 8437 2599 B3250000 		.4byte	0x25b3
 8438 259d 25       		.uleb128 0x25
 8439 259e 01       		.uleb128 0x1
 8440 259f 53       		.byte	0x53
 8441 25a0 01       		.uleb128 0x1
 8442 25a1 30       		.byte	0x30
 8443 25a2 25       		.uleb128 0x25
 8444 25a3 01       		.uleb128 0x1
 8445 25a4 52       		.byte	0x52
 8446 25a5 01       		.uleb128 0x1
 8447 25a6 30       		.byte	0x30
 8448 25a7 25       		.uleb128 0x25
 8449 25a8 01       		.uleb128 0x1
 8450 25a9 51       		.byte	0x51
 8451 25aa 01       		.uleb128 0x1
 8452 25ab 30       		.byte	0x30
 8453 25ac 25       		.uleb128 0x25
 8454 25ad 01       		.uleb128 0x1
 8455 25ae 50       		.byte	0x50
 8456 25af 02       		.uleb128 0x2
 8457 25b0 08       		.byte	0x8
 8458 25b1 50       		.byte	0x50
 8459 25b2 00       		.byte	0
 8460 25b3 24       		.uleb128 0x24
 8461 25b4 1A010000 		.4byte	.LVL356
 8462 25b8 F9070000 		.4byte	0x7f9
 8463 25bc D6250000 		.4byte	0x25d6
 8464 25c0 25       		.uleb128 0x25
 8465 25c1 01       		.uleb128 0x1
 8466 25c2 53       		.byte	0x53
 8467 25c3 01       		.uleb128 0x1
 8468 25c4 30       		.byte	0x30
 8469 25c5 25       		.uleb128 0x25
 8470 25c6 01       		.uleb128 0x1
 8471 25c7 52       		.byte	0x52
 8472 25c8 01       		.uleb128 0x1
 8473 25c9 30       		.byte	0x30
 8474 25ca 25       		.uleb128 0x25
 8475 25cb 01       		.uleb128 0x1
 8476 25cc 51       		.byte	0x51
 8477 25cd 01       		.uleb128 0x1
 8478 25ce 30       		.byte	0x30
 8479 25cf 25       		.uleb128 0x25
 8480 25d0 01       		.uleb128 0x1
 8481 25d1 50       		.byte	0x50
 8482 25d2 02       		.uleb128 0x2
 8483 25d3 08       		.byte	0x8
 8484 25d4 51       		.byte	0x51
ARM GAS  C:\Users\IVYLIU~1\AppData\Local\Temp\ccWSfWRg.s 			page 164


 8485 25d5 00       		.byte	0
 8486 25d6 27       		.uleb128 0x27
 8487 25d7 1E010000 		.4byte	.LVL357
 8488 25db E22B0000 		.4byte	0x2be2
 8489 25df 24       		.uleb128 0x24
 8490 25e0 2A010000 		.4byte	.LVL359
 8491 25e4 152A0000 		.4byte	0x2a15
 8492 25e8 F3250000 		.4byte	0x25f3
 8493 25ec 25       		.uleb128 0x25
 8494 25ed 01       		.uleb128 0x1
 8495 25ee 50       		.byte	0x50
 8496 25ef 02       		.uleb128 0x2
 8497 25f0 09       		.byte	0x9
 8498 25f1 FF       		.byte	0xff
 8499 25f2 00       		.byte	0
 8500 25f3 24       		.uleb128 0x24
 8501 25f4 32010000 		.4byte	.LVL360
 8502 25f8 272A0000 		.4byte	0x2a27
 8503 25fc 09260000 		.4byte	0x2609
 8504 2600 25       		.uleb128 0x25
 8505 2601 01       		.uleb128 0x1
 8506 2602 50       		.byte	0x50
 8507 2603 04       		.uleb128 0x4
 8508 2604 40       		.byte	0x40
 8509 2605 44       		.byte	0x44
 8510 2606 24       		.byte	0x24
 8511 2607 1F       		.byte	0x1f
 8512 2608 00       		.byte	0
 8513 2609 27       		.uleb128 0x27
 8514 260a 36010000 		.4byte	.LVL361
 8515 260e 7B2A0000 		.4byte	0x2a7b
 8516 2612 27       		.uleb128 0x27
 8517 2613 3A010000 		.4byte	.LVL362
 8518 2617 A7200000 		.4byte	0x20a7
 8519 261b 27       		.uleb128 0x27
 8520 261c 3E010000 		.4byte	.LVL363
 8521 2620 44080000 		.4byte	0x844
 8522 2624 27       		.uleb128 0x27
 8523 2625 4A010000 		.4byte	.LVL364
 8524 2629 51090000 		.4byte	0x951
 8525 262d 27       		.uleb128 0x27
 8526 262e 4E010000 		.4byte	.LVL365
 8527 2632 E90D0000 		.4byte	0xde9
 8528 2636 00       		.byte	0
 8529 2637 2F       		.uleb128 0x2f
 8530 2638 04020000 		.4byte	.LASF135
 8531 263c 09       		.byte	0x9
 8532 263d 17       		.byte	0x17
 8533 263e 97000000 		.4byte	0x97
 8534 2642 05       		.uleb128 0x5
 8535 2643 03       		.byte	0x3
 8536 2644 00000000 		.4byte	NP_g_nNumberOfPixels
 8537 2648 2F       		.uleb128 0x2f
 8538 2649 1E030000 		.4byte	.LASF136
 8539 264d 09       		.byte	0x9
 8540 264e 18       		.byte	0x18
 8541 264f CA000000 		.4byte	0xca
ARM GAS  C:\Users\IVYLIU~1\AppData\Local\Temp\ccWSfWRg.s 			page 165


 8542 2653 05       		.uleb128 0x5
 8543 2654 03       		.byte	0x3
 8544 2655 00000000 		.4byte	NP_g_nDMA_Chan
 8545 2659 2F       		.uleb128 0x2f
 8546 265a 9B050000 		.4byte	.LASF137
 8547 265e 09       		.byte	0x9
 8548 265f 19       		.byte	0x19
 8549 2660 CA000000 		.4byte	0xca
 8550 2664 05       		.uleb128 0x5
 8551 2665 03       		.byte	0x3
 8552 2666 00000000 		.4byte	NP_g_nDMA_TD
 8553 266a 2F       		.uleb128 0x2f
 8554 266b 74020000 		.4byte	.LASF138
 8555 266f 09       		.byte	0x9
 8556 2670 1A       		.byte	0x1a
 8557 2671 CA000000 		.4byte	0xca
 8558 2675 05       		.uleb128 0x5
 8559 2676 03       		.byte	0x3
 8560 2677 00000000 		.4byte	NP_g_bOwnsBuffer
 8561 267b 2F       		.uleb128 0x2f
 8562 267c 0E060000 		.4byte	.LASF139
 8563 2680 09       		.byte	0x9
 8564 2681 1C       		.byte	0x1c
 8565 2682 8C260000 		.4byte	0x268c
 8566 2686 05       		.uleb128 0x5
 8567 2687 03       		.byte	0x3
 8568 2688 00000000 		.4byte	NP_g_pFrameBuffer
 8569 268c 08       		.uleb128 0x8
 8570 268d 04       		.byte	0x4
 8571 268e FC000000 		.4byte	0xfc
 8572 2692 2F       		.uleb128 0x2f
 8573 2693 0E090000 		.4byte	.LASF140
 8574 2697 09       		.byte	0x9
 8575 2698 1D       		.byte	0x1d
 8576 2699 97000000 		.4byte	0x97
 8577 269d 05       		.uleb128 0x5
 8578 269e 03       		.byte	0x3
 8579 269f 00000000 		.4byte	NP_g_nFrameBufferSize
 8580 26a3 03       		.uleb128 0x3
 8581 26a4 69000000 		.4byte	.LASF141
 8582 26a8 0A       		.byte	0xa
 8583 26a9 8B       		.byte	0x8b
 8584 26aa 1D290000 		.4byte	0x291d
 8585 26ae 08       		.uleb128 0x8
 8586 26af 04       		.byte	0x4
 8587 26b0 BF000000 		.4byte	0xbf
 8588 26b4 30       		.uleb128 0x30
 8589 26b5 D8070000 		.4byte	.LASF142
 8590 26b9 0A       		.byte	0xa
 8591 26ba 92       		.byte	0x92
 8592 26bb BF260000 		.4byte	0x26bf
 8593 26bf 09       		.uleb128 0x9
 8594 26c0 A3260000 		.4byte	0x26a3
 8595 26c4 30       		.uleb128 0x30
 8596 26c5 C0010000 		.4byte	.LASF143
 8597 26c9 0A       		.byte	0xa
 8598 26ca 93       		.byte	0x93
ARM GAS  C:\Users\IVYLIU~1\AppData\Local\Temp\ccWSfWRg.s 			page 166


 8599 26cb BF260000 		.4byte	0x26bf
 8600 26cf 03       		.uleb128 0x3
 8601 26d0 85000000 		.4byte	.LASF144
 8602 26d4 0A       		.byte	0xa
 8603 26d5 90       		.byte	0x90
 8604 26d6 FC280000 		.4byte	0x28fc
 8605 26da 30       		.uleb128 0x30
 8606 26db 63060000 		.4byte	.LASF145
 8607 26df 0A       		.byte	0xa
 8608 26e0 94       		.byte	0x94
 8609 26e1 E5260000 		.4byte	0x26e5
 8610 26e5 09       		.uleb128 0x9
 8611 26e6 CF260000 		.4byte	0x26cf
 8612 26ea 30       		.uleb128 0x30
 8613 26eb 5A080000 		.4byte	.LASF146
 8614 26ef 0A       		.byte	0xa
 8615 26f0 95       		.byte	0x95
 8616 26f1 E5260000 		.4byte	0x26e5
 8617 26f5 31       		.uleb128 0x31
 8618 26f6 98010000 		.4byte	.LASF147
 8619 26fa 0B       		.byte	0xb
 8620 26fb 4A07     		.2byte	0x74a
 8621 26fd 01270000 		.4byte	0x2701
 8622 2701 06       		.uleb128 0x6
 8623 2702 B4000000 		.4byte	0xb4
 8624 2706 31       		.uleb128 0x31
 8625 2707 4D050000 		.4byte	.LASF148
 8626 270b 0C       		.byte	0xc
 8627 270c 0808     		.2byte	0x808
 8628 270e 93050000 		.4byte	0x593
 8629 2712 31       		.uleb128 0x31
 8630 2713 30020000 		.4byte	.LASF149
 8631 2717 0C       		.byte	0xc
 8632 2718 0A08     		.2byte	0x80a
 8633 271a 93050000 		.4byte	0x593
 8634 271e 31       		.uleb128 0x31
 8635 271f 33030000 		.4byte	.LASF150
 8636 2723 0C       		.byte	0xc
 8637 2724 0C08     		.2byte	0x80c
 8638 2726 93050000 		.4byte	0x593
 8639 272a 31       		.uleb128 0x31
 8640 272b 1E000000 		.4byte	.LASF151
 8641 272f 0C       		.byte	0xc
 8642 2730 0E08     		.2byte	0x80e
 8643 2732 93050000 		.4byte	0x593
 8644 2736 2B       		.uleb128 0x2b
 8645 2737 F5000000 		.4byte	0xf5
 8646 273b 46270000 		.4byte	0x2746
 8647 273f 2C       		.uleb128 0x2c
 8648 2740 01010000 		.4byte	0x101
 8649 2744 0F       		.byte	0xf
 8650 2745 00       		.byte	0
 8651 2746 2F       		.uleb128 0x2f
 8652 2747 25050000 		.4byte	.LASF152
 8653 274b 01       		.byte	0x1
 8654 274c 14       		.byte	0x14
 8655 274d 36270000 		.4byte	0x2736
ARM GAS  C:\Users\IVYLIU~1\AppData\Local\Temp\ccWSfWRg.s 			page 167


 8656 2751 05       		.uleb128 0x5
 8657 2752 03       		.byte	0x3
 8658 2753 00000000 		.4byte	test_string
 8659 2757 2B       		.uleb128 0x2b
 8660 2758 3E000000 		.4byte	0x3e
 8661 275c 68270000 		.4byte	0x2768
 8662 2760 32       		.uleb128 0x32
 8663 2761 01010000 		.4byte	0x101
 8664 2765 AF01     		.2byte	0x1af
 8665 2767 00       		.byte	0
 8666 2768 2F       		.uleb128 0x2f
 8667 2769 CC070000 		.4byte	.LASF153
 8668 276d 01       		.byte	0x1
 8669 276e 1A       		.byte	0x1a
 8670 276f 57270000 		.4byte	0x2757
 8671 2773 05       		.uleb128 0x5
 8672 2774 03       		.byte	0x3
 8673 2775 00000000 		.4byte	pPixelArray
 8674 2779 2F       		.uleb128 0x2f
 8675 277a 54080000 		.4byte	.LASF154
 8676 277e 01       		.byte	0x1
 8677 277f 1C       		.byte	0x1c
 8678 2780 EE000000 		.4byte	0xee
 8679 2784 05       		.uleb128 0x5
 8680 2785 03       		.byte	0x3
 8681 2786 00000000 		.4byte	power
 8682 278a 2F       		.uleb128 0x2f
 8683 278b 06050000 		.4byte	.LASF155
 8684 278f 01       		.byte	0x1
 8685 2790 1D       		.byte	0x1d
 8686 2791 EE000000 		.4byte	0xee
 8687 2795 05       		.uleb128 0x5
 8688 2796 03       		.byte	0x3
 8689 2797 00000000 		.4byte	Deltapower
 8690 279b 2F       		.uleb128 0x2f
 8691 279c 4D080000 		.4byte	.LASF106
 8692 27a0 01       		.byte	0x1
 8693 27a1 1E       		.byte	0x1e
 8694 27a2 EE000000 		.4byte	0xee
 8695 27a6 05       		.uleb128 0x5
 8696 27a7 03       		.byte	0x3
 8697 27a8 00000000 		.4byte	offset
 8698 27ac 2F       		.uleb128 0x2f
 8699 27ad 31050000 		.4byte	.LASF156
 8700 27b1 01       		.byte	0x1
 8701 27b2 25       		.byte	0x25
 8702 27b3 BF000000 		.4byte	0xbf
 8703 27b7 05       		.uleb128 0x5
 8704 27b8 03       		.byte	0x3
 8705 27b9 00000000 		.4byte	adcResult
 8706 27bd 2F       		.uleb128 0x2f
 8707 27be 8E030000 		.4byte	.LASF157
 8708 27c2 01       		.byte	0x1
 8709 27c3 27       		.byte	0x27
 8710 27c4 BF000000 		.4byte	0xbf
 8711 27c8 05       		.uleb128 0x5
 8712 27c9 03       		.byte	0x3
ARM GAS  C:\Users\IVYLIU~1\AppData\Local\Temp\ccWSfWRg.s 			page 168


 8713 27ca 00000000 		.4byte	fftSize
 8714 27ce 2F       		.uleb128 0x2f
 8715 27cf A20A0000 		.4byte	.LASF158
 8716 27d3 01       		.byte	0x1
 8717 27d4 28       		.byte	0x28
 8718 27d5 BF000000 		.4byte	0xbf
 8719 27d9 05       		.uleb128 0x5
 8720 27da 03       		.byte	0x3
 8721 27db 00000000 		.4byte	ifftFlag
 8722 27df 2F       		.uleb128 0x2f
 8723 27e0 57020000 		.4byte	.LASF159
 8724 27e4 01       		.byte	0x1
 8725 27e5 29       		.byte	0x29
 8726 27e6 BF000000 		.4byte	0xbf
 8727 27ea 05       		.uleb128 0x5
 8728 27eb 03       		.byte	0x3
 8729 27ec 00000000 		.4byte	doBitReverse
 8730 27f0 2F       		.uleb128 0x2f
 8731 27f1 F7040000 		.4byte	.LASF160
 8732 27f5 01       		.byte	0x1
 8733 27f6 2A       		.byte	0x2a
 8734 27f7 1B070000 		.4byte	0x71b
 8735 27fb 05       		.uleb128 0x5
 8736 27fc 03       		.byte	0x3
 8737 27fd 00000000 		.4byte	varInstCfftF32
 8738 2801 2F       		.uleb128 0x2f
 8739 2802 D3010000 		.4byte	.LASF161
 8740 2806 01       		.byte	0x1
 8741 2807 2B       		.byte	0x2b
 8742 2808 BF000000 		.4byte	0xbf
 8743 280c 05       		.uleb128 0x5
 8744 280d 03       		.byte	0x3
 8745 280e 00000000 		.4byte	testIndex
 8746 2812 2F       		.uleb128 0x2f
 8747 2813 78050000 		.4byte	.LASF162
 8748 2817 01       		.byte	0x1
 8749 2818 2C       		.byte	0x2c
 8750 2819 90000000 		.4byte	0x90
 8751 281d 05       		.uleb128 0x5
 8752 281e 03       		.byte	0x3
 8753 281f 00000000 		.4byte	middle_c_bin
 8754 2823 2B       		.uleb128 0x2b
 8755 2824 6F060000 		.4byte	0x66f
 8756 2828 34280000 		.4byte	0x2834
 8757 282c 32       		.uleb128 0x32
 8758 282d 01010000 		.4byte	0x101
 8759 2831 FF07     		.2byte	0x7ff
 8760 2833 00       		.byte	0
 8761 2834 2F       		.uleb128 0x2f
 8762 2835 A4000000 		.4byte	.LASF163
 8763 2839 01       		.byte	0x1
 8764 283a 2E       		.byte	0x2e
 8765 283b 23280000 		.4byte	0x2823
 8766 283f 05       		.uleb128 0x5
 8767 2840 03       		.byte	0x3
 8768 2841 00000000 		.4byte	testInput
 8769 2845 2B       		.uleb128 0x2b
ARM GAS  C:\Users\IVYLIU~1\AppData\Local\Temp\ccWSfWRg.s 			page 169


 8770 2846 6F060000 		.4byte	0x66f
 8771 284a 56280000 		.4byte	0x2856
 8772 284e 32       		.uleb128 0x32
 8773 284f 01010000 		.4byte	0x101
 8774 2853 FF03     		.2byte	0x3ff
 8775 2855 00       		.byte	0
 8776 2856 2F       		.uleb128 0x2f
 8777 2857 03060000 		.4byte	.LASF164
 8778 285b 01       		.byte	0x1
 8779 285c 2F       		.byte	0x2f
 8780 285d 45280000 		.4byte	0x2845
 8781 2861 05       		.uleb128 0x5
 8782 2862 03       		.byte	0x3
 8783 2863 00000000 		.4byte	testOutput
 8784 2867 2B       		.uleb128 0x2b
 8785 2868 6F070000 		.4byte	0x76f
 8786 286c 77280000 		.4byte	0x2877
 8787 2870 2C       		.uleb128 0x2c
 8788 2871 01010000 		.4byte	0x101
 8789 2875 28       		.byte	0x28
 8790 2876 00       		.byte	0
 8791 2877 2F       		.uleb128 0x2f
 8792 2878 44090000 		.4byte	.LASF165
 8793 287c 01       		.byte	0x1
 8794 287d 5C       		.byte	0x5c
 8795 287e 67280000 		.4byte	0x2867
 8796 2882 05       		.uleb128 0x5
 8797 2883 03       		.byte	0x3
 8798 2884 00000000 		.4byte	notes
 8799 2888 2B       		.uleb128 0x2b
 8800 2889 10010000 		.4byte	0x110
 8801 288d 98280000 		.4byte	0x2898
 8802 2891 2C       		.uleb128 0x2c
 8803 2892 01010000 		.4byte	0x101
 8804 2896 54       		.byte	0x54
 8805 2897 00       		.byte	0
 8806 2898 2F       		.uleb128 0x2f
 8807 2899 D4030000 		.4byte	.LASF166
 8808 289d 01       		.byte	0x1
 8809 289e 90       		.byte	0x90
 8810 289f 88280000 		.4byte	0x2888
 8811 28a3 05       		.uleb128 0x5
 8812 28a4 03       		.byte	0x3
 8813 28a5 00000000 		.4byte	SONG0_SEQ
 8814 28a9 2B       		.uleb128 0x2b
 8815 28aa 10010000 		.4byte	0x110
 8816 28ae B9280000 		.4byte	0x28b9
 8817 28b2 2C       		.uleb128 0x2c
 8818 28b3 01010000 		.4byte	0x101
 8819 28b7 29       		.byte	0x29
 8820 28b8 00       		.byte	0
 8821 28b9 2F       		.uleb128 0x2f
 8822 28ba 21070000 		.4byte	.LASF167
 8823 28be 01       		.byte	0x1
 8824 28bf 9A       		.byte	0x9a
 8825 28c0 A9280000 		.4byte	0x28a9
 8826 28c4 05       		.uleb128 0x5
ARM GAS  C:\Users\IVYLIU~1\AppData\Local\Temp\ccWSfWRg.s 			page 170


 8827 28c5 03       		.byte	0x3
 8828 28c6 00000000 		.4byte	SONG1_SEQ
 8829 28ca 2F       		.uleb128 0x2f
 8830 28cb DD010000 		.4byte	.LASF168
 8831 28cf 01       		.byte	0x1
 8832 28d0 A3       		.byte	0xa3
 8833 28d1 DD070000 		.4byte	0x7dd
 8834 28d5 05       		.uleb128 0x5
 8835 28d6 03       		.byte	0x3
 8836 28d7 00000000 		.4byte	SONGS_LENGTH
 8837 28db 2B       		.uleb128 0x2b
 8838 28dc A0070000 		.4byte	0x7a0
 8839 28e0 EB280000 		.4byte	0x28eb
 8840 28e4 2C       		.uleb128 0x2c
 8841 28e5 01010000 		.4byte	0x101
 8842 28e9 01       		.byte	0x1
 8843 28ea 00       		.byte	0
 8844 28eb 2F       		.uleb128 0x2f
 8845 28ec 2B070000 		.4byte	.LASF169
 8846 28f0 01       		.byte	0x1
 8847 28f1 A4       		.byte	0xa4
 8848 28f2 DB280000 		.4byte	0x28db
 8849 28f6 05       		.uleb128 0x5
 8850 28f7 03       		.byte	0x3
 8851 28f8 00000000 		.4byte	songs
 8852 28fc 0B       		.uleb128 0xb
 8853 28fd 08       		.byte	0x8
 8854 28fe 0A       		.byte	0xa
 8855 28ff 8D       		.byte	0x8d
 8856 2900 1D290000 		.4byte	0x291d
 8857 2904 0D       		.uleb128 0xd
 8858 2905 E8050000 		.4byte	.LASF170
 8859 2909 0A       		.byte	0xa
 8860 290a 8E       		.byte	0x8e
 8861 290b AE260000 		.4byte	0x26ae
 8862 290f 00       		.byte	0
 8863 2910 0D       		.uleb128 0xd
 8864 2911 D5060000 		.4byte	.LASF171
 8865 2915 0A       		.byte	0xa
 8866 2916 8F       		.byte	0x8f
 8867 2917 BF000000 		.4byte	0xbf
 8868 291b 04       		.byte	0x4
 8869 291c 00       		.byte	0
 8870 291d 0B       		.uleb128 0xb
 8871 291e 0C       		.byte	0xc
 8872 291f 0A       		.byte	0xa
 8873 2920 87       		.byte	0x87
 8874 2921 4A290000 		.4byte	0x294a
 8875 2925 0C       		.uleb128 0xc
 8876 2926 73726300 		.ascii	"src\000"
 8877 292a 0A       		.byte	0xa
 8878 292b 88       		.byte	0x88
 8879 292c 27070000 		.4byte	0x727
 8880 2930 00       		.byte	0
 8881 2931 0D       		.uleb128 0xd
 8882 2932 E8050000 		.4byte	.LASF170
 8883 2936 0A       		.byte	0xa
ARM GAS  C:\Users\IVYLIU~1\AppData\Local\Temp\ccWSfWRg.s 			page 171


 8884 2937 89       		.byte	0x89
 8885 2938 AE260000 		.4byte	0x26ae
 8886 293c 04       		.byte	0x4
 8887 293d 0D       		.uleb128 0xd
 8888 293e D5060000 		.4byte	.LASF171
 8889 2942 0A       		.byte	0xa
 8890 2943 8A       		.byte	0x8a
 8891 2944 BF000000 		.4byte	0xbf
 8892 2948 08       		.byte	0x8
 8893 2949 00       		.byte	0
 8894 294a 33       		.uleb128 0x33
 8895 294b 3B050000 		.4byte	.LASF177
 8896 294f 08       		.byte	0x8
 8897 2950 2301     		.2byte	0x123
 8898 2952 B5060000 		.4byte	0x6b5
 8899 2956 65290000 		.4byte	0x2965
 8900 295a 10       		.uleb128 0x10
 8901 295b 65290000 		.4byte	0x2965
 8902 295f 10       		.uleb128 0x10
 8903 2960 A9000000 		.4byte	0xa9
 8904 2964 00       		.byte	0
 8905 2965 08       		.uleb128 0x8
 8906 2966 04       		.byte	0x4
 8907 2967 1B070000 		.4byte	0x71b
 8908 296b 34       		.uleb128 0x34
 8909 296c 75010000 		.4byte	.LASF172
 8910 2970 08       		.byte	0x8
 8911 2971 2701     		.2byte	0x127
 8912 2973 8C290000 		.4byte	0x298c
 8913 2977 10       		.uleb128 0x10
 8914 2978 8C290000 		.4byte	0x298c
 8915 297c 10       		.uleb128 0x10
 8916 297d C1060000 		.4byte	0x6c1
 8917 2981 10       		.uleb128 0x10
 8918 2982 9E000000 		.4byte	0x9e
 8919 2986 10       		.uleb128 0x10
 8920 2987 9E000000 		.4byte	0x9e
 8921 298b 00       		.byte	0
 8922 298c 08       		.uleb128 0x8
 8923 298d 04       		.byte	0x4
 8924 298e 92290000 		.4byte	0x2992
 8925 2992 09       		.uleb128 0x9
 8926 2993 1B070000 		.4byte	0x71b
 8927 2997 35       		.uleb128 0x35
 8928 2998 B5030000 		.4byte	.LASF173
 8929 299c 0D       		.byte	0xd
 8930 299d 8D       		.byte	0x8d
 8931 299e B2290000 		.4byte	0x29b2
 8932 29a2 10       		.uleb128 0x10
 8933 29a3 C7060000 		.4byte	0x6c7
 8934 29a7 10       		.uleb128 0x10
 8935 29a8 C1060000 		.4byte	0x6c1
 8936 29ac 10       		.uleb128 0x10
 8937 29ad BF000000 		.4byte	0xbf
 8938 29b1 00       		.byte	0
 8939 29b2 34       		.uleb128 0x34
 8940 29b3 6D080000 		.4byte	.LASF174
ARM GAS  C:\Users\IVYLIU~1\AppData\Local\Temp\ccWSfWRg.s 			page 172


 8941 29b7 0E       		.byte	0xe
 8942 29b8 C702     		.2byte	0x2c7
 8943 29ba D3290000 		.4byte	0x29d3
 8944 29be 10       		.uleb128 0x10
 8945 29bf C7060000 		.4byte	0x6c7
 8946 29c3 10       		.uleb128 0x10
 8947 29c4 BF000000 		.4byte	0xbf
 8948 29c8 10       		.uleb128 0x10
 8949 29c9 C1060000 		.4byte	0x6c1
 8950 29cd 10       		.uleb128 0x10
 8951 29ce AE260000 		.4byte	0x26ae
 8952 29d2 00       		.byte	0
 8953 29d3 35       		.uleb128 0x35
 8954 29d4 4E040000 		.4byte	.LASF175
 8955 29d8 0F       		.byte	0xf
 8956 29d9 26       		.byte	0x26
 8957 29da E4290000 		.4byte	0x29e4
 8958 29de 10       		.uleb128 0x10
 8959 29df CA000000 		.4byte	0xca
 8960 29e3 00       		.byte	0
 8961 29e4 35       		.uleb128 0x35
 8962 29e5 EB000000 		.4byte	.LASF176
 8963 29e9 10       		.byte	0x10
 8964 29ea 76       		.byte	0x76
 8965 29eb F5290000 		.4byte	0x29f5
 8966 29ef 10       		.uleb128 0x10
 8967 29f0 D6000000 		.4byte	0xd6
 8968 29f4 00       		.byte	0
 8969 29f5 36       		.uleb128 0x36
 8970 29f6 C4080000 		.4byte	.LASF178
 8971 29fa 11       		.byte	0x11
 8972 29fb 3F       		.byte	0x3f
 8973 29fc CA000000 		.4byte	0xca
 8974 2a00 0A2A0000 		.4byte	0x2a0a
 8975 2a04 10       		.uleb128 0x10
 8976 2a05 CA000000 		.4byte	0xca
 8977 2a09 00       		.byte	0
 8978 2a0a 37       		.uleb128 0x37
 8979 2a0b AE070000 		.4byte	.LASF185
 8980 2a0f 11       		.byte	0x11
 8981 2a10 42       		.byte	0x42
 8982 2a11 E2000000 		.4byte	0xe2
 8983 2a15 34       		.uleb128 0x34
 8984 2a16 63070000 		.4byte	.LASF179
 8985 2a1a 0C       		.byte	0xc
 8986 2a1b C001     		.2byte	0x1c0
 8987 2a1d 272A0000 		.4byte	0x2a27
 8988 2a21 10       		.uleb128 0x10
 8989 2a22 38010000 		.4byte	0x138
 8990 2a26 00       		.byte	0
 8991 2a27 34       		.uleb128 0x34
 8992 2a28 56060000 		.4byte	.LASF180
 8993 2a2c 0C       		.byte	0xc
 8994 2a2d C101     		.2byte	0x1c1
 8995 2a2f 392A0000 		.4byte	0x2a39
 8996 2a33 10       		.uleb128 0x10
 8997 2a34 38010000 		.4byte	0x138
ARM GAS  C:\Users\IVYLIU~1\AppData\Local\Temp\ccWSfWRg.s 			page 173


 8998 2a38 00       		.byte	0
 8999 2a39 33       		.uleb128 0x33
 9000 2a3a 37080000 		.4byte	.LASF181
 9001 2a3e 0C       		.byte	0xc
 9002 2a3f 2B03     		.2byte	0x32b
 9003 2a41 8D050000 		.4byte	0x58d
 9004 2a45 4F2A0000 		.4byte	0x2a4f
 9005 2a49 10       		.uleb128 0x10
 9006 2a4a 8D050000 		.4byte	0x58d
 9007 2a4e 00       		.byte	0
 9008 2a4f 33       		.uleb128 0x33
 9009 2a50 79080000 		.4byte	.LASF182
 9010 2a54 0C       		.byte	0xc
 9011 2a55 2703     		.2byte	0x327
 9012 2a57 90000000 		.4byte	0x90
 9013 2a5b 652A0000 		.4byte	0x2a65
 9014 2a5f 10       		.uleb128 0x10
 9015 2a60 90000000 		.4byte	0x90
 9016 2a64 00       		.byte	0
 9017 2a65 33       		.uleb128 0x33
 9018 2a66 4A090000 		.4byte	.LASF183
 9019 2a6a 0C       		.byte	0xc
 9020 2a6b 2603     		.2byte	0x326
 9021 2a6d 90000000 		.4byte	0x90
 9022 2a71 7B2A0000 		.4byte	0x2a7b
 9023 2a75 10       		.uleb128 0x10
 9024 2a76 90000000 		.4byte	0x90
 9025 2a7a 00       		.byte	0
 9026 2a7b 38       		.uleb128 0x38
 9027 2a7c 1B050000 		.4byte	.LASF196
 9028 2a80 0C       		.byte	0xc
 9029 2a81 F601     		.2byte	0x1f6
 9030 2a83 34       		.uleb128 0x34
 9031 2a84 93020000 		.4byte	.LASF184
 9032 2a88 0C       		.byte	0xc
 9033 2a89 0703     		.2byte	0x307
 9034 2a8b 9F2A0000 		.4byte	0x2a9f
 9035 2a8f 10       		.uleb128 0x10
 9036 2a90 10010000 		.4byte	0x110
 9037 2a94 10       		.uleb128 0x10
 9038 2a95 90000000 		.4byte	0x90
 9039 2a99 10       		.uleb128 0x10
 9040 2a9a 90000000 		.4byte	0x90
 9041 2a9e 00       		.byte	0
 9042 2a9f 37       		.uleb128 0x37
 9043 2aa0 A6030000 		.4byte	.LASF186
 9044 2aa4 12       		.byte	0x12
 9045 2aa5 29       		.byte	0x29
 9046 2aa6 CA000000 		.4byte	0xca
 9047 2aaa 39       		.uleb128 0x39
 9048 2aab 6B0A0000 		.4byte	.LASF187
 9049 2aaf 0C       		.byte	0xc
 9050 2ab0 B701     		.2byte	0x1b7
 9051 2ab2 38010000 		.4byte	0x138
 9052 2ab6 34       		.uleb128 0x34
 9053 2ab7 6A090000 		.4byte	.LASF188
 9054 2abb 0C       		.byte	0xc
ARM GAS  C:\Users\IVYLIU~1\AppData\Local\Temp\ccWSfWRg.s 			page 174


 9055 2abc 1A02     		.2byte	0x21a
 9056 2abe D72A0000 		.4byte	0x2ad7
 9057 2ac2 10       		.uleb128 0x10
 9058 2ac3 90000000 		.4byte	0x90
 9059 2ac7 10       		.uleb128 0x10
 9060 2ac8 90000000 		.4byte	0x90
 9061 2acc 10       		.uleb128 0x10
 9062 2acd 90000000 		.4byte	0x90
 9063 2ad1 10       		.uleb128 0x10
 9064 2ad2 90000000 		.4byte	0x90
 9065 2ad6 00       		.byte	0
 9066 2ad7 37       		.uleb128 0x37
 9067 2ad8 D0000000 		.4byte	.LASF189
 9068 2adc 13       		.byte	0x13
 9069 2add 29       		.byte	0x29
 9070 2ade CA000000 		.4byte	0xca
 9071 2ae2 34       		.uleb128 0x34
 9072 2ae3 38060000 		.4byte	.LASF190
 9073 2ae7 0C       		.byte	0xc
 9074 2ae8 1D02     		.2byte	0x21d
 9075 2aea 082B0000 		.4byte	0x2b08
 9076 2aee 10       		.uleb128 0x10
 9077 2aef 90000000 		.4byte	0x90
 9078 2af3 10       		.uleb128 0x10
 9079 2af4 90000000 		.4byte	0x90
 9080 2af8 10       		.uleb128 0x10
 9081 2af9 90000000 		.4byte	0x90
 9082 2afd 10       		.uleb128 0x10
 9083 2afe 90000000 		.4byte	0x90
 9084 2b02 10       		.uleb128 0x10
 9085 2b03 90000000 		.4byte	0x90
 9086 2b07 00       		.byte	0
 9087 2b08 36       		.uleb128 0x36
 9088 2b09 4F000000 		.4byte	.LASF191
 9089 2b0d 14       		.byte	0x14
 9090 2b0e 1C       		.byte	0x1c
 9091 2b0f 90000000 		.4byte	0x90
 9092 2b13 222B0000 		.4byte	0x2b22
 9093 2b17 10       		.uleb128 0x10
 9094 2b18 10010000 		.4byte	0x110
 9095 2b1c 10       		.uleb128 0x10
 9096 2b1d 10010000 		.4byte	0x110
 9097 2b21 00       		.byte	0
 9098 2b22 34       		.uleb128 0x34
 9099 2b23 BA020000 		.4byte	.LASF192
 9100 2b27 0C       		.byte	0xc
 9101 2b28 1802     		.2byte	0x218
 9102 2b2a 432B0000 		.4byte	0x2b43
 9103 2b2e 10       		.uleb128 0x10
 9104 2b2f 90000000 		.4byte	0x90
 9105 2b33 10       		.uleb128 0x10
 9106 2b34 90000000 		.4byte	0x90
 9107 2b38 10       		.uleb128 0x10
 9108 2b39 90000000 		.4byte	0x90
 9109 2b3d 10       		.uleb128 0x10
 9110 2b3e 90000000 		.4byte	0x90
 9111 2b42 00       		.byte	0
ARM GAS  C:\Users\IVYLIU~1\AppData\Local\Temp\ccWSfWRg.s 			page 175


 9112 2b43 34       		.uleb128 0x34
 9113 2b44 E6040000 		.4byte	.LASF193
 9114 2b48 0C       		.byte	0xc
 9115 2b49 0503     		.2byte	0x305
 9116 2b4b 5F2B0000 		.4byte	0x2b5f
 9117 2b4f 10       		.uleb128 0x10
 9118 2b50 10010000 		.4byte	0x110
 9119 2b54 10       		.uleb128 0x10
 9120 2b55 90000000 		.4byte	0x90
 9121 2b59 10       		.uleb128 0x10
 9122 2b5a 90000000 		.4byte	0x90
 9123 2b5e 00       		.byte	0
 9124 2b5f 34       		.uleb128 0x34
 9125 2b60 A8050000 		.4byte	.LASF194
 9126 2b64 0C       		.byte	0xc
 9127 2b65 1202     		.2byte	0x212
 9128 2b67 802B0000 		.4byte	0x2b80
 9129 2b6b 10       		.uleb128 0x10
 9130 2b6c 90000000 		.4byte	0x90
 9131 2b70 10       		.uleb128 0x10
 9132 2b71 90000000 		.4byte	0x90
 9133 2b75 10       		.uleb128 0x10
 9134 2b76 90000000 		.4byte	0x90
 9135 2b7a 10       		.uleb128 0x10
 9136 2b7b 90000000 		.4byte	0x90
 9137 2b7f 00       		.byte	0
 9138 2b80 36       		.uleb128 0x36
 9139 2b81 78000000 		.4byte	.LASF195
 9140 2b85 15       		.byte	0x15
 9141 2b86 DE       		.byte	0xde
 9142 2b87 90000000 		.4byte	0x90
 9143 2b8b 9B2B0000 		.4byte	0x2b9b
 9144 2b8f 10       		.uleb128 0x10
 9145 2b90 0A010000 		.4byte	0x10a
 9146 2b94 10       		.uleb128 0x10
 9147 2b95 10010000 		.4byte	0x110
 9148 2b99 3A       		.uleb128 0x3a
 9149 2b9a 00       		.byte	0
 9150 2b9b 3B       		.uleb128 0x3b
 9151 2b9c 83090000 		.4byte	.LASF197
 9152 2ba0 16       		.byte	0x16
 9153 2ba1 53       		.byte	0x53
 9154 2ba2 39       		.uleb128 0x39
 9155 2ba3 A8090000 		.4byte	.LASF198
 9156 2ba7 0C       		.byte	0xc
 9157 2ba8 6D01     		.2byte	0x16d
 9158 2baa 90000000 		.4byte	0x90
 9159 2bae 3B       		.uleb128 0x3b
 9160 2baf 45030000 		.4byte	.LASF199
 9161 2bb3 11       		.byte	0x11
 9162 2bb4 3A       		.byte	0x3a
 9163 2bb5 3B       		.uleb128 0x3b
 9164 2bb6 44070000 		.4byte	.LASF200
 9165 2bba 11       		.byte	0x11
 9166 2bbb 3D       		.byte	0x3d
 9167 2bbc 36       		.uleb128 0x36
 9168 2bbd C1040000 		.4byte	.LASF201
ARM GAS  C:\Users\IVYLIU~1\AppData\Local\Temp\ccWSfWRg.s 			page 176


 9169 2bc1 09       		.byte	0x9
 9170 2bc2 26       		.byte	0x26
 9171 2bc3 DB2B0000 		.4byte	0x2bdb
 9172 2bc7 DB2B0000 		.4byte	0x2bdb
 9173 2bcb 10       		.uleb128 0x10
 9174 2bcc 97000000 		.4byte	0x97
 9175 2bd0 10       		.uleb128 0x10
 9176 2bd1 08010000 		.4byte	0x108
 9177 2bd5 10       		.uleb128 0x10
 9178 2bd6 25000000 		.4byte	0x25
 9179 2bda 00       		.byte	0
 9180 2bdb 08       		.uleb128 0x8
 9181 2bdc 04       		.byte	0x4
 9182 2bdd E12B0000 		.4byte	0x2be1
 9183 2be1 3C       		.uleb128 0x3c
 9184 2be2 3D       		.uleb128 0x3d
 9185 2be3 3A090000 		.4byte	.LASF207
 9186 2be7 09       		.byte	0x9
 9187 2be8 29       		.byte	0x29
 9188 2be9 3A       		.uleb128 0x3a
 9189 2bea 00       		.byte	0
 9190 2beb 00       		.byte	0
 9191              		.section	.debug_abbrev,"",%progbits
 9192              	.Ldebug_abbrev0:
 9193 0000 01       		.uleb128 0x1
 9194 0001 11       		.uleb128 0x11
 9195 0002 01       		.byte	0x1
 9196 0003 25       		.uleb128 0x25
 9197 0004 0E       		.uleb128 0xe
 9198 0005 13       		.uleb128 0x13
 9199 0006 0B       		.uleb128 0xb
 9200 0007 03       		.uleb128 0x3
 9201 0008 0E       		.uleb128 0xe
 9202 0009 1B       		.uleb128 0x1b
 9203 000a 0E       		.uleb128 0xe
 9204 000b 55       		.uleb128 0x55
 9205 000c 17       		.uleb128 0x17
 9206 000d 11       		.uleb128 0x11
 9207 000e 01       		.uleb128 0x1
 9208 000f 10       		.uleb128 0x10
 9209 0010 17       		.uleb128 0x17
 9210 0011 00       		.byte	0
 9211 0012 00       		.byte	0
 9212 0013 02       		.uleb128 0x2
 9213 0014 24       		.uleb128 0x24
 9214 0015 00       		.byte	0
 9215 0016 0B       		.uleb128 0xb
 9216 0017 0B       		.uleb128 0xb
 9217 0018 3E       		.uleb128 0x3e
 9218 0019 0B       		.uleb128 0xb
 9219 001a 03       		.uleb128 0x3
 9220 001b 0E       		.uleb128 0xe
 9221 001c 00       		.byte	0
 9222 001d 00       		.byte	0
 9223 001e 03       		.uleb128 0x3
 9224 001f 16       		.uleb128 0x16
 9225 0020 00       		.byte	0
ARM GAS  C:\Users\IVYLIU~1\AppData\Local\Temp\ccWSfWRg.s 			page 177


 9226 0021 03       		.uleb128 0x3
 9227 0022 0E       		.uleb128 0xe
 9228 0023 3A       		.uleb128 0x3a
 9229 0024 0B       		.uleb128 0xb
 9230 0025 3B       		.uleb128 0x3b
 9231 0026 0B       		.uleb128 0xb
 9232 0027 49       		.uleb128 0x49
 9233 0028 13       		.uleb128 0x13
 9234 0029 00       		.byte	0
 9235 002a 00       		.byte	0
 9236 002b 04       		.uleb128 0x4
 9237 002c 24       		.uleb128 0x24
 9238 002d 00       		.byte	0
 9239 002e 0B       		.uleb128 0xb
 9240 002f 0B       		.uleb128 0xb
 9241 0030 3E       		.uleb128 0x3e
 9242 0031 0B       		.uleb128 0xb
 9243 0032 03       		.uleb128 0x3
 9244 0033 08       		.uleb128 0x8
 9245 0034 00       		.byte	0
 9246 0035 00       		.byte	0
 9247 0036 05       		.uleb128 0x5
 9248 0037 16       		.uleb128 0x16
 9249 0038 00       		.byte	0
 9250 0039 03       		.uleb128 0x3
 9251 003a 0E       		.uleb128 0xe
 9252 003b 3A       		.uleb128 0x3a
 9253 003c 0B       		.uleb128 0xb
 9254 003d 3B       		.uleb128 0x3b
 9255 003e 05       		.uleb128 0x5
 9256 003f 49       		.uleb128 0x49
 9257 0040 13       		.uleb128 0x13
 9258 0041 00       		.byte	0
 9259 0042 00       		.byte	0
 9260 0043 06       		.uleb128 0x6
 9261 0044 35       		.uleb128 0x35
 9262 0045 00       		.byte	0
 9263 0046 49       		.uleb128 0x49
 9264 0047 13       		.uleb128 0x13
 9265 0048 00       		.byte	0
 9266 0049 00       		.byte	0
 9267 004a 07       		.uleb128 0x7
 9268 004b 0F       		.uleb128 0xf
 9269 004c 00       		.byte	0
 9270 004d 0B       		.uleb128 0xb
 9271 004e 0B       		.uleb128 0xb
 9272 004f 00       		.byte	0
 9273 0050 00       		.byte	0
 9274 0051 08       		.uleb128 0x8
 9275 0052 0F       		.uleb128 0xf
 9276 0053 00       		.byte	0
 9277 0054 0B       		.uleb128 0xb
 9278 0055 0B       		.uleb128 0xb
 9279 0056 49       		.uleb128 0x49
 9280 0057 13       		.uleb128 0x13
 9281 0058 00       		.byte	0
 9282 0059 00       		.byte	0
ARM GAS  C:\Users\IVYLIU~1\AppData\Local\Temp\ccWSfWRg.s 			page 178


 9283 005a 09       		.uleb128 0x9
 9284 005b 26       		.uleb128 0x26
 9285 005c 00       		.byte	0
 9286 005d 49       		.uleb128 0x49
 9287 005e 13       		.uleb128 0x13
 9288 005f 00       		.byte	0
 9289 0060 00       		.byte	0
 9290 0061 0A       		.uleb128 0xa
 9291 0062 26       		.uleb128 0x26
 9292 0063 00       		.byte	0
 9293 0064 00       		.byte	0
 9294 0065 00       		.byte	0
 9295 0066 0B       		.uleb128 0xb
 9296 0067 13       		.uleb128 0x13
 9297 0068 01       		.byte	0x1
 9298 0069 0B       		.uleb128 0xb
 9299 006a 0B       		.uleb128 0xb
 9300 006b 3A       		.uleb128 0x3a
 9301 006c 0B       		.uleb128 0xb
 9302 006d 3B       		.uleb128 0x3b
 9303 006e 0B       		.uleb128 0xb
 9304 006f 01       		.uleb128 0x1
 9305 0070 13       		.uleb128 0x13
 9306 0071 00       		.byte	0
 9307 0072 00       		.byte	0
 9308 0073 0C       		.uleb128 0xc
 9309 0074 0D       		.uleb128 0xd
 9310 0075 00       		.byte	0
 9311 0076 03       		.uleb128 0x3
 9312 0077 08       		.uleb128 0x8
 9313 0078 3A       		.uleb128 0x3a
 9314 0079 0B       		.uleb128 0xb
 9315 007a 3B       		.uleb128 0x3b
 9316 007b 0B       		.uleb128 0xb
 9317 007c 49       		.uleb128 0x49
 9318 007d 13       		.uleb128 0x13
 9319 007e 38       		.uleb128 0x38
 9320 007f 0B       		.uleb128 0xb
 9321 0080 00       		.byte	0
 9322 0081 00       		.byte	0
 9323 0082 0D       		.uleb128 0xd
 9324 0083 0D       		.uleb128 0xd
 9325 0084 00       		.byte	0
 9326 0085 03       		.uleb128 0x3
 9327 0086 0E       		.uleb128 0xe
 9328 0087 3A       		.uleb128 0x3a
 9329 0088 0B       		.uleb128 0xb
 9330 0089 3B       		.uleb128 0x3b
 9331 008a 0B       		.uleb128 0xb
 9332 008b 49       		.uleb128 0x49
 9333 008c 13       		.uleb128 0x13
 9334 008d 38       		.uleb128 0x38
 9335 008e 0B       		.uleb128 0xb
 9336 008f 00       		.byte	0
 9337 0090 00       		.byte	0
 9338 0091 0E       		.uleb128 0xe
 9339 0092 13       		.uleb128 0x13
ARM GAS  C:\Users\IVYLIU~1\AppData\Local\Temp\ccWSfWRg.s 			page 179


 9340 0093 01       		.byte	0x1
 9341 0094 03       		.uleb128 0x3
 9342 0095 0E       		.uleb128 0xe
 9343 0096 0B       		.uleb128 0xb
 9344 0097 0B       		.uleb128 0xb
 9345 0098 3A       		.uleb128 0x3a
 9346 0099 0B       		.uleb128 0xb
 9347 009a 3B       		.uleb128 0x3b
 9348 009b 0B       		.uleb128 0xb
 9349 009c 01       		.uleb128 0x1
 9350 009d 13       		.uleb128 0x13
 9351 009e 00       		.byte	0
 9352 009f 00       		.byte	0
 9353 00a0 0F       		.uleb128 0xf
 9354 00a1 15       		.uleb128 0x15
 9355 00a2 01       		.byte	0x1
 9356 00a3 27       		.uleb128 0x27
 9357 00a4 19       		.uleb128 0x19
 9358 00a5 49       		.uleb128 0x49
 9359 00a6 13       		.uleb128 0x13
 9360 00a7 01       		.uleb128 0x1
 9361 00a8 13       		.uleb128 0x13
 9362 00a9 00       		.byte	0
 9363 00aa 00       		.byte	0
 9364 00ab 10       		.uleb128 0x10
 9365 00ac 05       		.uleb128 0x5
 9366 00ad 00       		.byte	0
 9367 00ae 49       		.uleb128 0x49
 9368 00af 13       		.uleb128 0x13
 9369 00b0 00       		.byte	0
 9370 00b1 00       		.byte	0
 9371 00b2 11       		.uleb128 0x11
 9372 00b3 15       		.uleb128 0x15
 9373 00b4 01       		.byte	0x1
 9374 00b5 27       		.uleb128 0x27
 9375 00b6 19       		.uleb128 0x19
 9376 00b7 01       		.uleb128 0x1
 9377 00b8 13       		.uleb128 0x13
 9378 00b9 00       		.byte	0
 9379 00ba 00       		.byte	0
 9380 00bb 12       		.uleb128 0x12
 9381 00bc 13       		.uleb128 0x13
 9382 00bd 01       		.byte	0x1
 9383 00be 0B       		.uleb128 0xb
 9384 00bf 0B       		.uleb128 0xb
 9385 00c0 3A       		.uleb128 0x3a
 9386 00c1 0B       		.uleb128 0xb
 9387 00c2 3B       		.uleb128 0x3b
 9388 00c3 05       		.uleb128 0x5
 9389 00c4 01       		.uleb128 0x1
 9390 00c5 13       		.uleb128 0x13
 9391 00c6 00       		.byte	0
 9392 00c7 00       		.byte	0
 9393 00c8 13       		.uleb128 0x13
 9394 00c9 0D       		.uleb128 0xd
 9395 00ca 00       		.byte	0
 9396 00cb 03       		.uleb128 0x3
ARM GAS  C:\Users\IVYLIU~1\AppData\Local\Temp\ccWSfWRg.s 			page 180


 9397 00cc 0E       		.uleb128 0xe
 9398 00cd 3A       		.uleb128 0x3a
 9399 00ce 0B       		.uleb128 0xb
 9400 00cf 3B       		.uleb128 0x3b
 9401 00d0 05       		.uleb128 0x5
 9402 00d1 49       		.uleb128 0x49
 9403 00d2 13       		.uleb128 0x13
 9404 00d3 38       		.uleb128 0x38
 9405 00d4 0B       		.uleb128 0xb
 9406 00d5 00       		.byte	0
 9407 00d6 00       		.byte	0
 9408 00d7 14       		.uleb128 0x14
 9409 00d8 13       		.uleb128 0x13
 9410 00d9 01       		.byte	0x1
 9411 00da 03       		.uleb128 0x3
 9412 00db 0E       		.uleb128 0xe
 9413 00dc 0B       		.uleb128 0xb
 9414 00dd 0B       		.uleb128 0xb
 9415 00de 3A       		.uleb128 0x3a
 9416 00df 0B       		.uleb128 0xb
 9417 00e0 3B       		.uleb128 0x3b
 9418 00e1 05       		.uleb128 0x5
 9419 00e2 01       		.uleb128 0x1
 9420 00e3 13       		.uleb128 0x13
 9421 00e4 00       		.byte	0
 9422 00e5 00       		.byte	0
 9423 00e6 15       		.uleb128 0x15
 9424 00e7 0D       		.uleb128 0xd
 9425 00e8 00       		.byte	0
 9426 00e9 03       		.uleb128 0x3
 9427 00ea 08       		.uleb128 0x8
 9428 00eb 3A       		.uleb128 0x3a
 9429 00ec 0B       		.uleb128 0xb
 9430 00ed 3B       		.uleb128 0x3b
 9431 00ee 05       		.uleb128 0x5
 9432 00ef 49       		.uleb128 0x49
 9433 00f0 13       		.uleb128 0x13
 9434 00f1 38       		.uleb128 0x38
 9435 00f2 0B       		.uleb128 0xb
 9436 00f3 00       		.byte	0
 9437 00f4 00       		.byte	0
 9438 00f5 16       		.uleb128 0x16
 9439 00f6 17       		.uleb128 0x17
 9440 00f7 01       		.byte	0x1
 9441 00f8 0B       		.uleb128 0xb
 9442 00f9 0B       		.uleb128 0xb
 9443 00fa 3A       		.uleb128 0x3a
 9444 00fb 0B       		.uleb128 0xb
 9445 00fc 3B       		.uleb128 0x3b
 9446 00fd 05       		.uleb128 0x5
 9447 00fe 01       		.uleb128 0x1
 9448 00ff 13       		.uleb128 0x13
 9449 0100 00       		.byte	0
 9450 0101 00       		.byte	0
 9451 0102 17       		.uleb128 0x17
 9452 0103 0D       		.uleb128 0xd
 9453 0104 00       		.byte	0
ARM GAS  C:\Users\IVYLIU~1\AppData\Local\Temp\ccWSfWRg.s 			page 181


 9454 0105 03       		.uleb128 0x3
 9455 0106 0E       		.uleb128 0xe
 9456 0107 3A       		.uleb128 0x3a
 9457 0108 0B       		.uleb128 0xb
 9458 0109 3B       		.uleb128 0x3b
 9459 010a 05       		.uleb128 0x5
 9460 010b 49       		.uleb128 0x49
 9461 010c 13       		.uleb128 0x13
 9462 010d 00       		.byte	0
 9463 010e 00       		.byte	0
 9464 010f 18       		.uleb128 0x18
 9465 0110 04       		.uleb128 0x4
 9466 0111 01       		.byte	0x1
 9467 0112 0B       		.uleb128 0xb
 9468 0113 0B       		.uleb128 0xb
 9469 0114 3A       		.uleb128 0x3a
 9470 0115 0B       		.uleb128 0xb
 9471 0116 3B       		.uleb128 0x3b
 9472 0117 05       		.uleb128 0x5
 9473 0118 01       		.uleb128 0x1
 9474 0119 13       		.uleb128 0x13
 9475 011a 00       		.byte	0
 9476 011b 00       		.byte	0
 9477 011c 19       		.uleb128 0x19
 9478 011d 28       		.uleb128 0x28
 9479 011e 00       		.byte	0
 9480 011f 03       		.uleb128 0x3
 9481 0120 0E       		.uleb128 0xe
 9482 0121 1C       		.uleb128 0x1c
 9483 0122 0D       		.uleb128 0xd
 9484 0123 00       		.byte	0
 9485 0124 00       		.byte	0
 9486 0125 1A       		.uleb128 0x1a
 9487 0126 04       		.uleb128 0x4
 9488 0127 01       		.byte	0x1
 9489 0128 03       		.uleb128 0x3
 9490 0129 0E       		.uleb128 0xe
 9491 012a 0B       		.uleb128 0xb
 9492 012b 0B       		.uleb128 0xb
 9493 012c 3A       		.uleb128 0x3a
 9494 012d 0B       		.uleb128 0xb
 9495 012e 3B       		.uleb128 0x3b
 9496 012f 0B       		.uleb128 0xb
 9497 0130 01       		.uleb128 0x1
 9498 0131 13       		.uleb128 0x13
 9499 0132 00       		.byte	0
 9500 0133 00       		.byte	0
 9501 0134 1B       		.uleb128 0x1b
 9502 0135 2E       		.uleb128 0x2e
 9503 0136 00       		.byte	0
 9504 0137 3F       		.uleb128 0x3f
 9505 0138 19       		.uleb128 0x19
 9506 0139 03       		.uleb128 0x3
 9507 013a 0E       		.uleb128 0xe
 9508 013b 3A       		.uleb128 0x3a
 9509 013c 0B       		.uleb128 0xb
 9510 013d 3B       		.uleb128 0x3b
ARM GAS  C:\Users\IVYLIU~1\AppData\Local\Temp\ccWSfWRg.s 			page 182


 9511 013e 0B       		.uleb128 0xb
 9512 013f 27       		.uleb128 0x27
 9513 0140 19       		.uleb128 0x19
 9514 0141 11       		.uleb128 0x11
 9515 0142 01       		.uleb128 0x1
 9516 0143 12       		.uleb128 0x12
 9517 0144 06       		.uleb128 0x6
 9518 0145 40       		.uleb128 0x40
 9519 0146 18       		.uleb128 0x18
 9520 0147 9742     		.uleb128 0x2117
 9521 0149 19       		.uleb128 0x19
 9522 014a 00       		.byte	0
 9523 014b 00       		.byte	0
 9524 014c 1C       		.uleb128 0x1c
 9525 014d 2E       		.uleb128 0x2e
 9526 014e 01       		.byte	0x1
 9527 014f 3F       		.uleb128 0x3f
 9528 0150 19       		.uleb128 0x19
 9529 0151 03       		.uleb128 0x3
 9530 0152 0E       		.uleb128 0xe
 9531 0153 3A       		.uleb128 0x3a
 9532 0154 0B       		.uleb128 0xb
 9533 0155 3B       		.uleb128 0x3b
 9534 0156 05       		.uleb128 0x5
 9535 0157 27       		.uleb128 0x27
 9536 0158 19       		.uleb128 0x19
 9537 0159 11       		.uleb128 0x11
 9538 015a 01       		.uleb128 0x1
 9539 015b 12       		.uleb128 0x12
 9540 015c 06       		.uleb128 0x6
 9541 015d 40       		.uleb128 0x40
 9542 015e 18       		.uleb128 0x18
 9543 015f 9742     		.uleb128 0x2117
 9544 0161 19       		.uleb128 0x19
 9545 0162 01       		.uleb128 0x1
 9546 0163 13       		.uleb128 0x13
 9547 0164 00       		.byte	0
 9548 0165 00       		.byte	0
 9549 0166 1D       		.uleb128 0x1d
 9550 0167 05       		.uleb128 0x5
 9551 0168 00       		.byte	0
 9552 0169 03       		.uleb128 0x3
 9553 016a 08       		.uleb128 0x8
 9554 016b 3A       		.uleb128 0x3a
 9555 016c 0B       		.uleb128 0xb
 9556 016d 3B       		.uleb128 0x3b
 9557 016e 05       		.uleb128 0x5
 9558 016f 49       		.uleb128 0x49
 9559 0170 13       		.uleb128 0x13
 9560 0171 02       		.uleb128 0x2
 9561 0172 17       		.uleb128 0x17
 9562 0173 00       		.byte	0
 9563 0174 00       		.byte	0
 9564 0175 1E       		.uleb128 0x1e
 9565 0176 05       		.uleb128 0x5
 9566 0177 00       		.byte	0
 9567 0178 03       		.uleb128 0x3
ARM GAS  C:\Users\IVYLIU~1\AppData\Local\Temp\ccWSfWRg.s 			page 183


 9568 0179 08       		.uleb128 0x8
 9569 017a 3A       		.uleb128 0x3a
 9570 017b 0B       		.uleb128 0xb
 9571 017c 3B       		.uleb128 0x3b
 9572 017d 05       		.uleb128 0x5
 9573 017e 49       		.uleb128 0x49
 9574 017f 13       		.uleb128 0x13
 9575 0180 02       		.uleb128 0x2
 9576 0181 18       		.uleb128 0x18
 9577 0182 00       		.byte	0
 9578 0183 00       		.byte	0
 9579 0184 1F       		.uleb128 0x1f
 9580 0185 2E       		.uleb128 0x2e
 9581 0186 01       		.byte	0x1
 9582 0187 3F       		.uleb128 0x3f
 9583 0188 19       		.uleb128 0x19
 9584 0189 03       		.uleb128 0x3
 9585 018a 0E       		.uleb128 0xe
 9586 018b 3A       		.uleb128 0x3a
 9587 018c 0B       		.uleb128 0xb
 9588 018d 3B       		.uleb128 0x3b
 9589 018e 05       		.uleb128 0x5
 9590 018f 27       		.uleb128 0x27
 9591 0190 19       		.uleb128 0x19
 9592 0191 49       		.uleb128 0x49
 9593 0192 13       		.uleb128 0x13
 9594 0193 11       		.uleb128 0x11
 9595 0194 01       		.uleb128 0x1
 9596 0195 12       		.uleb128 0x12
 9597 0196 06       		.uleb128 0x6
 9598 0197 40       		.uleb128 0x40
 9599 0198 18       		.uleb128 0x18
 9600 0199 9642     		.uleb128 0x2116
 9601 019b 19       		.uleb128 0x19
 9602 019c 01       		.uleb128 0x1
 9603 019d 13       		.uleb128 0x13
 9604 019e 00       		.byte	0
 9605 019f 00       		.byte	0
 9606 01a0 20       		.uleb128 0x20
 9607 01a1 34       		.uleb128 0x34
 9608 01a2 00       		.byte	0
 9609 01a3 03       		.uleb128 0x3
 9610 01a4 0E       		.uleb128 0xe
 9611 01a5 3A       		.uleb128 0x3a
 9612 01a6 0B       		.uleb128 0xb
 9613 01a7 3B       		.uleb128 0x3b
 9614 01a8 05       		.uleb128 0x5
 9615 01a9 49       		.uleb128 0x49
 9616 01aa 13       		.uleb128 0x13
 9617 01ab 02       		.uleb128 0x2
 9618 01ac 17       		.uleb128 0x17
 9619 01ad 00       		.byte	0
 9620 01ae 00       		.byte	0
 9621 01af 21       		.uleb128 0x21
 9622 01b0 34       		.uleb128 0x34
 9623 01b1 00       		.byte	0
 9624 01b2 03       		.uleb128 0x3
ARM GAS  C:\Users\IVYLIU~1\AppData\Local\Temp\ccWSfWRg.s 			page 184


 9625 01b3 08       		.uleb128 0x8
 9626 01b4 3A       		.uleb128 0x3a
 9627 01b5 0B       		.uleb128 0xb
 9628 01b6 3B       		.uleb128 0x3b
 9629 01b7 05       		.uleb128 0x5
 9630 01b8 49       		.uleb128 0x49
 9631 01b9 13       		.uleb128 0x13
 9632 01ba 02       		.uleb128 0x2
 9633 01bb 17       		.uleb128 0x17
 9634 01bc 00       		.byte	0
 9635 01bd 00       		.byte	0
 9636 01be 22       		.uleb128 0x22
 9637 01bf 0B       		.uleb128 0xb
 9638 01c0 01       		.byte	0x1
 9639 01c1 11       		.uleb128 0x11
 9640 01c2 01       		.uleb128 0x1
 9641 01c3 12       		.uleb128 0x12
 9642 01c4 06       		.uleb128 0x6
 9643 01c5 01       		.uleb128 0x1
 9644 01c6 13       		.uleb128 0x13
 9645 01c7 00       		.byte	0
 9646 01c8 00       		.byte	0
 9647 01c9 23       		.uleb128 0x23
 9648 01ca 34       		.uleb128 0x34
 9649 01cb 00       		.byte	0
 9650 01cc 03       		.uleb128 0x3
 9651 01cd 0E       		.uleb128 0xe
 9652 01ce 3A       		.uleb128 0x3a
 9653 01cf 0B       		.uleb128 0xb
 9654 01d0 3B       		.uleb128 0x3b
 9655 01d1 05       		.uleb128 0x5
 9656 01d2 49       		.uleb128 0x49
 9657 01d3 13       		.uleb128 0x13
 9658 01d4 02       		.uleb128 0x2
 9659 01d5 18       		.uleb128 0x18
 9660 01d6 00       		.byte	0
 9661 01d7 00       		.byte	0
 9662 01d8 24       		.uleb128 0x24
 9663 01d9 898201   		.uleb128 0x4109
 9664 01dc 01       		.byte	0x1
 9665 01dd 11       		.uleb128 0x11
 9666 01de 01       		.uleb128 0x1
 9667 01df 31       		.uleb128 0x31
 9668 01e0 13       		.uleb128 0x13
 9669 01e1 01       		.uleb128 0x1
 9670 01e2 13       		.uleb128 0x13
 9671 01e3 00       		.byte	0
 9672 01e4 00       		.byte	0
 9673 01e5 25       		.uleb128 0x25
 9674 01e6 8A8201   		.uleb128 0x410a
 9675 01e9 00       		.byte	0
 9676 01ea 02       		.uleb128 0x2
 9677 01eb 18       		.uleb128 0x18
 9678 01ec 9142     		.uleb128 0x2111
 9679 01ee 18       		.uleb128 0x18
 9680 01ef 00       		.byte	0
 9681 01f0 00       		.byte	0
ARM GAS  C:\Users\IVYLIU~1\AppData\Local\Temp\ccWSfWRg.s 			page 185


 9682 01f1 26       		.uleb128 0x26
 9683 01f2 898201   		.uleb128 0x4109
 9684 01f5 01       		.byte	0x1
 9685 01f6 11       		.uleb128 0x11
 9686 01f7 01       		.uleb128 0x1
 9687 01f8 31       		.uleb128 0x31
 9688 01f9 13       		.uleb128 0x13
 9689 01fa 00       		.byte	0
 9690 01fb 00       		.byte	0
 9691 01fc 27       		.uleb128 0x27
 9692 01fd 898201   		.uleb128 0x4109
 9693 0200 00       		.byte	0
 9694 0201 11       		.uleb128 0x11
 9695 0202 01       		.uleb128 0x1
 9696 0203 31       		.uleb128 0x31
 9697 0204 13       		.uleb128 0x13
 9698 0205 00       		.byte	0
 9699 0206 00       		.byte	0
 9700 0207 28       		.uleb128 0x28
 9701 0208 2E       		.uleb128 0x2e
 9702 0209 01       		.byte	0x1
 9703 020a 3F       		.uleb128 0x3f
 9704 020b 19       		.uleb128 0x19
 9705 020c 03       		.uleb128 0x3
 9706 020d 0E       		.uleb128 0xe
 9707 020e 3A       		.uleb128 0x3a
 9708 020f 0B       		.uleb128 0xb
 9709 0210 3B       		.uleb128 0x3b
 9710 0211 05       		.uleb128 0x5
 9711 0212 27       		.uleb128 0x27
 9712 0213 19       		.uleb128 0x19
 9713 0214 49       		.uleb128 0x49
 9714 0215 13       		.uleb128 0x13
 9715 0216 11       		.uleb128 0x11
 9716 0217 01       		.uleb128 0x1
 9717 0218 12       		.uleb128 0x12
 9718 0219 06       		.uleb128 0x6
 9719 021a 40       		.uleb128 0x40
 9720 021b 18       		.uleb128 0x18
 9721 021c 9742     		.uleb128 0x2117
 9722 021e 19       		.uleb128 0x19
 9723 021f 01       		.uleb128 0x1
 9724 0220 13       		.uleb128 0x13
 9725 0221 00       		.byte	0
 9726 0222 00       		.byte	0
 9727 0223 29       		.uleb128 0x29
 9728 0224 05       		.uleb128 0x5
 9729 0225 00       		.byte	0
 9730 0226 03       		.uleb128 0x3
 9731 0227 0E       		.uleb128 0xe
 9732 0228 3A       		.uleb128 0x3a
 9733 0229 0B       		.uleb128 0xb
 9734 022a 3B       		.uleb128 0x3b
 9735 022b 05       		.uleb128 0x5
 9736 022c 49       		.uleb128 0x49
 9737 022d 13       		.uleb128 0x13
 9738 022e 02       		.uleb128 0x2
ARM GAS  C:\Users\IVYLIU~1\AppData\Local\Temp\ccWSfWRg.s 			page 186


 9739 022f 17       		.uleb128 0x17
 9740 0230 00       		.byte	0
 9741 0231 00       		.byte	0
 9742 0232 2A       		.uleb128 0x2a
 9743 0233 34       		.uleb128 0x34
 9744 0234 00       		.byte	0
 9745 0235 03       		.uleb128 0x3
 9746 0236 0E       		.uleb128 0xe
 9747 0237 3A       		.uleb128 0x3a
 9748 0238 0B       		.uleb128 0xb
 9749 0239 3B       		.uleb128 0x3b
 9750 023a 05       		.uleb128 0x5
 9751 023b 49       		.uleb128 0x49
 9752 023c 13       		.uleb128 0x13
 9753 023d 1C       		.uleb128 0x1c
 9754 023e 0B       		.uleb128 0xb
 9755 023f 00       		.byte	0
 9756 0240 00       		.byte	0
 9757 0241 2B       		.uleb128 0x2b
 9758 0242 01       		.uleb128 0x1
 9759 0243 01       		.byte	0x1
 9760 0244 49       		.uleb128 0x49
 9761 0245 13       		.uleb128 0x13
 9762 0246 01       		.uleb128 0x1
 9763 0247 13       		.uleb128 0x13
 9764 0248 00       		.byte	0
 9765 0249 00       		.byte	0
 9766 024a 2C       		.uleb128 0x2c
 9767 024b 21       		.uleb128 0x21
 9768 024c 00       		.byte	0
 9769 024d 49       		.uleb128 0x49
 9770 024e 13       		.uleb128 0x13
 9771 024f 2F       		.uleb128 0x2f
 9772 0250 0B       		.uleb128 0xb
 9773 0251 00       		.byte	0
 9774 0252 00       		.byte	0
 9775 0253 2D       		.uleb128 0x2d
 9776 0254 2E       		.uleb128 0x2e
 9777 0255 01       		.byte	0x1
 9778 0256 3F       		.uleb128 0x3f
 9779 0257 19       		.uleb128 0x19
 9780 0258 03       		.uleb128 0x3
 9781 0259 0E       		.uleb128 0xe
 9782 025a 3A       		.uleb128 0x3a
 9783 025b 0B       		.uleb128 0xb
 9784 025c 3B       		.uleb128 0x3b
 9785 025d 0B       		.uleb128 0xb
 9786 025e 49       		.uleb128 0x49
 9787 025f 13       		.uleb128 0x13
 9788 0260 11       		.uleb128 0x11
 9789 0261 01       		.uleb128 0x1
 9790 0262 12       		.uleb128 0x12
 9791 0263 06       		.uleb128 0x6
 9792 0264 40       		.uleb128 0x40
 9793 0265 18       		.uleb128 0x18
 9794 0266 9742     		.uleb128 0x2117
 9795 0268 19       		.uleb128 0x19
ARM GAS  C:\Users\IVYLIU~1\AppData\Local\Temp\ccWSfWRg.s 			page 187


 9796 0269 01       		.uleb128 0x1
 9797 026a 13       		.uleb128 0x13
 9798 026b 00       		.byte	0
 9799 026c 00       		.byte	0
 9800 026d 2E       		.uleb128 0x2e
 9801 026e 34       		.uleb128 0x34
 9802 026f 00       		.byte	0
 9803 0270 03       		.uleb128 0x3
 9804 0271 0E       		.uleb128 0xe
 9805 0272 3A       		.uleb128 0x3a
 9806 0273 0B       		.uleb128 0xb
 9807 0274 3B       		.uleb128 0x3b
 9808 0275 0B       		.uleb128 0xb
 9809 0276 49       		.uleb128 0x49
 9810 0277 13       		.uleb128 0x13
 9811 0278 02       		.uleb128 0x2
 9812 0279 17       		.uleb128 0x17
 9813 027a 00       		.byte	0
 9814 027b 00       		.byte	0
 9815 027c 2F       		.uleb128 0x2f
 9816 027d 34       		.uleb128 0x34
 9817 027e 00       		.byte	0
 9818 027f 03       		.uleb128 0x3
 9819 0280 0E       		.uleb128 0xe
 9820 0281 3A       		.uleb128 0x3a
 9821 0282 0B       		.uleb128 0xb
 9822 0283 3B       		.uleb128 0x3b
 9823 0284 0B       		.uleb128 0xb
 9824 0285 49       		.uleb128 0x49
 9825 0286 13       		.uleb128 0x13
 9826 0287 3F       		.uleb128 0x3f
 9827 0288 19       		.uleb128 0x19
 9828 0289 02       		.uleb128 0x2
 9829 028a 18       		.uleb128 0x18
 9830 028b 00       		.byte	0
 9831 028c 00       		.byte	0
 9832 028d 30       		.uleb128 0x30
 9833 028e 34       		.uleb128 0x34
 9834 028f 00       		.byte	0
 9835 0290 03       		.uleb128 0x3
 9836 0291 0E       		.uleb128 0xe
 9837 0292 3A       		.uleb128 0x3a
 9838 0293 0B       		.uleb128 0xb
 9839 0294 3B       		.uleb128 0x3b
 9840 0295 0B       		.uleb128 0xb
 9841 0296 49       		.uleb128 0x49
 9842 0297 13       		.uleb128 0x13
 9843 0298 3F       		.uleb128 0x3f
 9844 0299 19       		.uleb128 0x19
 9845 029a 3C       		.uleb128 0x3c
 9846 029b 19       		.uleb128 0x19
 9847 029c 00       		.byte	0
 9848 029d 00       		.byte	0
 9849 029e 31       		.uleb128 0x31
 9850 029f 34       		.uleb128 0x34
 9851 02a0 00       		.byte	0
 9852 02a1 03       		.uleb128 0x3
ARM GAS  C:\Users\IVYLIU~1\AppData\Local\Temp\ccWSfWRg.s 			page 188


 9853 02a2 0E       		.uleb128 0xe
 9854 02a3 3A       		.uleb128 0x3a
 9855 02a4 0B       		.uleb128 0xb
 9856 02a5 3B       		.uleb128 0x3b
 9857 02a6 05       		.uleb128 0x5
 9858 02a7 49       		.uleb128 0x49
 9859 02a8 13       		.uleb128 0x13
 9860 02a9 3F       		.uleb128 0x3f
 9861 02aa 19       		.uleb128 0x19
 9862 02ab 3C       		.uleb128 0x3c
 9863 02ac 19       		.uleb128 0x19
 9864 02ad 00       		.byte	0
 9865 02ae 00       		.byte	0
 9866 02af 32       		.uleb128 0x32
 9867 02b0 21       		.uleb128 0x21
 9868 02b1 00       		.byte	0
 9869 02b2 49       		.uleb128 0x49
 9870 02b3 13       		.uleb128 0x13
 9871 02b4 2F       		.uleb128 0x2f
 9872 02b5 05       		.uleb128 0x5
 9873 02b6 00       		.byte	0
 9874 02b7 00       		.byte	0
 9875 02b8 33       		.uleb128 0x33
 9876 02b9 2E       		.uleb128 0x2e
 9877 02ba 01       		.byte	0x1
 9878 02bb 3F       		.uleb128 0x3f
 9879 02bc 19       		.uleb128 0x19
 9880 02bd 03       		.uleb128 0x3
 9881 02be 0E       		.uleb128 0xe
 9882 02bf 3A       		.uleb128 0x3a
 9883 02c0 0B       		.uleb128 0xb
 9884 02c1 3B       		.uleb128 0x3b
 9885 02c2 05       		.uleb128 0x5
 9886 02c3 27       		.uleb128 0x27
 9887 02c4 19       		.uleb128 0x19
 9888 02c5 49       		.uleb128 0x49
 9889 02c6 13       		.uleb128 0x13
 9890 02c7 3C       		.uleb128 0x3c
 9891 02c8 19       		.uleb128 0x19
 9892 02c9 01       		.uleb128 0x1
 9893 02ca 13       		.uleb128 0x13
 9894 02cb 00       		.byte	0
 9895 02cc 00       		.byte	0
 9896 02cd 34       		.uleb128 0x34
 9897 02ce 2E       		.uleb128 0x2e
 9898 02cf 01       		.byte	0x1
 9899 02d0 3F       		.uleb128 0x3f
 9900 02d1 19       		.uleb128 0x19
 9901 02d2 03       		.uleb128 0x3
 9902 02d3 0E       		.uleb128 0xe
 9903 02d4 3A       		.uleb128 0x3a
 9904 02d5 0B       		.uleb128 0xb
 9905 02d6 3B       		.uleb128 0x3b
 9906 02d7 05       		.uleb128 0x5
 9907 02d8 27       		.uleb128 0x27
 9908 02d9 19       		.uleb128 0x19
 9909 02da 3C       		.uleb128 0x3c
ARM GAS  C:\Users\IVYLIU~1\AppData\Local\Temp\ccWSfWRg.s 			page 189


 9910 02db 19       		.uleb128 0x19
 9911 02dc 01       		.uleb128 0x1
 9912 02dd 13       		.uleb128 0x13
 9913 02de 00       		.byte	0
 9914 02df 00       		.byte	0
 9915 02e0 35       		.uleb128 0x35
 9916 02e1 2E       		.uleb128 0x2e
 9917 02e2 01       		.byte	0x1
 9918 02e3 3F       		.uleb128 0x3f
 9919 02e4 19       		.uleb128 0x19
 9920 02e5 03       		.uleb128 0x3
 9921 02e6 0E       		.uleb128 0xe
 9922 02e7 3A       		.uleb128 0x3a
 9923 02e8 0B       		.uleb128 0xb
 9924 02e9 3B       		.uleb128 0x3b
 9925 02ea 0B       		.uleb128 0xb
 9926 02eb 27       		.uleb128 0x27
 9927 02ec 19       		.uleb128 0x19
 9928 02ed 3C       		.uleb128 0x3c
 9929 02ee 19       		.uleb128 0x19
 9930 02ef 01       		.uleb128 0x1
 9931 02f0 13       		.uleb128 0x13
 9932 02f1 00       		.byte	0
 9933 02f2 00       		.byte	0
 9934 02f3 36       		.uleb128 0x36
 9935 02f4 2E       		.uleb128 0x2e
 9936 02f5 01       		.byte	0x1
 9937 02f6 3F       		.uleb128 0x3f
 9938 02f7 19       		.uleb128 0x19
 9939 02f8 03       		.uleb128 0x3
 9940 02f9 0E       		.uleb128 0xe
 9941 02fa 3A       		.uleb128 0x3a
 9942 02fb 0B       		.uleb128 0xb
 9943 02fc 3B       		.uleb128 0x3b
 9944 02fd 0B       		.uleb128 0xb
 9945 02fe 27       		.uleb128 0x27
 9946 02ff 19       		.uleb128 0x19
 9947 0300 49       		.uleb128 0x49
 9948 0301 13       		.uleb128 0x13
 9949 0302 3C       		.uleb128 0x3c
 9950 0303 19       		.uleb128 0x19
 9951 0304 01       		.uleb128 0x1
 9952 0305 13       		.uleb128 0x13
 9953 0306 00       		.byte	0
 9954 0307 00       		.byte	0
 9955 0308 37       		.uleb128 0x37
 9956 0309 2E       		.uleb128 0x2e
 9957 030a 00       		.byte	0
 9958 030b 3F       		.uleb128 0x3f
 9959 030c 19       		.uleb128 0x19
 9960 030d 03       		.uleb128 0x3
 9961 030e 0E       		.uleb128 0xe
 9962 030f 3A       		.uleb128 0x3a
 9963 0310 0B       		.uleb128 0xb
 9964 0311 3B       		.uleb128 0x3b
 9965 0312 0B       		.uleb128 0xb
 9966 0313 27       		.uleb128 0x27
ARM GAS  C:\Users\IVYLIU~1\AppData\Local\Temp\ccWSfWRg.s 			page 190


 9967 0314 19       		.uleb128 0x19
 9968 0315 49       		.uleb128 0x49
 9969 0316 13       		.uleb128 0x13
 9970 0317 3C       		.uleb128 0x3c
 9971 0318 19       		.uleb128 0x19
 9972 0319 00       		.byte	0
 9973 031a 00       		.byte	0
 9974 031b 38       		.uleb128 0x38
 9975 031c 2E       		.uleb128 0x2e
 9976 031d 00       		.byte	0
 9977 031e 3F       		.uleb128 0x3f
 9978 031f 19       		.uleb128 0x19
 9979 0320 03       		.uleb128 0x3
 9980 0321 0E       		.uleb128 0xe
 9981 0322 3A       		.uleb128 0x3a
 9982 0323 0B       		.uleb128 0xb
 9983 0324 3B       		.uleb128 0x3b
 9984 0325 05       		.uleb128 0x5
 9985 0326 27       		.uleb128 0x27
 9986 0327 19       		.uleb128 0x19
 9987 0328 3C       		.uleb128 0x3c
 9988 0329 19       		.uleb128 0x19
 9989 032a 00       		.byte	0
 9990 032b 00       		.byte	0
 9991 032c 39       		.uleb128 0x39
 9992 032d 2E       		.uleb128 0x2e
 9993 032e 00       		.byte	0
 9994 032f 3F       		.uleb128 0x3f
 9995 0330 19       		.uleb128 0x19
 9996 0331 03       		.uleb128 0x3
 9997 0332 0E       		.uleb128 0xe
 9998 0333 3A       		.uleb128 0x3a
 9999 0334 0B       		.uleb128 0xb
 10000 0335 3B       		.uleb128 0x3b
 10001 0336 05       		.uleb128 0x5
 10002 0337 27       		.uleb128 0x27
 10003 0338 19       		.uleb128 0x19
 10004 0339 49       		.uleb128 0x49
 10005 033a 13       		.uleb128 0x13
 10006 033b 3C       		.uleb128 0x3c
 10007 033c 19       		.uleb128 0x19
 10008 033d 00       		.byte	0
 10009 033e 00       		.byte	0
 10010 033f 3A       		.uleb128 0x3a
 10011 0340 18       		.uleb128 0x18
 10012 0341 00       		.byte	0
 10013 0342 00       		.byte	0
 10014 0343 00       		.byte	0
 10015 0344 3B       		.uleb128 0x3b
 10016 0345 2E       		.uleb128 0x2e
 10017 0346 00       		.byte	0
 10018 0347 3F       		.uleb128 0x3f
 10019 0348 19       		.uleb128 0x19
 10020 0349 03       		.uleb128 0x3
 10021 034a 0E       		.uleb128 0xe
 10022 034b 3A       		.uleb128 0x3a
 10023 034c 0B       		.uleb128 0xb
ARM GAS  C:\Users\IVYLIU~1\AppData\Local\Temp\ccWSfWRg.s 			page 191


 10024 034d 3B       		.uleb128 0x3b
 10025 034e 0B       		.uleb128 0xb
 10026 034f 27       		.uleb128 0x27
 10027 0350 19       		.uleb128 0x19
 10028 0351 3C       		.uleb128 0x3c
 10029 0352 19       		.uleb128 0x19
 10030 0353 00       		.byte	0
 10031 0354 00       		.byte	0
 10032 0355 3C       		.uleb128 0x3c
 10033 0356 35       		.uleb128 0x35
 10034 0357 00       		.byte	0
 10035 0358 00       		.byte	0
 10036 0359 00       		.byte	0
 10037 035a 3D       		.uleb128 0x3d
 10038 035b 2E       		.uleb128 0x2e
 10039 035c 01       		.byte	0x1
 10040 035d 3F       		.uleb128 0x3f
 10041 035e 19       		.uleb128 0x19
 10042 035f 03       		.uleb128 0x3
 10043 0360 0E       		.uleb128 0xe
 10044 0361 3A       		.uleb128 0x3a
 10045 0362 0B       		.uleb128 0xb
 10046 0363 3B       		.uleb128 0x3b
 10047 0364 0B       		.uleb128 0xb
 10048 0365 3C       		.uleb128 0x3c
 10049 0366 19       		.uleb128 0x19
 10050 0367 00       		.byte	0
 10051 0368 00       		.byte	0
 10052 0369 00       		.byte	0
 10053              		.section	.debug_loc,"",%progbits
 10054              	.Ldebug_loc0:
 10055              	.LLST0:
 10056 0000 00000000 		.4byte	.LVL0
 10057 0004 06000000 		.4byte	.LVL1
 10058 0008 0100     		.2byte	0x1
 10059 000a 50       		.byte	0x50
 10060 000b 06000000 		.4byte	.LVL1
 10061 000f 1C000000 		.4byte	.LFE125
 10062 0013 0400     		.2byte	0x4
 10063 0015 F3       		.byte	0xf3
 10064 0016 01       		.uleb128 0x1
 10065 0017 50       		.byte	0x50
 10066 0018 9F       		.byte	0x9f
 10067 0019 00000000 		.4byte	0
 10068 001d 00000000 		.4byte	0
 10069              	.LLST1:
 10070 0021 00000000 		.4byte	.LVL0
 10071 0025 0C000000 		.4byte	.LVL2
 10072 0029 0100     		.2byte	0x1
 10073 002b 52       		.byte	0x52
 10074 002c 0C000000 		.4byte	.LVL2
 10075 0030 1C000000 		.4byte	.LFE125
 10076 0034 0400     		.2byte	0x4
 10077 0036 F3       		.byte	0xf3
 10078 0037 01       		.uleb128 0x1
 10079 0038 52       		.byte	0x52
 10080 0039 9F       		.byte	0x9f
ARM GAS  C:\Users\IVYLIU~1\AppData\Local\Temp\ccWSfWRg.s 			page 192


 10081 003a 00000000 		.4byte	0
 10082 003e 00000000 		.4byte	0
 10083              	.LLST2:
 10084 0042 04000000 		.4byte	.LVL3
 10085 0046 08000000 		.4byte	.LVL4
 10086 004a 0200     		.2byte	0x2
 10087 004c 30       		.byte	0x30
 10088 004d 9F       		.byte	0x9f
 10089 004e 08000000 		.4byte	.LVL4
 10090 0052 2E000000 		.4byte	.LVL7
 10091 0056 0100     		.2byte	0x1
 10092 0058 55       		.byte	0x55
 10093 0059 2E000000 		.4byte	.LVL7
 10094 005d 30000000 		.4byte	.LVL8
 10095 0061 0200     		.2byte	0x2
 10096 0063 31       		.byte	0x31
 10097 0064 9F       		.byte	0x9f
 10098 0065 30000000 		.4byte	.LVL8
 10099 0069 5C000000 		.4byte	.LVL14
 10100 006d 0100     		.2byte	0x1
 10101 006f 55       		.byte	0x55
 10102 0070 8C000000 		.4byte	.LVL18
 10103 0074 B0000000 		.4byte	.LFE126
 10104 0078 0200     		.2byte	0x2
 10105 007a 30       		.byte	0x30
 10106 007b 9F       		.byte	0x9f
 10107 007c 00000000 		.4byte	0
 10108 0080 00000000 		.4byte	0
 10109              	.LLST3:
 10110 0084 04000000 		.4byte	.LVL3
 10111 0088 08000000 		.4byte	.LVL4
 10112 008c 0200     		.2byte	0x2
 10113 008e 30       		.byte	0x30
 10114 008f 9F       		.byte	0x9f
 10115 0090 08000000 		.4byte	.LVL4
 10116 0094 44000000 		.4byte	.LVL10
 10117 0098 0100     		.2byte	0x1
 10118 009a 54       		.byte	0x54
 10119 009b 46000000 		.4byte	.LVL11
 10120 009f 50000000 		.4byte	.LVL12
 10121 00a3 0100     		.2byte	0x1
 10122 00a5 54       		.byte	0x54
 10123 00a6 86000000 		.4byte	.LVL17
 10124 00aa B0000000 		.4byte	.LFE126
 10125 00ae 0200     		.2byte	0x2
 10126 00b0 30       		.byte	0x30
 10127 00b1 9F       		.byte	0x9f
 10128 00b2 00000000 		.4byte	0
 10129 00b6 00000000 		.4byte	0
 10130              	.LLST4:
 10131 00ba 00000000 		.4byte	.LVL20
 10132 00be 16000000 		.4byte	.LVL24
 10133 00c2 0100     		.2byte	0x1
 10134 00c4 50       		.byte	0x50
 10135 00c5 16000000 		.4byte	.LVL24
 10136 00c9 20000000 		.4byte	.LFE127
 10137 00cd 0400     		.2byte	0x4
ARM GAS  C:\Users\IVYLIU~1\AppData\Local\Temp\ccWSfWRg.s 			page 193


 10138 00cf F3       		.byte	0xf3
 10139 00d0 01       		.uleb128 0x1
 10140 00d1 50       		.byte	0x50
 10141 00d2 9F       		.byte	0x9f
 10142 00d3 00000000 		.4byte	0
 10143 00d7 00000000 		.4byte	0
 10144              	.LLST5:
 10145 00db 00000000 		.4byte	.LVL20
 10146 00df 04000000 		.4byte	.LVL21
 10147 00e3 0600     		.2byte	0x6
 10148 00e5 03       		.byte	0x3
 10149 00e6 00000000 		.4byte	notes
 10150 00ea 9F       		.byte	0x9f
 10151 00eb 04000000 		.4byte	.LVL21
 10152 00ef 20000000 		.4byte	.LFE127
 10153 00f3 0100     		.2byte	0x1
 10154 00f5 53       		.byte	0x53
 10155 00f6 00000000 		.4byte	0
 10156 00fa 00000000 		.4byte	0
 10157              	.LLST6:
 10158 00fe 00000000 		.4byte	.LVL20
 10159 0102 14000000 		.4byte	.LVL23
 10160 0106 0600     		.2byte	0x6
 10161 0108 03       		.byte	0x3
 10162 0109 00000000 		.4byte	.LC0
 10163 010d 9F       		.byte	0x9f
 10164 010e 14000000 		.4byte	.LVL23
 10165 0112 20000000 		.4byte	.LFE127
 10166 0116 0100     		.2byte	0x1
 10167 0118 52       		.byte	0x52
 10168 0119 00000000 		.4byte	0
 10169 011d 00000000 		.4byte	0
 10170              	.LLST7:
 10171 0121 2A000000 		.4byte	.LVL30
 10172 0125 6E000000 		.4byte	.LVL38
 10173 0129 0200     		.2byte	0x2
 10174 012b 30       		.byte	0x30
 10175 012c 9F       		.byte	0x9f
 10176 012d 6E000000 		.4byte	.LVL38
 10177 0131 76000000 		.4byte	.LVL40
 10178 0135 0100     		.2byte	0x1
 10179 0137 55       		.byte	0x55
 10180 0138 76000000 		.4byte	.LVL40
 10181 013c 7A000000 		.4byte	.LVL41
 10182 0140 0100     		.2byte	0x1
 10183 0142 54       		.byte	0x54
 10184 0143 7A000000 		.4byte	.LVL41
 10185 0147 86000000 		.4byte	.LVL42
 10186 014b 0300     		.2byte	0x3
 10187 014d 75       		.byte	0x75
 10188 014e 01       		.sleb128 1
 10189 014f 9F       		.byte	0x9f
 10190 0150 86000000 		.4byte	.LVL42
 10191 0154 AA000000 		.4byte	.LVL47
 10192 0158 0100     		.2byte	0x1
 10193 015a 54       		.byte	0x54
 10194 015b AA000000 		.4byte	.LVL47
ARM GAS  C:\Users\IVYLIU~1\AppData\Local\Temp\ccWSfWRg.s 			page 194


 10195 015f E8000000 		.4byte	.LVL55
 10196 0163 0100     		.2byte	0x1
 10197 0165 55       		.byte	0x55
 10198 0166 E8000000 		.4byte	.LVL55
 10199 016a 08010000 		.4byte	.LFE129
 10200 016e 0100     		.2byte	0x1
 10201 0170 50       		.byte	0x50
 10202 0171 00000000 		.4byte	0
 10203 0175 00000000 		.4byte	0
 10204              	.LLST8:
 10205 0179 00000000 		.4byte	.LVL78
 10206 017d 06000000 		.4byte	.LVL79
 10207 0181 0100     		.2byte	0x1
 10208 0183 50       		.byte	0x50
 10209 0184 06000000 		.4byte	.LVL79
 10210 0188 EA020000 		.4byte	.LVL168
 10211 018c 0100     		.2byte	0x1
 10212 018e 54       		.byte	0x54
 10213 018f EA020000 		.4byte	.LVL168
 10214 0193 40030000 		.4byte	.LVL169
 10215 0197 0400     		.2byte	0x4
 10216 0199 F3       		.byte	0xf3
 10217 019a 01       		.uleb128 0x1
 10218 019b 50       		.byte	0x50
 10219 019c 9F       		.byte	0x9f
 10220 019d 40030000 		.4byte	.LVL169
 10221 01a1 36060000 		.4byte	.LVL259
 10222 01a5 0100     		.2byte	0x1
 10223 01a7 54       		.byte	0x54
 10224 01a8 36060000 		.4byte	.LVL259
 10225 01ac 8C060000 		.4byte	.LVL260
 10226 01b0 0400     		.2byte	0x4
 10227 01b2 F3       		.byte	0xf3
 10228 01b3 01       		.uleb128 0x1
 10229 01b4 50       		.byte	0x50
 10230 01b5 9F       		.byte	0x9f
 10231 01b6 8C060000 		.4byte	.LVL260
 10232 01ba 0E070000 		.4byte	.LVL276
 10233 01be 0100     		.2byte	0x1
 10234 01c0 54       		.byte	0x54
 10235 01c1 0E070000 		.4byte	.LVL276
 10236 01c5 28070000 		.4byte	.LFE132
 10237 01c9 0400     		.2byte	0x4
 10238 01cb F3       		.byte	0xf3
 10239 01cc 01       		.uleb128 0x1
 10240 01cd 50       		.byte	0x50
 10241 01ce 9F       		.byte	0x9f
 10242 01cf 00000000 		.4byte	0
 10243 01d3 00000000 		.4byte	0
 10244              	.LLST9:
 10245 01d7 02000000 		.4byte	.LVL277
 10246 01db 06000000 		.4byte	.LVL278
 10247 01df 0200     		.2byte	0x2
 10248 01e1 30       		.byte	0x30
 10249 01e2 9F       		.byte	0x9f
 10250 01e3 06000000 		.4byte	.LVL278
 10251 01e7 30000000 		.4byte	.LFE133
ARM GAS  C:\Users\IVYLIU~1\AppData\Local\Temp\ccWSfWRg.s 			page 195


 10252 01eb 0100     		.2byte	0x1
 10253 01ed 54       		.byte	0x54
 10254 01ee 00000000 		.4byte	0
 10255 01f2 00000000 		.4byte	0
 10256              	.LLST10:
 10257 01f6 00000000 		.4byte	.LVL282
 10258 01fa 0A000000 		.4byte	.LVL283
 10259 01fe 0100     		.2byte	0x1
 10260 0200 50       		.byte	0x50
 10261 0201 0A000000 		.4byte	.LVL283
 10262 0205 36000000 		.4byte	.LVL290
 10263 0209 0100     		.2byte	0x1
 10264 020b 54       		.byte	0x54
 10265 020c 36000000 		.4byte	.LVL290
 10266 0210 48010000 		.4byte	.LFE128
 10267 0214 0400     		.2byte	0x4
 10268 0216 F3       		.byte	0xf3
 10269 0217 01       		.uleb128 0x1
 10270 0218 50       		.byte	0x50
 10271 0219 9F       		.byte	0x9f
 10272 021a 00000000 		.4byte	0
 10273 021e 00000000 		.4byte	0
 10274              	.LLST11:
 10275 0222 2A000000 		.4byte	.LVL289
 10276 0226 70000000 		.4byte	.LVL296
 10277 022a 0200     		.2byte	0x2
 10278 022c 30       		.byte	0x30
 10279 022d 9F       		.byte	0x9f
 10280 022e 70000000 		.4byte	.LVL296
 10281 0232 32010000 		.4byte	.LVL317
 10282 0236 0100     		.2byte	0x1
 10283 0238 54       		.byte	0x54
 10284 0239 00000000 		.4byte	0
 10285 023d 00000000 		.4byte	0
 10286              	.LLST12:
 10287 0241 22000000 		.4byte	.LVL322
 10288 0245 26000000 		.4byte	.LVL323
 10289 0249 0200     		.2byte	0x2
 10290 024b 30       		.byte	0x30
 10291 024c 9F       		.byte	0x9f
 10292 024d 26000000 		.4byte	.LVL323
 10293 0251 58000000 		.4byte	.LVL325
 10294 0255 0100     		.2byte	0x1
 10295 0257 54       		.byte	0x54
 10296 0258 58000000 		.4byte	.LVL325
 10297 025c 5C000000 		.4byte	.LVL326
 10298 0260 0200     		.2byte	0x2
 10299 0262 31       		.byte	0x31
 10300 0263 9F       		.byte	0x9f
 10301 0264 5C000000 		.4byte	.LVL326
 10302 0268 6C000000 		.4byte	.LVL329
 10303 026c 0100     		.2byte	0x1
 10304 026e 54       		.byte	0x54
 10305 026f 6E000000 		.4byte	.LVL330
 10306 0273 80000000 		.4byte	.LVL333
 10307 0277 0100     		.2byte	0x1
 10308 0279 54       		.byte	0x54
ARM GAS  C:\Users\IVYLIU~1\AppData\Local\Temp\ccWSfWRg.s 			page 196


 10309 027a 82000000 		.4byte	.LVL334
 10310 027e 8A000000 		.4byte	.LVL336
 10311 0282 0100     		.2byte	0x1
 10312 0284 54       		.byte	0x54
 10313 0285 8A000000 		.4byte	.LVL336
 10314 0289 8E000000 		.4byte	.LVL337
 10315 028d 0200     		.2byte	0x2
 10316 028f 33       		.byte	0x33
 10317 0290 9F       		.byte	0x9f
 10318 0291 8E000000 		.4byte	.LVL337
 10319 0295 A0000000 		.4byte	.LVL340
 10320 0299 0100     		.2byte	0x1
 10321 029b 54       		.byte	0x54
 10322 029c A2000000 		.4byte	.LVL341
 10323 02a0 C2000000 		.4byte	.LVL345
 10324 02a4 0100     		.2byte	0x1
 10325 02a6 54       		.byte	0x54
 10326 02a7 C2000000 		.4byte	.LVL345
 10327 02ab C6000000 		.4byte	.LVL346
 10328 02af 0200     		.2byte	0x2
 10329 02b1 35       		.byte	0x35
 10330 02b2 9F       		.byte	0x9f
 10331 02b3 C6000000 		.4byte	.LVL346
 10332 02b7 EC000000 		.4byte	.LVL352
 10333 02bb 0100     		.2byte	0x1
 10334 02bd 54       		.byte	0x54
 10335 02be 1E010000 		.4byte	.LVL357
 10336 02c2 22010000 		.4byte	.LVL358
 10337 02c6 0200     		.2byte	0x2
 10338 02c8 30       		.byte	0x30
 10339 02c9 9F       		.byte	0x9f
 10340 02ca 22010000 		.4byte	.LVL358
 10341 02ce 6C010000 		.4byte	.LFE123
 10342 02d2 0100     		.2byte	0x1
 10343 02d4 54       		.byte	0x54
 10344 02d5 00000000 		.4byte	0
 10345 02d9 00000000 		.4byte	0
 10346              		.section	.debug_aranges,"",%progbits
 10347 0000 6C000000 		.4byte	0x6c
 10348 0004 0200     		.2byte	0x2
 10349 0006 00000000 		.4byte	.Ldebug_info0
 10350 000a 04       		.byte	0x4
 10351 000b 00       		.byte	0
 10352 000c 0000     		.2byte	0
 10353 000e 0000     		.2byte	0
 10354 0010 00000000 		.4byte	.LFB124
 10355 0014 02000000 		.4byte	.LFE124-.LFB124
 10356 0018 00000000 		.4byte	.LFB125
 10357 001c 1C000000 		.4byte	.LFE125-.LFB125
 10358 0020 00000000 		.4byte	.LFB126
 10359 0024 B0000000 		.4byte	.LFE126-.LFB126
 10360 0028 00000000 		.4byte	.LFB127
 10361 002c 20000000 		.4byte	.LFE127-.LFB127
 10362 0030 00000000 		.4byte	.LFB129
 10363 0034 08010000 		.4byte	.LFE129-.LFB129
 10364 0038 00000000 		.4byte	.LFB130
 10365 003c 3C000000 		.4byte	.LFE130-.LFB130
ARM GAS  C:\Users\IVYLIU~1\AppData\Local\Temp\ccWSfWRg.s 			page 197


 10366 0040 00000000 		.4byte	.LFB131
 10367 0044 A0000000 		.4byte	.LFE131-.LFB131
 10368 0048 00000000 		.4byte	.LFB132
 10369 004c 28070000 		.4byte	.LFE132-.LFB132
 10370 0050 00000000 		.4byte	.LFB133
 10371 0054 30000000 		.4byte	.LFE133-.LFB133
 10372 0058 00000000 		.4byte	.LFB128
 10373 005c 48010000 		.4byte	.LFE128-.LFB128
 10374 0060 00000000 		.4byte	.LFB123
 10375 0064 6C010000 		.4byte	.LFE123-.LFB123
 10376 0068 00000000 		.4byte	0
 10377 006c 00000000 		.4byte	0
 10378              		.section	.debug_ranges,"",%progbits
 10379              	.Ldebug_ranges0:
 10380 0000 00000000 		.4byte	.LFB124
 10381 0004 02000000 		.4byte	.LFE124
 10382 0008 00000000 		.4byte	.LFB125
 10383 000c 1C000000 		.4byte	.LFE125
 10384 0010 00000000 		.4byte	.LFB126
 10385 0014 B0000000 		.4byte	.LFE126
 10386 0018 00000000 		.4byte	.LFB127
 10387 001c 20000000 		.4byte	.LFE127
 10388 0020 00000000 		.4byte	.LFB129
 10389 0024 08010000 		.4byte	.LFE129
 10390 0028 00000000 		.4byte	.LFB130
 10391 002c 3C000000 		.4byte	.LFE130
 10392 0030 00000000 		.4byte	.LFB131
 10393 0034 A0000000 		.4byte	.LFE131
 10394 0038 00000000 		.4byte	.LFB132
 10395 003c 28070000 		.4byte	.LFE132
 10396 0040 00000000 		.4byte	.LFB133
 10397 0044 30000000 		.4byte	.LFE133
 10398 0048 00000000 		.4byte	.LFB128
 10399 004c 48010000 		.4byte	.LFE128
 10400 0050 00000000 		.4byte	.LFB123
 10401 0054 6C010000 		.4byte	.LFE123
 10402 0058 00000000 		.4byte	0
 10403 005c 00000000 		.4byte	0
 10404              		.section	.debug_line,"",%progbits
 10405              	.Ldebug_line0:
 10406 0000 E2040000 		.section	.debug_str,"MS",%progbits,1
 10406      0200A902 
 10406      00000201 
 10406      FB0E0D00 
 10406      01010101 
 10407              	.LASF95:
 10408 0000 61726D5F 		.ascii	"arm_cfft_instance_f32\000"
 10408      63666674 
 10408      5F696E73 
 10408      74616E63 
 10408      655F6633 
 10409              	.LASF107:
 10410 0016 6B65795F 		.ascii	"key_num\000"
 10410      6E756D00 
 10411              	.LASF151:
 10412 001e 4755495F 		.ascii	"GUI_Font32B_ASCII\000"
 10412      466F6E74 
ARM GAS  C:\Users\IVYLIU~1\AppData\Local\Temp\ccWSfWRg.s 			page 198


 10412      3332425F 
 10412      41534349 
 10412      4900
 10413              	.LASF109:
 10414 0030 736F6E67 		.ascii	"song_number\000"
 10414      5F6E756D 
 10414      62657200 
 10415              	.LASF101:
 10416 003c 43414C49 		.ascii	"CALIBRATE\000"
 10416      42524154 
 10416      4500
 10417              	.LASF113:
 10418 0046 6D617856 		.ascii	"maxValue\000"
 10418      616C7565 
 10418      00
 10419              	.LASF191:
 10420 004f 73747263 		.ascii	"strcmp\000"
 10420      6D7000
 10421              	.LASF30:
 10422 0056 4755495F 		.ascii	"GUI_FONT_TRANSINFO\000"
 10422      464F4E54 
 10422      5F545241 
 10422      4E53494E 
 10422      464F00
 10423              	.LASF141:
 10424 0069 5F5F636F 		.ascii	"__copy_table_t\000"
 10424      70795F74 
 10424      61626C65 
 10424      5F7400
 10425              	.LASF195:
 10426 0078 73707269 		.ascii	"sprintf\000"
 10426      6E746600 
 10427              	.LASF38:
 10428 0080 59506F73 		.ascii	"YPos\000"
 10428      00
 10429              	.LASF144:
 10430 0085 5F5F7A65 		.ascii	"__zero_table_t\000"
 10430      726F5F74 
 10430      61626C65 
 10430      5F7400
 10431              	.LASF4:
 10432 0094 5F5F7569 		.ascii	"__uint8_t\000"
 10432      6E74385F 
 10432      7400
 10433              	.LASF43:
 10434 009e 704E6578 		.ascii	"pNext\000"
 10434      7400
 10435              	.LASF163:
 10436 00a4 74657374 		.ascii	"testInput\000"
 10436      496E7075 
 10436      7400
 10437              	.LASF39:
 10438 00ae 4755495F 		.ascii	"GUI_CHARINFO_EXT\000"
 10438      43484152 
 10438      494E464F 
 10438      5F455854 
 10438      00
ARM GAS  C:\Users\IVYLIU~1\AppData\Local\Temp\ccWSfWRg.s 			page 199


 10439              	.LASF82:
 10440 00bf 41524D5F 		.ascii	"ARM_MATH_SUCCESS\000"
 10440      4D415448 
 10440      5F535543 
 10440      43455353 
 10440      00
 10441              	.LASF189:
 10442 00d0 5357335F 		.ascii	"SW3_Read\000"
 10442      52656164 
 10442      00
 10443              	.LASF45:
 10444 00d9 4755495F 		.ascii	"GUI_FONT_PROP_EXT\000"
 10444      464F4E54 
 10444      5F50524F 
 10444      505F4558 
 10444      5400
 10445              	.LASF176:
 10446 00eb 43794465 		.ascii	"CyDelay\000"
 10446      6C617900 
 10447              	.LASF51:
 10448 00f3 4C486569 		.ascii	"LHeight\000"
 10448      67687400 
 10449              	.LASF204:
 10450 00fb 5C5C766D 		.ascii	"\\\\vmware-host\\Shared Folders\\Documents\\PSoC Cr"
 10450      77617265 
 10450      2D686F73 
 10450      745C5368 
 10450      61726564 
 10451 0129 6561746F 		.ascii	"eator\\FinalProject\\FinalV2.cydsn\000"
 10451      725C4669 
 10451      6E616C50 
 10451      726F6A65 
 10451      63745C46 
 10452              	.LASF12:
 10453 014a 6C6F6E67 		.ascii	"long long unsigned int\000"
 10453      206C6F6E 
 10453      6720756E 
 10453      7369676E 
 10453      65642069 
 10454              	.LASF122:
 10455 0161 64726177 		.ascii	"drawCalibrateScreen\000"
 10455      43616C69 
 10455      62726174 
 10455      65536372 
 10455      65656E00 
 10456              	.LASF172:
 10457 0175 61726D5F 		.ascii	"arm_cfft_f32\000"
 10457      63666674 
 10457      5F663332 
 10457      00
 10458              	.LASF97:
 10459 0182 4D4F4445 		.ascii	"MODE_SELECT\000"
 10459      5F53454C 
 10459      45435400 
 10460              	.LASF7:
 10461 018e 5F5F696E 		.ascii	"__int32_t\000"
 10461      7433325F 
ARM GAS  C:\Users\IVYLIU~1\AppData\Local\Temp\ccWSfWRg.s 			page 200


 10461      7400
 10462              	.LASF147:
 10463 0198 49544D5F 		.ascii	"ITM_RxBuffer\000"
 10463      52784275 
 10463      66666572 
 10463      00
 10464              	.LASF74:
 10465 01a5 4755495F 		.ascii	"GUI_ISINFONT\000"
 10465      4953494E 
 10465      464F4E54 
 10465      00
 10466              	.LASF66:
 10467 01b2 70664765 		.ascii	"pfGetCharInfo\000"
 10467      74436861 
 10467      72496E66 
 10467      6F00
 10468              	.LASF143:
 10469 01c0 5F5F636F 		.ascii	"__copy_table_end__\000"
 10469      70795F74 
 10469      61626C65 
 10469      5F656E64 
 10469      5F5F00
 10470              	.LASF161:
 10471 01d3 74657374 		.ascii	"testIndex\000"
 10471      496E6465 
 10471      7800
 10472              	.LASF168:
 10473 01dd 534F4E47 		.ascii	"SONGS_LENGTH\000"
 10473      535F4C45 
 10473      4E475448 
 10473      00
 10474              	.LASF11:
 10475 01ea 6C6F6E67 		.ascii	"long long int\000"
 10475      206C6F6E 
 10475      6720696E 
 10475      7400
 10476              	.LASF1:
 10477 01f8 7369676E 		.ascii	"signed char\000"
 10477      65642063 
 10477      68617200 
 10478              	.LASF135:
 10479 0204 4E505F67 		.ascii	"NP_g_nNumberOfPixels\000"
 10479      5F6E4E75 
 10479      6D626572 
 10479      4F665069 
 10479      78656C73 
 10480              	.LASF126:
 10481 0219 74657874 		.ascii	"text_x\000"
 10481      5F7800
 10482              	.LASF127:
 10483 0220 74657874 		.ascii	"text_y\000"
 10483      5F7900
 10484              	.LASF28:
 10485 0227 4C617374 		.ascii	"LastChar\000"
 10485      43686172 
 10485      00
 10486              	.LASF149:
ARM GAS  C:\Users\IVYLIU~1\AppData\Local\Temp\ccWSfWRg.s 			page 201


 10487 0230 4755495F 		.ascii	"GUI_Font20B_ASCII\000"
 10487      466F6E74 
 10487      3230425F 
 10487      41534349 
 10487      4900
 10488              	.LASF205:
 10489 0242 53746174 		.ascii	"States\000"
 10489      657300
 10490              	.LASF64:
 10491 0249 70664765 		.ascii	"pfGetFontInfo\000"
 10491      74466F6E 
 10491      74496E66 
 10491      6F00
 10492              	.LASF159:
 10493 0257 646F4269 		.ascii	"doBitReverse\000"
 10493      74526576 
 10493      65727365 
 10493      00
 10494              	.LASF86:
 10495 0264 41524D5F 		.ascii	"ARM_MATH_NANINF\000"
 10495      4D415448 
 10495      5F4E414E 
 10495      494E4600 
 10496              	.LASF138:
 10497 0274 4E505F67 		.ascii	"NP_g_bOwnsBuffer\000"
 10497      5F624F77 
 10497      6E734275 
 10497      66666572 
 10497      00
 10498              	.LASF44:
 10499 0285 4755495F 		.ascii	"GUI_FONT_PROP\000"
 10499      464F4E54 
 10499      5F50524F 
 10499      5000
 10500              	.LASF184:
 10501 0293 4755495F 		.ascii	"GUI_DispStringHCenterAt\000"
 10501      44697370 
 10501      53747269 
 10501      6E674843 
 10501      656E7465 
 10502              	.LASF134:
 10503 02ab 73746174 		.ascii	"state\000"
 10503      6500
 10504              	.LASF8:
 10505 02b1 6C6F6E67 		.ascii	"long int\000"
 10505      20696E74 
 10505      00
 10506              	.LASF192:
 10507 02ba 4755495F 		.ascii	"GUI_FillEllipse\000"
 10507      46696C6C 
 10507      456C6C69 
 10507      70736500 
 10508              	.LASF18:
 10509 02ca 75696E74 		.ascii	"uint8\000"
 10509      3800
 10510              	.LASF132:
 10511 02d0 6375725F 		.ascii	"cur_song\000"
ARM GAS  C:\Users\IVYLIU~1\AppData\Local\Temp\ccWSfWRg.s 			page 202


 10511      736F6E67 
 10511      00
 10512              	.LASF93:
 10513 02d9 70426974 		.ascii	"pBitRevTable\000"
 10513      52657654 
 10513      61626C65 
 10513      00
 10514              	.LASF15:
 10515 02e6 75696E74 		.ascii	"uint16_t\000"
 10515      31365F74 
 10515      00
 10516              	.LASF62:
 10517 02ef 70664469 		.ascii	"pfDispChar\000"
 10517      73704368 
 10517      617200
 10518              	.LASF0:
 10519 02fa 646F7562 		.ascii	"double\000"
 10519      6C6500
 10520              	.LASF54:
 10521 0301 74475549 		.ascii	"tGUI_GetLineDistX\000"
 10521      5F476574 
 10521      4C696E65 
 10521      44697374 
 10521      5800
 10522              	.LASF120:
 10523 0313 736F6E67 		.ascii	"song_index\000"
 10523      5F696E64 
 10523      657800
 10524              	.LASF136:
 10525 031e 4E505F67 		.ascii	"NP_g_nDMA_Chan\000"
 10525      5F6E444D 
 10525      415F4368 
 10525      616E00
 10526              	.LASF78:
 10527 032d 7050726F 		.ascii	"pProp\000"
 10527      7000
 10528              	.LASF150:
 10529 0333 4755495F 		.ascii	"GUI_Font24B_ASCII\000"
 10529      466F6E74 
 10529      3234425F 
 10529      41534349 
 10529      4900
 10530              	.LASF199:
 10531 0345 4144435F 		.ascii	"ADC_DelSig_1_Start\000"
 10531      44656C53 
 10531      69675F31 
 10531      5F537461 
 10531      727400
 10532              	.LASF75:
 10533 0358 4755495F 		.ascii	"GUI_GETCHARINFO\000"
 10533      47455443 
 10533      48415249 
 10533      4E464F00 
 10534              	.LASF19:
 10535 0368 75696E74 		.ascii	"uint32\000"
 10535      333200
 10536              	.LASF61:
ARM GAS  C:\Users\IVYLIU~1\AppData\Local\Temp\ccWSfWRg.s 			page 203


 10537 036f 4755495F 		.ascii	"GUI_FONT\000"
 10537      464F4E54 
 10537      00
 10538              	.LASF55:
 10539 0378 74475549 		.ascii	"tGUI_GetLineLen\000"
 10539      5F476574 
 10539      4C696E65 
 10539      4C656E00 
 10540              	.LASF68:
 10541 0388 59446973 		.ascii	"YDist\000"
 10541      7400
 10542              	.LASF157:
 10543 038e 66667453 		.ascii	"fftSize\000"
 10543      697A6500 
 10544              	.LASF100:
 10545 0396 43414C49 		.ascii	"CALIBRATE_SETUP\000"
 10545      42524154 
 10545      455F5345 
 10545      54555000 
 10546              	.LASF186:
 10547 03a6 5357325F 		.ascii	"SW2_Read\000"
 10547      52656164 
 10547      00
 10548              	.LASF108:
 10549 03af 536F6E67 		.ascii	"Songs\000"
 10549      7300
 10550              	.LASF173:
 10551 03b5 61726D5F 		.ascii	"arm_cmplx_mag_f32\000"
 10551      636D706C 
 10551      785F6D61 
 10551      675F6633 
 10551      3200
 10552              	.LASF20:
 10553 03c7 696E7433 		.ascii	"int32\000"
 10553      3200
 10554              	.LASF91:
 10555 03cd 6666744C 		.ascii	"fftLen\000"
 10555      656E00
 10556              	.LASF166:
 10557 03d4 534F4E47 		.ascii	"SONG0_SEQ\000"
 10557      305F5345 
 10557      5100
 10558              	.LASF69:
 10559 03de 584D6167 		.ascii	"XMag\000"
 10559      00
 10560              	.LASF26:
 10561 03e3 4755495F 		.ascii	"GUI_FONT_TRANSLIST\000"
 10561      464F4E54 
 10561      5F545241 
 10561      4E534C49 
 10561      535400
 10562              	.LASF13:
 10563 03f6 756E7369 		.ascii	"unsigned int\000"
 10563      676E6564 
 10563      20696E74 
 10563      00
 10564              	.LASF10:
ARM GAS  C:\Users\IVYLIU~1\AppData\Local\Temp\ccWSfWRg.s 			page 204


 10565 0403 6C6F6E67 		.ascii	"long unsigned int\000"
 10565      20756E73 
 10565      69676E65 
 10565      6420696E 
 10565      7400
 10566              	.LASF105:
 10567 0415 6E616D65 		.ascii	"name\000"
 10567      00
 10568              	.LASF72:
 10569 041a 4755495F 		.ascii	"GUI_GETCHARDISTX\000"
 10569      47455443 
 10569      48415244 
 10569      49535458 
 10569      00
 10570              	.LASF123:
 10571 042b 64726177 		.ascii	"drawStartScreen\000"
 10571      53746172 
 10571      74536372 
 10571      65656E00 
 10572              	.LASF6:
 10573 043b 73686F72 		.ascii	"short unsigned int\000"
 10573      7420756E 
 10573      7369676E 
 10573      65642069 
 10573      6E7400
 10574              	.LASF175:
 10575 044e 6164635F 		.ascii	"adc_threshold_Write\000"
 10575      74687265 
 10575      73686F6C 
 10575      645F5772 
 10575      69746500 
 10576              	.LASF89:
 10577 0462 41524D5F 		.ascii	"ARM_MATH_DECOMPOSITION_FAILURE\000"
 10577      4D415448 
 10577      5F444543 
 10577      4F4D504F 
 10577      53495449 
 10578              	.LASF50:
 10579 0481 42617365 		.ascii	"Baseline\000"
 10579      6C696E65 
 10579      00
 10580              	.LASF25:
 10581 048a 4755495F 		.ascii	"GUI_COLOR\000"
 10581      434F4C4F 
 10581      5200
 10582              	.LASF88:
 10583 0494 41524D5F 		.ascii	"ARM_MATH_TEST_FAILURE\000"
 10583      4D415448 
 10583      5F544553 
 10583      545F4641 
 10583      494C5552 
 10584              	.LASF53:
 10585 04aa 4755495F 		.ascii	"GUI_FONTINFO\000"
 10585      464F4E54 
 10585      494E464F 
 10585      00
 10586              	.LASF76:
ARM GAS  C:\Users\IVYLIU~1\AppData\Local\Temp\ccWSfWRg.s 			page 205


 10587 04b7 70466F6E 		.ascii	"pFontData\000"
 10587      74446174 
 10587      6100
 10588              	.LASF201:
 10589 04c1 4E505F53 		.ascii	"NP_Start\000"
 10589      74617274 
 10589      00
 10590              	.LASF71:
 10591 04ca 4755495F 		.ascii	"GUI_DISPCHAR\000"
 10591      44495350 
 10591      43484152 
 10591      00
 10592              	.LASF47:
 10593 04d7 70547261 		.ascii	"pTrans\000"
 10593      6E7300
 10594              	.LASF52:
 10595 04de 43486569 		.ascii	"CHeight\000"
 10595      67687400 
 10596              	.LASF193:
 10597 04e6 4755495F 		.ascii	"GUI_DispStringAt\000"
 10597      44697370 
 10597      53747269 
 10597      6E674174 
 10597      00
 10598              	.LASF160:
 10599 04f7 76617249 		.ascii	"varInstCfftF32\000"
 10599      6E737443 
 10599      66667446 
 10599      333200
 10600              	.LASF155:
 10601 0506 44656C74 		.ascii	"Deltapower\000"
 10601      61706F77 
 10601      657200
 10602              	.LASF24:
 10603 0511 4C43445F 		.ascii	"LCD_COLOR\000"
 10603      434F4C4F 
 10603      5200
 10604              	.LASF196:
 10605 051b 4755495F 		.ascii	"GUI_Clear\000"
 10605      436C6561 
 10605      7200
 10606              	.LASF152:
 10607 0525 74657374 		.ascii	"test_string\000"
 10607      5F737472 
 10607      696E6700 
 10608              	.LASF156:
 10609 0531 61646352 		.ascii	"adcResult\000"
 10609      6573756C 
 10609      7400
 10610              	.LASF177:
 10611 053b 61726D5F 		.ascii	"arm_cfft_init_f32\000"
 10611      63666674 
 10611      5F696E69 
 10611      745F6633 
 10611      3200
 10612              	.LASF148:
 10613 054d 4755495F 		.ascii	"GUI_Font16B_ASCII\000"
ARM GAS  C:\Users\IVYLIU~1\AppData\Local\Temp\ccWSfWRg.s 			page 206


 10613      466F6E74 
 10613      3136425F 
 10613      41534349 
 10613      4900
 10614              	.LASF23:
 10615 055f 73697A65 		.ascii	"sizetype\000"
 10615      74797065 
 10615      00
 10616              	.LASF73:
 10617 0568 4755495F 		.ascii	"GUI_GETFONTINFO\000"
 10617      47455446 
 10617      4F4E5449 
 10617      4E464F00 
 10618              	.LASF162:
 10619 0578 6D696464 		.ascii	"middle_c_bin\000"
 10619      6C655F63 
 10619      5F62696E 
 10619      00
 10620              	.LASF33:
 10621 0585 42797465 		.ascii	"BytesPerLine\000"
 10621      73506572 
 10621      4C696E65 
 10621      00
 10622              	.LASF203:
 10623 0592 2E5C6D61 		.ascii	".\\main.c\000"
 10623      696E2E63 
 10623      00
 10624              	.LASF137:
 10625 059b 4E505F67 		.ascii	"NP_g_nDMA_TD\000"
 10625      5F6E444D 
 10625      415F5444 
 10625      00
 10626              	.LASF194:
 10627 05a8 4755495F 		.ascii	"GUI_DrawRect\000"
 10627      44726177 
 10627      52656374 
 10627      00
 10628              	.LASF48:
 10629 05b5 4755495F 		.ascii	"GUI_FONT_MONO\000"
 10629      464F4E54 
 10629      5F4D4F4E 
 10629      4F00
 10630              	.LASF117:
 10631 05c3 6375725F 		.ascii	"cur_note\000"
 10631      6E6F7465 
 10631      00
 10632              	.LASF129:
 10633 05cc 64726177 		.ascii	"drawPlaySong\000"
 10633      506C6179 
 10633      536F6E67 
 10633      00
 10634              	.LASF63:
 10635 05d9 70664765 		.ascii	"pfGetCharDistX\000"
 10635      74436861 
 10635      72446973 
 10635      745800
 10636              	.LASF170:
ARM GAS  C:\Users\IVYLIU~1\AppData\Local\Temp\ccWSfWRg.s 			page 207


 10637 05e8 64657374 		.ascii	"dest\000"
 10637      00
 10638              	.LASF84:
 10639 05ed 41524D5F 		.ascii	"ARM_MATH_LENGTH_ERROR\000"
 10639      4D415448 
 10639      5F4C454E 
 10639      4754485F 
 10639      4552524F 
 10640              	.LASF164:
 10641 0603 74657374 		.ascii	"testOutput\000"
 10641      4F757470 
 10641      757400
 10642              	.LASF139:
 10643 060e 4E505F67 		.ascii	"NP_g_pFrameBuffer\000"
 10643      5F704672 
 10643      616D6542 
 10643      75666665 
 10643      7200
 10644              	.LASF21:
 10645 0620 666C6F61 		.ascii	"float\000"
 10645      7400
 10646              	.LASF87:
 10647 0626 41524D5F 		.ascii	"ARM_MATH_SINGULAR\000"
 10647      4D415448 
 10647      5F53494E 
 10647      47554C41 
 10647      5200
 10648              	.LASF190:
 10649 0638 4755495F 		.ascii	"GUI_FillRoundedRect\000"
 10649      46696C6C 
 10649      526F756E 
 10649      64656452 
 10649      65637400 
 10650              	.LASF128:
 10651 064c 64726177 		.ascii	"drawClefs\000"
 10651      436C6566 
 10651      7300
 10652              	.LASF180:
 10653 0656 4755495F 		.ascii	"GUI_SetColor\000"
 10653      53657443 
 10653      6F6C6F72 
 10653      00
 10654              	.LASF145:
 10655 0663 5F5F7A65 		.ascii	"__zero_table_start__\000"
 10655      726F5F74 
 10655      61626C65 
 10655      5F737461 
 10655      72745F5F 
 10656              	.LASF46:
 10657 0678 70547261 		.ascii	"pTransData\000"
 10657      6E734461 
 10657      746100
 10658              	.LASF102:
 10659 0683 52455345 		.ascii	"RESET\000"
 10659      5400
 10660              	.LASF114:
 10661 0689 64657465 		.ascii	"detectNote\000"
ARM GAS  C:\Users\IVYLIU~1\AppData\Local\Temp\ccWSfWRg.s 			page 208


 10661      63744E6F 
 10661      746500
 10662              	.LASF94:
 10663 0694 62697452 		.ascii	"bitRevLength\000"
 10663      65764C65 
 10663      6E677468 
 10663      00
 10664              	.LASF40:
 10665 06a1 46697273 		.ascii	"First\000"
 10665      7400
 10666              	.LASF56:
 10667 06a7 74474C5F 		.ascii	"tGL_DispLine\000"
 10667      44697370 
 10667      4C696E65 
 10667      00
 10668              	.LASF16:
 10669 06b4 696E7433 		.ascii	"int32_t\000"
 10669      325F7400 
 10670              	.LASF2:
 10671 06bc 756E7369 		.ascii	"unsigned char\000"
 10671      676E6564 
 10671      20636861 
 10671      7200
 10672              	.LASF32:
 10673 06ca 58446973 		.ascii	"XDist\000"
 10673      7400
 10674              	.LASF118:
 10675 06d0 6E6F7465 		.ascii	"note\000"
 10675      00
 10676              	.LASF171:
 10677 06d5 776C656E 		.ascii	"wlen\000"
 10677      00
 10678              	.LASF3:
 10679 06da 73686F72 		.ascii	"short int\000"
 10679      7420696E 
 10679      7400
 10680              	.LASF57:
 10681 06e4 70664765 		.ascii	"pfGetLineDistX\000"
 10681      744C696E 
 10681      65446973 
 10681      745800
 10682              	.LASF131:
 10683 06f3 73636F72 		.ascii	"score_buf\000"
 10683      655F6275 
 10683      6600
 10684              	.LASF115:
 10685 06fd 6765744E 		.ascii	"getNoteName\000"
 10685      6F74654E 
 10685      616D6500 
 10686              	.LASF130:
 10687 0709 6E6F7465 		.ascii	"note_index\000"
 10687      5F696E64 
 10687      657800
 10688              	.LASF35:
 10689 0714 4755495F 		.ascii	"GUI_CHARINFO\000"
 10689      43484152 
 10689      494E464F 
ARM GAS  C:\Users\IVYLIU~1\AppData\Local\Temp\ccWSfWRg.s 			page 209


 10689      00
 10690              	.LASF167:
 10691 0721 534F4E47 		.ascii	"SONG1_SEQ\000"
 10691      315F5345 
 10691      5100
 10692              	.LASF169:
 10693 072b 736F6E67 		.ascii	"songs\000"
 10693      7300
 10694              	.LASF206:
 10695 0731 4D61696E 		.ascii	"MainTask\000"
 10695      5461736B 
 10695      00
 10696              	.LASF99:
 10697 073a 534F4E47 		.ascii	"SONG_DONE\000"
 10697      5F444F4E 
 10697      4500
 10698              	.LASF200:
 10699 0744 4144435F 		.ascii	"ADC_DelSig_1_StartConvert\000"
 10699      44656C53 
 10699      69675F31 
 10699      5F537461 
 10699      7274436F 
 10700              	.LASF70:
 10701 075e 594D6167 		.ascii	"YMag\000"
 10701      00
 10702              	.LASF179:
 10703 0763 4755495F 		.ascii	"GUI_SetBkColor\000"
 10703      53657442 
 10703      6B436F6C 
 10703      6F7200
 10704              	.LASF42:
 10705 0772 70614368 		.ascii	"paCharInfo\000"
 10705      6172496E 
 10705      666F00
 10706              	.LASF124:
 10707 077d 64726177 		.ascii	"drawNote\000"
 10707      4E6F7465 
 10707      00
 10708              	.LASF110:
 10709 0786 6E6F7465 		.ascii	"note_seq\000"
 10709      5F736571 
 10709      00
 10710              	.LASF103:
 10711 078f 54455354 		.ascii	"TESTING\000"
 10711      494E4700 
 10712              	.LASF59:
 10713 0797 70664469 		.ascii	"pfDispLine\000"
 10713      73704C69 
 10713      6E6500
 10714              	.LASF80:
 10715 07a2 6C6F6E67 		.ascii	"long double\000"
 10715      20646F75 
 10715      626C6500 
 10716              	.LASF185:
 10717 07ae 4144435F 		.ascii	"ADC_DelSig_1_GetResult32\000"
 10717      44656C53 
 10717      69675F31 
ARM GAS  C:\Users\IVYLIU~1\AppData\Local\Temp\ccWSfWRg.s 			page 210


 10717      5F476574 
 10717      52657375 
 10718              	.LASF22:
 10719 07c7 63686172 		.ascii	"char\000"
 10719      00
 10720              	.LASF153:
 10721 07cc 70506978 		.ascii	"pPixelArray\000"
 10721      656C4172 
 10721      72617900 
 10722              	.LASF142:
 10723 07d8 5F5F636F 		.ascii	"__copy_table_start__\000"
 10723      70795F74 
 10723      61626C65 
 10723      5F737461 
 10723      72745F5F 
 10724              	.LASF60:
 10725 07ed 74475549 		.ascii	"tGUI_ENC_APIList\000"
 10725      5F454E43 
 10725      5F415049 
 10725      4C697374 
 10725      00
 10726              	.LASF5:
 10727 07fe 5F5F7569 		.ascii	"__uint16_t\000"
 10727      6E743136 
 10727      5F7400
 10728              	.LASF85:
 10729 0809 41524D5F 		.ascii	"ARM_MATH_SIZE_MISMATCH\000"
 10729      4D415448 
 10729      5F53495A 
 10729      455F4D49 
 10729      534D4154 
 10730              	.LASF49:
 10731 0820 466C6167 		.ascii	"Flags\000"
 10731      7300
 10732              	.LASF104:
 10733 0826 4E6F7465 		.ascii	"Notes\000"
 10733      7300
 10734              	.LASF9:
 10735 082c 5F5F7569 		.ascii	"__uint32_t\000"
 10735      6E743332 
 10735      5F7400
 10736              	.LASF181:
 10737 0837 4755495F 		.ascii	"GUI_SetFont\000"
 10737      53657446 
 10737      6F6E7400 
 10738              	.LASF67:
 10739 0843 70616645 		.ascii	"pafEncode\000"
 10739      6E636F64 
 10739      6500
 10740              	.LASF106:
 10741 084d 6F666673 		.ascii	"offset\000"
 10741      657400
 10742              	.LASF154:
 10743 0854 706F7765 		.ascii	"power\000"
 10743      7200
 10744              	.LASF146:
 10745 085a 5F5F7A65 		.ascii	"__zero_table_end__\000"
ARM GAS  C:\Users\IVYLIU~1\AppData\Local\Temp\ccWSfWRg.s 			page 211


 10745      726F5F74 
 10745      61626C65 
 10745      5F656E64 
 10745      5F5F00
 10746              	.LASF174:
 10747 086d 61726D5F 		.ascii	"arm_max_f32\000"
 10747      6D61785F 
 10747      66333200 
 10748              	.LASF182:
 10749 0879 4755495F 		.ascii	"GUI_SetTextMode\000"
 10749      53657454 
 10749      6578744D 
 10749      6F646500 
 10750              	.LASF58:
 10751 0889 70664765 		.ascii	"pfGetLineLen\000"
 10751      744C696E 
 10751      654C656E 
 10751      00
 10752              	.LASF81:
 10753 0896 666C6F61 		.ascii	"float32_t\000"
 10753      7433325F 
 10753      7400
 10754              	.LASF29:
 10755 08a0 704C6973 		.ascii	"pList\000"
 10755      7400
 10756              	.LASF17:
 10757 08a6 75696E74 		.ascii	"uint32_t\000"
 10757      33325F74 
 10757      00
 10758              	.LASF121:
 10759 08af 73657450 		.ascii	"setPixel\000"
 10759      6978656C 
 10759      00
 10760              	.LASF98:
 10761 08b8 534F4E47 		.ascii	"SONG_SELECT\000"
 10761      5F53454C 
 10761      45435400 
 10762              	.LASF178:
 10763 08c4 4144435F 		.ascii	"ADC_DelSig_1_IsEndConversion\000"
 10763      44656C53 
 10763      69675F31 
 10763      5F497345 
 10763      6E64436F 
 10764              	.LASF92:
 10765 08e1 70547769 		.ascii	"pTwiddle\000"
 10765      64646C65 
 10765      00
 10766              	.LASF112:
 10767 08ea 6666745F 		.ascii	"fft_start\000"
 10767      73746172 
 10767      7400
 10768              	.LASF96:
 10769 08f4 53544152 		.ascii	"START\000"
 10769      5400
 10770              	.LASF31:
 10771 08fa 5853697A 		.ascii	"XSize\000"
 10771      6500
ARM GAS  C:\Users\IVYLIU~1\AppData\Local\Temp\ccWSfWRg.s 			page 212


 10772              	.LASF36:
 10773 0900 5953697A 		.ascii	"YSize\000"
 10773      6500
 10774              	.LASF14:
 10775 0906 75696E74 		.ascii	"uint8_t\000"
 10775      385F7400 
 10776              	.LASF140:
 10777 090e 4E505F67 		.ascii	"NP_g_nFrameBufferSize\000"
 10777      5F6E4672 
 10777      616D6542 
 10777      75666665 
 10777      7253697A 
 10778              	.LASF125:
 10779 0924 696E7075 		.ascii	"input_name\000"
 10779      745F6E61 
 10779      6D6500
 10780              	.LASF90:
 10781 092f 61726D5F 		.ascii	"arm_status\000"
 10781      73746174 
 10781      757300
 10782              	.LASF207:
 10783 093a 4E505F55 		.ascii	"NP_Update\000"
 10783      70646174 
 10783      6500
 10784              	.LASF165:
 10785 0944 6E6F7465 		.ascii	"notes\000"
 10785      7300
 10786              	.LASF183:
 10787 094a 4755495F 		.ascii	"GUI_SetTextAlign\000"
 10787      53657454 
 10787      65787441 
 10787      6C69676E 
 10787      00
 10788              	.LASF27:
 10789 095b 46697273 		.ascii	"FirstChar\000"
 10789      74436861 
 10789      7200
 10790              	.LASF41:
 10791 0965 4C617374 		.ascii	"Last\000"
 10791      00
 10792              	.LASF188:
 10793 096a 4755495F 		.ascii	"GUI_FillRect\000"
 10793      46696C6C 
 10793      52656374 
 10793      00
 10794              	.LASF111:
 10795 0977 736F6E67 		.ascii	"song_length\000"
 10795      5F6C656E 
 10795      67746800 
 10796              	.LASF197:
 10797 0983 5350494D 		.ascii	"SPIM_1_Start\000"
 10797      5F315F53 
 10797      74617274 
 10797      00
 10798              	.LASF83:
 10799 0990 41524D5F 		.ascii	"ARM_MATH_ARGUMENT_ERROR\000"
 10799      4D415448 
ARM GAS  C:\Users\IVYLIU~1\AppData\Local\Temp\ccWSfWRg.s 			page 213


 10799      5F415247 
 10799      554D454E 
 10799      545F4552 
 10800              	.LASF198:
 10801 09a8 4755495F 		.ascii	"GUI_Init\000"
 10801      496E6974 
 10801      00
 10802              	.LASF116:
 10803 09b1 696E7075 		.ascii	"input_offset\000"
 10803      745F6F66 
 10803      66736574 
 10803      00
 10804              	.LASF34:
 10805 09be 70446174 		.ascii	"pData\000"
 10805      6100
 10806              	.LASF133:
 10807 09c4 6D61696E 		.ascii	"main\000"
 10807      00
 10808              	.LASF79:
 10809 09c9 7050726F 		.ascii	"pPropExt\000"
 10809      70457874 
 10809      00
 10810              	.LASF202:
 10811 09d2 474E5520 		.ascii	"GNU C 4.9.3 20150303 (release) [ARM/embedded-4_9-br"
 10811      4320342E 
 10811      392E3320 
 10811      32303135 
 10811      30333033 
 10812 0a05 616E6368 		.ascii	"anch revision 221220] -mcpu=cortex-m3 -mthumb -g -O"
 10812      20726576 
 10812      6973696F 
 10812      6E203232 
 10812      31323230 
 10813 0a38 67202D73 		.ascii	"g -std=gnu99 -ffunction-sections -ffat-lto-objects\000"
 10813      74643D67 
 10813      6E753939 
 10813      202D6666 
 10813      756E6374 
 10814              	.LASF187:
 10815 0a6b 4755495F 		.ascii	"GUI_GetBkColor\000"
 10815      47657442 
 10815      6B436F6C 
 10815      6F7200
 10816              	.LASF119:
 10817 0a7a 64726177 		.ascii	"drawSongSelection\000"
 10817      536F6E67 
 10817      53656C65 
 10817      6374696F 
 10817      6E00
 10818              	.LASF65:
 10819 0a8c 70664973 		.ascii	"pfIsInFont\000"
 10819      496E466F 
 10819      6E7400
 10820              	.LASF77:
 10821 0a97 704D6F6E 		.ascii	"pMono\000"
 10821      6F00
 10822              	.LASF37:
ARM GAS  C:\Users\IVYLIU~1\AppData\Local\Temp\ccWSfWRg.s 			page 214


 10823 0a9d 58506F73 		.ascii	"XPos\000"
 10823      00
 10824              	.LASF158:
 10825 0aa2 69666674 		.ascii	"ifftFlag\000"
 10825      466C6167 
 10825      00
 10826              		.ident	"GCC: (GNU Tools for ARM Embedded Processors) 4.9.3 20150303 (release) [ARM/embedded-4_9-br
