ARM GAS  C:\Users\IVYLIU~1\AppData\Local\Temp\ccXiWfq5.s 			page 1


   1              		.syntax unified
   2              		.cpu cortex-m3
   3              		.fpu softvfp
   4              		.eabi_attribute 20, 1
   5              		.eabi_attribute 21, 1
   6              		.eabi_attribute 23, 3
   7              		.eabi_attribute 24, 1
   8              		.eabi_attribute 25, 1
   9              		.eabi_attribute 26, 1
  10              		.eabi_attribute 30, 1
  11              		.eabi_attribute 34, 1
  12              		.eabi_attribute 18, 4
  13              		.thumb
  14              		.file	"NP_Neo_BITCNT.c"
  15              		.text
  16              	.Ltext0:
  17              		.cfi_sections	.debug_frame
  18              		.section	.text.NP_Neo_BITCNT_Init,"ax",%progbits
  19              		.align	2
  20              		.global	NP_Neo_BITCNT_Init
  21              		.thumb
  22              		.thumb_func
  23              		.type	NP_Neo_BITCNT_Init, %function
  24              	NP_Neo_BITCNT_Init:
  25              	.LFB0:
  26              		.file 1 ".\\Generated_Source\\PSoC5\\NP_Neo_BITCNT.c"
   1:.\Generated_Source\PSoC5/NP_Neo_BITCNT.c **** /*******************************************************************************
   2:.\Generated_Source\PSoC5/NP_Neo_BITCNT.c **** * File Name: NP_Neo_BITCNT.c
   3:.\Generated_Source\PSoC5/NP_Neo_BITCNT.c **** * Version 1.0
   4:.\Generated_Source\PSoC5/NP_Neo_BITCNT.c **** *
   5:.\Generated_Source\PSoC5/NP_Neo_BITCNT.c **** * Description:
   6:.\Generated_Source\PSoC5/NP_Neo_BITCNT.c **** *  This file provides source code for the Count7 component's API.
   7:.\Generated_Source\PSoC5/NP_Neo_BITCNT.c **** *
   8:.\Generated_Source\PSoC5/NP_Neo_BITCNT.c **** * Note:
   9:.\Generated_Source\PSoC5/NP_Neo_BITCNT.c **** *
  10:.\Generated_Source\PSoC5/NP_Neo_BITCNT.c **** ********************************************************************************
  11:.\Generated_Source\PSoC5/NP_Neo_BITCNT.c **** * Copyright 2013, Cypress Semiconductor Corporation.  All rights reserved.
  12:.\Generated_Source\PSoC5/NP_Neo_BITCNT.c **** * You may use this file only in accordance with the license, terms, conditions,
  13:.\Generated_Source\PSoC5/NP_Neo_BITCNT.c **** * disclaimers, and limitations in the end user license agreement accompanying
  14:.\Generated_Source\PSoC5/NP_Neo_BITCNT.c **** * the software package with which this file was provided.
  15:.\Generated_Source\PSoC5/NP_Neo_BITCNT.c **** *******************************************************************************/
  16:.\Generated_Source\PSoC5/NP_Neo_BITCNT.c **** 
  17:.\Generated_Source\PSoC5/NP_Neo_BITCNT.c **** #include "NP_Neo_BITCNT.h"
  18:.\Generated_Source\PSoC5/NP_Neo_BITCNT.c **** #include "CyLib.h"
  19:.\Generated_Source\PSoC5/NP_Neo_BITCNT.c **** 
  20:.\Generated_Source\PSoC5/NP_Neo_BITCNT.c **** 
  21:.\Generated_Source\PSoC5/NP_Neo_BITCNT.c **** uint8 NP_Neo_BITCNT_initVar = 0u;
  22:.\Generated_Source\PSoC5/NP_Neo_BITCNT.c **** 
  23:.\Generated_Source\PSoC5/NP_Neo_BITCNT.c **** 
  24:.\Generated_Source\PSoC5/NP_Neo_BITCNT.c **** /*******************************************************************************
  25:.\Generated_Source\PSoC5/NP_Neo_BITCNT.c **** * Function Name: NP_Neo_BITCNT_Init
  26:.\Generated_Source\PSoC5/NP_Neo_BITCNT.c **** ********************************************************************************
  27:.\Generated_Source\PSoC5/NP_Neo_BITCNT.c **** *
  28:.\Generated_Source\PSoC5/NP_Neo_BITCNT.c **** * Summary:
  29:.\Generated_Source\PSoC5/NP_Neo_BITCNT.c **** *  Initializes or restores the component according to the parameter editor
  30:.\Generated_Source\PSoC5/NP_Neo_BITCNT.c **** *  settings.
  31:.\Generated_Source\PSoC5/NP_Neo_BITCNT.c **** *
ARM GAS  C:\Users\IVYLIU~1\AppData\Local\Temp\ccXiWfq5.s 			page 2


  32:.\Generated_Source\PSoC5/NP_Neo_BITCNT.c **** * Parameters:
  33:.\Generated_Source\PSoC5/NP_Neo_BITCNT.c **** *  None
  34:.\Generated_Source\PSoC5/NP_Neo_BITCNT.c **** *
  35:.\Generated_Source\PSoC5/NP_Neo_BITCNT.c **** * Return:
  36:.\Generated_Source\PSoC5/NP_Neo_BITCNT.c **** *  None
  37:.\Generated_Source\PSoC5/NP_Neo_BITCNT.c **** *
  38:.\Generated_Source\PSoC5/NP_Neo_BITCNT.c **** * Theory:
  39:.\Generated_Source\PSoC5/NP_Neo_BITCNT.c **** *  It is not necessary to call Count7_Init() because the Count7_Start() API
  40:.\Generated_Source\PSoC5/NP_Neo_BITCNT.c **** *  calls this function and is the preferred method to begin component
  41:.\Generated_Source\PSoC5/NP_Neo_BITCNT.c **** *  operation.
  42:.\Generated_Source\PSoC5/NP_Neo_BITCNT.c **** *
  43:.\Generated_Source\PSoC5/NP_Neo_BITCNT.c **** *******************************************************************************/
  44:.\Generated_Source\PSoC5/NP_Neo_BITCNT.c **** void NP_Neo_BITCNT_Init(void) 
  45:.\Generated_Source\PSoC5/NP_Neo_BITCNT.c **** {
  27              		.loc 1 45 0
  28              		.cfi_startproc
  29              		@ args = 0, pretend = 0, frame = 0
  30              		@ frame_needed = 0, uses_anonymous_args = 0
  31              		@ link register save eliminated.
  46:.\Generated_Source\PSoC5/NP_Neo_BITCNT.c ****     /* Set the initial period value from parameter editor */
  47:.\Generated_Source\PSoC5/NP_Neo_BITCNT.c ****     NP_Neo_BITCNT_PERIOD_REG = NP_Neo_BITCNT_INITIAL_PERIOD;
  32              		.loc 1 47 0
  33 0000 0622     		movs	r2, #6
  34 0002 014B     		ldr	r3, .L2
  35 0004 1A70     		strb	r2, [r3]
  36 0006 7047     		bx	lr
  37              	.L3:
  38              		.align	2
  39              	.L2:
  40 0008 81640040 		.word	1073767553
  41              		.cfi_endproc
  42              	.LFE0:
  43              		.size	NP_Neo_BITCNT_Init, .-NP_Neo_BITCNT_Init
  44              		.section	.text.NP_Neo_BITCNT_Enable,"ax",%progbits
  45              		.align	2
  46              		.global	NP_Neo_BITCNT_Enable
  47              		.thumb
  48              		.thumb_func
  49              		.type	NP_Neo_BITCNT_Enable, %function
  50              	NP_Neo_BITCNT_Enable:
  51              	.LFB1:
  48:.\Generated_Source\PSoC5/NP_Neo_BITCNT.c **** }
  49:.\Generated_Source\PSoC5/NP_Neo_BITCNT.c **** 
  50:.\Generated_Source\PSoC5/NP_Neo_BITCNT.c **** 
  51:.\Generated_Source\PSoC5/NP_Neo_BITCNT.c **** /*******************************************************************************
  52:.\Generated_Source\PSoC5/NP_Neo_BITCNT.c **** * Function Name: NP_Neo_BITCNT_Enable
  53:.\Generated_Source\PSoC5/NP_Neo_BITCNT.c **** ********************************************************************************
  54:.\Generated_Source\PSoC5/NP_Neo_BITCNT.c **** *
  55:.\Generated_Source\PSoC5/NP_Neo_BITCNT.c **** * Summary:
  56:.\Generated_Source\PSoC5/NP_Neo_BITCNT.c **** *  Enables the software enable of the counter.
  57:.\Generated_Source\PSoC5/NP_Neo_BITCNT.c **** *
  58:.\Generated_Source\PSoC5/NP_Neo_BITCNT.c **** * Parameters:
  59:.\Generated_Source\PSoC5/NP_Neo_BITCNT.c **** *  None
  60:.\Generated_Source\PSoC5/NP_Neo_BITCNT.c **** *
  61:.\Generated_Source\PSoC5/NP_Neo_BITCNT.c **** * Return:
  62:.\Generated_Source\PSoC5/NP_Neo_BITCNT.c **** *  None
  63:.\Generated_Source\PSoC5/NP_Neo_BITCNT.c **** *
ARM GAS  C:\Users\IVYLIU~1\AppData\Local\Temp\ccXiWfq5.s 			page 3


  64:.\Generated_Source\PSoC5/NP_Neo_BITCNT.c **** * Theory:
  65:.\Generated_Source\PSoC5/NP_Neo_BITCNT.c **** *  It is not necessary to call Count7_Enable() because the Count7_Start() API
  66:.\Generated_Source\PSoC5/NP_Neo_BITCNT.c **** *  calls this function, which is the preferred method to begin component
  67:.\Generated_Source\PSoC5/NP_Neo_BITCNT.c **** *  operation.
  68:.\Generated_Source\PSoC5/NP_Neo_BITCNT.c **** *  This API performs modification of auxiliary control register which is a
  69:.\Generated_Source\PSoC5/NP_Neo_BITCNT.c **** *  shared resource so it is required to disable interrupts until the
  70:.\Generated_Source\PSoC5/NP_Neo_BITCNT.c **** *  modification will complete.
  71:.\Generated_Source\PSoC5/NP_Neo_BITCNT.c **** *
  72:.\Generated_Source\PSoC5/NP_Neo_BITCNT.c **** *******************************************************************************/
  73:.\Generated_Source\PSoC5/NP_Neo_BITCNT.c **** void NP_Neo_BITCNT_Enable(void) 
  74:.\Generated_Source\PSoC5/NP_Neo_BITCNT.c **** {
  52              		.loc 1 74 0
  53              		.cfi_startproc
  54              		@ args = 0, pretend = 0, frame = 0
  55              		@ frame_needed = 0, uses_anonymous_args = 0
  56 0000 08B5     		push	{r3, lr}
  57              		.cfi_def_cfa_offset 8
  58              		.cfi_offset 3, -8
  59              		.cfi_offset 14, -4
  75:.\Generated_Source\PSoC5/NP_Neo_BITCNT.c ****     uint8 interruptState;
  76:.\Generated_Source\PSoC5/NP_Neo_BITCNT.c **** 
  77:.\Generated_Source\PSoC5/NP_Neo_BITCNT.c ****     interruptState = CyEnterCriticalSection();
  60              		.loc 1 77 0
  61 0002 FFF7FEFF 		bl	CyEnterCriticalSection
  62              	.LVL0:
  78:.\Generated_Source\PSoC5/NP_Neo_BITCNT.c ****     /* Set the counter start bit in auxiliary control. If routed enable
  79:.\Generated_Source\PSoC5/NP_Neo_BITCNT.c ****     * isn't used then this will immediately star the Count7 operation.
  80:.\Generated_Source\PSoC5/NP_Neo_BITCNT.c ****     */
  81:.\Generated_Source\PSoC5/NP_Neo_BITCNT.c ****     NP_Neo_BITCNT_AUX_CONTROL_REG |= NP_Neo_BITCNT_COUNTER_START;
  63              		.loc 1 81 0
  64 0006 044A     		ldr	r2, .L6
  65 0008 1378     		ldrb	r3, [r2]	@ zero_extendqisi2
  66 000a 43F02003 		orr	r3, r3, #32
  67 000e 1370     		strb	r3, [r2]
  82:.\Generated_Source\PSoC5/NP_Neo_BITCNT.c **** 
  83:.\Generated_Source\PSoC5/NP_Neo_BITCNT.c ****     CyExitCriticalSection(interruptState);
  68              		.loc 1 83 0
  69 0010 FFF7FEFF 		bl	CyExitCriticalSection
  70              	.LVL1:
  71 0014 08BD     		pop	{r3, pc}
  72              	.L7:
  73 0016 00BF     		.align	2
  74              	.L6:
  75 0018 91640040 		.word	1073767569
  76              		.cfi_endproc
  77              	.LFE1:
  78              		.size	NP_Neo_BITCNT_Enable, .-NP_Neo_BITCNT_Enable
  79              		.section	.text.NP_Neo_BITCNT_Start,"ax",%progbits
  80              		.align	2
  81              		.global	NP_Neo_BITCNT_Start
  82              		.thumb
  83              		.thumb_func
  84              		.type	NP_Neo_BITCNT_Start, %function
  85              	NP_Neo_BITCNT_Start:
  86              	.LFB2:
  84:.\Generated_Source\PSoC5/NP_Neo_BITCNT.c **** }
  85:.\Generated_Source\PSoC5/NP_Neo_BITCNT.c **** 
ARM GAS  C:\Users\IVYLIU~1\AppData\Local\Temp\ccXiWfq5.s 			page 4


  86:.\Generated_Source\PSoC5/NP_Neo_BITCNT.c **** 
  87:.\Generated_Source\PSoC5/NP_Neo_BITCNT.c **** /*******************************************************************************
  88:.\Generated_Source\PSoC5/NP_Neo_BITCNT.c **** * Function Name: NP_Neo_BITCNT_Start
  89:.\Generated_Source\PSoC5/NP_Neo_BITCNT.c **** ********************************************************************************
  90:.\Generated_Source\PSoC5/NP_Neo_BITCNT.c **** *
  91:.\Generated_Source\PSoC5/NP_Neo_BITCNT.c **** * Summary:
  92:.\Generated_Source\PSoC5/NP_Neo_BITCNT.c **** *  Performs all of the required initialization for the component and enables
  93:.\Generated_Source\PSoC5/NP_Neo_BITCNT.c **** *  the counter. The first time the routine is executed, the period is set as
  94:.\Generated_Source\PSoC5/NP_Neo_BITCNT.c **** *  configured in the customizer. When called to restart the counter following a
  95:.\Generated_Source\PSoC5/NP_Neo_BITCNT.c **** *  Count7_Stop() call, the current period value is retained.
  96:.\Generated_Source\PSoC5/NP_Neo_BITCNT.c **** *
  97:.\Generated_Source\PSoC5/NP_Neo_BITCNT.c **** * Parameters:
  98:.\Generated_Source\PSoC5/NP_Neo_BITCNT.c **** *  None.
  99:.\Generated_Source\PSoC5/NP_Neo_BITCNT.c **** *
 100:.\Generated_Source\PSoC5/NP_Neo_BITCNT.c **** * Global Variables:
 101:.\Generated_Source\PSoC5/NP_Neo_BITCNT.c **** *  NP_Neo_BITCNT_initVar - global variable.
 102:.\Generated_Source\PSoC5/NP_Neo_BITCNT.c **** *
 103:.\Generated_Source\PSoC5/NP_Neo_BITCNT.c **** * Return:
 104:.\Generated_Source\PSoC5/NP_Neo_BITCNT.c **** *  None.
 105:.\Generated_Source\PSoC5/NP_Neo_BITCNT.c **** *
 106:.\Generated_Source\PSoC5/NP_Neo_BITCNT.c **** *******************************************************************************/
 107:.\Generated_Source\PSoC5/NP_Neo_BITCNT.c **** void NP_Neo_BITCNT_Start(void) 
 108:.\Generated_Source\PSoC5/NP_Neo_BITCNT.c **** {
  87              		.loc 1 108 0
  88              		.cfi_startproc
  89              		@ args = 0, pretend = 0, frame = 0
  90              		@ frame_needed = 0, uses_anonymous_args = 0
  91 0000 08B5     		push	{r3, lr}
  92              		.cfi_def_cfa_offset 8
  93              		.cfi_offset 3, -8
  94              		.cfi_offset 14, -4
 109:.\Generated_Source\PSoC5/NP_Neo_BITCNT.c ****     /* If not initialized then perform initialization */
 110:.\Generated_Source\PSoC5/NP_Neo_BITCNT.c ****     if(NP_Neo_BITCNT_initVar == 0u)
  95              		.loc 1 110 0
  96 0002 054B     		ldr	r3, .L11
  97 0004 1B78     		ldrb	r3, [r3]	@ zero_extendqisi2
  98 0006 23B9     		cbnz	r3, .L9
 111:.\Generated_Source\PSoC5/NP_Neo_BITCNT.c ****     {
 112:.\Generated_Source\PSoC5/NP_Neo_BITCNT.c ****         NP_Neo_BITCNT_Init();
  99              		.loc 1 112 0
 100 0008 FFF7FEFF 		bl	NP_Neo_BITCNT_Init
 101              	.LVL2:
 113:.\Generated_Source\PSoC5/NP_Neo_BITCNT.c ****         NP_Neo_BITCNT_initVar = 1u;
 102              		.loc 1 113 0
 103 000c 0122     		movs	r2, #1
 104 000e 024B     		ldr	r3, .L11
 105 0010 1A70     		strb	r2, [r3]
 106              	.L9:
 114:.\Generated_Source\PSoC5/NP_Neo_BITCNT.c ****     }
 115:.\Generated_Source\PSoC5/NP_Neo_BITCNT.c **** 
 116:.\Generated_Source\PSoC5/NP_Neo_BITCNT.c ****     /* Enable Count7 */
 117:.\Generated_Source\PSoC5/NP_Neo_BITCNT.c ****     NP_Neo_BITCNT_Enable();
 107              		.loc 1 117 0
 108 0012 FFF7FEFF 		bl	NP_Neo_BITCNT_Enable
 109              	.LVL3:
 110 0016 08BD     		pop	{r3, pc}
 111              	.L12:
ARM GAS  C:\Users\IVYLIU~1\AppData\Local\Temp\ccXiWfq5.s 			page 5


 112              		.align	2
 113              	.L11:
 114 0018 00000000 		.word	.LANCHOR0
 115              		.cfi_endproc
 116              	.LFE2:
 117              		.size	NP_Neo_BITCNT_Start, .-NP_Neo_BITCNT_Start
 118              		.section	.text.NP_Neo_BITCNT_Stop,"ax",%progbits
 119              		.align	2
 120              		.global	NP_Neo_BITCNT_Stop
 121              		.thumb
 122              		.thumb_func
 123              		.type	NP_Neo_BITCNT_Stop, %function
 124              	NP_Neo_BITCNT_Stop:
 125              	.LFB3:
 118:.\Generated_Source\PSoC5/NP_Neo_BITCNT.c **** }
 119:.\Generated_Source\PSoC5/NP_Neo_BITCNT.c **** 
 120:.\Generated_Source\PSoC5/NP_Neo_BITCNT.c **** 
 121:.\Generated_Source\PSoC5/NP_Neo_BITCNT.c **** /*******************************************************************************
 122:.\Generated_Source\PSoC5/NP_Neo_BITCNT.c **** * Function Name: NP_Neo_BITCNT_Stop
 123:.\Generated_Source\PSoC5/NP_Neo_BITCNT.c **** ********************************************************************************
 124:.\Generated_Source\PSoC5/NP_Neo_BITCNT.c **** *
 125:.\Generated_Source\PSoC5/NP_Neo_BITCNT.c **** * Summary:
 126:.\Generated_Source\PSoC5/NP_Neo_BITCNT.c **** *  Disables the software enable of the counter.
 127:.\Generated_Source\PSoC5/NP_Neo_BITCNT.c **** *
 128:.\Generated_Source\PSoC5/NP_Neo_BITCNT.c **** * Parameters:
 129:.\Generated_Source\PSoC5/NP_Neo_BITCNT.c **** *  None
 130:.\Generated_Source\PSoC5/NP_Neo_BITCNT.c **** *
 131:.\Generated_Source\PSoC5/NP_Neo_BITCNT.c **** * Return:
 132:.\Generated_Source\PSoC5/NP_Neo_BITCNT.c **** *  None
 133:.\Generated_Source\PSoC5/NP_Neo_BITCNT.c **** *
 134:.\Generated_Source\PSoC5/NP_Neo_BITCNT.c **** *******************************************************************************/
 135:.\Generated_Source\PSoC5/NP_Neo_BITCNT.c **** void NP_Neo_BITCNT_Stop(void) 
 136:.\Generated_Source\PSoC5/NP_Neo_BITCNT.c **** {
 126              		.loc 1 136 0
 127              		.cfi_startproc
 128              		@ args = 0, pretend = 0, frame = 0
 129              		@ frame_needed = 0, uses_anonymous_args = 0
 130 0000 08B5     		push	{r3, lr}
 131              		.cfi_def_cfa_offset 8
 132              		.cfi_offset 3, -8
 133              		.cfi_offset 14, -4
 137:.\Generated_Source\PSoC5/NP_Neo_BITCNT.c ****     uint8 interruptState;
 138:.\Generated_Source\PSoC5/NP_Neo_BITCNT.c **** 
 139:.\Generated_Source\PSoC5/NP_Neo_BITCNT.c ****     interruptState = CyEnterCriticalSection();
 134              		.loc 1 139 0
 135 0002 FFF7FEFF 		bl	CyEnterCriticalSection
 136              	.LVL4:
 140:.\Generated_Source\PSoC5/NP_Neo_BITCNT.c ****     /* Clear the counter start bit in auxiliary control. */
 141:.\Generated_Source\PSoC5/NP_Neo_BITCNT.c ****     NP_Neo_BITCNT_AUX_CONTROL_REG &= (uint8) ~((uint8) NP_Neo_BITCNT_COUNTER_START);
 137              		.loc 1 141 0
 138 0006 044A     		ldr	r2, .L15
 139 0008 1378     		ldrb	r3, [r2]	@ zero_extendqisi2
 140 000a 03F0DF03 		and	r3, r3, #223
 141 000e 1370     		strb	r3, [r2]
 142:.\Generated_Source\PSoC5/NP_Neo_BITCNT.c **** 
 143:.\Generated_Source\PSoC5/NP_Neo_BITCNT.c ****     CyExitCriticalSection(interruptState);
 142              		.loc 1 143 0
ARM GAS  C:\Users\IVYLIU~1\AppData\Local\Temp\ccXiWfq5.s 			page 6


 143 0010 FFF7FEFF 		bl	CyExitCriticalSection
 144              	.LVL5:
 145 0014 08BD     		pop	{r3, pc}
 146              	.L16:
 147 0016 00BF     		.align	2
 148              	.L15:
 149 0018 91640040 		.word	1073767569
 150              		.cfi_endproc
 151              	.LFE3:
 152              		.size	NP_Neo_BITCNT_Stop, .-NP_Neo_BITCNT_Stop
 153              		.section	.text.NP_Neo_BITCNT_WriteCounter,"ax",%progbits
 154              		.align	2
 155              		.global	NP_Neo_BITCNT_WriteCounter
 156              		.thumb
 157              		.thumb_func
 158              		.type	NP_Neo_BITCNT_WriteCounter, %function
 159              	NP_Neo_BITCNT_WriteCounter:
 160              	.LFB4:
 144:.\Generated_Source\PSoC5/NP_Neo_BITCNT.c **** }
 145:.\Generated_Source\PSoC5/NP_Neo_BITCNT.c **** 
 146:.\Generated_Source\PSoC5/NP_Neo_BITCNT.c **** 
 147:.\Generated_Source\PSoC5/NP_Neo_BITCNT.c **** /*******************************************************************************
 148:.\Generated_Source\PSoC5/NP_Neo_BITCNT.c **** * Function Name: NP_Neo_BITCNT_WriteCounter
 149:.\Generated_Source\PSoC5/NP_Neo_BITCNT.c **** ********************************************************************************
 150:.\Generated_Source\PSoC5/NP_Neo_BITCNT.c **** *
 151:.\Generated_Source\PSoC5/NP_Neo_BITCNT.c **** * Summary:
 152:.\Generated_Source\PSoC5/NP_Neo_BITCNT.c **** *  This function writes the counter directly. The counter should be disabled
 153:.\Generated_Source\PSoC5/NP_Neo_BITCNT.c **** *  before calling this function.
 154:.\Generated_Source\PSoC5/NP_Neo_BITCNT.c **** *
 155:.\Generated_Source\PSoC5/NP_Neo_BITCNT.c **** * Parameters:
 156:.\Generated_Source\PSoC5/NP_Neo_BITCNT.c **** *  count - Value to be written to counter.
 157:.\Generated_Source\PSoC5/NP_Neo_BITCNT.c **** *
 158:.\Generated_Source\PSoC5/NP_Neo_BITCNT.c **** * Return:
 159:.\Generated_Source\PSoC5/NP_Neo_BITCNT.c **** *  None
 160:.\Generated_Source\PSoC5/NP_Neo_BITCNT.c **** *
 161:.\Generated_Source\PSoC5/NP_Neo_BITCNT.c **** *******************************************************************************/
 162:.\Generated_Source\PSoC5/NP_Neo_BITCNT.c **** void NP_Neo_BITCNT_WriteCounter(uint8 count) 
 163:.\Generated_Source\PSoC5/NP_Neo_BITCNT.c **** {
 161              		.loc 1 163 0
 162              		.cfi_startproc
 163              		@ args = 0, pretend = 0, frame = 0
 164              		@ frame_needed = 0, uses_anonymous_args = 0
 165              		@ link register save eliminated.
 166              	.LVL6:
 164:.\Generated_Source\PSoC5/NP_Neo_BITCNT.c ****     NP_Neo_BITCNT_COUNT_REG = (count & NP_Neo_BITCNT_COUNT_7BIT_MASK);
 167              		.loc 1 164 0
 168 0000 00F07F00 		and	r0, r0, #127
 169              	.LVL7:
 170 0004 014B     		ldr	r3, .L18
 171 0006 1870     		strb	r0, [r3]
 172 0008 7047     		bx	lr
 173              	.L19:
 174 000a 00BF     		.align	2
 175              	.L18:
 176 000c 71640040 		.word	1073767537
 177              		.cfi_endproc
 178              	.LFE4:
ARM GAS  C:\Users\IVYLIU~1\AppData\Local\Temp\ccXiWfq5.s 			page 7


 179              		.size	NP_Neo_BITCNT_WriteCounter, .-NP_Neo_BITCNT_WriteCounter
 180              		.section	.text.NP_Neo_BITCNT_ReadCounter,"ax",%progbits
 181              		.align	2
 182              		.global	NP_Neo_BITCNT_ReadCounter
 183              		.thumb
 184              		.thumb_func
 185              		.type	NP_Neo_BITCNT_ReadCounter, %function
 186              	NP_Neo_BITCNT_ReadCounter:
 187              	.LFB5:
 165:.\Generated_Source\PSoC5/NP_Neo_BITCNT.c **** }
 166:.\Generated_Source\PSoC5/NP_Neo_BITCNT.c **** 
 167:.\Generated_Source\PSoC5/NP_Neo_BITCNT.c **** 
 168:.\Generated_Source\PSoC5/NP_Neo_BITCNT.c **** /*******************************************************************************
 169:.\Generated_Source\PSoC5/NP_Neo_BITCNT.c **** * Function Name: NP_Neo_BITCNT_ReadCounter
 170:.\Generated_Source\PSoC5/NP_Neo_BITCNT.c **** ********************************************************************************
 171:.\Generated_Source\PSoC5/NP_Neo_BITCNT.c **** *
 172:.\Generated_Source\PSoC5/NP_Neo_BITCNT.c **** * Summary:
 173:.\Generated_Source\PSoC5/NP_Neo_BITCNT.c **** *  This function reads the counter value.
 174:.\Generated_Source\PSoC5/NP_Neo_BITCNT.c **** *
 175:.\Generated_Source\PSoC5/NP_Neo_BITCNT.c **** * Parameters:
 176:.\Generated_Source\PSoC5/NP_Neo_BITCNT.c **** *  None
 177:.\Generated_Source\PSoC5/NP_Neo_BITCNT.c **** *
 178:.\Generated_Source\PSoC5/NP_Neo_BITCNT.c **** * Return:
 179:.\Generated_Source\PSoC5/NP_Neo_BITCNT.c **** *  None
 180:.\Generated_Source\PSoC5/NP_Neo_BITCNT.c **** *
 181:.\Generated_Source\PSoC5/NP_Neo_BITCNT.c **** *******************************************************************************/
 182:.\Generated_Source\PSoC5/NP_Neo_BITCNT.c **** uint8 NP_Neo_BITCNT_ReadCounter(void) 
 183:.\Generated_Source\PSoC5/NP_Neo_BITCNT.c **** {
 188              		.loc 1 183 0
 189              		.cfi_startproc
 190              		@ args = 0, pretend = 0, frame = 0
 191              		@ frame_needed = 0, uses_anonymous_args = 0
 192              		@ link register save eliminated.
 184:.\Generated_Source\PSoC5/NP_Neo_BITCNT.c ****     return(NP_Neo_BITCNT_COUNT_REG & NP_Neo_BITCNT_COUNT_7BIT_MASK);
 193              		.loc 1 184 0
 194 0000 024B     		ldr	r3, .L21
 195 0002 1878     		ldrb	r0, [r3]	@ zero_extendqisi2
 185:.\Generated_Source\PSoC5/NP_Neo_BITCNT.c **** }
 196              		.loc 1 185 0
 197 0004 00F07F00 		and	r0, r0, #127
 198 0008 7047     		bx	lr
 199              	.L22:
 200 000a 00BF     		.align	2
 201              	.L21:
 202 000c 71640040 		.word	1073767537
 203              		.cfi_endproc
 204              	.LFE5:
 205              		.size	NP_Neo_BITCNT_ReadCounter, .-NP_Neo_BITCNT_ReadCounter
 206              		.section	.text.NP_Neo_BITCNT_WritePeriod,"ax",%progbits
 207              		.align	2
 208              		.global	NP_Neo_BITCNT_WritePeriod
 209              		.thumb
 210              		.thumb_func
 211              		.type	NP_Neo_BITCNT_WritePeriod, %function
 212              	NP_Neo_BITCNT_WritePeriod:
 213              	.LFB6:
 186:.\Generated_Source\PSoC5/NP_Neo_BITCNT.c **** 
ARM GAS  C:\Users\IVYLIU~1\AppData\Local\Temp\ccXiWfq5.s 			page 8


 187:.\Generated_Source\PSoC5/NP_Neo_BITCNT.c **** 
 188:.\Generated_Source\PSoC5/NP_Neo_BITCNT.c **** /*******************************************************************************
 189:.\Generated_Source\PSoC5/NP_Neo_BITCNT.c **** * Function Name: NP_Neo_BITCNT_WritePeriod
 190:.\Generated_Source\PSoC5/NP_Neo_BITCNT.c **** ********************************************************************************
 191:.\Generated_Source\PSoC5/NP_Neo_BITCNT.c **** *
 192:.\Generated_Source\PSoC5/NP_Neo_BITCNT.c **** * Summary:
 193:.\Generated_Source\PSoC5/NP_Neo_BITCNT.c **** *  This function writes the period register. The actual period is one greater
 194:.\Generated_Source\PSoC5/NP_Neo_BITCNT.c **** *  than the value in the period register since the counting sequence starts
 195:.\Generated_Source\PSoC5/NP_Neo_BITCNT.c **** *  with the period register and counts down to 0 inclusive. The period of the
 196:.\Generated_Source\PSoC5/NP_Neo_BITCNT.c **** *  counter output does not change until the counter is reloaded following the
 197:.\Generated_Source\PSoC5/NP_Neo_BITCNT.c **** *  terminal count value of 0 or due to a hardware load signal.
 198:.\Generated_Source\PSoC5/NP_Neo_BITCNT.c **** *
 199:.\Generated_Source\PSoC5/NP_Neo_BITCNT.c **** * Parameters:
 200:.\Generated_Source\PSoC5/NP_Neo_BITCNT.c **** *  period - Period value to be written.
 201:.\Generated_Source\PSoC5/NP_Neo_BITCNT.c **** *
 202:.\Generated_Source\PSoC5/NP_Neo_BITCNT.c **** * Return:
 203:.\Generated_Source\PSoC5/NP_Neo_BITCNT.c **** *  None
 204:.\Generated_Source\PSoC5/NP_Neo_BITCNT.c **** *
 205:.\Generated_Source\PSoC5/NP_Neo_BITCNT.c **** *******************************************************************************/
 206:.\Generated_Source\PSoC5/NP_Neo_BITCNT.c **** void NP_Neo_BITCNT_WritePeriod(uint8 period) 
 207:.\Generated_Source\PSoC5/NP_Neo_BITCNT.c **** {
 214              		.loc 1 207 0
 215              		.cfi_startproc
 216              		@ args = 0, pretend = 0, frame = 0
 217              		@ frame_needed = 0, uses_anonymous_args = 0
 218              		@ link register save eliminated.
 219              	.LVL8:
 208:.\Generated_Source\PSoC5/NP_Neo_BITCNT.c ****     NP_Neo_BITCNT_PERIOD_REG = period;
 220              		.loc 1 208 0
 221 0000 014B     		ldr	r3, .L24
 222 0002 1870     		strb	r0, [r3]
 223 0004 7047     		bx	lr
 224              	.L25:
 225 0006 00BF     		.align	2
 226              	.L24:
 227 0008 81640040 		.word	1073767553
 228              		.cfi_endproc
 229              	.LFE6:
 230              		.size	NP_Neo_BITCNT_WritePeriod, .-NP_Neo_BITCNT_WritePeriod
 231              		.section	.text.NP_Neo_BITCNT_ReadPeriod,"ax",%progbits
 232              		.align	2
 233              		.global	NP_Neo_BITCNT_ReadPeriod
 234              		.thumb
 235              		.thumb_func
 236              		.type	NP_Neo_BITCNT_ReadPeriod, %function
 237              	NP_Neo_BITCNT_ReadPeriod:
 238              	.LFB7:
 209:.\Generated_Source\PSoC5/NP_Neo_BITCNT.c **** }
 210:.\Generated_Source\PSoC5/NP_Neo_BITCNT.c **** 
 211:.\Generated_Source\PSoC5/NP_Neo_BITCNT.c **** 
 212:.\Generated_Source\PSoC5/NP_Neo_BITCNT.c **** /*******************************************************************************
 213:.\Generated_Source\PSoC5/NP_Neo_BITCNT.c **** * Function Name: NP_Neo_BITCNT_ReadPeriod
 214:.\Generated_Source\PSoC5/NP_Neo_BITCNT.c **** ********************************************************************************
 215:.\Generated_Source\PSoC5/NP_Neo_BITCNT.c **** *
 216:.\Generated_Source\PSoC5/NP_Neo_BITCNT.c **** * Summary:
 217:.\Generated_Source\PSoC5/NP_Neo_BITCNT.c **** *  This function reads the period register.
 218:.\Generated_Source\PSoC5/NP_Neo_BITCNT.c **** *
ARM GAS  C:\Users\IVYLIU~1\AppData\Local\Temp\ccXiWfq5.s 			page 9


 219:.\Generated_Source\PSoC5/NP_Neo_BITCNT.c **** * Parameters:
 220:.\Generated_Source\PSoC5/NP_Neo_BITCNT.c **** *  None
 221:.\Generated_Source\PSoC5/NP_Neo_BITCNT.c **** *
 222:.\Generated_Source\PSoC5/NP_Neo_BITCNT.c **** * Return:
 223:.\Generated_Source\PSoC5/NP_Neo_BITCNT.c **** *  uint8 - Current period value.
 224:.\Generated_Source\PSoC5/NP_Neo_BITCNT.c **** *
 225:.\Generated_Source\PSoC5/NP_Neo_BITCNT.c **** *******************************************************************************/
 226:.\Generated_Source\PSoC5/NP_Neo_BITCNT.c **** uint8 NP_Neo_BITCNT_ReadPeriod(void) 
 227:.\Generated_Source\PSoC5/NP_Neo_BITCNT.c **** {
 239              		.loc 1 227 0
 240              		.cfi_startproc
 241              		@ args = 0, pretend = 0, frame = 0
 242              		@ frame_needed = 0, uses_anonymous_args = 0
 243              		@ link register save eliminated.
 228:.\Generated_Source\PSoC5/NP_Neo_BITCNT.c ****     return(NP_Neo_BITCNT_PERIOD_REG);
 244              		.loc 1 228 0
 245 0000 014B     		ldr	r3, .L27
 246 0002 1878     		ldrb	r0, [r3]	@ zero_extendqisi2
 229:.\Generated_Source\PSoC5/NP_Neo_BITCNT.c **** }
 247              		.loc 1 229 0
 248 0004 7047     		bx	lr
 249              	.L28:
 250 0006 00BF     		.align	2
 251              	.L27:
 252 0008 81640040 		.word	1073767553
 253              		.cfi_endproc
 254              	.LFE7:
 255              		.size	NP_Neo_BITCNT_ReadPeriod, .-NP_Neo_BITCNT_ReadPeriod
 256              		.global	NP_Neo_BITCNT_initVar
 257              		.bss
 258              		.set	.LANCHOR0,. + 0
 259              		.type	NP_Neo_BITCNT_initVar, %object
 260              		.size	NP_Neo_BITCNT_initVar, 1
 261              	NP_Neo_BITCNT_initVar:
 262 0000 00       		.space	1
 263              		.text
 264              	.Letext0:
 265              		.file 2 ".\\Generated_Source\\PSoC5\\cytypes.h"
 266              		.file 3 ".\\Generated_Source\\PSoC5\\CyLib.h"