ARM GAS  C:\Users\IVYLIU~1\AppData\Local\Temp\ccFgFrza.s 			page 1


   1              		.syntax unified
   2              		.cpu cortex-m3
   3              		.fpu softvfp
   4              		.eabi_attribute 20, 1
   5              		.eabi_attribute 21, 1
   6              		.eabi_attribute 23, 3
   7              		.eabi_attribute 24, 1
   8              		.eabi_attribute 25, 1
   9              		.eabi_attribute 26, 1
  10              		.eabi_attribute 30, 1
  11              		.eabi_attribute 34, 1
  12              		.eabi_attribute 18, 4
  13              		.thumb
  14              		.file	"arm_cmplx_mag_f32.c"
  15              		.text
  16              	.Ltext0:
  17              		.cfi_sections	.debug_frame
  18              		.global	__aeabi_fmul
  19              		.global	__aeabi_fadd
  20              		.global	__aeabi_fcmpge
  21              		.section	.text.arm_cmplx_mag_f32,"ax",%progbits
  22              		.align	2
  23              		.global	arm_cmplx_mag_f32
  24              		.thumb
  25              		.thumb_func
  26              		.type	arm_cmplx_mag_f32, %function
  27              	arm_cmplx_mag_f32:
  28              	.LFB84:
  29              		.file 1 ".\\arm_cmplx_mag_f32.c"
   1:.\arm_cmplx_mag_f32.c **** /* ----------------------------------------------------------------------
   2:.\arm_cmplx_mag_f32.c ****  * Project:      CMSIS DSP Library
   3:.\arm_cmplx_mag_f32.c ****  * Title:        arm_cmplx_mag_f32.c
   4:.\arm_cmplx_mag_f32.c ****  * Description:  Floating-point complex magnitude
   5:.\arm_cmplx_mag_f32.c ****  *
   6:.\arm_cmplx_mag_f32.c ****  * $Date:        23 April 2021
   7:.\arm_cmplx_mag_f32.c ****  * $Revision:    V1.9.0
   8:.\arm_cmplx_mag_f32.c ****  *
   9:.\arm_cmplx_mag_f32.c ****  * Target Processor: Cortex-M and Cortex-A cores
  10:.\arm_cmplx_mag_f32.c ****  * -------------------------------------------------------------------- */
  11:.\arm_cmplx_mag_f32.c **** /*
  12:.\arm_cmplx_mag_f32.c ****  * Copyright (C) 2010-2021 ARM Limited or its affiliates. All rights reserved.
  13:.\arm_cmplx_mag_f32.c ****  *
  14:.\arm_cmplx_mag_f32.c ****  * SPDX-License-Identifier: Apache-2.0
  15:.\arm_cmplx_mag_f32.c ****  *
  16:.\arm_cmplx_mag_f32.c ****  * Licensed under the Apache License, Version 2.0 (the License); you may
  17:.\arm_cmplx_mag_f32.c ****  * not use this file except in compliance with the License.
  18:.\arm_cmplx_mag_f32.c ****  * You may obtain a copy of the License at
  19:.\arm_cmplx_mag_f32.c ****  *
  20:.\arm_cmplx_mag_f32.c ****  * www.apache.org/licenses/LICENSE-2.0
  21:.\arm_cmplx_mag_f32.c ****  *
  22:.\arm_cmplx_mag_f32.c ****  * Unless required by applicable law or agreed to in writing, software
  23:.\arm_cmplx_mag_f32.c ****  * distributed under the License is distributed on an AS IS BASIS, WITHOUT
  24:.\arm_cmplx_mag_f32.c ****  * WARRANTIES OR CONDITIONS OF ANY KIND, either express or implied.
  25:.\arm_cmplx_mag_f32.c ****  * See the License for the specific language governing permissions and
  26:.\arm_cmplx_mag_f32.c ****  * limitations under the License.
  27:.\arm_cmplx_mag_f32.c ****  */
  28:.\arm_cmplx_mag_f32.c **** 
ARM GAS  C:\Users\IVYLIU~1\AppData\Local\Temp\ccFgFrza.s 			page 2


  29:.\arm_cmplx_mag_f32.c **** #include "dsp/complex_math_functions.h"
  30:.\arm_cmplx_mag_f32.c **** 
  31:.\arm_cmplx_mag_f32.c **** /**
  32:.\arm_cmplx_mag_f32.c ****   @ingroup groupCmplxMath
  33:.\arm_cmplx_mag_f32.c ****  */
  34:.\arm_cmplx_mag_f32.c **** 
  35:.\arm_cmplx_mag_f32.c **** /**
  36:.\arm_cmplx_mag_f32.c ****   @defgroup cmplx_mag Complex Magnitude
  37:.\arm_cmplx_mag_f32.c **** 
  38:.\arm_cmplx_mag_f32.c ****   Computes the magnitude of the elements of a complex data vector.
  39:.\arm_cmplx_mag_f32.c **** 
  40:.\arm_cmplx_mag_f32.c ****   The <code>pSrc</code> points to the source data and
  41:.\arm_cmplx_mag_f32.c ****   <code>pDst</code> points to the where the result should be written.
  42:.\arm_cmplx_mag_f32.c ****   <code>numSamples</code> specifies the number of complex samples
  43:.\arm_cmplx_mag_f32.c ****   in the input array and the data is stored in an interleaved fashion
  44:.\arm_cmplx_mag_f32.c ****   (real, imag, real, imag, ...).
  45:.\arm_cmplx_mag_f32.c ****   The input array has a total of <code>2*numSamples</code> values;
  46:.\arm_cmplx_mag_f32.c ****   the output array has a total of <code>numSamples</code> values.
  47:.\arm_cmplx_mag_f32.c **** 
  48:.\arm_cmplx_mag_f32.c ****   The underlying algorithm is used:
  49:.\arm_cmplx_mag_f32.c **** 
  50:.\arm_cmplx_mag_f32.c ****   <pre>
  51:.\arm_cmplx_mag_f32.c ****   for (n = 0; n < numSamples; n++) {
  52:.\arm_cmplx_mag_f32.c ****       pDst[n] = sqrt(pSrc[(2*n)+0]^2 + pSrc[(2*n)+1]^2);
  53:.\arm_cmplx_mag_f32.c ****   }
  54:.\arm_cmplx_mag_f32.c ****   </pre>
  55:.\arm_cmplx_mag_f32.c **** 
  56:.\arm_cmplx_mag_f32.c ****   There are separate functions for floating-point, Q15, and Q31 data types.
  57:.\arm_cmplx_mag_f32.c ****  */
  58:.\arm_cmplx_mag_f32.c **** 
  59:.\arm_cmplx_mag_f32.c **** /**
  60:.\arm_cmplx_mag_f32.c ****   @addtogroup cmplx_mag
  61:.\arm_cmplx_mag_f32.c ****   @{
  62:.\arm_cmplx_mag_f32.c ****  */
  63:.\arm_cmplx_mag_f32.c **** 
  64:.\arm_cmplx_mag_f32.c **** /**
  65:.\arm_cmplx_mag_f32.c ****   @brief         Floating-point complex magnitude.
  66:.\arm_cmplx_mag_f32.c ****   @param[in]     pSrc        points to input vector
  67:.\arm_cmplx_mag_f32.c ****   @param[out]    pDst        points to output vector
  68:.\arm_cmplx_mag_f32.c ****   @param[in]     numSamples  number of samples in each vector
  69:.\arm_cmplx_mag_f32.c ****   @return        none
  70:.\arm_cmplx_mag_f32.c ****  */
  71:.\arm_cmplx_mag_f32.c **** 
  72:.\arm_cmplx_mag_f32.c **** #if defined(ARM_MATH_NEON) && !defined(ARM_MATH_AUTOVECTORIZE)
  73:.\arm_cmplx_mag_f32.c **** #include "arm_vec_math.h"
  74:.\arm_cmplx_mag_f32.c **** #endif
  75:.\arm_cmplx_mag_f32.c **** 
  76:.\arm_cmplx_mag_f32.c **** #if defined(ARM_MATH_MVEF) && !defined(ARM_MATH_AUTOVECTORIZE)
  77:.\arm_cmplx_mag_f32.c **** 
  78:.\arm_cmplx_mag_f32.c **** #include "arm_helium_utils.h"
  79:.\arm_cmplx_mag_f32.c **** 
  80:.\arm_cmplx_mag_f32.c **** 
  81:.\arm_cmplx_mag_f32.c **** void arm_cmplx_mag_f32(
  82:.\arm_cmplx_mag_f32.c ****   const float32_t * pSrc,
  83:.\arm_cmplx_mag_f32.c ****         float32_t * pDst,
  84:.\arm_cmplx_mag_f32.c ****         uint32_t numSamples)
  85:.\arm_cmplx_mag_f32.c **** {
ARM GAS  C:\Users\IVYLIU~1\AppData\Local\Temp\ccFgFrza.s 			page 3


  86:.\arm_cmplx_mag_f32.c ****     int32_t blockSize = numSamples;  /* loop counters */
  87:.\arm_cmplx_mag_f32.c ****     uint32_t  blkCnt;           /* loop counters */
  88:.\arm_cmplx_mag_f32.c ****     f32x4x2_t vecSrc;
  89:.\arm_cmplx_mag_f32.c ****     f32x4_t sum;
  90:.\arm_cmplx_mag_f32.c ****     float32_t real, imag;                      /* Temporary variables to hold input values */
  91:.\arm_cmplx_mag_f32.c **** 
  92:.\arm_cmplx_mag_f32.c ****     /* Compute 4 complex samples at a time */
  93:.\arm_cmplx_mag_f32.c ****     blkCnt = blockSize >> 2;
  94:.\arm_cmplx_mag_f32.c ****     while (blkCnt > 0U)
  95:.\arm_cmplx_mag_f32.c ****     {
  96:.\arm_cmplx_mag_f32.c ****         q31x4_t newtonStartVec;
  97:.\arm_cmplx_mag_f32.c ****         f32x4_t sumHalf, invSqrt;
  98:.\arm_cmplx_mag_f32.c **** 
  99:.\arm_cmplx_mag_f32.c ****         vecSrc = vld2q(pSrc);  
 100:.\arm_cmplx_mag_f32.c ****         pSrc += 8;
 101:.\arm_cmplx_mag_f32.c ****         sum = vmulq(vecSrc.val[0], vecSrc.val[0]);
 102:.\arm_cmplx_mag_f32.c ****         sum = vfmaq(sum, vecSrc.val[1], vecSrc.val[1]);
 103:.\arm_cmplx_mag_f32.c **** 
 104:.\arm_cmplx_mag_f32.c ****         /*
 105:.\arm_cmplx_mag_f32.c ****          * inlined Fast SQRT using inverse SQRT newton-raphson method
 106:.\arm_cmplx_mag_f32.c ****          */
 107:.\arm_cmplx_mag_f32.c **** 
 108:.\arm_cmplx_mag_f32.c ****         /* compute initial value */
 109:.\arm_cmplx_mag_f32.c ****         newtonStartVec = vdupq_n_s32(INVSQRT_MAGIC_F32) - vshrq((q31x4_t) sum, 1);
 110:.\arm_cmplx_mag_f32.c ****         sumHalf = sum * 0.5f;
 111:.\arm_cmplx_mag_f32.c ****         /*
 112:.\arm_cmplx_mag_f32.c ****          * compute 3 x iterations
 113:.\arm_cmplx_mag_f32.c ****          *
 114:.\arm_cmplx_mag_f32.c ****          * The more iterations, the more accuracy.
 115:.\arm_cmplx_mag_f32.c ****          * If you need to trade a bit of accuracy for more performance,
 116:.\arm_cmplx_mag_f32.c ****          * you can comment out the 3rd use of the macro.
 117:.\arm_cmplx_mag_f32.c ****          */
 118:.\arm_cmplx_mag_f32.c ****         INVSQRT_NEWTON_MVE_F32(invSqrt, sumHalf, (f32x4_t) newtonStartVec);
 119:.\arm_cmplx_mag_f32.c ****         INVSQRT_NEWTON_MVE_F32(invSqrt, sumHalf, invSqrt);
 120:.\arm_cmplx_mag_f32.c ****         INVSQRT_NEWTON_MVE_F32(invSqrt, sumHalf, invSqrt);
 121:.\arm_cmplx_mag_f32.c ****         /*
 122:.\arm_cmplx_mag_f32.c ****          * set negative values to 0
 123:.\arm_cmplx_mag_f32.c ****          */
 124:.\arm_cmplx_mag_f32.c ****         invSqrt = vdupq_m(invSqrt, 0.0f, vcmpltq(invSqrt, 0.0f));
 125:.\arm_cmplx_mag_f32.c ****         /*
 126:.\arm_cmplx_mag_f32.c ****          * sqrt(x) = x * invSqrt(x)
 127:.\arm_cmplx_mag_f32.c ****          */
 128:.\arm_cmplx_mag_f32.c ****         sum = vmulq(sum, invSqrt);
 129:.\arm_cmplx_mag_f32.c ****         vst1q(pDst, sum); 
 130:.\arm_cmplx_mag_f32.c ****         pDst += 4;
 131:.\arm_cmplx_mag_f32.c ****         /*
 132:.\arm_cmplx_mag_f32.c ****          * Decrement the blockSize loop counter
 133:.\arm_cmplx_mag_f32.c ****          */
 134:.\arm_cmplx_mag_f32.c ****         blkCnt--;
 135:.\arm_cmplx_mag_f32.c ****     }
 136:.\arm_cmplx_mag_f32.c ****     /*
 137:.\arm_cmplx_mag_f32.c ****      * tail
 138:.\arm_cmplx_mag_f32.c ****      */
 139:.\arm_cmplx_mag_f32.c ****     blkCnt = blockSize & 3;
 140:.\arm_cmplx_mag_f32.c ****     while (blkCnt > 0U)
 141:.\arm_cmplx_mag_f32.c ****     {
 142:.\arm_cmplx_mag_f32.c ****       /* C[0] = sqrt(A[0] * A[0] + A[1] * A[1]) */
ARM GAS  C:\Users\IVYLIU~1\AppData\Local\Temp\ccFgFrza.s 			page 4


 143:.\arm_cmplx_mag_f32.c ****   
 144:.\arm_cmplx_mag_f32.c ****       real = *pSrc++;
 145:.\arm_cmplx_mag_f32.c ****       imag = *pSrc++;
 146:.\arm_cmplx_mag_f32.c ****   
 147:.\arm_cmplx_mag_f32.c ****       /* store result in destination buffer. */
 148:.\arm_cmplx_mag_f32.c ****       arm_sqrt_f32((real * real) + (imag * imag), pDst++);
 149:.\arm_cmplx_mag_f32.c ****   
 150:.\arm_cmplx_mag_f32.c ****       /* Decrement loop counter */
 151:.\arm_cmplx_mag_f32.c ****       blkCnt--;
 152:.\arm_cmplx_mag_f32.c ****     }
 153:.\arm_cmplx_mag_f32.c **** }
 154:.\arm_cmplx_mag_f32.c **** 
 155:.\arm_cmplx_mag_f32.c **** #else
 156:.\arm_cmplx_mag_f32.c **** void arm_cmplx_mag_f32(
 157:.\arm_cmplx_mag_f32.c ****   const float32_t * pSrc,
 158:.\arm_cmplx_mag_f32.c ****         float32_t * pDst,
 159:.\arm_cmplx_mag_f32.c ****         uint32_t numSamples)
 160:.\arm_cmplx_mag_f32.c **** {
  30              		.loc 1 160 0
  31              		.cfi_startproc
  32              		@ args = 0, pretend = 0, frame = 0
  33              		@ frame_needed = 0, uses_anonymous_args = 0
  34              	.LVL0:
  35 0000 2DE9F041 		push	{r4, r5, r6, r7, r8, lr}
  36              		.cfi_def_cfa_offset 24
  37              		.cfi_offset 4, -24
  38              		.cfi_offset 5, -20
  39              		.cfi_offset 6, -16
  40              		.cfi_offset 7, -12
  41              		.cfi_offset 8, -8
  42              		.cfi_offset 14, -4
  43 0004 0E46     		mov	r6, r1
  44 0006 1546     		mov	r5, r2
  45              	.LVL1:
 161:.\arm_cmplx_mag_f32.c ****   uint32_t blkCnt;                               /* loop counter */
 162:.\arm_cmplx_mag_f32.c ****   float32_t real, imag;                      /* Temporary variables to hold input values */
 163:.\arm_cmplx_mag_f32.c **** 
 164:.\arm_cmplx_mag_f32.c **** #if defined(ARM_MATH_NEON) && !defined(ARM_MATH_AUTOVECTORIZE)
 165:.\arm_cmplx_mag_f32.c **** 
 166:.\arm_cmplx_mag_f32.c ****   float32x4x2_t vecA;
 167:.\arm_cmplx_mag_f32.c ****   float32x4_t vRealA;
 168:.\arm_cmplx_mag_f32.c ****   float32x4_t vImagA;
 169:.\arm_cmplx_mag_f32.c ****   float32x4_t vMagSqA;
 170:.\arm_cmplx_mag_f32.c **** 
 171:.\arm_cmplx_mag_f32.c ****   float32x4x2_t vecB;
 172:.\arm_cmplx_mag_f32.c ****   float32x4_t vRealB;
 173:.\arm_cmplx_mag_f32.c ****   float32x4_t vImagB;
 174:.\arm_cmplx_mag_f32.c ****   float32x4_t vMagSqB;
 175:.\arm_cmplx_mag_f32.c **** 
 176:.\arm_cmplx_mag_f32.c ****   /* Loop unrolling: Compute 8 outputs at a time */
 177:.\arm_cmplx_mag_f32.c ****   blkCnt = numSamples >> 3;
 178:.\arm_cmplx_mag_f32.c **** 
 179:.\arm_cmplx_mag_f32.c ****   while (blkCnt > 0U)
 180:.\arm_cmplx_mag_f32.c ****   {
 181:.\arm_cmplx_mag_f32.c ****     /* out = sqrt((real * real) + (imag * imag)) */
 182:.\arm_cmplx_mag_f32.c **** 
 183:.\arm_cmplx_mag_f32.c ****     vecA = vld2q_f32(pSrc);
ARM GAS  C:\Users\IVYLIU~1\AppData\Local\Temp\ccFgFrza.s 			page 5


 184:.\arm_cmplx_mag_f32.c ****     pSrc += 8;
 185:.\arm_cmplx_mag_f32.c **** 
 186:.\arm_cmplx_mag_f32.c ****     vecB = vld2q_f32(pSrc);
 187:.\arm_cmplx_mag_f32.c ****     pSrc += 8;
 188:.\arm_cmplx_mag_f32.c **** 
 189:.\arm_cmplx_mag_f32.c ****     vRealA = vmulq_f32(vecA.val[0], vecA.val[0]);
 190:.\arm_cmplx_mag_f32.c ****     vImagA = vmulq_f32(vecA.val[1], vecA.val[1]);
 191:.\arm_cmplx_mag_f32.c ****     vMagSqA = vaddq_f32(vRealA, vImagA);
 192:.\arm_cmplx_mag_f32.c **** 
 193:.\arm_cmplx_mag_f32.c ****     vRealB = vmulq_f32(vecB.val[0], vecB.val[0]);
 194:.\arm_cmplx_mag_f32.c ****     vImagB = vmulq_f32(vecB.val[1], vecB.val[1]);
 195:.\arm_cmplx_mag_f32.c ****     vMagSqB = vaddq_f32(vRealB, vImagB);
 196:.\arm_cmplx_mag_f32.c **** 
 197:.\arm_cmplx_mag_f32.c ****     /* Store the result in the destination buffer. */
 198:.\arm_cmplx_mag_f32.c ****     vst1q_f32(pDst, __arm_vec_sqrt_f32_neon(vMagSqA));
 199:.\arm_cmplx_mag_f32.c ****     pDst += 4;
 200:.\arm_cmplx_mag_f32.c **** 
 201:.\arm_cmplx_mag_f32.c ****     vst1q_f32(pDst, __arm_vec_sqrt_f32_neon(vMagSqB));
 202:.\arm_cmplx_mag_f32.c ****     pDst += 4;
 203:.\arm_cmplx_mag_f32.c **** 
 204:.\arm_cmplx_mag_f32.c ****     /* Decrement the loop counter */
 205:.\arm_cmplx_mag_f32.c ****     blkCnt--;
 206:.\arm_cmplx_mag_f32.c ****   }
 207:.\arm_cmplx_mag_f32.c **** 
 208:.\arm_cmplx_mag_f32.c ****   blkCnt = numSamples & 7;
 209:.\arm_cmplx_mag_f32.c **** 
 210:.\arm_cmplx_mag_f32.c **** #else
 211:.\arm_cmplx_mag_f32.c **** 
 212:.\arm_cmplx_mag_f32.c **** #if defined (ARM_MATH_LOOPUNROLL) && !defined(ARM_MATH_AUTOVECTORIZE)
 213:.\arm_cmplx_mag_f32.c **** 
 214:.\arm_cmplx_mag_f32.c ****   /* Loop unrolling: Compute 4 outputs at a time */
 215:.\arm_cmplx_mag_f32.c ****   blkCnt = numSamples >> 2U;
 216:.\arm_cmplx_mag_f32.c **** 
 217:.\arm_cmplx_mag_f32.c ****   while (blkCnt > 0U)
 218:.\arm_cmplx_mag_f32.c ****   {
 219:.\arm_cmplx_mag_f32.c ****     /* C[0] = sqrt(A[0] * A[0] + A[1] * A[1]) */
 220:.\arm_cmplx_mag_f32.c **** 
 221:.\arm_cmplx_mag_f32.c ****     real = *pSrc++;
 222:.\arm_cmplx_mag_f32.c ****     imag = *pSrc++;
 223:.\arm_cmplx_mag_f32.c **** 
 224:.\arm_cmplx_mag_f32.c ****     /* store result in destination buffer. */
 225:.\arm_cmplx_mag_f32.c ****     arm_sqrt_f32((real * real) + (imag * imag), pDst++);
 226:.\arm_cmplx_mag_f32.c **** 
 227:.\arm_cmplx_mag_f32.c ****     real = *pSrc++;
 228:.\arm_cmplx_mag_f32.c ****     imag = *pSrc++;
 229:.\arm_cmplx_mag_f32.c ****     arm_sqrt_f32((real * real) + (imag * imag), pDst++);
 230:.\arm_cmplx_mag_f32.c **** 
 231:.\arm_cmplx_mag_f32.c ****     real = *pSrc++;
 232:.\arm_cmplx_mag_f32.c ****     imag = *pSrc++;
 233:.\arm_cmplx_mag_f32.c ****     arm_sqrt_f32((real * real) + (imag * imag), pDst++);
 234:.\arm_cmplx_mag_f32.c **** 
 235:.\arm_cmplx_mag_f32.c ****     real = *pSrc++;
 236:.\arm_cmplx_mag_f32.c ****     imag = *pSrc++;
 237:.\arm_cmplx_mag_f32.c ****     arm_sqrt_f32((real * real) + (imag * imag), pDst++);
 238:.\arm_cmplx_mag_f32.c **** 
 239:.\arm_cmplx_mag_f32.c ****     /* Decrement loop counter */
 240:.\arm_cmplx_mag_f32.c ****     blkCnt--;
ARM GAS  C:\Users\IVYLIU~1\AppData\Local\Temp\ccFgFrza.s 			page 6


 241:.\arm_cmplx_mag_f32.c ****   }
 242:.\arm_cmplx_mag_f32.c **** 
 243:.\arm_cmplx_mag_f32.c ****   /* Loop unrolling: Compute remaining outputs */
 244:.\arm_cmplx_mag_f32.c ****   blkCnt = numSamples % 0x4U;
 245:.\arm_cmplx_mag_f32.c **** 
 246:.\arm_cmplx_mag_f32.c **** #else
 247:.\arm_cmplx_mag_f32.c **** 
 248:.\arm_cmplx_mag_f32.c ****   /* Initialize blkCnt with number of samples */
 249:.\arm_cmplx_mag_f32.c ****   blkCnt = numSamples;
 250:.\arm_cmplx_mag_f32.c **** 
 251:.\arm_cmplx_mag_f32.c **** #endif /* #if defined (ARM_MATH_LOOPUNROLL) */
 252:.\arm_cmplx_mag_f32.c **** #endif /* #if defined(ARM_MATH_NEON) */
 253:.\arm_cmplx_mag_f32.c **** 
 254:.\arm_cmplx_mag_f32.c ****   while (blkCnt > 0U)
  46              		.loc 1 254 0
  47 0008 1FE0     		b	.L2
  48              	.LVL2:
  49              	.L6:
 255:.\arm_cmplx_mag_f32.c ****   {
 256:.\arm_cmplx_mag_f32.c ****     /* C[0] = sqrt(A[0] * A[0] + A[1] * A[1]) */
 257:.\arm_cmplx_mag_f32.c **** 
 258:.\arm_cmplx_mag_f32.c ****     real = *pSrc++;
  50              		.loc 1 258 0
  51 000a 0446     		mov	r4, r0
  52 000c 54F8081B 		ldr	r1, [r4], #8	@ float
  53              	.LVL3:
 259:.\arm_cmplx_mag_f32.c ****     imag = *pSrc++;
  54              		.loc 1 259 0
  55 0010 4768     		ldr	r7, [r0, #4]	@ float
  56              	.LVL4:
 260:.\arm_cmplx_mag_f32.c **** 
 261:.\arm_cmplx_mag_f32.c ****     /* store result in destination buffer. */
 262:.\arm_cmplx_mag_f32.c ****     arm_sqrt_f32((real * real) + (imag * imag), pDst++);
  57              		.loc 1 262 0
  58 0012 0846     		mov	r0, r1
  59 0014 FFF7FEFF 		bl	__aeabi_fmul
  60              	.LVL5:
  61 0018 8046     		mov	r8, r0
  62 001a 3846     		mov	r0, r7
  63 001c 3946     		mov	r1, r7
  64 001e FFF7FEFF 		bl	__aeabi_fmul
  65              	.LVL6:
  66 0022 0146     		mov	r1, r0
  67 0024 4046     		mov	r0, r8
  68 0026 FFF7FEFF 		bl	__aeabi_fadd
  69              	.LVL7:
  70 002a 8046     		mov	r8, r0
  71 002c 371D     		adds	r7, r6, #4
  72              	.LVL8:
  73              	.LBB4:
  74              	.LBB5:
  75              		.file 2 ".\\DSP\\Include/dsp/fast_math_functions.h"
   1:.\DSP\Include/dsp/fast_math_functions.h **** /******************************************************************************
   2:.\DSP\Include/dsp/fast_math_functions.h ****  * @file     fast_math_functions.h
   3:.\DSP\Include/dsp/fast_math_functions.h ****  * @brief    Public header file for CMSIS DSP Library
   4:.\DSP\Include/dsp/fast_math_functions.h ****  * @version  V1.10.0
   5:.\DSP\Include/dsp/fast_math_functions.h ****  * @date     08 July 2021
ARM GAS  C:\Users\IVYLIU~1\AppData\Local\Temp\ccFgFrza.s 			page 7


   6:.\DSP\Include/dsp/fast_math_functions.h ****  * Target Processor: Cortex-M and Cortex-A cores
   7:.\DSP\Include/dsp/fast_math_functions.h ****  ******************************************************************************/
   8:.\DSP\Include/dsp/fast_math_functions.h **** /*
   9:.\DSP\Include/dsp/fast_math_functions.h ****  * Copyright (c) 2010-2020 Arm Limited or its affiliates. All rights reserved.
  10:.\DSP\Include/dsp/fast_math_functions.h ****  *
  11:.\DSP\Include/dsp/fast_math_functions.h ****  * SPDX-License-Identifier: Apache-2.0
  12:.\DSP\Include/dsp/fast_math_functions.h ****  *
  13:.\DSP\Include/dsp/fast_math_functions.h ****  * Licensed under the Apache License, Version 2.0 (the License); you may
  14:.\DSP\Include/dsp/fast_math_functions.h ****  * not use this file except in compliance with the License.
  15:.\DSP\Include/dsp/fast_math_functions.h ****  * You may obtain a copy of the License at
  16:.\DSP\Include/dsp/fast_math_functions.h ****  *
  17:.\DSP\Include/dsp/fast_math_functions.h ****  * www.apache.org/licenses/LICENSE-2.0
  18:.\DSP\Include/dsp/fast_math_functions.h ****  *
  19:.\DSP\Include/dsp/fast_math_functions.h ****  * Unless required by applicable law or agreed to in writing, software
  20:.\DSP\Include/dsp/fast_math_functions.h ****  * distributed under the License is distributed on an AS IS BASIS, WITHOUT
  21:.\DSP\Include/dsp/fast_math_functions.h ****  * WARRANTIES OR CONDITIONS OF ANY KIND, either express or implied.
  22:.\DSP\Include/dsp/fast_math_functions.h ****  * See the License for the specific language governing permissions and
  23:.\DSP\Include/dsp/fast_math_functions.h ****  * limitations under the License.
  24:.\DSP\Include/dsp/fast_math_functions.h ****  */
  25:.\DSP\Include/dsp/fast_math_functions.h **** 
  26:.\DSP\Include/dsp/fast_math_functions.h ****  
  27:.\DSP\Include/dsp/fast_math_functions.h **** #ifndef _FAST_MATH_FUNCTIONS_H_
  28:.\DSP\Include/dsp/fast_math_functions.h **** #define _FAST_MATH_FUNCTIONS_H_
  29:.\DSP\Include/dsp/fast_math_functions.h **** 
  30:.\DSP\Include/dsp/fast_math_functions.h **** #include "arm_math_types.h"
  31:.\DSP\Include/dsp/fast_math_functions.h **** #include "arm_math_memory.h"
  32:.\DSP\Include/dsp/fast_math_functions.h **** 
  33:.\DSP\Include/dsp/fast_math_functions.h **** #include "dsp/none.h"
  34:.\DSP\Include/dsp/fast_math_functions.h **** #include "dsp/utils.h"
  35:.\DSP\Include/dsp/fast_math_functions.h **** 
  36:.\DSP\Include/dsp/fast_math_functions.h **** #include "dsp/basic_math_functions.h"
  37:.\DSP\Include/dsp/fast_math_functions.h **** 
  38:.\DSP\Include/dsp/fast_math_functions.h **** 
  39:.\DSP\Include/dsp/fast_math_functions.h **** #ifdef   __cplusplus
  40:.\DSP\Include/dsp/fast_math_functions.h **** extern "C"
  41:.\DSP\Include/dsp/fast_math_functions.h **** {
  42:.\DSP\Include/dsp/fast_math_functions.h **** #endif
  43:.\DSP\Include/dsp/fast_math_functions.h **** 
  44:.\DSP\Include/dsp/fast_math_functions.h ****   /**
  45:.\DSP\Include/dsp/fast_math_functions.h ****    * @brief Macros required for SINE and COSINE Fast math approximations
  46:.\DSP\Include/dsp/fast_math_functions.h ****    */
  47:.\DSP\Include/dsp/fast_math_functions.h **** 
  48:.\DSP\Include/dsp/fast_math_functions.h **** #define FAST_MATH_TABLE_SIZE  512
  49:.\DSP\Include/dsp/fast_math_functions.h **** #define FAST_MATH_Q31_SHIFT   (32 - 10)
  50:.\DSP\Include/dsp/fast_math_functions.h **** #define FAST_MATH_Q15_SHIFT   (16 - 10)
  51:.\DSP\Include/dsp/fast_math_functions.h ****   
  52:.\DSP\Include/dsp/fast_math_functions.h **** #ifndef PI
  53:.\DSP\Include/dsp/fast_math_functions.h ****   #define PI               3.14159265358979f
  54:.\DSP\Include/dsp/fast_math_functions.h **** #endif
  55:.\DSP\Include/dsp/fast_math_functions.h **** 
  56:.\DSP\Include/dsp/fast_math_functions.h **** 
  57:.\DSP\Include/dsp/fast_math_functions.h **** /**
  58:.\DSP\Include/dsp/fast_math_functions.h ****  * @defgroup groupFastMath Fast Math Functions
  59:.\DSP\Include/dsp/fast_math_functions.h ****  * This set of functions provides a fast approximation to sine, cosine, and square root.
  60:.\DSP\Include/dsp/fast_math_functions.h ****  * As compared to most of the other functions in the CMSIS math library, the fast math functions
  61:.\DSP\Include/dsp/fast_math_functions.h ****  * operate on individual values and not arrays.
  62:.\DSP\Include/dsp/fast_math_functions.h ****  * There are separate functions for Q15, Q31, and floating-point data.
ARM GAS  C:\Users\IVYLIU~1\AppData\Local\Temp\ccFgFrza.s 			page 8


  63:.\DSP\Include/dsp/fast_math_functions.h ****  *
  64:.\DSP\Include/dsp/fast_math_functions.h ****  */
  65:.\DSP\Include/dsp/fast_math_functions.h **** 
  66:.\DSP\Include/dsp/fast_math_functions.h ****   /**
  67:.\DSP\Include/dsp/fast_math_functions.h ****    * @ingroup groupFastMath
  68:.\DSP\Include/dsp/fast_math_functions.h ****    */
  69:.\DSP\Include/dsp/fast_math_functions.h **** 
  70:.\DSP\Include/dsp/fast_math_functions.h **** 
  71:.\DSP\Include/dsp/fast_math_functions.h **** /**
  72:.\DSP\Include/dsp/fast_math_functions.h ****   @addtogroup sin
  73:.\DSP\Include/dsp/fast_math_functions.h ****   @{
  74:.\DSP\Include/dsp/fast_math_functions.h ****  */
  75:.\DSP\Include/dsp/fast_math_functions.h **** 
  76:.\DSP\Include/dsp/fast_math_functions.h **** /**
  77:.\DSP\Include/dsp/fast_math_functions.h ****    * @brief  Fast approximation to the trigonometric sine function for floating-point data.
  78:.\DSP\Include/dsp/fast_math_functions.h ****    * @param[in] x  input value in radians.
  79:.\DSP\Include/dsp/fast_math_functions.h ****    * @return  sin(x).
  80:.\DSP\Include/dsp/fast_math_functions.h ****    */
  81:.\DSP\Include/dsp/fast_math_functions.h ****   float32_t arm_sin_f32(
  82:.\DSP\Include/dsp/fast_math_functions.h ****   float32_t x);
  83:.\DSP\Include/dsp/fast_math_functions.h **** 
  84:.\DSP\Include/dsp/fast_math_functions.h **** 
  85:.\DSP\Include/dsp/fast_math_functions.h ****   /**
  86:.\DSP\Include/dsp/fast_math_functions.h ****    * @brief  Fast approximation to the trigonometric sine function for Q31 data.
  87:.\DSP\Include/dsp/fast_math_functions.h ****    * @param[in] x  Scaled input value in radians.
  88:.\DSP\Include/dsp/fast_math_functions.h ****    * @return  sin(x).
  89:.\DSP\Include/dsp/fast_math_functions.h ****    */
  90:.\DSP\Include/dsp/fast_math_functions.h ****   q31_t arm_sin_q31(
  91:.\DSP\Include/dsp/fast_math_functions.h ****   q31_t x);
  92:.\DSP\Include/dsp/fast_math_functions.h **** 
  93:.\DSP\Include/dsp/fast_math_functions.h **** 
  94:.\DSP\Include/dsp/fast_math_functions.h ****   /**
  95:.\DSP\Include/dsp/fast_math_functions.h ****    * @brief  Fast approximation to the trigonometric sine function for Q15 data.
  96:.\DSP\Include/dsp/fast_math_functions.h ****    * @param[in] x  Scaled input value in radians.
  97:.\DSP\Include/dsp/fast_math_functions.h ****    * @return  sin(x).
  98:.\DSP\Include/dsp/fast_math_functions.h ****    */
  99:.\DSP\Include/dsp/fast_math_functions.h ****   q15_t arm_sin_q15(
 100:.\DSP\Include/dsp/fast_math_functions.h ****   q15_t x);
 101:.\DSP\Include/dsp/fast_math_functions.h **** 
 102:.\DSP\Include/dsp/fast_math_functions.h **** /**
 103:.\DSP\Include/dsp/fast_math_functions.h ****   @} end of sin group
 104:.\DSP\Include/dsp/fast_math_functions.h ****  */
 105:.\DSP\Include/dsp/fast_math_functions.h **** 
 106:.\DSP\Include/dsp/fast_math_functions.h **** /**
 107:.\DSP\Include/dsp/fast_math_functions.h ****   @addtogroup cos
 108:.\DSP\Include/dsp/fast_math_functions.h ****   @{
 109:.\DSP\Include/dsp/fast_math_functions.h ****  */
 110:.\DSP\Include/dsp/fast_math_functions.h **** 
 111:.\DSP\Include/dsp/fast_math_functions.h ****   /**
 112:.\DSP\Include/dsp/fast_math_functions.h ****    * @brief  Fast approximation to the trigonometric cosine function for floating-point data.
 113:.\DSP\Include/dsp/fast_math_functions.h ****    * @param[in] x  input value in radians.
 114:.\DSP\Include/dsp/fast_math_functions.h ****    * @return  cos(x).
 115:.\DSP\Include/dsp/fast_math_functions.h ****    */
 116:.\DSP\Include/dsp/fast_math_functions.h ****   float32_t arm_cos_f32(
 117:.\DSP\Include/dsp/fast_math_functions.h ****   float32_t x);
 118:.\DSP\Include/dsp/fast_math_functions.h **** 
 119:.\DSP\Include/dsp/fast_math_functions.h **** 
ARM GAS  C:\Users\IVYLIU~1\AppData\Local\Temp\ccFgFrza.s 			page 9


 120:.\DSP\Include/dsp/fast_math_functions.h ****   /**
 121:.\DSP\Include/dsp/fast_math_functions.h ****    * @brief Fast approximation to the trigonometric cosine function for Q31 data.
 122:.\DSP\Include/dsp/fast_math_functions.h ****    * @param[in] x  Scaled input value in radians.
 123:.\DSP\Include/dsp/fast_math_functions.h ****    * @return  cos(x).
 124:.\DSP\Include/dsp/fast_math_functions.h ****    */
 125:.\DSP\Include/dsp/fast_math_functions.h ****   q31_t arm_cos_q31(
 126:.\DSP\Include/dsp/fast_math_functions.h ****   q31_t x);
 127:.\DSP\Include/dsp/fast_math_functions.h **** 
 128:.\DSP\Include/dsp/fast_math_functions.h **** 
 129:.\DSP\Include/dsp/fast_math_functions.h ****   /**
 130:.\DSP\Include/dsp/fast_math_functions.h ****    * @brief  Fast approximation to the trigonometric cosine function for Q15 data.
 131:.\DSP\Include/dsp/fast_math_functions.h ****    * @param[in] x  Scaled input value in radians.
 132:.\DSP\Include/dsp/fast_math_functions.h ****    * @return  cos(x).
 133:.\DSP\Include/dsp/fast_math_functions.h ****    */
 134:.\DSP\Include/dsp/fast_math_functions.h ****   q15_t arm_cos_q15(
 135:.\DSP\Include/dsp/fast_math_functions.h ****   q15_t x);
 136:.\DSP\Include/dsp/fast_math_functions.h **** 
 137:.\DSP\Include/dsp/fast_math_functions.h **** /**
 138:.\DSP\Include/dsp/fast_math_functions.h ****   @} end of cos group
 139:.\DSP\Include/dsp/fast_math_functions.h ****  */
 140:.\DSP\Include/dsp/fast_math_functions.h **** 
 141:.\DSP\Include/dsp/fast_math_functions.h **** 
 142:.\DSP\Include/dsp/fast_math_functions.h **** /**
 143:.\DSP\Include/dsp/fast_math_functions.h ****   @brief         Floating-point vector of log values.
 144:.\DSP\Include/dsp/fast_math_functions.h ****   @param[in]     pSrc       points to the input vector
 145:.\DSP\Include/dsp/fast_math_functions.h ****   @param[out]    pDst       points to the output vector
 146:.\DSP\Include/dsp/fast_math_functions.h ****   @param[in]     blockSize  number of samples in each vector
 147:.\DSP\Include/dsp/fast_math_functions.h ****   @return        none
 148:.\DSP\Include/dsp/fast_math_functions.h ****  */
 149:.\DSP\Include/dsp/fast_math_functions.h ****   void arm_vlog_f32(
 150:.\DSP\Include/dsp/fast_math_functions.h ****   const float32_t * pSrc,
 151:.\DSP\Include/dsp/fast_math_functions.h ****         float32_t * pDst,
 152:.\DSP\Include/dsp/fast_math_functions.h ****         uint32_t blockSize);
 153:.\DSP\Include/dsp/fast_math_functions.h **** 
 154:.\DSP\Include/dsp/fast_math_functions.h **** 
 155:.\DSP\Include/dsp/fast_math_functions.h **** 
 156:.\DSP\Include/dsp/fast_math_functions.h **** /**
 157:.\DSP\Include/dsp/fast_math_functions.h ****   @brief         Floating-point vector of log values.
 158:.\DSP\Include/dsp/fast_math_functions.h ****   @param[in]     pSrc       points to the input vector
 159:.\DSP\Include/dsp/fast_math_functions.h ****   @param[out]    pDst       points to the output vector
 160:.\DSP\Include/dsp/fast_math_functions.h ****   @param[in]     blockSize  number of samples in each vector
 161:.\DSP\Include/dsp/fast_math_functions.h ****   @return        none
 162:.\DSP\Include/dsp/fast_math_functions.h ****  */
 163:.\DSP\Include/dsp/fast_math_functions.h ****   void arm_vlog_f64(
 164:.\DSP\Include/dsp/fast_math_functions.h ****   const float64_t * pSrc,
 165:.\DSP\Include/dsp/fast_math_functions.h **** 		float64_t * pDst,
 166:.\DSP\Include/dsp/fast_math_functions.h **** 		uint32_t blockSize);
 167:.\DSP\Include/dsp/fast_math_functions.h **** 
 168:.\DSP\Include/dsp/fast_math_functions.h **** 
 169:.\DSP\Include/dsp/fast_math_functions.h **** 
 170:.\DSP\Include/dsp/fast_math_functions.h ****   /**
 171:.\DSP\Include/dsp/fast_math_functions.h ****    * @brief  q31 vector of log values.
 172:.\DSP\Include/dsp/fast_math_functions.h ****    * @param[in]     pSrc       points to the input vector in q31
 173:.\DSP\Include/dsp/fast_math_functions.h ****    * @param[out]    pDst       points to the output vector in q5.26
 174:.\DSP\Include/dsp/fast_math_functions.h ****    * @param[in]     blockSize  number of samples in each vector
 175:.\DSP\Include/dsp/fast_math_functions.h ****    * @return        none
 176:.\DSP\Include/dsp/fast_math_functions.h ****    */
ARM GAS  C:\Users\IVYLIU~1\AppData\Local\Temp\ccFgFrza.s 			page 10


 177:.\DSP\Include/dsp/fast_math_functions.h ****   void arm_vlog_q31(const q31_t * pSrc,
 178:.\DSP\Include/dsp/fast_math_functions.h ****         q31_t * pDst,
 179:.\DSP\Include/dsp/fast_math_functions.h ****         uint32_t blockSize);
 180:.\DSP\Include/dsp/fast_math_functions.h **** 
 181:.\DSP\Include/dsp/fast_math_functions.h ****   /**
 182:.\DSP\Include/dsp/fast_math_functions.h ****    * @brief  q15 vector of log values.
 183:.\DSP\Include/dsp/fast_math_functions.h ****    * @param[in]     pSrc       points to the input vector in q15
 184:.\DSP\Include/dsp/fast_math_functions.h ****    * @param[out]    pDst       points to the output vector in q4.11
 185:.\DSP\Include/dsp/fast_math_functions.h ****    * @param[in]     blockSize  number of samples in each vector
 186:.\DSP\Include/dsp/fast_math_functions.h ****    * @return        none
 187:.\DSP\Include/dsp/fast_math_functions.h ****    */
 188:.\DSP\Include/dsp/fast_math_functions.h ****   void arm_vlog_q15(const q15_t * pSrc,
 189:.\DSP\Include/dsp/fast_math_functions.h ****         q15_t * pDst,
 190:.\DSP\Include/dsp/fast_math_functions.h ****         uint32_t blockSize);
 191:.\DSP\Include/dsp/fast_math_functions.h **** 
 192:.\DSP\Include/dsp/fast_math_functions.h **** 
 193:.\DSP\Include/dsp/fast_math_functions.h **** 
 194:.\DSP\Include/dsp/fast_math_functions.h **** /**
 195:.\DSP\Include/dsp/fast_math_functions.h ****   @brief         Floating-point vector of exp values.
 196:.\DSP\Include/dsp/fast_math_functions.h ****   @param[in]     pSrc       points to the input vector
 197:.\DSP\Include/dsp/fast_math_functions.h ****   @param[out]    pDst       points to the output vector
 198:.\DSP\Include/dsp/fast_math_functions.h ****   @param[in]     blockSize  number of samples in each vector
 199:.\DSP\Include/dsp/fast_math_functions.h ****   @return        none
 200:.\DSP\Include/dsp/fast_math_functions.h ****  */
 201:.\DSP\Include/dsp/fast_math_functions.h ****   void arm_vexp_f32(
 202:.\DSP\Include/dsp/fast_math_functions.h ****   const float32_t * pSrc,
 203:.\DSP\Include/dsp/fast_math_functions.h ****         float32_t * pDst,
 204:.\DSP\Include/dsp/fast_math_functions.h ****         uint32_t blockSize);
 205:.\DSP\Include/dsp/fast_math_functions.h **** 
 206:.\DSP\Include/dsp/fast_math_functions.h **** 
 207:.\DSP\Include/dsp/fast_math_functions.h **** 
 208:.\DSP\Include/dsp/fast_math_functions.h **** /**
 209:.\DSP\Include/dsp/fast_math_functions.h ****   @brief         Floating-point vector of exp values.
 210:.\DSP\Include/dsp/fast_math_functions.h ****   @param[in]     pSrc       points to the input vector
 211:.\DSP\Include/dsp/fast_math_functions.h ****   @param[out]    pDst       points to the output vector
 212:.\DSP\Include/dsp/fast_math_functions.h ****   @param[in]     blockSize  number of samples in each vector
 213:.\DSP\Include/dsp/fast_math_functions.h ****   @return        none
 214:.\DSP\Include/dsp/fast_math_functions.h ****  */
 215:.\DSP\Include/dsp/fast_math_functions.h ****   void arm_vexp_f64(
 216:.\DSP\Include/dsp/fast_math_functions.h ****   const float64_t * pSrc,
 217:.\DSP\Include/dsp/fast_math_functions.h **** 		float64_t * pDst,
 218:.\DSP\Include/dsp/fast_math_functions.h **** 		uint32_t blockSize);
 219:.\DSP\Include/dsp/fast_math_functions.h **** 
 220:.\DSP\Include/dsp/fast_math_functions.h **** 
 221:.\DSP\Include/dsp/fast_math_functions.h **** 
 222:.\DSP\Include/dsp/fast_math_functions.h ****  /**
 223:.\DSP\Include/dsp/fast_math_functions.h ****    * @defgroup SQRT Square Root
 224:.\DSP\Include/dsp/fast_math_functions.h ****    *
 225:.\DSP\Include/dsp/fast_math_functions.h ****    * Computes the square root of a number.
 226:.\DSP\Include/dsp/fast_math_functions.h ****    * There are separate functions for Q15, Q31, and floating-point data types.
 227:.\DSP\Include/dsp/fast_math_functions.h ****    * The square root function is computed using the Newton-Raphson algorithm.
 228:.\DSP\Include/dsp/fast_math_functions.h ****    * This is an iterative algorithm of the form:
 229:.\DSP\Include/dsp/fast_math_functions.h ****    * <pre>
 230:.\DSP\Include/dsp/fast_math_functions.h ****    *      x1 = x0 - f(x0)/f'(x0)
 231:.\DSP\Include/dsp/fast_math_functions.h ****    * </pre>
 232:.\DSP\Include/dsp/fast_math_functions.h ****    * where <code>x1</code> is the current estimate,
 233:.\DSP\Include/dsp/fast_math_functions.h ****    * <code>x0</code> is the previous estimate, and
ARM GAS  C:\Users\IVYLIU~1\AppData\Local\Temp\ccFgFrza.s 			page 11


 234:.\DSP\Include/dsp/fast_math_functions.h ****    * <code>f'(x0)</code> is the derivative of <code>f()</code> evaluated at <code>x0</code>.
 235:.\DSP\Include/dsp/fast_math_functions.h ****    * For the square root function, the algorithm reduces to:
 236:.\DSP\Include/dsp/fast_math_functions.h ****    * <pre>
 237:.\DSP\Include/dsp/fast_math_functions.h ****    *     x0 = in/2                         [initial guess]
 238:.\DSP\Include/dsp/fast_math_functions.h ****    *     x1 = 1/2 * ( x0 + in / x0)        [each iteration]
 239:.\DSP\Include/dsp/fast_math_functions.h ****    * </pre>
 240:.\DSP\Include/dsp/fast_math_functions.h ****    */
 241:.\DSP\Include/dsp/fast_math_functions.h **** 
 242:.\DSP\Include/dsp/fast_math_functions.h **** 
 243:.\DSP\Include/dsp/fast_math_functions.h ****   /**
 244:.\DSP\Include/dsp/fast_math_functions.h ****    * @addtogroup SQRT
 245:.\DSP\Include/dsp/fast_math_functions.h ****    * @{
 246:.\DSP\Include/dsp/fast_math_functions.h ****    */
 247:.\DSP\Include/dsp/fast_math_functions.h **** 
 248:.\DSP\Include/dsp/fast_math_functions.h **** /**
 249:.\DSP\Include/dsp/fast_math_functions.h ****   @brief         Floating-point square root function.
 250:.\DSP\Include/dsp/fast_math_functions.h ****   @param[in]     in    input value
 251:.\DSP\Include/dsp/fast_math_functions.h ****   @param[out]    pOut  square root of input value
 252:.\DSP\Include/dsp/fast_math_functions.h ****   @return        execution status
 253:.\DSP\Include/dsp/fast_math_functions.h ****                    - \ref ARM_MATH_SUCCESS        : input value is positive
 254:.\DSP\Include/dsp/fast_math_functions.h ****                    - \ref ARM_MATH_ARGUMENT_ERROR : input value is negative; *pOut is set to 0
 255:.\DSP\Include/dsp/fast_math_functions.h ****  */
 256:.\DSP\Include/dsp/fast_math_functions.h **** __STATIC_FORCEINLINE arm_status arm_sqrt_f32(
 257:.\DSP\Include/dsp/fast_math_functions.h ****   const float32_t in,
 258:.\DSP\Include/dsp/fast_math_functions.h ****   float32_t * pOut)
 259:.\DSP\Include/dsp/fast_math_functions.h ****   {
 260:.\DSP\Include/dsp/fast_math_functions.h ****     if (in >= 0.0f)
  76              		.loc 2 260 0
  77 002e 0021     		movs	r1, #0
  78 0030 FFF7FEFF 		bl	__aeabi_fcmpge
  79              	.LVL9:
  80 0034 20B1     		cbz	r0, .L9
 261:.\DSP\Include/dsp/fast_math_functions.h ****     {
 262:.\DSP\Include/dsp/fast_math_functions.h **** #if defined ( __CC_ARM )
 263:.\DSP\Include/dsp/fast_math_functions.h ****   #if defined __TARGET_FPU_VFP
 264:.\DSP\Include/dsp/fast_math_functions.h ****       *pOut = __sqrtf(in);
 265:.\DSP\Include/dsp/fast_math_functions.h ****   #else
 266:.\DSP\Include/dsp/fast_math_functions.h ****       *pOut = sqrtf(in);
 267:.\DSP\Include/dsp/fast_math_functions.h ****   #endif
 268:.\DSP\Include/dsp/fast_math_functions.h **** 
 269:.\DSP\Include/dsp/fast_math_functions.h **** #elif defined ( __ICCARM__ )
 270:.\DSP\Include/dsp/fast_math_functions.h ****   #if defined __ARMVFP__
 271:.\DSP\Include/dsp/fast_math_functions.h ****       __ASM("VSQRT.F32 %0,%1" : "=t"(*pOut) : "t"(in));
 272:.\DSP\Include/dsp/fast_math_functions.h ****   #else
 273:.\DSP\Include/dsp/fast_math_functions.h ****       *pOut = sqrtf(in);
 274:.\DSP\Include/dsp/fast_math_functions.h ****   #endif
 275:.\DSP\Include/dsp/fast_math_functions.h **** 
 276:.\DSP\Include/dsp/fast_math_functions.h **** #else
 277:.\DSP\Include/dsp/fast_math_functions.h ****       *pOut = sqrtf(in);
  81              		.loc 2 277 0
  82 0036 4046     		mov	r0, r8
  83 0038 FFF7FEFF 		bl	sqrtf
  84              	.LVL10:
  85 003c 3060     		str	r0, [r6]	@ float
  86 003e 01E0     		b	.L8
  87              	.L9:
 278:.\DSP\Include/dsp/fast_math_functions.h **** #endif
ARM GAS  C:\Users\IVYLIU~1\AppData\Local\Temp\ccFgFrza.s 			page 12


 279:.\DSP\Include/dsp/fast_math_functions.h **** 
 280:.\DSP\Include/dsp/fast_math_functions.h ****       return (ARM_MATH_SUCCESS);
 281:.\DSP\Include/dsp/fast_math_functions.h ****     }
 282:.\DSP\Include/dsp/fast_math_functions.h ****     else
 283:.\DSP\Include/dsp/fast_math_functions.h ****     {
 284:.\DSP\Include/dsp/fast_math_functions.h ****       *pOut = 0.0f;
  88              		.loc 2 284 0
  89 0040 0023     		movs	r3, #0
  90 0042 3360     		str	r3, [r6]	@ float
  91              	.L8:
  92              	.LBE5:
  93              	.LBE4:
 263:.\arm_cmplx_mag_f32.c **** 
 264:.\arm_cmplx_mag_f32.c ****     /* Decrement loop counter */
 265:.\arm_cmplx_mag_f32.c ****     blkCnt--;
  94              		.loc 1 265 0
  95 0044 013D     		subs	r5, r5, #1
  96              	.LVL11:
 262:.\arm_cmplx_mag_f32.c **** 
  97              		.loc 1 262 0
  98 0046 3E46     		mov	r6, r7
  99              	.LVL12:
 259:.\arm_cmplx_mag_f32.c **** 
 100              		.loc 1 259 0
 101 0048 2046     		mov	r0, r4
 102              	.LVL13:
 103              	.L2:
 254:.\arm_cmplx_mag_f32.c ****   {
 104              		.loc 1 254 0
 105 004a 002D     		cmp	r5, #0
 106 004c DDD1     		bne	.L6
 266:.\arm_cmplx_mag_f32.c ****   }
 267:.\arm_cmplx_mag_f32.c **** 
 268:.\arm_cmplx_mag_f32.c **** }
 107              		.loc 1 268 0
 108 004e BDE8F081 		pop	{r4, r5, r6, r7, r8, pc}
 109              		.cfi_endproc
 110              	.LFE84:
 111              		.size	arm_cmplx_mag_f32, .-arm_cmplx_mag_f32
 112 0052 00BF     		.text
 113              	.Letext0:
 114              		.file 3 "c:\\program files (x86)\\cypress\\psoc creator\\3.3\\psoc creator\\import\\gnu\\arm\\4.9.
 115              		.file 4 "c:\\program files (x86)\\cypress\\psoc creator\\3.3\\psoc creator\\import\\gnu\\arm\\4.9.
 116              		.file 5 ".\\DSP\\Include/arm_math_types.h"
 117              		.file 6 ".\\Core\\Include/cmsis_gcc.h"
 118              		.file 7 "c:\\program files (x86)\\cypress\\psoc creator\\3.3\\psoc creator\\import\\gnu\\arm\\4.9.