ARM GAS  C:\Users\IVYLIU~1\AppData\Local\Temp\ccTZy4dw.s 			page 1


   1              		.syntax unified
   2              		.cpu cortex-m3
   3              		.fpu softvfp
   4              		.eabi_attribute 20, 1
   5              		.eabi_attribute 21, 1
   6              		.eabi_attribute 23, 3
   7              		.eabi_attribute 24, 1
   8              		.eabi_attribute 25, 1
   9              		.eabi_attribute 26, 1
  10              		.eabi_attribute 30, 1
  11              		.eabi_attribute 34, 1
  12              		.eabi_attribute 18, 4
  13              		.thumb
  14              		.file	"arm_bitreversal2.c"
  15              		.text
  16              	.Ltext0:
  17              		.cfi_sections	.debug_frame
  18              		.section	.text.arm_bitreversal_64,"ax",%progbits
  19              		.align	2
  20              		.global	arm_bitreversal_64
  21              		.thumb
  22              		.thumb_func
  23              		.type	arm_bitreversal_64, %function
  24              	arm_bitreversal_64:
  25              	.LFB84:
  26              		.file 1 ".\\arm_bitreversal2.c"
   1:.\arm_bitreversal2.c **** /* ----------------------------------------------------------------------
   2:.\arm_bitreversal2.c ****  * Project:      CMSIS DSP Library
   3:.\arm_bitreversal2.c ****  * Title:        arm_bitreversal2.c
   4:.\arm_bitreversal2.c ****  * Description:  Bitreversal functions
   5:.\arm_bitreversal2.c ****  *
   6:.\arm_bitreversal2.c ****  * $Date:        23 April 2021
   7:.\arm_bitreversal2.c ****  * $Revision:    V1.9.0
   8:.\arm_bitreversal2.c ****  *
   9:.\arm_bitreversal2.c ****  * Target Processor: Cortex-M and Cortex-A cores
  10:.\arm_bitreversal2.c ****  * -------------------------------------------------------------------- */
  11:.\arm_bitreversal2.c **** /*
  12:.\arm_bitreversal2.c ****  * Copyright (C) 2019 ARM Limited or its affiliates. All rights reserved.
  13:.\arm_bitreversal2.c ****  *
  14:.\arm_bitreversal2.c ****  * SPDX-License-Identifier: Apache-2.0
  15:.\arm_bitreversal2.c ****  *
  16:.\arm_bitreversal2.c ****  * Licensed under the Apache License, Version 2.0 (the License); you may
  17:.\arm_bitreversal2.c ****  * not use this file except in compliance with the License.
  18:.\arm_bitreversal2.c ****  * You may obtain a copy of the License at
  19:.\arm_bitreversal2.c ****  *
  20:.\arm_bitreversal2.c ****  * www.apache.org/licenses/LICENSE-2.0
  21:.\arm_bitreversal2.c ****  *
  22:.\arm_bitreversal2.c ****  * Unless required by applicable law or agreed to in writing, software
  23:.\arm_bitreversal2.c ****  * distributed under the License is distributed on an AS IS BASIS, WITHOUT
  24:.\arm_bitreversal2.c ****  * WARRANTIES OR CONDITIONS OF ANY KIND, either express or implied.
  25:.\arm_bitreversal2.c ****  * See the License for the specific language governing permissions and
  26:.\arm_bitreversal2.c ****  * limitations under the License.
  27:.\arm_bitreversal2.c ****  */
  28:.\arm_bitreversal2.c **** 
  29:.\arm_bitreversal2.c **** #include "dsp/transform_functions.h"
  30:.\arm_bitreversal2.c **** #include "arm_common_tables.h"
  31:.\arm_bitreversal2.c **** 
ARM GAS  C:\Users\IVYLIU~1\AppData\Local\Temp\ccTZy4dw.s 			page 2


  32:.\arm_bitreversal2.c **** 
  33:.\arm_bitreversal2.c **** /**
  34:.\arm_bitreversal2.c ****   @brief         In-place 64 bit reversal function.
  35:.\arm_bitreversal2.c ****   @param[in,out] pSrc        points to in-place buffer of unknown 64-bit data type
  36:.\arm_bitreversal2.c ****   @param[in]     bitRevLen   bit reversal table length
  37:.\arm_bitreversal2.c ****   @param[in]     pBitRevTab  points to bit reversal table
  38:.\arm_bitreversal2.c ****   @return        none
  39:.\arm_bitreversal2.c **** */
  40:.\arm_bitreversal2.c **** 
  41:.\arm_bitreversal2.c **** void arm_bitreversal_64(
  42:.\arm_bitreversal2.c ****         uint64_t *pSrc,
  43:.\arm_bitreversal2.c ****   const uint16_t bitRevLen,
  44:.\arm_bitreversal2.c ****   const uint16_t *pBitRevTab)
  45:.\arm_bitreversal2.c **** {
  27              		.loc 1 45 0
  28              		.cfi_startproc
  29              		@ args = 0, pretend = 0, frame = 0
  30              		@ frame_needed = 0, uses_anonymous_args = 0
  31              	.LVL0:
  32 0000 2DE9F047 		push	{r4, r5, r6, r7, r8, r9, r10, lr}
  33              		.cfi_def_cfa_offset 32
  34              		.cfi_offset 4, -32
  35              		.cfi_offset 5, -28
  36              		.cfi_offset 6, -24
  37              		.cfi_offset 7, -20
  38              		.cfi_offset 8, -16
  39              		.cfi_offset 9, -12
  40              		.cfi_offset 10, -8
  41              		.cfi_offset 14, -4
  42              	.LVL1:
  46:.\arm_bitreversal2.c ****   uint64_t a, b, i, tmp;
  47:.\arm_bitreversal2.c **** 
  48:.\arm_bitreversal2.c ****   for (i = 0; i < bitRevLen; )
  43              		.loc 1 48 0
  44 0004 0024     		movs	r4, #0
  45 0006 0025     		movs	r5, #0
  46 0008 25E0     		b	.L2
  47              	.LVL2:
  48              	.L3:
  49:.\arm_bitreversal2.c ****   {
  50:.\arm_bitreversal2.c ****      a = pBitRevTab[i    ] >> 2;
  49              		.loc 1 50 0
  50 000a 32F814E0 		ldrh	lr, [r2, r4, lsl #1]
  51 000e 4FEA9E0E 		lsr	lr, lr, #2
  52              	.LVL3:
  51:.\arm_bitreversal2.c ****      b = pBitRevTab[i + 1] >> 2;
  53              		.loc 1 51 0
  54 0012 631C     		adds	r3, r4, #1
  55 0014 32F81330 		ldrh	r3, [r2, r3, lsl #1]
  56 0018 9B08     		lsrs	r3, r3, #2
  57              	.LVL4:
  52:.\arm_bitreversal2.c **** 
  53:.\arm_bitreversal2.c ****      //real
  54:.\arm_bitreversal2.c ****      tmp = pSrc[a];
  58              		.loc 1 54 0
  59 001a 00EBCE0A 		add	r10, r0, lr, lsl #3
  60 001e DAE90089 		ldrd	r8, [r10]
ARM GAS  C:\Users\IVYLIU~1\AppData\Local\Temp\ccTZy4dw.s 			page 3


  61              	.LVL5:
  55:.\arm_bitreversal2.c ****      pSrc[a] = pSrc[b];
  62              		.loc 1 55 0
  63 0022 00EBC30C 		add	ip, r0, r3, lsl #3
  64 0026 DCE90067 		ldrd	r6, [ip]
  65 002a CAE90067 		strd	r6, [r10]
  56:.\arm_bitreversal2.c ****      pSrc[b] = tmp;
  66              		.loc 1 56 0
  67 002e CCE90089 		strd	r8, [ip]
  57:.\arm_bitreversal2.c **** 
  58:.\arm_bitreversal2.c ****      //complex
  59:.\arm_bitreversal2.c ****      tmp = pSrc[a+1];
  68              		.loc 1 59 0
  69 0032 0EF1010E 		add	lr, lr, #1
  70              	.LVL6:
  71 0036 00EBCE0E 		add	lr, r0, lr, lsl #3
  72              	.LVL7:
  73 003a DEE90089 		ldrd	r8, [lr]
  74              	.LVL8:
  60:.\arm_bitreversal2.c ****      pSrc[a+1] = pSrc[b+1];
  75              		.loc 1 60 0
  76 003e 0133     		adds	r3, r3, #1
  77              	.LVL9:
  78 0040 00EBC303 		add	r3, r0, r3, lsl #3
  79              	.LVL10:
  80 0044 D3E90067 		ldrd	r6, [r3]
  81 0048 CEE90067 		strd	r6, [lr]
  61:.\arm_bitreversal2.c ****      pSrc[b+1] = tmp;
  82              		.loc 1 61 0
  83 004c C3E90089 		strd	r8, [r3]
  62:.\arm_bitreversal2.c **** 
  63:.\arm_bitreversal2.c ****     i += 2;
  84              		.loc 1 63 0
  85 0050 0234     		adds	r4, r4, #2
  86              	.LVL11:
  87 0052 45F10005 		adc	r5, r5, #0
  88              	.LVL12:
  89              	.L2:
  48:.\arm_bitreversal2.c ****   {
  90              		.loc 1 48 0 discriminator 1
  91 0056 0027     		movs	r7, #0
  92 0058 BD42     		cmp	r5, r7
  93 005a 08BF     		it	eq
  94 005c 8C42     		cmpeq	r4, r1
  95 005e D4D3     		bcc	.L3
  64:.\arm_bitreversal2.c ****   }
  65:.\arm_bitreversal2.c **** }
  96              		.loc 1 65 0
  97 0060 BDE8F087 		pop	{r4, r5, r6, r7, r8, r9, r10, pc}
  98              		.cfi_endproc
  99              	.LFE84:
 100              		.size	arm_bitreversal_64, .-arm_bitreversal_64
 101              		.section	.text.arm_bitreversal_32,"ax",%progbits
 102              		.align	2
 103              		.global	arm_bitreversal_32
 104              		.thumb
 105              		.thumb_func
ARM GAS  C:\Users\IVYLIU~1\AppData\Local\Temp\ccTZy4dw.s 			page 4


 106              		.type	arm_bitreversal_32, %function
 107              	arm_bitreversal_32:
 108              	.LFB85:
  66:.\arm_bitreversal2.c **** 
  67:.\arm_bitreversal2.c **** /**
  68:.\arm_bitreversal2.c ****   @brief         In-place 32 bit reversal function.
  69:.\arm_bitreversal2.c ****   @param[in,out] pSrc        points to in-place buffer of unknown 32-bit data type
  70:.\arm_bitreversal2.c ****   @param[in]     bitRevLen   bit reversal table length
  71:.\arm_bitreversal2.c ****   @param[in]     pBitRevTab  points to bit reversal table
  72:.\arm_bitreversal2.c ****   @return        none
  73:.\arm_bitreversal2.c **** */
  74:.\arm_bitreversal2.c **** 
  75:.\arm_bitreversal2.c **** void arm_bitreversal_32(
  76:.\arm_bitreversal2.c ****         uint32_t *pSrc,
  77:.\arm_bitreversal2.c ****   const uint16_t bitRevLen,
  78:.\arm_bitreversal2.c ****   const uint16_t *pBitRevTab)
  79:.\arm_bitreversal2.c **** {
 109              		.loc 1 79 0
 110              		.cfi_startproc
 111              		@ args = 0, pretend = 0, frame = 0
 112              		@ frame_needed = 0, uses_anonymous_args = 0
 113              		@ link register save eliminated.
 114              	.LVL13:
 115 0000 F0B4     		push	{r4, r5, r6, r7}
 116              		.cfi_def_cfa_offset 16
 117              		.cfi_offset 4, -16
 118              		.cfi_offset 5, -12
 119              		.cfi_offset 6, -8
 120              		.cfi_offset 7, -4
 121              	.LVL14:
  80:.\arm_bitreversal2.c ****   uint32_t a, b, i, tmp;
  81:.\arm_bitreversal2.c **** 
  82:.\arm_bitreversal2.c ****   for (i = 0; i < bitRevLen; )
 122              		.loc 1 82 0
 123 0002 0025     		movs	r5, #0
 124 0004 19E0     		b	.L6
 125              	.LVL15:
 126              	.L7:
  83:.\arm_bitreversal2.c ****   {
  84:.\arm_bitreversal2.c ****      a = pBitRevTab[i    ] >> 2;
 127              		.loc 1 84 0
 128 0006 32F81540 		ldrh	r4, [r2, r5, lsl #1]
 129 000a A408     		lsrs	r4, r4, #2
 130              	.LVL16:
  85:.\arm_bitreversal2.c ****      b = pBitRevTab[i + 1] >> 2;
 131              		.loc 1 85 0
 132 000c 6B1C     		adds	r3, r5, #1
 133 000e 32F81330 		ldrh	r3, [r2, r3, lsl #1]
 134 0012 9B08     		lsrs	r3, r3, #2
 135              	.LVL17:
  86:.\arm_bitreversal2.c **** 
  87:.\arm_bitreversal2.c ****      //real
  88:.\arm_bitreversal2.c ****      tmp = pSrc[a];
 136              		.loc 1 88 0
 137 0014 50F82460 		ldr	r6, [r0, r4, lsl #2]
 138              	.LVL18:
  89:.\arm_bitreversal2.c ****      pSrc[a] = pSrc[b];
ARM GAS  C:\Users\IVYLIU~1\AppData\Local\Temp\ccTZy4dw.s 			page 5


 139              		.loc 1 89 0
 140 0018 50F82370 		ldr	r7, [r0, r3, lsl #2]
 141 001c 40F82470 		str	r7, [r0, r4, lsl #2]
  90:.\arm_bitreversal2.c ****      pSrc[b] = tmp;
 142              		.loc 1 90 0
 143 0020 40F82360 		str	r6, [r0, r3, lsl #2]
  91:.\arm_bitreversal2.c **** 
  92:.\arm_bitreversal2.c ****      //complex
  93:.\arm_bitreversal2.c ****      tmp = pSrc[a+1];
 144              		.loc 1 93 0
 145 0024 0134     		adds	r4, r4, #1
 146              	.LVL19:
 147 0026 50F82460 		ldr	r6, [r0, r4, lsl #2]
 148              	.LVL20:
  94:.\arm_bitreversal2.c ****      pSrc[a+1] = pSrc[b+1];
 149              		.loc 1 94 0
 150 002a 0133     		adds	r3, r3, #1
 151              	.LVL21:
 152 002c 50F82370 		ldr	r7, [r0, r3, lsl #2]
 153 0030 40F82470 		str	r7, [r0, r4, lsl #2]
  95:.\arm_bitreversal2.c ****      pSrc[b+1] = tmp;
 154              		.loc 1 95 0
 155 0034 40F82360 		str	r6, [r0, r3, lsl #2]
  96:.\arm_bitreversal2.c **** 
  97:.\arm_bitreversal2.c ****     i += 2;
 156              		.loc 1 97 0
 157 0038 0235     		adds	r5, r5, #2
 158              	.LVL22:
 159              	.L6:
  82:.\arm_bitreversal2.c ****   {
 160              		.loc 1 82 0 discriminator 1
 161 003a A942     		cmp	r1, r5
 162 003c E3D8     		bhi	.L7
  98:.\arm_bitreversal2.c ****   }
  99:.\arm_bitreversal2.c **** }
 163              		.loc 1 99 0
 164 003e F0BC     		pop	{r4, r5, r6, r7}
 165              		.cfi_restore 7
 166              		.cfi_restore 6
 167              		.cfi_restore 5
 168              		.cfi_restore 4
 169              		.cfi_def_cfa_offset 0
 170              	.LVL23:
 171 0040 7047     		bx	lr
 172              		.cfi_endproc
 173              	.LFE85:
 174              		.size	arm_bitreversal_32, .-arm_bitreversal_32
 175 0042 00BF     		.section	.text.arm_bitreversal_16,"ax",%progbits
 176              		.align	2
 177              		.global	arm_bitreversal_16
 178              		.thumb
 179              		.thumb_func
 180              		.type	arm_bitreversal_16, %function
 181              	arm_bitreversal_16:
 182              	.LFB86:
 100:.\arm_bitreversal2.c **** 
 101:.\arm_bitreversal2.c **** 
ARM GAS  C:\Users\IVYLIU~1\AppData\Local\Temp\ccTZy4dw.s 			page 6


 102:.\arm_bitreversal2.c **** /**
 103:.\arm_bitreversal2.c ****   @brief         In-place 16 bit reversal function.
 104:.\arm_bitreversal2.c ****   @param[in,out] pSrc        points to in-place buffer of unknown 16-bit data type
 105:.\arm_bitreversal2.c ****   @param[in]     bitRevLen   bit reversal table length
 106:.\arm_bitreversal2.c ****   @param[in]     pBitRevTab  points to bit reversal table
 107:.\arm_bitreversal2.c ****   @return        none
 108:.\arm_bitreversal2.c **** */
 109:.\arm_bitreversal2.c **** 
 110:.\arm_bitreversal2.c **** void arm_bitreversal_16(
 111:.\arm_bitreversal2.c ****         uint16_t *pSrc,
 112:.\arm_bitreversal2.c ****   const uint16_t bitRevLen,
 113:.\arm_bitreversal2.c ****   const uint16_t *pBitRevTab)
 114:.\arm_bitreversal2.c **** {
 183              		.loc 1 114 0
 184              		.cfi_startproc
 185              		@ args = 0, pretend = 0, frame = 0
 186              		@ frame_needed = 0, uses_anonymous_args = 0
 187              		@ link register save eliminated.
 188              	.LVL24:
 189 0000 F0B4     		push	{r4, r5, r6, r7}
 190              		.cfi_def_cfa_offset 16
 191              		.cfi_offset 4, -16
 192              		.cfi_offset 5, -12
 193              		.cfi_offset 6, -8
 194              		.cfi_offset 7, -4
 195              	.LVL25:
 115:.\arm_bitreversal2.c ****   uint16_t a, b, i, tmp;
 116:.\arm_bitreversal2.c **** 
 117:.\arm_bitreversal2.c ****   for (i = 0; i < bitRevLen; )
 196              		.loc 1 117 0
 197 0002 0025     		movs	r5, #0
 198 0004 1AE0     		b	.L10
 199              	.LVL26:
 200              	.L11:
 118:.\arm_bitreversal2.c ****   {
 119:.\arm_bitreversal2.c ****      a = pBitRevTab[i    ] >> 2;
 201              		.loc 1 119 0
 202 0006 32F81540 		ldrh	r4, [r2, r5, lsl #1]
 203 000a A408     		lsrs	r4, r4, #2
 204              	.LVL27:
 120:.\arm_bitreversal2.c ****      b = pBitRevTab[i + 1] >> 2;
 205              		.loc 1 120 0
 206 000c 6B1C     		adds	r3, r5, #1
 207 000e 32F81330 		ldrh	r3, [r2, r3, lsl #1]
 208 0012 9B08     		lsrs	r3, r3, #2
 209              	.LVL28:
 121:.\arm_bitreversal2.c **** 
 122:.\arm_bitreversal2.c ****      //real
 123:.\arm_bitreversal2.c ****      tmp = pSrc[a];
 210              		.loc 1 123 0
 211 0014 30F81460 		ldrh	r6, [r0, r4, lsl #1]
 212              	.LVL29:
 124:.\arm_bitreversal2.c ****      pSrc[a] = pSrc[b];
 213              		.loc 1 124 0
 214 0018 30F81370 		ldrh	r7, [r0, r3, lsl #1]
 215 001c 20F81470 		strh	r7, [r0, r4, lsl #1]	@ movhi
 125:.\arm_bitreversal2.c ****      pSrc[b] = tmp;
ARM GAS  C:\Users\IVYLIU~1\AppData\Local\Temp\ccTZy4dw.s 			page 7


 216              		.loc 1 125 0
 217 0020 20F81360 		strh	r6, [r0, r3, lsl #1]	@ movhi
 126:.\arm_bitreversal2.c **** 
 127:.\arm_bitreversal2.c ****      //complex
 128:.\arm_bitreversal2.c ****      tmp = pSrc[a+1];
 218              		.loc 1 128 0
 219 0024 0134     		adds	r4, r4, #1
 220              	.LVL30:
 221 0026 30F81460 		ldrh	r6, [r0, r4, lsl #1]
 222              	.LVL31:
 129:.\arm_bitreversal2.c ****      pSrc[a+1] = pSrc[b+1];
 223              		.loc 1 129 0
 224 002a 0133     		adds	r3, r3, #1
 225              	.LVL32:
 226 002c 30F81370 		ldrh	r7, [r0, r3, lsl #1]
 227 0030 20F81470 		strh	r7, [r0, r4, lsl #1]	@ movhi
 130:.\arm_bitreversal2.c ****      pSrc[b+1] = tmp;
 228              		.loc 1 130 0
 229 0034 20F81360 		strh	r6, [r0, r3, lsl #1]	@ movhi
 131:.\arm_bitreversal2.c **** 
 132:.\arm_bitreversal2.c ****     i += 2;
 230              		.loc 1 132 0
 231 0038 0235     		adds	r5, r5, #2
 232              	.LVL33:
 233 003a ADB2     		uxth	r5, r5
 234              	.LVL34:
 235              	.L10:
 117:.\arm_bitreversal2.c ****   {
 236              		.loc 1 117 0 discriminator 1
 237 003c 8D42     		cmp	r5, r1
 238 003e E2D3     		bcc	.L11
 133:.\arm_bitreversal2.c ****   }
 134:.\arm_bitreversal2.c **** }
 239              		.loc 1 134 0
 240 0040 F0BC     		pop	{r4, r5, r6, r7}
 241              		.cfi_restore 7
 242              		.cfi_restore 6
 243              		.cfi_restore 5
 244              		.cfi_restore 4
 245              		.cfi_def_cfa_offset 0
 246              	.LVL35:
 247 0042 7047     		bx	lr
 248              		.cfi_endproc
 249              	.LFE86:
 250              		.size	arm_bitreversal_16, .-arm_bitreversal_16
 251              		.text
 252              	.Letext0:
 253              		.file 2 "c:\\program files (x86)\\cypress\\psoc creator\\3.3\\psoc creator\\import\\gnu\\arm\\4.9.
 254              		.file 3 "c:\\program files (x86)\\cypress\\psoc creator\\3.3\\psoc creator\\import\\gnu\\arm\\4.9.
 255              		.file 4 ".\\Core\\Include/cmsis_gcc.h"