ARM GAS  C:\Users\IVYLIU~1\AppData\Local\Temp\cc2OBbnx.s 			page 1


   1              		.syntax unified
   2              		.cpu cortex-m3
   3              		.fpu softvfp
   4              		.eabi_attribute 20, 1
   5              		.eabi_attribute 21, 1
   6              		.eabi_attribute 23, 3
   7              		.eabi_attribute 24, 1
   8              		.eabi_attribute 25, 1
   9              		.eabi_attribute 26, 1
  10              		.eabi_attribute 30, 1
  11              		.eabi_attribute 34, 1
  12              		.eabi_attribute 18, 4
  13              		.thumb
  14              		.file	"arm_cfft_radix8_f32.c"
  15              		.text
  16              	.Ltext0:
  17              		.cfi_sections	.debug_frame
  18              		.global	__aeabi_fadd
  19              		.global	__aeabi_fsub
  20              		.global	__aeabi_fmul
  21              		.section	.text.arm_radix8_butterfly_f32,"ax",%progbits
  22              		.align	2
  23              		.global	arm_radix8_butterfly_f32
  24              		.thumb
  25              		.thumb_func
  26              		.type	arm_radix8_butterfly_f32, %function
  27              	arm_radix8_butterfly_f32:
  28              	.LFB84:
  29              		.file 1 ".\\arm_cfft_radix8_f32.c"
   1:.\arm_cfft_radix8_f32.c **** /* ----------------------------------------------------------------------
   2:.\arm_cfft_radix8_f32.c ****  * Project:      CMSIS DSP Library
   3:.\arm_cfft_radix8_f32.c ****  * Title:        arm_cfft_radix8_f32.c
   4:.\arm_cfft_radix8_f32.c ****  * Description:  Radix-8 Decimation in Frequency CFFT & CIFFT Floating point processing function
   5:.\arm_cfft_radix8_f32.c ****  *
   6:.\arm_cfft_radix8_f32.c ****  * $Date:        23 April 2021
   7:.\arm_cfft_radix8_f32.c ****  * $Revision:    V1.9.0
   8:.\arm_cfft_radix8_f32.c ****  *
   9:.\arm_cfft_radix8_f32.c ****  * Target Processor: Cortex-M and Cortex-A cores
  10:.\arm_cfft_radix8_f32.c ****  * -------------------------------------------------------------------- */
  11:.\arm_cfft_radix8_f32.c **** /*
  12:.\arm_cfft_radix8_f32.c ****  * Copyright (C) 2010-2021 ARM Limited or its affiliates. All rights reserved.
  13:.\arm_cfft_radix8_f32.c ****  *
  14:.\arm_cfft_radix8_f32.c ****  * SPDX-License-Identifier: Apache-2.0
  15:.\arm_cfft_radix8_f32.c ****  *
  16:.\arm_cfft_radix8_f32.c ****  * Licensed under the Apache License, Version 2.0 (the License); you may
  17:.\arm_cfft_radix8_f32.c ****  * not use this file except in compliance with the License.
  18:.\arm_cfft_radix8_f32.c ****  * You may obtain a copy of the License at
  19:.\arm_cfft_radix8_f32.c ****  *
  20:.\arm_cfft_radix8_f32.c ****  * www.apache.org/licenses/LICENSE-2.0
  21:.\arm_cfft_radix8_f32.c ****  *
  22:.\arm_cfft_radix8_f32.c ****  * Unless required by applicable law or agreed to in writing, software
  23:.\arm_cfft_radix8_f32.c ****  * distributed under the License is distributed on an AS IS BASIS, WITHOUT
  24:.\arm_cfft_radix8_f32.c ****  * WARRANTIES OR CONDITIONS OF ANY KIND, either express or implied.
  25:.\arm_cfft_radix8_f32.c ****  * See the License for the specific language governing permissions and
  26:.\arm_cfft_radix8_f32.c ****  * limitations under the License.
  27:.\arm_cfft_radix8_f32.c ****  */
  28:.\arm_cfft_radix8_f32.c **** 
ARM GAS  C:\Users\IVYLIU~1\AppData\Local\Temp\cc2OBbnx.s 			page 2


  29:.\arm_cfft_radix8_f32.c **** #include "dsp/transform_functions.h"
  30:.\arm_cfft_radix8_f32.c **** 
  31:.\arm_cfft_radix8_f32.c **** 
  32:.\arm_cfft_radix8_f32.c **** /* ----------------------------------------------------------------------
  33:.\arm_cfft_radix8_f32.c ****  * Internal helper function used by the FFTs
  34:.\arm_cfft_radix8_f32.c ****  * -------------------------------------------------------------------- */
  35:.\arm_cfft_radix8_f32.c **** 
  36:.\arm_cfft_radix8_f32.c **** /**
  37:.\arm_cfft_radix8_f32.c ****   brief         Core function for the floating-point CFFT butterfly process.
  38:.\arm_cfft_radix8_f32.c ****   param[in,out] pSrc             points to the in-place buffer of floating-point data type.
  39:.\arm_cfft_radix8_f32.c ****   param[in]     fftLen           length of the FFT.
  40:.\arm_cfft_radix8_f32.c ****   param[in]     pCoef            points to the twiddle coefficient buffer.
  41:.\arm_cfft_radix8_f32.c ****   param[in]     twidCoefModifier twiddle coefficient modifier that supports different size FFTs wit
  42:.\arm_cfft_radix8_f32.c ****   return        none
  43:.\arm_cfft_radix8_f32.c **** */
  44:.\arm_cfft_radix8_f32.c **** 
  45:.\arm_cfft_radix8_f32.c **** void arm_radix8_butterfly_f32(
  46:.\arm_cfft_radix8_f32.c ****   float32_t * pSrc,
  47:.\arm_cfft_radix8_f32.c ****   uint16_t fftLen,
  48:.\arm_cfft_radix8_f32.c ****   const float32_t * pCoef,
  49:.\arm_cfft_radix8_f32.c ****   uint16_t twidCoefModifier)
  50:.\arm_cfft_radix8_f32.c **** {
  30              		.loc 1 50 0
  31              		.cfi_startproc
  32              		@ args = 0, pretend = 0, frame = 184
  33              		@ frame_needed = 0, uses_anonymous_args = 0
  34              	.LVL0:
  35 0000 2DE9F04F 		push	{r4, r5, r6, r7, r8, r9, r10, fp, lr}
  36              		.cfi_def_cfa_offset 36
  37              		.cfi_offset 4, -36
  38              		.cfi_offset 5, -32
  39              		.cfi_offset 6, -28
  40              		.cfi_offset 7, -24
  41              		.cfi_offset 8, -20
  42              		.cfi_offset 9, -16
  43              		.cfi_offset 10, -12
  44              		.cfi_offset 11, -8
  45              		.cfi_offset 14, -4
  46 0004 AFB0     		sub	sp, sp, #188
  47              		.cfi_def_cfa_offset 224
  48 0006 2A92     		str	r2, [sp, #168]
  49 0008 2D93     		str	r3, [sp, #180]
  50              	.LVL1:
  51:.\arm_cfft_radix8_f32.c ****    uint32_t ia1, ia2, ia3, ia4, ia5, ia6, ia7;
  52:.\arm_cfft_radix8_f32.c ****    uint32_t i1, i2, i3, i4, i5, i6, i7, i8;
  53:.\arm_cfft_radix8_f32.c ****    uint32_t id;
  54:.\arm_cfft_radix8_f32.c ****    uint32_t n1, n2, j;
  55:.\arm_cfft_radix8_f32.c **** 
  56:.\arm_cfft_radix8_f32.c ****    float32_t r1, r2, r3, r4, r5, r6, r7, r8;
  57:.\arm_cfft_radix8_f32.c ****    float32_t t1, t2;
  58:.\arm_cfft_radix8_f32.c ****    float32_t s1, s2, s3, s4, s5, s6, s7, s8;
  59:.\arm_cfft_radix8_f32.c ****    float32_t p1, p2, p3, p4;
  60:.\arm_cfft_radix8_f32.c ****    float32_t co2, co3, co4, co5, co6, co7, co8;
  61:.\arm_cfft_radix8_f32.c ****    float32_t si2, si3, si4, si5, si6, si7, si8;
  62:.\arm_cfft_radix8_f32.c ****    const float32_t C81 = 0.70710678118f;
  63:.\arm_cfft_radix8_f32.c **** 
  64:.\arm_cfft_radix8_f32.c ****    n2 = fftLen;
ARM GAS  C:\Users\IVYLIU~1\AppData\Local\Temp\cc2OBbnx.s 			page 3


  51              		.loc 1 64 0
  52 000a 2691     		str	r1, [sp, #152]
  53              	.LVL2:
  54 000c 2591     		str	r1, [sp, #148]
  55 000e 8346     		mov	fp, r0
  56              	.LVL3:
  57              	.L6:
  65:.\arm_cfft_radix8_f32.c **** 
  66:.\arm_cfft_radix8_f32.c ****    do
  67:.\arm_cfft_radix8_f32.c ****    {
  68:.\arm_cfft_radix8_f32.c ****       n1 = n2;
  69:.\arm_cfft_radix8_f32.c ****       n2 = n2 >> 3;
  58              		.loc 1 69 0
  59 0010 259B     		ldr	r3, [sp, #148]
  60 0012 DE08     		lsrs	r6, r3, #3
  61              	.LVL4:
  70:.\arm_cfft_radix8_f32.c ****       i1 = 0;
  62              		.loc 1 70 0
  63 0014 0024     		movs	r4, #0
  64 0016 A146     		mov	r9, r4
  65 0018 B046     		mov	r8, r6
  66              	.LVL5:
  67              	.L2:
  71:.\arm_cfft_radix8_f32.c **** 
  72:.\arm_cfft_radix8_f32.c ****       do
  73:.\arm_cfft_radix8_f32.c ****       {
  74:.\arm_cfft_radix8_f32.c ****          i2 = i1 + n2;
  68              		.loc 1 74 0 discriminator 1
  69 001a 09EB0803 		add	r3, r9, r8
  70 001e 1F46     		mov	r7, r3
  71              	.LVL6:
  75:.\arm_cfft_radix8_f32.c ****          i3 = i2 + n2;
  72              		.loc 1 75 0 discriminator 1
  73 0020 4344     		add	r3, r3, r8
  74              	.LVL7:
  76:.\arm_cfft_radix8_f32.c ****          i4 = i3 + n2;
  75              		.loc 1 76 0 discriminator 1
  76 0022 0093     		str	r3, [sp]
  77 0024 03EB080A 		add	r10, r3, r8
  78              	.LVL8:
  77:.\arm_cfft_radix8_f32.c ****          i5 = i4 + n2;
  79              		.loc 1 77 0 discriminator 1
  80 0028 0AEB0804 		add	r4, r10, r8
  81              	.LVL9:
  78:.\arm_cfft_radix8_f32.c ****          i6 = i5 + n2;
  82              		.loc 1 78 0 discriminator 1
  83 002c 04EB0801 		add	r1, r4, r8
  84              	.LVL10:
  79:.\arm_cfft_radix8_f32.c ****          i7 = i6 + n2;
  85              		.loc 1 79 0 discriminator 1
  86 0030 0191     		str	r1, [sp, #4]
  87 0032 4144     		add	r1, r1, r8
  88              	.LVL11:
  80:.\arm_cfft_radix8_f32.c ****          i8 = i7 + n2;
  89              		.loc 1 80 0 discriminator 1
  90 0034 0291     		str	r1, [sp, #8]
  91 0036 4144     		add	r1, r1, r8
ARM GAS  C:\Users\IVYLIU~1\AppData\Local\Temp\cc2OBbnx.s 			page 4


  92              	.LVL12:
  93 0038 0391     		str	r1, [sp, #12]
  94              	.LVL13:
  81:.\arm_cfft_radix8_f32.c ****          r1 = pSrc[2 * i1] + pSrc[2 * i5];
  95              		.loc 1 81 0 discriminator 1
  96 003a 4FEAC900 		lsl	r0, r9, #3
  97 003e 0890     		str	r0, [sp, #32]
  98 0040 5BF83960 		ldr	r6, [fp, r9, lsl #3]	@ float
  99 0044 E500     		lsls	r5, r4, #3
 100 0046 0995     		str	r5, [sp, #36]
 101 0048 5BF83450 		ldr	r5, [fp, r4, lsl #3]	@ float
 102 004c 3046     		mov	r0, r6
 103 004e 2946     		mov	r1, r5
 104              	.LVL14:
 105 0050 FFF7FEFF 		bl	__aeabi_fadd
 106              	.LVL15:
 107 0054 0790     		str	r0, [sp, #28]	@ float
 108              	.LVL16:
  82:.\arm_cfft_radix8_f32.c ****          r5 = pSrc[2 * i1] - pSrc[2 * i5];
 109              		.loc 1 82 0 discriminator 1
 110 0056 3046     		mov	r0, r6
 111              	.LVL17:
 112 0058 2946     		mov	r1, r5
 113 005a FFF7FEFF 		bl	__aeabi_fsub
 114              	.LVL18:
 115 005e 0490     		str	r0, [sp, #16]	@ float
 116              	.LVL19:
  83:.\arm_cfft_radix8_f32.c ****          r2 = pSrc[2 * i2] + pSrc[2 * i6];
 117              		.loc 1 83 0 discriminator 1
 118 0060 3A46     		mov	r2, r7
 119 0062 FF00     		lsls	r7, r7, #3
 120              	.LVL20:
 121 0064 0A97     		str	r7, [sp, #40]
 122 0066 0F92     		str	r2, [sp, #60]
 123 0068 5BF83260 		ldr	r6, [fp, r2, lsl #3]	@ float
 124 006c 019D     		ldr	r5, [sp, #4]
 125 006e EF00     		lsls	r7, r5, #3
 126 0070 0B97     		str	r7, [sp, #44]
 127 0072 5BF83550 		ldr	r5, [fp, r5, lsl #3]	@ float
 128 0076 3046     		mov	r0, r6
 129              	.LVL21:
 130 0078 2946     		mov	r1, r5
 131 007a FFF7FEFF 		bl	__aeabi_fadd
 132              	.LVL22:
 133 007e 0590     		str	r0, [sp, #20]	@ float
 134              	.LVL23:
  84:.\arm_cfft_radix8_f32.c ****          r6 = pSrc[2 * i2] - pSrc[2 * i6];
 135              		.loc 1 84 0 discriminator 1
 136 0080 3046     		mov	r0, r6
 137              	.LVL24:
 138 0082 2946     		mov	r1, r5
 139 0084 FFF7FEFF 		bl	__aeabi_fsub
 140              	.LVL25:
 141 0088 1190     		str	r0, [sp, #68]	@ float
 142              	.LVL26:
  85:.\arm_cfft_radix8_f32.c ****          r3 = pSrc[2 * i3] + pSrc[2 * i7];
 143              		.loc 1 85 0 discriminator 1
ARM GAS  C:\Users\IVYLIU~1\AppData\Local\Temp\cc2OBbnx.s 			page 5


 144 008a 009B     		ldr	r3, [sp]
 145 008c DD00     		lsls	r5, r3, #3
 146 008e 0C95     		str	r5, [sp, #48]
 147 0090 5BF83370 		ldr	r7, [fp, r3, lsl #3]	@ float
 148 0094 029E     		ldr	r6, [sp, #8]
 149 0096 F300     		lsls	r3, r6, #3
 150 0098 0D93     		str	r3, [sp, #52]
 151 009a 5BF83650 		ldr	r5, [fp, r6, lsl #3]	@ float
 152 009e 3846     		mov	r0, r7
 153              	.LVL27:
 154 00a0 2946     		mov	r1, r5
 155 00a2 FFF7FEFF 		bl	__aeabi_fadd
 156              	.LVL28:
 157 00a6 1090     		str	r0, [sp, #64]	@ float
 158              	.LVL29:
  86:.\arm_cfft_radix8_f32.c ****          r7 = pSrc[2 * i3] - pSrc[2 * i7];
 159              		.loc 1 86 0 discriminator 1
 160 00a8 3846     		mov	r0, r7
 161              	.LVL30:
 162 00aa 2946     		mov	r1, r5
 163 00ac FFF7FEFF 		bl	__aeabi_fsub
 164              	.LVL31:
 165 00b0 0690     		str	r0, [sp, #24]	@ float
 166              	.LVL32:
  87:.\arm_cfft_radix8_f32.c ****          r4 = pSrc[2 * i4] + pSrc[2 * i8];
 167              		.loc 1 87 0 discriminator 1
 168 00b2 4FEACA06 		lsl	r6, r10, #3
 169 00b6 5BF83A50 		ldr	r5, [fp, r10, lsl #3]	@ float
 170 00ba 039A     		ldr	r2, [sp, #12]
 171 00bc D100     		lsls	r1, r2, #3
 172 00be 0E91     		str	r1, [sp, #56]
 173 00c0 5BF83270 		ldr	r7, [fp, r2, lsl #3]	@ float
 174 00c4 2846     		mov	r0, r5
 175              	.LVL33:
 176 00c6 3946     		mov	r1, r7
 177 00c8 FFF7FEFF 		bl	__aeabi_fadd
 178              	.LVL34:
 179 00cc 1290     		str	r0, [sp, #72]	@ float
 180              	.LVL35:
  88:.\arm_cfft_radix8_f32.c ****          r8 = pSrc[2 * i4] - pSrc[2 * i8];
 181              		.loc 1 88 0 discriminator 1
 182 00ce 2846     		mov	r0, r5
 183              	.LVL36:
 184 00d0 3946     		mov	r1, r7
 185 00d2 FFF7FEFF 		bl	__aeabi_fsub
 186              	.LVL37:
 187 00d6 1390     		str	r0, [sp, #76]	@ float
 188              	.LVL38:
  89:.\arm_cfft_radix8_f32.c ****          t1 = r1 - r3;
 189              		.loc 1 89 0 discriminator 1
 190 00d8 079D     		ldr	r5, [sp, #28]	@ float
 191 00da 2846     		mov	r0, r5
 192              	.LVL39:
 193 00dc 109F     		ldr	r7, [sp, #64]	@ float
 194 00de 3946     		mov	r1, r7
 195 00e0 FFF7FEFF 		bl	__aeabi_fsub
 196              	.LVL40:
ARM GAS  C:\Users\IVYLIU~1\AppData\Local\Temp\cc2OBbnx.s 			page 6


 197 00e4 0790     		str	r0, [sp, #28]	@ float
 198              	.LVL41:
  90:.\arm_cfft_radix8_f32.c ****          r1 = r1 + r3;
 199              		.loc 1 90 0 discriminator 1
 200 00e6 2846     		mov	r0, r5
 201              	.LVL42:
 202 00e8 3946     		mov	r1, r7
 203 00ea FFF7FEFF 		bl	__aeabi_fadd
 204              	.LVL43:
 205 00ee 0746     		mov	r7, r0
 206              	.LVL44:
  91:.\arm_cfft_radix8_f32.c ****          r3 = r2 - r4;
 207              		.loc 1 91 0 discriminator 1
 208 00f0 0598     		ldr	r0, [sp, #20]	@ float
 209              	.LVL45:
 210 00f2 129D     		ldr	r5, [sp, #72]	@ float
 211 00f4 2946     		mov	r1, r5
 212 00f6 FFF7FEFF 		bl	__aeabi_fsub
 213              	.LVL46:
 214 00fa 1290     		str	r0, [sp, #72]	@ float
 215              	.LVL47:
  92:.\arm_cfft_radix8_f32.c ****          r2 = r2 + r4;
 216              		.loc 1 92 0 discriminator 1
 217 00fc 0598     		ldr	r0, [sp, #20]	@ float
 218              	.LVL48:
 219 00fe 2946     		mov	r1, r5
 220 0100 FFF7FEFF 		bl	__aeabi_fadd
 221              	.LVL49:
 222 0104 0546     		mov	r5, r0
 223              	.LVL50:
  93:.\arm_cfft_radix8_f32.c ****          pSrc[2 * i1] = r1 + r2;
 224              		.loc 1 93 0 discriminator 1
 225 0106 3846     		mov	r0, r7
 226              	.LVL51:
 227 0108 2946     		mov	r1, r5
 228 010a FFF7FEFF 		bl	__aeabi_fadd
 229              	.LVL52:
 230 010e 4BF83900 		str	r0, [fp, r9, lsl #3]	@ float
  94:.\arm_cfft_radix8_f32.c ****          pSrc[2 * i5] = r1 - r2;
 231              		.loc 1 94 0 discriminator 1
 232 0112 3846     		mov	r0, r7
 233 0114 2946     		mov	r1, r5
 234 0116 FFF7FEFF 		bl	__aeabi_fsub
 235              	.LVL53:
 236 011a 4BF83400 		str	r0, [fp, r4, lsl #3]	@ float
  95:.\arm_cfft_radix8_f32.c ****          r1 = pSrc[2 * i1 + 1] + pSrc[2 * i5 + 1];
 237              		.loc 1 95 0 discriminator 1
 238 011e 089C     		ldr	r4, [sp, #32]
 239              	.LVL54:
 240 0120 0434     		adds	r4, r4, #4
 241 0122 1494     		str	r4, [sp, #80]
 242 0124 5BF80450 		ldr	r5, [fp, r4]	@ float
 243              	.LVL55:
 244 0128 099F     		ldr	r7, [sp, #36]
 245              	.LVL56:
 246 012a 0437     		adds	r7, r7, #4
 247 012c 5BF80740 		ldr	r4, [fp, r7]	@ float
ARM GAS  C:\Users\IVYLIU~1\AppData\Local\Temp\cc2OBbnx.s 			page 7


 248 0130 2846     		mov	r0, r5
 249 0132 2146     		mov	r1, r4
 250 0134 FFF7FEFF 		bl	__aeabi_fadd
 251              	.LVL57:
 252 0138 0590     		str	r0, [sp, #20]	@ float
 253              	.LVL58:
  96:.\arm_cfft_radix8_f32.c ****          s5 = pSrc[2 * i1 + 1] - pSrc[2 * i5 + 1];
 254              		.loc 1 96 0 discriminator 1
 255 013a 2846     		mov	r0, r5
 256              	.LVL59:
 257 013c 2146     		mov	r1, r4
 258 013e FFF7FEFF 		bl	__aeabi_fsub
 259              	.LVL60:
 260 0142 0890     		str	r0, [sp, #32]	@ float
 261              	.LVL61:
  97:.\arm_cfft_radix8_f32.c ****          r2 = pSrc[2 * i2 + 1] + pSrc[2 * i6 + 1];
 262              		.loc 1 97 0 discriminator 1
 263 0144 0A9C     		ldr	r4, [sp, #40]
 264 0146 0434     		adds	r4, r4, #4
 265 0148 1594     		str	r4, [sp, #84]
 266 014a 5BF80450 		ldr	r5, [fp, r4]	@ float
 267 014e 0B9C     		ldr	r4, [sp, #44]
 268 0150 0434     		adds	r4, r4, #4
 269 0152 1694     		str	r4, [sp, #88]
 270 0154 5BF80440 		ldr	r4, [fp, r4]	@ float
 271 0158 2846     		mov	r0, r5
 272              	.LVL62:
 273 015a 2146     		mov	r1, r4
 274 015c FFF7FEFF 		bl	__aeabi_fadd
 275              	.LVL63:
 276 0160 0990     		str	r0, [sp, #36]	@ float
 277              	.LVL64:
  98:.\arm_cfft_radix8_f32.c ****          s6 = pSrc[2 * i2 + 1] - pSrc[2 * i6 + 1];
 278              		.loc 1 98 0 discriminator 1
 279 0162 2846     		mov	r0, r5
 280              	.LVL65:
 281 0164 2146     		mov	r1, r4
 282 0166 FFF7FEFF 		bl	__aeabi_fsub
 283              	.LVL66:
 284 016a 0A90     		str	r0, [sp, #40]	@ float
 285              	.LVL67:
  99:.\arm_cfft_radix8_f32.c ****          s3 = pSrc[2 * i3 + 1] + pSrc[2 * i7 + 1];
 286              		.loc 1 99 0 discriminator 1
 287 016c 0C9D     		ldr	r5, [sp, #48]
 288 016e 0435     		adds	r5, r5, #4
 289 0170 5BF805E0 		ldr	lr, [fp, r5]	@ float
 290 0174 0D99     		ldr	r1, [sp, #52]
 291 0176 0C1D     		adds	r4, r1, #4
 292 0178 5BF804C0 		ldr	ip, [fp, r4]	@ float
 293 017c CDF830E0 		str	lr, [sp, #48]	@ float
 294 0180 7046     		mov	r0, lr
 295              	.LVL68:
 296 0182 CDF834C0 		str	ip, [sp, #52]	@ float
 297 0186 6146     		mov	r1, ip
 298 0188 FFF7FEFF 		bl	__aeabi_fadd
 299              	.LVL69:
 300 018c 0B90     		str	r0, [sp, #44]	@ float
ARM GAS  C:\Users\IVYLIU~1\AppData\Local\Temp\cc2OBbnx.s 			page 8


 301              	.LVL70:
 100:.\arm_cfft_radix8_f32.c ****          s7 = pSrc[2 * i3 + 1] - pSrc[2 * i7 + 1];
 302              		.loc 1 100 0 discriminator 1
 303 018e 0C98     		ldr	r0, [sp, #48]	@ float
 304              	.LVL71:
 305 0190 0D99     		ldr	r1, [sp, #52]	@ float
 306 0192 FFF7FEFF 		bl	__aeabi_fsub
 307              	.LVL72:
 308 0196 0C90     		str	r0, [sp, #48]	@ float
 309              	.LVL73:
 101:.\arm_cfft_radix8_f32.c ****          r4 = pSrc[2 * i4 + 1] + pSrc[2 * i8 + 1];
 310              		.loc 1 101 0 discriminator 1
 311 0198 0436     		adds	r6, r6, #4
 312 019a 5BF806E0 		ldr	lr, [fp, r6]	@ float
 313 019e 0E99     		ldr	r1, [sp, #56]
 314 01a0 0431     		adds	r1, r1, #4
 315 01a2 1791     		str	r1, [sp, #92]
 316 01a4 5BF801C0 		ldr	ip, [fp, r1]	@ float
 317 01a8 CDF838E0 		str	lr, [sp, #56]	@ float
 318 01ac 7046     		mov	r0, lr
 319              	.LVL74:
 320 01ae CDF840C0 		str	ip, [sp, #64]	@ float
 321 01b2 6146     		mov	r1, ip
 322 01b4 FFF7FEFF 		bl	__aeabi_fadd
 323              	.LVL75:
 324 01b8 0D90     		str	r0, [sp, #52]	@ float
 325              	.LVL76:
 102:.\arm_cfft_radix8_f32.c ****          s8 = pSrc[2 * i4 + 1] - pSrc[2 * i8 + 1];
 326              		.loc 1 102 0 discriminator 1
 327 01ba 0E98     		ldr	r0, [sp, #56]	@ float
 328              	.LVL77:
 329 01bc 1099     		ldr	r1, [sp, #64]	@ float
 330 01be FFF7FEFF 		bl	__aeabi_fsub
 331              	.LVL78:
 332 01c2 1090     		str	r0, [sp, #64]	@ float
 333              	.LVL79:
 103:.\arm_cfft_radix8_f32.c ****          t2 = r1 - s3;
 334              		.loc 1 103 0 discriminator 1
 335 01c4 0598     		ldr	r0, [sp, #20]	@ float
 336              	.LVL80:
 337 01c6 0B99     		ldr	r1, [sp, #44]	@ float
 338 01c8 FFF7FEFF 		bl	__aeabi_fsub
 339              	.LVL81:
 340 01cc 0E90     		str	r0, [sp, #56]	@ float
 341              	.LVL82:
 104:.\arm_cfft_radix8_f32.c ****          r1 = r1 + s3;
 342              		.loc 1 104 0 discriminator 1
 343 01ce 0598     		ldr	r0, [sp, #20]	@ float
 344              	.LVL83:
 345 01d0 0B99     		ldr	r1, [sp, #44]	@ float
 346 01d2 FFF7FEFF 		bl	__aeabi_fadd
 347              	.LVL84:
 348 01d6 0590     		str	r0, [sp, #20]	@ float
 349              	.LVL85:
 105:.\arm_cfft_radix8_f32.c ****          s3 = r2 - r4;
 350              		.loc 1 105 0 discriminator 1
 351 01d8 0998     		ldr	r0, [sp, #36]	@ float
ARM GAS  C:\Users\IVYLIU~1\AppData\Local\Temp\cc2OBbnx.s 			page 9


 352              	.LVL86:
 353 01da 0D99     		ldr	r1, [sp, #52]	@ float
 354 01dc FFF7FEFF 		bl	__aeabi_fsub
 355              	.LVL87:
 356 01e0 0B90     		str	r0, [sp, #44]	@ float
 357              	.LVL88:
 106:.\arm_cfft_radix8_f32.c ****          r2 = r2 + r4;
 358              		.loc 1 106 0 discriminator 1
 359 01e2 0998     		ldr	r0, [sp, #36]	@ float
 360              	.LVL89:
 361 01e4 0D99     		ldr	r1, [sp, #52]	@ float
 362 01e6 FFF7FEFF 		bl	__aeabi_fadd
 363              	.LVL90:
 364 01ea 8646     		mov	lr, r0
 365              	.LVL91:
 107:.\arm_cfft_radix8_f32.c ****          pSrc[2 * i1 + 1] = r1 + r2;
 366              		.loc 1 107 0 discriminator 1
 367 01ec 0598     		ldr	r0, [sp, #20]	@ float
 368              	.LVL92:
 369 01ee CDF824E0 		str	lr, [sp, #36]	@ float
 370 01f2 7146     		mov	r1, lr
 371 01f4 FFF7FEFF 		bl	__aeabi_fadd
 372              	.LVL93:
 373 01f8 1499     		ldr	r1, [sp, #80]
 374 01fa 4BF80100 		str	r0, [fp, r1]	@ float
 108:.\arm_cfft_radix8_f32.c ****          pSrc[2 * i5 + 1] = r1 - r2;
 375              		.loc 1 108 0 discriminator 1
 376 01fe 0598     		ldr	r0, [sp, #20]	@ float
 377 0200 0999     		ldr	r1, [sp, #36]	@ float
 378 0202 FFF7FEFF 		bl	__aeabi_fsub
 379              	.LVL94:
 380 0206 4BF80700 		str	r0, [fp, r7]	@ float
 109:.\arm_cfft_radix8_f32.c ****          pSrc[2 * i3]     = t1 + s3;
 381              		.loc 1 109 0 discriminator 1
 382 020a 0798     		ldr	r0, [sp, #28]	@ float
 383 020c 0B9F     		ldr	r7, [sp, #44]	@ float
 384 020e 3946     		mov	r1, r7
 385 0210 FFF7FEFF 		bl	__aeabi_fadd
 386              	.LVL95:
 387 0214 009B     		ldr	r3, [sp]
 388 0216 4BF83300 		str	r0, [fp, r3, lsl #3]	@ float
 110:.\arm_cfft_radix8_f32.c ****          pSrc[2 * i7]     = t1 - s3;
 389              		.loc 1 110 0 discriminator 1
 390 021a 0798     		ldr	r0, [sp, #28]	@ float
 391 021c 3946     		mov	r1, r7
 392 021e FFF7FEFF 		bl	__aeabi_fsub
 393              	.LVL96:
 394 0222 029B     		ldr	r3, [sp, #8]
 395 0224 4BF83300 		str	r0, [fp, r3, lsl #3]	@ float
 111:.\arm_cfft_radix8_f32.c ****          pSrc[2 * i3 + 1] = t2 - r3;
 396              		.loc 1 111 0 discriminator 1
 397 0228 0E98     		ldr	r0, [sp, #56]	@ float
 398 022a 129F     		ldr	r7, [sp, #72]	@ float
 399 022c 3946     		mov	r1, r7
 400 022e FFF7FEFF 		bl	__aeabi_fsub
 401              	.LVL97:
 402 0232 4BF80500 		str	r0, [fp, r5]	@ float
ARM GAS  C:\Users\IVYLIU~1\AppData\Local\Temp\cc2OBbnx.s 			page 10


 112:.\arm_cfft_radix8_f32.c ****          pSrc[2 * i7 + 1] = t2 + r3;
 403              		.loc 1 112 0 discriminator 1
 404 0236 0E98     		ldr	r0, [sp, #56]	@ float
 405 0238 3946     		mov	r1, r7
 406 023a FFF7FEFF 		bl	__aeabi_fadd
 407              	.LVL98:
 408 023e 4BF80400 		str	r0, [fp, r4]	@ float
 113:.\arm_cfft_radix8_f32.c ****          r1 = (r6 - r8) * C81;
 409              		.loc 1 113 0 discriminator 1
 410 0242 119D     		ldr	r5, [sp, #68]	@ float
 411 0244 2846     		mov	r0, r5
 412 0246 139C     		ldr	r4, [sp, #76]	@ float
 413 0248 2146     		mov	r1, r4
 414 024a FFF7FEFF 		bl	__aeabi_fsub
 415              	.LVL99:
 416 024e 6E49     		ldr	r1, .L8
 417 0250 FFF7FEFF 		bl	__aeabi_fmul
 418              	.LVL100:
 419 0254 0090     		str	r0, [sp]	@ float
 420              	.LVL101:
 114:.\arm_cfft_radix8_f32.c ****          r6 = (r6 + r8) * C81;
 421              		.loc 1 114 0 discriminator 1
 422 0256 2846     		mov	r0, r5
 423              	.LVL102:
 424 0258 2146     		mov	r1, r4
 425 025a FFF7FEFF 		bl	__aeabi_fadd
 426              	.LVL103:
 427 025e 6A49     		ldr	r1, .L8
 428 0260 FFF7FEFF 		bl	__aeabi_fmul
 429              	.LVL104:
 430 0264 0446     		mov	r4, r0
 431              	.LVL105:
 115:.\arm_cfft_radix8_f32.c ****          r2 = (s6 - s8) * C81;
 432              		.loc 1 115 0 discriminator 1
 433 0266 0A98     		ldr	r0, [sp, #40]	@ float
 434              	.LVL106:
 435 0268 109F     		ldr	r7, [sp, #64]	@ float
 436 026a 3946     		mov	r1, r7
 437 026c FFF7FEFF 		bl	__aeabi_fsub
 438              	.LVL107:
 439 0270 6549     		ldr	r1, .L8
 440 0272 FFF7FEFF 		bl	__aeabi_fmul
 441              	.LVL108:
 442 0276 0546     		mov	r5, r0
 443              	.LVL109:
 116:.\arm_cfft_radix8_f32.c ****          s6 = (s6 + s8) * C81;
 444              		.loc 1 116 0 discriminator 1
 445 0278 0A98     		ldr	r0, [sp, #40]	@ float
 446              	.LVL110:
 447 027a 3946     		mov	r1, r7
 448 027c FFF7FEFF 		bl	__aeabi_fadd
 449              	.LVL111:
 450 0280 6149     		ldr	r1, .L8
 451 0282 FFF7FEFF 		bl	__aeabi_fmul
 452              	.LVL112:
 453 0286 0746     		mov	r7, r0
 454              	.LVL113:
ARM GAS  C:\Users\IVYLIU~1\AppData\Local\Temp\cc2OBbnx.s 			page 11


 117:.\arm_cfft_radix8_f32.c ****          t1 = r5 - r1;
 455              		.loc 1 117 0 discriminator 1
 456 0288 0498     		ldr	r0, [sp, #16]	@ float
 457              	.LVL114:
 458 028a 0099     		ldr	r1, [sp]	@ float
 459 028c FFF7FEFF 		bl	__aeabi_fsub
 460              	.LVL115:
 461 0290 0290     		str	r0, [sp, #8]	@ float
 462              	.LVL116:
 118:.\arm_cfft_radix8_f32.c ****          r5 = r5 + r1;
 463              		.loc 1 118 0 discriminator 1
 464 0292 0498     		ldr	r0, [sp, #16]	@ float
 465              	.LVL117:
 466 0294 0099     		ldr	r1, [sp]	@ float
 467 0296 FFF7FEFF 		bl	__aeabi_fadd
 468              	.LVL118:
 469 029a 0090     		str	r0, [sp]	@ float
 470              	.LVL119:
 119:.\arm_cfft_radix8_f32.c ****          r8 = r7 - r6;
 471              		.loc 1 119 0 discriminator 1
 472 029c 0698     		ldr	r0, [sp, #24]	@ float
 473              	.LVL120:
 474 029e 2146     		mov	r1, r4
 475 02a0 FFF7FEFF 		bl	__aeabi_fsub
 476              	.LVL121:
 477 02a4 0590     		str	r0, [sp, #20]	@ float
 478              	.LVL122:
 120:.\arm_cfft_radix8_f32.c ****          r7 = r7 + r6;
 479              		.loc 1 120 0 discriminator 1
 480 02a6 0698     		ldr	r0, [sp, #24]	@ float
 481              	.LVL123:
 482 02a8 2146     		mov	r1, r4
 483 02aa FFF7FEFF 		bl	__aeabi_fadd
 484              	.LVL124:
 485 02ae 0690     		str	r0, [sp, #24]	@ float
 486              	.LVL125:
 121:.\arm_cfft_radix8_f32.c ****          t2 = s5 - r2;
 487              		.loc 1 121 0 discriminator 1
 488 02b0 0898     		ldr	r0, [sp, #32]	@ float
 489              	.LVL126:
 490 02b2 2946     		mov	r1, r5
 491 02b4 FFF7FEFF 		bl	__aeabi_fsub
 492              	.LVL127:
 493 02b8 0446     		mov	r4, r0
 494              	.LVL128:
 122:.\arm_cfft_radix8_f32.c ****          s5 = s5 + r2;
 495              		.loc 1 122 0 discriminator 1
 496 02ba 0898     		ldr	r0, [sp, #32]	@ float
 497              	.LVL129:
 498 02bc 2946     		mov	r1, r5
 499 02be FFF7FEFF 		bl	__aeabi_fadd
 500              	.LVL130:
 501 02c2 0546     		mov	r5, r0
 502              	.LVL131:
 123:.\arm_cfft_radix8_f32.c ****          s8 = s7 - s6;
 503              		.loc 1 123 0 discriminator 1
 504 02c4 0C98     		ldr	r0, [sp, #48]	@ float
ARM GAS  C:\Users\IVYLIU~1\AppData\Local\Temp\cc2OBbnx.s 			page 12


 505              	.LVL132:
 506 02c6 3946     		mov	r1, r7
 507 02c8 FFF7FEFF 		bl	__aeabi_fsub
 508              	.LVL133:
 509 02cc 0490     		str	r0, [sp, #16]	@ float
 510              	.LVL134:
 124:.\arm_cfft_radix8_f32.c ****          s7 = s7 + s6;
 511              		.loc 1 124 0 discriminator 1
 512 02ce 0C98     		ldr	r0, [sp, #48]	@ float
 513              	.LVL135:
 514 02d0 3946     		mov	r1, r7
 515 02d2 FFF7FEFF 		bl	__aeabi_fadd
 516              	.LVL136:
 517 02d6 0746     		mov	r7, r0
 518              	.LVL137:
 125:.\arm_cfft_radix8_f32.c ****          pSrc[2 * i2]     = r5 + s7;
 519              		.loc 1 125 0 discriminator 1
 520 02d8 0098     		ldr	r0, [sp]	@ float
 521              	.LVL138:
 522 02da 3946     		mov	r1, r7
 523 02dc FFF7FEFF 		bl	__aeabi_fadd
 524              	.LVL139:
 525 02e0 0F99     		ldr	r1, [sp, #60]
 526 02e2 4BF83100 		str	r0, [fp, r1, lsl #3]	@ float
 126:.\arm_cfft_radix8_f32.c ****          pSrc[2 * i8]     = r5 - s7;
 527              		.loc 1 126 0 discriminator 1
 528 02e6 0098     		ldr	r0, [sp]	@ float
 529 02e8 3946     		mov	r1, r7
 530 02ea FFF7FEFF 		bl	__aeabi_fsub
 531              	.LVL140:
 532 02ee 039A     		ldr	r2, [sp, #12]
 533 02f0 4BF83200 		str	r0, [fp, r2, lsl #3]	@ float
 127:.\arm_cfft_radix8_f32.c ****          pSrc[2 * i6]     = t1 + s8;
 534              		.loc 1 127 0 discriminator 1
 535 02f4 0298     		ldr	r0, [sp, #8]	@ float
 536 02f6 0499     		ldr	r1, [sp, #16]	@ float
 537 02f8 FFF7FEFF 		bl	__aeabi_fadd
 538              	.LVL141:
 539 02fc 019F     		ldr	r7, [sp, #4]
 540              	.LVL142:
 541 02fe 4BF83700 		str	r0, [fp, r7, lsl #3]	@ float
 128:.\arm_cfft_radix8_f32.c ****          pSrc[2 * i4]     = t1 - s8;
 542              		.loc 1 128 0 discriminator 1
 543 0302 0298     		ldr	r0, [sp, #8]	@ float
 544 0304 0499     		ldr	r1, [sp, #16]	@ float
 545 0306 FFF7FEFF 		bl	__aeabi_fsub
 546              	.LVL143:
 547 030a 4BF83A00 		str	r0, [fp, r10, lsl #3]	@ float
 129:.\arm_cfft_radix8_f32.c ****          pSrc[2 * i2 + 1] = s5 - r7;
 548              		.loc 1 129 0 discriminator 1
 549 030e 2846     		mov	r0, r5
 550 0310 069F     		ldr	r7, [sp, #24]	@ float
 551 0312 3946     		mov	r1, r7
 552 0314 FFF7FEFF 		bl	__aeabi_fsub
 553              	.LVL144:
 554 0318 159B     		ldr	r3, [sp, #84]
 555 031a 4BF80300 		str	r0, [fp, r3]	@ float
ARM GAS  C:\Users\IVYLIU~1\AppData\Local\Temp\cc2OBbnx.s 			page 13


 130:.\arm_cfft_radix8_f32.c ****          pSrc[2 * i8 + 1] = s5 + r7;
 556              		.loc 1 130 0 discriminator 1
 557 031e 2846     		mov	r0, r5
 558 0320 3946     		mov	r1, r7
 559 0322 FFF7FEFF 		bl	__aeabi_fadd
 560              	.LVL145:
 561 0326 1799     		ldr	r1, [sp, #92]
 562 0328 4BF80100 		str	r0, [fp, r1]	@ float
 131:.\arm_cfft_radix8_f32.c ****          pSrc[2 * i6 + 1] = t2 - r8;
 563              		.loc 1 131 0 discriminator 1
 564 032c 2046     		mov	r0, r4
 565 032e 059D     		ldr	r5, [sp, #20]	@ float
 566              	.LVL146:
 567 0330 2946     		mov	r1, r5
 568 0332 FFF7FEFF 		bl	__aeabi_fsub
 569              	.LVL147:
 570 0336 169B     		ldr	r3, [sp, #88]
 571 0338 4BF80300 		str	r0, [fp, r3]	@ float
 132:.\arm_cfft_radix8_f32.c ****          pSrc[2 * i4 + 1] = t2 + r8;
 572              		.loc 1 132 0 discriminator 1
 573 033c 2046     		mov	r0, r4
 574 033e 2946     		mov	r1, r5
 575 0340 FFF7FEFF 		bl	__aeabi_fadd
 576              	.LVL148:
 577 0344 4BF80600 		str	r0, [fp, r6]	@ float
 133:.\arm_cfft_radix8_f32.c **** 
 134:.\arm_cfft_radix8_f32.c ****          i1 += n1;
 578              		.loc 1 134 0 discriminator 1
 579 0348 259B     		ldr	r3, [sp, #148]
 580 034a 9944     		add	r9, r9, r3
 581              	.LVL149:
 135:.\arm_cfft_radix8_f32.c ****       } while (i1 < fftLen);
 582              		.loc 1 135 0 discriminator 1
 583 034c 269B     		ldr	r3, [sp, #152]
 584 034e 4B45     		cmp	r3, r9
 585 0350 3FF663AE 		bhi	.L2
 586 0354 4646     		mov	r6, r8
 136:.\arm_cfft_radix8_f32.c **** 
 137:.\arm_cfft_radix8_f32.c ****       if (n2 < 8)
 587              		.loc 1 137 0
 588 0356 072E     		cmp	r6, #7
 589 0358 40F2D482 		bls	.L1
 590              	.LVL150:
 591 035c 0123     		movs	r3, #1
 592 035e 2C93     		str	r3, [sp, #176]
 593 0360 0023     		movs	r3, #0
 594 0362 2B93     		str	r3, [sp, #172]
 595 0364 5C46     		mov	r4, fp
 596              	.LVL151:
 597 0366 C346     		mov	fp, r8
 598              	.LVL152:
 599              	.L5:
 138:.\arm_cfft_radix8_f32.c ****          break;
 139:.\arm_cfft_radix8_f32.c **** 
 140:.\arm_cfft_radix8_f32.c ****       ia1 = 0;
 141:.\arm_cfft_radix8_f32.c ****       j = 1;
 142:.\arm_cfft_radix8_f32.c **** 
ARM GAS  C:\Users\IVYLIU~1\AppData\Local\Temp\cc2OBbnx.s 			page 14


 143:.\arm_cfft_radix8_f32.c ****       do
 144:.\arm_cfft_radix8_f32.c ****       {
 145:.\arm_cfft_radix8_f32.c ****          /*  index calculation for the coefficients */
 146:.\arm_cfft_radix8_f32.c ****          id  = ia1 + twidCoefModifier;
 600              		.loc 1 146 0
 601 0368 2B9B     		ldr	r3, [sp, #172]
 602 036a 2D9A     		ldr	r2, [sp, #180]
 603 036c 1344     		add	r3, r3, r2
 604 036e 1D46     		mov	r5, r3
 605 0370 2B93     		str	r3, [sp, #172]
 606              	.LVL153:
 147:.\arm_cfft_radix8_f32.c ****          ia1 = id;
 148:.\arm_cfft_radix8_f32.c ****          ia2 = ia1 + id;
 149:.\arm_cfft_radix8_f32.c ****          ia3 = ia2 + id;
 607              		.loc 1 149 0
 608 0372 03EB4300 		add	r0, r3, r3, lsl #1
 609              	.LVL154:
 150:.\arm_cfft_radix8_f32.c ****          ia4 = ia3 + id;
 610              		.loc 1 150 0
 611 0376 C118     		adds	r1, r0, r3
 612              	.LVL155:
 151:.\arm_cfft_radix8_f32.c ****          ia5 = ia4 + id;
 613              		.loc 1 151 0
 614 0378 CA18     		adds	r2, r1, r3
 615              	.LVL156:
 152:.\arm_cfft_radix8_f32.c ****          ia6 = ia5 + id;
 616              		.loc 1 152 0
 617 037a D318     		adds	r3, r2, r3
 618              	.LVL157:
 153:.\arm_cfft_radix8_f32.c ****          ia7 = ia6 + id;
 619              		.loc 1 153 0
 620 037c 5F19     		adds	r7, r3, r5
 621              	.LVL158:
 154:.\arm_cfft_radix8_f32.c **** 
 155:.\arm_cfft_radix8_f32.c ****          co2 = pCoef[2 * ia1];
 622              		.loc 1 155 0
 623 037e 2A9E     		ldr	r6, [sp, #168]
 624 0380 2B9D     		ldr	r5, [sp, #172]
 625 0382 56F835E0 		ldr	lr, [r6, r5, lsl #3]	@ float
 626 0386 CDF848E0 		str	lr, [sp, #72]	@ float
 627              	.LVL159:
 156:.\arm_cfft_radix8_f32.c ****          co3 = pCoef[2 * ia2];
 628              		.loc 1 156 0
 629 038a 2D01     		lsls	r5, r5, #4
 630              	.LVL160:
 631 038c 56F805E0 		ldr	lr, [r6, r5]	@ float
 632              	.LVL161:
 633 0390 CDF84CE0 		str	lr, [sp, #76]	@ float
 634              	.LVL162:
 157:.\arm_cfft_radix8_f32.c ****          co4 = pCoef[2 * ia3];
 635              		.loc 1 157 0
 636 0394 56F830E0 		ldr	lr, [r6, r0, lsl #3]	@ float
 637              	.LVL163:
 638 0398 CDF89CE0 		str	lr, [sp, #156]	@ float
 639              	.LVL164:
 158:.\arm_cfft_radix8_f32.c ****          co5 = pCoef[2 * ia4];
 640              		.loc 1 158 0
ARM GAS  C:\Users\IVYLIU~1\AppData\Local\Temp\cc2OBbnx.s 			page 15


 641 039c 56F831E0 		ldr	lr, [r6, r1, lsl #3]	@ float
 642              	.LVL165:
 643 03a0 CDF850E0 		str	lr, [sp, #80]	@ float
 644              	.LVL166:
 159:.\arm_cfft_radix8_f32.c ****          co6 = pCoef[2 * ia5];
 645              		.loc 1 159 0
 646 03a4 56F832E0 		ldr	lr, [r6, r2, lsl #3]	@ float
 647              	.LVL167:
 648 03a8 CDF854E0 		str	lr, [sp, #84]	@ float
 649              	.LVL168:
 160:.\arm_cfft_radix8_f32.c ****          co7 = pCoef[2 * ia6];
 650              		.loc 1 160 0
 651 03ac 56F833E0 		ldr	lr, [r6, r3, lsl #3]	@ float
 652              	.LVL169:
 653 03b0 CDF858E0 		str	lr, [sp, #88]	@ float
 654              	.LVL170:
 161:.\arm_cfft_radix8_f32.c ****          co8 = pCoef[2 * ia7];
 655              		.loc 1 161 0
 656 03b4 56F837E0 		ldr	lr, [r6, r7, lsl #3]	@ float
 657              	.LVL171:
 658 03b8 CDF85CE0 		str	lr, [sp, #92]	@ float
 659              	.LVL172:
 162:.\arm_cfft_radix8_f32.c ****          si2 = pCoef[2 * ia1 + 1];
 660              		.loc 1 162 0
 661 03bc B646     		mov	lr, r6
 662              	.LVL173:
 663 03be 2B9E     		ldr	r6, [sp, #172]
 664              	.LVL174:
 665 03c0 0EEBC606 		add	r6, lr, r6, lsl #3
 666 03c4 D6F804E0 		ldr	lr, [r6, #4]	@ float
 667              	.LVL175:
 668 03c8 CDF860E0 		str	lr, [sp, #96]	@ float
 669              	.LVL176:
 163:.\arm_cfft_radix8_f32.c ****          si3 = pCoef[2 * ia2 + 1];
 670              		.loc 1 163 0
 671 03cc 0435     		adds	r5, r5, #4
 672 03ce 2A9E     		ldr	r6, [sp, #168]
 673 03d0 56F805E0 		ldr	lr, [r6, r5]	@ float
 674              	.LVL177:
 675 03d4 CDF864E0 		str	lr, [sp, #100]	@ float
 676              	.LVL178:
 164:.\arm_cfft_radix8_f32.c ****          si4 = pCoef[2 * ia3 + 1];
 677              		.loc 1 164 0
 678 03d8 06EBC000 		add	r0, r6, r0, lsl #3
 679              	.LVL179:
 680 03dc 4068     		ldr	r0, [r0, #4]	@ float
 681              	.LVL180:
 682 03de 1A90     		str	r0, [sp, #104]	@ float
 683              	.LVL181:
 165:.\arm_cfft_radix8_f32.c ****          si5 = pCoef[2 * ia4 + 1];
 684              		.loc 1 165 0
 685 03e0 06EBC101 		add	r1, r6, r1, lsl #3
 686              	.LVL182:
 687 03e4 4968     		ldr	r1, [r1, #4]	@ float
 688 03e6 1B91     		str	r1, [sp, #108]	@ float
 689              	.LVL183:
 166:.\arm_cfft_radix8_f32.c ****          si6 = pCoef[2 * ia5 + 1];
ARM GAS  C:\Users\IVYLIU~1\AppData\Local\Temp\cc2OBbnx.s 			page 16


 690              		.loc 1 166 0
 691 03e8 06EBC202 		add	r2, r6, r2, lsl #3
 692              	.LVL184:
 693 03ec 5268     		ldr	r2, [r2, #4]	@ float
 694 03ee 2892     		str	r2, [sp, #160]	@ float
 695              	.LVL185:
 167:.\arm_cfft_radix8_f32.c ****          si7 = pCoef[2 * ia6 + 1];
 696              		.loc 1 167 0
 697 03f0 06EBC303 		add	r3, r6, r3, lsl #3
 698              	.LVL186:
 699 03f4 5B68     		ldr	r3, [r3, #4]	@ float
 700 03f6 2993     		str	r3, [sp, #164]	@ float
 701              	.LVL187:
 168:.\arm_cfft_radix8_f32.c ****          si8 = pCoef[2 * ia7 + 1];
 702              		.loc 1 168 0
 703 03f8 06EBC703 		add	r3, r6, r7, lsl #3
 704              	.LVL188:
 705 03fc 5B68     		ldr	r3, [r3, #4]	@ float
 706 03fe 1C93     		str	r3, [sp, #112]	@ float
 707              	.LVL189:
 169:.\arm_cfft_radix8_f32.c **** 
 170:.\arm_cfft_radix8_f32.c ****          i1 = j;
 708              		.loc 1 170 0
 709 0400 2C9D     		ldr	r5, [sp, #176]
 710 0402 D946     		mov	r9, fp
 711 0404 AB46     		mov	fp, r5
 712 0406 01E0     		b	.L9
 713              	.L10:
 714              		.align	2
 715              	.L8:
 716 0408 F304353F 		.word	1060439283
 717              	.L9:
 718              	.LVL190:
 719              	.L4:
 171:.\arm_cfft_radix8_f32.c **** 
 172:.\arm_cfft_radix8_f32.c ****          do
 173:.\arm_cfft_radix8_f32.c ****          {
 174:.\arm_cfft_radix8_f32.c ****             /*  index calculation for the input */
 175:.\arm_cfft_radix8_f32.c ****             i2 = i1 + n2;
 720              		.loc 1 175 0 discriminator 1
 721 040c 0BEB0903 		add	r3, fp, r9
 722              	.LVL191:
 176:.\arm_cfft_radix8_f32.c ****             i3 = i2 + n2;
 723              		.loc 1 176 0 discriminator 1
 724 0410 0093     		str	r3, [sp]
 725 0412 03EB0901 		add	r1, r3, r9
 726              	.LVL192:
 177:.\arm_cfft_radix8_f32.c ****             i4 = i3 + n2;
 727              		.loc 1 177 0 discriminator 1
 728 0416 0191     		str	r1, [sp, #4]
 729 0418 4944     		add	r1, r1, r9
 730              	.LVL193:
 178:.\arm_cfft_radix8_f32.c ****             i5 = i4 + n2;
 731              		.loc 1 178 0 discriminator 1
 732 041a 0291     		str	r1, [sp, #8]
 733 041c 01EB0906 		add	r6, r1, r9
 734              	.LVL194:
ARM GAS  C:\Users\IVYLIU~1\AppData\Local\Temp\cc2OBbnx.s 			page 17


 179:.\arm_cfft_radix8_f32.c ****             i6 = i5 + n2;
 735              		.loc 1 179 0 discriminator 1
 736 0420 3746     		mov	r7, r6
 737 0422 4F44     		add	r7, r7, r9
 738              	.LVL195:
 180:.\arm_cfft_radix8_f32.c ****             i7 = i6 + n2;
 739              		.loc 1 180 0 discriminator 1
 740 0424 0397     		str	r7, [sp, #12]
 741 0426 07EB0900 		add	r0, r7, r9
 742              	.LVL196:
 181:.\arm_cfft_radix8_f32.c ****             i8 = i7 + n2;
 743              		.loc 1 181 0 discriminator 1
 744 042a 0490     		str	r0, [sp, #16]
 745 042c 4844     		add	r0, r0, r9
 746              	.LVL197:
 747 042e 0590     		str	r0, [sp, #20]
 748              	.LVL198:
 182:.\arm_cfft_radix8_f32.c ****             r1 = pSrc[2 * i1] + pSrc[2 * i5];
 749              		.loc 1 182 0 discriminator 1
 750 0430 4FEACB05 		lsl	r5, fp, #3
 751 0434 54F83B70 		ldr	r7, [r4, fp, lsl #3]	@ float
 752              	.LVL199:
 753 0438 4FEAC608 		lsl	r8, r6, #3
 754 043c 1D96     		str	r6, [sp, #116]
 755 043e 54F83660 		ldr	r6, [r4, r6, lsl #3]	@ float
 756              	.LVL200:
 757 0442 3846     		mov	r0, r7
 758              	.LVL201:
 759 0444 3146     		mov	r1, r6
 760              	.LVL202:
 761 0446 FFF7FEFF 		bl	__aeabi_fadd
 762              	.LVL203:
 763 044a 0990     		str	r0, [sp, #36]	@ float
 764              	.LVL204:
 183:.\arm_cfft_radix8_f32.c ****             r5 = pSrc[2 * i1] - pSrc[2 * i5];
 765              		.loc 1 183 0 discriminator 1
 766 044c 3846     		mov	r0, r7
 767              	.LVL205:
 768 044e 3146     		mov	r1, r6
 769 0450 FFF7FEFF 		bl	__aeabi_fsub
 770              	.LVL206:
 771 0454 0690     		str	r0, [sp, #24]	@ float
 772              	.LVL207:
 184:.\arm_cfft_radix8_f32.c ****             r2 = pSrc[2 * i2] + pSrc[2 * i6];
 773              		.loc 1 184 0 discriminator 1
 774 0456 009A     		ldr	r2, [sp]
 775 0458 D300     		lsls	r3, r2, #3
 776 045a 0D93     		str	r3, [sp, #52]
 777 045c 54F83270 		ldr	r7, [r4, r2, lsl #3]	@ float
 778 0460 039E     		ldr	r6, [sp, #12]
 779 0462 F300     		lsls	r3, r6, #3
 780 0464 0E93     		str	r3, [sp, #56]
 781 0466 54F83660 		ldr	r6, [r4, r6, lsl #3]	@ float
 782 046a 3846     		mov	r0, r7
 783              	.LVL208:
 784 046c 3146     		mov	r1, r6
 785 046e FFF7FEFF 		bl	__aeabi_fadd
ARM GAS  C:\Users\IVYLIU~1\AppData\Local\Temp\cc2OBbnx.s 			page 18


 786              	.LVL209:
 787 0472 0790     		str	r0, [sp, #28]	@ float
 788              	.LVL210:
 185:.\arm_cfft_radix8_f32.c ****             r6 = pSrc[2 * i2] - pSrc[2 * i6];
 789              		.loc 1 185 0 discriminator 1
 790 0474 3846     		mov	r0, r7
 791              	.LVL211:
 792 0476 3146     		mov	r1, r6
 793 0478 FFF7FEFF 		bl	__aeabi_fsub
 794              	.LVL212:
 795 047c 1F90     		str	r0, [sp, #124]	@ float
 796              	.LVL213:
 186:.\arm_cfft_radix8_f32.c ****             r3 = pSrc[2 * i3] + pSrc[2 * i7];
 797              		.loc 1 186 0 discriminator 1
 798 047e 019B     		ldr	r3, [sp, #4]
 799 0480 DF00     		lsls	r7, r3, #3
 800 0482 0F97     		str	r7, [sp, #60]
 801 0484 54F833A0 		ldr	r10, [r4, r3, lsl #3]	@ float
 802 0488 049F     		ldr	r7, [sp, #16]
 803 048a F900     		lsls	r1, r7, #3
 804 048c 1091     		str	r1, [sp, #64]
 805 048e 54F83760 		ldr	r6, [r4, r7, lsl #3]	@ float
 806 0492 5046     		mov	r0, r10
 807              	.LVL214:
 808 0494 3146     		mov	r1, r6
 809 0496 FFF7FEFF 		bl	__aeabi_fadd
 810              	.LVL215:
 811 049a 0A90     		str	r0, [sp, #40]	@ float
 812              	.LVL216:
 187:.\arm_cfft_radix8_f32.c ****             r7 = pSrc[2 * i3] - pSrc[2 * i7];
 813              		.loc 1 187 0 discriminator 1
 814 049c 5046     		mov	r0, r10
 815              	.LVL217:
 816 049e 3146     		mov	r1, r6
 817 04a0 FFF7FEFF 		bl	__aeabi_fsub
 818              	.LVL218:
 819 04a4 0890     		str	r0, [sp, #32]	@ float
 820              	.LVL219:
 188:.\arm_cfft_radix8_f32.c ****             r4 = pSrc[2 * i4] + pSrc[2 * i8];
 821              		.loc 1 188 0 discriminator 1
 822 04a6 0299     		ldr	r1, [sp, #8]
 823 04a8 CF00     		lsls	r7, r1, #3
 824 04aa 54F83160 		ldr	r6, [r4, r1, lsl #3]	@ float
 825 04ae 059A     		ldr	r2, [sp, #20]
 826 04b0 D100     		lsls	r1, r2, #3
 827 04b2 1191     		str	r1, [sp, #68]
 828 04b4 54F832A0 		ldr	r10, [r4, r2, lsl #3]	@ float
 829 04b8 3046     		mov	r0, r6
 830              	.LVL220:
 831 04ba 5146     		mov	r1, r10
 832 04bc FFF7FEFF 		bl	__aeabi_fadd
 833              	.LVL221:
 834 04c0 0B90     		str	r0, [sp, #44]	@ float
 835              	.LVL222:
 189:.\arm_cfft_radix8_f32.c ****             r8 = pSrc[2 * i4] - pSrc[2 * i8];
 836              		.loc 1 189 0 discriminator 1
 837 04c2 3046     		mov	r0, r6
ARM GAS  C:\Users\IVYLIU~1\AppData\Local\Temp\cc2OBbnx.s 			page 19


 838              	.LVL223:
 839 04c4 5146     		mov	r1, r10
 840 04c6 FFF7FEFF 		bl	__aeabi_fsub
 841              	.LVL224:
 842 04ca 2090     		str	r0, [sp, #128]	@ float
 843              	.LVL225:
 190:.\arm_cfft_radix8_f32.c ****             t1 = r1 - r3;
 844              		.loc 1 190 0 discriminator 1
 845 04cc 099E     		ldr	r6, [sp, #36]	@ float
 846 04ce 3046     		mov	r0, r6
 847              	.LVL226:
 848 04d0 DDF828A0 		ldr	r10, [sp, #40]	@ float
 849 04d4 5146     		mov	r1, r10
 850 04d6 FFF7FEFF 		bl	__aeabi_fsub
 851              	.LVL227:
 852 04da 0990     		str	r0, [sp, #36]	@ float
 853              	.LVL228:
 191:.\arm_cfft_radix8_f32.c ****             r1 = r1 + r3;
 854              		.loc 1 191 0 discriminator 1
 855 04dc 3046     		mov	r0, r6
 856              	.LVL229:
 857 04de 5146     		mov	r1, r10
 858 04e0 FFF7FEFF 		bl	__aeabi_fadd
 859              	.LVL230:
 860 04e4 8246     		mov	r10, r0
 861              	.LVL231:
 192:.\arm_cfft_radix8_f32.c ****             r3 = r2 - r4;
 862              		.loc 1 192 0 discriminator 1
 863 04e6 0798     		ldr	r0, [sp, #28]	@ float
 864              	.LVL232:
 865 04e8 0B9E     		ldr	r6, [sp, #44]	@ float
 866 04ea 3146     		mov	r1, r6
 867 04ec FFF7FEFF 		bl	__aeabi_fsub
 868              	.LVL233:
 869 04f0 0A90     		str	r0, [sp, #40]	@ float
 870              	.LVL234:
 193:.\arm_cfft_radix8_f32.c ****             r2 = r2 + r4;
 871              		.loc 1 193 0 discriminator 1
 872 04f2 0798     		ldr	r0, [sp, #28]	@ float
 873              	.LVL235:
 874 04f4 3146     		mov	r1, r6
 875 04f6 FFF7FEFF 		bl	__aeabi_fadd
 876              	.LVL236:
 877 04fa 0646     		mov	r6, r0
 878              	.LVL237:
 194:.\arm_cfft_radix8_f32.c ****             pSrc[2 * i1] = r1 + r2;
 879              		.loc 1 194 0 discriminator 1
 880 04fc 5046     		mov	r0, r10
 881              	.LVL238:
 882 04fe 3146     		mov	r1, r6
 883 0500 FFF7FEFF 		bl	__aeabi_fadd
 884              	.LVL239:
 885 0504 44F83B00 		str	r0, [r4, fp, lsl #3]	@ float
 195:.\arm_cfft_radix8_f32.c ****             r2 = r1 - r2;
 886              		.loc 1 195 0 discriminator 1
 887 0508 5046     		mov	r0, r10
 888 050a 3146     		mov	r1, r6
ARM GAS  C:\Users\IVYLIU~1\AppData\Local\Temp\cc2OBbnx.s 			page 20


 889 050c FFF7FEFF 		bl	__aeabi_fsub
 890              	.LVL240:
 891 0510 0790     		str	r0, [sp, #28]	@ float
 892              	.LVL241:
 196:.\arm_cfft_radix8_f32.c ****             s1 = pSrc[2 * i1 + 1] + pSrc[2 * i5 + 1];
 893              		.loc 1 196 0 discriminator 1
 894 0512 0435     		adds	r5, r5, #4
 895 0514 6659     		ldr	r6, [r4, r5]	@ float
 896 0516 08F1040E 		add	lr, r8, #4
 897 051a CDF884E0 		str	lr, [sp, #132]
 898 051e 54F80E80 		ldr	r8, [r4, lr]	@ float
 899 0522 3046     		mov	r0, r6
 900              	.LVL242:
 901 0524 4146     		mov	r1, r8
 902 0526 FFF7FEFF 		bl	__aeabi_fadd
 903              	.LVL243:
 904 052a 0B90     		str	r0, [sp, #44]	@ float
 905              	.LVL244:
 197:.\arm_cfft_radix8_f32.c ****             s5 = pSrc[2 * i1 + 1] - pSrc[2 * i5 + 1];
 906              		.loc 1 197 0 discriminator 1
 907 052c 3046     		mov	r0, r6
 908              	.LVL245:
 909 052e 4146     		mov	r1, r8
 910 0530 FFF7FEFF 		bl	__aeabi_fsub
 911              	.LVL246:
 912 0534 0C90     		str	r0, [sp, #48]	@ float
 913              	.LVL247:
 198:.\arm_cfft_radix8_f32.c ****             s2 = pSrc[2 * i2 + 1] + pSrc[2 * i6 + 1];
 914              		.loc 1 198 0 discriminator 1
 915 0536 0D9B     		ldr	r3, [sp, #52]
 916 0538 1E1D     		adds	r6, r3, #4
 917 053a 2296     		str	r6, [sp, #136]
 918 053c 54F80680 		ldr	r8, [r4, r6]	@ float
 919 0540 0E9B     		ldr	r3, [sp, #56]
 920 0542 1E1D     		adds	r6, r3, #4
 921 0544 54F806A0 		ldr	r10, [r4, r6]	@ float
 922              	.LVL248:
 923 0548 4046     		mov	r0, r8
 924              	.LVL249:
 925 054a 5146     		mov	r1, r10
 926 054c FFF7FEFF 		bl	__aeabi_fadd
 927              	.LVL250:
 928 0550 0D90     		str	r0, [sp, #52]	@ float
 929              	.LVL251:
 199:.\arm_cfft_radix8_f32.c ****             s6 = pSrc[2 * i2 + 1] - pSrc[2 * i6 + 1];
 930              		.loc 1 199 0 discriminator 1
 931 0552 4046     		mov	r0, r8
 932              	.LVL252:
 933 0554 5146     		mov	r1, r10
 934 0556 FFF7FEFF 		bl	__aeabi_fsub
 935              	.LVL253:
 936 055a 0E90     		str	r0, [sp, #56]	@ float
 937              	.LVL254:
 200:.\arm_cfft_radix8_f32.c ****             s3 = pSrc[2 * i3 + 1] + pSrc[2 * i7 + 1];
 938              		.loc 1 200 0 discriminator 1
 939 055c 0F9B     		ldr	r3, [sp, #60]
 940 055e 0433     		adds	r3, r3, #4
ARM GAS  C:\Users\IVYLIU~1\AppData\Local\Temp\cc2OBbnx.s 			page 21


 941 0560 2393     		str	r3, [sp, #140]
 942 0562 54F80380 		ldr	r8, [r4, r3]	@ float
 943 0566 1099     		ldr	r1, [sp, #64]
 944 0568 0A1D     		adds	r2, r1, #4
 945 056a 2492     		str	r2, [sp, #144]
 946 056c 54F802A0 		ldr	r10, [r4, r2]	@ float
 947 0570 4046     		mov	r0, r8
 948              	.LVL255:
 949 0572 5146     		mov	r1, r10
 950 0574 FFF7FEFF 		bl	__aeabi_fadd
 951              	.LVL256:
 952 0578 0F90     		str	r0, [sp, #60]	@ float
 953              	.LVL257:
 201:.\arm_cfft_radix8_f32.c ****             s7 = pSrc[2 * i3 + 1] - pSrc[2 * i7 + 1];
 954              		.loc 1 201 0 discriminator 1
 955 057a 4046     		mov	r0, r8
 956              	.LVL258:
 957 057c 5146     		mov	r1, r10
 958 057e FFF7FEFF 		bl	__aeabi_fsub
 959              	.LVL259:
 960 0582 1090     		str	r0, [sp, #64]	@ float
 961              	.LVL260:
 202:.\arm_cfft_radix8_f32.c ****             s4 = pSrc[2 * i4 + 1] + pSrc[2 * i8 + 1];
 962              		.loc 1 202 0 discriminator 1
 963 0584 0437     		adds	r7, r7, #4
 964 0586 54F807A0 		ldr	r10, [r4, r7]	@ float
 965 058a 1199     		ldr	r1, [sp, #68]
 966 058c 01F10408 		add	r8, r1, #4
 967 0590 54F808E0 		ldr	lr, [r4, r8]	@ float
 968 0594 5046     		mov	r0, r10
 969              	.LVL261:
 970 0596 CDF878E0 		str	lr, [sp, #120]	@ float
 971 059a 7146     		mov	r1, lr
 972 059c FFF7FEFF 		bl	__aeabi_fadd
 973              	.LVL262:
 974 05a0 1190     		str	r0, [sp, #68]	@ float
 975              	.LVL263:
 203:.\arm_cfft_radix8_f32.c ****             s8 = pSrc[2 * i4 + 1] - pSrc[2 * i8 + 1];
 976              		.loc 1 203 0 discriminator 1
 977 05a2 5046     		mov	r0, r10
 978              	.LVL264:
 979 05a4 1E99     		ldr	r1, [sp, #120]	@ float
 980 05a6 FFF7FEFF 		bl	__aeabi_fsub
 981              	.LVL265:
 982 05aa 1E90     		str	r0, [sp, #120]	@ float
 983              	.LVL266:
 204:.\arm_cfft_radix8_f32.c ****             t2 = s1 - s3;
 984              		.loc 1 204 0 discriminator 1
 985 05ac 0B98     		ldr	r0, [sp, #44]	@ float
 986              	.LVL267:
 987 05ae 0F99     		ldr	r1, [sp, #60]	@ float
 988 05b0 FFF7FEFF 		bl	__aeabi_fsub
 989              	.LVL268:
 990 05b4 8246     		mov	r10, r0
 991              	.LVL269:
 205:.\arm_cfft_radix8_f32.c ****             s1 = s1 + s3;
 992              		.loc 1 205 0 discriminator 1
ARM GAS  C:\Users\IVYLIU~1\AppData\Local\Temp\cc2OBbnx.s 			page 22


 993 05b6 0B98     		ldr	r0, [sp, #44]	@ float
 994              	.LVL270:
 995 05b8 0F99     		ldr	r1, [sp, #60]	@ float
 996 05ba FFF7FEFF 		bl	__aeabi_fadd
 997              	.LVL271:
 998 05be 0B90     		str	r0, [sp, #44]	@ float
 999              	.LVL272:
 206:.\arm_cfft_radix8_f32.c ****             s3 = s2 - s4;
 1000              		.loc 1 206 0 discriminator 1
 1001 05c0 0D98     		ldr	r0, [sp, #52]	@ float
 1002              	.LVL273:
 1003 05c2 1199     		ldr	r1, [sp, #68]	@ float
 1004 05c4 FFF7FEFF 		bl	__aeabi_fsub
 1005              	.LVL274:
 1006 05c8 0F90     		str	r0, [sp, #60]	@ float
 1007              	.LVL275:
 207:.\arm_cfft_radix8_f32.c ****             s2 = s2 + s4;
 1008              		.loc 1 207 0 discriminator 1
 1009 05ca 0D98     		ldr	r0, [sp, #52]	@ float
 1010              	.LVL276:
 1011 05cc 1199     		ldr	r1, [sp, #68]	@ float
 1012 05ce FFF7FEFF 		bl	__aeabi_fadd
 1013              	.LVL277:
 1014 05d2 0D90     		str	r0, [sp, #52]	@ float
 1015              	.LVL278:
 208:.\arm_cfft_radix8_f32.c ****             r1 = t1 + s3;
 1016              		.loc 1 208 0 discriminator 1
 1017 05d4 0998     		ldr	r0, [sp, #36]	@ float
 1018              	.LVL279:
 1019 05d6 0F99     		ldr	r1, [sp, #60]	@ float
 1020 05d8 FFF7FEFF 		bl	__aeabi_fadd
 1021              	.LVL280:
 1022 05dc 1190     		str	r0, [sp, #68]	@ float
 1023              	.LVL281:
 209:.\arm_cfft_radix8_f32.c ****             t1 = t1 - s3;
 1024              		.loc 1 209 0 discriminator 1
 1025 05de 0998     		ldr	r0, [sp, #36]	@ float
 1026              	.LVL282:
 1027 05e0 0F99     		ldr	r1, [sp, #60]	@ float
 1028 05e2 FFF7FEFF 		bl	__aeabi_fsub
 1029              	.LVL283:
 1030 05e6 0990     		str	r0, [sp, #36]	@ float
 1031              	.LVL284:
 210:.\arm_cfft_radix8_f32.c ****             pSrc[2 * i1 + 1] = s1 + s2;
 1032              		.loc 1 210 0 discriminator 1
 1033 05e8 0B98     		ldr	r0, [sp, #44]	@ float
 1034              	.LVL285:
 1035 05ea 0D99     		ldr	r1, [sp, #52]	@ float
 1036 05ec FFF7FEFF 		bl	__aeabi_fadd
 1037              	.LVL286:
 1038 05f0 6051     		str	r0, [r4, r5]	@ float
 211:.\arm_cfft_radix8_f32.c ****             s2 = s1 - s2;
 1039              		.loc 1 211 0 discriminator 1
 1040 05f2 0B98     		ldr	r0, [sp, #44]	@ float
 1041 05f4 0D99     		ldr	r1, [sp, #52]	@ float
 1042 05f6 FFF7FEFF 		bl	__aeabi_fsub
 1043              	.LVL287:
ARM GAS  C:\Users\IVYLIU~1\AppData\Local\Temp\cc2OBbnx.s 			page 23


 1044 05fa 0546     		mov	r5, r0
 1045              	.LVL288:
 212:.\arm_cfft_radix8_f32.c ****             s1 = t2 - r3;
 1046              		.loc 1 212 0 discriminator 1
 1047 05fc 5046     		mov	r0, r10
 1048              	.LVL289:
 1049 05fe 0A99     		ldr	r1, [sp, #40]	@ float
 1050 0600 FFF7FEFF 		bl	__aeabi_fsub
 1051              	.LVL290:
 1052 0604 0B90     		str	r0, [sp, #44]	@ float
 1053              	.LVL291:
 213:.\arm_cfft_radix8_f32.c ****             t2 = t2 + r3;
 1054              		.loc 1 213 0 discriminator 1
 1055 0606 5046     		mov	r0, r10
 1056              	.LVL292:
 1057 0608 0A99     		ldr	r1, [sp, #40]	@ float
 1058 060a FFF7FEFF 		bl	__aeabi_fadd
 1059              	.LVL293:
 1060 060e 8246     		mov	r10, r0
 1061              	.LVL294:
 214:.\arm_cfft_radix8_f32.c ****             p1 = co5 * r2;
 1062              		.loc 1 214 0 discriminator 1
 1063 0610 1498     		ldr	r0, [sp, #80]	@ float
 1064              	.LVL295:
 1065 0612 0799     		ldr	r1, [sp, #28]	@ float
 1066 0614 FFF7FEFF 		bl	__aeabi_fmul
 1067              	.LVL296:
 1068 0618 0A90     		str	r0, [sp, #40]	@ float
 1069              	.LVL297:
 215:.\arm_cfft_radix8_f32.c ****             p2 = si5 * s2;
 1070              		.loc 1 215 0 discriminator 1
 1071 061a 1B98     		ldr	r0, [sp, #108]	@ float
 1072              	.LVL298:
 1073 061c 2946     		mov	r1, r5
 1074 061e FFF7FEFF 		bl	__aeabi_fmul
 1075              	.LVL299:
 1076 0622 0D90     		str	r0, [sp, #52]	@ float
 1077              	.LVL300:
 216:.\arm_cfft_radix8_f32.c ****             p3 = co5 * s2;
 1078              		.loc 1 216 0 discriminator 1
 1079 0624 1498     		ldr	r0, [sp, #80]	@ float
 1080              	.LVL301:
 1081 0626 2946     		mov	r1, r5
 1082 0628 FFF7FEFF 		bl	__aeabi_fmul
 1083              	.LVL302:
 1084 062c 0F90     		str	r0, [sp, #60]	@ float
 1085              	.LVL303:
 217:.\arm_cfft_radix8_f32.c ****             p4 = si5 * r2;
 1086              		.loc 1 217 0 discriminator 1
 1087 062e 1B98     		ldr	r0, [sp, #108]	@ float
 1088              	.LVL304:
 1089 0630 0799     		ldr	r1, [sp, #28]	@ float
 1090 0632 FFF7FEFF 		bl	__aeabi_fmul
 1091              	.LVL305:
 1092 0636 0546     		mov	r5, r0
 1093              	.LVL306:
 218:.\arm_cfft_radix8_f32.c ****             pSrc[2 * i5]     = p1 + p2;
ARM GAS  C:\Users\IVYLIU~1\AppData\Local\Temp\cc2OBbnx.s 			page 24


 1094              		.loc 1 218 0 discriminator 1
 1095 0638 0A98     		ldr	r0, [sp, #40]	@ float
 1096              	.LVL307:
 1097 063a 0D99     		ldr	r1, [sp, #52]	@ float
 1098 063c FFF7FEFF 		bl	__aeabi_fadd
 1099              	.LVL308:
 1100 0640 1D9B     		ldr	r3, [sp, #116]
 1101 0642 44F83300 		str	r0, [r4, r3, lsl #3]	@ float
 219:.\arm_cfft_radix8_f32.c ****             pSrc[2 * i5 + 1] = p3 - p4;
 1102              		.loc 1 219 0 discriminator 1
 1103 0646 0F98     		ldr	r0, [sp, #60]	@ float
 1104 0648 2946     		mov	r1, r5
 1105 064a FFF7FEFF 		bl	__aeabi_fsub
 1106              	.LVL309:
 1107 064e 219D     		ldr	r5, [sp, #132]
 1108              	.LVL310:
 1109 0650 6051     		str	r0, [r4, r5]	@ float
 220:.\arm_cfft_radix8_f32.c ****             p1 = co3 * r1;
 1110              		.loc 1 220 0 discriminator 1
 1111 0652 1398     		ldr	r0, [sp, #76]	@ float
 1112 0654 1199     		ldr	r1, [sp, #68]	@ float
 1113 0656 FFF7FEFF 		bl	__aeabi_fmul
 1114              	.LVL311:
 1115 065a 0790     		str	r0, [sp, #28]	@ float
 1116              	.LVL312:
 221:.\arm_cfft_radix8_f32.c ****             p2 = si3 * s1;
 1117              		.loc 1 221 0 discriminator 1
 1118 065c 1998     		ldr	r0, [sp, #100]	@ float
 1119              	.LVL313:
 1120 065e 0B9D     		ldr	r5, [sp, #44]	@ float
 1121 0660 2946     		mov	r1, r5
 1122 0662 FFF7FEFF 		bl	__aeabi_fmul
 1123              	.LVL314:
 1124 0666 0A90     		str	r0, [sp, #40]	@ float
 1125              	.LVL315:
 222:.\arm_cfft_radix8_f32.c ****             p3 = co3 * s1;
 1126              		.loc 1 222 0 discriminator 1
 1127 0668 1398     		ldr	r0, [sp, #76]	@ float
 1128              	.LVL316:
 1129 066a 2946     		mov	r1, r5
 1130 066c FFF7FEFF 		bl	__aeabi_fmul
 1131              	.LVL317:
 1132 0670 0B90     		str	r0, [sp, #44]	@ float
 1133              	.LVL318:
 223:.\arm_cfft_radix8_f32.c ****             p4 = si3 * r1;
 1134              		.loc 1 223 0 discriminator 1
 1135 0672 1998     		ldr	r0, [sp, #100]	@ float
 1136              	.LVL319:
 1137 0674 1199     		ldr	r1, [sp, #68]	@ float
 1138 0676 FFF7FEFF 		bl	__aeabi_fmul
 1139              	.LVL320:
 1140 067a 0546     		mov	r5, r0
 1141              	.LVL321:
 224:.\arm_cfft_radix8_f32.c ****             pSrc[2 * i3]     = p1 + p2;
 1142              		.loc 1 224 0 discriminator 1
 1143 067c 0798     		ldr	r0, [sp, #28]	@ float
 1144              	.LVL322:
ARM GAS  C:\Users\IVYLIU~1\AppData\Local\Temp\cc2OBbnx.s 			page 25


 1145 067e 0A99     		ldr	r1, [sp, #40]	@ float
 1146 0680 FFF7FEFF 		bl	__aeabi_fadd
 1147              	.LVL323:
 1148 0684 019B     		ldr	r3, [sp, #4]
 1149 0686 44F83300 		str	r0, [r4, r3, lsl #3]	@ float
 225:.\arm_cfft_radix8_f32.c ****             pSrc[2 * i3 + 1] = p3 - p4;
 1150              		.loc 1 225 0 discriminator 1
 1151 068a 0B98     		ldr	r0, [sp, #44]	@ float
 1152 068c 2946     		mov	r1, r5
 1153 068e FFF7FEFF 		bl	__aeabi_fsub
 1154              	.LVL324:
 1155 0692 239D     		ldr	r5, [sp, #140]
 1156              	.LVL325:
 1157 0694 6051     		str	r0, [r4, r5]	@ float
 226:.\arm_cfft_radix8_f32.c ****             p1 = co7 * t1;
 1158              		.loc 1 226 0 discriminator 1
 1159 0696 1698     		ldr	r0, [sp, #88]	@ float
 1160 0698 0999     		ldr	r1, [sp, #36]	@ float
 1161 069a FFF7FEFF 		bl	__aeabi_fmul
 1162              	.LVL326:
 1163 069e 0190     		str	r0, [sp, #4]	@ float
 1164              	.LVL327:
 227:.\arm_cfft_radix8_f32.c ****             p2 = si7 * t2;
 1165              		.loc 1 227 0 discriminator 1
 1166 06a0 299D     		ldr	r5, [sp, #164]	@ float
 1167 06a2 2846     		mov	r0, r5
 1168              	.LVL328:
 1169 06a4 5146     		mov	r1, r10
 1170 06a6 FFF7FEFF 		bl	__aeabi_fmul
 1171              	.LVL329:
 1172 06aa 0790     		str	r0, [sp, #28]	@ float
 1173              	.LVL330:
 228:.\arm_cfft_radix8_f32.c ****             p3 = co7 * t2;
 1174              		.loc 1 228 0 discriminator 1
 1175 06ac 1698     		ldr	r0, [sp, #88]	@ float
 1176              	.LVL331:
 1177 06ae 5146     		mov	r1, r10
 1178 06b0 FFF7FEFF 		bl	__aeabi_fmul
 1179              	.LVL332:
 1180 06b4 8246     		mov	r10, r0
 1181              	.LVL333:
 229:.\arm_cfft_radix8_f32.c ****             p4 = si7 * t1;
 1182              		.loc 1 229 0 discriminator 1
 1183 06b6 2846     		mov	r0, r5
 1184              	.LVL334:
 1185 06b8 0999     		ldr	r1, [sp, #36]	@ float
 1186 06ba FFF7FEFF 		bl	__aeabi_fmul
 1187              	.LVL335:
 1188 06be 0546     		mov	r5, r0
 1189              	.LVL336:
 230:.\arm_cfft_radix8_f32.c ****             pSrc[2 * i7]     = p1 + p2;
 1190              		.loc 1 230 0 discriminator 1
 1191 06c0 0198     		ldr	r0, [sp, #4]	@ float
 1192              	.LVL337:
 1193 06c2 0799     		ldr	r1, [sp, #28]	@ float
 1194 06c4 FFF7FEFF 		bl	__aeabi_fadd
 1195              	.LVL338:
ARM GAS  C:\Users\IVYLIU~1\AppData\Local\Temp\cc2OBbnx.s 			page 26


 1196 06c8 049B     		ldr	r3, [sp, #16]
 1197 06ca 44F83300 		str	r0, [r4, r3, lsl #3]	@ float
 231:.\arm_cfft_radix8_f32.c ****             pSrc[2 * i7 + 1] = p3 - p4;
 1198              		.loc 1 231 0 discriminator 1
 1199 06ce 5046     		mov	r0, r10
 1200 06d0 2946     		mov	r1, r5
 1201 06d2 FFF7FEFF 		bl	__aeabi_fsub
 1202              	.LVL339:
 1203 06d6 249B     		ldr	r3, [sp, #144]
 1204 06d8 E050     		str	r0, [r4, r3]	@ float
 232:.\arm_cfft_radix8_f32.c ****             r1 = (r6 - r8) * C81;
 1205              		.loc 1 232 0 discriminator 1
 1206 06da DDF87CA0 		ldr	r10, [sp, #124]	@ float
 1207              	.LVL340:
 1208 06de 5046     		mov	r0, r10
 1209 06e0 209D     		ldr	r5, [sp, #128]	@ float
 1210              	.LVL341:
 1211 06e2 2946     		mov	r1, r5
 1212 06e4 FFF7FEFF 		bl	__aeabi_fsub
 1213              	.LVL342:
 1214 06e8 8849     		ldr	r1, .L11
 1215 06ea FFF7FEFF 		bl	__aeabi_fmul
 1216              	.LVL343:
 1217 06ee 0190     		str	r0, [sp, #4]	@ float
 1218              	.LVL344:
 233:.\arm_cfft_radix8_f32.c ****             r6 = (r6 + r8) * C81;
 1219              		.loc 1 233 0 discriminator 1
 1220 06f0 5046     		mov	r0, r10
 1221              	.LVL345:
 1222 06f2 2946     		mov	r1, r5
 1223 06f4 FFF7FEFF 		bl	__aeabi_fadd
 1224              	.LVL346:
 1225 06f8 8449     		ldr	r1, .L11
 1226 06fa FFF7FEFF 		bl	__aeabi_fmul
 1227              	.LVL347:
 1228 06fe 0546     		mov	r5, r0
 1229              	.LVL348:
 234:.\arm_cfft_radix8_f32.c ****             s1 = (s6 - s8) * C81;
 1230              		.loc 1 234 0 discriminator 1
 1231 0700 0E98     		ldr	r0, [sp, #56]	@ float
 1232              	.LVL349:
 1233 0702 DDF878A0 		ldr	r10, [sp, #120]	@ float
 1234 0706 5146     		mov	r1, r10
 1235 0708 FFF7FEFF 		bl	__aeabi_fsub
 1236              	.LVL350:
 1237 070c 7F49     		ldr	r1, .L11
 1238 070e FFF7FEFF 		bl	__aeabi_fmul
 1239              	.LVL351:
 1240 0712 0490     		str	r0, [sp, #16]	@ float
 1241              	.LVL352:
 235:.\arm_cfft_radix8_f32.c ****             s6 = (s6 + s8) * C81;
 1242              		.loc 1 235 0 discriminator 1
 1243 0714 0E98     		ldr	r0, [sp, #56]	@ float
 1244              	.LVL353:
 1245 0716 5146     		mov	r1, r10
 1246 0718 FFF7FEFF 		bl	__aeabi_fadd
 1247              	.LVL354:
ARM GAS  C:\Users\IVYLIU~1\AppData\Local\Temp\cc2OBbnx.s 			page 27


 1248 071c 7B49     		ldr	r1, .L11
 1249 071e FFF7FEFF 		bl	__aeabi_fmul
 1250              	.LVL355:
 1251 0722 8246     		mov	r10, r0
 1252              	.LVL356:
 236:.\arm_cfft_radix8_f32.c ****             t1 = r5 - r1;
 1253              		.loc 1 236 0 discriminator 1
 1254 0724 0698     		ldr	r0, [sp, #24]	@ float
 1255              	.LVL357:
 1256 0726 0199     		ldr	r1, [sp, #4]	@ float
 1257 0728 FFF7FEFF 		bl	__aeabi_fsub
 1258              	.LVL358:
 1259 072c 0790     		str	r0, [sp, #28]	@ float
 1260              	.LVL359:
 237:.\arm_cfft_radix8_f32.c ****             r5 = r5 + r1;
 1261              		.loc 1 237 0 discriminator 1
 1262 072e 0698     		ldr	r0, [sp, #24]	@ float
 1263              	.LVL360:
 1264 0730 0199     		ldr	r1, [sp, #4]	@ float
 1265 0732 FFF7FEFF 		bl	__aeabi_fadd
 1266              	.LVL361:
 1267 0736 0190     		str	r0, [sp, #4]	@ float
 1268              	.LVL362:
 238:.\arm_cfft_radix8_f32.c ****             r8 = r7 - r6;
 1269              		.loc 1 238 0 discriminator 1
 1270 0738 0898     		ldr	r0, [sp, #32]	@ float
 1271              	.LVL363:
 1272 073a 2946     		mov	r1, r5
 1273 073c FFF7FEFF 		bl	__aeabi_fsub
 1274              	.LVL364:
 1275 0740 0690     		str	r0, [sp, #24]	@ float
 1276              	.LVL365:
 239:.\arm_cfft_radix8_f32.c ****             r7 = r7 + r6;
 1277              		.loc 1 239 0 discriminator 1
 1278 0742 0898     		ldr	r0, [sp, #32]	@ float
 1279              	.LVL366:
 1280 0744 2946     		mov	r1, r5
 1281 0746 FFF7FEFF 		bl	__aeabi_fadd
 1282              	.LVL367:
 1283 074a 0890     		str	r0, [sp, #32]	@ float
 1284              	.LVL368:
 240:.\arm_cfft_radix8_f32.c ****             t2 = s5 - s1;
 1285              		.loc 1 240 0 discriminator 1
 1286 074c 0C98     		ldr	r0, [sp, #48]	@ float
 1287              	.LVL369:
 1288 074e 0499     		ldr	r1, [sp, #16]	@ float
 1289 0750 FFF7FEFF 		bl	__aeabi_fsub
 1290              	.LVL370:
 1291 0754 0546     		mov	r5, r0
 1292              	.LVL371:
 241:.\arm_cfft_radix8_f32.c ****             s5 = s5 + s1;
 1293              		.loc 1 241 0 discriminator 1
 1294 0756 0C98     		ldr	r0, [sp, #48]	@ float
 1295              	.LVL372:
 1296 0758 0499     		ldr	r1, [sp, #16]	@ float
 1297 075a FFF7FEFF 		bl	__aeabi_fadd
 1298              	.LVL373:
ARM GAS  C:\Users\IVYLIU~1\AppData\Local\Temp\cc2OBbnx.s 			page 28


 1299 075e 0490     		str	r0, [sp, #16]	@ float
 1300              	.LVL374:
 242:.\arm_cfft_radix8_f32.c ****             s8 = s7 - s6;
 1301              		.loc 1 242 0 discriminator 1
 1302 0760 1098     		ldr	r0, [sp, #64]	@ float
 1303              	.LVL375:
 1304 0762 5146     		mov	r1, r10
 1305 0764 FFF7FEFF 		bl	__aeabi_fsub
 1306              	.LVL376:
 1307 0768 0990     		str	r0, [sp, #36]	@ float
 1308              	.LVL377:
 243:.\arm_cfft_radix8_f32.c ****             s7 = s7 + s6;
 1309              		.loc 1 243 0 discriminator 1
 1310 076a 1098     		ldr	r0, [sp, #64]	@ float
 1311              	.LVL378:
 1312 076c 5146     		mov	r1, r10
 1313 076e FFF7FEFF 		bl	__aeabi_fadd
 1314              	.LVL379:
 1315 0772 8246     		mov	r10, r0
 1316              	.LVL380:
 244:.\arm_cfft_radix8_f32.c ****             r1 = r5 + s7;
 1317              		.loc 1 244 0 discriminator 1
 1318 0774 0198     		ldr	r0, [sp, #4]	@ float
 1319              	.LVL381:
 1320 0776 5146     		mov	r1, r10
 1321 0778 FFF7FEFF 		bl	__aeabi_fadd
 1322              	.LVL382:
 1323 077c 0A90     		str	r0, [sp, #40]	@ float
 1324              	.LVL383:
 245:.\arm_cfft_radix8_f32.c ****             r5 = r5 - s7;
 1325              		.loc 1 245 0 discriminator 1
 1326 077e 0198     		ldr	r0, [sp, #4]	@ float
 1327              	.LVL384:
 1328 0780 5146     		mov	r1, r10
 1329 0782 FFF7FEFF 		bl	__aeabi_fsub
 1330              	.LVL385:
 1331 0786 8246     		mov	r10, r0
 1332              	.LVL386:
 246:.\arm_cfft_radix8_f32.c ****             r6 = t1 + s8;
 1333              		.loc 1 246 0 discriminator 1
 1334 0788 0798     		ldr	r0, [sp, #28]	@ float
 1335              	.LVL387:
 1336 078a 0999     		ldr	r1, [sp, #36]	@ float
 1337 078c FFF7FEFF 		bl	__aeabi_fadd
 1338              	.LVL388:
 1339 0790 0190     		str	r0, [sp, #4]	@ float
 1340              	.LVL389:
 247:.\arm_cfft_radix8_f32.c ****             t1 = t1 - s8;
 1341              		.loc 1 247 0 discriminator 1
 1342 0792 0798     		ldr	r0, [sp, #28]	@ float
 1343              	.LVL390:
 1344 0794 0999     		ldr	r1, [sp, #36]	@ float
 1345 0796 FFF7FEFF 		bl	__aeabi_fsub
 1346              	.LVL391:
 1347 079a 0790     		str	r0, [sp, #28]	@ float
 1348              	.LVL392:
 248:.\arm_cfft_radix8_f32.c ****             s1 = s5 - r7;
ARM GAS  C:\Users\IVYLIU~1\AppData\Local\Temp\cc2OBbnx.s 			page 29


 1349              		.loc 1 248 0 discriminator 1
 1350 079c 0498     		ldr	r0, [sp, #16]	@ float
 1351              	.LVL393:
 1352 079e 0899     		ldr	r1, [sp, #32]	@ float
 1353 07a0 FFF7FEFF 		bl	__aeabi_fsub
 1354              	.LVL394:
 1355 07a4 0990     		str	r0, [sp, #36]	@ float
 1356              	.LVL395:
 249:.\arm_cfft_radix8_f32.c ****             s5 = s5 + r7;
 1357              		.loc 1 249 0 discriminator 1
 1358 07a6 0498     		ldr	r0, [sp, #16]	@ float
 1359              	.LVL396:
 1360 07a8 0899     		ldr	r1, [sp, #32]	@ float
 1361 07aa FFF7FEFF 		bl	__aeabi_fadd
 1362              	.LVL397:
 1363 07ae 0490     		str	r0, [sp, #16]	@ float
 1364              	.LVL398:
 250:.\arm_cfft_radix8_f32.c ****             s6 = t2 - r8;
 1365              		.loc 1 250 0 discriminator 1
 1366 07b0 2846     		mov	r0, r5
 1367              	.LVL399:
 1368 07b2 0699     		ldr	r1, [sp, #24]	@ float
 1369 07b4 FFF7FEFF 		bl	__aeabi_fsub
 1370              	.LVL400:
 1371 07b8 0890     		str	r0, [sp, #32]	@ float
 1372              	.LVL401:
 251:.\arm_cfft_radix8_f32.c ****             t2 = t2 + r8;
 1373              		.loc 1 251 0 discriminator 1
 1374 07ba 2846     		mov	r0, r5
 1375              	.LVL402:
 1376 07bc 0699     		ldr	r1, [sp, #24]	@ float
 1377 07be FFF7FEFF 		bl	__aeabi_fadd
 1378              	.LVL403:
 1379 07c2 0690     		str	r0, [sp, #24]	@ float
 1380              	.LVL404:
 252:.\arm_cfft_radix8_f32.c ****             p1 = co2 * r1;
 1381              		.loc 1 252 0 discriminator 1
 1382 07c4 1298     		ldr	r0, [sp, #72]	@ float
 1383              	.LVL405:
 1384 07c6 0A99     		ldr	r1, [sp, #40]	@ float
 1385 07c8 FFF7FEFF 		bl	__aeabi_fmul
 1386              	.LVL406:
 1387 07cc 0B90     		str	r0, [sp, #44]	@ float
 1388              	.LVL407:
 253:.\arm_cfft_radix8_f32.c ****             p2 = si2 * s1;
 1389              		.loc 1 253 0 discriminator 1
 1390 07ce 1898     		ldr	r0, [sp, #96]	@ float
 1391              	.LVL408:
 1392 07d0 0999     		ldr	r1, [sp, #36]	@ float
 1393 07d2 FFF7FEFF 		bl	__aeabi_fmul
 1394              	.LVL409:
 1395 07d6 0546     		mov	r5, r0
 1396              	.LVL410:
 254:.\arm_cfft_radix8_f32.c ****             p3 = co2 * s1;
 1397              		.loc 1 254 0 discriminator 1
 1398 07d8 1298     		ldr	r0, [sp, #72]	@ float
 1399              	.LVL411:
ARM GAS  C:\Users\IVYLIU~1\AppData\Local\Temp\cc2OBbnx.s 			page 30


 1400 07da 0999     		ldr	r1, [sp, #36]	@ float
 1401 07dc FFF7FEFF 		bl	__aeabi_fmul
 1402              	.LVL412:
 1403 07e0 0990     		str	r0, [sp, #36]	@ float
 1404              	.LVL413:
 255:.\arm_cfft_radix8_f32.c ****             p4 = si2 * r1;
 1405              		.loc 1 255 0 discriminator 1
 1406 07e2 1898     		ldr	r0, [sp, #96]	@ float
 1407              	.LVL414:
 1408 07e4 0A99     		ldr	r1, [sp, #40]	@ float
 1409 07e6 FFF7FEFF 		bl	__aeabi_fmul
 1410              	.LVL415:
 1411 07ea 0A90     		str	r0, [sp, #40]	@ float
 1412              	.LVL416:
 256:.\arm_cfft_radix8_f32.c ****             pSrc[2 * i2]     = p1 + p2;
 1413              		.loc 1 256 0 discriminator 1
 1414 07ec 0B98     		ldr	r0, [sp, #44]	@ float
 1415              	.LVL417:
 1416 07ee 2946     		mov	r1, r5
 1417 07f0 FFF7FEFF 		bl	__aeabi_fadd
 1418              	.LVL418:
 1419 07f4 009A     		ldr	r2, [sp]
 1420 07f6 44F83200 		str	r0, [r4, r2, lsl #3]	@ float
 257:.\arm_cfft_radix8_f32.c ****             pSrc[2 * i2 + 1] = p3 - p4;
 1421              		.loc 1 257 0 discriminator 1
 1422 07fa 0998     		ldr	r0, [sp, #36]	@ float
 1423 07fc 0A99     		ldr	r1, [sp, #40]	@ float
 1424 07fe FFF7FEFF 		bl	__aeabi_fsub
 1425              	.LVL419:
 1426 0802 229D     		ldr	r5, [sp, #136]
 1427              	.LVL420:
 1428 0804 6051     		str	r0, [r4, r5]	@ float
 258:.\arm_cfft_radix8_f32.c ****             p1 = co8 * r5;
 1429              		.loc 1 258 0 discriminator 1
 1430 0806 1798     		ldr	r0, [sp, #92]	@ float
 1431 0808 5146     		mov	r1, r10
 1432 080a FFF7FEFF 		bl	__aeabi_fmul
 1433              	.LVL421:
 1434 080e 0090     		str	r0, [sp]	@ float
 1435              	.LVL422:
 259:.\arm_cfft_radix8_f32.c ****             p2 = si8 * s5;
 1436              		.loc 1 259 0 discriminator 1
 1437 0810 1C98     		ldr	r0, [sp, #112]	@ float
 1438              	.LVL423:
 1439 0812 0499     		ldr	r1, [sp, #16]	@ float
 1440 0814 FFF7FEFF 		bl	__aeabi_fmul
 1441              	.LVL424:
 1442 0818 0546     		mov	r5, r0
 1443              	.LVL425:
 260:.\arm_cfft_radix8_f32.c ****             p3 = co8 * s5;
 1444              		.loc 1 260 0 discriminator 1
 1445 081a 1798     		ldr	r0, [sp, #92]	@ float
 1446              	.LVL426:
 1447 081c 0499     		ldr	r1, [sp, #16]	@ float
 1448 081e FFF7FEFF 		bl	__aeabi_fmul
 1449              	.LVL427:
 1450 0822 0490     		str	r0, [sp, #16]	@ float
ARM GAS  C:\Users\IVYLIU~1\AppData\Local\Temp\cc2OBbnx.s 			page 31


 1451              	.LVL428:
 261:.\arm_cfft_radix8_f32.c ****             p4 = si8 * r5;
 1452              		.loc 1 261 0 discriminator 1
 1453 0824 1C98     		ldr	r0, [sp, #112]	@ float
 1454              	.LVL429:
 1455 0826 5146     		mov	r1, r10
 1456 0828 FFF7FEFF 		bl	__aeabi_fmul
 1457              	.LVL430:
 1458 082c 8246     		mov	r10, r0
 1459              	.LVL431:
 262:.\arm_cfft_radix8_f32.c ****             pSrc[2 * i8]     = p1 + p2;
 1460              		.loc 1 262 0 discriminator 1
 1461 082e 0098     		ldr	r0, [sp]	@ float
 1462              	.LVL432:
 1463 0830 2946     		mov	r1, r5
 1464 0832 FFF7FEFF 		bl	__aeabi_fadd
 1465              	.LVL433:
 1466 0836 059A     		ldr	r2, [sp, #20]
 1467 0838 44F83200 		str	r0, [r4, r2, lsl #3]	@ float
 263:.\arm_cfft_radix8_f32.c ****             pSrc[2 * i8 + 1] = p3 - p4;
 1468              		.loc 1 263 0 discriminator 1
 1469 083c 0498     		ldr	r0, [sp, #16]	@ float
 1470 083e 5146     		mov	r1, r10
 1471 0840 FFF7FEFF 		bl	__aeabi_fsub
 1472              	.LVL434:
 1473 0844 44F80800 		str	r0, [r4, r8]	@ float
 264:.\arm_cfft_radix8_f32.c ****             p1 = co6 * r6;
 1474              		.loc 1 264 0 discriminator 1
 1475 0848 1598     		ldr	r0, [sp, #84]	@ float
 1476 084a 0199     		ldr	r1, [sp, #4]	@ float
 1477 084c FFF7FEFF 		bl	__aeabi_fmul
 1478              	.LVL435:
 1479 0850 0090     		str	r0, [sp]	@ float
 1480              	.LVL436:
 265:.\arm_cfft_radix8_f32.c ****             p2 = si6 * s6;
 1481              		.loc 1 265 0 discriminator 1
 1482 0852 289D     		ldr	r5, [sp, #160]	@ float
 1483              	.LVL437:
 1484 0854 2846     		mov	r0, r5
 1485              	.LVL438:
 1486 0856 DDF82080 		ldr	r8, [sp, #32]	@ float
 1487 085a 4146     		mov	r1, r8
 1488 085c FFF7FEFF 		bl	__aeabi_fmul
 1489              	.LVL439:
 1490 0860 8246     		mov	r10, r0
 1491              	.LVL440:
 266:.\arm_cfft_radix8_f32.c ****             p3 = co6 * s6;
 1492              		.loc 1 266 0 discriminator 1
 1493 0862 1598     		ldr	r0, [sp, #84]	@ float
 1494              	.LVL441:
 1495 0864 4146     		mov	r1, r8
 1496 0866 FFF7FEFF 		bl	__aeabi_fmul
 1497              	.LVL442:
 1498 086a 8046     		mov	r8, r0
 1499              	.LVL443:
 267:.\arm_cfft_radix8_f32.c ****             p4 = si6 * r6;
 1500              		.loc 1 267 0 discriminator 1
ARM GAS  C:\Users\IVYLIU~1\AppData\Local\Temp\cc2OBbnx.s 			page 32


 1501 086c 2846     		mov	r0, r5
 1502              	.LVL444:
 1503 086e 0199     		ldr	r1, [sp, #4]	@ float
 1504 0870 FFF7FEFF 		bl	__aeabi_fmul
 1505              	.LVL445:
 1506 0874 0546     		mov	r5, r0
 1507              	.LVL446:
 268:.\arm_cfft_radix8_f32.c ****             pSrc[2 * i6]     = p1 + p2;
 1508              		.loc 1 268 0 discriminator 1
 1509 0876 0098     		ldr	r0, [sp]	@ float
 1510              	.LVL447:
 1511 0878 5146     		mov	r1, r10
 1512 087a FFF7FEFF 		bl	__aeabi_fadd
 1513              	.LVL448:
 1514 087e 039B     		ldr	r3, [sp, #12]
 1515 0880 44F83300 		str	r0, [r4, r3, lsl #3]	@ float
 269:.\arm_cfft_radix8_f32.c ****             pSrc[2 * i6 + 1] = p3 - p4;
 1516              		.loc 1 269 0 discriminator 1
 1517 0884 4046     		mov	r0, r8
 1518 0886 2946     		mov	r1, r5
 1519 0888 FFF7FEFF 		bl	__aeabi_fsub
 1520              	.LVL449:
 1521 088c A051     		str	r0, [r4, r6]	@ float
 270:.\arm_cfft_radix8_f32.c ****             p1 = co4 * t1;
 1522              		.loc 1 270 0 discriminator 1
 1523 088e DDF89C80 		ldr	r8, [sp, #156]	@ float
 1524              	.LVL450:
 1525 0892 4046     		mov	r0, r8
 1526 0894 0799     		ldr	r1, [sp, #28]	@ float
 1527 0896 FFF7FEFF 		bl	__aeabi_fmul
 1528              	.LVL451:
 1529 089a 8246     		mov	r10, r0
 1530              	.LVL452:
 271:.\arm_cfft_radix8_f32.c ****             p2 = si4 * t2;
 1531              		.loc 1 271 0 discriminator 1
 1532 089c 1A98     		ldr	r0, [sp, #104]	@ float
 1533              	.LVL453:
 1534 089e 069D     		ldr	r5, [sp, #24]	@ float
 1535              	.LVL454:
 1536 08a0 2946     		mov	r1, r5
 1537 08a2 FFF7FEFF 		bl	__aeabi_fmul
 1538              	.LVL455:
 1539 08a6 0646     		mov	r6, r0
 1540              	.LVL456:
 272:.\arm_cfft_radix8_f32.c ****             p3 = co4 * t2;
 1541              		.loc 1 272 0 discriminator 1
 1542 08a8 4046     		mov	r0, r8
 1543              	.LVL457:
 1544 08aa 2946     		mov	r1, r5
 1545 08ac FFF7FEFF 		bl	__aeabi_fmul
 1546              	.LVL458:
 1547 08b0 8046     		mov	r8, r0
 1548              	.LVL459:
 273:.\arm_cfft_radix8_f32.c ****             p4 = si4 * t1;
 1549              		.loc 1 273 0 discriminator 1
 1550 08b2 1A98     		ldr	r0, [sp, #104]	@ float
 1551              	.LVL460:
ARM GAS  C:\Users\IVYLIU~1\AppData\Local\Temp\cc2OBbnx.s 			page 33


 1552 08b4 0799     		ldr	r1, [sp, #28]	@ float
 1553 08b6 FFF7FEFF 		bl	__aeabi_fmul
 1554              	.LVL461:
 1555 08ba 0546     		mov	r5, r0
 1556              	.LVL462:
 274:.\arm_cfft_radix8_f32.c ****             pSrc[2 * i4]     = p1 + p2;
 1557              		.loc 1 274 0 discriminator 1
 1558 08bc 5046     		mov	r0, r10
 1559              	.LVL463:
 1560 08be 3146     		mov	r1, r6
 1561 08c0 FFF7FEFF 		bl	__aeabi_fadd
 1562              	.LVL464:
 1563 08c4 0299     		ldr	r1, [sp, #8]
 1564 08c6 44F83100 		str	r0, [r4, r1, lsl #3]	@ float
 275:.\arm_cfft_radix8_f32.c ****             pSrc[2 * i4 + 1] = p3 - p4;
 1565              		.loc 1 275 0 discriminator 1
 1566 08ca 4046     		mov	r0, r8
 1567 08cc 2946     		mov	r1, r5
 1568 08ce FFF7FEFF 		bl	__aeabi_fsub
 1569              	.LVL465:
 1570 08d2 E051     		str	r0, [r4, r7]	@ float
 276:.\arm_cfft_radix8_f32.c **** 
 277:.\arm_cfft_radix8_f32.c ****             i1 += n1;
 1571              		.loc 1 277 0 discriminator 1
 1572 08d4 259B     		ldr	r3, [sp, #148]
 1573 08d6 9B44     		add	fp, fp, r3
 1574              	.LVL466:
 278:.\arm_cfft_radix8_f32.c ****          } while (i1 < fftLen);
 1575              		.loc 1 278 0 discriminator 1
 1576 08d8 269B     		ldr	r3, [sp, #152]
 1577 08da 5B45     		cmp	r3, fp
 1578 08dc 3FF696AD 		bhi	.L4
 1579 08e0 CB46     		mov	fp, r9
 1580              	.LVL467:
 279:.\arm_cfft_radix8_f32.c **** 
 280:.\arm_cfft_radix8_f32.c ****          j++;
 1581              		.loc 1 280 0
 1582 08e2 2C9B     		ldr	r3, [sp, #176]
 1583 08e4 0133     		adds	r3, r3, #1
 1584 08e6 2C93     		str	r3, [sp, #176]
 1585              	.LVL468:
 281:.\arm_cfft_radix8_f32.c ****       } while (j < n2);
 1586              		.loc 1 281 0
 1587 08e8 4B45     		cmp	r3, r9
 1588 08ea FFF43DAD 		bcc	.L5
 1589 08ee 4E46     		mov	r6, r9
 1590              	.LVL469:
 1591 08f0 A346     		mov	fp, r4
 282:.\arm_cfft_radix8_f32.c **** 
 283:.\arm_cfft_radix8_f32.c ****       twidCoefModifier <<= 3;
 1592              		.loc 1 283 0
 1593 08f2 2D9B     		ldr	r3, [sp, #180]
 1594              	.LVL470:
 1595 08f4 DB00     		lsls	r3, r3, #3
 1596 08f6 9BB2     		uxth	r3, r3
 1597 08f8 2D93     		str	r3, [sp, #180]
 1598              	.LVL471:
ARM GAS  C:\Users\IVYLIU~1\AppData\Local\Temp\cc2OBbnx.s 			page 34


  69:.\arm_cfft_radix8_f32.c ****       i1 = 0;
 1599              		.loc 1 69 0
 1600 08fa CDF89490 		str	r9, [sp, #148]
 1601              	.LVL472:
 284:.\arm_cfft_radix8_f32.c ****    } while (n2 > 7);
 1602              		.loc 1 284 0
 1603 08fe 072E     		cmp	r6, #7
 1604 0900 3FF686AB 		bhi	.L6
 1605              	.LVL473:
 1606              	.L1:
 285:.\arm_cfft_radix8_f32.c **** }
 1607              		.loc 1 285 0
 1608 0904 2FB0     		add	sp, sp, #188
 1609              		.cfi_def_cfa_offset 36
 1610              		@ sp needed
 1611 0906 BDE8F08F 		pop	{r4, r5, r6, r7, r8, r9, r10, fp, pc}
 1612              	.LVL474:
 1613              	.L12:
 1614 090a 00BF     		.align	2
 1615              	.L11:
 1616 090c F304353F 		.word	1060439283
 1617              		.cfi_endproc
 1618              	.LFE84:
 1619              		.size	arm_radix8_butterfly_f32, .-arm_radix8_butterfly_f32
 1620              		.text
 1621              	.Letext0:
 1622              		.file 2 "c:\\program files (x86)\\cypress\\psoc creator\\3.3\\psoc creator\\import\\gnu\\arm\\4.9.
 1623              		.file 3 "c:\\program files (x86)\\cypress\\psoc creator\\3.3\\psoc creator\\import\\gnu\\arm\\4.9.
 1624              		.file 4 ".\\DSP\\Include/arm_math_types.h"
 1625              		.file 5 ".\\Core\\Include/cmsis_gcc.h"