ARM GAS  C:\Users\IVYLIU~1\AppData\Local\Temp\cc3S6Fs0.s 			page 1


   1              		.syntax unified
   2              		.cpu cortex-m3
   3              		.fpu softvfp
   4              		.eabi_attribute 20, 1
   5              		.eabi_attribute 21, 1
   6              		.eabi_attribute 23, 3
   7              		.eabi_attribute 24, 1
   8              		.eabi_attribute 25, 1
   9              		.eabi_attribute 26, 1
  10              		.eabi_attribute 30, 1
  11              		.eabi_attribute 34, 1
  12              		.eabi_attribute 18, 4
  13              		.thumb
  14              		.file	"arm_cmplx_mag_squared_q15.c"
  15              		.text
  16              	.Ltext0:
  17              		.cfi_sections	.debug_frame
  18              		.section	.text.arm_cmplx_mag_squared_q15,"ax",%progbits
  19              		.align	2
  20              		.global	arm_cmplx_mag_squared_q15
  21              		.thumb
  22              		.thumb_func
  23              		.type	arm_cmplx_mag_squared_q15, %function
  24              	arm_cmplx_mag_squared_q15:
  25              	.LFB84:
  26              		.file 1 ".\\DSP\\Source\\ComplexMathFunctions\\arm_cmplx_mag_squared_q15.c"
   1:.\DSP\Source\ComplexMathFunctions/arm_cmplx_mag_squared_q15.c **** /* ----------------------------------------------------------------------
   2:.\DSP\Source\ComplexMathFunctions/arm_cmplx_mag_squared_q15.c ****  * Project:      CMSIS DSP Library
   3:.\DSP\Source\ComplexMathFunctions/arm_cmplx_mag_squared_q15.c ****  * Title:        arm_cmplx_mag_squared_q15.c
   4:.\DSP\Source\ComplexMathFunctions/arm_cmplx_mag_squared_q15.c ****  * Description:  Q15 complex magnitude squared
   5:.\DSP\Source\ComplexMathFunctions/arm_cmplx_mag_squared_q15.c ****  *
   6:.\DSP\Source\ComplexMathFunctions/arm_cmplx_mag_squared_q15.c ****  * $Date:        23 April 2021
   7:.\DSP\Source\ComplexMathFunctions/arm_cmplx_mag_squared_q15.c ****  * $Revision:    V1.9.0
   8:.\DSP\Source\ComplexMathFunctions/arm_cmplx_mag_squared_q15.c ****  *
   9:.\DSP\Source\ComplexMathFunctions/arm_cmplx_mag_squared_q15.c ****  * Target Processor: Cortex-M and Cortex-A cores
  10:.\DSP\Source\ComplexMathFunctions/arm_cmplx_mag_squared_q15.c ****  * -------------------------------------------------------------------- */
  11:.\DSP\Source\ComplexMathFunctions/arm_cmplx_mag_squared_q15.c **** /*
  12:.\DSP\Source\ComplexMathFunctions/arm_cmplx_mag_squared_q15.c ****  * Copyright (C) 2010-2021 ARM Limited or its affiliates. All rights reserved.
  13:.\DSP\Source\ComplexMathFunctions/arm_cmplx_mag_squared_q15.c ****  *
  14:.\DSP\Source\ComplexMathFunctions/arm_cmplx_mag_squared_q15.c ****  * SPDX-License-Identifier: Apache-2.0
  15:.\DSP\Source\ComplexMathFunctions/arm_cmplx_mag_squared_q15.c ****  *
  16:.\DSP\Source\ComplexMathFunctions/arm_cmplx_mag_squared_q15.c ****  * Licensed under the Apache License, Version 2.0 (the License); you may
  17:.\DSP\Source\ComplexMathFunctions/arm_cmplx_mag_squared_q15.c ****  * not use this file except in compliance with the License.
  18:.\DSP\Source\ComplexMathFunctions/arm_cmplx_mag_squared_q15.c ****  * You may obtain a copy of the License at
  19:.\DSP\Source\ComplexMathFunctions/arm_cmplx_mag_squared_q15.c ****  *
  20:.\DSP\Source\ComplexMathFunctions/arm_cmplx_mag_squared_q15.c ****  * www.apache.org/licenses/LICENSE-2.0
  21:.\DSP\Source\ComplexMathFunctions/arm_cmplx_mag_squared_q15.c ****  *
  22:.\DSP\Source\ComplexMathFunctions/arm_cmplx_mag_squared_q15.c ****  * Unless required by applicable law or agreed to in writing, software
  23:.\DSP\Source\ComplexMathFunctions/arm_cmplx_mag_squared_q15.c ****  * distributed under the License is distributed on an AS IS BASIS, WITHOUT
  24:.\DSP\Source\ComplexMathFunctions/arm_cmplx_mag_squared_q15.c ****  * WARRANTIES OR CONDITIONS OF ANY KIND, either express or implied.
  25:.\DSP\Source\ComplexMathFunctions/arm_cmplx_mag_squared_q15.c ****  * See the License for the specific language governing permissions and
  26:.\DSP\Source\ComplexMathFunctions/arm_cmplx_mag_squared_q15.c ****  * limitations under the License.
  27:.\DSP\Source\ComplexMathFunctions/arm_cmplx_mag_squared_q15.c ****  */
  28:.\DSP\Source\ComplexMathFunctions/arm_cmplx_mag_squared_q15.c **** 
  29:.\DSP\Source\ComplexMathFunctions/arm_cmplx_mag_squared_q15.c **** #include "dsp/complex_math_functions.h"
  30:.\DSP\Source\ComplexMathFunctions/arm_cmplx_mag_squared_q15.c **** 
  31:.\DSP\Source\ComplexMathFunctions/arm_cmplx_mag_squared_q15.c **** /**
ARM GAS  C:\Users\IVYLIU~1\AppData\Local\Temp\cc3S6Fs0.s 			page 2


  32:.\DSP\Source\ComplexMathFunctions/arm_cmplx_mag_squared_q15.c ****   @ingroup groupCmplxMath
  33:.\DSP\Source\ComplexMathFunctions/arm_cmplx_mag_squared_q15.c ****  */
  34:.\DSP\Source\ComplexMathFunctions/arm_cmplx_mag_squared_q15.c **** 
  35:.\DSP\Source\ComplexMathFunctions/arm_cmplx_mag_squared_q15.c **** /**
  36:.\DSP\Source\ComplexMathFunctions/arm_cmplx_mag_squared_q15.c ****   @addtogroup cmplx_mag_squared
  37:.\DSP\Source\ComplexMathFunctions/arm_cmplx_mag_squared_q15.c ****   @{
  38:.\DSP\Source\ComplexMathFunctions/arm_cmplx_mag_squared_q15.c ****  */
  39:.\DSP\Source\ComplexMathFunctions/arm_cmplx_mag_squared_q15.c **** 
  40:.\DSP\Source\ComplexMathFunctions/arm_cmplx_mag_squared_q15.c **** /**
  41:.\DSP\Source\ComplexMathFunctions/arm_cmplx_mag_squared_q15.c ****   @brief         Q15 complex magnitude squared.
  42:.\DSP\Source\ComplexMathFunctions/arm_cmplx_mag_squared_q15.c ****   @param[in]     pSrc        points to input vector
  43:.\DSP\Source\ComplexMathFunctions/arm_cmplx_mag_squared_q15.c ****   @param[out]    pDst        points to output vector
  44:.\DSP\Source\ComplexMathFunctions/arm_cmplx_mag_squared_q15.c ****   @param[in]     numSamples  number of samples in each vector
  45:.\DSP\Source\ComplexMathFunctions/arm_cmplx_mag_squared_q15.c ****   @return        none
  46:.\DSP\Source\ComplexMathFunctions/arm_cmplx_mag_squared_q15.c **** 
  47:.\DSP\Source\ComplexMathFunctions/arm_cmplx_mag_squared_q15.c ****   @par           Scaling and Overflow Behavior
  48:.\DSP\Source\ComplexMathFunctions/arm_cmplx_mag_squared_q15.c ****                    The function implements 1.15 by 1.15 multiplications and finally output is conve
  49:.\DSP\Source\ComplexMathFunctions/arm_cmplx_mag_squared_q15.c ****  */
  50:.\DSP\Source\ComplexMathFunctions/arm_cmplx_mag_squared_q15.c **** 
  51:.\DSP\Source\ComplexMathFunctions/arm_cmplx_mag_squared_q15.c **** #if defined(ARM_MATH_MVEI) && !defined(ARM_MATH_AUTOVECTORIZE)
  52:.\DSP\Source\ComplexMathFunctions/arm_cmplx_mag_squared_q15.c **** 
  53:.\DSP\Source\ComplexMathFunctions/arm_cmplx_mag_squared_q15.c **** void arm_cmplx_mag_squared_q15(
  54:.\DSP\Source\ComplexMathFunctions/arm_cmplx_mag_squared_q15.c ****   const q15_t * pSrc,
  55:.\DSP\Source\ComplexMathFunctions/arm_cmplx_mag_squared_q15.c ****         q15_t * pDst,
  56:.\DSP\Source\ComplexMathFunctions/arm_cmplx_mag_squared_q15.c ****         uint32_t numSamples)
  57:.\DSP\Source\ComplexMathFunctions/arm_cmplx_mag_squared_q15.c **** {
  58:.\DSP\Source\ComplexMathFunctions/arm_cmplx_mag_squared_q15.c ****   int32_t blockSize = numSamples;  /* loop counters */
  59:.\DSP\Source\ComplexMathFunctions/arm_cmplx_mag_squared_q15.c ****   uint32_t  blkCnt;           /* loop counters */
  60:.\DSP\Source\ComplexMathFunctions/arm_cmplx_mag_squared_q15.c ****   q31_t in;
  61:.\DSP\Source\ComplexMathFunctions/arm_cmplx_mag_squared_q15.c ****   q31_t acc0;                                    /* Accumulators */
  62:.\DSP\Source\ComplexMathFunctions/arm_cmplx_mag_squared_q15.c ****   q15x8x2_t vecSrc;
  63:.\DSP\Source\ComplexMathFunctions/arm_cmplx_mag_squared_q15.c ****   q15x8_t vReal, vImag;
  64:.\DSP\Source\ComplexMathFunctions/arm_cmplx_mag_squared_q15.c ****   q15x8_t vMagSq;
  65:.\DSP\Source\ComplexMathFunctions/arm_cmplx_mag_squared_q15.c **** 
  66:.\DSP\Source\ComplexMathFunctions/arm_cmplx_mag_squared_q15.c ****   
  67:.\DSP\Source\ComplexMathFunctions/arm_cmplx_mag_squared_q15.c ****   blkCnt = blockSize >> 3;
  68:.\DSP\Source\ComplexMathFunctions/arm_cmplx_mag_squared_q15.c ****   while (blkCnt > 0U)
  69:.\DSP\Source\ComplexMathFunctions/arm_cmplx_mag_squared_q15.c ****   {
  70:.\DSP\Source\ComplexMathFunctions/arm_cmplx_mag_squared_q15.c ****     vecSrc = vld2q(pSrc);
  71:.\DSP\Source\ComplexMathFunctions/arm_cmplx_mag_squared_q15.c ****     vReal = vmulhq(vecSrc.val[0], vecSrc.val[0]);
  72:.\DSP\Source\ComplexMathFunctions/arm_cmplx_mag_squared_q15.c ****     vImag = vmulhq(vecSrc.val[1], vecSrc.val[1]);
  73:.\DSP\Source\ComplexMathFunctions/arm_cmplx_mag_squared_q15.c ****     vMagSq = vqaddq(vReal, vImag);
  74:.\DSP\Source\ComplexMathFunctions/arm_cmplx_mag_squared_q15.c ****     vMagSq = vshrq(vMagSq, 1);
  75:.\DSP\Source\ComplexMathFunctions/arm_cmplx_mag_squared_q15.c **** 
  76:.\DSP\Source\ComplexMathFunctions/arm_cmplx_mag_squared_q15.c ****     vst1q(pDst, vMagSq);
  77:.\DSP\Source\ComplexMathFunctions/arm_cmplx_mag_squared_q15.c **** 
  78:.\DSP\Source\ComplexMathFunctions/arm_cmplx_mag_squared_q15.c ****     pSrc += 16;
  79:.\DSP\Source\ComplexMathFunctions/arm_cmplx_mag_squared_q15.c ****     pDst += 8;
  80:.\DSP\Source\ComplexMathFunctions/arm_cmplx_mag_squared_q15.c ****     /*
  81:.\DSP\Source\ComplexMathFunctions/arm_cmplx_mag_squared_q15.c ****      * Decrement the blkCnt loop counter
  82:.\DSP\Source\ComplexMathFunctions/arm_cmplx_mag_squared_q15.c ****      * Advance vector source and destination pointers
  83:.\DSP\Source\ComplexMathFunctions/arm_cmplx_mag_squared_q15.c ****      */
  84:.\DSP\Source\ComplexMathFunctions/arm_cmplx_mag_squared_q15.c ****     blkCnt --;
  85:.\DSP\Source\ComplexMathFunctions/arm_cmplx_mag_squared_q15.c ****   }
  86:.\DSP\Source\ComplexMathFunctions/arm_cmplx_mag_squared_q15.c **** 
  87:.\DSP\Source\ComplexMathFunctions/arm_cmplx_mag_squared_q15.c ****   /*
  88:.\DSP\Source\ComplexMathFunctions/arm_cmplx_mag_squared_q15.c ****    * tail
ARM GAS  C:\Users\IVYLIU~1\AppData\Local\Temp\cc3S6Fs0.s 			page 3


  89:.\DSP\Source\ComplexMathFunctions/arm_cmplx_mag_squared_q15.c ****    */
  90:.\DSP\Source\ComplexMathFunctions/arm_cmplx_mag_squared_q15.c ****   blkCnt = blockSize & 7;
  91:.\DSP\Source\ComplexMathFunctions/arm_cmplx_mag_squared_q15.c ****   while (blkCnt > 0U)
  92:.\DSP\Source\ComplexMathFunctions/arm_cmplx_mag_squared_q15.c ****   {
  93:.\DSP\Source\ComplexMathFunctions/arm_cmplx_mag_squared_q15.c ****     /* C[0] = (A[0] * A[0] + A[1] * A[1]) */
  94:.\DSP\Source\ComplexMathFunctions/arm_cmplx_mag_squared_q15.c **** 
  95:.\DSP\Source\ComplexMathFunctions/arm_cmplx_mag_squared_q15.c ****     in = read_q15x2_ia ((q15_t **) &pSrc);
  96:.\DSP\Source\ComplexMathFunctions/arm_cmplx_mag_squared_q15.c ****     acc0 = __SMUAD(in, in);
  97:.\DSP\Source\ComplexMathFunctions/arm_cmplx_mag_squared_q15.c **** 
  98:.\DSP\Source\ComplexMathFunctions/arm_cmplx_mag_squared_q15.c ****     /* store result in 3.13 format in destination buffer. */
  99:.\DSP\Source\ComplexMathFunctions/arm_cmplx_mag_squared_q15.c ****     *pDst++ = (q15_t) (acc0 >> 17);
 100:.\DSP\Source\ComplexMathFunctions/arm_cmplx_mag_squared_q15.c **** 
 101:.\DSP\Source\ComplexMathFunctions/arm_cmplx_mag_squared_q15.c **** 
 102:.\DSP\Source\ComplexMathFunctions/arm_cmplx_mag_squared_q15.c ****     /* Decrement loop counter */
 103:.\DSP\Source\ComplexMathFunctions/arm_cmplx_mag_squared_q15.c ****     blkCnt--;
 104:.\DSP\Source\ComplexMathFunctions/arm_cmplx_mag_squared_q15.c ****   }
 105:.\DSP\Source\ComplexMathFunctions/arm_cmplx_mag_squared_q15.c **** 
 106:.\DSP\Source\ComplexMathFunctions/arm_cmplx_mag_squared_q15.c **** }
 107:.\DSP\Source\ComplexMathFunctions/arm_cmplx_mag_squared_q15.c **** 
 108:.\DSP\Source\ComplexMathFunctions/arm_cmplx_mag_squared_q15.c **** #else
 109:.\DSP\Source\ComplexMathFunctions/arm_cmplx_mag_squared_q15.c **** void arm_cmplx_mag_squared_q15(
 110:.\DSP\Source\ComplexMathFunctions/arm_cmplx_mag_squared_q15.c ****   const q15_t * pSrc,
 111:.\DSP\Source\ComplexMathFunctions/arm_cmplx_mag_squared_q15.c ****         q15_t * pDst,
 112:.\DSP\Source\ComplexMathFunctions/arm_cmplx_mag_squared_q15.c ****         uint32_t numSamples)
 113:.\DSP\Source\ComplexMathFunctions/arm_cmplx_mag_squared_q15.c **** {
  27              		.loc 1 113 0
  28              		.cfi_startproc
  29              		@ args = 0, pretend = 0, frame = 0
  30              		@ frame_needed = 0, uses_anonymous_args = 0
  31              		@ link register save eliminated.
  32              	.LVL0:
  33 0000 30B4     		push	{r4, r5}
  34              		.cfi_def_cfa_offset 8
  35              		.cfi_offset 4, -8
  36              		.cfi_offset 5, -4
  37 0002 0D46     		mov	r5, r1
  38              	.LVL1:
 114:.\DSP\Source\ComplexMathFunctions/arm_cmplx_mag_squared_q15.c ****         uint32_t blkCnt;                               /* Loop counter */
 115:.\DSP\Source\ComplexMathFunctions/arm_cmplx_mag_squared_q15.c **** 
 116:.\DSP\Source\ComplexMathFunctions/arm_cmplx_mag_squared_q15.c **** #if defined (ARM_MATH_DSP)
 117:.\DSP\Source\ComplexMathFunctions/arm_cmplx_mag_squared_q15.c ****         q31_t in;
 118:.\DSP\Source\ComplexMathFunctions/arm_cmplx_mag_squared_q15.c ****         q31_t acc0;                                    /* Accumulators */
 119:.\DSP\Source\ComplexMathFunctions/arm_cmplx_mag_squared_q15.c **** #else
 120:.\DSP\Source\ComplexMathFunctions/arm_cmplx_mag_squared_q15.c ****         q15_t real, imag;                              /* Temporary input variables */
 121:.\DSP\Source\ComplexMathFunctions/arm_cmplx_mag_squared_q15.c ****         q31_t acc0, acc1;                              /* Accumulators */
 122:.\DSP\Source\ComplexMathFunctions/arm_cmplx_mag_squared_q15.c **** #endif
 123:.\DSP\Source\ComplexMathFunctions/arm_cmplx_mag_squared_q15.c **** 
 124:.\DSP\Source\ComplexMathFunctions/arm_cmplx_mag_squared_q15.c **** #if defined (ARM_MATH_LOOPUNROLL)
 125:.\DSP\Source\ComplexMathFunctions/arm_cmplx_mag_squared_q15.c **** 
 126:.\DSP\Source\ComplexMathFunctions/arm_cmplx_mag_squared_q15.c ****   /* Loop unrolling: Compute 4 outputs at a time */
 127:.\DSP\Source\ComplexMathFunctions/arm_cmplx_mag_squared_q15.c ****   blkCnt = numSamples >> 2U;
 128:.\DSP\Source\ComplexMathFunctions/arm_cmplx_mag_squared_q15.c **** 
 129:.\DSP\Source\ComplexMathFunctions/arm_cmplx_mag_squared_q15.c ****   while (blkCnt > 0U)
 130:.\DSP\Source\ComplexMathFunctions/arm_cmplx_mag_squared_q15.c ****   {
 131:.\DSP\Source\ComplexMathFunctions/arm_cmplx_mag_squared_q15.c ****     /* C[0] = (A[0] * A[0] + A[1] * A[1]) */
 132:.\DSP\Source\ComplexMathFunctions/arm_cmplx_mag_squared_q15.c **** 
 133:.\DSP\Source\ComplexMathFunctions/arm_cmplx_mag_squared_q15.c **** #if defined (ARM_MATH_DSP)
ARM GAS  C:\Users\IVYLIU~1\AppData\Local\Temp\cc3S6Fs0.s 			page 4


 134:.\DSP\Source\ComplexMathFunctions/arm_cmplx_mag_squared_q15.c ****     in = read_q15x2_ia (&pSrc);
 135:.\DSP\Source\ComplexMathFunctions/arm_cmplx_mag_squared_q15.c ****     acc0 = __SMUAD(in, in);
 136:.\DSP\Source\ComplexMathFunctions/arm_cmplx_mag_squared_q15.c ****     /* store result in 3.13 format in destination buffer. */
 137:.\DSP\Source\ComplexMathFunctions/arm_cmplx_mag_squared_q15.c ****     *pDst++ = (q15_t) (acc0 >> 17);
 138:.\DSP\Source\ComplexMathFunctions/arm_cmplx_mag_squared_q15.c **** 
 139:.\DSP\Source\ComplexMathFunctions/arm_cmplx_mag_squared_q15.c ****     in = read_q15x2_ia (&pSrc);
 140:.\DSP\Source\ComplexMathFunctions/arm_cmplx_mag_squared_q15.c ****     acc0 = __SMUAD(in, in);
 141:.\DSP\Source\ComplexMathFunctions/arm_cmplx_mag_squared_q15.c ****     *pDst++ = (q15_t) (acc0 >> 17);
 142:.\DSP\Source\ComplexMathFunctions/arm_cmplx_mag_squared_q15.c **** 
 143:.\DSP\Source\ComplexMathFunctions/arm_cmplx_mag_squared_q15.c ****     in = read_q15x2_ia (&pSrc);
 144:.\DSP\Source\ComplexMathFunctions/arm_cmplx_mag_squared_q15.c ****     acc0 = __SMUAD(in, in);
 145:.\DSP\Source\ComplexMathFunctions/arm_cmplx_mag_squared_q15.c ****     *pDst++ = (q15_t) (acc0 >> 17);
 146:.\DSP\Source\ComplexMathFunctions/arm_cmplx_mag_squared_q15.c **** 
 147:.\DSP\Source\ComplexMathFunctions/arm_cmplx_mag_squared_q15.c ****     in = read_q15x2_ia (&pSrc);
 148:.\DSP\Source\ComplexMathFunctions/arm_cmplx_mag_squared_q15.c ****     acc0 = __SMUAD(in, in);
 149:.\DSP\Source\ComplexMathFunctions/arm_cmplx_mag_squared_q15.c ****     *pDst++ = (q15_t) (acc0 >> 17);
 150:.\DSP\Source\ComplexMathFunctions/arm_cmplx_mag_squared_q15.c **** #else
 151:.\DSP\Source\ComplexMathFunctions/arm_cmplx_mag_squared_q15.c ****     real = *pSrc++;
 152:.\DSP\Source\ComplexMathFunctions/arm_cmplx_mag_squared_q15.c ****     imag = *pSrc++;
 153:.\DSP\Source\ComplexMathFunctions/arm_cmplx_mag_squared_q15.c ****     acc0 = ((q31_t) real * real);
 154:.\DSP\Source\ComplexMathFunctions/arm_cmplx_mag_squared_q15.c ****     acc1 = ((q31_t) imag * imag);
 155:.\DSP\Source\ComplexMathFunctions/arm_cmplx_mag_squared_q15.c ****     /* store result in 3.13 format in destination buffer. */
 156:.\DSP\Source\ComplexMathFunctions/arm_cmplx_mag_squared_q15.c ****     *pDst++ = (q15_t) (((q63_t) acc0 + acc1) >> 17);
 157:.\DSP\Source\ComplexMathFunctions/arm_cmplx_mag_squared_q15.c **** 
 158:.\DSP\Source\ComplexMathFunctions/arm_cmplx_mag_squared_q15.c ****     real = *pSrc++;
 159:.\DSP\Source\ComplexMathFunctions/arm_cmplx_mag_squared_q15.c ****     imag = *pSrc++;
 160:.\DSP\Source\ComplexMathFunctions/arm_cmplx_mag_squared_q15.c ****     acc0 = ((q31_t) real * real);
 161:.\DSP\Source\ComplexMathFunctions/arm_cmplx_mag_squared_q15.c ****     acc1 = ((q31_t) imag * imag);
 162:.\DSP\Source\ComplexMathFunctions/arm_cmplx_mag_squared_q15.c ****     *pDst++ = (q15_t) (((q63_t) acc0 + acc1) >> 17);
 163:.\DSP\Source\ComplexMathFunctions/arm_cmplx_mag_squared_q15.c **** 
 164:.\DSP\Source\ComplexMathFunctions/arm_cmplx_mag_squared_q15.c ****     real = *pSrc++;
 165:.\DSP\Source\ComplexMathFunctions/arm_cmplx_mag_squared_q15.c ****     imag = *pSrc++;
 166:.\DSP\Source\ComplexMathFunctions/arm_cmplx_mag_squared_q15.c ****     acc0 = ((q31_t) real * real);
 167:.\DSP\Source\ComplexMathFunctions/arm_cmplx_mag_squared_q15.c ****     acc1 = ((q31_t) imag * imag);
 168:.\DSP\Source\ComplexMathFunctions/arm_cmplx_mag_squared_q15.c ****     *pDst++ = (q15_t) (((q63_t) acc0 + acc1) >> 17);
 169:.\DSP\Source\ComplexMathFunctions/arm_cmplx_mag_squared_q15.c **** 
 170:.\DSP\Source\ComplexMathFunctions/arm_cmplx_mag_squared_q15.c ****     real = *pSrc++;
 171:.\DSP\Source\ComplexMathFunctions/arm_cmplx_mag_squared_q15.c ****     imag = *pSrc++;
 172:.\DSP\Source\ComplexMathFunctions/arm_cmplx_mag_squared_q15.c ****     acc0 = ((q31_t) real * real);
 173:.\DSP\Source\ComplexMathFunctions/arm_cmplx_mag_squared_q15.c ****     acc1 = ((q31_t) imag * imag);
 174:.\DSP\Source\ComplexMathFunctions/arm_cmplx_mag_squared_q15.c ****     *pDst++ = (q15_t) (((q63_t) acc0 + acc1) >> 17);
 175:.\DSP\Source\ComplexMathFunctions/arm_cmplx_mag_squared_q15.c **** #endif /* #if defined (ARM_MATH_DSP) */
 176:.\DSP\Source\ComplexMathFunctions/arm_cmplx_mag_squared_q15.c **** 
 177:.\DSP\Source\ComplexMathFunctions/arm_cmplx_mag_squared_q15.c ****     /* Decrement loop counter */
 178:.\DSP\Source\ComplexMathFunctions/arm_cmplx_mag_squared_q15.c ****     blkCnt--;
 179:.\DSP\Source\ComplexMathFunctions/arm_cmplx_mag_squared_q15.c ****   }
 180:.\DSP\Source\ComplexMathFunctions/arm_cmplx_mag_squared_q15.c **** 
 181:.\DSP\Source\ComplexMathFunctions/arm_cmplx_mag_squared_q15.c ****   /* Loop unrolling: Compute remaining outputs */
 182:.\DSP\Source\ComplexMathFunctions/arm_cmplx_mag_squared_q15.c ****   blkCnt = numSamples % 0x4U;
 183:.\DSP\Source\ComplexMathFunctions/arm_cmplx_mag_squared_q15.c **** 
 184:.\DSP\Source\ComplexMathFunctions/arm_cmplx_mag_squared_q15.c **** #else
 185:.\DSP\Source\ComplexMathFunctions/arm_cmplx_mag_squared_q15.c **** 
 186:.\DSP\Source\ComplexMathFunctions/arm_cmplx_mag_squared_q15.c ****   /* Initialize blkCnt with number of samples */
 187:.\DSP\Source\ComplexMathFunctions/arm_cmplx_mag_squared_q15.c ****   blkCnt = numSamples;
 188:.\DSP\Source\ComplexMathFunctions/arm_cmplx_mag_squared_q15.c **** 
 189:.\DSP\Source\ComplexMathFunctions/arm_cmplx_mag_squared_q15.c **** #endif /* #if defined (ARM_MATH_LOOPUNROLL) */
 190:.\DSP\Source\ComplexMathFunctions/arm_cmplx_mag_squared_q15.c **** 
ARM GAS  C:\Users\IVYLIU~1\AppData\Local\Temp\cc3S6Fs0.s 			page 5


 191:.\DSP\Source\ComplexMathFunctions/arm_cmplx_mag_squared_q15.c ****   while (blkCnt > 0U)
  39              		.loc 1 191 0
  40 0004 13E0     		b	.L2
  41              	.LVL2:
  42              	.L3:
 192:.\DSP\Source\ComplexMathFunctions/arm_cmplx_mag_squared_q15.c ****   {
 193:.\DSP\Source\ComplexMathFunctions/arm_cmplx_mag_squared_q15.c ****     /* C[0] = (A[0] * A[0] + A[1] * A[1]) */
 194:.\DSP\Source\ComplexMathFunctions/arm_cmplx_mag_squared_q15.c **** 
 195:.\DSP\Source\ComplexMathFunctions/arm_cmplx_mag_squared_q15.c **** #if defined (ARM_MATH_DSP)
 196:.\DSP\Source\ComplexMathFunctions/arm_cmplx_mag_squared_q15.c ****     in = read_q15x2_ia (&pSrc);
 197:.\DSP\Source\ComplexMathFunctions/arm_cmplx_mag_squared_q15.c ****     acc0 = __SMUAD(in, in);
 198:.\DSP\Source\ComplexMathFunctions/arm_cmplx_mag_squared_q15.c **** 
 199:.\DSP\Source\ComplexMathFunctions/arm_cmplx_mag_squared_q15.c ****     /* store result in 3.13 format in destination buffer. */
 200:.\DSP\Source\ComplexMathFunctions/arm_cmplx_mag_squared_q15.c ****     *pDst++ = (q15_t) (acc0 >> 17);
 201:.\DSP\Source\ComplexMathFunctions/arm_cmplx_mag_squared_q15.c **** #else
 202:.\DSP\Source\ComplexMathFunctions/arm_cmplx_mag_squared_q15.c ****     real = *pSrc++;
  43              		.loc 1 202 0
  44 0006 0446     		mov	r4, r0
  45              	.LVL3:
 203:.\DSP\Source\ComplexMathFunctions/arm_cmplx_mag_squared_q15.c ****     imag = *pSrc++;
 204:.\DSP\Source\ComplexMathFunctions/arm_cmplx_mag_squared_q15.c ****     acc0 = ((q31_t) real * real);
  46              		.loc 1 204 0
  47 0008 34F9043B 		ldrsh	r3, [r4], #4
  48 000c 03FB03F3 		mul	r3, r3, r3
  49              	.LVL4:
 205:.\DSP\Source\ComplexMathFunctions/arm_cmplx_mag_squared_q15.c ****     acc1 = ((q31_t) imag * imag);
  50              		.loc 1 205 0
  51 0010 B0F90200 		ldrsh	r0, [r0, #2]
  52              	.LVL5:
  53 0014 00FB00F0 		mul	r0, r0, r0
  54              	.LVL6:
 206:.\DSP\Source\ComplexMathFunctions/arm_cmplx_mag_squared_q15.c **** 
 207:.\DSP\Source\ComplexMathFunctions/arm_cmplx_mag_squared_q15.c ****     /* store result in 3.13 format in destination buffer. */
 208:.\DSP\Source\ComplexMathFunctions/arm_cmplx_mag_squared_q15.c ****     *pDst++ = (q15_t) (((q63_t) acc0 + acc1) >> 17);
  55              		.loc 1 208 0
  56 0018 C117     		asrs	r1, r0, #31
  57 001a C018     		adds	r0, r0, r3
  58              	.LVL7:
  59 001c 41EBE371 		adc	r1, r1, r3, asr #31
  60 0020 430C     		lsrs	r3, r0, #17
  61              	.LVL8:
  62 0022 43EAC133 		orr	r3, r3, r1, lsl #15
  63 0026 2B80     		strh	r3, [r5]	@ movhi
  64              	.LVL9:
 209:.\DSP\Source\ComplexMathFunctions/arm_cmplx_mag_squared_q15.c **** #endif
 210:.\DSP\Source\ComplexMathFunctions/arm_cmplx_mag_squared_q15.c **** 
 211:.\DSP\Source\ComplexMathFunctions/arm_cmplx_mag_squared_q15.c ****     /* Decrement loop counter */
 212:.\DSP\Source\ComplexMathFunctions/arm_cmplx_mag_squared_q15.c ****     blkCnt--;
  65              		.loc 1 212 0
  66 0028 013A     		subs	r2, r2, #1
  67              	.LVL10:
 208:.\DSP\Source\ComplexMathFunctions/arm_cmplx_mag_squared_q15.c **** #endif
  68              		.loc 1 208 0
  69 002a 0235     		adds	r5, r5, #2
  70              	.LVL11:
 203:.\DSP\Source\ComplexMathFunctions/arm_cmplx_mag_squared_q15.c ****     acc0 = ((q31_t) real * real);
  71              		.loc 1 203 0
ARM GAS  C:\Users\IVYLIU~1\AppData\Local\Temp\cc3S6Fs0.s 			page 6


  72 002c 2046     		mov	r0, r4
  73              	.LVL12:
  74              	.L2:
 191:.\DSP\Source\ComplexMathFunctions/arm_cmplx_mag_squared_q15.c ****   {
  75              		.loc 1 191 0
  76 002e 002A     		cmp	r2, #0
  77 0030 E9D1     		bne	.L3
 213:.\DSP\Source\ComplexMathFunctions/arm_cmplx_mag_squared_q15.c ****   }
 214:.\DSP\Source\ComplexMathFunctions/arm_cmplx_mag_squared_q15.c **** 
 215:.\DSP\Source\ComplexMathFunctions/arm_cmplx_mag_squared_q15.c **** }
  78              		.loc 1 215 0
  79 0032 30BC     		pop	{r4, r5}
  80              		.cfi_restore 5
  81              		.cfi_restore 4
  82              		.cfi_def_cfa_offset 0
  83              	.LVL13:
  84 0034 7047     		bx	lr
  85              		.cfi_endproc
  86              	.LFE84:
  87              		.size	arm_cmplx_mag_squared_q15, .-arm_cmplx_mag_squared_q15
  88 0036 00BF     		.text
  89              	.Letext0:
  90              		.file 2 "c:\\program files (x86)\\cypress\\psoc creator\\3.3\\psoc creator\\import\\gnu\\arm\\4.9.
  91              		.file 3 "c:\\program files (x86)\\cypress\\psoc creator\\3.3\\psoc creator\\import\\gnu\\arm\\4.9.
  92              		.file 4 ".\\DSP\\Include/arm_math_types.h"
  93              		.file 5 ".\\Core\\Include/cmsis_gcc.h"