ARM GAS  C:\Users\IVYLIU~1\AppData\Local\Temp\cccUJdeT.s 			page 1


   1              		.syntax unified
   2              		.cpu cortex-m3
   3              		.fpu softvfp
   4              		.eabi_attribute 20, 1
   5              		.eabi_attribute 21, 1
   6              		.eabi_attribute 23, 3
   7              		.eabi_attribute 24, 1
   8              		.eabi_attribute 25, 1
   9              		.eabi_attribute 26, 1
  10              		.eabi_attribute 30, 1
  11              		.eabi_attribute 34, 1
  12              		.eabi_attribute 18, 4
  13              		.thumb
  14              		.file	"arm_cfft_radix2_q15.c"
  15              		.text
  16              	.Ltext0:
  17              		.cfi_sections	.debug_frame
  18              		.section	.text.arm_radix2_butterfly_q15,"ax",%progbits
  19              		.align	2
  20              		.global	arm_radix2_butterfly_q15
  21              		.thumb
  22              		.thumb_func
  23              		.type	arm_radix2_butterfly_q15, %function
  24              	arm_radix2_butterfly_q15:
  25              	.LFB85:
  26              		.file 1 ".\\DSP\\Source\\TransformFunctions\\arm_cfft_radix2_q15.c"
   1:.\DSP\Source\TransformFunctions/arm_cfft_radix2_q15.c **** /* ----------------------------------------------------------------------
   2:.\DSP\Source\TransformFunctions/arm_cfft_radix2_q15.c ****  * Project:      CMSIS DSP Library
   3:.\DSP\Source\TransformFunctions/arm_cfft_radix2_q15.c ****  * Title:        arm_cfft_radix2_q15.c
   4:.\DSP\Source\TransformFunctions/arm_cfft_radix2_q15.c ****  * Description:  Radix-2 Decimation in Frequency CFFT & CIFFT Fixed point processing function
   5:.\DSP\Source\TransformFunctions/arm_cfft_radix2_q15.c ****  *
   6:.\DSP\Source\TransformFunctions/arm_cfft_radix2_q15.c ****  * $Date:        23 April 2021
   7:.\DSP\Source\TransformFunctions/arm_cfft_radix2_q15.c ****  * $Revision:    V1.9.0
   8:.\DSP\Source\TransformFunctions/arm_cfft_radix2_q15.c ****  *
   9:.\DSP\Source\TransformFunctions/arm_cfft_radix2_q15.c ****  * Target Processor: Cortex-M and Cortex-A cores
  10:.\DSP\Source\TransformFunctions/arm_cfft_radix2_q15.c ****  * -------------------------------------------------------------------- */
  11:.\DSP\Source\TransformFunctions/arm_cfft_radix2_q15.c **** /*
  12:.\DSP\Source\TransformFunctions/arm_cfft_radix2_q15.c ****  * Copyright (C) 2010-2021 ARM Limited or its affiliates. All rights reserved.
  13:.\DSP\Source\TransformFunctions/arm_cfft_radix2_q15.c ****  *
  14:.\DSP\Source\TransformFunctions/arm_cfft_radix2_q15.c ****  * SPDX-License-Identifier: Apache-2.0
  15:.\DSP\Source\TransformFunctions/arm_cfft_radix2_q15.c ****  *
  16:.\DSP\Source\TransformFunctions/arm_cfft_radix2_q15.c ****  * Licensed under the Apache License, Version 2.0 (the License); you may
  17:.\DSP\Source\TransformFunctions/arm_cfft_radix2_q15.c ****  * not use this file except in compliance with the License.
  18:.\DSP\Source\TransformFunctions/arm_cfft_radix2_q15.c ****  * You may obtain a copy of the License at
  19:.\DSP\Source\TransformFunctions/arm_cfft_radix2_q15.c ****  *
  20:.\DSP\Source\TransformFunctions/arm_cfft_radix2_q15.c ****  * www.apache.org/licenses/LICENSE-2.0
  21:.\DSP\Source\TransformFunctions/arm_cfft_radix2_q15.c ****  *
  22:.\DSP\Source\TransformFunctions/arm_cfft_radix2_q15.c ****  * Unless required by applicable law or agreed to in writing, software
  23:.\DSP\Source\TransformFunctions/arm_cfft_radix2_q15.c ****  * distributed under the License is distributed on an AS IS BASIS, WITHOUT
  24:.\DSP\Source\TransformFunctions/arm_cfft_radix2_q15.c ****  * WARRANTIES OR CONDITIONS OF ANY KIND, either express or implied.
  25:.\DSP\Source\TransformFunctions/arm_cfft_radix2_q15.c ****  * See the License for the specific language governing permissions and
  26:.\DSP\Source\TransformFunctions/arm_cfft_radix2_q15.c ****  * limitations under the License.
  27:.\DSP\Source\TransformFunctions/arm_cfft_radix2_q15.c ****  */
  28:.\DSP\Source\TransformFunctions/arm_cfft_radix2_q15.c **** 
  29:.\DSP\Source\TransformFunctions/arm_cfft_radix2_q15.c **** #include "dsp/transform_functions.h"
  30:.\DSP\Source\TransformFunctions/arm_cfft_radix2_q15.c **** 
  31:.\DSP\Source\TransformFunctions/arm_cfft_radix2_q15.c **** void arm_radix2_butterfly_q15(
ARM GAS  C:\Users\IVYLIU~1\AppData\Local\Temp\cccUJdeT.s 			page 2


  32:.\DSP\Source\TransformFunctions/arm_cfft_radix2_q15.c ****         q15_t * pSrc,
  33:.\DSP\Source\TransformFunctions/arm_cfft_radix2_q15.c ****         uint32_t fftLen,
  34:.\DSP\Source\TransformFunctions/arm_cfft_radix2_q15.c ****   const q15_t * pCoef,
  35:.\DSP\Source\TransformFunctions/arm_cfft_radix2_q15.c ****         uint16_t twidCoefModifier);
  36:.\DSP\Source\TransformFunctions/arm_cfft_radix2_q15.c **** 
  37:.\DSP\Source\TransformFunctions/arm_cfft_radix2_q15.c **** void arm_radix2_butterfly_inverse_q15(
  38:.\DSP\Source\TransformFunctions/arm_cfft_radix2_q15.c ****         q15_t * pSrc,
  39:.\DSP\Source\TransformFunctions/arm_cfft_radix2_q15.c ****         uint32_t fftLen,
  40:.\DSP\Source\TransformFunctions/arm_cfft_radix2_q15.c ****   const q15_t * pCoef,
  41:.\DSP\Source\TransformFunctions/arm_cfft_radix2_q15.c ****         uint16_t twidCoefModifier);
  42:.\DSP\Source\TransformFunctions/arm_cfft_radix2_q15.c **** 
  43:.\DSP\Source\TransformFunctions/arm_cfft_radix2_q15.c **** void arm_bitreversal_q15(
  44:.\DSP\Source\TransformFunctions/arm_cfft_radix2_q15.c ****         q15_t * pSrc,
  45:.\DSP\Source\TransformFunctions/arm_cfft_radix2_q15.c ****         uint32_t fftLen,
  46:.\DSP\Source\TransformFunctions/arm_cfft_radix2_q15.c ****         uint16_t bitRevFactor,
  47:.\DSP\Source\TransformFunctions/arm_cfft_radix2_q15.c ****   const uint16_t * pBitRevTab);
  48:.\DSP\Source\TransformFunctions/arm_cfft_radix2_q15.c **** 
  49:.\DSP\Source\TransformFunctions/arm_cfft_radix2_q15.c **** /**
  50:.\DSP\Source\TransformFunctions/arm_cfft_radix2_q15.c ****   @ingroup groupTransforms
  51:.\DSP\Source\TransformFunctions/arm_cfft_radix2_q15.c ****  */
  52:.\DSP\Source\TransformFunctions/arm_cfft_radix2_q15.c **** 
  53:.\DSP\Source\TransformFunctions/arm_cfft_radix2_q15.c **** /**
  54:.\DSP\Source\TransformFunctions/arm_cfft_radix2_q15.c ****   @addtogroup ComplexFFT
  55:.\DSP\Source\TransformFunctions/arm_cfft_radix2_q15.c ****   @{
  56:.\DSP\Source\TransformFunctions/arm_cfft_radix2_q15.c ****  */
  57:.\DSP\Source\TransformFunctions/arm_cfft_radix2_q15.c **** 
  58:.\DSP\Source\TransformFunctions/arm_cfft_radix2_q15.c **** /**
  59:.\DSP\Source\TransformFunctions/arm_cfft_radix2_q15.c ****   @brief         Processing function for the fixed-point CFFT/CIFFT.
  60:.\DSP\Source\TransformFunctions/arm_cfft_radix2_q15.c ****   @deprecated    Do not use this function. It has been superseded by \ref arm_cfft_q15 and will be 
  61:.\DSP\Source\TransformFunctions/arm_cfft_radix2_q15.c ****   @param[in]     S    points to an instance of the fixed-point CFFT/CIFFT structure
  62:.\DSP\Source\TransformFunctions/arm_cfft_radix2_q15.c ****   @param[in,out] pSrc points to the complex data buffer of size <code>2*fftLen</code>. Processing o
  63:.\DSP\Source\TransformFunctions/arm_cfft_radix2_q15.c ****   @return        none
  64:.\DSP\Source\TransformFunctions/arm_cfft_radix2_q15.c ****  */
  65:.\DSP\Source\TransformFunctions/arm_cfft_radix2_q15.c **** 
  66:.\DSP\Source\TransformFunctions/arm_cfft_radix2_q15.c **** void arm_cfft_radix2_q15(
  67:.\DSP\Source\TransformFunctions/arm_cfft_radix2_q15.c ****   const arm_cfft_radix2_instance_q15 * S,
  68:.\DSP\Source\TransformFunctions/arm_cfft_radix2_q15.c ****         q15_t * pSrc)
  69:.\DSP\Source\TransformFunctions/arm_cfft_radix2_q15.c **** {
  70:.\DSP\Source\TransformFunctions/arm_cfft_radix2_q15.c **** 
  71:.\DSP\Source\TransformFunctions/arm_cfft_radix2_q15.c ****   if (S->ifftFlag == 1U)
  72:.\DSP\Source\TransformFunctions/arm_cfft_radix2_q15.c ****   {
  73:.\DSP\Source\TransformFunctions/arm_cfft_radix2_q15.c ****     arm_radix2_butterfly_inverse_q15 (pSrc, S->fftLen, S->pTwiddle, S->twidCoefModifier);
  74:.\DSP\Source\TransformFunctions/arm_cfft_radix2_q15.c ****   }
  75:.\DSP\Source\TransformFunctions/arm_cfft_radix2_q15.c ****   else
  76:.\DSP\Source\TransformFunctions/arm_cfft_radix2_q15.c ****   {
  77:.\DSP\Source\TransformFunctions/arm_cfft_radix2_q15.c ****     arm_radix2_butterfly_q15 (pSrc, S->fftLen, S->pTwiddle, S->twidCoefModifier);
  78:.\DSP\Source\TransformFunctions/arm_cfft_radix2_q15.c ****   }
  79:.\DSP\Source\TransformFunctions/arm_cfft_radix2_q15.c **** 
  80:.\DSP\Source\TransformFunctions/arm_cfft_radix2_q15.c ****   arm_bitreversal_q15(pSrc, S->fftLen, S->bitRevFactor, S->pBitRevTable);
  81:.\DSP\Source\TransformFunctions/arm_cfft_radix2_q15.c **** }
  82:.\DSP\Source\TransformFunctions/arm_cfft_radix2_q15.c **** 
  83:.\DSP\Source\TransformFunctions/arm_cfft_radix2_q15.c **** /**
  84:.\DSP\Source\TransformFunctions/arm_cfft_radix2_q15.c ****   @} end of ComplexFFT group
  85:.\DSP\Source\TransformFunctions/arm_cfft_radix2_q15.c ****  */
  86:.\DSP\Source\TransformFunctions/arm_cfft_radix2_q15.c **** 
  87:.\DSP\Source\TransformFunctions/arm_cfft_radix2_q15.c **** void arm_radix2_butterfly_q15(
  88:.\DSP\Source\TransformFunctions/arm_cfft_radix2_q15.c ****         q15_t * pSrc,
ARM GAS  C:\Users\IVYLIU~1\AppData\Local\Temp\cccUJdeT.s 			page 3


  89:.\DSP\Source\TransformFunctions/arm_cfft_radix2_q15.c ****         uint32_t fftLen,
  90:.\DSP\Source\TransformFunctions/arm_cfft_radix2_q15.c ****   const q15_t * pCoef,
  91:.\DSP\Source\TransformFunctions/arm_cfft_radix2_q15.c ****         uint16_t twidCoefModifier)
  92:.\DSP\Source\TransformFunctions/arm_cfft_radix2_q15.c **** {
  27              		.loc 1 92 0
  28              		.cfi_startproc
  29              		@ args = 0, pretend = 0, frame = 24
  30              		@ frame_needed = 0, uses_anonymous_args = 0
  31              	.LVL0:
  32 0000 2DE9F04F 		push	{r4, r5, r6, r7, r8, r9, r10, fp, lr}
  33              		.cfi_def_cfa_offset 36
  34              		.cfi_offset 4, -36
  35              		.cfi_offset 5, -32
  36              		.cfi_offset 6, -28
  37              		.cfi_offset 7, -24
  38              		.cfi_offset 8, -20
  39              		.cfi_offset 9, -16
  40              		.cfi_offset 10, -12
  41              		.cfi_offset 11, -8
  42              		.cfi_offset 14, -4
  43 0004 87B0     		sub	sp, sp, #28
  44              		.cfi_def_cfa_offset 64
  45 0006 8146     		mov	r9, r0
  46 0008 8A46     		mov	r10, r1
  47 000a 0492     		str	r2, [sp, #16]
  48 000c 0293     		str	r3, [sp, #8]
  49              	.LVL1:
  93:.\DSP\Source\TransformFunctions/arm_cfft_radix2_q15.c **** #if defined (ARM_MATH_DSP)
  94:.\DSP\Source\TransformFunctions/arm_cfft_radix2_q15.c **** 
  95:.\DSP\Source\TransformFunctions/arm_cfft_radix2_q15.c ****   uint32_t i, j, k, l;
  96:.\DSP\Source\TransformFunctions/arm_cfft_radix2_q15.c ****   uint32_t n1, n2, ia;
  97:.\DSP\Source\TransformFunctions/arm_cfft_radix2_q15.c ****   q15_t in;
  98:.\DSP\Source\TransformFunctions/arm_cfft_radix2_q15.c ****   q31_t T, S, R;
  99:.\DSP\Source\TransformFunctions/arm_cfft_radix2_q15.c ****   q31_t coeff, out1, out2;
 100:.\DSP\Source\TransformFunctions/arm_cfft_radix2_q15.c **** 
 101:.\DSP\Source\TransformFunctions/arm_cfft_radix2_q15.c ****   //N = fftLen;
 102:.\DSP\Source\TransformFunctions/arm_cfft_radix2_q15.c ****   n2 = fftLen;
 103:.\DSP\Source\TransformFunctions/arm_cfft_radix2_q15.c **** 
 104:.\DSP\Source\TransformFunctions/arm_cfft_radix2_q15.c ****   n1 = n2;
 105:.\DSP\Source\TransformFunctions/arm_cfft_radix2_q15.c ****   n2 = n2 >> 1;
 106:.\DSP\Source\TransformFunctions/arm_cfft_radix2_q15.c ****   ia = 0;
 107:.\DSP\Source\TransformFunctions/arm_cfft_radix2_q15.c **** 
 108:.\DSP\Source\TransformFunctions/arm_cfft_radix2_q15.c ****   // loop for groups
 109:.\DSP\Source\TransformFunctions/arm_cfft_radix2_q15.c ****   for (i = 0; i < n2; i++)
 110:.\DSP\Source\TransformFunctions/arm_cfft_radix2_q15.c ****   {
 111:.\DSP\Source\TransformFunctions/arm_cfft_radix2_q15.c ****     coeff = read_q15x2 ((q15_t *)pCoef + (ia * 2U));
 112:.\DSP\Source\TransformFunctions/arm_cfft_radix2_q15.c **** 
 113:.\DSP\Source\TransformFunctions/arm_cfft_radix2_q15.c ****     ia = ia + twidCoefModifier;
 114:.\DSP\Source\TransformFunctions/arm_cfft_radix2_q15.c **** 
 115:.\DSP\Source\TransformFunctions/arm_cfft_radix2_q15.c ****     l = i + n2;
 116:.\DSP\Source\TransformFunctions/arm_cfft_radix2_q15.c **** 
 117:.\DSP\Source\TransformFunctions/arm_cfft_radix2_q15.c ****     T = read_q15x2 (pSrc + (2 * i));
 118:.\DSP\Source\TransformFunctions/arm_cfft_radix2_q15.c ****     in = ((int16_t) (T & 0xFFFF)) >> 1;
 119:.\DSP\Source\TransformFunctions/arm_cfft_radix2_q15.c ****     T = ((T >> 1) & 0xFFFF0000) | (in & 0xFFFF);
 120:.\DSP\Source\TransformFunctions/arm_cfft_radix2_q15.c **** 
 121:.\DSP\Source\TransformFunctions/arm_cfft_radix2_q15.c ****     S = read_q15x2 (pSrc + (2 * l));
 122:.\DSP\Source\TransformFunctions/arm_cfft_radix2_q15.c ****     in = ((int16_t) (S & 0xFFFF)) >> 1;
ARM GAS  C:\Users\IVYLIU~1\AppData\Local\Temp\cccUJdeT.s 			page 4


 123:.\DSP\Source\TransformFunctions/arm_cfft_radix2_q15.c ****     S = ((S >> 1) & 0xFFFF0000) | (in & 0xFFFF);
 124:.\DSP\Source\TransformFunctions/arm_cfft_radix2_q15.c **** 
 125:.\DSP\Source\TransformFunctions/arm_cfft_radix2_q15.c ****     R = __QSUB16(T, S);
 126:.\DSP\Source\TransformFunctions/arm_cfft_radix2_q15.c **** 
 127:.\DSP\Source\TransformFunctions/arm_cfft_radix2_q15.c ****     write_q15x2 (pSrc + (2 * i), __SHADD16(T, S));
 128:.\DSP\Source\TransformFunctions/arm_cfft_radix2_q15.c **** 
 129:.\DSP\Source\TransformFunctions/arm_cfft_radix2_q15.c **** #ifndef ARM_MATH_BIG_ENDIAN
 130:.\DSP\Source\TransformFunctions/arm_cfft_radix2_q15.c ****     out1 = __SMUAD(coeff, R) >> 16;
 131:.\DSP\Source\TransformFunctions/arm_cfft_radix2_q15.c ****     out2 = __SMUSDX(coeff, R);
 132:.\DSP\Source\TransformFunctions/arm_cfft_radix2_q15.c **** #else
 133:.\DSP\Source\TransformFunctions/arm_cfft_radix2_q15.c ****     out1 = __SMUSDX(R, coeff) >> 16U;
 134:.\DSP\Source\TransformFunctions/arm_cfft_radix2_q15.c ****     out2 = __SMUAD(coeff, R);
 135:.\DSP\Source\TransformFunctions/arm_cfft_radix2_q15.c **** #endif /* #ifndef ARM_MATH_BIG_ENDIAN */
 136:.\DSP\Source\TransformFunctions/arm_cfft_radix2_q15.c **** 
 137:.\DSP\Source\TransformFunctions/arm_cfft_radix2_q15.c ****     write_q15x2 (pSrc + (2U * l), (q31_t) ((out2) & 0xFFFF0000) | (out1 & 0x0000FFFF));
 138:.\DSP\Source\TransformFunctions/arm_cfft_radix2_q15.c **** 
 139:.\DSP\Source\TransformFunctions/arm_cfft_radix2_q15.c ****     coeff = read_q15x2 ((q15_t *)pCoef + (ia * 2U));
 140:.\DSP\Source\TransformFunctions/arm_cfft_radix2_q15.c **** 
 141:.\DSP\Source\TransformFunctions/arm_cfft_radix2_q15.c ****     ia = ia + twidCoefModifier;
 142:.\DSP\Source\TransformFunctions/arm_cfft_radix2_q15.c **** 
 143:.\DSP\Source\TransformFunctions/arm_cfft_radix2_q15.c ****     /* loop for butterfly */
 144:.\DSP\Source\TransformFunctions/arm_cfft_radix2_q15.c ****     i++;
 145:.\DSP\Source\TransformFunctions/arm_cfft_radix2_q15.c ****     l++;
 146:.\DSP\Source\TransformFunctions/arm_cfft_radix2_q15.c **** 
 147:.\DSP\Source\TransformFunctions/arm_cfft_radix2_q15.c ****     T = read_q15x2 (pSrc + (2 * i));
 148:.\DSP\Source\TransformFunctions/arm_cfft_radix2_q15.c ****     in = ((int16_t) (T & 0xFFFF)) >> 1;
 149:.\DSP\Source\TransformFunctions/arm_cfft_radix2_q15.c ****     T = ((T >> 1) & 0xFFFF0000) | (in & 0xFFFF);
 150:.\DSP\Source\TransformFunctions/arm_cfft_radix2_q15.c **** 
 151:.\DSP\Source\TransformFunctions/arm_cfft_radix2_q15.c ****     S = read_q15x2 (pSrc + (2 * l));
 152:.\DSP\Source\TransformFunctions/arm_cfft_radix2_q15.c ****     in = ((int16_t) (S & 0xFFFF)) >> 1;
 153:.\DSP\Source\TransformFunctions/arm_cfft_radix2_q15.c ****     S = ((S >> 1) & 0xFFFF0000) | (in & 0xFFFF);
 154:.\DSP\Source\TransformFunctions/arm_cfft_radix2_q15.c **** 
 155:.\DSP\Source\TransformFunctions/arm_cfft_radix2_q15.c ****     R = __QSUB16(T, S);
 156:.\DSP\Source\TransformFunctions/arm_cfft_radix2_q15.c **** 
 157:.\DSP\Source\TransformFunctions/arm_cfft_radix2_q15.c ****     write_q15x2 (pSrc + (2 * i), __SHADD16(T, S));
 158:.\DSP\Source\TransformFunctions/arm_cfft_radix2_q15.c **** 
 159:.\DSP\Source\TransformFunctions/arm_cfft_radix2_q15.c **** #ifndef ARM_MATH_BIG_ENDIAN
 160:.\DSP\Source\TransformFunctions/arm_cfft_radix2_q15.c ****     out1 = __SMUAD(coeff, R) >> 16;
 161:.\DSP\Source\TransformFunctions/arm_cfft_radix2_q15.c ****     out2 = __SMUSDX(coeff, R);
 162:.\DSP\Source\TransformFunctions/arm_cfft_radix2_q15.c **** #else
 163:.\DSP\Source\TransformFunctions/arm_cfft_radix2_q15.c **** 
 164:.\DSP\Source\TransformFunctions/arm_cfft_radix2_q15.c ****     out1 = __SMUSDX(R, coeff) >> 16U;
 165:.\DSP\Source\TransformFunctions/arm_cfft_radix2_q15.c ****     out2 = __SMUAD(coeff, R);
 166:.\DSP\Source\TransformFunctions/arm_cfft_radix2_q15.c **** #endif /* #ifndef ARM_MATH_BIG_ENDIAN */
 167:.\DSP\Source\TransformFunctions/arm_cfft_radix2_q15.c **** 
 168:.\DSP\Source\TransformFunctions/arm_cfft_radix2_q15.c ****     write_q15x2 (pSrc + (2U * l), (q31_t) ((out2) & 0xFFFF0000) | (out1 & 0x0000FFFF));
 169:.\DSP\Source\TransformFunctions/arm_cfft_radix2_q15.c **** 
 170:.\DSP\Source\TransformFunctions/arm_cfft_radix2_q15.c ****   } /* groups loop end */
 171:.\DSP\Source\TransformFunctions/arm_cfft_radix2_q15.c **** 
 172:.\DSP\Source\TransformFunctions/arm_cfft_radix2_q15.c ****   twidCoefModifier = twidCoefModifier << 1U;
 173:.\DSP\Source\TransformFunctions/arm_cfft_radix2_q15.c **** 
 174:.\DSP\Source\TransformFunctions/arm_cfft_radix2_q15.c ****   /* loop for stage */
 175:.\DSP\Source\TransformFunctions/arm_cfft_radix2_q15.c ****   for (k = fftLen / 2; k > 2; k = k >> 1)
 176:.\DSP\Source\TransformFunctions/arm_cfft_radix2_q15.c ****   {
 177:.\DSP\Source\TransformFunctions/arm_cfft_radix2_q15.c ****     n1 = n2;
 178:.\DSP\Source\TransformFunctions/arm_cfft_radix2_q15.c ****     n2 = n2 >> 1;
 179:.\DSP\Source\TransformFunctions/arm_cfft_radix2_q15.c ****     ia = 0;
ARM GAS  C:\Users\IVYLIU~1\AppData\Local\Temp\cccUJdeT.s 			page 5


 180:.\DSP\Source\TransformFunctions/arm_cfft_radix2_q15.c **** 
 181:.\DSP\Source\TransformFunctions/arm_cfft_radix2_q15.c ****     /* loop for groups */
 182:.\DSP\Source\TransformFunctions/arm_cfft_radix2_q15.c ****     for (j = 0; j < n2; j++)
 183:.\DSP\Source\TransformFunctions/arm_cfft_radix2_q15.c ****     {
 184:.\DSP\Source\TransformFunctions/arm_cfft_radix2_q15.c ****       coeff = read_q15x2 ((q15_t *)pCoef + (ia * 2U));
 185:.\DSP\Source\TransformFunctions/arm_cfft_radix2_q15.c **** 
 186:.\DSP\Source\TransformFunctions/arm_cfft_radix2_q15.c ****       ia = ia + twidCoefModifier;
 187:.\DSP\Source\TransformFunctions/arm_cfft_radix2_q15.c **** 
 188:.\DSP\Source\TransformFunctions/arm_cfft_radix2_q15.c ****       /* loop for butterfly */
 189:.\DSP\Source\TransformFunctions/arm_cfft_radix2_q15.c ****       for (i = j; i < fftLen; i += n1)
 190:.\DSP\Source\TransformFunctions/arm_cfft_radix2_q15.c ****       {
 191:.\DSP\Source\TransformFunctions/arm_cfft_radix2_q15.c ****         l = i + n2;
 192:.\DSP\Source\TransformFunctions/arm_cfft_radix2_q15.c **** 
 193:.\DSP\Source\TransformFunctions/arm_cfft_radix2_q15.c ****         T = read_q15x2 (pSrc + (2 * i));
 194:.\DSP\Source\TransformFunctions/arm_cfft_radix2_q15.c **** 
 195:.\DSP\Source\TransformFunctions/arm_cfft_radix2_q15.c ****         S = read_q15x2 (pSrc + (2 * l));
 196:.\DSP\Source\TransformFunctions/arm_cfft_radix2_q15.c **** 
 197:.\DSP\Source\TransformFunctions/arm_cfft_radix2_q15.c ****         R = __QSUB16(T, S);
 198:.\DSP\Source\TransformFunctions/arm_cfft_radix2_q15.c **** 
 199:.\DSP\Source\TransformFunctions/arm_cfft_radix2_q15.c ****         write_q15x2 (pSrc + (2 * i), __SHADD16(T, S));
 200:.\DSP\Source\TransformFunctions/arm_cfft_radix2_q15.c **** 
 201:.\DSP\Source\TransformFunctions/arm_cfft_radix2_q15.c **** #ifndef ARM_MATH_BIG_ENDIAN
 202:.\DSP\Source\TransformFunctions/arm_cfft_radix2_q15.c ****         out1 = __SMUAD(coeff, R) >> 16;
 203:.\DSP\Source\TransformFunctions/arm_cfft_radix2_q15.c ****         out2 = __SMUSDX(coeff, R);
 204:.\DSP\Source\TransformFunctions/arm_cfft_radix2_q15.c **** #else
 205:.\DSP\Source\TransformFunctions/arm_cfft_radix2_q15.c ****         out1 = __SMUSDX(R, coeff) >> 16U;
 206:.\DSP\Source\TransformFunctions/arm_cfft_radix2_q15.c ****         out2 = __SMUAD(coeff, R);
 207:.\DSP\Source\TransformFunctions/arm_cfft_radix2_q15.c **** #endif /* #ifndef ARM_MATH_BIG_ENDIAN */
 208:.\DSP\Source\TransformFunctions/arm_cfft_radix2_q15.c **** 
 209:.\DSP\Source\TransformFunctions/arm_cfft_radix2_q15.c ****         write_q15x2 (pSrc + (2U * l), (q31_t) ((out2) & 0xFFFF0000) | (out1 & 0x0000FFFF));
 210:.\DSP\Source\TransformFunctions/arm_cfft_radix2_q15.c **** 
 211:.\DSP\Source\TransformFunctions/arm_cfft_radix2_q15.c ****         i += n1;
 212:.\DSP\Source\TransformFunctions/arm_cfft_radix2_q15.c **** 
 213:.\DSP\Source\TransformFunctions/arm_cfft_radix2_q15.c ****         l = i + n2;
 214:.\DSP\Source\TransformFunctions/arm_cfft_radix2_q15.c **** 
 215:.\DSP\Source\TransformFunctions/arm_cfft_radix2_q15.c ****         T = read_q15x2 (pSrc + (2 * i));
 216:.\DSP\Source\TransformFunctions/arm_cfft_radix2_q15.c **** 
 217:.\DSP\Source\TransformFunctions/arm_cfft_radix2_q15.c ****         S = read_q15x2 (pSrc + (2 * l));
 218:.\DSP\Source\TransformFunctions/arm_cfft_radix2_q15.c **** 
 219:.\DSP\Source\TransformFunctions/arm_cfft_radix2_q15.c ****         R = __QSUB16(T, S);
 220:.\DSP\Source\TransformFunctions/arm_cfft_radix2_q15.c **** 
 221:.\DSP\Source\TransformFunctions/arm_cfft_radix2_q15.c ****         write_q15x2 (pSrc + (2 * i), __SHADD16(T, S));
 222:.\DSP\Source\TransformFunctions/arm_cfft_radix2_q15.c **** 
 223:.\DSP\Source\TransformFunctions/arm_cfft_radix2_q15.c **** #ifndef ARM_MATH_BIG_ENDIAN
 224:.\DSP\Source\TransformFunctions/arm_cfft_radix2_q15.c ****         out1 = __SMUAD(coeff, R) >> 16;
 225:.\DSP\Source\TransformFunctions/arm_cfft_radix2_q15.c ****         out2 = __SMUSDX(coeff, R);
 226:.\DSP\Source\TransformFunctions/arm_cfft_radix2_q15.c **** #else
 227:.\DSP\Source\TransformFunctions/arm_cfft_radix2_q15.c ****         out1 = __SMUSDX(R, coeff) >> 16U;
 228:.\DSP\Source\TransformFunctions/arm_cfft_radix2_q15.c ****         out2 = __SMUAD(coeff, R);
 229:.\DSP\Source\TransformFunctions/arm_cfft_radix2_q15.c **** #endif /* #ifndef ARM_MATH_BIG_ENDIAN */
 230:.\DSP\Source\TransformFunctions/arm_cfft_radix2_q15.c **** 
 231:.\DSP\Source\TransformFunctions/arm_cfft_radix2_q15.c ****         write_q15x2 (pSrc + (2U * l), (q31_t) ((out2) & 0xFFFF0000) | (out1 & 0x0000FFFF));
 232:.\DSP\Source\TransformFunctions/arm_cfft_radix2_q15.c **** 
 233:.\DSP\Source\TransformFunctions/arm_cfft_radix2_q15.c ****       } /* butterfly loop end */
 234:.\DSP\Source\TransformFunctions/arm_cfft_radix2_q15.c **** 
 235:.\DSP\Source\TransformFunctions/arm_cfft_radix2_q15.c ****     } /* groups loop end */
 236:.\DSP\Source\TransformFunctions/arm_cfft_radix2_q15.c **** 
ARM GAS  C:\Users\IVYLIU~1\AppData\Local\Temp\cccUJdeT.s 			page 6


 237:.\DSP\Source\TransformFunctions/arm_cfft_radix2_q15.c ****     twidCoefModifier = twidCoefModifier << 1U;
 238:.\DSP\Source\TransformFunctions/arm_cfft_radix2_q15.c ****   } /* stages loop end */
 239:.\DSP\Source\TransformFunctions/arm_cfft_radix2_q15.c **** 
 240:.\DSP\Source\TransformFunctions/arm_cfft_radix2_q15.c ****   n1 = n2;
 241:.\DSP\Source\TransformFunctions/arm_cfft_radix2_q15.c ****   n2 = n2 >> 1;
 242:.\DSP\Source\TransformFunctions/arm_cfft_radix2_q15.c ****   ia = 0;
 243:.\DSP\Source\TransformFunctions/arm_cfft_radix2_q15.c **** 
 244:.\DSP\Source\TransformFunctions/arm_cfft_radix2_q15.c ****   coeff = read_q15x2 ((q15_t *)pCoef + (ia * 2U));
 245:.\DSP\Source\TransformFunctions/arm_cfft_radix2_q15.c **** 
 246:.\DSP\Source\TransformFunctions/arm_cfft_radix2_q15.c ****   ia = ia + twidCoefModifier;
 247:.\DSP\Source\TransformFunctions/arm_cfft_radix2_q15.c **** 
 248:.\DSP\Source\TransformFunctions/arm_cfft_radix2_q15.c ****   /* loop for butterfly */
 249:.\DSP\Source\TransformFunctions/arm_cfft_radix2_q15.c ****   for (i = 0; i < fftLen; i += n1)
 250:.\DSP\Source\TransformFunctions/arm_cfft_radix2_q15.c ****   {
 251:.\DSP\Source\TransformFunctions/arm_cfft_radix2_q15.c ****     l = i + n2;
 252:.\DSP\Source\TransformFunctions/arm_cfft_radix2_q15.c **** 
 253:.\DSP\Source\TransformFunctions/arm_cfft_radix2_q15.c ****     T = read_q15x2 (pSrc + (2 * i));
 254:.\DSP\Source\TransformFunctions/arm_cfft_radix2_q15.c **** 
 255:.\DSP\Source\TransformFunctions/arm_cfft_radix2_q15.c ****     S = read_q15x2 (pSrc + (2 * l));
 256:.\DSP\Source\TransformFunctions/arm_cfft_radix2_q15.c **** 
 257:.\DSP\Source\TransformFunctions/arm_cfft_radix2_q15.c ****     R = __QSUB16(T, S);
 258:.\DSP\Source\TransformFunctions/arm_cfft_radix2_q15.c **** 
 259:.\DSP\Source\TransformFunctions/arm_cfft_radix2_q15.c ****     write_q15x2 (pSrc + (2 * i), __QADD16(T, S));
 260:.\DSP\Source\TransformFunctions/arm_cfft_radix2_q15.c **** 
 261:.\DSP\Source\TransformFunctions/arm_cfft_radix2_q15.c ****     write_q15x2 (pSrc + (2 * l), R);
 262:.\DSP\Source\TransformFunctions/arm_cfft_radix2_q15.c **** 
 263:.\DSP\Source\TransformFunctions/arm_cfft_radix2_q15.c ****     i += n1;
 264:.\DSP\Source\TransformFunctions/arm_cfft_radix2_q15.c ****     l = i + n2;
 265:.\DSP\Source\TransformFunctions/arm_cfft_radix2_q15.c **** 
 266:.\DSP\Source\TransformFunctions/arm_cfft_radix2_q15.c ****     T = read_q15x2 (pSrc + (2 * i));
 267:.\DSP\Source\TransformFunctions/arm_cfft_radix2_q15.c **** 
 268:.\DSP\Source\TransformFunctions/arm_cfft_radix2_q15.c ****     S = read_q15x2 (pSrc + (2 * l));
 269:.\DSP\Source\TransformFunctions/arm_cfft_radix2_q15.c **** 
 270:.\DSP\Source\TransformFunctions/arm_cfft_radix2_q15.c ****     R = __QSUB16(T, S);
 271:.\DSP\Source\TransformFunctions/arm_cfft_radix2_q15.c **** 
 272:.\DSP\Source\TransformFunctions/arm_cfft_radix2_q15.c ****     write_q15x2 (pSrc + (2 * i), __QADD16(T, S));
 273:.\DSP\Source\TransformFunctions/arm_cfft_radix2_q15.c **** 
 274:.\DSP\Source\TransformFunctions/arm_cfft_radix2_q15.c ****     write_q15x2 (pSrc + (2 * l), R);
 275:.\DSP\Source\TransformFunctions/arm_cfft_radix2_q15.c **** 
 276:.\DSP\Source\TransformFunctions/arm_cfft_radix2_q15.c ****   } /* groups loop end */
 277:.\DSP\Source\TransformFunctions/arm_cfft_radix2_q15.c **** 
 278:.\DSP\Source\TransformFunctions/arm_cfft_radix2_q15.c **** 
 279:.\DSP\Source\TransformFunctions/arm_cfft_radix2_q15.c **** #else /* #if defined (ARM_MATH_DSP) */
 280:.\DSP\Source\TransformFunctions/arm_cfft_radix2_q15.c **** 
 281:.\DSP\Source\TransformFunctions/arm_cfft_radix2_q15.c ****   uint32_t i, j, k, l;
 282:.\DSP\Source\TransformFunctions/arm_cfft_radix2_q15.c ****   uint32_t n1, n2, ia;
 283:.\DSP\Source\TransformFunctions/arm_cfft_radix2_q15.c ****   q15_t xt, yt, cosVal, sinVal;
 284:.\DSP\Source\TransformFunctions/arm_cfft_radix2_q15.c **** 
 285:.\DSP\Source\TransformFunctions/arm_cfft_radix2_q15.c **** 
 286:.\DSP\Source\TransformFunctions/arm_cfft_radix2_q15.c ****   // N = fftLen;
 287:.\DSP\Source\TransformFunctions/arm_cfft_radix2_q15.c ****   n2 = fftLen;
 288:.\DSP\Source\TransformFunctions/arm_cfft_radix2_q15.c **** 
 289:.\DSP\Source\TransformFunctions/arm_cfft_radix2_q15.c ****   n1 = n2;
 290:.\DSP\Source\TransformFunctions/arm_cfft_radix2_q15.c ****   n2 = n2 >> 1;
  50              		.loc 1 290 0
  51 000e 4FEA5108 		lsr	r8, r1, #1
  52              	.LVL2:
ARM GAS  C:\Users\IVYLIU~1\AppData\Local\Temp\cccUJdeT.s 			page 7


 291:.\DSP\Source\TransformFunctions/arm_cfft_radix2_q15.c ****   ia = 0;
  53              		.loc 1 291 0
  54 0012 4FF0000C 		mov	ip, #0
 292:.\DSP\Source\TransformFunctions/arm_cfft_radix2_q15.c **** 
 293:.\DSP\Source\TransformFunctions/arm_cfft_radix2_q15.c ****   /* loop for groups */
 294:.\DSP\Source\TransformFunctions/arm_cfft_radix2_q15.c ****   for (j = 0; j < n2; j++)
  55              		.loc 1 294 0
  56 0016 E346     		mov	fp, ip
  57 0018 4EE0     		b	.L2
  58              	.LVL3:
  59              	.L5:
 295:.\DSP\Source\TransformFunctions/arm_cfft_radix2_q15.c ****   {
 296:.\DSP\Source\TransformFunctions/arm_cfft_radix2_q15.c ****     cosVal = pCoef[(ia * 2)];
  60              		.loc 1 296 0
  61 001a 049A     		ldr	r2, [sp, #16]
  62 001c 32F82C30 		ldrh	r3, [r2, ip, lsl #2]
  63 0020 0093     		str	r3, [sp]
  64              	.LVL4:
 297:.\DSP\Source\TransformFunctions/arm_cfft_radix2_q15.c ****     sinVal = pCoef[(ia * 2) + 1];
  65              		.loc 1 297 0
  66 0022 02EB8C03 		add	r3, r2, ip, lsl #2
  67 0026 5B88     		ldrh	r3, [r3, #2]
  68 0028 0193     		str	r3, [sp, #4]
  69              	.LVL5:
 298:.\DSP\Source\TransformFunctions/arm_cfft_radix2_q15.c ****     ia = ia + twidCoefModifier;
  70              		.loc 1 298 0
  71 002a 029B     		ldr	r3, [sp, #8]
  72 002c 9C44     		add	ip, ip, r3
  73              	.LVL6:
 299:.\DSP\Source\TransformFunctions/arm_cfft_radix2_q15.c **** 
 300:.\DSP\Source\TransformFunctions/arm_cfft_radix2_q15.c ****     /* loop for butterfly */
 301:.\DSP\Source\TransformFunctions/arm_cfft_radix2_q15.c ****     for (i = j; i < fftLen; i += n1)
  74              		.loc 1 301 0
  75 002e 5E46     		mov	r6, fp
  76 0030 3EE0     		b	.L3
  77              	.LVL7:
  78              	.L4:
 302:.\DSP\Source\TransformFunctions/arm_cfft_radix2_q15.c ****     {
 303:.\DSP\Source\TransformFunctions/arm_cfft_radix2_q15.c ****       l = i + n2;
  79              		.loc 1 303 0 discriminator 3
  80 0032 06EB0805 		add	r5, r6, r8
  81              	.LVL8:
 304:.\DSP\Source\TransformFunctions/arm_cfft_radix2_q15.c ****       xt = (pSrc[2 * i] >> 1U) - (pSrc[2 * l] >> 1U);
  82              		.loc 1 304 0 discriminator 3
  83 0036 4FEA860E 		lsl	lr, r6, #2
  84 003a 39F92620 		ldrsh	r2, [r9, r6, lsl #2]
  85 003e C2F34F02 		ubfx	r2, r2, #1, #16
  86 0042 A800     		lsls	r0, r5, #2
  87 0044 39F92530 		ldrsh	r3, [r9, r5, lsl #2]
  88 0048 C3F34F03 		ubfx	r3, r3, #1, #16
  89 004c D41A     		subs	r4, r2, r3
  90              	.LVL9:
 305:.\DSP\Source\TransformFunctions/arm_cfft_radix2_q15.c ****       pSrc[2 * i] = ((pSrc[2 * i] >> 1U) + (pSrc[2 * l] >> 1U)) >> 1U;
  91              		.loc 1 305 0 discriminator 3
  92 004e 12B2     		sxth	r2, r2
  93 0050 1BB2     		sxth	r3, r3
  94 0052 1344     		add	r3, r3, r2
ARM GAS  C:\Users\IVYLIU~1\AppData\Local\Temp\cccUJdeT.s 			page 8


  95 0054 5B10     		asrs	r3, r3, #1
  96 0056 29F82630 		strh	r3, [r9, r6, lsl #2]	@ movhi
 306:.\DSP\Source\TransformFunctions/arm_cfft_radix2_q15.c **** 
 307:.\DSP\Source\TransformFunctions/arm_cfft_radix2_q15.c ****       yt = (pSrc[2 * i + 1] >> 1U) - (pSrc[2 * l + 1] >> 1U);
  97              		.loc 1 307 0 discriminator 3
  98 005a 0EF1020E 		add	lr, lr, #2
  99 005e 39F90E10 		ldrsh	r1, [r9, lr]
 100 0062 C1F34F01 		ubfx	r1, r1, #1, #16
 101 0066 0230     		adds	r0, r0, #2
 102 0068 39F90070 		ldrsh	r7, [r9, r0]
 103 006c C7F34F07 		ubfx	r7, r7, #1, #16
 104 0070 CA1B     		subs	r2, r1, r7
 105              	.LVL10:
 308:.\DSP\Source\TransformFunctions/arm_cfft_radix2_q15.c ****       pSrc[2 * i + 1] = ((pSrc[2 * l + 1] >> 1U) +
 106              		.loc 1 308 0 discriminator 3
 107 0072 3FB2     		sxth	r7, r7
 309:.\DSP\Source\TransformFunctions/arm_cfft_radix2_q15.c ****                          (pSrc[2 * i + 1] >> 1U)  ) >> 1U;
 108              		.loc 1 309 0 discriminator 3
 109 0074 09B2     		sxth	r1, r1
 308:.\DSP\Source\TransformFunctions/arm_cfft_radix2_q15.c ****       pSrc[2 * i + 1] = ((pSrc[2 * l + 1] >> 1U) +
 110              		.loc 1 308 0 discriminator 3
 111 0076 3944     		add	r1, r1, r7
 112              		.loc 1 309 0 discriminator 3
 113 0078 4910     		asrs	r1, r1, #1
 308:.\DSP\Source\TransformFunctions/arm_cfft_radix2_q15.c ****       pSrc[2 * i + 1] = ((pSrc[2 * l + 1] >> 1U) +
 114              		.loc 1 308 0 discriminator 3
 115 007a 29F80E10 		strh	r1, [r9, lr]	@ movhi
 310:.\DSP\Source\TransformFunctions/arm_cfft_radix2_q15.c **** 
 311:.\DSP\Source\TransformFunctions/arm_cfft_radix2_q15.c ****       pSrc[2 * l] = (((int16_t) (((q31_t) xt * cosVal) >> 16)) +
 116              		.loc 1 311 0 discriminator 3
 117 007e 24B2     		sxth	r4, r4
 118 0080 BDF90070 		ldrsh	r7, [sp]
 119 0084 07FB04FE 		mul	lr, r7, r4
 312:.\DSP\Source\TransformFunctions/arm_cfft_radix2_q15.c ****                      ((int16_t) (((q31_t) yt * sinVal) >> 16)));
 120              		.loc 1 312 0 discriminator 3
 121 0088 12B2     		sxth	r2, r2
 122 008a BDF90430 		ldrsh	r3, [sp, #4]
 123 008e 03FB02F1 		mul	r1, r3, r2
 124 0092 0914     		asrs	r1, r1, #16
 311:.\DSP\Source\TransformFunctions/arm_cfft_radix2_q15.c ****                      ((int16_t) (((q31_t) yt * sinVal) >> 16)));
 125              		.loc 1 311 0 discriminator 3
 126 0094 01EB2E41 		add	r1, r1, lr, asr #16
 127 0098 29F82510 		strh	r1, [r9, r5, lsl #2]	@ movhi
 313:.\DSP\Source\TransformFunctions/arm_cfft_radix2_q15.c **** 
 314:.\DSP\Source\TransformFunctions/arm_cfft_radix2_q15.c ****       pSrc[2U * l + 1] = (((int16_t) (((q31_t) yt * cosVal) >> 16)) -
 128              		.loc 1 314 0 discriminator 3
 129 009c 02FB07F2 		mul	r2, r2, r7
 130              	.LVL11:
 315:.\DSP\Source\TransformFunctions/arm_cfft_radix2_q15.c ****                           ((int16_t) (((q31_t) xt * sinVal) >> 16)));
 131              		.loc 1 315 0 discriminator 3
 132 00a0 03FB04F3 		mul	r3, r3, r4
 133 00a4 1B14     		asrs	r3, r3, #16
 314:.\DSP\Source\TransformFunctions/arm_cfft_radix2_q15.c ****                           ((int16_t) (((q31_t) xt * sinVal) >> 16)));
 134              		.loc 1 314 0 discriminator 3
 135 00a6 C3EB2242 		rsb	r2, r3, r2, asr #16
 136 00aa 29F80020 		strh	r2, [r9, r0]	@ movhi
 301:.\DSP\Source\TransformFunctions/arm_cfft_radix2_q15.c ****     {
ARM GAS  C:\Users\IVYLIU~1\AppData\Local\Temp\cccUJdeT.s 			page 9


 137              		.loc 1 301 0 discriminator 3
 138 00ae 5644     		add	r6, r6, r10
 139              	.LVL12:
 140              	.L3:
 301:.\DSP\Source\TransformFunctions/arm_cfft_radix2_q15.c ****     {
 141              		.loc 1 301 0 is_stmt 0 discriminator 1
 142 00b0 5645     		cmp	r6, r10
 143 00b2 BED3     		bcc	.L4
 294:.\DSP\Source\TransformFunctions/arm_cfft_radix2_q15.c ****   {
 144              		.loc 1 294 0 is_stmt 1 discriminator 2
 145 00b4 0BF1010B 		add	fp, fp, #1
 146              	.LVL13:
 147              	.L2:
 294:.\DSP\Source\TransformFunctions/arm_cfft_radix2_q15.c ****   {
 148              		.loc 1 294 0 is_stmt 0 discriminator 1
 149 00b8 C345     		cmp	fp, r8
 150 00ba AED3     		bcc	.L5
 316:.\DSP\Source\TransformFunctions/arm_cfft_radix2_q15.c **** 
 317:.\DSP\Source\TransformFunctions/arm_cfft_radix2_q15.c ****     } /* butterfly loop end */
 318:.\DSP\Source\TransformFunctions/arm_cfft_radix2_q15.c **** 
 319:.\DSP\Source\TransformFunctions/arm_cfft_radix2_q15.c ****   } /* groups loop end */
 320:.\DSP\Source\TransformFunctions/arm_cfft_radix2_q15.c **** 
 321:.\DSP\Source\TransformFunctions/arm_cfft_radix2_q15.c ****   twidCoefModifier = twidCoefModifier << 1U;
 151              		.loc 1 321 0 is_stmt 1
 152 00bc 029B     		ldr	r3, [sp, #8]
 153 00be 4FEA430B 		lsl	fp, r3, #1
 154              	.LVL14:
 155 00c2 1FFA8BF3 		uxth	r3, fp
 156 00c6 0393     		str	r3, [sp, #12]
 157              	.LVL15:
 322:.\DSP\Source\TransformFunctions/arm_cfft_radix2_q15.c **** 
 323:.\DSP\Source\TransformFunctions/arm_cfft_radix2_q15.c ****   /* loop for stage */
 324:.\DSP\Source\TransformFunctions/arm_cfft_radix2_q15.c ****   for (k = fftLen / 2; k > 2; k = k >> 1)
 158              		.loc 1 324 0
 159 00c8 4FEA5A03 		lsr	r3, r10, #1
 160              	.LVL16:
 161 00cc 0593     		str	r3, [sp, #20]
 162              	.LVL17:
 163 00ce 59E0     		b	.L6
 164              	.LVL18:
 165              	.L11:
 325:.\DSP\Source\TransformFunctions/arm_cfft_radix2_q15.c ****   {
 326:.\DSP\Source\TransformFunctions/arm_cfft_radix2_q15.c ****     n1 = n2;
 327:.\DSP\Source\TransformFunctions/arm_cfft_radix2_q15.c ****     n2 = n2 >> 1;
 166              		.loc 1 327 0
 167 00d0 4FEA580C 		lsr	ip, r8, #1
 168              	.LVL19:
 328:.\DSP\Source\TransformFunctions/arm_cfft_radix2_q15.c ****     ia = 0;
 169              		.loc 1 328 0
 170 00d4 4FF0000B 		mov	fp, #0
 329:.\DSP\Source\TransformFunctions/arm_cfft_radix2_q15.c **** 
 330:.\DSP\Source\TransformFunctions/arm_cfft_radix2_q15.c ****     /* loop for groups */
 331:.\DSP\Source\TransformFunctions/arm_cfft_radix2_q15.c ****     for (j = 0; j < n2; j++)
 171              		.loc 1 331 0
 172 00d8 CDF808B0 		str	fp, [sp, #8]
 173 00dc 47E0     		b	.L7
 174              	.LVL20:
ARM GAS  C:\Users\IVYLIU~1\AppData\Local\Temp\cccUJdeT.s 			page 10


 175              	.L10:
 332:.\DSP\Source\TransformFunctions/arm_cfft_radix2_q15.c ****     {
 333:.\DSP\Source\TransformFunctions/arm_cfft_radix2_q15.c ****       cosVal = pCoef[ia * 2];
 176              		.loc 1 333 0
 177 00de 049A     		ldr	r2, [sp, #16]
 178 00e0 32F82B30 		ldrh	r3, [r2, fp, lsl #2]
 179              	.LVL21:
 180 00e4 0093     		str	r3, [sp]
 181              	.LVL22:
 334:.\DSP\Source\TransformFunctions/arm_cfft_radix2_q15.c ****       sinVal = pCoef[(ia * 2) + 1];
 182              		.loc 1 334 0
 183 00e6 02EB8B03 		add	r3, r2, fp, lsl #2
 184 00ea 5B88     		ldrh	r3, [r3, #2]
 185 00ec 0193     		str	r3, [sp, #4]
 186              	.LVL23:
 335:.\DSP\Source\TransformFunctions/arm_cfft_radix2_q15.c ****       ia = ia + twidCoefModifier;
 187              		.loc 1 335 0
 188 00ee 039B     		ldr	r3, [sp, #12]
 189 00f0 9B44     		add	fp, fp, r3
 190              	.LVL24:
 336:.\DSP\Source\TransformFunctions/arm_cfft_radix2_q15.c **** 
 337:.\DSP\Source\TransformFunctions/arm_cfft_radix2_q15.c ****       /* loop for butterfly */
 338:.\DSP\Source\TransformFunctions/arm_cfft_radix2_q15.c ****       for (i = j; i < fftLen; i += n1)
 191              		.loc 1 338 0
 192 00f2 029E     		ldr	r6, [sp, #8]
 193 00f4 36E0     		b	.L8
 194              	.LVL25:
 195              	.L9:
 339:.\DSP\Source\TransformFunctions/arm_cfft_radix2_q15.c ****       {
 340:.\DSP\Source\TransformFunctions/arm_cfft_radix2_q15.c ****         l = i + n2;
 196              		.loc 1 340 0 discriminator 3
 197 00f6 06EB0C05 		add	r5, r6, ip
 198              	.LVL26:
 341:.\DSP\Source\TransformFunctions/arm_cfft_radix2_q15.c ****         xt = pSrc[2 * i] - pSrc[2 * l];
 199              		.loc 1 341 0 discriminator 3
 200 00fa B700     		lsls	r7, r6, #2
 201 00fc 39F82620 		ldrh	r2, [r9, r6, lsl #2]
 202 0100 A800     		lsls	r0, r5, #2
 203 0102 39F82530 		ldrh	r3, [r9, r5, lsl #2]
 204 0106 D41A     		subs	r4, r2, r3
 205              	.LVL27:
 342:.\DSP\Source\TransformFunctions/arm_cfft_radix2_q15.c ****         pSrc[2 * i] = (pSrc[2 * i] + pSrc[2 * l]) >> 1U;
 206              		.loc 1 342 0 discriminator 3
 207 0108 12B2     		sxth	r2, r2
 208 010a 1BB2     		sxth	r3, r3
 209 010c 1344     		add	r3, r3, r2
 210 010e 5B10     		asrs	r3, r3, #1
 211 0110 29F82630 		strh	r3, [r9, r6, lsl #2]	@ movhi
 343:.\DSP\Source\TransformFunctions/arm_cfft_radix2_q15.c **** 
 344:.\DSP\Source\TransformFunctions/arm_cfft_radix2_q15.c ****         yt = pSrc[2 * i + 1] - pSrc[2 * l + 1];
 212              		.loc 1 344 0 discriminator 3
 213 0114 0237     		adds	r7, r7, #2
 214 0116 39F80710 		ldrh	r1, [r9, r7]
 215 011a 0230     		adds	r0, r0, #2
 216 011c 39F800E0 		ldrh	lr, [r9, r0]
 217 0120 CEEB0102 		rsb	r2, lr, r1
 218              	.LVL28:
ARM GAS  C:\Users\IVYLIU~1\AppData\Local\Temp\cccUJdeT.s 			page 11


 345:.\DSP\Source\TransformFunctions/arm_cfft_radix2_q15.c ****         pSrc[2 * i + 1] = (pSrc[2 * l + 1] + pSrc[2 * i + 1]) >> 1U;
 219              		.loc 1 345 0 discriminator 3
 220 0124 0FFA8EFE 		sxth	lr, lr
 221 0128 09B2     		sxth	r1, r1
 222 012a 7144     		add	r1, r1, lr
 223 012c 4910     		asrs	r1, r1, #1
 224 012e 29F80710 		strh	r1, [r9, r7]	@ movhi
 346:.\DSP\Source\TransformFunctions/arm_cfft_radix2_q15.c **** 
 347:.\DSP\Source\TransformFunctions/arm_cfft_radix2_q15.c ****         pSrc[2 * l] = (((int16_t) (((q31_t) xt * cosVal) >> 16)) +
 225              		.loc 1 347 0 discriminator 3
 226 0132 24B2     		sxth	r4, r4
 227 0134 BDF90070 		ldrsh	r7, [sp]
 228 0138 07FB04FE 		mul	lr, r7, r4
 348:.\DSP\Source\TransformFunctions/arm_cfft_radix2_q15.c ****                        ((int16_t) (((q31_t) yt * sinVal) >> 16)));
 229              		.loc 1 348 0 discriminator 3
 230 013c 12B2     		sxth	r2, r2
 231 013e BDF90430 		ldrsh	r3, [sp, #4]
 232 0142 03FB02F1 		mul	r1, r3, r2
 233 0146 0914     		asrs	r1, r1, #16
 347:.\DSP\Source\TransformFunctions/arm_cfft_radix2_q15.c ****                        ((int16_t) (((q31_t) yt * sinVal) >> 16)));
 234              		.loc 1 347 0 discriminator 3
 235 0148 01EB2E41 		add	r1, r1, lr, asr #16
 236 014c 29F82510 		strh	r1, [r9, r5, lsl #2]	@ movhi
 349:.\DSP\Source\TransformFunctions/arm_cfft_radix2_q15.c **** 
 350:.\DSP\Source\TransformFunctions/arm_cfft_radix2_q15.c ****         pSrc[2U * l + 1] = (((int16_t) (((q31_t) yt * cosVal) >> 16)) -
 237              		.loc 1 350 0 discriminator 3
 238 0150 02FB07F2 		mul	r2, r2, r7
 239              	.LVL29:
 351:.\DSP\Source\TransformFunctions/arm_cfft_radix2_q15.c ****                             ((int16_t) (((q31_t) xt * sinVal) >> 16)));
 240              		.loc 1 351 0 discriminator 3
 241 0154 03FB04F3 		mul	r3, r3, r4
 242 0158 1B14     		asrs	r3, r3, #16
 350:.\DSP\Source\TransformFunctions/arm_cfft_radix2_q15.c ****                             ((int16_t) (((q31_t) xt * sinVal) >> 16)));
 243              		.loc 1 350 0 discriminator 3
 244 015a C3EB2242 		rsb	r2, r3, r2, asr #16
 245 015e 29F80020 		strh	r2, [r9, r0]	@ movhi
 338:.\DSP\Source\TransformFunctions/arm_cfft_radix2_q15.c ****       {
 246              		.loc 1 338 0 discriminator 3
 247 0162 4644     		add	r6, r6, r8
 248              	.LVL30:
 249              	.L8:
 338:.\DSP\Source\TransformFunctions/arm_cfft_radix2_q15.c ****       {
 250              		.loc 1 338 0 is_stmt 0 discriminator 1
 251 0164 5645     		cmp	r6, r10
 252 0166 C6D3     		bcc	.L9
 331:.\DSP\Source\TransformFunctions/arm_cfft_radix2_q15.c ****     {
 253              		.loc 1 331 0 is_stmt 1 discriminator 2
 254 0168 029B     		ldr	r3, [sp, #8]
 255 016a 0133     		adds	r3, r3, #1
 256 016c 0293     		str	r3, [sp, #8]
 257              	.LVL31:
 258              	.L7:
 331:.\DSP\Source\TransformFunctions/arm_cfft_radix2_q15.c ****     {
 259              		.loc 1 331 0 is_stmt 0 discriminator 1
 260 016e 029B     		ldr	r3, [sp, #8]
 261 0170 6345     		cmp	r3, ip
 262 0172 B4D3     		bcc	.L10
ARM GAS  C:\Users\IVYLIU~1\AppData\Local\Temp\cccUJdeT.s 			page 12


 352:.\DSP\Source\TransformFunctions/arm_cfft_radix2_q15.c **** 
 353:.\DSP\Source\TransformFunctions/arm_cfft_radix2_q15.c ****       } /* butterfly loop end */
 354:.\DSP\Source\TransformFunctions/arm_cfft_radix2_q15.c **** 
 355:.\DSP\Source\TransformFunctions/arm_cfft_radix2_q15.c ****     } /* groups loop end */
 356:.\DSP\Source\TransformFunctions/arm_cfft_radix2_q15.c **** 
 357:.\DSP\Source\TransformFunctions/arm_cfft_radix2_q15.c ****     twidCoefModifier = twidCoefModifier << 1U;
 263              		.loc 1 357 0 is_stmt 1 discriminator 2
 264 0174 039B     		ldr	r3, [sp, #12]
 265 0176 5B00     		lsls	r3, r3, #1
 266              	.LVL32:
 267 0178 9BB2     		uxth	r3, r3
 268 017a 0393     		str	r3, [sp, #12]
 324:.\DSP\Source\TransformFunctions/arm_cfft_radix2_q15.c ****   {
 269              		.loc 1 324 0 discriminator 2
 270 017c 059B     		ldr	r3, [sp, #20]
 271              	.LVL33:
 272 017e 5B08     		lsrs	r3, r3, #1
 273 0180 0593     		str	r3, [sp, #20]
 274              	.LVL34:
 327:.\DSP\Source\TransformFunctions/arm_cfft_radix2_q15.c ****     ia = 0;
 275              		.loc 1 327 0 discriminator 2
 276 0182 E046     		mov	r8, ip
 277              	.LVL35:
 278              	.L6:
 324:.\DSP\Source\TransformFunctions/arm_cfft_radix2_q15.c ****   {
 279              		.loc 1 324 0 discriminator 1
 280 0184 059B     		ldr	r3, [sp, #20]
 281 0186 022B     		cmp	r3, #2
 282 0188 A2D8     		bhi	.L11
 283              	.LVL36:
 358:.\DSP\Source\TransformFunctions/arm_cfft_radix2_q15.c ****   } /* stages loop end */
 359:.\DSP\Source\TransformFunctions/arm_cfft_radix2_q15.c **** 
 360:.\DSP\Source\TransformFunctions/arm_cfft_radix2_q15.c ****   n1 = n2;
 361:.\DSP\Source\TransformFunctions/arm_cfft_radix2_q15.c ****   n2 = n2 >> 1;
 284              		.loc 1 361 0
 285 018a 4FEA5805 		lsr	r5, r8, #1
 286              	.LVL37:
 362:.\DSP\Source\TransformFunctions/arm_cfft_radix2_q15.c ****   ia = 0;
 363:.\DSP\Source\TransformFunctions/arm_cfft_radix2_q15.c **** 
 364:.\DSP\Source\TransformFunctions/arm_cfft_radix2_q15.c ****   /* loop for groups */
 365:.\DSP\Source\TransformFunctions/arm_cfft_radix2_q15.c ****   for (j = 0; j < n2; j++)
 287              		.loc 1 365 0
 288 018e 0026     		movs	r6, #0
 289 0190 20E0     		b	.L12
 290              	.LVL38:
 291              	.L13:
 366:.\DSP\Source\TransformFunctions/arm_cfft_radix2_q15.c ****   {
 367:.\DSP\Source\TransformFunctions/arm_cfft_radix2_q15.c ****     cosVal = pCoef[ia * 2];
 368:.\DSP\Source\TransformFunctions/arm_cfft_radix2_q15.c ****     sinVal = pCoef[(ia * 2) + 1];
 369:.\DSP\Source\TransformFunctions/arm_cfft_radix2_q15.c **** 
 370:.\DSP\Source\TransformFunctions/arm_cfft_radix2_q15.c ****     ia = ia + twidCoefModifier;
 371:.\DSP\Source\TransformFunctions/arm_cfft_radix2_q15.c **** 
 372:.\DSP\Source\TransformFunctions/arm_cfft_radix2_q15.c ****     /* loop for butterfly */
 373:.\DSP\Source\TransformFunctions/arm_cfft_radix2_q15.c ****     for (i = j; i < fftLen; i += n1)
 374:.\DSP\Source\TransformFunctions/arm_cfft_radix2_q15.c ****     {
 375:.\DSP\Source\TransformFunctions/arm_cfft_radix2_q15.c ****       l = i + n2;
 292              		.loc 1 375 0 discriminator 3
ARM GAS  C:\Users\IVYLIU~1\AppData\Local\Temp\cccUJdeT.s 			page 13


 293 0192 5C19     		adds	r4, r3, r5
 294              	.LVL39:
 376:.\DSP\Source\TransformFunctions/arm_cfft_radix2_q15.c ****       xt = pSrc[2 * i] - pSrc[2 * l];
 295              		.loc 1 376 0 discriminator 3
 296 0194 9900     		lsls	r1, r3, #2
 297 0196 39F823E0 		ldrh	lr, [r9, r3, lsl #2]
 298 019a A200     		lsls	r2, r4, #2
 299 019c 39F82400 		ldrh	r0, [r9, r4, lsl #2]
 300 01a0 C0EB0E07 		rsb	r7, r0, lr
 301              	.LVL40:
 377:.\DSP\Source\TransformFunctions/arm_cfft_radix2_q15.c ****       pSrc[2 * i] = (pSrc[2 * i] + pSrc[2 * l]);
 302              		.loc 1 377 0 discriminator 3
 303 01a4 7044     		add	r0, r0, lr
 304 01a6 29F82300 		strh	r0, [r9, r3, lsl #2]	@ movhi
 378:.\DSP\Source\TransformFunctions/arm_cfft_radix2_q15.c **** 
 379:.\DSP\Source\TransformFunctions/arm_cfft_radix2_q15.c ****       yt = pSrc[2 * i + 1] - pSrc[2 * l + 1];
 305              		.loc 1 379 0 discriminator 3
 306 01aa 0231     		adds	r1, r1, #2
 307 01ac 39F801E0 		ldrh	lr, [r9, r1]
 308 01b0 0232     		adds	r2, r2, #2
 309 01b2 39F80200 		ldrh	r0, [r9, r2]
 310 01b6 C0EB0E0C 		rsb	ip, r0, lr
 311              	.LVL41:
 380:.\DSP\Source\TransformFunctions/arm_cfft_radix2_q15.c ****       pSrc[2 * i + 1] = (pSrc[2 * l + 1] + pSrc[2 * i + 1]);
 312              		.loc 1 380 0 discriminator 3
 313 01ba 7044     		add	r0, r0, lr
 314 01bc 29F80100 		strh	r0, [r9, r1]	@ movhi
 381:.\DSP\Source\TransformFunctions/arm_cfft_radix2_q15.c **** 
 382:.\DSP\Source\TransformFunctions/arm_cfft_radix2_q15.c ****       pSrc[2 * l] = xt;
 315              		.loc 1 382 0 discriminator 3
 316 01c0 29F82470 		strh	r7, [r9, r4, lsl #2]	@ movhi
 383:.\DSP\Source\TransformFunctions/arm_cfft_radix2_q15.c **** 
 384:.\DSP\Source\TransformFunctions/arm_cfft_radix2_q15.c ****       pSrc[2 * l + 1] = yt;
 317              		.loc 1 384 0 discriminator 3
 318 01c4 29F802C0 		strh	ip, [r9, r2]	@ movhi
 373:.\DSP\Source\TransformFunctions/arm_cfft_radix2_q15.c ****     {
 319              		.loc 1 373 0 discriminator 3
 320 01c8 4344     		add	r3, r3, r8
 321              	.LVL42:
 322 01ca 00E0     		b	.L14
 323              	.LVL43:
 324              	.L15:
 325 01cc 3346     		mov	r3, r6
 326              	.L14:
 327              	.LVL44:
 373:.\DSP\Source\TransformFunctions/arm_cfft_radix2_q15.c ****     {
 328              		.loc 1 373 0 is_stmt 0 discriminator 1
 329 01ce 5345     		cmp	r3, r10
 330 01d0 DFD3     		bcc	.L13
 365:.\DSP\Source\TransformFunctions/arm_cfft_radix2_q15.c ****   {
 331              		.loc 1 365 0 is_stmt 1 discriminator 2
 332 01d2 0136     		adds	r6, r6, #1
 333              	.LVL45:
 334              	.L12:
 365:.\DSP\Source\TransformFunctions/arm_cfft_radix2_q15.c ****   {
 335              		.loc 1 365 0 is_stmt 0 discriminator 1
 336 01d4 AE42     		cmp	r6, r5
ARM GAS  C:\Users\IVYLIU~1\AppData\Local\Temp\cccUJdeT.s 			page 14


 337 01d6 F9D3     		bcc	.L15
 385:.\DSP\Source\TransformFunctions/arm_cfft_radix2_q15.c **** 
 386:.\DSP\Source\TransformFunctions/arm_cfft_radix2_q15.c ****     } /* butterfly loop end */
 387:.\DSP\Source\TransformFunctions/arm_cfft_radix2_q15.c **** 
 388:.\DSP\Source\TransformFunctions/arm_cfft_radix2_q15.c ****   } /* groups loop end */
 389:.\DSP\Source\TransformFunctions/arm_cfft_radix2_q15.c **** 
 390:.\DSP\Source\TransformFunctions/arm_cfft_radix2_q15.c ****   twidCoefModifier = twidCoefModifier << 1U;
 391:.\DSP\Source\TransformFunctions/arm_cfft_radix2_q15.c **** 
 392:.\DSP\Source\TransformFunctions/arm_cfft_radix2_q15.c **** #endif /* #if defined (ARM_MATH_DSP) */
 393:.\DSP\Source\TransformFunctions/arm_cfft_radix2_q15.c **** 
 394:.\DSP\Source\TransformFunctions/arm_cfft_radix2_q15.c **** }
 338              		.loc 1 394 0 is_stmt 1
 339 01d8 07B0     		add	sp, sp, #28
 340              		.cfi_def_cfa_offset 36
 341              		@ sp needed
 342 01da BDE8F08F 		pop	{r4, r5, r6, r7, r8, r9, r10, fp, pc}
 343              		.cfi_endproc
 344              	.LFE85:
 345              		.size	arm_radix2_butterfly_q15, .-arm_radix2_butterfly_q15
 346 01de 00BF     		.section	.text.arm_radix2_butterfly_inverse_q15,"ax",%progbits
 347              		.align	2
 348              		.global	arm_radix2_butterfly_inverse_q15
 349              		.thumb
 350              		.thumb_func
 351              		.type	arm_radix2_butterfly_inverse_q15, %function
 352              	arm_radix2_butterfly_inverse_q15:
 353              	.LFB86:
 395:.\DSP\Source\TransformFunctions/arm_cfft_radix2_q15.c **** 
 396:.\DSP\Source\TransformFunctions/arm_cfft_radix2_q15.c **** 
 397:.\DSP\Source\TransformFunctions/arm_cfft_radix2_q15.c **** void arm_radix2_butterfly_inverse_q15(
 398:.\DSP\Source\TransformFunctions/arm_cfft_radix2_q15.c ****         q15_t * pSrc,
 399:.\DSP\Source\TransformFunctions/arm_cfft_radix2_q15.c ****         uint32_t fftLen,
 400:.\DSP\Source\TransformFunctions/arm_cfft_radix2_q15.c ****   const q15_t * pCoef,
 401:.\DSP\Source\TransformFunctions/arm_cfft_radix2_q15.c ****         uint16_t twidCoefModifier)
 402:.\DSP\Source\TransformFunctions/arm_cfft_radix2_q15.c **** {
 354              		.loc 1 402 0
 355              		.cfi_startproc
 356              		@ args = 0, pretend = 0, frame = 24
 357              		@ frame_needed = 0, uses_anonymous_args = 0
 358              	.LVL46:
 359 0000 2DE9F04F 		push	{r4, r5, r6, r7, r8, r9, r10, fp, lr}
 360              		.cfi_def_cfa_offset 36
 361              		.cfi_offset 4, -36
 362              		.cfi_offset 5, -32
 363              		.cfi_offset 6, -28
 364              		.cfi_offset 7, -24
 365              		.cfi_offset 8, -20
 366              		.cfi_offset 9, -16
 367              		.cfi_offset 10, -12
 368              		.cfi_offset 11, -8
 369              		.cfi_offset 14, -4
 370 0004 87B0     		sub	sp, sp, #28
 371              		.cfi_def_cfa_offset 64
 372 0006 8146     		mov	r9, r0
 373 0008 8A46     		mov	r10, r1
 374 000a 0492     		str	r2, [sp, #16]
 375 000c 0293     		str	r3, [sp, #8]
ARM GAS  C:\Users\IVYLIU~1\AppData\Local\Temp\cccUJdeT.s 			page 15


 376              	.LVL47:
 403:.\DSP\Source\TransformFunctions/arm_cfft_radix2_q15.c **** #if defined (ARM_MATH_DSP)
 404:.\DSP\Source\TransformFunctions/arm_cfft_radix2_q15.c **** 
 405:.\DSP\Source\TransformFunctions/arm_cfft_radix2_q15.c ****         uint32_t i, j, k, l;
 406:.\DSP\Source\TransformFunctions/arm_cfft_radix2_q15.c ****         uint32_t n1, n2, ia;
 407:.\DSP\Source\TransformFunctions/arm_cfft_radix2_q15.c ****         q15_t in;
 408:.\DSP\Source\TransformFunctions/arm_cfft_radix2_q15.c ****         q31_t T, S, R;
 409:.\DSP\Source\TransformFunctions/arm_cfft_radix2_q15.c ****         q31_t coeff, out1, out2;
 410:.\DSP\Source\TransformFunctions/arm_cfft_radix2_q15.c **** 
 411:.\DSP\Source\TransformFunctions/arm_cfft_radix2_q15.c ****   // N = fftLen;
 412:.\DSP\Source\TransformFunctions/arm_cfft_radix2_q15.c ****   n2 = fftLen;
 413:.\DSP\Source\TransformFunctions/arm_cfft_radix2_q15.c **** 
 414:.\DSP\Source\TransformFunctions/arm_cfft_radix2_q15.c ****   n1 = n2;
 415:.\DSP\Source\TransformFunctions/arm_cfft_radix2_q15.c ****   n2 = n2 >> 1;
 416:.\DSP\Source\TransformFunctions/arm_cfft_radix2_q15.c ****   ia = 0;
 417:.\DSP\Source\TransformFunctions/arm_cfft_radix2_q15.c **** 
 418:.\DSP\Source\TransformFunctions/arm_cfft_radix2_q15.c ****   /* loop for groups */
 419:.\DSP\Source\TransformFunctions/arm_cfft_radix2_q15.c ****   for (i = 0; i < n2; i++)
 420:.\DSP\Source\TransformFunctions/arm_cfft_radix2_q15.c ****   {
 421:.\DSP\Source\TransformFunctions/arm_cfft_radix2_q15.c ****     coeff = read_q15x2 ((q15_t *)pCoef + (ia * 2U));
 422:.\DSP\Source\TransformFunctions/arm_cfft_radix2_q15.c **** 
 423:.\DSP\Source\TransformFunctions/arm_cfft_radix2_q15.c ****     ia = ia + twidCoefModifier;
 424:.\DSP\Source\TransformFunctions/arm_cfft_radix2_q15.c **** 
 425:.\DSP\Source\TransformFunctions/arm_cfft_radix2_q15.c ****     l = i + n2;
 426:.\DSP\Source\TransformFunctions/arm_cfft_radix2_q15.c **** 
 427:.\DSP\Source\TransformFunctions/arm_cfft_radix2_q15.c ****     T = read_q15x2 (pSrc + (2 * i));
 428:.\DSP\Source\TransformFunctions/arm_cfft_radix2_q15.c ****     in = ((int16_t) (T & 0xFFFF)) >> 1;
 429:.\DSP\Source\TransformFunctions/arm_cfft_radix2_q15.c ****     T = ((T >> 1) & 0xFFFF0000) | (in & 0xFFFF);
 430:.\DSP\Source\TransformFunctions/arm_cfft_radix2_q15.c **** 
 431:.\DSP\Source\TransformFunctions/arm_cfft_radix2_q15.c ****     S = read_q15x2 (pSrc + (2 * l));
 432:.\DSP\Source\TransformFunctions/arm_cfft_radix2_q15.c ****     in = ((int16_t) (S & 0xFFFF)) >> 1;
 433:.\DSP\Source\TransformFunctions/arm_cfft_radix2_q15.c ****     S = ((S >> 1) & 0xFFFF0000) | (in & 0xFFFF);
 434:.\DSP\Source\TransformFunctions/arm_cfft_radix2_q15.c **** 
 435:.\DSP\Source\TransformFunctions/arm_cfft_radix2_q15.c ****     R = __QSUB16(T, S);
 436:.\DSP\Source\TransformFunctions/arm_cfft_radix2_q15.c **** 
 437:.\DSP\Source\TransformFunctions/arm_cfft_radix2_q15.c ****     write_q15x2 (pSrc + (2 * i), __SHADD16(T, S));
 438:.\DSP\Source\TransformFunctions/arm_cfft_radix2_q15.c **** 
 439:.\DSP\Source\TransformFunctions/arm_cfft_radix2_q15.c **** #ifndef ARM_MATH_BIG_ENDIAN
 440:.\DSP\Source\TransformFunctions/arm_cfft_radix2_q15.c ****     out1 = __SMUSD(coeff, R) >> 16;
 441:.\DSP\Source\TransformFunctions/arm_cfft_radix2_q15.c ****     out2 = __SMUADX(coeff, R);
 442:.\DSP\Source\TransformFunctions/arm_cfft_radix2_q15.c **** #else
 443:.\DSP\Source\TransformFunctions/arm_cfft_radix2_q15.c ****     out1 = __SMUADX(R, coeff) >> 16U;
 444:.\DSP\Source\TransformFunctions/arm_cfft_radix2_q15.c ****     out2 = __SMUSD(__QSUB(0, coeff), R);
 445:.\DSP\Source\TransformFunctions/arm_cfft_radix2_q15.c **** #endif /* #ifndef ARM_MATH_BIG_ENDIAN */
 446:.\DSP\Source\TransformFunctions/arm_cfft_radix2_q15.c **** 
 447:.\DSP\Source\TransformFunctions/arm_cfft_radix2_q15.c ****     write_q15x2 (pSrc + (2 * l), (q31_t) ((out2) & 0xFFFF0000) | (out1 & 0x0000FFFF));
 448:.\DSP\Source\TransformFunctions/arm_cfft_radix2_q15.c **** 
 449:.\DSP\Source\TransformFunctions/arm_cfft_radix2_q15.c ****     coeff = read_q15x2 ((q15_t *)pCoef + (ia * 2U));
 450:.\DSP\Source\TransformFunctions/arm_cfft_radix2_q15.c **** 
 451:.\DSP\Source\TransformFunctions/arm_cfft_radix2_q15.c ****     ia = ia + twidCoefModifier;
 452:.\DSP\Source\TransformFunctions/arm_cfft_radix2_q15.c **** 
 453:.\DSP\Source\TransformFunctions/arm_cfft_radix2_q15.c ****     /* loop for butterfly */
 454:.\DSP\Source\TransformFunctions/arm_cfft_radix2_q15.c ****     i++;
 455:.\DSP\Source\TransformFunctions/arm_cfft_radix2_q15.c ****     l++;
 456:.\DSP\Source\TransformFunctions/arm_cfft_radix2_q15.c **** 
 457:.\DSP\Source\TransformFunctions/arm_cfft_radix2_q15.c ****     T = read_q15x2 (pSrc + (2 * i));
 458:.\DSP\Source\TransformFunctions/arm_cfft_radix2_q15.c ****     in = ((int16_t) (T & 0xFFFF)) >> 1;
ARM GAS  C:\Users\IVYLIU~1\AppData\Local\Temp\cccUJdeT.s 			page 16


 459:.\DSP\Source\TransformFunctions/arm_cfft_radix2_q15.c ****     T = ((T >> 1) & 0xFFFF0000) | (in & 0xFFFF);
 460:.\DSP\Source\TransformFunctions/arm_cfft_radix2_q15.c **** 
 461:.\DSP\Source\TransformFunctions/arm_cfft_radix2_q15.c ****     S = read_q15x2 (pSrc + (2 * l));
 462:.\DSP\Source\TransformFunctions/arm_cfft_radix2_q15.c ****     in = ((int16_t) (S & 0xFFFF)) >> 1;
 463:.\DSP\Source\TransformFunctions/arm_cfft_radix2_q15.c ****     S = ((S >> 1) & 0xFFFF0000) | (in & 0xFFFF);
 464:.\DSP\Source\TransformFunctions/arm_cfft_radix2_q15.c **** 
 465:.\DSP\Source\TransformFunctions/arm_cfft_radix2_q15.c ****     R = __QSUB16(T, S);
 466:.\DSP\Source\TransformFunctions/arm_cfft_radix2_q15.c **** 
 467:.\DSP\Source\TransformFunctions/arm_cfft_radix2_q15.c ****     write_q15x2 (pSrc + (2 * i), __SHADD16(T, S));
 468:.\DSP\Source\TransformFunctions/arm_cfft_radix2_q15.c **** 
 469:.\DSP\Source\TransformFunctions/arm_cfft_radix2_q15.c **** #ifndef ARM_MATH_BIG_ENDIAN
 470:.\DSP\Source\TransformFunctions/arm_cfft_radix2_q15.c ****     out1 = __SMUSD(coeff, R) >> 16;
 471:.\DSP\Source\TransformFunctions/arm_cfft_radix2_q15.c ****     out2 = __SMUADX(coeff, R);
 472:.\DSP\Source\TransformFunctions/arm_cfft_radix2_q15.c **** #else
 473:.\DSP\Source\TransformFunctions/arm_cfft_radix2_q15.c ****     out1 = __SMUADX(R, coeff) >> 16U;
 474:.\DSP\Source\TransformFunctions/arm_cfft_radix2_q15.c ****     out2 = __SMUSD(__QSUB(0, coeff), R);
 475:.\DSP\Source\TransformFunctions/arm_cfft_radix2_q15.c **** #endif /* #ifndef ARM_MATH_BIG_ENDIAN */
 476:.\DSP\Source\TransformFunctions/arm_cfft_radix2_q15.c **** 
 477:.\DSP\Source\TransformFunctions/arm_cfft_radix2_q15.c ****     write_q15x2 (pSrc + (2 * l), (q31_t) ((out2) & 0xFFFF0000) | (out1 & 0x0000FFFF));
 478:.\DSP\Source\TransformFunctions/arm_cfft_radix2_q15.c **** 
 479:.\DSP\Source\TransformFunctions/arm_cfft_radix2_q15.c ****   } /* groups loop end */
 480:.\DSP\Source\TransformFunctions/arm_cfft_radix2_q15.c **** 
 481:.\DSP\Source\TransformFunctions/arm_cfft_radix2_q15.c ****   twidCoefModifier = twidCoefModifier << 1U;
 482:.\DSP\Source\TransformFunctions/arm_cfft_radix2_q15.c **** 
 483:.\DSP\Source\TransformFunctions/arm_cfft_radix2_q15.c ****   /* loop for stage */
 484:.\DSP\Source\TransformFunctions/arm_cfft_radix2_q15.c ****   for (k = fftLen / 2; k > 2; k = k >> 1)
 485:.\DSP\Source\TransformFunctions/arm_cfft_radix2_q15.c ****   {
 486:.\DSP\Source\TransformFunctions/arm_cfft_radix2_q15.c ****     n1 = n2;
 487:.\DSP\Source\TransformFunctions/arm_cfft_radix2_q15.c ****     n2 = n2 >> 1;
 488:.\DSP\Source\TransformFunctions/arm_cfft_radix2_q15.c ****     ia = 0;
 489:.\DSP\Source\TransformFunctions/arm_cfft_radix2_q15.c **** 
 490:.\DSP\Source\TransformFunctions/arm_cfft_radix2_q15.c ****     /* loop for groups */
 491:.\DSP\Source\TransformFunctions/arm_cfft_radix2_q15.c ****     for (j = 0; j < n2; j++)
 492:.\DSP\Source\TransformFunctions/arm_cfft_radix2_q15.c ****     {
 493:.\DSP\Source\TransformFunctions/arm_cfft_radix2_q15.c ****       coeff = read_q15x2 ((q15_t *)pCoef + (ia * 2U));
 494:.\DSP\Source\TransformFunctions/arm_cfft_radix2_q15.c **** 
 495:.\DSP\Source\TransformFunctions/arm_cfft_radix2_q15.c ****       ia = ia + twidCoefModifier;
 496:.\DSP\Source\TransformFunctions/arm_cfft_radix2_q15.c **** 
 497:.\DSP\Source\TransformFunctions/arm_cfft_radix2_q15.c ****       /* loop for butterfly */
 498:.\DSP\Source\TransformFunctions/arm_cfft_radix2_q15.c ****       for (i = j; i < fftLen; i += n1)
 499:.\DSP\Source\TransformFunctions/arm_cfft_radix2_q15.c ****       {
 500:.\DSP\Source\TransformFunctions/arm_cfft_radix2_q15.c ****         l = i + n2;
 501:.\DSP\Source\TransformFunctions/arm_cfft_radix2_q15.c **** 
 502:.\DSP\Source\TransformFunctions/arm_cfft_radix2_q15.c ****         T = read_q15x2 (pSrc + (2 * i));
 503:.\DSP\Source\TransformFunctions/arm_cfft_radix2_q15.c **** 
 504:.\DSP\Source\TransformFunctions/arm_cfft_radix2_q15.c ****         S = read_q15x2 (pSrc + (2 * l));
 505:.\DSP\Source\TransformFunctions/arm_cfft_radix2_q15.c **** 
 506:.\DSP\Source\TransformFunctions/arm_cfft_radix2_q15.c ****         R = __QSUB16(T, S);
 507:.\DSP\Source\TransformFunctions/arm_cfft_radix2_q15.c **** 
 508:.\DSP\Source\TransformFunctions/arm_cfft_radix2_q15.c ****         write_q15x2 (pSrc + (2 * i), __SHADD16(T, S));
 509:.\DSP\Source\TransformFunctions/arm_cfft_radix2_q15.c **** 
 510:.\DSP\Source\TransformFunctions/arm_cfft_radix2_q15.c **** #ifndef ARM_MATH_BIG_ENDIAN
 511:.\DSP\Source\TransformFunctions/arm_cfft_radix2_q15.c ****         out1 = __SMUSD(coeff, R) >> 16;
 512:.\DSP\Source\TransformFunctions/arm_cfft_radix2_q15.c ****         out2 = __SMUADX(coeff, R);
 513:.\DSP\Source\TransformFunctions/arm_cfft_radix2_q15.c **** #else
 514:.\DSP\Source\TransformFunctions/arm_cfft_radix2_q15.c ****         out1 = __SMUADX(R, coeff) >> 16U;
 515:.\DSP\Source\TransformFunctions/arm_cfft_radix2_q15.c ****         out2 = __SMUSD(__QSUB(0, coeff), R);
ARM GAS  C:\Users\IVYLIU~1\AppData\Local\Temp\cccUJdeT.s 			page 17


 516:.\DSP\Source\TransformFunctions/arm_cfft_radix2_q15.c **** #endif /* #ifndef ARM_MATH_BIG_ENDIAN */
 517:.\DSP\Source\TransformFunctions/arm_cfft_radix2_q15.c **** 
 518:.\DSP\Source\TransformFunctions/arm_cfft_radix2_q15.c ****         write_q15x2 (pSrc + (2 * l), (q31_t) ((out2) & 0xFFFF0000) | (out1 & 0x0000FFFF));
 519:.\DSP\Source\TransformFunctions/arm_cfft_radix2_q15.c **** 
 520:.\DSP\Source\TransformFunctions/arm_cfft_radix2_q15.c ****         i += n1;
 521:.\DSP\Source\TransformFunctions/arm_cfft_radix2_q15.c **** 
 522:.\DSP\Source\TransformFunctions/arm_cfft_radix2_q15.c ****         l = i + n2;
 523:.\DSP\Source\TransformFunctions/arm_cfft_radix2_q15.c **** 
 524:.\DSP\Source\TransformFunctions/arm_cfft_radix2_q15.c ****         T = read_q15x2 (pSrc + (2 * i));
 525:.\DSP\Source\TransformFunctions/arm_cfft_radix2_q15.c **** 
 526:.\DSP\Source\TransformFunctions/arm_cfft_radix2_q15.c ****         S = read_q15x2 (pSrc + (2 * l));
 527:.\DSP\Source\TransformFunctions/arm_cfft_radix2_q15.c **** 
 528:.\DSP\Source\TransformFunctions/arm_cfft_radix2_q15.c ****         R = __QSUB16(T, S);
 529:.\DSP\Source\TransformFunctions/arm_cfft_radix2_q15.c **** 
 530:.\DSP\Source\TransformFunctions/arm_cfft_radix2_q15.c ****         write_q15x2 (pSrc + (2 * i), __SHADD16(T, S));
 531:.\DSP\Source\TransformFunctions/arm_cfft_radix2_q15.c **** 
 532:.\DSP\Source\TransformFunctions/arm_cfft_radix2_q15.c **** #ifndef ARM_MATH_BIG_ENDIAN
 533:.\DSP\Source\TransformFunctions/arm_cfft_radix2_q15.c ****         out1 = __SMUSD(coeff, R) >> 16;
 534:.\DSP\Source\TransformFunctions/arm_cfft_radix2_q15.c ****         out2 = __SMUADX(coeff, R);
 535:.\DSP\Source\TransformFunctions/arm_cfft_radix2_q15.c **** #else
 536:.\DSP\Source\TransformFunctions/arm_cfft_radix2_q15.c ****         out1 = __SMUADX(R, coeff) >> 16U;
 537:.\DSP\Source\TransformFunctions/arm_cfft_radix2_q15.c ****         out2 = __SMUSD(__QSUB(0, coeff), R);
 538:.\DSP\Source\TransformFunctions/arm_cfft_radix2_q15.c **** #endif /* #ifndef ARM_MATH_BIG_ENDIAN */
 539:.\DSP\Source\TransformFunctions/arm_cfft_radix2_q15.c **** 
 540:.\DSP\Source\TransformFunctions/arm_cfft_radix2_q15.c ****         write_q15x2 (pSrc + (2 * l), (q31_t) ((out2) & 0xFFFF0000) | (out1 & 0x0000FFFF));
 541:.\DSP\Source\TransformFunctions/arm_cfft_radix2_q15.c **** 
 542:.\DSP\Source\TransformFunctions/arm_cfft_radix2_q15.c ****       } /* butterfly loop end */
 543:.\DSP\Source\TransformFunctions/arm_cfft_radix2_q15.c **** 
 544:.\DSP\Source\TransformFunctions/arm_cfft_radix2_q15.c ****     } /* groups loop end */
 545:.\DSP\Source\TransformFunctions/arm_cfft_radix2_q15.c **** 
 546:.\DSP\Source\TransformFunctions/arm_cfft_radix2_q15.c ****     twidCoefModifier = twidCoefModifier << 1U;
 547:.\DSP\Source\TransformFunctions/arm_cfft_radix2_q15.c ****   } /* stages loop end */
 548:.\DSP\Source\TransformFunctions/arm_cfft_radix2_q15.c **** 
 549:.\DSP\Source\TransformFunctions/arm_cfft_radix2_q15.c ****   n1 = n2;
 550:.\DSP\Source\TransformFunctions/arm_cfft_radix2_q15.c ****   n2 = n2 >> 1;
 551:.\DSP\Source\TransformFunctions/arm_cfft_radix2_q15.c ****   ia = 0;
 552:.\DSP\Source\TransformFunctions/arm_cfft_radix2_q15.c **** 
 553:.\DSP\Source\TransformFunctions/arm_cfft_radix2_q15.c ****   /* loop for groups */
 554:.\DSP\Source\TransformFunctions/arm_cfft_radix2_q15.c ****   for (j = 0; j < n2; j++)
 555:.\DSP\Source\TransformFunctions/arm_cfft_radix2_q15.c ****   {
 556:.\DSP\Source\TransformFunctions/arm_cfft_radix2_q15.c ****     coeff = read_q15x2 ((q15_t *)pCoef + (ia * 2U));
 557:.\DSP\Source\TransformFunctions/arm_cfft_radix2_q15.c **** 
 558:.\DSP\Source\TransformFunctions/arm_cfft_radix2_q15.c ****     ia = ia + twidCoefModifier;
 559:.\DSP\Source\TransformFunctions/arm_cfft_radix2_q15.c **** 
 560:.\DSP\Source\TransformFunctions/arm_cfft_radix2_q15.c ****     /* loop for butterfly */
 561:.\DSP\Source\TransformFunctions/arm_cfft_radix2_q15.c ****     for (i = j; i < fftLen; i += n1)
 562:.\DSP\Source\TransformFunctions/arm_cfft_radix2_q15.c ****     {
 563:.\DSP\Source\TransformFunctions/arm_cfft_radix2_q15.c ****       l = i + n2;
 564:.\DSP\Source\TransformFunctions/arm_cfft_radix2_q15.c **** 
 565:.\DSP\Source\TransformFunctions/arm_cfft_radix2_q15.c ****       T = read_q15x2 (pSrc + (2 * i));
 566:.\DSP\Source\TransformFunctions/arm_cfft_radix2_q15.c **** 
 567:.\DSP\Source\TransformFunctions/arm_cfft_radix2_q15.c ****       S = read_q15x2 (pSrc + (2 * l));
 568:.\DSP\Source\TransformFunctions/arm_cfft_radix2_q15.c **** 
 569:.\DSP\Source\TransformFunctions/arm_cfft_radix2_q15.c ****       R = __QSUB16(T, S);
 570:.\DSP\Source\TransformFunctions/arm_cfft_radix2_q15.c **** 
 571:.\DSP\Source\TransformFunctions/arm_cfft_radix2_q15.c ****       write_q15x2 (pSrc + (2 * i), __QADD16(T, S));
 572:.\DSP\Source\TransformFunctions/arm_cfft_radix2_q15.c **** 
ARM GAS  C:\Users\IVYLIU~1\AppData\Local\Temp\cccUJdeT.s 			page 18


 573:.\DSP\Source\TransformFunctions/arm_cfft_radix2_q15.c ****       write_q15x2 (pSrc + (2 * l), R);
 574:.\DSP\Source\TransformFunctions/arm_cfft_radix2_q15.c **** 
 575:.\DSP\Source\TransformFunctions/arm_cfft_radix2_q15.c ****     } /* butterfly loop end */
 576:.\DSP\Source\TransformFunctions/arm_cfft_radix2_q15.c **** 
 577:.\DSP\Source\TransformFunctions/arm_cfft_radix2_q15.c ****   } /* groups loop end */
 578:.\DSP\Source\TransformFunctions/arm_cfft_radix2_q15.c **** 
 579:.\DSP\Source\TransformFunctions/arm_cfft_radix2_q15.c ****   twidCoefModifier = twidCoefModifier << 1U;
 580:.\DSP\Source\TransformFunctions/arm_cfft_radix2_q15.c **** 
 581:.\DSP\Source\TransformFunctions/arm_cfft_radix2_q15.c **** #else /* #if defined (ARM_MATH_DSP) */
 582:.\DSP\Source\TransformFunctions/arm_cfft_radix2_q15.c **** 
 583:.\DSP\Source\TransformFunctions/arm_cfft_radix2_q15.c ****         uint32_t i, j, k, l;
 584:.\DSP\Source\TransformFunctions/arm_cfft_radix2_q15.c ****         uint32_t n1, n2, ia;
 585:.\DSP\Source\TransformFunctions/arm_cfft_radix2_q15.c ****         q15_t xt, yt, cosVal, sinVal;
 586:.\DSP\Source\TransformFunctions/arm_cfft_radix2_q15.c **** 
 587:.\DSP\Source\TransformFunctions/arm_cfft_radix2_q15.c ****   // N = fftLen;
 588:.\DSP\Source\TransformFunctions/arm_cfft_radix2_q15.c ****   n2 = fftLen;
 589:.\DSP\Source\TransformFunctions/arm_cfft_radix2_q15.c **** 
 590:.\DSP\Source\TransformFunctions/arm_cfft_radix2_q15.c ****   n1 = n2;
 591:.\DSP\Source\TransformFunctions/arm_cfft_radix2_q15.c ****   n2 = n2 >> 1;
 377              		.loc 1 591 0
 378 000e 4FEA5108 		lsr	r8, r1, #1
 379              	.LVL48:
 592:.\DSP\Source\TransformFunctions/arm_cfft_radix2_q15.c ****   ia = 0;
 380              		.loc 1 592 0
 381 0012 4FF0000C 		mov	ip, #0
 593:.\DSP\Source\TransformFunctions/arm_cfft_radix2_q15.c **** 
 594:.\DSP\Source\TransformFunctions/arm_cfft_radix2_q15.c ****   /* loop for groups */
 595:.\DSP\Source\TransformFunctions/arm_cfft_radix2_q15.c ****   for (j = 0; j < n2; j++)
 382              		.loc 1 595 0
 383 0016 E346     		mov	fp, ip
 384 0018 4EE0     		b	.L18
 385              	.LVL49:
 386              	.L21:
 596:.\DSP\Source\TransformFunctions/arm_cfft_radix2_q15.c ****   {
 597:.\DSP\Source\TransformFunctions/arm_cfft_radix2_q15.c ****     cosVal = pCoef[(ia * 2)];
 387              		.loc 1 597 0
 388 001a 049A     		ldr	r2, [sp, #16]
 389 001c 32F82C30 		ldrh	r3, [r2, ip, lsl #2]
 390 0020 0093     		str	r3, [sp]
 391              	.LVL50:
 598:.\DSP\Source\TransformFunctions/arm_cfft_radix2_q15.c ****     sinVal = pCoef[(ia * 2) + 1];
 392              		.loc 1 598 0
 393 0022 02EB8C03 		add	r3, r2, ip, lsl #2
 394 0026 5B88     		ldrh	r3, [r3, #2]
 395 0028 0193     		str	r3, [sp, #4]
 396              	.LVL51:
 599:.\DSP\Source\TransformFunctions/arm_cfft_radix2_q15.c ****     ia = ia + twidCoefModifier;
 397              		.loc 1 599 0
 398 002a 029B     		ldr	r3, [sp, #8]
 399 002c 9C44     		add	ip, ip, r3
 400              	.LVL52:
 600:.\DSP\Source\TransformFunctions/arm_cfft_radix2_q15.c **** 
 601:.\DSP\Source\TransformFunctions/arm_cfft_radix2_q15.c ****     /* loop for butterfly */
 602:.\DSP\Source\TransformFunctions/arm_cfft_radix2_q15.c ****     for (i = j; i < fftLen; i += n1)
 401              		.loc 1 602 0
 402 002e 5E46     		mov	r6, fp
 403 0030 3EE0     		b	.L19
ARM GAS  C:\Users\IVYLIU~1\AppData\Local\Temp\cccUJdeT.s 			page 19


 404              	.LVL53:
 405              	.L20:
 603:.\DSP\Source\TransformFunctions/arm_cfft_radix2_q15.c ****     {
 604:.\DSP\Source\TransformFunctions/arm_cfft_radix2_q15.c ****       l = i + n2;
 406              		.loc 1 604 0 discriminator 3
 407 0032 06EB0805 		add	r5, r6, r8
 408              	.LVL54:
 605:.\DSP\Source\TransformFunctions/arm_cfft_radix2_q15.c ****       xt = (pSrc[2 * i] >> 1U) - (pSrc[2 * l] >> 1U);
 409              		.loc 1 605 0 discriminator 3
 410 0036 4FEA860E 		lsl	lr, r6, #2
 411 003a 39F92620 		ldrsh	r2, [r9, r6, lsl #2]
 412 003e C2F34F02 		ubfx	r2, r2, #1, #16
 413 0042 A800     		lsls	r0, r5, #2
 414 0044 39F92530 		ldrsh	r3, [r9, r5, lsl #2]
 415 0048 C3F34F03 		ubfx	r3, r3, #1, #16
 416 004c D41A     		subs	r4, r2, r3
 417              	.LVL55:
 606:.\DSP\Source\TransformFunctions/arm_cfft_radix2_q15.c ****       pSrc[2 * i] = ((pSrc[2 * i] >> 1U) + (pSrc[2 * l] >> 1U)) >> 1U;
 418              		.loc 1 606 0 discriminator 3
 419 004e 12B2     		sxth	r2, r2
 420 0050 1BB2     		sxth	r3, r3
 421 0052 1344     		add	r3, r3, r2
 422 0054 5B10     		asrs	r3, r3, #1
 423 0056 29F82630 		strh	r3, [r9, r6, lsl #2]	@ movhi
 607:.\DSP\Source\TransformFunctions/arm_cfft_radix2_q15.c **** 
 608:.\DSP\Source\TransformFunctions/arm_cfft_radix2_q15.c ****       yt = (pSrc[2 * i + 1] >> 1U) - (pSrc[2 * l + 1] >> 1U);
 424              		.loc 1 608 0 discriminator 3
 425 005a 0EF1020E 		add	lr, lr, #2
 426 005e 39F90E10 		ldrsh	r1, [r9, lr]
 427 0062 C1F34F01 		ubfx	r1, r1, #1, #16
 428 0066 0230     		adds	r0, r0, #2
 429 0068 39F90070 		ldrsh	r7, [r9, r0]
 430 006c C7F34F07 		ubfx	r7, r7, #1, #16
 431 0070 CA1B     		subs	r2, r1, r7
 432              	.LVL56:
 609:.\DSP\Source\TransformFunctions/arm_cfft_radix2_q15.c ****       pSrc[2 * i + 1] = ((pSrc[2 * l + 1] >> 1U) +
 433              		.loc 1 609 0 discriminator 3
 434 0072 3FB2     		sxth	r7, r7
 610:.\DSP\Source\TransformFunctions/arm_cfft_radix2_q15.c ****                          (pSrc[2 * i + 1] >> 1U)  ) >> 1U;
 435              		.loc 1 610 0 discriminator 3
 436 0074 09B2     		sxth	r1, r1
 609:.\DSP\Source\TransformFunctions/arm_cfft_radix2_q15.c ****       pSrc[2 * i + 1] = ((pSrc[2 * l + 1] >> 1U) +
 437              		.loc 1 609 0 discriminator 3
 438 0076 3944     		add	r1, r1, r7
 439              		.loc 1 610 0 discriminator 3
 440 0078 4910     		asrs	r1, r1, #1
 609:.\DSP\Source\TransformFunctions/arm_cfft_radix2_q15.c ****       pSrc[2 * i + 1] = ((pSrc[2 * l + 1] >> 1U) +
 441              		.loc 1 609 0 discriminator 3
 442 007a 29F80E10 		strh	r1, [r9, lr]	@ movhi
 611:.\DSP\Source\TransformFunctions/arm_cfft_radix2_q15.c **** 
 612:.\DSP\Source\TransformFunctions/arm_cfft_radix2_q15.c ****       pSrc[2 * l] = (((int16_t) (((q31_t) xt * cosVal) >> 16)) -
 443              		.loc 1 612 0 discriminator 3
 444 007e 24B2     		sxth	r4, r4
 445 0080 BDF90070 		ldrsh	r7, [sp]
 446 0084 07FB04FE 		mul	lr, r7, r4
 613:.\DSP\Source\TransformFunctions/arm_cfft_radix2_q15.c ****                      ((int16_t) (((q31_t) yt * sinVal) >> 16)));
 447              		.loc 1 613 0 discriminator 3
ARM GAS  C:\Users\IVYLIU~1\AppData\Local\Temp\cccUJdeT.s 			page 20


 448 0088 12B2     		sxth	r2, r2
 449 008a BDF90430 		ldrsh	r3, [sp, #4]
 450 008e 03FB02F1 		mul	r1, r3, r2
 451 0092 0914     		asrs	r1, r1, #16
 612:.\DSP\Source\TransformFunctions/arm_cfft_radix2_q15.c ****                      ((int16_t) (((q31_t) yt * sinVal) >> 16)));
 452              		.loc 1 612 0 discriminator 3
 453 0094 C1EB2E41 		rsb	r1, r1, lr, asr #16
 454 0098 29F82510 		strh	r1, [r9, r5, lsl #2]	@ movhi
 614:.\DSP\Source\TransformFunctions/arm_cfft_radix2_q15.c **** 
 615:.\DSP\Source\TransformFunctions/arm_cfft_radix2_q15.c ****       pSrc[2 * l + 1] = (((int16_t) (((q31_t) yt * cosVal) >> 16)) +
 455              		.loc 1 615 0 discriminator 3
 456 009c 02FB07F2 		mul	r2, r2, r7
 457              	.LVL57:
 616:.\DSP\Source\TransformFunctions/arm_cfft_radix2_q15.c ****                          ((int16_t) (((q31_t) xt * sinVal) >> 16)));
 458              		.loc 1 616 0 discriminator 3
 459 00a0 03FB04F3 		mul	r3, r3, r4
 460 00a4 1B14     		asrs	r3, r3, #16
 615:.\DSP\Source\TransformFunctions/arm_cfft_radix2_q15.c ****                          ((int16_t) (((q31_t) xt * sinVal) >> 16)));
 461              		.loc 1 615 0 discriminator 3
 462 00a6 03EB2242 		add	r2, r3, r2, asr #16
 463 00aa 29F80020 		strh	r2, [r9, r0]	@ movhi
 602:.\DSP\Source\TransformFunctions/arm_cfft_radix2_q15.c ****     {
 464              		.loc 1 602 0 discriminator 3
 465 00ae 5644     		add	r6, r6, r10
 466              	.LVL58:
 467              	.L19:
 602:.\DSP\Source\TransformFunctions/arm_cfft_radix2_q15.c ****     {
 468              		.loc 1 602 0 is_stmt 0 discriminator 1
 469 00b0 5645     		cmp	r6, r10
 470 00b2 BED3     		bcc	.L20
 595:.\DSP\Source\TransformFunctions/arm_cfft_radix2_q15.c ****   {
 471              		.loc 1 595 0 is_stmt 1 discriminator 2
 472 00b4 0BF1010B 		add	fp, fp, #1
 473              	.LVL59:
 474              	.L18:
 595:.\DSP\Source\TransformFunctions/arm_cfft_radix2_q15.c ****   {
 475              		.loc 1 595 0 is_stmt 0 discriminator 1
 476 00b8 C345     		cmp	fp, r8
 477 00ba AED3     		bcc	.L21
 617:.\DSP\Source\TransformFunctions/arm_cfft_radix2_q15.c **** 
 618:.\DSP\Source\TransformFunctions/arm_cfft_radix2_q15.c ****     } /* butterfly loop end */
 619:.\DSP\Source\TransformFunctions/arm_cfft_radix2_q15.c **** 
 620:.\DSP\Source\TransformFunctions/arm_cfft_radix2_q15.c ****   } /* groups loop end */
 621:.\DSP\Source\TransformFunctions/arm_cfft_radix2_q15.c **** 
 622:.\DSP\Source\TransformFunctions/arm_cfft_radix2_q15.c ****   twidCoefModifier = twidCoefModifier << 1U;
 478              		.loc 1 622 0 is_stmt 1
 479 00bc 029B     		ldr	r3, [sp, #8]
 480 00be 4FEA430B 		lsl	fp, r3, #1
 481              	.LVL60:
 482 00c2 1FFA8BF3 		uxth	r3, fp
 483 00c6 0393     		str	r3, [sp, #12]
 484              	.LVL61:
 623:.\DSP\Source\TransformFunctions/arm_cfft_radix2_q15.c **** 
 624:.\DSP\Source\TransformFunctions/arm_cfft_radix2_q15.c ****   /* loop for stage */
 625:.\DSP\Source\TransformFunctions/arm_cfft_radix2_q15.c ****   for (k = fftLen / 2; k > 2; k = k >> 1)
 485              		.loc 1 625 0
 486 00c8 4FEA5A03 		lsr	r3, r10, #1
ARM GAS  C:\Users\IVYLIU~1\AppData\Local\Temp\cccUJdeT.s 			page 21


 487              	.LVL62:
 488 00cc 0593     		str	r3, [sp, #20]
 489              	.LVL63:
 490 00ce 59E0     		b	.L22
 491              	.LVL64:
 492              	.L27:
 626:.\DSP\Source\TransformFunctions/arm_cfft_radix2_q15.c ****   {
 627:.\DSP\Source\TransformFunctions/arm_cfft_radix2_q15.c ****     n1 = n2;
 628:.\DSP\Source\TransformFunctions/arm_cfft_radix2_q15.c ****     n2 = n2 >> 1;
 493              		.loc 1 628 0
 494 00d0 4FEA580C 		lsr	ip, r8, #1
 495              	.LVL65:
 629:.\DSP\Source\TransformFunctions/arm_cfft_radix2_q15.c ****     ia = 0;
 496              		.loc 1 629 0
 497 00d4 4FF0000B 		mov	fp, #0
 630:.\DSP\Source\TransformFunctions/arm_cfft_radix2_q15.c **** 
 631:.\DSP\Source\TransformFunctions/arm_cfft_radix2_q15.c ****     /* loop for groups */
 632:.\DSP\Source\TransformFunctions/arm_cfft_radix2_q15.c ****     for (j = 0; j < n2; j++)
 498              		.loc 1 632 0
 499 00d8 CDF808B0 		str	fp, [sp, #8]
 500 00dc 47E0     		b	.L23
 501              	.LVL66:
 502              	.L26:
 633:.\DSP\Source\TransformFunctions/arm_cfft_radix2_q15.c ****     {
 634:.\DSP\Source\TransformFunctions/arm_cfft_radix2_q15.c ****       cosVal = pCoef[(ia * 2)];
 503              		.loc 1 634 0
 504 00de 049A     		ldr	r2, [sp, #16]
 505 00e0 32F82B30 		ldrh	r3, [r2, fp, lsl #2]
 506              	.LVL67:
 507 00e4 0093     		str	r3, [sp]
 508              	.LVL68:
 635:.\DSP\Source\TransformFunctions/arm_cfft_radix2_q15.c ****       sinVal = pCoef[(ia * 2) + 1];
 509              		.loc 1 635 0
 510 00e6 02EB8B03 		add	r3, r2, fp, lsl #2
 511 00ea 5B88     		ldrh	r3, [r3, #2]
 512 00ec 0193     		str	r3, [sp, #4]
 513              	.LVL69:
 636:.\DSP\Source\TransformFunctions/arm_cfft_radix2_q15.c ****       ia = ia + twidCoefModifier;
 514              		.loc 1 636 0
 515 00ee 039B     		ldr	r3, [sp, #12]
 516 00f0 9B44     		add	fp, fp, r3
 517              	.LVL70:
 637:.\DSP\Source\TransformFunctions/arm_cfft_radix2_q15.c **** 
 638:.\DSP\Source\TransformFunctions/arm_cfft_radix2_q15.c ****       /* loop for butterfly */
 639:.\DSP\Source\TransformFunctions/arm_cfft_radix2_q15.c ****       for (i = j; i < fftLen; i += n1)
 518              		.loc 1 639 0
 519 00f2 029E     		ldr	r6, [sp, #8]
 520 00f4 36E0     		b	.L24
 521              	.LVL71:
 522              	.L25:
 640:.\DSP\Source\TransformFunctions/arm_cfft_radix2_q15.c ****       {
 641:.\DSP\Source\TransformFunctions/arm_cfft_radix2_q15.c ****         l = i + n2;
 523              		.loc 1 641 0 discriminator 3
 524 00f6 06EB0C05 		add	r5, r6, ip
 525              	.LVL72:
 642:.\DSP\Source\TransformFunctions/arm_cfft_radix2_q15.c ****         xt = pSrc[2 * i] - pSrc[2 * l];
 526              		.loc 1 642 0 discriminator 3
ARM GAS  C:\Users\IVYLIU~1\AppData\Local\Temp\cccUJdeT.s 			page 22


 527 00fa B700     		lsls	r7, r6, #2
 528 00fc 39F82620 		ldrh	r2, [r9, r6, lsl #2]
 529 0100 A800     		lsls	r0, r5, #2
 530 0102 39F82530 		ldrh	r3, [r9, r5, lsl #2]
 531 0106 D41A     		subs	r4, r2, r3
 532              	.LVL73:
 643:.\DSP\Source\TransformFunctions/arm_cfft_radix2_q15.c ****         pSrc[2 * i] = (pSrc[2 * i] + pSrc[2 * l]) >> 1U;
 533              		.loc 1 643 0 discriminator 3
 534 0108 12B2     		sxth	r2, r2
 535 010a 1BB2     		sxth	r3, r3
 536 010c 1344     		add	r3, r3, r2
 537 010e 5B10     		asrs	r3, r3, #1
 538 0110 29F82630 		strh	r3, [r9, r6, lsl #2]	@ movhi
 644:.\DSP\Source\TransformFunctions/arm_cfft_radix2_q15.c **** 
 645:.\DSP\Source\TransformFunctions/arm_cfft_radix2_q15.c ****         yt = pSrc[2 * i + 1] - pSrc[2 * l + 1];
 539              		.loc 1 645 0 discriminator 3
 540 0114 0237     		adds	r7, r7, #2
 541 0116 39F80710 		ldrh	r1, [r9, r7]
 542 011a 0230     		adds	r0, r0, #2
 543 011c 39F800E0 		ldrh	lr, [r9, r0]
 544 0120 CEEB0102 		rsb	r2, lr, r1
 545              	.LVL74:
 646:.\DSP\Source\TransformFunctions/arm_cfft_radix2_q15.c ****         pSrc[2 * i + 1] = (pSrc[2 * l + 1] + pSrc[2 * i + 1]) >> 1U;
 546              		.loc 1 646 0 discriminator 3
 547 0124 0FFA8EFE 		sxth	lr, lr
 548 0128 09B2     		sxth	r1, r1
 549 012a 7144     		add	r1, r1, lr
 550 012c 4910     		asrs	r1, r1, #1
 551 012e 29F80710 		strh	r1, [r9, r7]	@ movhi
 647:.\DSP\Source\TransformFunctions/arm_cfft_radix2_q15.c **** 
 648:.\DSP\Source\TransformFunctions/arm_cfft_radix2_q15.c ****         pSrc[2 * l] = (((int16_t) (((q31_t) xt * cosVal) >> 16)) -
 552              		.loc 1 648 0 discriminator 3
 553 0132 24B2     		sxth	r4, r4
 554 0134 BDF90070 		ldrsh	r7, [sp]
 555 0138 07FB04FE 		mul	lr, r7, r4
 649:.\DSP\Source\TransformFunctions/arm_cfft_radix2_q15.c ****                        ((int16_t) (((q31_t) yt * sinVal) >> 16))  );
 556              		.loc 1 649 0 discriminator 3
 557 013c 12B2     		sxth	r2, r2
 558 013e BDF90430 		ldrsh	r3, [sp, #4]
 559 0142 03FB02F1 		mul	r1, r3, r2
 560 0146 0914     		asrs	r1, r1, #16
 648:.\DSP\Source\TransformFunctions/arm_cfft_radix2_q15.c ****                        ((int16_t) (((q31_t) yt * sinVal) >> 16))  );
 561              		.loc 1 648 0 discriminator 3
 562 0148 C1EB2E41 		rsb	r1, r1, lr, asr #16
 563 014c 29F82510 		strh	r1, [r9, r5, lsl #2]	@ movhi
 650:.\DSP\Source\TransformFunctions/arm_cfft_radix2_q15.c **** 
 651:.\DSP\Source\TransformFunctions/arm_cfft_radix2_q15.c ****         pSrc[2 * l + 1] = (((int16_t) (((q31_t) yt * cosVal) >> 16)) +
 564              		.loc 1 651 0 discriminator 3
 565 0150 02FB07F2 		mul	r2, r2, r7
 566              	.LVL75:
 652:.\DSP\Source\TransformFunctions/arm_cfft_radix2_q15.c ****                            ((int16_t) (((q31_t) xt * sinVal) >> 16))  );
 567              		.loc 1 652 0 discriminator 3
 568 0154 03FB04F3 		mul	r3, r3, r4
 569 0158 1B14     		asrs	r3, r3, #16
 651:.\DSP\Source\TransformFunctions/arm_cfft_radix2_q15.c ****                            ((int16_t) (((q31_t) xt * sinVal) >> 16))  );
 570              		.loc 1 651 0 discriminator 3
 571 015a 03EB2242 		add	r2, r3, r2, asr #16
ARM GAS  C:\Users\IVYLIU~1\AppData\Local\Temp\cccUJdeT.s 			page 23


 572 015e 29F80020 		strh	r2, [r9, r0]	@ movhi
 639:.\DSP\Source\TransformFunctions/arm_cfft_radix2_q15.c ****       {
 573              		.loc 1 639 0 discriminator 3
 574 0162 4644     		add	r6, r6, r8
 575              	.LVL76:
 576              	.L24:
 639:.\DSP\Source\TransformFunctions/arm_cfft_radix2_q15.c ****       {
 577              		.loc 1 639 0 is_stmt 0 discriminator 1
 578 0164 5645     		cmp	r6, r10
 579 0166 C6D3     		bcc	.L25
 632:.\DSP\Source\TransformFunctions/arm_cfft_radix2_q15.c ****     {
 580              		.loc 1 632 0 is_stmt 1 discriminator 2
 581 0168 029B     		ldr	r3, [sp, #8]
 582 016a 0133     		adds	r3, r3, #1
 583 016c 0293     		str	r3, [sp, #8]
 584              	.LVL77:
 585              	.L23:
 632:.\DSP\Source\TransformFunctions/arm_cfft_radix2_q15.c ****     {
 586              		.loc 1 632 0 is_stmt 0 discriminator 1
 587 016e 029B     		ldr	r3, [sp, #8]
 588 0170 6345     		cmp	r3, ip
 589 0172 B4D3     		bcc	.L26
 653:.\DSP\Source\TransformFunctions/arm_cfft_radix2_q15.c **** 
 654:.\DSP\Source\TransformFunctions/arm_cfft_radix2_q15.c ****       } /* butterfly loop end */
 655:.\DSP\Source\TransformFunctions/arm_cfft_radix2_q15.c **** 
 656:.\DSP\Source\TransformFunctions/arm_cfft_radix2_q15.c ****     } /* groups loop end */
 657:.\DSP\Source\TransformFunctions/arm_cfft_radix2_q15.c **** 
 658:.\DSP\Source\TransformFunctions/arm_cfft_radix2_q15.c ****     twidCoefModifier = twidCoefModifier << 1U;
 590              		.loc 1 658 0 is_stmt 1 discriminator 2
 591 0174 039B     		ldr	r3, [sp, #12]
 592 0176 5B00     		lsls	r3, r3, #1
 593              	.LVL78:
 594 0178 9BB2     		uxth	r3, r3
 595 017a 0393     		str	r3, [sp, #12]
 625:.\DSP\Source\TransformFunctions/arm_cfft_radix2_q15.c ****   {
 596              		.loc 1 625 0 discriminator 2
 597 017c 059B     		ldr	r3, [sp, #20]
 598              	.LVL79:
 599 017e 5B08     		lsrs	r3, r3, #1
 600 0180 0593     		str	r3, [sp, #20]
 601              	.LVL80:
 628:.\DSP\Source\TransformFunctions/arm_cfft_radix2_q15.c ****     ia = 0;
 602              		.loc 1 628 0 discriminator 2
 603 0182 E046     		mov	r8, ip
 604              	.LVL81:
 605              	.L22:
 625:.\DSP\Source\TransformFunctions/arm_cfft_radix2_q15.c ****   {
 606              		.loc 1 625 0 discriminator 1
 607 0184 059B     		ldr	r3, [sp, #20]
 608 0186 022B     		cmp	r3, #2
 609 0188 A2D8     		bhi	.L27
 610              	.LVL82:
 659:.\DSP\Source\TransformFunctions/arm_cfft_radix2_q15.c ****   } /* stages loop end */
 660:.\DSP\Source\TransformFunctions/arm_cfft_radix2_q15.c **** 
 661:.\DSP\Source\TransformFunctions/arm_cfft_radix2_q15.c ****   n1 = n2;
 662:.\DSP\Source\TransformFunctions/arm_cfft_radix2_q15.c ****   n2 = n2 >> 1;
 611              		.loc 1 662 0
ARM GAS  C:\Users\IVYLIU~1\AppData\Local\Temp\cccUJdeT.s 			page 24


 612 018a 4FEA5806 		lsr	r6, r8, #1
 613              	.LVL83:
 663:.\DSP\Source\TransformFunctions/arm_cfft_radix2_q15.c ****   ia = 0;
 664:.\DSP\Source\TransformFunctions/arm_cfft_radix2_q15.c **** 
 665:.\DSP\Source\TransformFunctions/arm_cfft_radix2_q15.c ****   cosVal = pCoef[(ia * 2)];
 666:.\DSP\Source\TransformFunctions/arm_cfft_radix2_q15.c ****   sinVal = pCoef[(ia * 2) + 1];
 667:.\DSP\Source\TransformFunctions/arm_cfft_radix2_q15.c **** 
 668:.\DSP\Source\TransformFunctions/arm_cfft_radix2_q15.c ****   ia = ia + twidCoefModifier;
 669:.\DSP\Source\TransformFunctions/arm_cfft_radix2_q15.c **** 
 670:.\DSP\Source\TransformFunctions/arm_cfft_radix2_q15.c ****   /* loop for butterfly */
 671:.\DSP\Source\TransformFunctions/arm_cfft_radix2_q15.c ****   for (i = 0; i < fftLen; i += n1)
 614              		.loc 1 671 0
 615 018e 0021     		movs	r1, #0
 616 0190 1AE0     		b	.L28
 617              	.LVL84:
 618              	.L29:
 672:.\DSP\Source\TransformFunctions/arm_cfft_radix2_q15.c ****   {
 673:.\DSP\Source\TransformFunctions/arm_cfft_radix2_q15.c ****     l = i + n2;
 619              		.loc 1 673 0 discriminator 3
 620 0192 8C19     		adds	r4, r1, r6
 621              	.LVL85:
 674:.\DSP\Source\TransformFunctions/arm_cfft_radix2_q15.c ****     xt = pSrc[2 * i] - pSrc[2 * l];
 622              		.loc 1 674 0 discriminator 3
 623 0194 8A00     		lsls	r2, r1, #2
 624 0196 39F82170 		ldrh	r7, [r9, r1, lsl #2]
 625 019a A300     		lsls	r3, r4, #2
 626 019c 39F82400 		ldrh	r0, [r9, r4, lsl #2]
 627 01a0 3D1A     		subs	r5, r7, r0
 628              	.LVL86:
 675:.\DSP\Source\TransformFunctions/arm_cfft_radix2_q15.c ****     pSrc[2 * i] = (pSrc[2 * i] + pSrc[2 * l]);
 629              		.loc 1 675 0 discriminator 3
 630 01a2 3844     		add	r0, r0, r7
 631 01a4 29F82100 		strh	r0, [r9, r1, lsl #2]	@ movhi
 676:.\DSP\Source\TransformFunctions/arm_cfft_radix2_q15.c **** 
 677:.\DSP\Source\TransformFunctions/arm_cfft_radix2_q15.c ****     yt = pSrc[2 * i + 1] - pSrc[2 * l + 1];
 632              		.loc 1 677 0 discriminator 3
 633 01a8 0232     		adds	r2, r2, #2
 634 01aa 39F80270 		ldrh	r7, [r9, r2]
 635 01ae 0233     		adds	r3, r3, #2
 636 01b0 39F80300 		ldrh	r0, [r9, r3]
 637 01b4 C0EB070E 		rsb	lr, r0, r7
 638              	.LVL87:
 678:.\DSP\Source\TransformFunctions/arm_cfft_radix2_q15.c ****     pSrc[2 * i + 1] = (pSrc[2 * l + 1] + pSrc[2 * i + 1]);
 639              		.loc 1 678 0 discriminator 3
 640 01b8 3844     		add	r0, r0, r7
 641 01ba 29F80200 		strh	r0, [r9, r2]	@ movhi
 679:.\DSP\Source\TransformFunctions/arm_cfft_radix2_q15.c **** 
 680:.\DSP\Source\TransformFunctions/arm_cfft_radix2_q15.c ****     pSrc[2 * l] = xt;
 642              		.loc 1 680 0 discriminator 3
 643 01be 29F82450 		strh	r5, [r9, r4, lsl #2]	@ movhi
 681:.\DSP\Source\TransformFunctions/arm_cfft_radix2_q15.c **** 
 682:.\DSP\Source\TransformFunctions/arm_cfft_radix2_q15.c ****     pSrc[2 * l + 1] = yt;
 644              		.loc 1 682 0 discriminator 3
 645 01c2 29F803E0 		strh	lr, [r9, r3]	@ movhi
 671:.\DSP\Source\TransformFunctions/arm_cfft_radix2_q15.c ****   {
 646              		.loc 1 671 0 discriminator 3
 647 01c6 4144     		add	r1, r1, r8
ARM GAS  C:\Users\IVYLIU~1\AppData\Local\Temp\cccUJdeT.s 			page 25


 648              	.LVL88:
 649              	.L28:
 671:.\DSP\Source\TransformFunctions/arm_cfft_radix2_q15.c ****   {
 650              		.loc 1 671 0 is_stmt 0 discriminator 1
 651 01c8 5145     		cmp	r1, r10
 652 01ca E2D3     		bcc	.L29
 683:.\DSP\Source\TransformFunctions/arm_cfft_radix2_q15.c **** 
 684:.\DSP\Source\TransformFunctions/arm_cfft_radix2_q15.c ****   } /* groups loop end */
 685:.\DSP\Source\TransformFunctions/arm_cfft_radix2_q15.c **** 
 686:.\DSP\Source\TransformFunctions/arm_cfft_radix2_q15.c **** 
 687:.\DSP\Source\TransformFunctions/arm_cfft_radix2_q15.c **** #endif /* #if defined (ARM_MATH_DSP) */
 688:.\DSP\Source\TransformFunctions/arm_cfft_radix2_q15.c **** 
 689:.\DSP\Source\TransformFunctions/arm_cfft_radix2_q15.c **** }
 653              		.loc 1 689 0 is_stmt 1
 654 01cc 07B0     		add	sp, sp, #28
 655              		.cfi_def_cfa_offset 36
 656              		@ sp needed
 657 01ce BDE8F08F 		pop	{r4, r5, r6, r7, r8, r9, r10, fp, pc}
 658              		.cfi_endproc
 659              	.LFE86:
 660              		.size	arm_radix2_butterfly_inverse_q15, .-arm_radix2_butterfly_inverse_q15
 661 01d2 00BF     		.section	.text.arm_cfft_radix2_q15,"ax",%progbits
 662              		.align	2
 663              		.global	arm_cfft_radix2_q15
 664              		.thumb
 665              		.thumb_func
 666              		.type	arm_cfft_radix2_q15, %function
 667              	arm_cfft_radix2_q15:
 668              	.LFB84:
  69:.\DSP\Source\TransformFunctions/arm_cfft_radix2_q15.c **** 
 669              		.loc 1 69 0
 670              		.cfi_startproc
 671              		@ args = 0, pretend = 0, frame = 0
 672              		@ frame_needed = 0, uses_anonymous_args = 0
 673              	.LVL89:
 674 0000 38B5     		push	{r3, r4, r5, lr}
 675              		.cfi_def_cfa_offset 16
 676              		.cfi_offset 3, -16
 677              		.cfi_offset 4, -12
 678              		.cfi_offset 5, -8
 679              		.cfi_offset 14, -4
 680 0002 0446     		mov	r4, r0
 681 0004 0D46     		mov	r5, r1
  71:.\DSP\Source\TransformFunctions/arm_cfft_radix2_q15.c ****   {
 682              		.loc 1 71 0
 683 0006 8378     		ldrb	r3, [r0, #2]	@ zero_extendqisi2
 684 0008 012B     		cmp	r3, #1
 685 000a 06D1     		bne	.L32
  73:.\DSP\Source\TransformFunctions/arm_cfft_radix2_q15.c ****   }
 686              		.loc 1 73 0
 687 000c 0846     		mov	r0, r1
 688              	.LVL90:
 689 000e 2188     		ldrh	r1, [r4]
 690              	.LVL91:
 691 0010 6268     		ldr	r2, [r4, #4]
 692 0012 A389     		ldrh	r3, [r4, #12]
 693 0014 FFF7FEFF 		bl	arm_radix2_butterfly_inverse_q15
ARM GAS  C:\Users\IVYLIU~1\AppData\Local\Temp\cccUJdeT.s 			page 26


 694              	.LVL92:
 695 0018 05E0     		b	.L33
 696              	.LVL93:
 697              	.L32:
  77:.\DSP\Source\TransformFunctions/arm_cfft_radix2_q15.c ****   }
 698              		.loc 1 77 0
 699 001a 0846     		mov	r0, r1
 700              	.LVL94:
 701 001c 2188     		ldrh	r1, [r4]
 702              	.LVL95:
 703 001e 6268     		ldr	r2, [r4, #4]
 704 0020 A389     		ldrh	r3, [r4, #12]
 705 0022 FFF7FEFF 		bl	arm_radix2_butterfly_q15
 706              	.LVL96:
 707              	.L33:
  80:.\DSP\Source\TransformFunctions/arm_cfft_radix2_q15.c **** }
 708              		.loc 1 80 0
 709 0026 2846     		mov	r0, r5
 710 0028 2188     		ldrh	r1, [r4]
 711 002a E289     		ldrh	r2, [r4, #14]
 712 002c A368     		ldr	r3, [r4, #8]
 713 002e FFF7FEFF 		bl	arm_bitreversal_q15
 714              	.LVL97:
 715 0032 38BD     		pop	{r3, r4, r5, pc}
 716              		.cfi_endproc
 717              	.LFE84:
 718              		.size	arm_cfft_radix2_q15, .-arm_cfft_radix2_q15
 719              		.text
 720              	.Letext0:
 721              		.file 2 "c:\\program files (x86)\\cypress\\psoc creator\\3.3\\psoc creator\\import\\gnu\\arm\\4.9.
 722              		.file 3 "c:\\program files (x86)\\cypress\\psoc creator\\3.3\\psoc creator\\import\\gnu\\arm\\4.9.
 723              		.file 4 ".\\DSP\\Include/arm_math_types.h"
 724              		.file 5 ".\\DSP\\Include/dsp/transform_functions.h"
 725              		.file 6 ".\\Core\\Include/cmsis_gcc.h"