ARM GAS  C:\Users\IVYLIU~1\AppData\Local\Temp\cciy5EOf.s 			page 1


   1              		.syntax unified
   2              		.cpu cortex-m3
   3              		.fpu softvfp
   4              		.eabi_attribute 20, 1
   5              		.eabi_attribute 21, 1
   6              		.eabi_attribute 23, 3
   7              		.eabi_attribute 24, 1
   8              		.eabi_attribute 25, 1
   9              		.eabi_attribute 26, 1
  10              		.eabi_attribute 30, 1
  11              		.eabi_attribute 34, 1
  12              		.eabi_attribute 18, 4
  13              		.thumb
  14              		.file	"arm_bitreversal.c"
  15              		.text
  16              	.Ltext0:
  17              		.cfi_sections	.debug_frame
  18              		.section	.text.arm_bitreversal_f32,"ax",%progbits
  19              		.align	2
  20              		.global	arm_bitreversal_f32
  21              		.thumb
  22              		.thumb_func
  23              		.type	arm_bitreversal_f32, %function
  24              	arm_bitreversal_f32:
  25              	.LFB84:
  26              		.file 1 ".\\DSP\\Source\\TransformFunctions\\arm_bitreversal.c"
   1:.\DSP\Source\TransformFunctions/arm_bitreversal.c **** /* ----------------------------------------------------------------------
   2:.\DSP\Source\TransformFunctions/arm_bitreversal.c ****  * Project:      CMSIS DSP Library
   3:.\DSP\Source\TransformFunctions/arm_bitreversal.c ****  * Title:        arm_bitreversal.c
   4:.\DSP\Source\TransformFunctions/arm_bitreversal.c ****  * Description:  Bitreversal functions
   5:.\DSP\Source\TransformFunctions/arm_bitreversal.c ****  *
   6:.\DSP\Source\TransformFunctions/arm_bitreversal.c ****  * $Date:        23 April 2021
   7:.\DSP\Source\TransformFunctions/arm_bitreversal.c ****  * $Revision:    V1.9.0
   8:.\DSP\Source\TransformFunctions/arm_bitreversal.c ****  *
   9:.\DSP\Source\TransformFunctions/arm_bitreversal.c ****  * Target Processor: Cortex-M and Cortex-A cores
  10:.\DSP\Source\TransformFunctions/arm_bitreversal.c ****  * -------------------------------------------------------------------- */
  11:.\DSP\Source\TransformFunctions/arm_bitreversal.c **** /*
  12:.\DSP\Source\TransformFunctions/arm_bitreversal.c ****  * Copyright (C) 2010-2021 ARM Limited or its affiliates. All rights reserved.
  13:.\DSP\Source\TransformFunctions/arm_bitreversal.c ****  *
  14:.\DSP\Source\TransformFunctions/arm_bitreversal.c ****  * SPDX-License-Identifier: Apache-2.0
  15:.\DSP\Source\TransformFunctions/arm_bitreversal.c ****  *
  16:.\DSP\Source\TransformFunctions/arm_bitreversal.c ****  * Licensed under the Apache License, Version 2.0 (the License); you may
  17:.\DSP\Source\TransformFunctions/arm_bitreversal.c ****  * not use this file except in compliance with the License.
  18:.\DSP\Source\TransformFunctions/arm_bitreversal.c ****  * You may obtain a copy of the License at
  19:.\DSP\Source\TransformFunctions/arm_bitreversal.c ****  *
  20:.\DSP\Source\TransformFunctions/arm_bitreversal.c ****  * www.apache.org/licenses/LICENSE-2.0
  21:.\DSP\Source\TransformFunctions/arm_bitreversal.c ****  *
  22:.\DSP\Source\TransformFunctions/arm_bitreversal.c ****  * Unless required by applicable law or agreed to in writing, software
  23:.\DSP\Source\TransformFunctions/arm_bitreversal.c ****  * distributed under the License is distributed on an AS IS BASIS, WITHOUT
  24:.\DSP\Source\TransformFunctions/arm_bitreversal.c ****  * WARRANTIES OR CONDITIONS OF ANY KIND, either express or implied.
  25:.\DSP\Source\TransformFunctions/arm_bitreversal.c ****  * See the License for the specific language governing permissions and
  26:.\DSP\Source\TransformFunctions/arm_bitreversal.c ****  * limitations under the License.
  27:.\DSP\Source\TransformFunctions/arm_bitreversal.c ****  */
  28:.\DSP\Source\TransformFunctions/arm_bitreversal.c **** 
  29:.\DSP\Source\TransformFunctions/arm_bitreversal.c **** #include "dsp/transform_functions.h"
  30:.\DSP\Source\TransformFunctions/arm_bitreversal.c **** #include "arm_common_tables.h"
  31:.\DSP\Source\TransformFunctions/arm_bitreversal.c **** 
ARM GAS  C:\Users\IVYLIU~1\AppData\Local\Temp\cciy5EOf.s 			page 2


  32:.\DSP\Source\TransformFunctions/arm_bitreversal.c **** 
  33:.\DSP\Source\TransformFunctions/arm_bitreversal.c **** /**
  34:.\DSP\Source\TransformFunctions/arm_bitreversal.c ****   @brief         In-place floating-point bit reversal function.
  35:.\DSP\Source\TransformFunctions/arm_bitreversal.c ****   @param[in,out] pSrc         points to in-place floating-point data buffer
  36:.\DSP\Source\TransformFunctions/arm_bitreversal.c ****   @param[in]     fftSize      length of FFT
  37:.\DSP\Source\TransformFunctions/arm_bitreversal.c ****   @param[in]     bitRevFactor bit reversal modifier that supports different size FFTs with the same
  38:.\DSP\Source\TransformFunctions/arm_bitreversal.c ****   @param[in]     pBitRevTab   points to bit reversal table
  39:.\DSP\Source\TransformFunctions/arm_bitreversal.c ****   @return        none
  40:.\DSP\Source\TransformFunctions/arm_bitreversal.c ****  */
  41:.\DSP\Source\TransformFunctions/arm_bitreversal.c **** 
  42:.\DSP\Source\TransformFunctions/arm_bitreversal.c **** void arm_bitreversal_f32(
  43:.\DSP\Source\TransformFunctions/arm_bitreversal.c ****         float32_t * pSrc,
  44:.\DSP\Source\TransformFunctions/arm_bitreversal.c ****         uint16_t fftSize,
  45:.\DSP\Source\TransformFunctions/arm_bitreversal.c ****         uint16_t bitRevFactor,
  46:.\DSP\Source\TransformFunctions/arm_bitreversal.c ****   const uint16_t * pBitRevTab)
  47:.\DSP\Source\TransformFunctions/arm_bitreversal.c **** {
  27              		.loc 1 47 0
  28              		.cfi_startproc
  29              		@ args = 0, pretend = 0, frame = 0
  30              		@ frame_needed = 0, uses_anonymous_args = 0
  31              	.LVL0:
  32 0000 2DE9F04F 		push	{r4, r5, r6, r7, r8, r9, r10, fp, lr}
  33              		.cfi_def_cfa_offset 36
  34              		.cfi_offset 4, -36
  35              		.cfi_offset 5, -32
  36              		.cfi_offset 6, -28
  37              		.cfi_offset 7, -24
  38              		.cfi_offset 8, -20
  39              		.cfi_offset 9, -16
  40              		.cfi_offset 10, -12
  41              		.cfi_offset 11, -8
  42              		.cfi_offset 14, -4
  43              	.LVL1:
  48:.\DSP\Source\TransformFunctions/arm_bitreversal.c ****    uint16_t fftLenBy2, fftLenBy2p1;
  49:.\DSP\Source\TransformFunctions/arm_bitreversal.c ****    uint16_t i, j;
  50:.\DSP\Source\TransformFunctions/arm_bitreversal.c ****    float32_t in;
  51:.\DSP\Source\TransformFunctions/arm_bitreversal.c **** 
  52:.\DSP\Source\TransformFunctions/arm_bitreversal.c ****    /*  Initializations */
  53:.\DSP\Source\TransformFunctions/arm_bitreversal.c ****    j = 0U;
  54:.\DSP\Source\TransformFunctions/arm_bitreversal.c ****    fftLenBy2 = fftSize >> 1U;
  44              		.loc 1 54 0
  45 0004 4908     		lsrs	r1, r1, #1
  46              	.LVL2:
  55:.\DSP\Source\TransformFunctions/arm_bitreversal.c ****    fftLenBy2p1 = (fftSize >> 1U) + 1U;
  47              		.loc 1 55 0
  48 0006 01F1010C 		add	ip, r1, #1
  49              	.LVL3:
  53:.\DSP\Source\TransformFunctions/arm_bitreversal.c ****    fftLenBy2 = fftSize >> 1U;
  50              		.loc 1 53 0
  51 000a 0024     		movs	r4, #0
  56:.\DSP\Source\TransformFunctions/arm_bitreversal.c **** 
  57:.\DSP\Source\TransformFunctions/arm_bitreversal.c ****    /* Bit Reversal Implementation */
  58:.\DSP\Source\TransformFunctions/arm_bitreversal.c ****    for (i = 0U; i <= (fftLenBy2 - 2U); i += 2U)
  52              		.loc 1 58 0
  53 000c 2746     		mov	r7, r4
  54 000e 4BE0     		b	.L2
  55              	.LVL4:
ARM GAS  C:\Users\IVYLIU~1\AppData\Local\Temp\cciy5EOf.s 			page 3


  56              	.L4:
  59:.\DSP\Source\TransformFunctions/arm_bitreversal.c ****    {
  60:.\DSP\Source\TransformFunctions/arm_bitreversal.c ****       if (i < j)
  57              		.loc 1 60 0
  58 0010 A742     		cmp	r7, r4
  59 0012 2ED2     		bcs	.L3
  61:.\DSP\Source\TransformFunctions/arm_bitreversal.c ****       {
  62:.\DSP\Source\TransformFunctions/arm_bitreversal.c ****          /*  pSrc[i] <-> pSrc[j]; */
  63:.\DSP\Source\TransformFunctions/arm_bitreversal.c ****          in = pSrc[2U * i];
  60              		.loc 1 63 0
  61 0014 4FEACE06 		lsl	r6, lr, #3
  62 0018 50F83E80 		ldr	r8, [r0, lr, lsl #3]	@ float
  63              	.LVL5:
  64:.\DSP\Source\TransformFunctions/arm_bitreversal.c ****          pSrc[2U * i] = pSrc[2U * j];
  64              		.loc 1 64 0
  65 001c E500     		lsls	r5, r4, #3
  66 001e 50F83490 		ldr	r9, [r0, r4, lsl #3]	@ float
  67 0022 40F83E90 		str	r9, [r0, lr, lsl #3]	@ float
  65:.\DSP\Source\TransformFunctions/arm_bitreversal.c ****          pSrc[2U * j] = in;
  68              		.loc 1 65 0
  69 0026 40F83480 		str	r8, [r0, r4, lsl #3]	@ float
  66:.\DSP\Source\TransformFunctions/arm_bitreversal.c **** 
  67:.\DSP\Source\TransformFunctions/arm_bitreversal.c ****          /*  pSrc[i+1U] <-> pSrc[j+1U] */
  68:.\DSP\Source\TransformFunctions/arm_bitreversal.c ****          in = pSrc[(2U * i) + 1U];
  70              		.loc 1 68 0
  71 002a 0436     		adds	r6, r6, #4
  72 002c 50F80680 		ldr	r8, [r0, r6]	@ float
  73              	.LVL6:
  69:.\DSP\Source\TransformFunctions/arm_bitreversal.c ****          pSrc[(2U * i) + 1U] = pSrc[(2U * j) + 1U];
  74              		.loc 1 69 0
  75 0030 0435     		adds	r5, r5, #4
  76 0032 50F80590 		ldr	r9, [r0, r5]	@ float
  77 0036 40F80690 		str	r9, [r0, r6]	@ float
  70:.\DSP\Source\TransformFunctions/arm_bitreversal.c ****          pSrc[(2U * j) + 1U] = in;
  78              		.loc 1 70 0
  79 003a 40F80580 		str	r8, [r0, r5]	@ float
  71:.\DSP\Source\TransformFunctions/arm_bitreversal.c **** 
  72:.\DSP\Source\TransformFunctions/arm_bitreversal.c ****          /*  pSrc[i+fftLenBy2p1] <-> pSrc[j+fftLenBy2p1] */
  73:.\DSP\Source\TransformFunctions/arm_bitreversal.c ****          in = pSrc[2U * (i + fftLenBy2p1)];
  80              		.loc 1 73 0
  81 003e 07EB0C09 		add	r9, r7, ip
  82 0042 4FEAC906 		lsl	r6, r9, #3
  83 0046 50F839A0 		ldr	r10, [r0, r9, lsl #3]	@ float
  84              	.LVL7:
  74:.\DSP\Source\TransformFunctions/arm_bitreversal.c ****          pSrc[2U * (i + fftLenBy2p1)] = pSrc[2U * (j + fftLenBy2p1)];
  85              		.loc 1 74 0
  86 004a 0CEB0408 		add	r8, ip, r4
  87 004e 4FEAC805 		lsl	r5, r8, #3
  88 0052 50F838B0 		ldr	fp, [r0, r8, lsl #3]	@ float
  89 0056 40F839B0 		str	fp, [r0, r9, lsl #3]	@ float
  75:.\DSP\Source\TransformFunctions/arm_bitreversal.c ****          pSrc[2U * (j + fftLenBy2p1)] = in;
  90              		.loc 1 75 0
  91 005a 40F838A0 		str	r10, [r0, r8, lsl #3]	@ float
  76:.\DSP\Source\TransformFunctions/arm_bitreversal.c **** 
  77:.\DSP\Source\TransformFunctions/arm_bitreversal.c ****          /*  pSrc[i+fftLenBy2p1+1U] <-> pSrc[j+fftLenBy2p1+1U] */
  78:.\DSP\Source\TransformFunctions/arm_bitreversal.c ****          in = pSrc[(2U * (i + fftLenBy2p1)) + 1U];
  92              		.loc 1 78 0
ARM GAS  C:\Users\IVYLIU~1\AppData\Local\Temp\cciy5EOf.s 			page 4


  93 005e 0436     		adds	r6, r6, #4
  94 0060 50F80680 		ldr	r8, [r0, r6]	@ float
  95              	.LVL8:
  79:.\DSP\Source\TransformFunctions/arm_bitreversal.c ****          pSrc[(2U * (i + fftLenBy2p1)) + 1U] =
  80:.\DSP\Source\TransformFunctions/arm_bitreversal.c ****          pSrc[(2U * (j + fftLenBy2p1)) + 1U];
  96              		.loc 1 80 0
  97 0064 0435     		adds	r5, r5, #4
  98 0066 50F80590 		ldr	r9, [r0, r5]	@ float
  79:.\DSP\Source\TransformFunctions/arm_bitreversal.c ****          pSrc[(2U * (i + fftLenBy2p1)) + 1U] =
  99              		.loc 1 79 0
 100 006a 40F80690 		str	r9, [r0, r6]	@ float
  81:.\DSP\Source\TransformFunctions/arm_bitreversal.c ****          pSrc[(2U * (j + fftLenBy2p1)) + 1U] = in;
 101              		.loc 1 81 0
 102 006e 40F80580 		str	r8, [r0, r5]	@ float
 103              	.LVL9:
 104              	.L3:
  82:.\DSP\Source\TransformFunctions/arm_bitreversal.c **** 
  83:.\DSP\Source\TransformFunctions/arm_bitreversal.c ****       }
  84:.\DSP\Source\TransformFunctions/arm_bitreversal.c **** 
  85:.\DSP\Source\TransformFunctions/arm_bitreversal.c ****       /*  pSrc[i+1U] <-> pSrc[j+1U] */
  86:.\DSP\Source\TransformFunctions/arm_bitreversal.c ****       in = pSrc[2U * (i + 1U)];
 105              		.loc 1 86 0 discriminator 2
 106 0072 0EF1010E 		add	lr, lr, #1
 107 0076 4FEACE05 		lsl	r5, lr, #3
 108 007a 50F83E80 		ldr	r8, [r0, lr, lsl #3]	@ float
 109              	.LVL10:
  87:.\DSP\Source\TransformFunctions/arm_bitreversal.c ****       pSrc[2U * (i + 1U)] = pSrc[2U * (j + fftLenBy2)];
 110              		.loc 1 87 0 discriminator 2
 111 007e 6618     		adds	r6, r4, r1
 112 0080 F400     		lsls	r4, r6, #3
 113              	.LVL11:
 114 0082 50F83690 		ldr	r9, [r0, r6, lsl #3]	@ float
 115 0086 40F83E90 		str	r9, [r0, lr, lsl #3]	@ float
  88:.\DSP\Source\TransformFunctions/arm_bitreversal.c ****       pSrc[2U * (j + fftLenBy2)] = in;
 116              		.loc 1 88 0 discriminator 2
 117 008a 40F83680 		str	r8, [r0, r6, lsl #3]	@ float
  89:.\DSP\Source\TransformFunctions/arm_bitreversal.c **** 
  90:.\DSP\Source\TransformFunctions/arm_bitreversal.c ****       /*  pSrc[i+2U] <-> pSrc[j+2U] */
  91:.\DSP\Source\TransformFunctions/arm_bitreversal.c ****       in = pSrc[(2U * (i + 1U)) + 1U];
 118              		.loc 1 91 0 discriminator 2
 119 008e 0435     		adds	r5, r5, #4
 120 0090 4659     		ldr	r6, [r0, r5]	@ float
 121              	.LVL12:
  92:.\DSP\Source\TransformFunctions/arm_bitreversal.c ****       pSrc[(2U * (i + 1U)) + 1U] = pSrc[(2U * (j + fftLenBy2)) + 1U];
 122              		.loc 1 92 0 discriminator 2
 123 0092 0434     		adds	r4, r4, #4
 124 0094 50F804E0 		ldr	lr, [r0, r4]	@ float
 125 0098 40F805E0 		str	lr, [r0, r5]	@ float
  93:.\DSP\Source\TransformFunctions/arm_bitreversal.c ****       pSrc[(2U * (j + fftLenBy2)) + 1U] = in;
 126              		.loc 1 93 0 discriminator 2
 127 009c 0651     		str	r6, [r0, r4]	@ float
  94:.\DSP\Source\TransformFunctions/arm_bitreversal.c **** 
  95:.\DSP\Source\TransformFunctions/arm_bitreversal.c ****       /*  Reading the index for the bit reversal */
  96:.\DSP\Source\TransformFunctions/arm_bitreversal.c ****       j = *pBitRevTab;
 128              		.loc 1 96 0 discriminator 2
 129 009e 1C88     		ldrh	r4, [r3]
 130              	.LVL13:
ARM GAS  C:\Users\IVYLIU~1\AppData\Local\Temp\cciy5EOf.s 			page 5


  97:.\DSP\Source\TransformFunctions/arm_bitreversal.c **** 
  98:.\DSP\Source\TransformFunctions/arm_bitreversal.c ****       /*  Updating the bit reversal index depending on the fft length  */
  99:.\DSP\Source\TransformFunctions/arm_bitreversal.c ****       pBitRevTab += bitRevFactor;
 131              		.loc 1 99 0 discriminator 2
 132 00a0 03EB4203 		add	r3, r3, r2, lsl #1
 133              	.LVL14:
  58:.\DSP\Source\TransformFunctions/arm_bitreversal.c ****    {
 134              		.loc 1 58 0 discriminator 2
 135 00a4 0237     		adds	r7, r7, #2
 136              	.LVL15:
 137 00a6 BFB2     		uxth	r7, r7
 138              	.LVL16:
 139              	.L2:
  58:.\DSP\Source\TransformFunctions/arm_bitreversal.c ****    {
 140              		.loc 1 58 0 is_stmt 0 discriminator 1
 141 00a8 BE46     		mov	lr, r7
 142 00aa 8D1E     		subs	r5, r1, #2
 143 00ac AF42     		cmp	r7, r5
 144 00ae AFD9     		bls	.L4
 100:.\DSP\Source\TransformFunctions/arm_bitreversal.c ****    }
 101:.\DSP\Source\TransformFunctions/arm_bitreversal.c **** }
 145              		.loc 1 101 0 is_stmt 1
 146 00b0 BDE8F08F 		pop	{r4, r5, r6, r7, r8, r9, r10, fp, pc}
 147              		.cfi_endproc
 148              	.LFE84:
 149              		.size	arm_bitreversal_f32, .-arm_bitreversal_f32
 150              		.section	.text.arm_bitreversal_q31,"ax",%progbits
 151              		.align	2
 152              		.global	arm_bitreversal_q31
 153              		.thumb
 154              		.thumb_func
 155              		.type	arm_bitreversal_q31, %function
 156              	arm_bitreversal_q31:
 157              	.LFB85:
 102:.\DSP\Source\TransformFunctions/arm_bitreversal.c **** 
 103:.\DSP\Source\TransformFunctions/arm_bitreversal.c **** 
 104:.\DSP\Source\TransformFunctions/arm_bitreversal.c **** /**
 105:.\DSP\Source\TransformFunctions/arm_bitreversal.c ****   @brief         In-place Q31 bit reversal function.
 106:.\DSP\Source\TransformFunctions/arm_bitreversal.c ****   @param[in,out] pSrc         points to in-place Q31 data buffer.
 107:.\DSP\Source\TransformFunctions/arm_bitreversal.c ****   @param[in]     fftLen       length of FFT.
 108:.\DSP\Source\TransformFunctions/arm_bitreversal.c ****   @param[in]     bitRevFactor bit reversal modifier that supports different size FFTs with the same
 109:.\DSP\Source\TransformFunctions/arm_bitreversal.c ****   @param[in]     pBitRevTab   points to bit reversal table
 110:.\DSP\Source\TransformFunctions/arm_bitreversal.c ****   @return        none
 111:.\DSP\Source\TransformFunctions/arm_bitreversal.c **** */
 112:.\DSP\Source\TransformFunctions/arm_bitreversal.c **** 
 113:.\DSP\Source\TransformFunctions/arm_bitreversal.c **** void arm_bitreversal_q31(
 114:.\DSP\Source\TransformFunctions/arm_bitreversal.c ****         q31_t * pSrc,
 115:.\DSP\Source\TransformFunctions/arm_bitreversal.c ****         uint32_t fftLen,
 116:.\DSP\Source\TransformFunctions/arm_bitreversal.c ****         uint16_t bitRevFactor,
 117:.\DSP\Source\TransformFunctions/arm_bitreversal.c ****   const uint16_t * pBitRevTab)
 118:.\DSP\Source\TransformFunctions/arm_bitreversal.c **** {
 158              		.loc 1 118 0
 159              		.cfi_startproc
 160              		@ args = 0, pretend = 0, frame = 0
 161              		@ frame_needed = 0, uses_anonymous_args = 0
 162              	.LVL17:
 163 0000 2DE9F047 		push	{r4, r5, r6, r7, r8, r9, r10, lr}
ARM GAS  C:\Users\IVYLIU~1\AppData\Local\Temp\cciy5EOf.s 			page 6


 164              		.cfi_def_cfa_offset 32
 165              		.cfi_offset 4, -32
 166              		.cfi_offset 5, -28
 167              		.cfi_offset 6, -24
 168              		.cfi_offset 7, -20
 169              		.cfi_offset 8, -16
 170              		.cfi_offset 9, -12
 171              		.cfi_offset 10, -8
 172              		.cfi_offset 14, -4
 173 0004 9246     		mov	r10, r2
 174              	.LVL18:
 119:.\DSP\Source\TransformFunctions/arm_bitreversal.c ****    uint32_t fftLenBy2, fftLenBy2p1, i, j;
 120:.\DSP\Source\TransformFunctions/arm_bitreversal.c ****    q31_t in;
 121:.\DSP\Source\TransformFunctions/arm_bitreversal.c **** 
 122:.\DSP\Source\TransformFunctions/arm_bitreversal.c ****    /*  Initializations      */
 123:.\DSP\Source\TransformFunctions/arm_bitreversal.c ****    j = 0U;
 124:.\DSP\Source\TransformFunctions/arm_bitreversal.c ****    fftLenBy2 = fftLen / 2U;
 175              		.loc 1 124 0
 176 0006 4908     		lsrs	r1, r1, #1
 177              	.LVL19:
 125:.\DSP\Source\TransformFunctions/arm_bitreversal.c ****    fftLenBy2p1 = (fftLen / 2U) + 1U;
 178              		.loc 1 125 0
 179 0008 01F1010E 		add	lr, r1, #1
 180              	.LVL20:
 123:.\DSP\Source\TransformFunctions/arm_bitreversal.c ****    fftLenBy2 = fftLen / 2U;
 181              		.loc 1 123 0
 182 000c 0024     		movs	r4, #0
 126:.\DSP\Source\TransformFunctions/arm_bitreversal.c **** 
 127:.\DSP\Source\TransformFunctions/arm_bitreversal.c ****    /* Bit Reversal Implementation */
 128:.\DSP\Source\TransformFunctions/arm_bitreversal.c ****    for (i = 0U; i <= (fftLenBy2 - 2U); i += 2U)
 183              		.loc 1 128 0
 184 000e 2746     		mov	r7, r4
 185 0010 46E0     		b	.L7
 186              	.LVL21:
 187              	.L9:
 129:.\DSP\Source\TransformFunctions/arm_bitreversal.c ****    {
 130:.\DSP\Source\TransformFunctions/arm_bitreversal.c ****       if (i < j)
 188              		.loc 1 130 0
 189 0012 A742     		cmp	r7, r4
 190 0014 2CD2     		bcs	.L8
 131:.\DSP\Source\TransformFunctions/arm_bitreversal.c ****       {
 132:.\DSP\Source\TransformFunctions/arm_bitreversal.c ****          /*  pSrc[i] <-> pSrc[j]; */
 133:.\DSP\Source\TransformFunctions/arm_bitreversal.c ****          in = pSrc[2U * i];
 191              		.loc 1 133 0
 192 0016 4FEAC70C 		lsl	ip, r7, #3
 193 001a 50F83750 		ldr	r5, [r0, r7, lsl #3]
 194              	.LVL22:
 134:.\DSP\Source\TransformFunctions/arm_bitreversal.c ****          pSrc[2U * i] = pSrc[2U * j];
 195              		.loc 1 134 0
 196 001e E600     		lsls	r6, r4, #3
 197 0020 50F83420 		ldr	r2, [r0, r4, lsl #3]
 198 0024 40F83720 		str	r2, [r0, r7, lsl #3]
 135:.\DSP\Source\TransformFunctions/arm_bitreversal.c ****          pSrc[2U * j] = in;
 199              		.loc 1 135 0
 200 0028 40F83450 		str	r5, [r0, r4, lsl #3]
 136:.\DSP\Source\TransformFunctions/arm_bitreversal.c **** 
 137:.\DSP\Source\TransformFunctions/arm_bitreversal.c ****          /*  pSrc[i+1U] <-> pSrc[j+1U] */
ARM GAS  C:\Users\IVYLIU~1\AppData\Local\Temp\cciy5EOf.s 			page 7


 138:.\DSP\Source\TransformFunctions/arm_bitreversal.c ****          in = pSrc[(2U * i) + 1U];
 201              		.loc 1 138 0
 202 002c 0CF1040C 		add	ip, ip, #4
 203 0030 50F80C50 		ldr	r5, [r0, ip]
 204              	.LVL23:
 139:.\DSP\Source\TransformFunctions/arm_bitreversal.c ****          pSrc[(2U * i) + 1U] = pSrc[(2U * j) + 1U];
 205              		.loc 1 139 0
 206 0034 0436     		adds	r6, r6, #4
 207 0036 8259     		ldr	r2, [r0, r6]
 208 0038 40F80C20 		str	r2, [r0, ip]
 140:.\DSP\Source\TransformFunctions/arm_bitreversal.c ****          pSrc[(2U * j) + 1U] = in;
 209              		.loc 1 140 0
 210 003c 8551     		str	r5, [r0, r6]
 141:.\DSP\Source\TransformFunctions/arm_bitreversal.c **** 
 142:.\DSP\Source\TransformFunctions/arm_bitreversal.c ****          /*  pSrc[i+fftLenBy2p1] <-> pSrc[j+fftLenBy2p1] */
 143:.\DSP\Source\TransformFunctions/arm_bitreversal.c ****          in = pSrc[2U * (i + fftLenBy2p1)];
 211              		.loc 1 143 0
 212 003e 07EB0E09 		add	r9, r7, lr
 213 0042 4FEAC90C 		lsl	ip, r9, #3
 214 0046 50F83950 		ldr	r5, [r0, r9, lsl #3]
 215              	.LVL24:
 144:.\DSP\Source\TransformFunctions/arm_bitreversal.c ****          pSrc[2U * (i + fftLenBy2p1)] = pSrc[2U * (j + fftLenBy2p1)];
 216              		.loc 1 144 0
 217 004a 04EB0E08 		add	r8, r4, lr
 218 004e 4FEAC806 		lsl	r6, r8, #3
 219 0052 50F83820 		ldr	r2, [r0, r8, lsl #3]
 220 0056 40F83920 		str	r2, [r0, r9, lsl #3]
 145:.\DSP\Source\TransformFunctions/arm_bitreversal.c ****          pSrc[2U * (j + fftLenBy2p1)] = in;
 221              		.loc 1 145 0
 222 005a 40F83850 		str	r5, [r0, r8, lsl #3]
 146:.\DSP\Source\TransformFunctions/arm_bitreversal.c **** 
 147:.\DSP\Source\TransformFunctions/arm_bitreversal.c ****          /*  pSrc[i+fftLenBy2p1+1U] <-> pSrc[j+fftLenBy2p1+1U] */
 148:.\DSP\Source\TransformFunctions/arm_bitreversal.c ****          in = pSrc[(2U * (i + fftLenBy2p1)) + 1U];
 223              		.loc 1 148 0
 224 005e 0CF1040C 		add	ip, ip, #4
 225 0062 50F80C50 		ldr	r5, [r0, ip]
 226              	.LVL25:
 149:.\DSP\Source\TransformFunctions/arm_bitreversal.c ****          pSrc[(2U * (i + fftLenBy2p1)) + 1U] =
 150:.\DSP\Source\TransformFunctions/arm_bitreversal.c ****          pSrc[(2U * (j + fftLenBy2p1)) + 1U];
 227              		.loc 1 150 0
 228 0066 0436     		adds	r6, r6, #4
 149:.\DSP\Source\TransformFunctions/arm_bitreversal.c ****          pSrc[(2U * (i + fftLenBy2p1)) + 1U] =
 229              		.loc 1 149 0
 230 0068 8259     		ldr	r2, [r0, r6]
 231 006a 40F80C20 		str	r2, [r0, ip]
 151:.\DSP\Source\TransformFunctions/arm_bitreversal.c ****          pSrc[(2U * (j + fftLenBy2p1)) + 1U] = in;
 232              		.loc 1 151 0
 233 006e 8551     		str	r5, [r0, r6]
 234              	.LVL26:
 235              	.L8:
 152:.\DSP\Source\TransformFunctions/arm_bitreversal.c **** 
 153:.\DSP\Source\TransformFunctions/arm_bitreversal.c ****       }
 154:.\DSP\Source\TransformFunctions/arm_bitreversal.c **** 
 155:.\DSP\Source\TransformFunctions/arm_bitreversal.c ****       /*  pSrc[i+1U] <-> pSrc[j+1U] */
 156:.\DSP\Source\TransformFunctions/arm_bitreversal.c ****       in = pSrc[2U * (i + 1U)];
 236              		.loc 1 156 0 discriminator 2
 237 0070 07F1010C 		add	ip, r7, #1
ARM GAS  C:\Users\IVYLIU~1\AppData\Local\Temp\cciy5EOf.s 			page 8


 238 0074 4FEACC05 		lsl	r5, ip, #3
 239 0078 50F83C80 		ldr	r8, [r0, ip, lsl #3]
 240              	.LVL27:
 157:.\DSP\Source\TransformFunctions/arm_bitreversal.c ****       pSrc[2U * (i + 1U)] = pSrc[2U * (j + fftLenBy2)];
 241              		.loc 1 157 0 discriminator 2
 242 007c 6618     		adds	r6, r4, r1
 243 007e F400     		lsls	r4, r6, #3
 244              	.LVL28:
 245 0080 50F83620 		ldr	r2, [r0, r6, lsl #3]
 246 0084 40F83C20 		str	r2, [r0, ip, lsl #3]
 158:.\DSP\Source\TransformFunctions/arm_bitreversal.c ****       pSrc[2U * (j + fftLenBy2)] = in;
 247              		.loc 1 158 0 discriminator 2
 248 0088 40F83680 		str	r8, [r0, r6, lsl #3]
 159:.\DSP\Source\TransformFunctions/arm_bitreversal.c **** 
 160:.\DSP\Source\TransformFunctions/arm_bitreversal.c ****       /*  pSrc[i+2U] <-> pSrc[j+2U] */
 161:.\DSP\Source\TransformFunctions/arm_bitreversal.c ****       in = pSrc[(2U * (i + 1U)) + 1U];
 249              		.loc 1 161 0 discriminator 2
 250 008c 0435     		adds	r5, r5, #4
 251 008e 4659     		ldr	r6, [r0, r5]
 252              	.LVL29:
 162:.\DSP\Source\TransformFunctions/arm_bitreversal.c ****       pSrc[(2U * (i + 1U)) + 1U] = pSrc[(2U * (j + fftLenBy2)) + 1U];
 253              		.loc 1 162 0 discriminator 2
 254 0090 0434     		adds	r4, r4, #4
 255 0092 0259     		ldr	r2, [r0, r4]
 256 0094 4251     		str	r2, [r0, r5]
 163:.\DSP\Source\TransformFunctions/arm_bitreversal.c ****       pSrc[(2U * (j + fftLenBy2)) + 1U] = in;
 257              		.loc 1 163 0 discriminator 2
 258 0096 0651     		str	r6, [r0, r4]
 164:.\DSP\Source\TransformFunctions/arm_bitreversal.c **** 
 165:.\DSP\Source\TransformFunctions/arm_bitreversal.c ****       /*  Reading the index for the bit reversal */
 166:.\DSP\Source\TransformFunctions/arm_bitreversal.c ****       j = *pBitRevTab;
 259              		.loc 1 166 0 discriminator 2
 260 0098 1C88     		ldrh	r4, [r3]
 261              	.LVL30:
 167:.\DSP\Source\TransformFunctions/arm_bitreversal.c **** 
 168:.\DSP\Source\TransformFunctions/arm_bitreversal.c ****       /*  Updating the bit reversal index depending on the fft length */
 169:.\DSP\Source\TransformFunctions/arm_bitreversal.c ****       pBitRevTab += bitRevFactor;
 262              		.loc 1 169 0 discriminator 2
 263 009a 03EB4A03 		add	r3, r3, r10, lsl #1
 264              	.LVL31:
 128:.\DSP\Source\TransformFunctions/arm_bitreversal.c ****    {
 265              		.loc 1 128 0 discriminator 2
 266 009e 0237     		adds	r7, r7, #2
 267              	.LVL32:
 268              	.L7:
 128:.\DSP\Source\TransformFunctions/arm_bitreversal.c ****    {
 269              		.loc 1 128 0 is_stmt 0 discriminator 1
 270 00a0 8D1E     		subs	r5, r1, #2
 271 00a2 BD42     		cmp	r5, r7
 272 00a4 B5D2     		bcs	.L9
 170:.\DSP\Source\TransformFunctions/arm_bitreversal.c ****    }
 171:.\DSP\Source\TransformFunctions/arm_bitreversal.c **** }
 273              		.loc 1 171 0 is_stmt 1
 274 00a6 BDE8F087 		pop	{r4, r5, r6, r7, r8, r9, r10, pc}
 275              		.cfi_endproc
 276              	.LFE85:
 277              		.size	arm_bitreversal_q31, .-arm_bitreversal_q31
ARM GAS  C:\Users\IVYLIU~1\AppData\Local\Temp\cciy5EOf.s 			page 9


 278 00aa 00BF     		.section	.text.arm_bitreversal_q15,"ax",%progbits
 279              		.align	2
 280              		.global	arm_bitreversal_q15
 281              		.thumb
 282              		.thumb_func
 283              		.type	arm_bitreversal_q15, %function
 284              	arm_bitreversal_q15:
 285              	.LFB86:
 172:.\DSP\Source\TransformFunctions/arm_bitreversal.c **** 
 173:.\DSP\Source\TransformFunctions/arm_bitreversal.c **** 
 174:.\DSP\Source\TransformFunctions/arm_bitreversal.c **** 
 175:.\DSP\Source\TransformFunctions/arm_bitreversal.c **** /**
 176:.\DSP\Source\TransformFunctions/arm_bitreversal.c ****   @brief         In-place Q15 bit reversal function.
 177:.\DSP\Source\TransformFunctions/arm_bitreversal.c ****   @param[in,out] pSrc16       points to in-place Q15 data buffer
 178:.\DSP\Source\TransformFunctions/arm_bitreversal.c ****   @param[in]     fftLen       length of FFT
 179:.\DSP\Source\TransformFunctions/arm_bitreversal.c ****   @param[in]     bitRevFactor bit reversal modifier that supports different size FFTs with the same
 180:.\DSP\Source\TransformFunctions/arm_bitreversal.c ****   @param[in]     pBitRevTab   points to bit reversal table
 181:.\DSP\Source\TransformFunctions/arm_bitreversal.c ****   @return        none
 182:.\DSP\Source\TransformFunctions/arm_bitreversal.c **** */
 183:.\DSP\Source\TransformFunctions/arm_bitreversal.c **** 
 184:.\DSP\Source\TransformFunctions/arm_bitreversal.c **** void arm_bitreversal_q15(
 185:.\DSP\Source\TransformFunctions/arm_bitreversal.c ****         q15_t * pSrc16,
 186:.\DSP\Source\TransformFunctions/arm_bitreversal.c ****         uint32_t fftLen,
 187:.\DSP\Source\TransformFunctions/arm_bitreversal.c ****         uint16_t bitRevFactor,
 188:.\DSP\Source\TransformFunctions/arm_bitreversal.c ****   const uint16_t * pBitRevTab)
 189:.\DSP\Source\TransformFunctions/arm_bitreversal.c **** {
 286              		.loc 1 189 0
 287              		.cfi_startproc
 288              		@ args = 0, pretend = 0, frame = 0
 289              		@ frame_needed = 0, uses_anonymous_args = 0
 290              	.LVL33:
 291 0000 2DE9F041 		push	{r4, r5, r6, r7, r8, lr}
 292              		.cfi_def_cfa_offset 24
 293              		.cfi_offset 4, -24
 294              		.cfi_offset 5, -20
 295              		.cfi_offset 6, -16
 296              		.cfi_offset 7, -12
 297              		.cfi_offset 8, -8
 298              		.cfi_offset 14, -4
 299 0004 9046     		mov	r8, r2
 300              	.LVL34:
 190:.\DSP\Source\TransformFunctions/arm_bitreversal.c ****    q31_t *pSrc = (q31_t *) pSrc16;
 191:.\DSP\Source\TransformFunctions/arm_bitreversal.c ****    q31_t in;
 192:.\DSP\Source\TransformFunctions/arm_bitreversal.c ****    uint32_t fftLenBy2, fftLenBy2p1;
 193:.\DSP\Source\TransformFunctions/arm_bitreversal.c ****    uint32_t i, j;
 194:.\DSP\Source\TransformFunctions/arm_bitreversal.c **** 
 195:.\DSP\Source\TransformFunctions/arm_bitreversal.c ****    /*  Initializations */
 196:.\DSP\Source\TransformFunctions/arm_bitreversal.c ****    j = 0U;
 197:.\DSP\Source\TransformFunctions/arm_bitreversal.c ****    fftLenBy2 = fftLen / 2U;
 301              		.loc 1 197 0
 302 0006 4908     		lsrs	r1, r1, #1
 303              	.LVL35:
 198:.\DSP\Source\TransformFunctions/arm_bitreversal.c ****    fftLenBy2p1 = (fftLen / 2U) + 1U;
 304              		.loc 1 198 0
 305 0008 01F1010E 		add	lr, r1, #1
 306              	.LVL36:
 196:.\DSP\Source\TransformFunctions/arm_bitreversal.c ****    fftLenBy2 = fftLen / 2U;
ARM GAS  C:\Users\IVYLIU~1\AppData\Local\Temp\cciy5EOf.s 			page 10


 307              		.loc 1 196 0
 308 000c 0024     		movs	r4, #0
 199:.\DSP\Source\TransformFunctions/arm_bitreversal.c **** 
 200:.\DSP\Source\TransformFunctions/arm_bitreversal.c ****    /* Bit Reversal Implementation */
 201:.\DSP\Source\TransformFunctions/arm_bitreversal.c ****    for (i = 0U; i <= (fftLenBy2 - 2U); i += 2U)
 309              		.loc 1 201 0
 310 000e 2546     		mov	r5, r4
 311 0010 23E0     		b	.L12
 312              	.LVL37:
 313              	.L14:
 202:.\DSP\Source\TransformFunctions/arm_bitreversal.c ****    {
 203:.\DSP\Source\TransformFunctions/arm_bitreversal.c ****       if (i < j)
 314              		.loc 1 203 0
 315 0012 A542     		cmp	r5, r4
 316 0014 13D2     		bcs	.L13
 204:.\DSP\Source\TransformFunctions/arm_bitreversal.c ****       {
 205:.\DSP\Source\TransformFunctions/arm_bitreversal.c ****          /*  pSrc[i] <-> pSrc[j]; */
 206:.\DSP\Source\TransformFunctions/arm_bitreversal.c ****          /*  pSrc[i+1U] <-> pSrc[j+1U] */
 207:.\DSP\Source\TransformFunctions/arm_bitreversal.c ****          in = pSrc[i];
 317              		.loc 1 207 0
 318 0016 50F82570 		ldr	r7, [r0, r5, lsl #2]
 319              	.LVL38:
 208:.\DSP\Source\TransformFunctions/arm_bitreversal.c ****          pSrc[i] = pSrc[j];
 320              		.loc 1 208 0
 321 001a 50F82460 		ldr	r6, [r0, r4, lsl #2]
 322 001e 40F82560 		str	r6, [r0, r5, lsl #2]
 209:.\DSP\Source\TransformFunctions/arm_bitreversal.c ****          pSrc[j] = in;
 323              		.loc 1 209 0
 324 0022 40F82470 		str	r7, [r0, r4, lsl #2]
 210:.\DSP\Source\TransformFunctions/arm_bitreversal.c **** 
 211:.\DSP\Source\TransformFunctions/arm_bitreversal.c ****          /*  pSrc[i + fftLenBy2p1] <-> pSrc[j + fftLenBy2p1];  */
 212:.\DSP\Source\TransformFunctions/arm_bitreversal.c ****          /*  pSrc[i + fftLenBy2p1+1U] <-> pSrc[j + fftLenBy2p1+1U] */
 213:.\DSP\Source\TransformFunctions/arm_bitreversal.c ****          in = pSrc[i + fftLenBy2p1];
 325              		.loc 1 213 0
 326 0026 05EB0E0C 		add	ip, r5, lr
 327 002a 50F82C70 		ldr	r7, [r0, ip, lsl #2]
 328              	.LVL39:
 214:.\DSP\Source\TransformFunctions/arm_bitreversal.c ****          pSrc[i + fftLenBy2p1] = pSrc[j + fftLenBy2p1];
 329              		.loc 1 214 0
 330 002e 04EB0E06 		add	r6, r4, lr
 331 0032 50F82620 		ldr	r2, [r0, r6, lsl #2]
 332 0036 40F82C20 		str	r2, [r0, ip, lsl #2]
 215:.\DSP\Source\TransformFunctions/arm_bitreversal.c ****          pSrc[j + fftLenBy2p1] = in;
 333              		.loc 1 215 0
 334 003a 40F82670 		str	r7, [r0, r6, lsl #2]
 335              	.LVL40:
 336              	.L13:
 216:.\DSP\Source\TransformFunctions/arm_bitreversal.c ****       }
 217:.\DSP\Source\TransformFunctions/arm_bitreversal.c **** 
 218:.\DSP\Source\TransformFunctions/arm_bitreversal.c ****       /*  pSrc[i+1U] <-> pSrc[j+fftLenBy2];         */
 219:.\DSP\Source\TransformFunctions/arm_bitreversal.c ****       /*  pSrc[i+2] <-> pSrc[j+fftLenBy2+1U]  */
 220:.\DSP\Source\TransformFunctions/arm_bitreversal.c ****       in = pSrc[i + 1U];
 337              		.loc 1 220 0 discriminator 2
 338 003e 6E1C     		adds	r6, r5, #1
 339 0040 50F82670 		ldr	r7, [r0, r6, lsl #2]
 340              	.LVL41:
 221:.\DSP\Source\TransformFunctions/arm_bitreversal.c ****       pSrc[i + 1U] = pSrc[j + fftLenBy2];
ARM GAS  C:\Users\IVYLIU~1\AppData\Local\Temp\cciy5EOf.s 			page 11


 341              		.loc 1 221 0 discriminator 2
 342 0044 0C44     		add	r4, r4, r1
 343              	.LVL42:
 344 0046 50F82420 		ldr	r2, [r0, r4, lsl #2]
 345 004a 40F82620 		str	r2, [r0, r6, lsl #2]
 222:.\DSP\Source\TransformFunctions/arm_bitreversal.c ****       pSrc[j + fftLenBy2] = in;
 346              		.loc 1 222 0 discriminator 2
 347 004e 40F82470 		str	r7, [r0, r4, lsl #2]
 223:.\DSP\Source\TransformFunctions/arm_bitreversal.c **** 
 224:.\DSP\Source\TransformFunctions/arm_bitreversal.c ****       /*  Reading the index for the bit reversal */
 225:.\DSP\Source\TransformFunctions/arm_bitreversal.c ****       j = *pBitRevTab;
 348              		.loc 1 225 0 discriminator 2
 349 0052 1C88     		ldrh	r4, [r3]
 350              	.LVL43:
 226:.\DSP\Source\TransformFunctions/arm_bitreversal.c **** 
 227:.\DSP\Source\TransformFunctions/arm_bitreversal.c ****       /*  Updating the bit reversal index depending on the fft length  */
 228:.\DSP\Source\TransformFunctions/arm_bitreversal.c ****       pBitRevTab += bitRevFactor;
 351              		.loc 1 228 0 discriminator 2
 352 0054 03EB4803 		add	r3, r3, r8, lsl #1
 353              	.LVL44:
 201:.\DSP\Source\TransformFunctions/arm_bitreversal.c ****    {
 354              		.loc 1 201 0 discriminator 2
 355 0058 0235     		adds	r5, r5, #2
 356              	.LVL45:
 357              	.L12:
 201:.\DSP\Source\TransformFunctions/arm_bitreversal.c ****    {
 358              		.loc 1 201 0 is_stmt 0 discriminator 1
 359 005a 8E1E     		subs	r6, r1, #2
 360 005c AE42     		cmp	r6, r5
 361 005e D8D2     		bcs	.L14
 229:.\DSP\Source\TransformFunctions/arm_bitreversal.c ****    }
 230:.\DSP\Source\TransformFunctions/arm_bitreversal.c **** }
 362              		.loc 1 230 0 is_stmt 1
 363 0060 BDE8F081 		pop	{r4, r5, r6, r7, r8, pc}
 364              		.cfi_endproc
 365              	.LFE86:
 366              		.size	arm_bitreversal_q15, .-arm_bitreversal_q15
 367              		.text
 368              	.Letext0:
 369              		.file 2 "c:\\program files (x86)\\cypress\\psoc creator\\3.3\\psoc creator\\import\\gnu\\arm\\4.9.
 370              		.file 3 "c:\\program files (x86)\\cypress\\psoc creator\\3.3\\psoc creator\\import\\gnu\\arm\\4.9.
 371              		.file 4 ".\\DSP\\Include/arm_math_types.h"
 372              		.file 5 ".\\Core\\Include/cmsis_gcc.h"