ARM GAS  C:\Users\IVYLIU~1\AppData\Local\Temp\cce0Hfwa.s 			page 1


   1              		.syntax unified
   2              		.cpu cortex-m3
   3              		.fpu softvfp
   4              		.eabi_attribute 20, 1
   5              		.eabi_attribute 21, 1
   6              		.eabi_attribute 23, 3
   7              		.eabi_attribute 24, 1
   8              		.eabi_attribute 25, 1
   9              		.eabi_attribute 26, 1
  10              		.eabi_attribute 30, 1
  11              		.eabi_attribute 34, 1
  12              		.eabi_attribute 18, 4
  13              		.thumb
  14              		.file	"arm_clip_q7.c"
  15              		.text
  16              	.Ltext0:
  17              		.cfi_sections	.debug_frame
  18              		.section	.text.arm_clip_q7,"ax",%progbits
  19              		.align	2
  20              		.global	arm_clip_q7
  21              		.thumb
  22              		.thumb_func
  23              		.type	arm_clip_q7, %function
  24              	arm_clip_q7:
  25              	.LFB83:
  26              		.file 1 ".\\DSP\\Source\\BasicMathFunctions\\arm_clip_q7.c"
   1:.\DSP\Source\BasicMathFunctions/arm_clip_q7.c **** /* ----------------------------------------------------------------------
   2:.\DSP\Source\BasicMathFunctions/arm_clip_q7.c ****  * Project:      CMSIS DSP Library
   3:.\DSP\Source\BasicMathFunctions/arm_clip_q7.c ****  * Title:        arm_clip_q7.c
   4:.\DSP\Source\BasicMathFunctions/arm_clip_q7.c ****  * Description:  Floating-point vector addition
   5:.\DSP\Source\BasicMathFunctions/arm_clip_q7.c ****  *
   6:.\DSP\Source\BasicMathFunctions/arm_clip_q7.c ****  * $Date:        23 April 2021
   7:.\DSP\Source\BasicMathFunctions/arm_clip_q7.c ****  * $Revision:    V1.9.0
   8:.\DSP\Source\BasicMathFunctions/arm_clip_q7.c ****  *
   9:.\DSP\Source\BasicMathFunctions/arm_clip_q7.c ****  * Target Processor: Cortex-M and Cortex-A cores
  10:.\DSP\Source\BasicMathFunctions/arm_clip_q7.c ****  * -------------------------------------------------------------------- */
  11:.\DSP\Source\BasicMathFunctions/arm_clip_q7.c **** /*
  12:.\DSP\Source\BasicMathFunctions/arm_clip_q7.c ****  * Copyright (C) 2010-2021 ARM Limited or its affiliates. All rights reserved.
  13:.\DSP\Source\BasicMathFunctions/arm_clip_q7.c ****  *
  14:.\DSP\Source\BasicMathFunctions/arm_clip_q7.c ****  * SPDX-License-Identifier: Apache-2.0
  15:.\DSP\Source\BasicMathFunctions/arm_clip_q7.c ****  *
  16:.\DSP\Source\BasicMathFunctions/arm_clip_q7.c ****  * Licensed under the Apache License, Version 2.0 (the License); you may
  17:.\DSP\Source\BasicMathFunctions/arm_clip_q7.c ****  * not use this file except in compliance with the License.
  18:.\DSP\Source\BasicMathFunctions/arm_clip_q7.c ****  * You may obtain a copy of the License at
  19:.\DSP\Source\BasicMathFunctions/arm_clip_q7.c ****  *
  20:.\DSP\Source\BasicMathFunctions/arm_clip_q7.c ****  * www.apache.org/licenses/LICENSE-2.0
  21:.\DSP\Source\BasicMathFunctions/arm_clip_q7.c ****  *
  22:.\DSP\Source\BasicMathFunctions/arm_clip_q7.c ****  * Unless required by applicable law or agreed to in writing, software
  23:.\DSP\Source\BasicMathFunctions/arm_clip_q7.c ****  * distributed under the License is distributed on an AS IS BASIS, WITHOUT
  24:.\DSP\Source\BasicMathFunctions/arm_clip_q7.c ****  * WARRANTIES OR CONDITIONS OF ANY KIND, either express or implied.
  25:.\DSP\Source\BasicMathFunctions/arm_clip_q7.c ****  * See the License for the specific language governing permissions and
  26:.\DSP\Source\BasicMathFunctions/arm_clip_q7.c ****  * limitations under the License.
  27:.\DSP\Source\BasicMathFunctions/arm_clip_q7.c ****  */
  28:.\DSP\Source\BasicMathFunctions/arm_clip_q7.c **** 
  29:.\DSP\Source\BasicMathFunctions/arm_clip_q7.c **** #include "dsp/basic_math_functions.h"
  30:.\DSP\Source\BasicMathFunctions/arm_clip_q7.c **** 
  31:.\DSP\Source\BasicMathFunctions/arm_clip_q7.c **** /**
ARM GAS  C:\Users\IVYLIU~1\AppData\Local\Temp\cce0Hfwa.s 			page 2


  32:.\DSP\Source\BasicMathFunctions/arm_clip_q7.c ****   @ingroup groupMath
  33:.\DSP\Source\BasicMathFunctions/arm_clip_q7.c ****  */
  34:.\DSP\Source\BasicMathFunctions/arm_clip_q7.c **** 
  35:.\DSP\Source\BasicMathFunctions/arm_clip_q7.c **** 
  36:.\DSP\Source\BasicMathFunctions/arm_clip_q7.c **** /**
  37:.\DSP\Source\BasicMathFunctions/arm_clip_q7.c ****   @addtogroup BasicClip
  38:.\DSP\Source\BasicMathFunctions/arm_clip_q7.c ****   @{
  39:.\DSP\Source\BasicMathFunctions/arm_clip_q7.c ****  */
  40:.\DSP\Source\BasicMathFunctions/arm_clip_q7.c **** 
  41:.\DSP\Source\BasicMathFunctions/arm_clip_q7.c **** /**
  42:.\DSP\Source\BasicMathFunctions/arm_clip_q7.c ****   @brief         Elementwise fixed-point clipping
  43:.\DSP\Source\BasicMathFunctions/arm_clip_q7.c ****   @param[in]     pSrc          points to input values
  44:.\DSP\Source\BasicMathFunctions/arm_clip_q7.c ****   @param[out]    pDst          points to output clipped values
  45:.\DSP\Source\BasicMathFunctions/arm_clip_q7.c ****   @param[in]     low           lower bound
  46:.\DSP\Source\BasicMathFunctions/arm_clip_q7.c ****   @param[in]     high          higher bound
  47:.\DSP\Source\BasicMathFunctions/arm_clip_q7.c ****   @param[in]     numSamples    number of samples to clip
  48:.\DSP\Source\BasicMathFunctions/arm_clip_q7.c ****   @return        none
  49:.\DSP\Source\BasicMathFunctions/arm_clip_q7.c ****  */
  50:.\DSP\Source\BasicMathFunctions/arm_clip_q7.c **** #if defined(ARM_MATH_MVEI) && !defined(ARM_MATH_AUTOVECTORIZE)
  51:.\DSP\Source\BasicMathFunctions/arm_clip_q7.c **** 
  52:.\DSP\Source\BasicMathFunctions/arm_clip_q7.c **** #include "arm_helium_utils.h"
  53:.\DSP\Source\BasicMathFunctions/arm_clip_q7.c **** void arm_clip_q7(const q7_t * pSrc, 
  54:.\DSP\Source\BasicMathFunctions/arm_clip_q7.c ****   q7_t * pDst, 
  55:.\DSP\Source\BasicMathFunctions/arm_clip_q7.c ****   q7_t low, 
  56:.\DSP\Source\BasicMathFunctions/arm_clip_q7.c ****   q7_t high, 
  57:.\DSP\Source\BasicMathFunctions/arm_clip_q7.c ****   uint32_t numSamples)
  58:.\DSP\Source\BasicMathFunctions/arm_clip_q7.c **** {
  59:.\DSP\Source\BasicMathFunctions/arm_clip_q7.c ****     uint32_t  blkCnt;
  60:.\DSP\Source\BasicMathFunctions/arm_clip_q7.c ****     q7x16_t curVec0, curVec1;
  61:.\DSP\Source\BasicMathFunctions/arm_clip_q7.c ****     q7x16_t vecLow, vecHigh;
  62:.\DSP\Source\BasicMathFunctions/arm_clip_q7.c **** 
  63:.\DSP\Source\BasicMathFunctions/arm_clip_q7.c ****     vecLow = vdupq_n_s8(low);
  64:.\DSP\Source\BasicMathFunctions/arm_clip_q7.c ****     vecHigh = vdupq_n_s8(high);
  65:.\DSP\Source\BasicMathFunctions/arm_clip_q7.c **** 
  66:.\DSP\Source\BasicMathFunctions/arm_clip_q7.c ****     curVec0 = vld1q(pSrc);
  67:.\DSP\Source\BasicMathFunctions/arm_clip_q7.c ****     pSrc += 16;
  68:.\DSP\Source\BasicMathFunctions/arm_clip_q7.c ****     /*
  69:.\DSP\Source\BasicMathFunctions/arm_clip_q7.c ****      * unrolled x 2 to allow
  70:.\DSP\Source\BasicMathFunctions/arm_clip_q7.c ****      * vldr/vstr/vmin/vmax
  71:.\DSP\Source\BasicMathFunctions/arm_clip_q7.c ****      * stall free interleaving
  72:.\DSP\Source\BasicMathFunctions/arm_clip_q7.c ****      */
  73:.\DSP\Source\BasicMathFunctions/arm_clip_q7.c ****     blkCnt = numSamples >> 5;
  74:.\DSP\Source\BasicMathFunctions/arm_clip_q7.c ****     while (blkCnt--)
  75:.\DSP\Source\BasicMathFunctions/arm_clip_q7.c ****     {
  76:.\DSP\Source\BasicMathFunctions/arm_clip_q7.c ****         curVec0 = vmaxq(curVec0, vecLow);
  77:.\DSP\Source\BasicMathFunctions/arm_clip_q7.c ****         curVec1 = vld1q(pSrc);
  78:.\DSP\Source\BasicMathFunctions/arm_clip_q7.c ****         pSrc += 16;
  79:.\DSP\Source\BasicMathFunctions/arm_clip_q7.c ****         curVec0 = vminq(curVec0, vecHigh);
  80:.\DSP\Source\BasicMathFunctions/arm_clip_q7.c ****         vst1q(pDst, curVec0);
  81:.\DSP\Source\BasicMathFunctions/arm_clip_q7.c ****         pDst += 16;
  82:.\DSP\Source\BasicMathFunctions/arm_clip_q7.c ****         curVec1 = vmaxq(curVec1, vecLow);
  83:.\DSP\Source\BasicMathFunctions/arm_clip_q7.c ****         curVec0 = vld1q(pSrc);
  84:.\DSP\Source\BasicMathFunctions/arm_clip_q7.c ****         pSrc += 16;
  85:.\DSP\Source\BasicMathFunctions/arm_clip_q7.c ****         curVec1 = vminq(curVec1, vecHigh);
  86:.\DSP\Source\BasicMathFunctions/arm_clip_q7.c ****         vst1q(pDst, curVec1);
  87:.\DSP\Source\BasicMathFunctions/arm_clip_q7.c ****         pDst += 16;
  88:.\DSP\Source\BasicMathFunctions/arm_clip_q7.c ****     }
ARM GAS  C:\Users\IVYLIU~1\AppData\Local\Temp\cce0Hfwa.s 			page 3


  89:.\DSP\Source\BasicMathFunctions/arm_clip_q7.c ****     /*
  90:.\DSP\Source\BasicMathFunctions/arm_clip_q7.c ****      * Tail handling
  91:.\DSP\Source\BasicMathFunctions/arm_clip_q7.c ****      */
  92:.\DSP\Source\BasicMathFunctions/arm_clip_q7.c ****     blkCnt = numSamples - ((numSamples >> 5) << 5);
  93:.\DSP\Source\BasicMathFunctions/arm_clip_q7.c ****     if (blkCnt >= 16)
  94:.\DSP\Source\BasicMathFunctions/arm_clip_q7.c ****     {
  95:.\DSP\Source\BasicMathFunctions/arm_clip_q7.c ****         curVec0 = vmaxq(curVec0, vecLow);
  96:.\DSP\Source\BasicMathFunctions/arm_clip_q7.c ****         curVec0 = vminq(curVec0, vecHigh);
  97:.\DSP\Source\BasicMathFunctions/arm_clip_q7.c ****         vst1q(pDst, curVec0);
  98:.\DSP\Source\BasicMathFunctions/arm_clip_q7.c ****         pDst += 16;
  99:.\DSP\Source\BasicMathFunctions/arm_clip_q7.c ****         curVec0 = vld1q(pSrc);
 100:.\DSP\Source\BasicMathFunctions/arm_clip_q7.c ****         pSrc += 16;
 101:.\DSP\Source\BasicMathFunctions/arm_clip_q7.c ****     }
 102:.\DSP\Source\BasicMathFunctions/arm_clip_q7.c **** 
 103:.\DSP\Source\BasicMathFunctions/arm_clip_q7.c ****     if (blkCnt > 0)
 104:.\DSP\Source\BasicMathFunctions/arm_clip_q7.c ****     {
 105:.\DSP\Source\BasicMathFunctions/arm_clip_q7.c ****         mve_pred16_t p0 = vctp8q(blkCnt & 0xf);
 106:.\DSP\Source\BasicMathFunctions/arm_clip_q7.c ****         curVec0 = vmaxq(curVec0, vecLow);
 107:.\DSP\Source\BasicMathFunctions/arm_clip_q7.c ****         curVec0 = vminq(curVec0, vecHigh);
 108:.\DSP\Source\BasicMathFunctions/arm_clip_q7.c ****         vstrbq_p(pDst, curVec0, p0);
 109:.\DSP\Source\BasicMathFunctions/arm_clip_q7.c ****     }
 110:.\DSP\Source\BasicMathFunctions/arm_clip_q7.c **** }
 111:.\DSP\Source\BasicMathFunctions/arm_clip_q7.c **** 
 112:.\DSP\Source\BasicMathFunctions/arm_clip_q7.c **** #else
 113:.\DSP\Source\BasicMathFunctions/arm_clip_q7.c **** void arm_clip_q7(const q7_t * pSrc, 
 114:.\DSP\Source\BasicMathFunctions/arm_clip_q7.c ****   q7_t * pDst, 
 115:.\DSP\Source\BasicMathFunctions/arm_clip_q7.c ****   q7_t low, 
 116:.\DSP\Source\BasicMathFunctions/arm_clip_q7.c ****   q7_t high, 
 117:.\DSP\Source\BasicMathFunctions/arm_clip_q7.c ****   uint32_t numSamples)
 118:.\DSP\Source\BasicMathFunctions/arm_clip_q7.c **** {
  27              		.loc 1 118 0
  28              		.cfi_startproc
  29              		@ args = 4, pretend = 0, frame = 0
  30              		@ frame_needed = 0, uses_anonymous_args = 0
  31              		@ link register save eliminated.
  32              	.LVL0:
  33 0000 F0B4     		push	{r4, r5, r6, r7}
  34              		.cfi_def_cfa_offset 16
  35              		.cfi_offset 4, -16
  36              		.cfi_offset 5, -12
  37              		.cfi_offset 6, -8
  38              		.cfi_offset 7, -4
  39 0002 049F     		ldr	r7, [sp, #16]
  40              	.LVL1:
 119:.\DSP\Source\BasicMathFunctions/arm_clip_q7.c ****     uint32_t i;
 120:.\DSP\Source\BasicMathFunctions/arm_clip_q7.c ****     for (i = 0; i < numSamples; i++)
  41              		.loc 1 120 0
  42 0004 0024     		movs	r4, #0
  43 0006 0CE0     		b	.L2
  44              	.LVL2:
  45              	.L6:
 121:.\DSP\Source\BasicMathFunctions/arm_clip_q7.c ****     {                                        
 122:.\DSP\Source\BasicMathFunctions/arm_clip_q7.c ****         if (pSrc[i] > high)                  
  46              		.loc 1 122 0
  47 0008 055D     		ldrb	r5, [r0, r4]	@ zero_extendqisi2
  48 000a 6EB2     		sxtb	r6, r5
  49 000c 9E42     		cmp	r6, r3
ARM GAS  C:\Users\IVYLIU~1\AppData\Local\Temp\cce0Hfwa.s 			page 4


  50 000e 01DD     		ble	.L3
 123:.\DSP\Source\BasicMathFunctions/arm_clip_q7.c ****             pDst[i] = high;                  
  51              		.loc 1 123 0
  52 0010 0B55     		strb	r3, [r1, r4]
  53 0012 05E0     		b	.L4
  54              	.L3:
 124:.\DSP\Source\BasicMathFunctions/arm_clip_q7.c ****         else if (pSrc[i] < low)              
  55              		.loc 1 124 0
  56 0014 6EB2     		sxtb	r6, r5
  57 0016 9642     		cmp	r6, r2
  58 0018 01DA     		bge	.L5
 125:.\DSP\Source\BasicMathFunctions/arm_clip_q7.c ****             pDst[i] = low;                   
  59              		.loc 1 125 0
  60 001a 0A55     		strb	r2, [r1, r4]
  61 001c 00E0     		b	.L4
  62              	.L5:
 126:.\DSP\Source\BasicMathFunctions/arm_clip_q7.c ****         else                                 
 127:.\DSP\Source\BasicMathFunctions/arm_clip_q7.c ****             pDst[i] = pSrc[i];               
  63              		.loc 1 127 0
  64 001e 0D55     		strb	r5, [r1, r4]
  65              	.L4:
 120:.\DSP\Source\BasicMathFunctions/arm_clip_q7.c ****     {                                        
  66              		.loc 1 120 0 discriminator 2
  67 0020 0134     		adds	r4, r4, #1
  68              	.LVL3:
  69              	.L2:
 120:.\DSP\Source\BasicMathFunctions/arm_clip_q7.c ****     {                                        
  70              		.loc 1 120 0 is_stmt 0 discriminator 1
  71 0022 BC42     		cmp	r4, r7
  72 0024 F0D3     		bcc	.L6
 128:.\DSP\Source\BasicMathFunctions/arm_clip_q7.c ****     }
 129:.\DSP\Source\BasicMathFunctions/arm_clip_q7.c **** }
  73              		.loc 1 129 0 is_stmt 1
  74 0026 F0BC     		pop	{r4, r5, r6, r7}
  75              		.cfi_restore 7
  76              		.cfi_restore 6
  77              		.cfi_restore 5
  78              		.cfi_restore 4
  79              		.cfi_def_cfa_offset 0
  80              	.LVL4:
  81 0028 7047     		bx	lr
  82              		.cfi_endproc
  83              	.LFE83:
  84              		.size	arm_clip_q7, .-arm_clip_q7
  85 002a 00BF     		.text
  86              	.Letext0:
  87              		.file 2 "c:\\program files (x86)\\cypress\\psoc creator\\3.3\\psoc creator\\import\\gnu\\arm\\4.9.
  88              		.file 3 "c:\\program files (x86)\\cypress\\psoc creator\\3.3\\psoc creator\\import\\gnu\\arm\\4.9.
  89              		.file 4 ".\\DSP\\Include/arm_math_types.h"
  90              		.file 5 ".\\Core\\Include/cmsis_gcc.h"