ARM GAS  C:\Users\IVYLIU~1\AppData\Local\Temp\cc1A6YEM.s 			page 1


   1              		.syntax unified
   2              		.cpu cortex-m3
   3              		.fpu softvfp
   4              		.eabi_attribute 20, 1
   5              		.eabi_attribute 21, 1
   6              		.eabi_attribute 23, 3
   7              		.eabi_attribute 24, 1
   8              		.eabi_attribute 25, 1
   9              		.eabi_attribute 26, 1
  10              		.eabi_attribute 30, 1
  11              		.eabi_attribute 34, 1
  12              		.eabi_attribute 18, 4
  13              		.thumb
  14              		.file	"arm_cmplx_mult_real_f32.c"
  15              		.text
  16              	.Ltext0:
  17              		.cfi_sections	.debug_frame
  18              		.global	__aeabi_fmul
  19              		.section	.text.arm_cmplx_mult_real_f32,"ax",%progbits
  20              		.align	2
  21              		.global	arm_cmplx_mult_real_f32
  22              		.thumb
  23              		.thumb_func
  24              		.type	arm_cmplx_mult_real_f32, %function
  25              	arm_cmplx_mult_real_f32:
  26              	.LFB84:
  27              		.file 1 ".\\DSP\\Source\\ComplexMathFunctions\\arm_cmplx_mult_real_f32.c"
   1:.\DSP\Source\ComplexMathFunctions/arm_cmplx_mult_real_f32.c **** /* ----------------------------------------------------------------------
   2:.\DSP\Source\ComplexMathFunctions/arm_cmplx_mult_real_f32.c ****  * Project:      CMSIS DSP Library
   3:.\DSP\Source\ComplexMathFunctions/arm_cmplx_mult_real_f32.c ****  * Title:        arm_cmplx_mult_real_f32.c
   4:.\DSP\Source\ComplexMathFunctions/arm_cmplx_mult_real_f32.c ****  * Description:  Floating-point complex by real multiplication
   5:.\DSP\Source\ComplexMathFunctions/arm_cmplx_mult_real_f32.c ****  *
   6:.\DSP\Source\ComplexMathFunctions/arm_cmplx_mult_real_f32.c ****  * $Date:        23 April 2021
   7:.\DSP\Source\ComplexMathFunctions/arm_cmplx_mult_real_f32.c ****  * $Revision:    V1.9.0
   8:.\DSP\Source\ComplexMathFunctions/arm_cmplx_mult_real_f32.c ****  *
   9:.\DSP\Source\ComplexMathFunctions/arm_cmplx_mult_real_f32.c ****  * Target Processor: Cortex-M and Cortex-A cores
  10:.\DSP\Source\ComplexMathFunctions/arm_cmplx_mult_real_f32.c ****  * -------------------------------------------------------------------- */
  11:.\DSP\Source\ComplexMathFunctions/arm_cmplx_mult_real_f32.c **** /*
  12:.\DSP\Source\ComplexMathFunctions/arm_cmplx_mult_real_f32.c ****  * Copyright (C) 2010-2021 ARM Limited or its affiliates. All rights reserved.
  13:.\DSP\Source\ComplexMathFunctions/arm_cmplx_mult_real_f32.c ****  *
  14:.\DSP\Source\ComplexMathFunctions/arm_cmplx_mult_real_f32.c ****  * SPDX-License-Identifier: Apache-2.0
  15:.\DSP\Source\ComplexMathFunctions/arm_cmplx_mult_real_f32.c ****  *
  16:.\DSP\Source\ComplexMathFunctions/arm_cmplx_mult_real_f32.c ****  * Licensed under the Apache License, Version 2.0 (the License); you may
  17:.\DSP\Source\ComplexMathFunctions/arm_cmplx_mult_real_f32.c ****  * not use this file except in compliance with the License.
  18:.\DSP\Source\ComplexMathFunctions/arm_cmplx_mult_real_f32.c ****  * You may obtain a copy of the License at
  19:.\DSP\Source\ComplexMathFunctions/arm_cmplx_mult_real_f32.c ****  *
  20:.\DSP\Source\ComplexMathFunctions/arm_cmplx_mult_real_f32.c ****  * www.apache.org/licenses/LICENSE-2.0
  21:.\DSP\Source\ComplexMathFunctions/arm_cmplx_mult_real_f32.c ****  *
  22:.\DSP\Source\ComplexMathFunctions/arm_cmplx_mult_real_f32.c ****  * Unless required by applicable law or agreed to in writing, software
  23:.\DSP\Source\ComplexMathFunctions/arm_cmplx_mult_real_f32.c ****  * distributed under the License is distributed on an AS IS BASIS, WITHOUT
  24:.\DSP\Source\ComplexMathFunctions/arm_cmplx_mult_real_f32.c ****  * WARRANTIES OR CONDITIONS OF ANY KIND, either express or implied.
  25:.\DSP\Source\ComplexMathFunctions/arm_cmplx_mult_real_f32.c ****  * See the License for the specific language governing permissions and
  26:.\DSP\Source\ComplexMathFunctions/arm_cmplx_mult_real_f32.c ****  * limitations under the License.
  27:.\DSP\Source\ComplexMathFunctions/arm_cmplx_mult_real_f32.c ****  */
  28:.\DSP\Source\ComplexMathFunctions/arm_cmplx_mult_real_f32.c **** 
  29:.\DSP\Source\ComplexMathFunctions/arm_cmplx_mult_real_f32.c **** #include "dsp/complex_math_functions.h"
  30:.\DSP\Source\ComplexMathFunctions/arm_cmplx_mult_real_f32.c **** 
ARM GAS  C:\Users\IVYLIU~1\AppData\Local\Temp\cc1A6YEM.s 			page 2


  31:.\DSP\Source\ComplexMathFunctions/arm_cmplx_mult_real_f32.c **** /**
  32:.\DSP\Source\ComplexMathFunctions/arm_cmplx_mult_real_f32.c ****   @ingroup groupCmplxMath
  33:.\DSP\Source\ComplexMathFunctions/arm_cmplx_mult_real_f32.c ****  */
  34:.\DSP\Source\ComplexMathFunctions/arm_cmplx_mult_real_f32.c **** 
  35:.\DSP\Source\ComplexMathFunctions/arm_cmplx_mult_real_f32.c **** /**
  36:.\DSP\Source\ComplexMathFunctions/arm_cmplx_mult_real_f32.c ****   @defgroup CmplxByRealMult Complex-by-Real Multiplication
  37:.\DSP\Source\ComplexMathFunctions/arm_cmplx_mult_real_f32.c **** 
  38:.\DSP\Source\ComplexMathFunctions/arm_cmplx_mult_real_f32.c ****   Multiplies a complex vector by a real vector and generates a complex result.
  39:.\DSP\Source\ComplexMathFunctions/arm_cmplx_mult_real_f32.c ****   The data in the complex arrays is stored in an interleaved fashion
  40:.\DSP\Source\ComplexMathFunctions/arm_cmplx_mult_real_f32.c ****   (real, imag, real, imag, ...).
  41:.\DSP\Source\ComplexMathFunctions/arm_cmplx_mult_real_f32.c ****   The parameter <code>numSamples</code> represents the number of complex
  42:.\DSP\Source\ComplexMathFunctions/arm_cmplx_mult_real_f32.c ****   samples processed.  The complex arrays have a total of <code>2*numSamples</code>
  43:.\DSP\Source\ComplexMathFunctions/arm_cmplx_mult_real_f32.c ****   real values while the real array has a total of <code>numSamples</code>
  44:.\DSP\Source\ComplexMathFunctions/arm_cmplx_mult_real_f32.c ****   real values.
  45:.\DSP\Source\ComplexMathFunctions/arm_cmplx_mult_real_f32.c **** 
  46:.\DSP\Source\ComplexMathFunctions/arm_cmplx_mult_real_f32.c ****   The underlying algorithm is used:
  47:.\DSP\Source\ComplexMathFunctions/arm_cmplx_mult_real_f32.c **** 
  48:.\DSP\Source\ComplexMathFunctions/arm_cmplx_mult_real_f32.c ****   <pre>
  49:.\DSP\Source\ComplexMathFunctions/arm_cmplx_mult_real_f32.c ****   for (n = 0; n < numSamples; n++) {
  50:.\DSP\Source\ComplexMathFunctions/arm_cmplx_mult_real_f32.c ****       pCmplxDst[(2*n)+0] = pSrcCmplx[(2*n)+0] * pSrcReal[n];
  51:.\DSP\Source\ComplexMathFunctions/arm_cmplx_mult_real_f32.c ****       pCmplxDst[(2*n)+1] = pSrcCmplx[(2*n)+1] * pSrcReal[n];
  52:.\DSP\Source\ComplexMathFunctions/arm_cmplx_mult_real_f32.c ****   }
  53:.\DSP\Source\ComplexMathFunctions/arm_cmplx_mult_real_f32.c ****   </pre>
  54:.\DSP\Source\ComplexMathFunctions/arm_cmplx_mult_real_f32.c **** 
  55:.\DSP\Source\ComplexMathFunctions/arm_cmplx_mult_real_f32.c ****   There are separate functions for floating-point, Q15, and Q31 data types.
  56:.\DSP\Source\ComplexMathFunctions/arm_cmplx_mult_real_f32.c ****  */
  57:.\DSP\Source\ComplexMathFunctions/arm_cmplx_mult_real_f32.c **** 
  58:.\DSP\Source\ComplexMathFunctions/arm_cmplx_mult_real_f32.c **** /**
  59:.\DSP\Source\ComplexMathFunctions/arm_cmplx_mult_real_f32.c ****   @addtogroup CmplxByRealMult
  60:.\DSP\Source\ComplexMathFunctions/arm_cmplx_mult_real_f32.c ****   @{
  61:.\DSP\Source\ComplexMathFunctions/arm_cmplx_mult_real_f32.c ****  */
  62:.\DSP\Source\ComplexMathFunctions/arm_cmplx_mult_real_f32.c **** 
  63:.\DSP\Source\ComplexMathFunctions/arm_cmplx_mult_real_f32.c **** /**
  64:.\DSP\Source\ComplexMathFunctions/arm_cmplx_mult_real_f32.c ****   @brief         Floating-point complex-by-real multiplication.
  65:.\DSP\Source\ComplexMathFunctions/arm_cmplx_mult_real_f32.c ****   @param[in]     pSrcCmplx   points to complex input vector
  66:.\DSP\Source\ComplexMathFunctions/arm_cmplx_mult_real_f32.c ****   @param[in]     pSrcReal    points to real input vector
  67:.\DSP\Source\ComplexMathFunctions/arm_cmplx_mult_real_f32.c ****   @param[out]    pCmplxDst   points to complex output vector
  68:.\DSP\Source\ComplexMathFunctions/arm_cmplx_mult_real_f32.c ****   @param[in]     numSamples  number of samples in each vector
  69:.\DSP\Source\ComplexMathFunctions/arm_cmplx_mult_real_f32.c ****   @return        none
  70:.\DSP\Source\ComplexMathFunctions/arm_cmplx_mult_real_f32.c ****  */
  71:.\DSP\Source\ComplexMathFunctions/arm_cmplx_mult_real_f32.c **** 
  72:.\DSP\Source\ComplexMathFunctions/arm_cmplx_mult_real_f32.c **** #if defined(ARM_MATH_MVEF) && !defined(ARM_MATH_AUTOVECTORIZE)
  73:.\DSP\Source\ComplexMathFunctions/arm_cmplx_mult_real_f32.c **** 
  74:.\DSP\Source\ComplexMathFunctions/arm_cmplx_mult_real_f32.c **** void arm_cmplx_mult_real_f32(
  75:.\DSP\Source\ComplexMathFunctions/arm_cmplx_mult_real_f32.c ****   const float32_t * pSrcCmplx,
  76:.\DSP\Source\ComplexMathFunctions/arm_cmplx_mult_real_f32.c ****   const float32_t * pSrcReal,
  77:.\DSP\Source\ComplexMathFunctions/arm_cmplx_mult_real_f32.c ****         float32_t * pCmplxDst,
  78:.\DSP\Source\ComplexMathFunctions/arm_cmplx_mult_real_f32.c ****         uint32_t numSamples)
  79:.\DSP\Source\ComplexMathFunctions/arm_cmplx_mult_real_f32.c **** {
  80:.\DSP\Source\ComplexMathFunctions/arm_cmplx_mult_real_f32.c ****     static const uint32_t stride_cmplx_x_real_32[4] = { 0, 0, 1, 1 };
  81:.\DSP\Source\ComplexMathFunctions/arm_cmplx_mult_real_f32.c **** 
  82:.\DSP\Source\ComplexMathFunctions/arm_cmplx_mult_real_f32.c ****     uint32_t blockSizeC = numSamples * CMPLX_DIM;   /* loop counters */
  83:.\DSP\Source\ComplexMathFunctions/arm_cmplx_mult_real_f32.c ****     uint32_t blkCnt;
  84:.\DSP\Source\ComplexMathFunctions/arm_cmplx_mult_real_f32.c ****     f32x4_t rVec;
  85:.\DSP\Source\ComplexMathFunctions/arm_cmplx_mult_real_f32.c ****     f32x4_t cmplxVec;
  86:.\DSP\Source\ComplexMathFunctions/arm_cmplx_mult_real_f32.c ****     f32x4_t dstVec;
  87:.\DSP\Source\ComplexMathFunctions/arm_cmplx_mult_real_f32.c ****     uint32x4_t strideVec;
ARM GAS  C:\Users\IVYLIU~1\AppData\Local\Temp\cc1A6YEM.s 			page 3


  88:.\DSP\Source\ComplexMathFunctions/arm_cmplx_mult_real_f32.c ****     float32_t in;  
  89:.\DSP\Source\ComplexMathFunctions/arm_cmplx_mult_real_f32.c **** 
  90:.\DSP\Source\ComplexMathFunctions/arm_cmplx_mult_real_f32.c **** 
  91:.\DSP\Source\ComplexMathFunctions/arm_cmplx_mult_real_f32.c ****     /* stride vector for pairs of real generation */
  92:.\DSP\Source\ComplexMathFunctions/arm_cmplx_mult_real_f32.c ****     strideVec = vld1q(stride_cmplx_x_real_32);
  93:.\DSP\Source\ComplexMathFunctions/arm_cmplx_mult_real_f32.c **** 
  94:.\DSP\Source\ComplexMathFunctions/arm_cmplx_mult_real_f32.c ****     /* Compute 4 complex outputs at a time */
  95:.\DSP\Source\ComplexMathFunctions/arm_cmplx_mult_real_f32.c ****     blkCnt = blockSizeC >> 2;
  96:.\DSP\Source\ComplexMathFunctions/arm_cmplx_mult_real_f32.c ****     while (blkCnt > 0U) 
  97:.\DSP\Source\ComplexMathFunctions/arm_cmplx_mult_real_f32.c ****     {
  98:.\DSP\Source\ComplexMathFunctions/arm_cmplx_mult_real_f32.c ****         cmplxVec = vld1q(pSrcCmplx);
  99:.\DSP\Source\ComplexMathFunctions/arm_cmplx_mult_real_f32.c ****         rVec = vldrwq_gather_shifted_offset_f32(pSrcReal, strideVec);
 100:.\DSP\Source\ComplexMathFunctions/arm_cmplx_mult_real_f32.c ****         dstVec = vmulq(cmplxVec, rVec);
 101:.\DSP\Source\ComplexMathFunctions/arm_cmplx_mult_real_f32.c ****         vst1q(pCmplxDst, dstVec);
 102:.\DSP\Source\ComplexMathFunctions/arm_cmplx_mult_real_f32.c **** 
 103:.\DSP\Source\ComplexMathFunctions/arm_cmplx_mult_real_f32.c ****         pSrcReal += 2;
 104:.\DSP\Source\ComplexMathFunctions/arm_cmplx_mult_real_f32.c ****         pSrcCmplx += 4;
 105:.\DSP\Source\ComplexMathFunctions/arm_cmplx_mult_real_f32.c ****         pCmplxDst += 4;
 106:.\DSP\Source\ComplexMathFunctions/arm_cmplx_mult_real_f32.c ****         blkCnt--;
 107:.\DSP\Source\ComplexMathFunctions/arm_cmplx_mult_real_f32.c ****     }
 108:.\DSP\Source\ComplexMathFunctions/arm_cmplx_mult_real_f32.c **** 
 109:.\DSP\Source\ComplexMathFunctions/arm_cmplx_mult_real_f32.c ****     blkCnt = (blockSizeC & 3) >> 1; 
 110:.\DSP\Source\ComplexMathFunctions/arm_cmplx_mult_real_f32.c ****     while (blkCnt > 0U)
 111:.\DSP\Source\ComplexMathFunctions/arm_cmplx_mult_real_f32.c ****     {
 112:.\DSP\Source\ComplexMathFunctions/arm_cmplx_mult_real_f32.c ****       /* C[2 * i    ] = A[2 * i    ] * B[i]. */
 113:.\DSP\Source\ComplexMathFunctions/arm_cmplx_mult_real_f32.c ****       /* C[2 * i + 1] = A[2 * i + 1] * B[i]. */
 114:.\DSP\Source\ComplexMathFunctions/arm_cmplx_mult_real_f32.c ****   
 115:.\DSP\Source\ComplexMathFunctions/arm_cmplx_mult_real_f32.c ****       in = *pSrcReal++;
 116:.\DSP\Source\ComplexMathFunctions/arm_cmplx_mult_real_f32.c ****       /* store result in destination buffer. */
 117:.\DSP\Source\ComplexMathFunctions/arm_cmplx_mult_real_f32.c ****       *pCmplxDst++ = *pSrcCmplx++ * in;
 118:.\DSP\Source\ComplexMathFunctions/arm_cmplx_mult_real_f32.c ****       *pCmplxDst++ = *pSrcCmplx++ * in;
 119:.\DSP\Source\ComplexMathFunctions/arm_cmplx_mult_real_f32.c ****   
 120:.\DSP\Source\ComplexMathFunctions/arm_cmplx_mult_real_f32.c ****       /* Decrement loop counter */
 121:.\DSP\Source\ComplexMathFunctions/arm_cmplx_mult_real_f32.c ****       blkCnt--;
 122:.\DSP\Source\ComplexMathFunctions/arm_cmplx_mult_real_f32.c ****     }
 123:.\DSP\Source\ComplexMathFunctions/arm_cmplx_mult_real_f32.c **** }
 124:.\DSP\Source\ComplexMathFunctions/arm_cmplx_mult_real_f32.c **** 
 125:.\DSP\Source\ComplexMathFunctions/arm_cmplx_mult_real_f32.c **** #else
 126:.\DSP\Source\ComplexMathFunctions/arm_cmplx_mult_real_f32.c **** void arm_cmplx_mult_real_f32(
 127:.\DSP\Source\ComplexMathFunctions/arm_cmplx_mult_real_f32.c ****   const float32_t * pSrcCmplx,
 128:.\DSP\Source\ComplexMathFunctions/arm_cmplx_mult_real_f32.c ****   const float32_t * pSrcReal,
 129:.\DSP\Source\ComplexMathFunctions/arm_cmplx_mult_real_f32.c ****         float32_t * pCmplxDst,
 130:.\DSP\Source\ComplexMathFunctions/arm_cmplx_mult_real_f32.c ****         uint32_t numSamples)
 131:.\DSP\Source\ComplexMathFunctions/arm_cmplx_mult_real_f32.c **** {
  28              		.loc 1 131 0
  29              		.cfi_startproc
  30              		@ args = 0, pretend = 0, frame = 0
  31              		@ frame_needed = 0, uses_anonymous_args = 0
  32              	.LVL0:
  33 0000 2DE9F047 		push	{r4, r5, r6, r7, r8, r9, r10, lr}
  34              		.cfi_def_cfa_offset 32
  35              		.cfi_offset 4, -32
  36              		.cfi_offset 5, -28
  37              		.cfi_offset 6, -24
  38              		.cfi_offset 7, -20
  39              		.cfi_offset 8, -16
  40              		.cfi_offset 9, -12
ARM GAS  C:\Users\IVYLIU~1\AppData\Local\Temp\cc1A6YEM.s 			page 4


  41              		.cfi_offset 10, -8
  42              		.cfi_offset 14, -4
  43 0004 8046     		mov	r8, r0
  44 0006 1746     		mov	r7, r2
  45 0008 1E46     		mov	r6, r3
  46              	.LVL1:
 132:.\DSP\Source\ComplexMathFunctions/arm_cmplx_mult_real_f32.c ****         uint32_t blkCnt;                               /* Loop counter */
 133:.\DSP\Source\ComplexMathFunctions/arm_cmplx_mult_real_f32.c ****         float32_t in;                                  /* Temporary variable */
 134:.\DSP\Source\ComplexMathFunctions/arm_cmplx_mult_real_f32.c **** 
 135:.\DSP\Source\ComplexMathFunctions/arm_cmplx_mult_real_f32.c **** #if defined(ARM_MATH_NEON) && !defined(ARM_MATH_AUTOVECTORIZE)
 136:.\DSP\Source\ComplexMathFunctions/arm_cmplx_mult_real_f32.c ****     float32x4_t r;
 137:.\DSP\Source\ComplexMathFunctions/arm_cmplx_mult_real_f32.c ****     float32x4x2_t ab,outCplx;
 138:.\DSP\Source\ComplexMathFunctions/arm_cmplx_mult_real_f32.c **** 
 139:.\DSP\Source\ComplexMathFunctions/arm_cmplx_mult_real_f32.c ****     /* Compute 4 outputs at a time */
 140:.\DSP\Source\ComplexMathFunctions/arm_cmplx_mult_real_f32.c ****     blkCnt = numSamples >> 2U;
 141:.\DSP\Source\ComplexMathFunctions/arm_cmplx_mult_real_f32.c **** 
 142:.\DSP\Source\ComplexMathFunctions/arm_cmplx_mult_real_f32.c ****     while (blkCnt > 0U)
 143:.\DSP\Source\ComplexMathFunctions/arm_cmplx_mult_real_f32.c ****     {
 144:.\DSP\Source\ComplexMathFunctions/arm_cmplx_mult_real_f32.c ****         ab = vld2q_f32(pSrcCmplx);  // load & separate real/imag pSrcA (de-interleave 2)
 145:.\DSP\Source\ComplexMathFunctions/arm_cmplx_mult_real_f32.c ****         r = vld1q_f32(pSrcReal);  // load & separate real/imag pSrcB
 146:.\DSP\Source\ComplexMathFunctions/arm_cmplx_mult_real_f32.c **** 
 147:.\DSP\Source\ComplexMathFunctions/arm_cmplx_mult_real_f32.c **** 	/* Increment pointers */
 148:.\DSP\Source\ComplexMathFunctions/arm_cmplx_mult_real_f32.c ****         pSrcCmplx += 8;
 149:.\DSP\Source\ComplexMathFunctions/arm_cmplx_mult_real_f32.c ****         pSrcReal += 4;
 150:.\DSP\Source\ComplexMathFunctions/arm_cmplx_mult_real_f32.c **** 
 151:.\DSP\Source\ComplexMathFunctions/arm_cmplx_mult_real_f32.c ****         outCplx.val[0] = vmulq_f32(ab.val[0], r);
 152:.\DSP\Source\ComplexMathFunctions/arm_cmplx_mult_real_f32.c ****         outCplx.val[1] = vmulq_f32(ab.val[1], r);
 153:.\DSP\Source\ComplexMathFunctions/arm_cmplx_mult_real_f32.c **** 
 154:.\DSP\Source\ComplexMathFunctions/arm_cmplx_mult_real_f32.c ****         vst2q_f32(pCmplxDst, outCplx);
 155:.\DSP\Source\ComplexMathFunctions/arm_cmplx_mult_real_f32.c ****         pCmplxDst += 8;
 156:.\DSP\Source\ComplexMathFunctions/arm_cmplx_mult_real_f32.c **** 
 157:.\DSP\Source\ComplexMathFunctions/arm_cmplx_mult_real_f32.c ****         blkCnt--;
 158:.\DSP\Source\ComplexMathFunctions/arm_cmplx_mult_real_f32.c ****     }
 159:.\DSP\Source\ComplexMathFunctions/arm_cmplx_mult_real_f32.c **** 
 160:.\DSP\Source\ComplexMathFunctions/arm_cmplx_mult_real_f32.c ****     /* Tail */
 161:.\DSP\Source\ComplexMathFunctions/arm_cmplx_mult_real_f32.c ****     blkCnt = numSamples & 3;
 162:.\DSP\Source\ComplexMathFunctions/arm_cmplx_mult_real_f32.c **** #else
 163:.\DSP\Source\ComplexMathFunctions/arm_cmplx_mult_real_f32.c **** #if defined (ARM_MATH_LOOPUNROLL) && !defined(ARM_MATH_AUTOVECTORIZE)
 164:.\DSP\Source\ComplexMathFunctions/arm_cmplx_mult_real_f32.c **** 
 165:.\DSP\Source\ComplexMathFunctions/arm_cmplx_mult_real_f32.c ****   /* Loop unrolling: Compute 4 outputs at a time */
 166:.\DSP\Source\ComplexMathFunctions/arm_cmplx_mult_real_f32.c ****   blkCnt = numSamples >> 2U;
 167:.\DSP\Source\ComplexMathFunctions/arm_cmplx_mult_real_f32.c **** 
 168:.\DSP\Source\ComplexMathFunctions/arm_cmplx_mult_real_f32.c ****   while (blkCnt > 0U)
 169:.\DSP\Source\ComplexMathFunctions/arm_cmplx_mult_real_f32.c ****   {
 170:.\DSP\Source\ComplexMathFunctions/arm_cmplx_mult_real_f32.c ****     /* C[2 * i    ] = A[2 * i    ] * B[i]. */
 171:.\DSP\Source\ComplexMathFunctions/arm_cmplx_mult_real_f32.c ****     /* C[2 * i + 1] = A[2 * i + 1] * B[i]. */
 172:.\DSP\Source\ComplexMathFunctions/arm_cmplx_mult_real_f32.c **** 
 173:.\DSP\Source\ComplexMathFunctions/arm_cmplx_mult_real_f32.c ****     in = *pSrcReal++;
 174:.\DSP\Source\ComplexMathFunctions/arm_cmplx_mult_real_f32.c ****     /* store result in destination buffer. */
 175:.\DSP\Source\ComplexMathFunctions/arm_cmplx_mult_real_f32.c ****     *pCmplxDst++ = *pSrcCmplx++ * in;
 176:.\DSP\Source\ComplexMathFunctions/arm_cmplx_mult_real_f32.c ****     *pCmplxDst++ = *pSrcCmplx++ * in;
 177:.\DSP\Source\ComplexMathFunctions/arm_cmplx_mult_real_f32.c **** 
 178:.\DSP\Source\ComplexMathFunctions/arm_cmplx_mult_real_f32.c ****     in = *pSrcReal++;
 179:.\DSP\Source\ComplexMathFunctions/arm_cmplx_mult_real_f32.c ****     *pCmplxDst++ = *pSrcCmplx++ * in;
 180:.\DSP\Source\ComplexMathFunctions/arm_cmplx_mult_real_f32.c ****     *pCmplxDst++ = *pSrcCmplx++ * in;
 181:.\DSP\Source\ComplexMathFunctions/arm_cmplx_mult_real_f32.c **** 
 182:.\DSP\Source\ComplexMathFunctions/arm_cmplx_mult_real_f32.c ****     in = *pSrcReal++;
ARM GAS  C:\Users\IVYLIU~1\AppData\Local\Temp\cc1A6YEM.s 			page 5


 183:.\DSP\Source\ComplexMathFunctions/arm_cmplx_mult_real_f32.c ****     *pCmplxDst++ = *pSrcCmplx++ * in;
 184:.\DSP\Source\ComplexMathFunctions/arm_cmplx_mult_real_f32.c ****     *pCmplxDst++ = *pSrcCmplx++ * in;
 185:.\DSP\Source\ComplexMathFunctions/arm_cmplx_mult_real_f32.c **** 
 186:.\DSP\Source\ComplexMathFunctions/arm_cmplx_mult_real_f32.c ****     in = *pSrcReal++;
 187:.\DSP\Source\ComplexMathFunctions/arm_cmplx_mult_real_f32.c ****     *pCmplxDst++ = *pSrcCmplx++* in;
 188:.\DSP\Source\ComplexMathFunctions/arm_cmplx_mult_real_f32.c ****     *pCmplxDst++ = *pSrcCmplx++ * in;
 189:.\DSP\Source\ComplexMathFunctions/arm_cmplx_mult_real_f32.c **** 
 190:.\DSP\Source\ComplexMathFunctions/arm_cmplx_mult_real_f32.c ****     /* Decrement loop counter */
 191:.\DSP\Source\ComplexMathFunctions/arm_cmplx_mult_real_f32.c ****     blkCnt--;
 192:.\DSP\Source\ComplexMathFunctions/arm_cmplx_mult_real_f32.c ****   }
 193:.\DSP\Source\ComplexMathFunctions/arm_cmplx_mult_real_f32.c **** 
 194:.\DSP\Source\ComplexMathFunctions/arm_cmplx_mult_real_f32.c ****   /* Loop unrolling: Compute remaining outputs */
 195:.\DSP\Source\ComplexMathFunctions/arm_cmplx_mult_real_f32.c ****   blkCnt = numSamples % 0x4U;
 196:.\DSP\Source\ComplexMathFunctions/arm_cmplx_mult_real_f32.c **** 
 197:.\DSP\Source\ComplexMathFunctions/arm_cmplx_mult_real_f32.c **** #else
 198:.\DSP\Source\ComplexMathFunctions/arm_cmplx_mult_real_f32.c **** 
 199:.\DSP\Source\ComplexMathFunctions/arm_cmplx_mult_real_f32.c ****   /* Initialize blkCnt with number of samples */
 200:.\DSP\Source\ComplexMathFunctions/arm_cmplx_mult_real_f32.c ****   blkCnt = numSamples;
 201:.\DSP\Source\ComplexMathFunctions/arm_cmplx_mult_real_f32.c **** 
 202:.\DSP\Source\ComplexMathFunctions/arm_cmplx_mult_real_f32.c **** #endif /* #if defined (ARM_MATH_LOOPUNROLL) */
 203:.\DSP\Source\ComplexMathFunctions/arm_cmplx_mult_real_f32.c **** #endif /* #if defined(ARM_MATH_NEON) */
 204:.\DSP\Source\ComplexMathFunctions/arm_cmplx_mult_real_f32.c **** 
 205:.\DSP\Source\ComplexMathFunctions/arm_cmplx_mult_real_f32.c ****   while (blkCnt > 0U)
  47              		.loc 1 205 0
  48 000a 16E0     		b	.L2
  49              	.LVL2:
  50              	.L3:
 206:.\DSP\Source\ComplexMathFunctions/arm_cmplx_mult_real_f32.c ****   {
 207:.\DSP\Source\ComplexMathFunctions/arm_cmplx_mult_real_f32.c ****     /* C[2 * i    ] = A[2 * i    ] * B[i]. */
 208:.\DSP\Source\ComplexMathFunctions/arm_cmplx_mult_real_f32.c ****     /* C[2 * i + 1] = A[2 * i + 1] * B[i]. */
 209:.\DSP\Source\ComplexMathFunctions/arm_cmplx_mult_real_f32.c **** 
 210:.\DSP\Source\ComplexMathFunctions/arm_cmplx_mult_real_f32.c ****     in = *pSrcReal++;
  51              		.loc 1 210 0
  52 000c 01F1040A 		add	r10, r1, #4
  53              	.LVL3:
  54 0010 D1F80090 		ldr	r9, [r1]	@ float
  55              	.LVL4:
 211:.\DSP\Source\ComplexMathFunctions/arm_cmplx_mult_real_f32.c ****     /* store result in destination buffer. */
 212:.\DSP\Source\ComplexMathFunctions/arm_cmplx_mult_real_f32.c ****     *pCmplxDst++ = *pSrcCmplx++ * in;
  56              		.loc 1 212 0
  57 0014 4446     		mov	r4, r8
  58 0016 54F8080B 		ldr	r0, [r4], #8	@ float
  59 001a 4946     		mov	r1, r9
  60 001c FFF7FEFF 		bl	__aeabi_fmul
  61              	.LVL5:
  62 0020 3D46     		mov	r5, r7
  63 0022 45F8080B 		str	r0, [r5], #8	@ float
  64              	.LVL6:
 213:.\DSP\Source\ComplexMathFunctions/arm_cmplx_mult_real_f32.c ****     *pCmplxDst++ = *pSrcCmplx++ * in;
  65              		.loc 1 213 0
  66 0026 D8F80400 		ldr	r0, [r8, #4]	@ float
  67 002a 4946     		mov	r1, r9
  68 002c FFF7FEFF 		bl	__aeabi_fmul
  69              	.LVL7:
  70 0030 7860     		str	r0, [r7, #4]	@ float
 214:.\DSP\Source\ComplexMathFunctions/arm_cmplx_mult_real_f32.c **** 
 215:.\DSP\Source\ComplexMathFunctions/arm_cmplx_mult_real_f32.c ****     /* Decrement loop counter */
ARM GAS  C:\Users\IVYLIU~1\AppData\Local\Temp\cc1A6YEM.s 			page 6


 216:.\DSP\Source\ComplexMathFunctions/arm_cmplx_mult_real_f32.c ****     blkCnt--;
  71              		.loc 1 216 0
  72 0032 013E     		subs	r6, r6, #1
  73              	.LVL8:
 213:.\DSP\Source\ComplexMathFunctions/arm_cmplx_mult_real_f32.c ****     *pCmplxDst++ = *pSrcCmplx++ * in;
  74              		.loc 1 213 0
  75 0034 2F46     		mov	r7, r5
 210:.\DSP\Source\ComplexMathFunctions/arm_cmplx_mult_real_f32.c ****     /* store result in destination buffer. */
  76              		.loc 1 210 0
  77 0036 5146     		mov	r1, r10
 213:.\DSP\Source\ComplexMathFunctions/arm_cmplx_mult_real_f32.c ****     *pCmplxDst++ = *pSrcCmplx++ * in;
  78              		.loc 1 213 0
  79 0038 A046     		mov	r8, r4
  80              	.LVL9:
  81              	.L2:
 205:.\DSP\Source\ComplexMathFunctions/arm_cmplx_mult_real_f32.c ****   {
  82              		.loc 1 205 0
  83 003a 002E     		cmp	r6, #0
  84 003c E6D1     		bne	.L3
 217:.\DSP\Source\ComplexMathFunctions/arm_cmplx_mult_real_f32.c ****   }
 218:.\DSP\Source\ComplexMathFunctions/arm_cmplx_mult_real_f32.c **** 
 219:.\DSP\Source\ComplexMathFunctions/arm_cmplx_mult_real_f32.c **** }
  85              		.loc 1 219 0
  86 003e BDE8F087 		pop	{r4, r5, r6, r7, r8, r9, r10, pc}
  87              		.cfi_endproc
  88              	.LFE84:
  89              		.size	arm_cmplx_mult_real_f32, .-arm_cmplx_mult_real_f32
  90 0042 00BF     		.text
  91              	.Letext0:
  92              		.file 2 "c:\\program files (x86)\\cypress\\psoc creator\\3.3\\psoc creator\\import\\gnu\\arm\\4.9.
  93              		.file 3 "c:\\program files (x86)\\cypress\\psoc creator\\3.3\\psoc creator\\import\\gnu\\arm\\4.9.
  94              		.file 4 ".\\DSP\\Include/arm_math_types.h"
  95              		.file 5 ".\\Core\\Include/cmsis_gcc.h"