ARM GAS  C:\Users\IVYLIU~1\AppData\Local\Temp\ccpSAgOO.s 			page 1


   1              		.syntax unified
   2              		.cpu cortex-m3
   3              		.fpu softvfp
   4              		.eabi_attribute 20, 1
   5              		.eabi_attribute 21, 1
   6              		.eabi_attribute 23, 3
   7              		.eabi_attribute 24, 1
   8              		.eabi_attribute 25, 1
   9              		.eabi_attribute 26, 1
  10              		.eabi_attribute 30, 1
  11              		.eabi_attribute 34, 1
  12              		.eabi_attribute 18, 4
  13              		.thumb
  14              		.file	"arm_cmplx_mag_fast_q15.c"
  15              		.text
  16              	.Ltext0:
  17              		.cfi_sections	.debug_frame
  18              		.section	.text.arm_cmplx_mag_fast_q15,"ax",%progbits
  19              		.align	2
  20              		.global	arm_cmplx_mag_fast_q15
  21              		.thumb
  22              		.thumb_func
  23              		.type	arm_cmplx_mag_fast_q15, %function
  24              	arm_cmplx_mag_fast_q15:
  25              	.LFB84:
  26              		.file 1 ".\\DSP\\Source\\ComplexMathFunctions\\arm_cmplx_mag_fast_q15.c"
   1:.\DSP\Source\ComplexMathFunctions/arm_cmplx_mag_fast_q15.c **** /* ----------------------------------------------------------------------
   2:.\DSP\Source\ComplexMathFunctions/arm_cmplx_mag_fast_q15.c ****  * Project:      CMSIS DSP Library
   3:.\DSP\Source\ComplexMathFunctions/arm_cmplx_mag_fast_q15.c ****  * Title:        arm_cmplx_mag_fast_q15.c
   4:.\DSP\Source\ComplexMathFunctions/arm_cmplx_mag_fast_q15.c ****  * Description:  Q15 complex magnitude
   5:.\DSP\Source\ComplexMathFunctions/arm_cmplx_mag_fast_q15.c ****  *
   6:.\DSP\Source\ComplexMathFunctions/arm_cmplx_mag_fast_q15.c ****  * $Date:        23 April 2021
   7:.\DSP\Source\ComplexMathFunctions/arm_cmplx_mag_fast_q15.c ****  * $Revision:    V1.9.0
   8:.\DSP\Source\ComplexMathFunctions/arm_cmplx_mag_fast_q15.c ****  *
   9:.\DSP\Source\ComplexMathFunctions/arm_cmplx_mag_fast_q15.c ****  * Target Processor: Cortex-M and Cortex-A cores
  10:.\DSP\Source\ComplexMathFunctions/arm_cmplx_mag_fast_q15.c ****  * -------------------------------------------------------------------- */
  11:.\DSP\Source\ComplexMathFunctions/arm_cmplx_mag_fast_q15.c **** /*
  12:.\DSP\Source\ComplexMathFunctions/arm_cmplx_mag_fast_q15.c ****  * Copyright (C) 2010-2021 ARM Limited or its affiliates. All rights reserved.
  13:.\DSP\Source\ComplexMathFunctions/arm_cmplx_mag_fast_q15.c ****  *
  14:.\DSP\Source\ComplexMathFunctions/arm_cmplx_mag_fast_q15.c ****  * SPDX-License-Identifier: Apache-2.0
  15:.\DSP\Source\ComplexMathFunctions/arm_cmplx_mag_fast_q15.c ****  *
  16:.\DSP\Source\ComplexMathFunctions/arm_cmplx_mag_fast_q15.c ****  * Licensed under the Apache License, Version 2.0 (the License); you may
  17:.\DSP\Source\ComplexMathFunctions/arm_cmplx_mag_fast_q15.c ****  * not use this file except in compliance with the License.
  18:.\DSP\Source\ComplexMathFunctions/arm_cmplx_mag_fast_q15.c ****  * You may obtain a copy of the License at
  19:.\DSP\Source\ComplexMathFunctions/arm_cmplx_mag_fast_q15.c ****  *
  20:.\DSP\Source\ComplexMathFunctions/arm_cmplx_mag_fast_q15.c ****  * www.apache.org/licenses/LICENSE-2.0
  21:.\DSP\Source\ComplexMathFunctions/arm_cmplx_mag_fast_q15.c ****  *
  22:.\DSP\Source\ComplexMathFunctions/arm_cmplx_mag_fast_q15.c ****  * Unless required by applicable law or agreed to in writing, software
  23:.\DSP\Source\ComplexMathFunctions/arm_cmplx_mag_fast_q15.c ****  * distributed under the License is distributed on an AS IS BASIS, WITHOUT
  24:.\DSP\Source\ComplexMathFunctions/arm_cmplx_mag_fast_q15.c ****  * WARRANTIES OR CONDITIONS OF ANY KIND, either express or implied.
  25:.\DSP\Source\ComplexMathFunctions/arm_cmplx_mag_fast_q15.c ****  * See the License for the specific language governing permissions and
  26:.\DSP\Source\ComplexMathFunctions/arm_cmplx_mag_fast_q15.c ****  * limitations under the License.
  27:.\DSP\Source\ComplexMathFunctions/arm_cmplx_mag_fast_q15.c ****  */
  28:.\DSP\Source\ComplexMathFunctions/arm_cmplx_mag_fast_q15.c **** 
  29:.\DSP\Source\ComplexMathFunctions/arm_cmplx_mag_fast_q15.c **** #include "dsp/complex_math_functions.h"
  30:.\DSP\Source\ComplexMathFunctions/arm_cmplx_mag_fast_q15.c **** 
  31:.\DSP\Source\ComplexMathFunctions/arm_cmplx_mag_fast_q15.c **** /**
ARM GAS  C:\Users\IVYLIU~1\AppData\Local\Temp\ccpSAgOO.s 			page 2


  32:.\DSP\Source\ComplexMathFunctions/arm_cmplx_mag_fast_q15.c ****   @ingroup groupCmplxMath
  33:.\DSP\Source\ComplexMathFunctions/arm_cmplx_mag_fast_q15.c ****  */
  34:.\DSP\Source\ComplexMathFunctions/arm_cmplx_mag_fast_q15.c **** 
  35:.\DSP\Source\ComplexMathFunctions/arm_cmplx_mag_fast_q15.c **** /**
  36:.\DSP\Source\ComplexMathFunctions/arm_cmplx_mag_fast_q15.c ****   @addtogroup cmplx_mag
  37:.\DSP\Source\ComplexMathFunctions/arm_cmplx_mag_fast_q15.c ****   @{
  38:.\DSP\Source\ComplexMathFunctions/arm_cmplx_mag_fast_q15.c ****  */
  39:.\DSP\Source\ComplexMathFunctions/arm_cmplx_mag_fast_q15.c **** 
  40:.\DSP\Source\ComplexMathFunctions/arm_cmplx_mag_fast_q15.c **** /**
  41:.\DSP\Source\ComplexMathFunctions/arm_cmplx_mag_fast_q15.c ****   @brief         Q15 complex magnitude.
  42:.\DSP\Source\ComplexMathFunctions/arm_cmplx_mag_fast_q15.c ****   @param[in]     pSrc        points to input vector
  43:.\DSP\Source\ComplexMathFunctions/arm_cmplx_mag_fast_q15.c ****   @param[out]    pDst        points to output vector
  44:.\DSP\Source\ComplexMathFunctions/arm_cmplx_mag_fast_q15.c ****   @param[in]     numSamples  number of samples in each vector
  45:.\DSP\Source\ComplexMathFunctions/arm_cmplx_mag_fast_q15.c ****   @return        none
  46:.\DSP\Source\ComplexMathFunctions/arm_cmplx_mag_fast_q15.c **** 
  47:.\DSP\Source\ComplexMathFunctions/arm_cmplx_mag_fast_q15.c ****   @par           Scaling and Overflow Behavior
  48:.\DSP\Source\ComplexMathFunctions/arm_cmplx_mag_fast_q15.c ****                    The function implements 1.15 by 1.15 multiplications and finally output is conve
  49:.\DSP\Source\ComplexMathFunctions/arm_cmplx_mag_fast_q15.c ****                    Fast functions are less accurate. This function will tend to clamp to 0
  50:.\DSP\Source\ComplexMathFunctions/arm_cmplx_mag_fast_q15.c ****                    the too small values. So sqrt(x*x) = x will not always be true.
  51:.\DSP\Source\ComplexMathFunctions/arm_cmplx_mag_fast_q15.c ****  */
  52:.\DSP\Source\ComplexMathFunctions/arm_cmplx_mag_fast_q15.c **** #if defined(ARM_MATH_MVEI) && !defined(ARM_MATH_AUTOVECTORIZE)
  53:.\DSP\Source\ComplexMathFunctions/arm_cmplx_mag_fast_q15.c **** 
  54:.\DSP\Source\ComplexMathFunctions/arm_cmplx_mag_fast_q15.c **** #include "arm_helium_utils.h"
  55:.\DSP\Source\ComplexMathFunctions/arm_cmplx_mag_fast_q15.c **** 
  56:.\DSP\Source\ComplexMathFunctions/arm_cmplx_mag_fast_q15.c **** void arm_cmplx_mag_fast_q15(
  57:.\DSP\Source\ComplexMathFunctions/arm_cmplx_mag_fast_q15.c ****   const q15_t * pSrc,
  58:.\DSP\Source\ComplexMathFunctions/arm_cmplx_mag_fast_q15.c ****         q15_t * pDst,
  59:.\DSP\Source\ComplexMathFunctions/arm_cmplx_mag_fast_q15.c ****         uint32_t numSamples)
  60:.\DSP\Source\ComplexMathFunctions/arm_cmplx_mag_fast_q15.c **** {
  61:.\DSP\Source\ComplexMathFunctions/arm_cmplx_mag_fast_q15.c **** 
  62:.\DSP\Source\ComplexMathFunctions/arm_cmplx_mag_fast_q15.c ****     int32_t blockSize = numSamples;  /* loop counters */
  63:.\DSP\Source\ComplexMathFunctions/arm_cmplx_mag_fast_q15.c ****     uint32_t  blkCnt;           /* loop counters */
  64:.\DSP\Source\ComplexMathFunctions/arm_cmplx_mag_fast_q15.c ****     q15x8x2_t vecSrc;
  65:.\DSP\Source\ComplexMathFunctions/arm_cmplx_mag_fast_q15.c ****     q15x8_t sum;
  66:.\DSP\Source\ComplexMathFunctions/arm_cmplx_mag_fast_q15.c ****     q31_t in;
  67:.\DSP\Source\ComplexMathFunctions/arm_cmplx_mag_fast_q15.c ****     q31_t acc0;
  68:.\DSP\Source\ComplexMathFunctions/arm_cmplx_mag_fast_q15.c **** 
  69:.\DSP\Source\ComplexMathFunctions/arm_cmplx_mag_fast_q15.c ****     blkCnt = blockSize >> 3;
  70:.\DSP\Source\ComplexMathFunctions/arm_cmplx_mag_fast_q15.c ****     while (blkCnt > 0U)
  71:.\DSP\Source\ComplexMathFunctions/arm_cmplx_mag_fast_q15.c ****     {
  72:.\DSP\Source\ComplexMathFunctions/arm_cmplx_mag_fast_q15.c ****         vecSrc = vld2q(pSrc);  
  73:.\DSP\Source\ComplexMathFunctions/arm_cmplx_mag_fast_q15.c ****         pSrc += 16;
  74:.\DSP\Source\ComplexMathFunctions/arm_cmplx_mag_fast_q15.c ****         sum = vqaddq(vmulhq(vecSrc.val[0], vecSrc.val[0]),
  75:.\DSP\Source\ComplexMathFunctions/arm_cmplx_mag_fast_q15.c ****                      vmulhq(vecSrc.val[1], vecSrc.val[1]));
  76:.\DSP\Source\ComplexMathFunctions/arm_cmplx_mag_fast_q15.c **** 
  77:.\DSP\Source\ComplexMathFunctions/arm_cmplx_mag_fast_q15.c ****         sum = vshrq(sum, 1);
  78:.\DSP\Source\ComplexMathFunctions/arm_cmplx_mag_fast_q15.c **** 
  79:.\DSP\Source\ComplexMathFunctions/arm_cmplx_mag_fast_q15.c ****         sum = FAST_VSQRT_Q15(sum);
  80:.\DSP\Source\ComplexMathFunctions/arm_cmplx_mag_fast_q15.c **** 
  81:.\DSP\Source\ComplexMathFunctions/arm_cmplx_mag_fast_q15.c ****         vst1q(pDst, sum); 
  82:.\DSP\Source\ComplexMathFunctions/arm_cmplx_mag_fast_q15.c ****         pDst += 8;
  83:.\DSP\Source\ComplexMathFunctions/arm_cmplx_mag_fast_q15.c ****         /*
  84:.\DSP\Source\ComplexMathFunctions/arm_cmplx_mag_fast_q15.c ****          * Decrement the blockSize loop counter
  85:.\DSP\Source\ComplexMathFunctions/arm_cmplx_mag_fast_q15.c ****          */
  86:.\DSP\Source\ComplexMathFunctions/arm_cmplx_mag_fast_q15.c ****         blkCnt--;
  87:.\DSP\Source\ComplexMathFunctions/arm_cmplx_mag_fast_q15.c ****     }
  88:.\DSP\Source\ComplexMathFunctions/arm_cmplx_mag_fast_q15.c **** 
ARM GAS  C:\Users\IVYLIU~1\AppData\Local\Temp\ccpSAgOO.s 			page 3


  89:.\DSP\Source\ComplexMathFunctions/arm_cmplx_mag_fast_q15.c ****     /*
  90:.\DSP\Source\ComplexMathFunctions/arm_cmplx_mag_fast_q15.c ****      * tail
  91:.\DSP\Source\ComplexMathFunctions/arm_cmplx_mag_fast_q15.c ****      */
  92:.\DSP\Source\ComplexMathFunctions/arm_cmplx_mag_fast_q15.c ****     blkCnt = blockSize & 7;
  93:.\DSP\Source\ComplexMathFunctions/arm_cmplx_mag_fast_q15.c **** 
  94:.\DSP\Source\ComplexMathFunctions/arm_cmplx_mag_fast_q15.c ****     while (blkCnt > 0U)
  95:.\DSP\Source\ComplexMathFunctions/arm_cmplx_mag_fast_q15.c ****     {
  96:.\DSP\Source\ComplexMathFunctions/arm_cmplx_mag_fast_q15.c ****       /* C[0] = sqrt(A[0] * A[0] + A[1] * A[1]) */
  97:.\DSP\Source\ComplexMathFunctions/arm_cmplx_mag_fast_q15.c ****   
  98:.\DSP\Source\ComplexMathFunctions/arm_cmplx_mag_fast_q15.c ****       in = read_q15x2_ia ((q15_t **) &pSrc);
  99:.\DSP\Source\ComplexMathFunctions/arm_cmplx_mag_fast_q15.c ****       acc0 = __SMUAD(in, in);
 100:.\DSP\Source\ComplexMathFunctions/arm_cmplx_mag_fast_q15.c ****   
 101:.\DSP\Source\ComplexMathFunctions/arm_cmplx_mag_fast_q15.c ****       /* store result in 2.14 format in destination buffer. */
 102:.\DSP\Source\ComplexMathFunctions/arm_cmplx_mag_fast_q15.c ****       arm_sqrt_q15((q15_t) (acc0 >> 17), pDst++);
 103:.\DSP\Source\ComplexMathFunctions/arm_cmplx_mag_fast_q15.c ****   
 104:.\DSP\Source\ComplexMathFunctions/arm_cmplx_mag_fast_q15.c ****   
 105:.\DSP\Source\ComplexMathFunctions/arm_cmplx_mag_fast_q15.c ****       /* Decrement loop counter */
 106:.\DSP\Source\ComplexMathFunctions/arm_cmplx_mag_fast_q15.c ****       blkCnt--;
 107:.\DSP\Source\ComplexMathFunctions/arm_cmplx_mag_fast_q15.c ****     }
 108:.\DSP\Source\ComplexMathFunctions/arm_cmplx_mag_fast_q15.c **** }
 109:.\DSP\Source\ComplexMathFunctions/arm_cmplx_mag_fast_q15.c **** 
 110:.\DSP\Source\ComplexMathFunctions/arm_cmplx_mag_fast_q15.c **** #else
 111:.\DSP\Source\ComplexMathFunctions/arm_cmplx_mag_fast_q15.c **** void arm_cmplx_mag_fast_q15(
 112:.\DSP\Source\ComplexMathFunctions/arm_cmplx_mag_fast_q15.c ****   const q15_t * pSrc,
 113:.\DSP\Source\ComplexMathFunctions/arm_cmplx_mag_fast_q15.c ****         q15_t * pDst,
 114:.\DSP\Source\ComplexMathFunctions/arm_cmplx_mag_fast_q15.c ****         uint32_t numSamples)
 115:.\DSP\Source\ComplexMathFunctions/arm_cmplx_mag_fast_q15.c **** {
  27              		.loc 1 115 0
  28              		.cfi_startproc
  29              		@ args = 0, pretend = 0, frame = 0
  30              		@ frame_needed = 0, uses_anonymous_args = 0
  31              	.LVL0:
  32 0000 70B5     		push	{r4, r5, r6, lr}
  33              		.cfi_def_cfa_offset 16
  34              		.cfi_offset 4, -16
  35              		.cfi_offset 5, -12
  36              		.cfi_offset 6, -8
  37              		.cfi_offset 14, -4
  38 0002 1546     		mov	r5, r2
  39              	.LVL1:
 116:.\DSP\Source\ComplexMathFunctions/arm_cmplx_mag_fast_q15.c ****         uint32_t blkCnt;                               /* Loop counter */
 117:.\DSP\Source\ComplexMathFunctions/arm_cmplx_mag_fast_q15.c **** 
 118:.\DSP\Source\ComplexMathFunctions/arm_cmplx_mag_fast_q15.c **** #if defined (ARM_MATH_DSP)
 119:.\DSP\Source\ComplexMathFunctions/arm_cmplx_mag_fast_q15.c ****         q31_t in;
 120:.\DSP\Source\ComplexMathFunctions/arm_cmplx_mag_fast_q15.c ****         q31_t acc0;                                    /* Accumulators */
 121:.\DSP\Source\ComplexMathFunctions/arm_cmplx_mag_fast_q15.c **** #else
 122:.\DSP\Source\ComplexMathFunctions/arm_cmplx_mag_fast_q15.c ****        q15_t real, imag;                              /* Temporary input variables */
 123:.\DSP\Source\ComplexMathFunctions/arm_cmplx_mag_fast_q15.c ****        q31_t acc0, acc1;                              /* Accumulators */
 124:.\DSP\Source\ComplexMathFunctions/arm_cmplx_mag_fast_q15.c **** #endif
 125:.\DSP\Source\ComplexMathFunctions/arm_cmplx_mag_fast_q15.c **** 
 126:.\DSP\Source\ComplexMathFunctions/arm_cmplx_mag_fast_q15.c **** #if defined (ARM_MATH_LOOPUNROLL)
 127:.\DSP\Source\ComplexMathFunctions/arm_cmplx_mag_fast_q15.c **** 
 128:.\DSP\Source\ComplexMathFunctions/arm_cmplx_mag_fast_q15.c ****   /* Loop unrolling: Compute 4 outputs at a time */
 129:.\DSP\Source\ComplexMathFunctions/arm_cmplx_mag_fast_q15.c ****   blkCnt = numSamples >> 2U;
 130:.\DSP\Source\ComplexMathFunctions/arm_cmplx_mag_fast_q15.c **** 
 131:.\DSP\Source\ComplexMathFunctions/arm_cmplx_mag_fast_q15.c ****   while (blkCnt > 0U)
 132:.\DSP\Source\ComplexMathFunctions/arm_cmplx_mag_fast_q15.c ****   {
ARM GAS  C:\Users\IVYLIU~1\AppData\Local\Temp\ccpSAgOO.s 			page 4


 133:.\DSP\Source\ComplexMathFunctions/arm_cmplx_mag_fast_q15.c ****     /* C[0] = sqrt(A[0] * A[0] + A[1] * A[1]) */
 134:.\DSP\Source\ComplexMathFunctions/arm_cmplx_mag_fast_q15.c **** 
 135:.\DSP\Source\ComplexMathFunctions/arm_cmplx_mag_fast_q15.c **** #if defined (ARM_MATH_DSP)
 136:.\DSP\Source\ComplexMathFunctions/arm_cmplx_mag_fast_q15.c ****     in = read_q15x2_ia (&pSrc);
 137:.\DSP\Source\ComplexMathFunctions/arm_cmplx_mag_fast_q15.c ****     acc0 = __SMUAD(in, in);
 138:.\DSP\Source\ComplexMathFunctions/arm_cmplx_mag_fast_q15.c ****     /* store result in 2.14 format in destination buffer. */
 139:.\DSP\Source\ComplexMathFunctions/arm_cmplx_mag_fast_q15.c ****     arm_sqrt_q15((q15_t) (acc0 >> 17), pDst++);
 140:.\DSP\Source\ComplexMathFunctions/arm_cmplx_mag_fast_q15.c **** 
 141:.\DSP\Source\ComplexMathFunctions/arm_cmplx_mag_fast_q15.c ****     in = read_q15x2_ia (&pSrc);
 142:.\DSP\Source\ComplexMathFunctions/arm_cmplx_mag_fast_q15.c ****     acc0 = __SMUAD(in, in);
 143:.\DSP\Source\ComplexMathFunctions/arm_cmplx_mag_fast_q15.c ****     arm_sqrt_q15((q15_t) (acc0 >> 17), pDst++);
 144:.\DSP\Source\ComplexMathFunctions/arm_cmplx_mag_fast_q15.c **** 
 145:.\DSP\Source\ComplexMathFunctions/arm_cmplx_mag_fast_q15.c ****     in = read_q15x2_ia (&pSrc);
 146:.\DSP\Source\ComplexMathFunctions/arm_cmplx_mag_fast_q15.c ****     acc0 = __SMUAD(in, in);
 147:.\DSP\Source\ComplexMathFunctions/arm_cmplx_mag_fast_q15.c ****     arm_sqrt_q15((q15_t) (acc0 >> 17), pDst++);
 148:.\DSP\Source\ComplexMathFunctions/arm_cmplx_mag_fast_q15.c **** 
 149:.\DSP\Source\ComplexMathFunctions/arm_cmplx_mag_fast_q15.c ****     in = read_q15x2_ia (&pSrc);
 150:.\DSP\Source\ComplexMathFunctions/arm_cmplx_mag_fast_q15.c ****     acc0 = __SMUAD(in, in);
 151:.\DSP\Source\ComplexMathFunctions/arm_cmplx_mag_fast_q15.c ****     arm_sqrt_q15((q15_t) (acc0 >> 17), pDst++);
 152:.\DSP\Source\ComplexMathFunctions/arm_cmplx_mag_fast_q15.c **** #else
 153:.\DSP\Source\ComplexMathFunctions/arm_cmplx_mag_fast_q15.c ****     real = *pSrc++;
 154:.\DSP\Source\ComplexMathFunctions/arm_cmplx_mag_fast_q15.c ****     imag = *pSrc++;
 155:.\DSP\Source\ComplexMathFunctions/arm_cmplx_mag_fast_q15.c ****     acc0 = ((q31_t) real * real);
 156:.\DSP\Source\ComplexMathFunctions/arm_cmplx_mag_fast_q15.c ****     acc1 = ((q31_t) imag * imag);
 157:.\DSP\Source\ComplexMathFunctions/arm_cmplx_mag_fast_q15.c **** 
 158:.\DSP\Source\ComplexMathFunctions/arm_cmplx_mag_fast_q15.c ****     /* store result in 2.14 format in destination buffer. */
 159:.\DSP\Source\ComplexMathFunctions/arm_cmplx_mag_fast_q15.c ****     arm_sqrt_q15((q15_t) (((q63_t) acc0 + acc1) >> 17), pDst++);
 160:.\DSP\Source\ComplexMathFunctions/arm_cmplx_mag_fast_q15.c **** 
 161:.\DSP\Source\ComplexMathFunctions/arm_cmplx_mag_fast_q15.c ****     real = *pSrc++;
 162:.\DSP\Source\ComplexMathFunctions/arm_cmplx_mag_fast_q15.c ****     imag = *pSrc++;
 163:.\DSP\Source\ComplexMathFunctions/arm_cmplx_mag_fast_q15.c ****     acc0 = ((q31_t) real * real);
 164:.\DSP\Source\ComplexMathFunctions/arm_cmplx_mag_fast_q15.c ****     acc1 = ((q31_t) imag * imag);
 165:.\DSP\Source\ComplexMathFunctions/arm_cmplx_mag_fast_q15.c ****     arm_sqrt_q15((q15_t) (((q63_t) acc0 + acc1) >> 17), pDst++);
 166:.\DSP\Source\ComplexMathFunctions/arm_cmplx_mag_fast_q15.c **** 
 167:.\DSP\Source\ComplexMathFunctions/arm_cmplx_mag_fast_q15.c ****     real = *pSrc++;
 168:.\DSP\Source\ComplexMathFunctions/arm_cmplx_mag_fast_q15.c ****     imag = *pSrc++;
 169:.\DSP\Source\ComplexMathFunctions/arm_cmplx_mag_fast_q15.c ****     acc0 = ((q31_t) real * real);
 170:.\DSP\Source\ComplexMathFunctions/arm_cmplx_mag_fast_q15.c ****     acc1 = ((q31_t) imag * imag);
 171:.\DSP\Source\ComplexMathFunctions/arm_cmplx_mag_fast_q15.c ****     arm_sqrt_q15((q15_t) (((q63_t) acc0 + acc1) >> 17), pDst++);
 172:.\DSP\Source\ComplexMathFunctions/arm_cmplx_mag_fast_q15.c **** 
 173:.\DSP\Source\ComplexMathFunctions/arm_cmplx_mag_fast_q15.c ****     real = *pSrc++;
 174:.\DSP\Source\ComplexMathFunctions/arm_cmplx_mag_fast_q15.c ****     imag = *pSrc++;
 175:.\DSP\Source\ComplexMathFunctions/arm_cmplx_mag_fast_q15.c ****     acc0 = ((q31_t) real * real);
 176:.\DSP\Source\ComplexMathFunctions/arm_cmplx_mag_fast_q15.c ****     acc1 = ((q31_t) imag * imag);
 177:.\DSP\Source\ComplexMathFunctions/arm_cmplx_mag_fast_q15.c ****     arm_sqrt_q15((q15_t) (((q63_t) acc0 + acc1) >> 17), pDst++);
 178:.\DSP\Source\ComplexMathFunctions/arm_cmplx_mag_fast_q15.c **** #endif /* #if defined (ARM_MATH_DSP) */
 179:.\DSP\Source\ComplexMathFunctions/arm_cmplx_mag_fast_q15.c **** 
 180:.\DSP\Source\ComplexMathFunctions/arm_cmplx_mag_fast_q15.c ****     /* Decrement loop counter */
 181:.\DSP\Source\ComplexMathFunctions/arm_cmplx_mag_fast_q15.c ****     blkCnt--;
 182:.\DSP\Source\ComplexMathFunctions/arm_cmplx_mag_fast_q15.c ****   }
 183:.\DSP\Source\ComplexMathFunctions/arm_cmplx_mag_fast_q15.c **** 
 184:.\DSP\Source\ComplexMathFunctions/arm_cmplx_mag_fast_q15.c ****   /* Loop unrolling: Compute remaining outputs */
 185:.\DSP\Source\ComplexMathFunctions/arm_cmplx_mag_fast_q15.c ****   blkCnt = numSamples % 0x4U;
 186:.\DSP\Source\ComplexMathFunctions/arm_cmplx_mag_fast_q15.c **** 
 187:.\DSP\Source\ComplexMathFunctions/arm_cmplx_mag_fast_q15.c **** #else
 188:.\DSP\Source\ComplexMathFunctions/arm_cmplx_mag_fast_q15.c **** 
 189:.\DSP\Source\ComplexMathFunctions/arm_cmplx_mag_fast_q15.c ****   /* Initialize blkCnt with number of samples */
ARM GAS  C:\Users\IVYLIU~1\AppData\Local\Temp\ccpSAgOO.s 			page 5


 190:.\DSP\Source\ComplexMathFunctions/arm_cmplx_mag_fast_q15.c ****   blkCnt = numSamples;
 191:.\DSP\Source\ComplexMathFunctions/arm_cmplx_mag_fast_q15.c **** 
 192:.\DSP\Source\ComplexMathFunctions/arm_cmplx_mag_fast_q15.c **** #endif /* #if defined (ARM_MATH_LOOPUNROLL) */
 193:.\DSP\Source\ComplexMathFunctions/arm_cmplx_mag_fast_q15.c **** 
 194:.\DSP\Source\ComplexMathFunctions/arm_cmplx_mag_fast_q15.c ****   while (blkCnt > 0U)
  40              		.loc 1 194 0
  41 0004 16E0     		b	.L2
  42              	.LVL2:
  43              	.L3:
 195:.\DSP\Source\ComplexMathFunctions/arm_cmplx_mag_fast_q15.c ****   {
 196:.\DSP\Source\ComplexMathFunctions/arm_cmplx_mag_fast_q15.c ****     /* C[0] = sqrt(A[0] * A[0] + A[1] * A[1]) */
 197:.\DSP\Source\ComplexMathFunctions/arm_cmplx_mag_fast_q15.c **** 
 198:.\DSP\Source\ComplexMathFunctions/arm_cmplx_mag_fast_q15.c **** #if defined (ARM_MATH_DSP)
 199:.\DSP\Source\ComplexMathFunctions/arm_cmplx_mag_fast_q15.c ****     in = read_q15x2_ia (&pSrc);
 200:.\DSP\Source\ComplexMathFunctions/arm_cmplx_mag_fast_q15.c ****     acc0 = __SMUAD(in, in);
 201:.\DSP\Source\ComplexMathFunctions/arm_cmplx_mag_fast_q15.c **** 
 202:.\DSP\Source\ComplexMathFunctions/arm_cmplx_mag_fast_q15.c ****     /* store result in 2.14 format in destination buffer. */
 203:.\DSP\Source\ComplexMathFunctions/arm_cmplx_mag_fast_q15.c ****     arm_sqrt_q15((q15_t) (acc0 >> 17), pDst++);
 204:.\DSP\Source\ComplexMathFunctions/arm_cmplx_mag_fast_q15.c **** #else
 205:.\DSP\Source\ComplexMathFunctions/arm_cmplx_mag_fast_q15.c ****     real = *pSrc++;
  44              		.loc 1 205 0
  45 0006 0446     		mov	r4, r0
  46              	.LVL3:
 206:.\DSP\Source\ComplexMathFunctions/arm_cmplx_mag_fast_q15.c ****     imag = *pSrc++;
 207:.\DSP\Source\ComplexMathFunctions/arm_cmplx_mag_fast_q15.c ****     acc0 = ((q31_t) real * real);
  47              		.loc 1 207 0
  48 0008 34F9043B 		ldrsh	r3, [r4], #4
  49 000c 03FB03F6 		mul	r6, r3, r3
  50              	.LVL4:
 208:.\DSP\Source\ComplexMathFunctions/arm_cmplx_mag_fast_q15.c ****     acc1 = ((q31_t) imag * imag);
  51              		.loc 1 208 0
  52 0010 B0F90220 		ldrsh	r2, [r0, #2]
  53 0014 02FB02F2 		mul	r2, r2, r2
  54              	.LVL5:
 209:.\DSP\Source\ComplexMathFunctions/arm_cmplx_mag_fast_q15.c **** 
 210:.\DSP\Source\ComplexMathFunctions/arm_cmplx_mag_fast_q15.c ****     /* store result in 2.14 format in destination buffer. */
 211:.\DSP\Source\ComplexMathFunctions/arm_cmplx_mag_fast_q15.c ****     arm_sqrt_q15((q15_t) (((q63_t) acc0 + acc1) >> 17), pDst++);
  55              		.loc 1 211 0
  56 0018 D317     		asrs	r3, r2, #31
  57 001a 9219     		adds	r2, r2, r6
  58              	.LVL6:
  59 001c 43EBE673 		adc	r3, r3, r6, asr #31
  60 0020 500C     		lsrs	r0, r2, #17
  61              	.LVL7:
  62 0022 40EAC330 		orr	r0, r0, r3, lsl #15
  63 0026 8E1C     		adds	r6, r1, #2
  64              	.LVL8:
  65 0028 00B2     		sxth	r0, r0
  66 002a FFF7FEFF 		bl	arm_sqrt_q15
  67              	.LVL9:
 212:.\DSP\Source\ComplexMathFunctions/arm_cmplx_mag_fast_q15.c **** #endif
 213:.\DSP\Source\ComplexMathFunctions/arm_cmplx_mag_fast_q15.c **** 
 214:.\DSP\Source\ComplexMathFunctions/arm_cmplx_mag_fast_q15.c ****     /* Decrement loop counter */
 215:.\DSP\Source\ComplexMathFunctions/arm_cmplx_mag_fast_q15.c ****     blkCnt--;
  68              		.loc 1 215 0
  69 002e 013D     		subs	r5, r5, #1
  70              	.LVL10:
ARM GAS  C:\Users\IVYLIU~1\AppData\Local\Temp\ccpSAgOO.s 			page 6


 211:.\DSP\Source\ComplexMathFunctions/arm_cmplx_mag_fast_q15.c **** #endif
  71              		.loc 1 211 0
  72 0030 3146     		mov	r1, r6
 206:.\DSP\Source\ComplexMathFunctions/arm_cmplx_mag_fast_q15.c ****     acc0 = ((q31_t) real * real);
  73              		.loc 1 206 0
  74 0032 2046     		mov	r0, r4
  75              	.LVL11:
  76              	.L2:
 194:.\DSP\Source\ComplexMathFunctions/arm_cmplx_mag_fast_q15.c ****   {
  77              		.loc 1 194 0
  78 0034 002D     		cmp	r5, #0
  79 0036 E6D1     		bne	.L3
 216:.\DSP\Source\ComplexMathFunctions/arm_cmplx_mag_fast_q15.c ****   }
 217:.\DSP\Source\ComplexMathFunctions/arm_cmplx_mag_fast_q15.c **** 
 218:.\DSP\Source\ComplexMathFunctions/arm_cmplx_mag_fast_q15.c **** }
  80              		.loc 1 218 0
  81 0038 70BD     		pop	{r4, r5, r6, pc}
  82              		.cfi_endproc
  83              	.LFE84:
  84              		.size	arm_cmplx_mag_fast_q15, .-arm_cmplx_mag_fast_q15
  85 003a 00BF     		.text
  86              	.Letext0:
  87              		.file 2 "c:\\program files (x86)\\cypress\\psoc creator\\3.3\\psoc creator\\import\\gnu\\arm\\4.9.
  88              		.file 3 "c:\\program files (x86)\\cypress\\psoc creator\\3.3\\psoc creator\\import\\gnu\\arm\\4.9.
  89              		.file 4 ".\\DSP\\Include/arm_math_types.h"
  90              		.file 5 ".\\Core\\Include/cmsis_gcc.h"
  91              		.file 6 ".\\DSP\\Include/dsp/fast_math_functions.h"