ARM GAS  C:\Users\IVYLIU~1\AppData\Local\Temp\ccLOQKMN.s 			page 1


   1              		.syntax unified
   2              		.cpu cortex-m3
   3              		.fpu softvfp
   4              		.eabi_attribute 20, 1
   5              		.eabi_attribute 21, 1
   6              		.eabi_attribute 23, 3
   7              		.eabi_attribute 24, 1
   8              		.eabi_attribute 25, 1
   9              		.eabi_attribute 26, 1
  10              		.eabi_attribute 30, 1
  11              		.eabi_attribute 34, 1
  12              		.eabi_attribute 18, 4
  13              		.thumb
  14              		.file	"arm_mfcc_q15.c"
  15              		.text
  16              	.Ltext0:
  17              		.cfi_sections	.debug_frame
  18              		.section	.text.arm_mfcc_q15,"ax",%progbits
  19              		.align	2
  20              		.global	arm_mfcc_q15
  21              		.thumb
  22              		.thumb_func
  23              		.type	arm_mfcc_q15, %function
  24              	arm_mfcc_q15:
  25              	.LFB84:
  26              		.file 1 ".\\DSP\\Source\\TransformFunctions\\arm_mfcc_q15.c"
   1:.\DSP\Source\TransformFunctions/arm_mfcc_q15.c **** /* ----------------------------------------------------------------------
   2:.\DSP\Source\TransformFunctions/arm_mfcc_q15.c ****  * Project:      CMSIS DSP Library
   3:.\DSP\Source\TransformFunctions/arm_mfcc_q15.c ****  * Title:        arm_mfcc_q15.c
   4:.\DSP\Source\TransformFunctions/arm_mfcc_q15.c ****  * Description:  MFCC function for the q15 version
   5:.\DSP\Source\TransformFunctions/arm_mfcc_q15.c ****  *
   6:.\DSP\Source\TransformFunctions/arm_mfcc_q15.c ****  * $Date:        07 September 2021
   7:.\DSP\Source\TransformFunctions/arm_mfcc_q15.c ****  * $Revision:    V1.10.0
   8:.\DSP\Source\TransformFunctions/arm_mfcc_q15.c ****  *
   9:.\DSP\Source\TransformFunctions/arm_mfcc_q15.c ****  * Target Processor: Cortex-M and Cortex-A cores
  10:.\DSP\Source\TransformFunctions/arm_mfcc_q15.c ****  * -------------------------------------------------------------------- */
  11:.\DSP\Source\TransformFunctions/arm_mfcc_q15.c **** /*
  12:.\DSP\Source\TransformFunctions/arm_mfcc_q15.c ****  * Copyright (C) 2010-2021 ARM Limited or its affiliates. All rights reserved.
  13:.\DSP\Source\TransformFunctions/arm_mfcc_q15.c ****  *
  14:.\DSP\Source\TransformFunctions/arm_mfcc_q15.c ****  * SPDX-License-Identifier: Apache-2.0
  15:.\DSP\Source\TransformFunctions/arm_mfcc_q15.c ****  *
  16:.\DSP\Source\TransformFunctions/arm_mfcc_q15.c ****  * Licensed under the Apache License, Version 2.0 (the License); you may
  17:.\DSP\Source\TransformFunctions/arm_mfcc_q15.c ****  * not use this file except in compliance with the License.
  18:.\DSP\Source\TransformFunctions/arm_mfcc_q15.c ****  * You may obtain a copy of the License at
  19:.\DSP\Source\TransformFunctions/arm_mfcc_q15.c ****  *
  20:.\DSP\Source\TransformFunctions/arm_mfcc_q15.c ****  * www.apache.org/licenses/LICENSE-2.0
  21:.\DSP\Source\TransformFunctions/arm_mfcc_q15.c ****  *
  22:.\DSP\Source\TransformFunctions/arm_mfcc_q15.c ****  * Unless required by applicable law or agreed to in writing, software
  23:.\DSP\Source\TransformFunctions/arm_mfcc_q15.c ****  * distributed under the License is distributed on an AS IS BASIS, WITHOUT
  24:.\DSP\Source\TransformFunctions/arm_mfcc_q15.c ****  * WARRANTIES OR CONDITIONS OF ANY KIND, either express or implied.
  25:.\DSP\Source\TransformFunctions/arm_mfcc_q15.c ****  * See the License for the specific language governing permissions and
  26:.\DSP\Source\TransformFunctions/arm_mfcc_q15.c ****  * limitations under the License.
  27:.\DSP\Source\TransformFunctions/arm_mfcc_q15.c ****  */
  28:.\DSP\Source\TransformFunctions/arm_mfcc_q15.c **** 
  29:.\DSP\Source\TransformFunctions/arm_mfcc_q15.c **** 
  30:.\DSP\Source\TransformFunctions/arm_mfcc_q15.c **** 
  31:.\DSP\Source\TransformFunctions/arm_mfcc_q15.c **** #include "dsp/transform_functions.h"
ARM GAS  C:\Users\IVYLIU~1\AppData\Local\Temp\ccLOQKMN.s 			page 2


  32:.\DSP\Source\TransformFunctions/arm_mfcc_q15.c **** #include "dsp/statistics_functions.h"
  33:.\DSP\Source\TransformFunctions/arm_mfcc_q15.c **** #include "dsp/basic_math_functions.h"
  34:.\DSP\Source\TransformFunctions/arm_mfcc_q15.c **** #include "dsp/complex_math_functions.h"
  35:.\DSP\Source\TransformFunctions/arm_mfcc_q15.c **** #include "dsp/fast_math_functions.h"
  36:.\DSP\Source\TransformFunctions/arm_mfcc_q15.c **** #include "dsp/matrix_functions.h"
  37:.\DSP\Source\TransformFunctions/arm_mfcc_q15.c **** 
  38:.\DSP\Source\TransformFunctions/arm_mfcc_q15.c **** /* Constants for Q15 implementation */
  39:.\DSP\Source\TransformFunctions/arm_mfcc_q15.c **** #define LOG2TOLOG_Q15 0x02C5C860
  40:.\DSP\Source\TransformFunctions/arm_mfcc_q15.c **** #define MICRO_Q15 0x00000219
  41:.\DSP\Source\TransformFunctions/arm_mfcc_q15.c **** #define SHIFT_MELFILTER_SATURATION_Q15 10
  42:.\DSP\Source\TransformFunctions/arm_mfcc_q15.c **** /**
  43:.\DSP\Source\TransformFunctions/arm_mfcc_q15.c ****   @ingroup groupTransforms
  44:.\DSP\Source\TransformFunctions/arm_mfcc_q15.c ****  */
  45:.\DSP\Source\TransformFunctions/arm_mfcc_q15.c **** 
  46:.\DSP\Source\TransformFunctions/arm_mfcc_q15.c **** 
  47:.\DSP\Source\TransformFunctions/arm_mfcc_q15.c **** /**
  48:.\DSP\Source\TransformFunctions/arm_mfcc_q15.c ****   @defgroup MFCC MFCC
  49:.\DSP\Source\TransformFunctions/arm_mfcc_q15.c **** 
  50:.\DSP\Source\TransformFunctions/arm_mfcc_q15.c ****   MFCC Transform
  51:.\DSP\Source\TransformFunctions/arm_mfcc_q15.c **** 
  52:.\DSP\Source\TransformFunctions/arm_mfcc_q15.c ****   There are separate functions for floating-point, Q15, and Q15 data types.
  53:.\DSP\Source\TransformFunctions/arm_mfcc_q15.c ****  */
  54:.\DSP\Source\TransformFunctions/arm_mfcc_q15.c **** 
  55:.\DSP\Source\TransformFunctions/arm_mfcc_q15.c **** 
  56:.\DSP\Source\TransformFunctions/arm_mfcc_q15.c **** 
  57:.\DSP\Source\TransformFunctions/arm_mfcc_q15.c **** /**
  58:.\DSP\Source\TransformFunctions/arm_mfcc_q15.c ****   @addtogroup MFCC
  59:.\DSP\Source\TransformFunctions/arm_mfcc_q15.c ****   @{
  60:.\DSP\Source\TransformFunctions/arm_mfcc_q15.c ****  */
  61:.\DSP\Source\TransformFunctions/arm_mfcc_q15.c **** 
  62:.\DSP\Source\TransformFunctions/arm_mfcc_q15.c **** /**
  63:.\DSP\Source\TransformFunctions/arm_mfcc_q15.c ****   @brief         MFCC Q15
  64:.\DSP\Source\TransformFunctions/arm_mfcc_q15.c ****   @param[in]    S       points to the mfcc instance structure
  65:.\DSP\Source\TransformFunctions/arm_mfcc_q15.c ****   @param[in]     pSrc points to the input samples in Q15
  66:.\DSP\Source\TransformFunctions/arm_mfcc_q15.c ****   @param[out]     pDst  points to the output MFCC values in q8.7 format
  67:.\DSP\Source\TransformFunctions/arm_mfcc_q15.c ****   @param[inout]     pTmp  points to a temporary buffer of complex
  68:.\DSP\Source\TransformFunctions/arm_mfcc_q15.c **** 
  69:.\DSP\Source\TransformFunctions/arm_mfcc_q15.c ****   @return        none
  70:.\DSP\Source\TransformFunctions/arm_mfcc_q15.c **** 
  71:.\DSP\Source\TransformFunctions/arm_mfcc_q15.c ****   @par           Description
  72:.\DSP\Source\TransformFunctions/arm_mfcc_q15.c ****                    The number of input samples is the FFT length used
  73:.\DSP\Source\TransformFunctions/arm_mfcc_q15.c ****                    when initializing the instance data structure.
  74:.\DSP\Source\TransformFunctions/arm_mfcc_q15.c **** 
  75:.\DSP\Source\TransformFunctions/arm_mfcc_q15.c ****                    The temporary buffer has a 2*fft length.
  76:.\DSP\Source\TransformFunctions/arm_mfcc_q15.c **** 
  77:.\DSP\Source\TransformFunctions/arm_mfcc_q15.c ****                    The source buffer is modified by this function.
  78:.\DSP\Source\TransformFunctions/arm_mfcc_q15.c **** 
  79:.\DSP\Source\TransformFunctions/arm_mfcc_q15.c ****                    The function may saturate. If the FFT length is too
  80:.\DSP\Source\TransformFunctions/arm_mfcc_q15.c ****                    big and the number of MEL filters too small then the fixed
  81:.\DSP\Source\TransformFunctions/arm_mfcc_q15.c ****                    point computations may saturate.
  82:.\DSP\Source\TransformFunctions/arm_mfcc_q15.c **** 
  83:.\DSP\Source\TransformFunctions/arm_mfcc_q15.c ****  */
  84:.\DSP\Source\TransformFunctions/arm_mfcc_q15.c **** 
  85:.\DSP\Source\TransformFunctions/arm_mfcc_q15.c **** arm_status arm_mfcc_q15(
  86:.\DSP\Source\TransformFunctions/arm_mfcc_q15.c ****   const arm_mfcc_instance_q15 * S,
  87:.\DSP\Source\TransformFunctions/arm_mfcc_q15.c ****   q15_t *pSrc,
  88:.\DSP\Source\TransformFunctions/arm_mfcc_q15.c ****   q15_t *pDst,
ARM GAS  C:\Users\IVYLIU~1\AppData\Local\Temp\ccLOQKMN.s 			page 3


  89:.\DSP\Source\TransformFunctions/arm_mfcc_q15.c ****   q31_t *pTmp
  90:.\DSP\Source\TransformFunctions/arm_mfcc_q15.c ****   )
  91:.\DSP\Source\TransformFunctions/arm_mfcc_q15.c **** {
  27              		.loc 1 91 0
  28              		.cfi_startproc
  29              		@ args = 0, pretend = 0, frame = 32
  30              		@ frame_needed = 0, uses_anonymous_args = 0
  31              	.LVL0:
  32 0000 2DE9F04F 		push	{r4, r5, r6, r7, r8, r9, r10, fp, lr}
  33              		.cfi_def_cfa_offset 36
  34              		.cfi_offset 4, -36
  35              		.cfi_offset 5, -32
  36              		.cfi_offset 6, -28
  37              		.cfi_offset 7, -24
  38              		.cfi_offset 8, -20
  39              		.cfi_offset 9, -16
  40              		.cfi_offset 10, -12
  41              		.cfi_offset 11, -8
  42              		.cfi_offset 14, -4
  43 0004 8BB0     		sub	sp, sp, #44
  44              		.cfi_def_cfa_offset 80
  45 0006 0446     		mov	r4, r0
  46 0008 8846     		mov	r8, r1
  47 000a 9346     		mov	fp, r2
  48 000c 1F46     		mov	r7, r3
  49              	.LVL1:
  92:.\DSP\Source\TransformFunctions/arm_mfcc_q15.c ****     q15_t m;
  93:.\DSP\Source\TransformFunctions/arm_mfcc_q15.c ****     uint32_t index;
  94:.\DSP\Source\TransformFunctions/arm_mfcc_q15.c ****     uint32_t fftShift=0;
  95:.\DSP\Source\TransformFunctions/arm_mfcc_q15.c ****     q31_t logExponent;
  96:.\DSP\Source\TransformFunctions/arm_mfcc_q15.c ****     q63_t result;
  97:.\DSP\Source\TransformFunctions/arm_mfcc_q15.c ****     arm_matrix_instance_q15 pDctMat;
  98:.\DSP\Source\TransformFunctions/arm_mfcc_q15.c ****     uint32_t i;
  99:.\DSP\Source\TransformFunctions/arm_mfcc_q15.c ****     uint32_t coefsPos;
 100:.\DSP\Source\TransformFunctions/arm_mfcc_q15.c ****     uint32_t filterLimit;
 101:.\DSP\Source\TransformFunctions/arm_mfcc_q15.c ****     q15_t *pTmp2=(q15_t*)pTmp;
 102:.\DSP\Source\TransformFunctions/arm_mfcc_q15.c **** 
 103:.\DSP\Source\TransformFunctions/arm_mfcc_q15.c ****     arm_status status = ARM_MATH_SUCCESS;
 104:.\DSP\Source\TransformFunctions/arm_mfcc_q15.c ****     
 105:.\DSP\Source\TransformFunctions/arm_mfcc_q15.c ****     // q15
 106:.\DSP\Source\TransformFunctions/arm_mfcc_q15.c ****     arm_absmax_q15(pSrc,S->fftLen,&m,&index);
  50              		.loc 1 106 0
  51 000e 0846     		mov	r0, r1
  52              	.LVL2:
  53 0010 6169     		ldr	r1, [r4, #20]
  54              	.LVL3:
  55 0012 0DF12602 		add	r2, sp, #38
  56              	.LVL4:
  57 0016 08AB     		add	r3, sp, #32
  58              	.LVL5:
  59 0018 FFF7FEFF 		bl	arm_absmax_q15
  60              	.LVL6:
 107:.\DSP\Source\TransformFunctions/arm_mfcc_q15.c **** 
 108:.\DSP\Source\TransformFunctions/arm_mfcc_q15.c ****     if (m !=0)
  61              		.loc 1 108 0
  62 001c BDF82610 		ldrh	r1, [sp, #38]
  63 0020 A9B1     		cbz	r1, .L10
ARM GAS  C:\Users\IVYLIU~1\AppData\Local\Temp\ccLOQKMN.s 			page 4


  64              	.LBB7:
 109:.\DSP\Source\TransformFunctions/arm_mfcc_q15.c ****     {
 110:.\DSP\Source\TransformFunctions/arm_mfcc_q15.c ****        q15_t quotient;
 111:.\DSP\Source\TransformFunctions/arm_mfcc_q15.c ****        int16_t shift;
 112:.\DSP\Source\TransformFunctions/arm_mfcc_q15.c **** 
 113:.\DSP\Source\TransformFunctions/arm_mfcc_q15.c ****        status = arm_divide_q15(0x7FFF,m,&quotient,&shift);
  65              		.loc 1 113 0
  66 0022 47F6FF70 		movw	r0, #32767
  67 0026 09B2     		sxth	r1, r1
  68 0028 03AA     		add	r2, sp, #12
  69 002a 0DF10E03 		add	r3, sp, #14
  70 002e FFF7FEFF 		bl	arm_divide_q15
  71              	.LVL7:
 114:.\DSP\Source\TransformFunctions/arm_mfcc_q15.c ****        if (status != ARM_MATH_SUCCESS)
  72              		.loc 1 114 0
  73 0032 8246     		mov	r10, r0
  74 0034 0028     		cmp	r0, #0
  75 0036 7FD1     		bne	.L4
 115:.\DSP\Source\TransformFunctions/arm_mfcc_q15.c ****        {
 116:.\DSP\Source\TransformFunctions/arm_mfcc_q15.c ****           return(status);
 117:.\DSP\Source\TransformFunctions/arm_mfcc_q15.c ****        }
 118:.\DSP\Source\TransformFunctions/arm_mfcc_q15.c ****  
 119:.\DSP\Source\TransformFunctions/arm_mfcc_q15.c ****        arm_scale_q15(pSrc,quotient,shift,pSrc,S->fftLen);
  76              		.loc 1 119 0
  77 0038 BDF90C10 		ldrsh	r1, [sp, #12]
  78 003c 9DF90E20 		ldrsb	r2, [sp, #14]
  79 0040 6369     		ldr	r3, [r4, #20]
  80 0042 0093     		str	r3, [sp]
  81 0044 4046     		mov	r0, r8
  82              	.LVL8:
  83 0046 4346     		mov	r3, r8
  84 0048 FFF7FEFF 		bl	arm_scale_q15
  85              	.LVL9:
  86 004c 01E0     		b	.L2
  87              	.LVL10:
  88              	.L10:
  89              	.LBE7:
 103:.\DSP\Source\TransformFunctions/arm_mfcc_q15.c ****     
  90              		.loc 1 103 0
  91 004e 4FF0000A 		mov	r10, #0
  92              	.LVL11:
  93              	.L2:
 120:.\DSP\Source\TransformFunctions/arm_mfcc_q15.c ****     }
 121:.\DSP\Source\TransformFunctions/arm_mfcc_q15.c **** 
 122:.\DSP\Source\TransformFunctions/arm_mfcc_q15.c **** 
 123:.\DSP\Source\TransformFunctions/arm_mfcc_q15.c ****     // q15
 124:.\DSP\Source\TransformFunctions/arm_mfcc_q15.c ****     arm_mult_q15(pSrc,S->windowCoefs, pSrc, S->fftLen);
  94              		.loc 1 124 0
  95 0052 4046     		mov	r0, r8
  96 0054 A168     		ldr	r1, [r4, #8]
  97 0056 4246     		mov	r2, r8
  98 0058 6369     		ldr	r3, [r4, #20]
  99 005a FFF7FEFF 		bl	arm_mult_q15
 100              	.LVL12:
 125:.\DSP\Source\TransformFunctions/arm_mfcc_q15.c **** 
 126:.\DSP\Source\TransformFunctions/arm_mfcc_q15.c **** 
 127:.\DSP\Source\TransformFunctions/arm_mfcc_q15.c ****     /* Compute spectrum magnitude 
ARM GAS  C:\Users\IVYLIU~1\AppData\Local\Temp\ccLOQKMN.s 			page 5


 128:.\DSP\Source\TransformFunctions/arm_mfcc_q15.c ****     */
 129:.\DSP\Source\TransformFunctions/arm_mfcc_q15.c ****     fftShift = 31 - __CLZ(S->fftLen);
 101              		.loc 1 129 0
 102 005e 6369     		ldr	r3, [r4, #20]
 103              	.LVL13:
 104              	.LBB8:
 105              	.LBB9:
 106              		.file 2 ".\\Core\\Include/cmsis_gcc.h"
   1:.\Core\Include/cmsis_gcc.h **** /**************************************************************************//**
   2:.\Core\Include/cmsis_gcc.h ****  * @file     cmsis_gcc.h
   3:.\Core\Include/cmsis_gcc.h ****  * @brief    CMSIS compiler GCC header file
   4:.\Core\Include/cmsis_gcc.h ****  * @version  V5.4.1
   5:.\Core\Include/cmsis_gcc.h ****  * @date     27. May 2021
   6:.\Core\Include/cmsis_gcc.h ****  ******************************************************************************/
   7:.\Core\Include/cmsis_gcc.h **** /*
   8:.\Core\Include/cmsis_gcc.h ****  * Copyright (c) 2009-2021 Arm Limited. All rights reserved.
   9:.\Core\Include/cmsis_gcc.h ****  *
  10:.\Core\Include/cmsis_gcc.h ****  * SPDX-License-Identifier: Apache-2.0
  11:.\Core\Include/cmsis_gcc.h ****  *
  12:.\Core\Include/cmsis_gcc.h ****  * Licensed under the Apache License, Version 2.0 (the License); you may
  13:.\Core\Include/cmsis_gcc.h ****  * not use this file except in compliance with the License.
  14:.\Core\Include/cmsis_gcc.h ****  * You may obtain a copy of the License at
  15:.\Core\Include/cmsis_gcc.h ****  *
  16:.\Core\Include/cmsis_gcc.h ****  * www.apache.org/licenses/LICENSE-2.0
  17:.\Core\Include/cmsis_gcc.h ****  *
  18:.\Core\Include/cmsis_gcc.h ****  * Unless required by applicable law or agreed to in writing, software
  19:.\Core\Include/cmsis_gcc.h ****  * distributed under the License is distributed on an AS IS BASIS, WITHOUT
  20:.\Core\Include/cmsis_gcc.h ****  * WARRANTIES OR CONDITIONS OF ANY KIND, either express or implied.
  21:.\Core\Include/cmsis_gcc.h ****  * See the License for the specific language governing permissions and
  22:.\Core\Include/cmsis_gcc.h ****  * limitations under the License.
  23:.\Core\Include/cmsis_gcc.h ****  */
  24:.\Core\Include/cmsis_gcc.h **** 
  25:.\Core\Include/cmsis_gcc.h **** #ifndef __CMSIS_GCC_H
  26:.\Core\Include/cmsis_gcc.h **** #define __CMSIS_GCC_H
  27:.\Core\Include/cmsis_gcc.h **** 
  28:.\Core\Include/cmsis_gcc.h **** /* ignore some GCC warnings */
  29:.\Core\Include/cmsis_gcc.h **** #pragma GCC diagnostic push
  30:.\Core\Include/cmsis_gcc.h **** #pragma GCC diagnostic ignored "-Wsign-conversion"
  31:.\Core\Include/cmsis_gcc.h **** #pragma GCC diagnostic ignored "-Wconversion"
  32:.\Core\Include/cmsis_gcc.h **** #pragma GCC diagnostic ignored "-Wunused-parameter"
  33:.\Core\Include/cmsis_gcc.h **** 
  34:.\Core\Include/cmsis_gcc.h **** /* Fallback for __has_builtin */
  35:.\Core\Include/cmsis_gcc.h **** #ifndef __has_builtin
  36:.\Core\Include/cmsis_gcc.h ****   #define __has_builtin(x) (0)
  37:.\Core\Include/cmsis_gcc.h **** #endif
  38:.\Core\Include/cmsis_gcc.h **** 
  39:.\Core\Include/cmsis_gcc.h **** /* CMSIS compiler specific defines */
  40:.\Core\Include/cmsis_gcc.h **** #ifndef   __ASM
  41:.\Core\Include/cmsis_gcc.h ****   #define __ASM                                  __asm
  42:.\Core\Include/cmsis_gcc.h **** #endif
  43:.\Core\Include/cmsis_gcc.h **** #ifndef   __INLINE
  44:.\Core\Include/cmsis_gcc.h ****   #define __INLINE                               inline
  45:.\Core\Include/cmsis_gcc.h **** #endif
  46:.\Core\Include/cmsis_gcc.h **** #ifndef   __STATIC_INLINE
  47:.\Core\Include/cmsis_gcc.h ****   #define __STATIC_INLINE                        static inline
  48:.\Core\Include/cmsis_gcc.h **** #endif
  49:.\Core\Include/cmsis_gcc.h **** #ifndef   __STATIC_FORCEINLINE
ARM GAS  C:\Users\IVYLIU~1\AppData\Local\Temp\ccLOQKMN.s 			page 6


  50:.\Core\Include/cmsis_gcc.h ****   #define __STATIC_FORCEINLINE                   __attribute__((always_inline)) static inline
  51:.\Core\Include/cmsis_gcc.h **** #endif
  52:.\Core\Include/cmsis_gcc.h **** #ifndef   __NO_RETURN
  53:.\Core\Include/cmsis_gcc.h ****   #define __NO_RETURN                            __attribute__((__noreturn__))
  54:.\Core\Include/cmsis_gcc.h **** #endif
  55:.\Core\Include/cmsis_gcc.h **** #ifndef   __USED
  56:.\Core\Include/cmsis_gcc.h ****   #define __USED                                 __attribute__((used))
  57:.\Core\Include/cmsis_gcc.h **** #endif
  58:.\Core\Include/cmsis_gcc.h **** #ifndef   __WEAK
  59:.\Core\Include/cmsis_gcc.h ****   #define __WEAK                                 __attribute__((weak))
  60:.\Core\Include/cmsis_gcc.h **** #endif
  61:.\Core\Include/cmsis_gcc.h **** #ifndef   __PACKED
  62:.\Core\Include/cmsis_gcc.h ****   #define __PACKED                               __attribute__((packed, aligned(1)))
  63:.\Core\Include/cmsis_gcc.h **** #endif
  64:.\Core\Include/cmsis_gcc.h **** #ifndef   __PACKED_STRUCT
  65:.\Core\Include/cmsis_gcc.h ****   #define __PACKED_STRUCT                        struct __attribute__((packed, aligned(1)))
  66:.\Core\Include/cmsis_gcc.h **** #endif
  67:.\Core\Include/cmsis_gcc.h **** #ifndef   __PACKED_UNION
  68:.\Core\Include/cmsis_gcc.h ****   #define __PACKED_UNION                         union __attribute__((packed, aligned(1)))
  69:.\Core\Include/cmsis_gcc.h **** #endif
  70:.\Core\Include/cmsis_gcc.h **** #ifndef   __UNALIGNED_UINT32        /* deprecated */
  71:.\Core\Include/cmsis_gcc.h ****   #pragma GCC diagnostic push
  72:.\Core\Include/cmsis_gcc.h ****   #pragma GCC diagnostic ignored "-Wpacked"
  73:.\Core\Include/cmsis_gcc.h ****   #pragma GCC diagnostic ignored "-Wattributes"
  74:.\Core\Include/cmsis_gcc.h ****   struct __attribute__((packed)) T_UINT32 { uint32_t v; };
  75:.\Core\Include/cmsis_gcc.h ****   #pragma GCC diagnostic pop
  76:.\Core\Include/cmsis_gcc.h ****   #define __UNALIGNED_UINT32(x)                  (((struct T_UINT32 *)(x))->v)
  77:.\Core\Include/cmsis_gcc.h **** #endif
  78:.\Core\Include/cmsis_gcc.h **** #ifndef   __UNALIGNED_UINT16_WRITE
  79:.\Core\Include/cmsis_gcc.h ****   #pragma GCC diagnostic push
  80:.\Core\Include/cmsis_gcc.h ****   #pragma GCC diagnostic ignored "-Wpacked"
  81:.\Core\Include/cmsis_gcc.h ****   #pragma GCC diagnostic ignored "-Wattributes"
  82:.\Core\Include/cmsis_gcc.h ****   __PACKED_STRUCT T_UINT16_WRITE { uint16_t v; };
  83:.\Core\Include/cmsis_gcc.h ****   #pragma GCC diagnostic pop
  84:.\Core\Include/cmsis_gcc.h ****   #define __UNALIGNED_UINT16_WRITE(addr, val)    (void)((((struct T_UINT16_WRITE *)(void *)(addr))-
  85:.\Core\Include/cmsis_gcc.h **** #endif
  86:.\Core\Include/cmsis_gcc.h **** #ifndef   __UNALIGNED_UINT16_READ
  87:.\Core\Include/cmsis_gcc.h ****   #pragma GCC diagnostic push
  88:.\Core\Include/cmsis_gcc.h ****   #pragma GCC diagnostic ignored "-Wpacked"
  89:.\Core\Include/cmsis_gcc.h ****   #pragma GCC diagnostic ignored "-Wattributes"
  90:.\Core\Include/cmsis_gcc.h ****   __PACKED_STRUCT T_UINT16_READ { uint16_t v; };
  91:.\Core\Include/cmsis_gcc.h ****   #pragma GCC diagnostic pop
  92:.\Core\Include/cmsis_gcc.h ****   #define __UNALIGNED_UINT16_READ(addr)          (((const struct T_UINT16_READ *)(const void *)(add
  93:.\Core\Include/cmsis_gcc.h **** #endif
  94:.\Core\Include/cmsis_gcc.h **** #ifndef   __UNALIGNED_UINT32_WRITE
  95:.\Core\Include/cmsis_gcc.h ****   #pragma GCC diagnostic push
  96:.\Core\Include/cmsis_gcc.h ****   #pragma GCC diagnostic ignored "-Wpacked"
  97:.\Core\Include/cmsis_gcc.h ****   #pragma GCC diagnostic ignored "-Wattributes"
  98:.\Core\Include/cmsis_gcc.h ****   __PACKED_STRUCT T_UINT32_WRITE { uint32_t v; };
  99:.\Core\Include/cmsis_gcc.h ****   #pragma GCC diagnostic pop
 100:.\Core\Include/cmsis_gcc.h ****   #define __UNALIGNED_UINT32_WRITE(addr, val)    (void)((((struct T_UINT32_WRITE *)(void *)(addr))-
 101:.\Core\Include/cmsis_gcc.h **** #endif
 102:.\Core\Include/cmsis_gcc.h **** #ifndef   __UNALIGNED_UINT32_READ
 103:.\Core\Include/cmsis_gcc.h ****   #pragma GCC diagnostic push
 104:.\Core\Include/cmsis_gcc.h ****   #pragma GCC diagnostic ignored "-Wpacked"
 105:.\Core\Include/cmsis_gcc.h ****   #pragma GCC diagnostic ignored "-Wattributes"
 106:.\Core\Include/cmsis_gcc.h ****   __PACKED_STRUCT T_UINT32_READ { uint32_t v; };
ARM GAS  C:\Users\IVYLIU~1\AppData\Local\Temp\ccLOQKMN.s 			page 7


 107:.\Core\Include/cmsis_gcc.h ****   #pragma GCC diagnostic pop
 108:.\Core\Include/cmsis_gcc.h ****   #define __UNALIGNED_UINT32_READ(addr)          (((const struct T_UINT32_READ *)(const void *)(add
 109:.\Core\Include/cmsis_gcc.h **** #endif
 110:.\Core\Include/cmsis_gcc.h **** #ifndef   __ALIGNED
 111:.\Core\Include/cmsis_gcc.h ****   #define __ALIGNED(x)                           __attribute__((aligned(x)))
 112:.\Core\Include/cmsis_gcc.h **** #endif
 113:.\Core\Include/cmsis_gcc.h **** #ifndef   __RESTRICT
 114:.\Core\Include/cmsis_gcc.h ****   #define __RESTRICT                             __restrict
 115:.\Core\Include/cmsis_gcc.h **** #endif
 116:.\Core\Include/cmsis_gcc.h **** #ifndef   __COMPILER_BARRIER
 117:.\Core\Include/cmsis_gcc.h ****   #define __COMPILER_BARRIER()                   __ASM volatile("":::"memory")
 118:.\Core\Include/cmsis_gcc.h **** #endif
 119:.\Core\Include/cmsis_gcc.h **** 
 120:.\Core\Include/cmsis_gcc.h **** /* #########################  Startup and Lowlevel Init  ######################## */
 121:.\Core\Include/cmsis_gcc.h **** 
 122:.\Core\Include/cmsis_gcc.h **** #ifndef __PROGRAM_START
 123:.\Core\Include/cmsis_gcc.h **** 
 124:.\Core\Include/cmsis_gcc.h **** /**
 125:.\Core\Include/cmsis_gcc.h ****   \brief   Initializes data and bss sections
 126:.\Core\Include/cmsis_gcc.h ****   \details This default implementations initialized all data and additional bss
 127:.\Core\Include/cmsis_gcc.h ****            sections relying on .copy.table and .zero.table specified properly
 128:.\Core\Include/cmsis_gcc.h ****            in the used linker script.
 129:.\Core\Include/cmsis_gcc.h **** 
 130:.\Core\Include/cmsis_gcc.h ****  */
 131:.\Core\Include/cmsis_gcc.h **** __STATIC_FORCEINLINE __NO_RETURN void __cmsis_start(void)
 132:.\Core\Include/cmsis_gcc.h **** {
 133:.\Core\Include/cmsis_gcc.h ****   extern void _start(void) __NO_RETURN;
 134:.\Core\Include/cmsis_gcc.h **** 
 135:.\Core\Include/cmsis_gcc.h ****   typedef struct {
 136:.\Core\Include/cmsis_gcc.h ****     uint32_t const* src;
 137:.\Core\Include/cmsis_gcc.h ****     uint32_t* dest;
 138:.\Core\Include/cmsis_gcc.h ****     uint32_t  wlen;
 139:.\Core\Include/cmsis_gcc.h ****   } __copy_table_t;
 140:.\Core\Include/cmsis_gcc.h **** 
 141:.\Core\Include/cmsis_gcc.h ****   typedef struct {
 142:.\Core\Include/cmsis_gcc.h ****     uint32_t* dest;
 143:.\Core\Include/cmsis_gcc.h ****     uint32_t  wlen;
 144:.\Core\Include/cmsis_gcc.h ****   } __zero_table_t;
 145:.\Core\Include/cmsis_gcc.h **** 
 146:.\Core\Include/cmsis_gcc.h ****   extern const __copy_table_t __copy_table_start__;
 147:.\Core\Include/cmsis_gcc.h ****   extern const __copy_table_t __copy_table_end__;
 148:.\Core\Include/cmsis_gcc.h ****   extern const __zero_table_t __zero_table_start__;
 149:.\Core\Include/cmsis_gcc.h ****   extern const __zero_table_t __zero_table_end__;
 150:.\Core\Include/cmsis_gcc.h **** 
 151:.\Core\Include/cmsis_gcc.h ****   for (__copy_table_t const* pTable = &__copy_table_start__; pTable < &__copy_table_end__; ++pTable
 152:.\Core\Include/cmsis_gcc.h ****     for(uint32_t i=0u; i<pTable->wlen; ++i) {
 153:.\Core\Include/cmsis_gcc.h ****       pTable->dest[i] = pTable->src[i];
 154:.\Core\Include/cmsis_gcc.h ****     }
 155:.\Core\Include/cmsis_gcc.h ****   }
 156:.\Core\Include/cmsis_gcc.h **** 
 157:.\Core\Include/cmsis_gcc.h ****   for (__zero_table_t const* pTable = &__zero_table_start__; pTable < &__zero_table_end__; ++pTable
 158:.\Core\Include/cmsis_gcc.h ****     for(uint32_t i=0u; i<pTable->wlen; ++i) {
 159:.\Core\Include/cmsis_gcc.h ****       pTable->dest[i] = 0u;
 160:.\Core\Include/cmsis_gcc.h ****     }
 161:.\Core\Include/cmsis_gcc.h ****   }
 162:.\Core\Include/cmsis_gcc.h **** 
 163:.\Core\Include/cmsis_gcc.h ****   _start();
ARM GAS  C:\Users\IVYLIU~1\AppData\Local\Temp\ccLOQKMN.s 			page 8


 164:.\Core\Include/cmsis_gcc.h **** }
 165:.\Core\Include/cmsis_gcc.h **** 
 166:.\Core\Include/cmsis_gcc.h **** #define __PROGRAM_START           __cmsis_start
 167:.\Core\Include/cmsis_gcc.h **** #endif
 168:.\Core\Include/cmsis_gcc.h **** 
 169:.\Core\Include/cmsis_gcc.h **** #ifndef __INITIAL_SP
 170:.\Core\Include/cmsis_gcc.h **** #define __INITIAL_SP              __StackTop
 171:.\Core\Include/cmsis_gcc.h **** #endif
 172:.\Core\Include/cmsis_gcc.h **** 
 173:.\Core\Include/cmsis_gcc.h **** #ifndef __STACK_LIMIT
 174:.\Core\Include/cmsis_gcc.h **** #define __STACK_LIMIT             __StackLimit
 175:.\Core\Include/cmsis_gcc.h **** #endif
 176:.\Core\Include/cmsis_gcc.h **** 
 177:.\Core\Include/cmsis_gcc.h **** #ifndef __VECTOR_TABLE
 178:.\Core\Include/cmsis_gcc.h **** #define __VECTOR_TABLE            __Vectors
 179:.\Core\Include/cmsis_gcc.h **** #endif
 180:.\Core\Include/cmsis_gcc.h **** 
 181:.\Core\Include/cmsis_gcc.h **** #ifndef __VECTOR_TABLE_ATTRIBUTE
 182:.\Core\Include/cmsis_gcc.h **** #define __VECTOR_TABLE_ATTRIBUTE  __attribute__((used, section(".vectors")))
 183:.\Core\Include/cmsis_gcc.h **** #endif
 184:.\Core\Include/cmsis_gcc.h **** 
 185:.\Core\Include/cmsis_gcc.h **** #if defined (__ARM_FEATURE_CMSE) && (__ARM_FEATURE_CMSE == 3U)
 186:.\Core\Include/cmsis_gcc.h **** #ifndef __STACK_SEAL
 187:.\Core\Include/cmsis_gcc.h **** #define __STACK_SEAL              __StackSeal
 188:.\Core\Include/cmsis_gcc.h **** #endif
 189:.\Core\Include/cmsis_gcc.h **** 
 190:.\Core\Include/cmsis_gcc.h **** #ifndef __TZ_STACK_SEAL_SIZE
 191:.\Core\Include/cmsis_gcc.h **** #define __TZ_STACK_SEAL_SIZE      8U
 192:.\Core\Include/cmsis_gcc.h **** #endif
 193:.\Core\Include/cmsis_gcc.h **** 
 194:.\Core\Include/cmsis_gcc.h **** #ifndef __TZ_STACK_SEAL_VALUE
 195:.\Core\Include/cmsis_gcc.h **** #define __TZ_STACK_SEAL_VALUE     0xFEF5EDA5FEF5EDA5ULL
 196:.\Core\Include/cmsis_gcc.h **** #endif
 197:.\Core\Include/cmsis_gcc.h **** 
 198:.\Core\Include/cmsis_gcc.h **** 
 199:.\Core\Include/cmsis_gcc.h **** __STATIC_FORCEINLINE void __TZ_set_STACKSEAL_S (uint32_t* stackTop) {
 200:.\Core\Include/cmsis_gcc.h ****   *((uint64_t *)stackTop) = __TZ_STACK_SEAL_VALUE;
 201:.\Core\Include/cmsis_gcc.h **** }
 202:.\Core\Include/cmsis_gcc.h **** #endif
 203:.\Core\Include/cmsis_gcc.h **** 
 204:.\Core\Include/cmsis_gcc.h **** 
 205:.\Core\Include/cmsis_gcc.h **** /* ##########################  Core Instruction Access  ######################### */
 206:.\Core\Include/cmsis_gcc.h **** /** \defgroup CMSIS_Core_InstructionInterface CMSIS Core Instruction Interface
 207:.\Core\Include/cmsis_gcc.h ****   Access to dedicated instructions
 208:.\Core\Include/cmsis_gcc.h ****   @{
 209:.\Core\Include/cmsis_gcc.h **** */
 210:.\Core\Include/cmsis_gcc.h **** 
 211:.\Core\Include/cmsis_gcc.h **** /* Define macros for porting to both thumb1 and thumb2.
 212:.\Core\Include/cmsis_gcc.h ****  * For thumb1, use low register (r0-r7), specified by constraint "l"
 213:.\Core\Include/cmsis_gcc.h ****  * Otherwise, use general registers, specified by constraint "r" */
 214:.\Core\Include/cmsis_gcc.h **** #if defined (__thumb__) && !defined (__thumb2__)
 215:.\Core\Include/cmsis_gcc.h **** #define __CMSIS_GCC_OUT_REG(r) "=l" (r)
 216:.\Core\Include/cmsis_gcc.h **** #define __CMSIS_GCC_RW_REG(r) "+l" (r)
 217:.\Core\Include/cmsis_gcc.h **** #define __CMSIS_GCC_USE_REG(r) "l" (r)
 218:.\Core\Include/cmsis_gcc.h **** #else
 219:.\Core\Include/cmsis_gcc.h **** #define __CMSIS_GCC_OUT_REG(r) "=r" (r)
 220:.\Core\Include/cmsis_gcc.h **** #define __CMSIS_GCC_RW_REG(r) "+r" (r)
ARM GAS  C:\Users\IVYLIU~1\AppData\Local\Temp\ccLOQKMN.s 			page 9


 221:.\Core\Include/cmsis_gcc.h **** #define __CMSIS_GCC_USE_REG(r) "r" (r)
 222:.\Core\Include/cmsis_gcc.h **** #endif
 223:.\Core\Include/cmsis_gcc.h **** 
 224:.\Core\Include/cmsis_gcc.h **** /**
 225:.\Core\Include/cmsis_gcc.h ****   \brief   No Operation
 226:.\Core\Include/cmsis_gcc.h ****   \details No Operation does nothing. This instruction can be used for code alignment purposes.
 227:.\Core\Include/cmsis_gcc.h ****  */
 228:.\Core\Include/cmsis_gcc.h **** #define __NOP()                             __ASM volatile ("nop")
 229:.\Core\Include/cmsis_gcc.h **** 
 230:.\Core\Include/cmsis_gcc.h **** /**
 231:.\Core\Include/cmsis_gcc.h ****   \brief   Wait For Interrupt
 232:.\Core\Include/cmsis_gcc.h ****   \details Wait For Interrupt is a hint instruction that suspends execution until one of a number o
 233:.\Core\Include/cmsis_gcc.h ****  */
 234:.\Core\Include/cmsis_gcc.h **** #define __WFI()                             __ASM volatile ("wfi":::"memory")
 235:.\Core\Include/cmsis_gcc.h **** 
 236:.\Core\Include/cmsis_gcc.h **** 
 237:.\Core\Include/cmsis_gcc.h **** /**
 238:.\Core\Include/cmsis_gcc.h ****   \brief   Wait For Event
 239:.\Core\Include/cmsis_gcc.h ****   \details Wait For Event is a hint instruction that permits the processor to enter
 240:.\Core\Include/cmsis_gcc.h ****            a low-power state until one of a number of events occurs.
 241:.\Core\Include/cmsis_gcc.h ****  */
 242:.\Core\Include/cmsis_gcc.h **** #define __WFE()                             __ASM volatile ("wfe":::"memory")
 243:.\Core\Include/cmsis_gcc.h **** 
 244:.\Core\Include/cmsis_gcc.h **** 
 245:.\Core\Include/cmsis_gcc.h **** /**
 246:.\Core\Include/cmsis_gcc.h ****   \brief   Send Event
 247:.\Core\Include/cmsis_gcc.h ****   \details Send Event is a hint instruction. It causes an event to be signaled to the CPU.
 248:.\Core\Include/cmsis_gcc.h ****  */
 249:.\Core\Include/cmsis_gcc.h **** #define __SEV()                             __ASM volatile ("sev")
 250:.\Core\Include/cmsis_gcc.h **** 
 251:.\Core\Include/cmsis_gcc.h **** 
 252:.\Core\Include/cmsis_gcc.h **** /**
 253:.\Core\Include/cmsis_gcc.h ****   \brief   Instruction Synchronization Barrier
 254:.\Core\Include/cmsis_gcc.h ****   \details Instruction Synchronization Barrier flushes the pipeline in the processor,
 255:.\Core\Include/cmsis_gcc.h ****            so that all instructions following the ISB are fetched from cache or memory,
 256:.\Core\Include/cmsis_gcc.h ****            after the instruction has been completed.
 257:.\Core\Include/cmsis_gcc.h ****  */
 258:.\Core\Include/cmsis_gcc.h **** __STATIC_FORCEINLINE void __ISB(void)
 259:.\Core\Include/cmsis_gcc.h **** {
 260:.\Core\Include/cmsis_gcc.h ****   __ASM volatile ("isb 0xF":::"memory");
 261:.\Core\Include/cmsis_gcc.h **** }
 262:.\Core\Include/cmsis_gcc.h **** 
 263:.\Core\Include/cmsis_gcc.h **** 
 264:.\Core\Include/cmsis_gcc.h **** /**
 265:.\Core\Include/cmsis_gcc.h ****   \brief   Data Synchronization Barrier
 266:.\Core\Include/cmsis_gcc.h ****   \details Acts as a special kind of Data Memory Barrier.
 267:.\Core\Include/cmsis_gcc.h ****            It completes when all explicit memory accesses before this instruction complete.
 268:.\Core\Include/cmsis_gcc.h ****  */
 269:.\Core\Include/cmsis_gcc.h **** __STATIC_FORCEINLINE void __DSB(void)
 270:.\Core\Include/cmsis_gcc.h **** {
 271:.\Core\Include/cmsis_gcc.h ****   __ASM volatile ("dsb 0xF":::"memory");
 272:.\Core\Include/cmsis_gcc.h **** }
 273:.\Core\Include/cmsis_gcc.h **** 
 274:.\Core\Include/cmsis_gcc.h **** 
 275:.\Core\Include/cmsis_gcc.h **** /**
 276:.\Core\Include/cmsis_gcc.h ****   \brief   Data Memory Barrier
 277:.\Core\Include/cmsis_gcc.h ****   \details Ensures the apparent order of the explicit memory operations before
ARM GAS  C:\Users\IVYLIU~1\AppData\Local\Temp\ccLOQKMN.s 			page 10


 278:.\Core\Include/cmsis_gcc.h ****            and after the instruction, without ensuring their completion.
 279:.\Core\Include/cmsis_gcc.h ****  */
 280:.\Core\Include/cmsis_gcc.h **** __STATIC_FORCEINLINE void __DMB(void)
 281:.\Core\Include/cmsis_gcc.h **** {
 282:.\Core\Include/cmsis_gcc.h ****   __ASM volatile ("dmb 0xF":::"memory");
 283:.\Core\Include/cmsis_gcc.h **** }
 284:.\Core\Include/cmsis_gcc.h **** 
 285:.\Core\Include/cmsis_gcc.h **** 
 286:.\Core\Include/cmsis_gcc.h **** /**
 287:.\Core\Include/cmsis_gcc.h ****   \brief   Reverse byte order (32 bit)
 288:.\Core\Include/cmsis_gcc.h ****   \details Reverses the byte order in unsigned integer value. For example, 0x12345678 becomes 0x785
 289:.\Core\Include/cmsis_gcc.h ****   \param [in]    value  Value to reverse
 290:.\Core\Include/cmsis_gcc.h ****   \return               Reversed value
 291:.\Core\Include/cmsis_gcc.h ****  */
 292:.\Core\Include/cmsis_gcc.h **** __STATIC_FORCEINLINE uint32_t __REV(uint32_t value)
 293:.\Core\Include/cmsis_gcc.h **** {
 294:.\Core\Include/cmsis_gcc.h **** #if (__GNUC__ > 4) || (__GNUC__ == 4 && __GNUC_MINOR__ >= 5)
 295:.\Core\Include/cmsis_gcc.h ****   return __builtin_bswap32(value);
 296:.\Core\Include/cmsis_gcc.h **** #else
 297:.\Core\Include/cmsis_gcc.h ****   uint32_t result;
 298:.\Core\Include/cmsis_gcc.h **** 
 299:.\Core\Include/cmsis_gcc.h ****   __ASM ("rev %0, %1" : __CMSIS_GCC_OUT_REG (result) : __CMSIS_GCC_USE_REG (value) );
 300:.\Core\Include/cmsis_gcc.h ****   return result;
 301:.\Core\Include/cmsis_gcc.h **** #endif
 302:.\Core\Include/cmsis_gcc.h **** }
 303:.\Core\Include/cmsis_gcc.h **** 
 304:.\Core\Include/cmsis_gcc.h **** 
 305:.\Core\Include/cmsis_gcc.h **** /**
 306:.\Core\Include/cmsis_gcc.h ****   \brief   Reverse byte order (16 bit)
 307:.\Core\Include/cmsis_gcc.h ****   \details Reverses the byte order within each halfword of a word. For example, 0x12345678 becomes 
 308:.\Core\Include/cmsis_gcc.h ****   \param [in]    value  Value to reverse
 309:.\Core\Include/cmsis_gcc.h ****   \return               Reversed value
 310:.\Core\Include/cmsis_gcc.h ****  */
 311:.\Core\Include/cmsis_gcc.h **** __STATIC_FORCEINLINE uint32_t __REV16(uint32_t value)
 312:.\Core\Include/cmsis_gcc.h **** {
 313:.\Core\Include/cmsis_gcc.h ****   uint32_t result;
 314:.\Core\Include/cmsis_gcc.h **** 
 315:.\Core\Include/cmsis_gcc.h ****   __ASM ("rev16 %0, %1" : __CMSIS_GCC_OUT_REG (result) : __CMSIS_GCC_USE_REG (value) );
 316:.\Core\Include/cmsis_gcc.h ****   return result;
 317:.\Core\Include/cmsis_gcc.h **** }
 318:.\Core\Include/cmsis_gcc.h **** 
 319:.\Core\Include/cmsis_gcc.h **** 
 320:.\Core\Include/cmsis_gcc.h **** /**
 321:.\Core\Include/cmsis_gcc.h ****   \brief   Reverse byte order (16 bit)
 322:.\Core\Include/cmsis_gcc.h ****   \details Reverses the byte order in a 16-bit value and returns the signed 16-bit result. For exam
 323:.\Core\Include/cmsis_gcc.h ****   \param [in]    value  Value to reverse
 324:.\Core\Include/cmsis_gcc.h ****   \return               Reversed value
 325:.\Core\Include/cmsis_gcc.h ****  */
 326:.\Core\Include/cmsis_gcc.h **** __STATIC_FORCEINLINE int16_t __REVSH(int16_t value)
 327:.\Core\Include/cmsis_gcc.h **** {
 328:.\Core\Include/cmsis_gcc.h **** #if (__GNUC__ > 4) || (__GNUC__ == 4 && __GNUC_MINOR__ >= 8)
 329:.\Core\Include/cmsis_gcc.h ****   return (int16_t)__builtin_bswap16(value);
 330:.\Core\Include/cmsis_gcc.h **** #else
 331:.\Core\Include/cmsis_gcc.h ****   int16_t result;
 332:.\Core\Include/cmsis_gcc.h **** 
 333:.\Core\Include/cmsis_gcc.h ****   __ASM ("revsh %0, %1" : __CMSIS_GCC_OUT_REG (result) : __CMSIS_GCC_USE_REG (value) );
 334:.\Core\Include/cmsis_gcc.h ****   return result;
ARM GAS  C:\Users\IVYLIU~1\AppData\Local\Temp\ccLOQKMN.s 			page 11


 335:.\Core\Include/cmsis_gcc.h **** #endif
 336:.\Core\Include/cmsis_gcc.h **** }
 337:.\Core\Include/cmsis_gcc.h **** 
 338:.\Core\Include/cmsis_gcc.h **** 
 339:.\Core\Include/cmsis_gcc.h **** /**
 340:.\Core\Include/cmsis_gcc.h ****   \brief   Rotate Right in unsigned value (32 bit)
 341:.\Core\Include/cmsis_gcc.h ****   \details Rotate Right (immediate) provides the value of the contents of a register rotated by a v
 342:.\Core\Include/cmsis_gcc.h ****   \param [in]    op1  Value to rotate
 343:.\Core\Include/cmsis_gcc.h ****   \param [in]    op2  Number of Bits to rotate
 344:.\Core\Include/cmsis_gcc.h ****   \return               Rotated value
 345:.\Core\Include/cmsis_gcc.h ****  */
 346:.\Core\Include/cmsis_gcc.h **** __STATIC_FORCEINLINE uint32_t __ROR(uint32_t op1, uint32_t op2)
 347:.\Core\Include/cmsis_gcc.h **** {
 348:.\Core\Include/cmsis_gcc.h ****   op2 %= 32U;
 349:.\Core\Include/cmsis_gcc.h ****   if (op2 == 0U)
 350:.\Core\Include/cmsis_gcc.h ****   {
 351:.\Core\Include/cmsis_gcc.h ****     return op1;
 352:.\Core\Include/cmsis_gcc.h ****   }
 353:.\Core\Include/cmsis_gcc.h ****   return (op1 >> op2) | (op1 << (32U - op2));
 354:.\Core\Include/cmsis_gcc.h **** }
 355:.\Core\Include/cmsis_gcc.h **** 
 356:.\Core\Include/cmsis_gcc.h **** 
 357:.\Core\Include/cmsis_gcc.h **** /**
 358:.\Core\Include/cmsis_gcc.h ****   \brief   Breakpoint
 359:.\Core\Include/cmsis_gcc.h ****   \details Causes the processor to enter Debug state.
 360:.\Core\Include/cmsis_gcc.h ****            Debug tools can use this to investigate system state when the instruction at a particula
 361:.\Core\Include/cmsis_gcc.h ****   \param [in]    value  is ignored by the processor.
 362:.\Core\Include/cmsis_gcc.h ****                  If required, a debugger can use it to store additional information about the break
 363:.\Core\Include/cmsis_gcc.h ****  */
 364:.\Core\Include/cmsis_gcc.h **** #define __BKPT(value)                       __ASM volatile ("bkpt "#value)
 365:.\Core\Include/cmsis_gcc.h **** 
 366:.\Core\Include/cmsis_gcc.h **** 
 367:.\Core\Include/cmsis_gcc.h **** /**
 368:.\Core\Include/cmsis_gcc.h ****   \brief   Reverse bit order of value
 369:.\Core\Include/cmsis_gcc.h ****   \details Reverses the bit order of the given value.
 370:.\Core\Include/cmsis_gcc.h ****   \param [in]    value  Value to reverse
 371:.\Core\Include/cmsis_gcc.h ****   \return               Reversed value
 372:.\Core\Include/cmsis_gcc.h ****  */
 373:.\Core\Include/cmsis_gcc.h **** __STATIC_FORCEINLINE uint32_t __RBIT(uint32_t value)
 374:.\Core\Include/cmsis_gcc.h **** {
 375:.\Core\Include/cmsis_gcc.h ****   uint32_t result;
 376:.\Core\Include/cmsis_gcc.h **** 
 377:.\Core\Include/cmsis_gcc.h **** #if ((defined (__ARM_ARCH_7M__      ) && (__ARM_ARCH_7M__      == 1)) || \
 378:.\Core\Include/cmsis_gcc.h ****      (defined (__ARM_ARCH_7EM__     ) && (__ARM_ARCH_7EM__     == 1)) || \
 379:.\Core\Include/cmsis_gcc.h ****      (defined (__ARM_ARCH_8M_MAIN__ ) && (__ARM_ARCH_8M_MAIN__ == 1))    )
 380:.\Core\Include/cmsis_gcc.h ****    __ASM ("rbit %0, %1" : "=r" (result) : "r" (value) );
 381:.\Core\Include/cmsis_gcc.h **** #else
 382:.\Core\Include/cmsis_gcc.h ****   uint32_t s = (4U /*sizeof(v)*/ * 8U) - 1U; /* extra shift needed at end */
 383:.\Core\Include/cmsis_gcc.h **** 
 384:.\Core\Include/cmsis_gcc.h ****   result = value;                      /* r will be reversed bits of v; first get LSB of v */
 385:.\Core\Include/cmsis_gcc.h ****   for (value >>= 1U; value != 0U; value >>= 1U)
 386:.\Core\Include/cmsis_gcc.h ****   {
 387:.\Core\Include/cmsis_gcc.h ****     result <<= 1U;
 388:.\Core\Include/cmsis_gcc.h ****     result |= value & 1U;
 389:.\Core\Include/cmsis_gcc.h ****     s--;
 390:.\Core\Include/cmsis_gcc.h ****   }
 391:.\Core\Include/cmsis_gcc.h ****   result <<= s;                        /* shift when v's highest bits are zero */
ARM GAS  C:\Users\IVYLIU~1\AppData\Local\Temp\ccLOQKMN.s 			page 12


 392:.\Core\Include/cmsis_gcc.h **** #endif
 393:.\Core\Include/cmsis_gcc.h ****   return result;
 394:.\Core\Include/cmsis_gcc.h **** }
 395:.\Core\Include/cmsis_gcc.h **** 
 396:.\Core\Include/cmsis_gcc.h **** 
 397:.\Core\Include/cmsis_gcc.h **** /**
 398:.\Core\Include/cmsis_gcc.h ****   \brief   Count leading zeros
 399:.\Core\Include/cmsis_gcc.h ****   \details Counts the number of leading zeros of a data value.
 400:.\Core\Include/cmsis_gcc.h ****   \param [in]  value  Value to count the leading zeros
 401:.\Core\Include/cmsis_gcc.h ****   \return             number of leading zeros in value
 402:.\Core\Include/cmsis_gcc.h ****  */
 403:.\Core\Include/cmsis_gcc.h **** __STATIC_FORCEINLINE uint8_t __CLZ(uint32_t value)
 404:.\Core\Include/cmsis_gcc.h **** {
 405:.\Core\Include/cmsis_gcc.h ****   /* Even though __builtin_clz produces a CLZ instruction on ARM, formally
 406:.\Core\Include/cmsis_gcc.h ****      __builtin_clz(0) is undefined behaviour, so handle this case specially.
 407:.\Core\Include/cmsis_gcc.h ****      This guarantees ARM-compatible results if happening to compile on a non-ARM
 408:.\Core\Include/cmsis_gcc.h ****      target, and ensures the compiler doesn't decide to activate any
 409:.\Core\Include/cmsis_gcc.h ****      optimisations using the logic "value was passed to __builtin_clz, so it
 410:.\Core\Include/cmsis_gcc.h ****      is non-zero".
 411:.\Core\Include/cmsis_gcc.h ****      ARM GCC 7.3 and possibly earlier will optimise this test away, leaving a
 412:.\Core\Include/cmsis_gcc.h ****      single CLZ instruction.
 413:.\Core\Include/cmsis_gcc.h ****    */
 414:.\Core\Include/cmsis_gcc.h ****   if (value == 0U)
 107              		.loc 2 414 0
 108 0060 13B1     		cbz	r3, .L11
 415:.\Core\Include/cmsis_gcc.h ****   {
 416:.\Core\Include/cmsis_gcc.h ****     return 32U;
 417:.\Core\Include/cmsis_gcc.h ****   }
 418:.\Core\Include/cmsis_gcc.h ****   return __builtin_clz(value);
 109              		.loc 2 418 0
 110 0062 B3FA83F9 		clz	r9, r3
 111 0066 01E0     		b	.L5
 112              	.L11:
 416:.\Core\Include/cmsis_gcc.h ****   }
 113              		.loc 2 416 0
 114 0068 4FF02009 		mov	r9, #32
 115              	.L5:
 116              	.LBE9:
 117              	.LBE8:
 118              		.loc 1 129 0
 119 006c C9F11F09 		rsb	r9, r9, #31
 120              	.LVL14:
 130:.\DSP\Source\TransformFunctions/arm_mfcc_q15.c **** #if defined(ARM_MFCC_CFFT_BASED)
 131:.\DSP\Source\TransformFunctions/arm_mfcc_q15.c ****     /* some HW accelerator for CMSIS-DSP used in some boards
 132:.\DSP\Source\TransformFunctions/arm_mfcc_q15.c ****        are only providing acceleration for CFFT.
 133:.\DSP\Source\TransformFunctions/arm_mfcc_q15.c ****        With ARM_MFCC_CFFT_BASED enabled, CFFT is used and the MFCC
 134:.\DSP\Source\TransformFunctions/arm_mfcc_q15.c ****        will be accelerated on those boards.
 135:.\DSP\Source\TransformFunctions/arm_mfcc_q15.c ****  
 136:.\DSP\Source\TransformFunctions/arm_mfcc_q15.c ****        The default is to use RFFT
 137:.\DSP\Source\TransformFunctions/arm_mfcc_q15.c ****     */
 138:.\DSP\Source\TransformFunctions/arm_mfcc_q15.c ****     /* Convert from real to complex */
 139:.\DSP\Source\TransformFunctions/arm_mfcc_q15.c ****     for(i=0; i < S->fftLen ; i++)
 140:.\DSP\Source\TransformFunctions/arm_mfcc_q15.c ****     {
 141:.\DSP\Source\TransformFunctions/arm_mfcc_q15.c ****       pTmp2[2*i] = pSrc[i];
 142:.\DSP\Source\TransformFunctions/arm_mfcc_q15.c ****       pTmp2[2*i+1] = 0;
 143:.\DSP\Source\TransformFunctions/arm_mfcc_q15.c ****     }
 144:.\DSP\Source\TransformFunctions/arm_mfcc_q15.c ****     arm_cfft_q15(&(S->cfft),pTmp2,0,1);
ARM GAS  C:\Users\IVYLIU~1\AppData\Local\Temp\ccLOQKMN.s 			page 13


 145:.\DSP\Source\TransformFunctions/arm_mfcc_q15.c **** #else
 146:.\DSP\Source\TransformFunctions/arm_mfcc_q15.c ****     /* Default RFFT based implementation */
 147:.\DSP\Source\TransformFunctions/arm_mfcc_q15.c ****     arm_rfft_q15(&(S->rfft),pSrc,pTmp2);
 121              		.loc 1 147 0
 122 0070 04F12000 		add	r0, r4, #32
 123 0074 4146     		mov	r1, r8
 124 0076 3A46     		mov	r2, r7
 125 0078 FFF7FEFF 		bl	arm_rfft_q15
 126              	.LVL15:
 148:.\DSP\Source\TransformFunctions/arm_mfcc_q15.c **** #endif
 149:.\DSP\Source\TransformFunctions/arm_mfcc_q15.c ****     filterLimit = 1 + (S->fftLen >> 1);
 127              		.loc 1 149 0
 128 007c 6269     		ldr	r2, [r4, #20]
 129 007e 5208     		lsrs	r2, r2, #1
 130              	.LVL16:
 150:.\DSP\Source\TransformFunctions/arm_mfcc_q15.c **** 
 151:.\DSP\Source\TransformFunctions/arm_mfcc_q15.c **** 
 152:.\DSP\Source\TransformFunctions/arm_mfcc_q15.c ****     // q15 - fftShift
 153:.\DSP\Source\TransformFunctions/arm_mfcc_q15.c ****     arm_cmplx_mag_q15(pTmp2,pSrc,filterLimit);
 131              		.loc 1 153 0
 132 0080 3846     		mov	r0, r7
 133 0082 4146     		mov	r1, r8
 134 0084 0132     		adds	r2, r2, #1
 135              	.LVL17:
 136 0086 FFF7FEFF 		bl	arm_cmplx_mag_q15
 137              	.LVL18:
 154:.\DSP\Source\TransformFunctions/arm_mfcc_q15.c ****     // q14 - fftShift
 155:.\DSP\Source\TransformFunctions/arm_mfcc_q15.c **** 
 156:.\DSP\Source\TransformFunctions/arm_mfcc_q15.c ****     /* Apply MEL filters */
 157:.\DSP\Source\TransformFunctions/arm_mfcc_q15.c ****     coefsPos = 0;
 138              		.loc 1 157 0
 139 008a 0026     		movs	r6, #0
 158:.\DSP\Source\TransformFunctions/arm_mfcc_q15.c ****     for(i=0; i<S->nbMelFilters; i++)
 140              		.loc 1 158 0
 141 008c 3546     		mov	r5, r6
 142 008e 23E0     		b	.L6
 143              	.LVL19:
 144              	.L7:
 159:.\DSP\Source\TransformFunctions/arm_mfcc_q15.c ****     {
 160:.\DSP\Source\TransformFunctions/arm_mfcc_q15.c ****       arm_dot_prod_q15(pSrc+S->filterPos[i],
 145              		.loc 1 160 0 discriminator 3
 146 0090 E368     		ldr	r3, [r4, #12]
 147 0092 53F82500 		ldr	r0, [r3, r5, lsl #2]
 161:.\DSP\Source\TransformFunctions/arm_mfcc_q15.c ****         &(S->filterCoefs[coefsPos]),
 148              		.loc 1 161 0 discriminator 3
 149 0096 6168     		ldr	r1, [r4, #4]
 162:.\DSP\Source\TransformFunctions/arm_mfcc_q15.c ****         S->filterLengths[i],
 150              		.loc 1 162 0 discriminator 3
 151 0098 2369     		ldr	r3, [r4, #16]
 160:.\DSP\Source\TransformFunctions/arm_mfcc_q15.c ****         &(S->filterCoefs[coefsPos]),
 152              		.loc 1 160 0 discriminator 3
 153 009a 08EB4000 		add	r0, r8, r0, lsl #1
 154 009e 01EB4601 		add	r1, r1, r6, lsl #1
 155 00a2 53F82520 		ldr	r2, [r3, r5, lsl #2]
 156 00a6 06AB     		add	r3, sp, #24
 157 00a8 FFF7FEFF 		bl	arm_dot_prod_q15
 158              	.LVL20:
ARM GAS  C:\Users\IVYLIU~1\AppData\Local\Temp\ccLOQKMN.s 			page 14


 163:.\DSP\Source\TransformFunctions/arm_mfcc_q15.c ****         &result);
 164:.\DSP\Source\TransformFunctions/arm_mfcc_q15.c **** 
 165:.\DSP\Source\TransformFunctions/arm_mfcc_q15.c ****       coefsPos += S->filterLengths[i];
 159              		.loc 1 165 0 discriminator 3
 160 00ac 2369     		ldr	r3, [r4, #16]
 161 00ae 53F82530 		ldr	r3, [r3, r5, lsl #2]
 162 00b2 1E44     		add	r6, r6, r3
 163              	.LVL21:
 166:.\DSP\Source\TransformFunctions/arm_mfcc_q15.c **** 
 167:.\DSP\Source\TransformFunctions/arm_mfcc_q15.c ****       // q34.29 - fftShift
 168:.\DSP\Source\TransformFunctions/arm_mfcc_q15.c ****       result += MICRO_Q15;
 164              		.loc 1 168 0 discriminator 3
 165 00b4 40F21920 		movw	r0, #537
 166 00b8 0021     		movs	r1, #0
 167 00ba DDE90623 		ldrd	r2, [sp, #24]
 168 00be 8018     		adds	r0, r0, r2
 169 00c0 5941     		adcs	r1, r1, r3
 169:.\DSP\Source\TransformFunctions/arm_mfcc_q15.c ****       result >>= SHIFT_MELFILTER_SATURATION_Q15;
 170              		.loc 1 169 0 discriminator 3
 171 00c2 830A     		lsrs	r3, r0, #10
 172 00c4 43EA8153 		orr	r3, r3, r1, lsl #22
 173 00c8 8A12     		asrs	r2, r1, #10
 174 00ca 0693     		str	r3, [sp, #24]
 175 00cc 0792     		str	r2, [sp, #28]
 176              	.LVL22:
 177              	.LBB10:
 170:.\DSP\Source\TransformFunctions/arm_mfcc_q15.c ****       // q34.29 - fftShift - satShift
 171:.\DSP\Source\TransformFunctions/arm_mfcc_q15.c ****       pTmp[i] = __SSAT(result,31) ;
 178              		.loc 1 171 0 discriminator 3
 179              	@ 171 ".\DSP\Source\TransformFunctions\arm_mfcc_q15.c" 1
 180 00ce 03F31E03 		ssat r3, #31, r3
 181              	@ 0 "" 2
 182              	.LVL23:
 183              		.thumb
 184              	.LBE10:
 185 00d2 47F82530 		str	r3, [r7, r5, lsl #2]
 186              	.LVL24:
 158:.\DSP\Source\TransformFunctions/arm_mfcc_q15.c ****     {
 187              		.loc 1 158 0 discriminator 3
 188 00d6 0135     		adds	r5, r5, #1
 189              	.LVL25:
 190              	.L6:
 158:.\DSP\Source\TransformFunctions/arm_mfcc_q15.c ****     {
 191              		.loc 1 158 0 is_stmt 0 discriminator 1
 192 00d8 A269     		ldr	r2, [r4, #24]
 193 00da AA42     		cmp	r2, r5
 194 00dc D8D8     		bhi	.L7
 172:.\DSP\Source\TransformFunctions/arm_mfcc_q15.c **** 
 173:.\DSP\Source\TransformFunctions/arm_mfcc_q15.c ****     }
 174:.\DSP\Source\TransformFunctions/arm_mfcc_q15.c **** 
 175:.\DSP\Source\TransformFunctions/arm_mfcc_q15.c **** 
 176:.\DSP\Source\TransformFunctions/arm_mfcc_q15.c ****     // q34.29 - fftShift - satShift
 177:.\DSP\Source\TransformFunctions/arm_mfcc_q15.c ****     /* Compute the log */
 178:.\DSP\Source\TransformFunctions/arm_mfcc_q15.c ****     arm_vlog_q31(pTmp,pTmp,S->nbMelFilters);
 195              		.loc 1 178 0 is_stmt 1
 196 00de 3846     		mov	r0, r7
 197 00e0 3946     		mov	r1, r7
ARM GAS  C:\Users\IVYLIU~1\AppData\Local\Temp\ccLOQKMN.s 			page 15


 198 00e2 FFF7FEFF 		bl	arm_vlog_q31
 199              	.LVL26:
 179:.\DSP\Source\TransformFunctions/arm_mfcc_q15.c **** 
 180:.\DSP\Source\TransformFunctions/arm_mfcc_q15.c **** 
 181:.\DSP\Source\TransformFunctions/arm_mfcc_q15.c ****     // q5.26
 182:.\DSP\Source\TransformFunctions/arm_mfcc_q15.c ****    
 183:.\DSP\Source\TransformFunctions/arm_mfcc_q15.c ****     logExponent = fftShift + 2 + SHIFT_MELFILTER_SATURATION_Q15;
 200              		.loc 1 183 0
 201 00e6 09F10C09 		add	r9, r9, #12
 202              	.LVL27:
 184:.\DSP\Source\TransformFunctions/arm_mfcc_q15.c ****     logExponent = logExponent * LOG2TOLOG_Q15;
 185:.\DSP\Source\TransformFunctions/arm_mfcc_q15.c **** 
 186:.\DSP\Source\TransformFunctions/arm_mfcc_q15.c **** 
 187:.\DSP\Source\TransformFunctions/arm_mfcc_q15.c ****     // q8.26
 188:.\DSP\Source\TransformFunctions/arm_mfcc_q15.c ****     arm_offset_q31(pTmp,logExponent,pTmp,S->nbMelFilters);
 203              		.loc 1 188 0
 204 00ea 3846     		mov	r0, r7
 205 00ec 1549     		ldr	r1, .L13
 206 00ee 01FB09F1 		mul	r1, r1, r9
 207              	.LVL28:
 208 00f2 3A46     		mov	r2, r7
 209 00f4 A369     		ldr	r3, [r4, #24]
 210 00f6 FFF7FEFF 		bl	arm_offset_q31
 211              	.LVL29:
 189:.\DSP\Source\TransformFunctions/arm_mfcc_q15.c ****     arm_shift_q31(pTmp,-19,pTmp,S->nbMelFilters);
 212              		.loc 1 189 0
 213 00fa 3846     		mov	r0, r7
 214 00fc 6FF01201 		mvn	r1, #18
 215 0100 3A46     		mov	r2, r7
 216 0102 A369     		ldr	r3, [r4, #24]
 217 0104 FFF7FEFF 		bl	arm_shift_q31
 218              	.LVL30:
 190:.\DSP\Source\TransformFunctions/arm_mfcc_q15.c ****     for(i=0; i<S->nbMelFilters; i++)
 219              		.loc 1 190 0
 220 0108 0023     		movs	r3, #0
 221 010a 06E0     		b	.L8
 222              	.LVL31:
 223              	.L9:
 224              	.LBB11:
 191:.\DSP\Source\TransformFunctions/arm_mfcc_q15.c ****     { 
 192:.\DSP\Source\TransformFunctions/arm_mfcc_q15.c ****       pSrc[i] = __SSAT((q15_t)pTmp[i],16);
 225              		.loc 1 192 0 discriminator 3
 226 010c 37F92320 		ldrsh	r2, [r7, r3, lsl #2]
 227              	.LVL32:
 228              	@ 192 ".\DSP\Source\TransformFunctions\arm_mfcc_q15.c" 1
 229 0110 02F30F02 		ssat r2, #16, r2
 230              	@ 0 "" 2
 231              	.LVL33:
 232              		.thumb
 233              	.LBE11:
 234 0114 28F81320 		strh	r2, [r8, r3, lsl #1]	@ movhi
 235              	.LVL34:
 190:.\DSP\Source\TransformFunctions/arm_mfcc_q15.c ****     for(i=0; i<S->nbMelFilters; i++)
 236              		.loc 1 190 0 discriminator 3
 237 0118 0133     		adds	r3, r3, #1
 238              	.LVL35:
 239              	.L8:
ARM GAS  C:\Users\IVYLIU~1\AppData\Local\Temp\ccLOQKMN.s 			page 16


 190:.\DSP\Source\TransformFunctions/arm_mfcc_q15.c ****     for(i=0; i<S->nbMelFilters; i++)
 240              		.loc 1 190 0 is_stmt 0 discriminator 1
 241 011a A269     		ldr	r2, [r4, #24]
 242 011c 9A42     		cmp	r2, r3
 243 011e F5D8     		bhi	.L9
 193:.\DSP\Source\TransformFunctions/arm_mfcc_q15.c ****     }
 194:.\DSP\Source\TransformFunctions/arm_mfcc_q15.c **** 
 195:.\DSP\Source\TransformFunctions/arm_mfcc_q15.c ****     // q8.7
 196:.\DSP\Source\TransformFunctions/arm_mfcc_q15.c **** 
 197:.\DSP\Source\TransformFunctions/arm_mfcc_q15.c ****     pDctMat.numRows=S->nbDctOutputs;
 244              		.loc 1 197 0 is_stmt 1
 245 0120 E369     		ldr	r3, [r4, #28]
 246              	.LVL36:
 247 0122 ADF81030 		strh	r3, [sp, #16]	@ movhi
 198:.\DSP\Source\TransformFunctions/arm_mfcc_q15.c ****     pDctMat.numCols=S->nbMelFilters;
 248              		.loc 1 198 0
 249 0126 ADF81220 		strh	r2, [sp, #18]	@ movhi
 199:.\DSP\Source\TransformFunctions/arm_mfcc_q15.c ****     pDctMat.pData=(q15_t*)S->dctCoefs;
 250              		.loc 1 199 0
 251 012a 2368     		ldr	r3, [r4]
 252 012c 0593     		str	r3, [sp, #20]
 200:.\DSP\Source\TransformFunctions/arm_mfcc_q15.c **** 
 201:.\DSP\Source\TransformFunctions/arm_mfcc_q15.c ****     arm_mat_vec_mult_q15(&pDctMat, pSrc, pDst);
 253              		.loc 1 201 0
 254 012e 04A8     		add	r0, sp, #16
 255 0130 4146     		mov	r1, r8
 256 0132 5A46     		mov	r2, fp
 257 0134 FFF7FEFF 		bl	arm_mat_vec_mult_q15
 258              	.LVL37:
 259              	.L4:
 202:.\DSP\Source\TransformFunctions/arm_mfcc_q15.c **** 
 203:.\DSP\Source\TransformFunctions/arm_mfcc_q15.c ****     return(status);
 204:.\DSP\Source\TransformFunctions/arm_mfcc_q15.c **** }
 260              		.loc 1 204 0
 261 0138 4FFA8AF0 		sxtb	r0, r10
 262 013c 0BB0     		add	sp, sp, #44
 263              		.cfi_def_cfa_offset 36
 264              		@ sp needed
 265 013e BDE8F08F 		pop	{r4, r5, r6, r7, r8, r9, r10, fp, pc}
 266              	.LVL38:
 267              	.L14:
 268 0142 00BF     		.align	2
 269              	.L13:
 270 0144 60C8C502 		.word	46516320
 271              		.cfi_endproc
 272              	.LFE84:
 273              		.size	arm_mfcc_q15, .-arm_mfcc_q15
 274              		.text
 275              	.Letext0:
 276              		.file 3 "c:\\program files (x86)\\cypress\\psoc creator\\3.3\\psoc creator\\import\\gnu\\arm\\4.9.
 277              		.file 4 "c:\\program files (x86)\\cypress\\psoc creator\\3.3\\psoc creator\\import\\gnu\\arm\\4.9.
 278              		.file 5 ".\\DSP\\Include/arm_math_types.h"
 279              		.file 6 ".\\DSP\\Include/dsp/transform_functions.h"
 280              		.file 7 ".\\DSP\\Include/dsp/matrix_functions.h"
 281              		.file 8 ".\\DSP\\Include/dsp/basic_math_functions.h"
 282              		.file 9 ".\\DSP\\Include/dsp/statistics_functions.h"
 283              		.file 10 ".\\DSP\\Include/dsp/complex_math_functions.h"
ARM GAS  C:\Users\IVYLIU~1\AppData\Local\Temp\ccLOQKMN.s 			page 17


 284              		.file 11 ".\\DSP\\Include/dsp/fast_math_functions.h"