ARM GAS  C:\Users\IVYLIU~1\AppData\Local\Temp\ccvYcFl2.s 			page 1


   1              		.syntax unified
   2              		.cpu cortex-m3
   3              		.fpu softvfp
   4              		.eabi_attribute 20, 1
   5              		.eabi_attribute 21, 1
   6              		.eabi_attribute 23, 3
   7              		.eabi_attribute 24, 1
   8              		.eabi_attribute 25, 1
   9              		.eabi_attribute 26, 1
  10              		.eabi_attribute 30, 1
  11              		.eabi_attribute 34, 1
  12              		.eabi_attribute 18, 4
  13              		.thumb
  14              		.file	"arm_mult_q15.c"
  15              		.text
  16              	.Ltext0:
  17              		.cfi_sections	.debug_frame
  18              		.section	.text.arm_mult_q15,"ax",%progbits
  19              		.align	2
  20              		.global	arm_mult_q15
  21              		.thumb
  22              		.thumb_func
  23              		.type	arm_mult_q15, %function
  24              	arm_mult_q15:
  25              	.LFB83:
  26              		.file 1 ".\\DSP\\Source\\BasicMathFunctions\\arm_mult_q15.c"
   1:.\DSP\Source\BasicMathFunctions/arm_mult_q15.c **** /* ----------------------------------------------------------------------
   2:.\DSP\Source\BasicMathFunctions/arm_mult_q15.c ****  * Project:      CMSIS DSP Library
   3:.\DSP\Source\BasicMathFunctions/arm_mult_q15.c ****  * Title:        arm_mult_q15.c
   4:.\DSP\Source\BasicMathFunctions/arm_mult_q15.c ****  * Description:  Q15 vector multiplication
   5:.\DSP\Source\BasicMathFunctions/arm_mult_q15.c ****  *
   6:.\DSP\Source\BasicMathFunctions/arm_mult_q15.c ****  * $Date:        23 April 2021
   7:.\DSP\Source\BasicMathFunctions/arm_mult_q15.c ****  * $Revision:    V1.9.0
   8:.\DSP\Source\BasicMathFunctions/arm_mult_q15.c ****  *
   9:.\DSP\Source\BasicMathFunctions/arm_mult_q15.c ****  * Target Processor: Cortex-M and Cortex-A cores
  10:.\DSP\Source\BasicMathFunctions/arm_mult_q15.c ****  * -------------------------------------------------------------------- */
  11:.\DSP\Source\BasicMathFunctions/arm_mult_q15.c **** /*
  12:.\DSP\Source\BasicMathFunctions/arm_mult_q15.c ****  * Copyright (C) 2010-2021 ARM Limited or its affiliates. All rights reserved.
  13:.\DSP\Source\BasicMathFunctions/arm_mult_q15.c ****  *
  14:.\DSP\Source\BasicMathFunctions/arm_mult_q15.c ****  * SPDX-License-Identifier: Apache-2.0
  15:.\DSP\Source\BasicMathFunctions/arm_mult_q15.c ****  *
  16:.\DSP\Source\BasicMathFunctions/arm_mult_q15.c ****  * Licensed under the Apache License, Version 2.0 (the License); you may
  17:.\DSP\Source\BasicMathFunctions/arm_mult_q15.c ****  * not use this file except in compliance with the License.
  18:.\DSP\Source\BasicMathFunctions/arm_mult_q15.c ****  * You may obtain a copy of the License at
  19:.\DSP\Source\BasicMathFunctions/arm_mult_q15.c ****  *
  20:.\DSP\Source\BasicMathFunctions/arm_mult_q15.c ****  * www.apache.org/licenses/LICENSE-2.0
  21:.\DSP\Source\BasicMathFunctions/arm_mult_q15.c ****  *
  22:.\DSP\Source\BasicMathFunctions/arm_mult_q15.c ****  * Unless required by applicable law or agreed to in writing, software
  23:.\DSP\Source\BasicMathFunctions/arm_mult_q15.c ****  * distributed under the License is distributed on an AS IS BASIS, WITHOUT
  24:.\DSP\Source\BasicMathFunctions/arm_mult_q15.c ****  * WARRANTIES OR CONDITIONS OF ANY KIND, either express or implied.
  25:.\DSP\Source\BasicMathFunctions/arm_mult_q15.c ****  * See the License for the specific language governing permissions and
  26:.\DSP\Source\BasicMathFunctions/arm_mult_q15.c ****  * limitations under the License.
  27:.\DSP\Source\BasicMathFunctions/arm_mult_q15.c ****  */
  28:.\DSP\Source\BasicMathFunctions/arm_mult_q15.c **** 
  29:.\DSP\Source\BasicMathFunctions/arm_mult_q15.c **** #include "dsp/basic_math_functions.h"
  30:.\DSP\Source\BasicMathFunctions/arm_mult_q15.c **** 
  31:.\DSP\Source\BasicMathFunctions/arm_mult_q15.c **** /**
ARM GAS  C:\Users\IVYLIU~1\AppData\Local\Temp\ccvYcFl2.s 			page 2


  32:.\DSP\Source\BasicMathFunctions/arm_mult_q15.c ****   @ingroup groupMath
  33:.\DSP\Source\BasicMathFunctions/arm_mult_q15.c ****  */
  34:.\DSP\Source\BasicMathFunctions/arm_mult_q15.c **** 
  35:.\DSP\Source\BasicMathFunctions/arm_mult_q15.c **** /**
  36:.\DSP\Source\BasicMathFunctions/arm_mult_q15.c ****   @addtogroup BasicMult
  37:.\DSP\Source\BasicMathFunctions/arm_mult_q15.c ****   @{
  38:.\DSP\Source\BasicMathFunctions/arm_mult_q15.c ****  */
  39:.\DSP\Source\BasicMathFunctions/arm_mult_q15.c **** 
  40:.\DSP\Source\BasicMathFunctions/arm_mult_q15.c **** /**
  41:.\DSP\Source\BasicMathFunctions/arm_mult_q15.c ****   @brief         Q15 vector multiplication
  42:.\DSP\Source\BasicMathFunctions/arm_mult_q15.c ****   @param[in]     pSrcA      points to first input vector
  43:.\DSP\Source\BasicMathFunctions/arm_mult_q15.c ****   @param[in]     pSrcB      points to second input vector
  44:.\DSP\Source\BasicMathFunctions/arm_mult_q15.c ****   @param[out]    pDst       points to output vector
  45:.\DSP\Source\BasicMathFunctions/arm_mult_q15.c ****   @param[in]     blockSize  number of samples in each vector
  46:.\DSP\Source\BasicMathFunctions/arm_mult_q15.c ****   @return        none
  47:.\DSP\Source\BasicMathFunctions/arm_mult_q15.c **** 
  48:.\DSP\Source\BasicMathFunctions/arm_mult_q15.c ****   @par           Scaling and Overflow Behavior
  49:.\DSP\Source\BasicMathFunctions/arm_mult_q15.c ****                    The function uses saturating arithmetic.
  50:.\DSP\Source\BasicMathFunctions/arm_mult_q15.c ****                    Results outside of the allowable Q15 range [0x8000 0x7FFF] are saturated.
  51:.\DSP\Source\BasicMathFunctions/arm_mult_q15.c ****  */
  52:.\DSP\Source\BasicMathFunctions/arm_mult_q15.c **** #if defined(ARM_MATH_MVEI) && !defined(ARM_MATH_AUTOVECTORIZE)
  53:.\DSP\Source\BasicMathFunctions/arm_mult_q15.c **** 
  54:.\DSP\Source\BasicMathFunctions/arm_mult_q15.c **** #include "arm_helium_utils.h"
  55:.\DSP\Source\BasicMathFunctions/arm_mult_q15.c **** 
  56:.\DSP\Source\BasicMathFunctions/arm_mult_q15.c **** void arm_mult_q15(
  57:.\DSP\Source\BasicMathFunctions/arm_mult_q15.c ****     const q15_t * pSrcA,
  58:.\DSP\Source\BasicMathFunctions/arm_mult_q15.c ****     const q15_t * pSrcB,
  59:.\DSP\Source\BasicMathFunctions/arm_mult_q15.c ****     q15_t * pDst,
  60:.\DSP\Source\BasicMathFunctions/arm_mult_q15.c ****     uint32_t blockSize)
  61:.\DSP\Source\BasicMathFunctions/arm_mult_q15.c **** {
  62:.\DSP\Source\BasicMathFunctions/arm_mult_q15.c ****     uint32_t  blkCnt;           /* loop counters */
  63:.\DSP\Source\BasicMathFunctions/arm_mult_q15.c ****     q15x8_t vecA, vecB;
  64:.\DSP\Source\BasicMathFunctions/arm_mult_q15.c **** 
  65:.\DSP\Source\BasicMathFunctions/arm_mult_q15.c ****     /* Compute 8 outputs at a time */
  66:.\DSP\Source\BasicMathFunctions/arm_mult_q15.c ****     blkCnt = blockSize >> 3;
  67:.\DSP\Source\BasicMathFunctions/arm_mult_q15.c ****     while (blkCnt > 0U)
  68:.\DSP\Source\BasicMathFunctions/arm_mult_q15.c ****     {
  69:.\DSP\Source\BasicMathFunctions/arm_mult_q15.c ****         /*
  70:.\DSP\Source\BasicMathFunctions/arm_mult_q15.c ****          * C = A * B
  71:.\DSP\Source\BasicMathFunctions/arm_mult_q15.c ****          * Multiply the inputs and then store the results in the destination buffer.
  72:.\DSP\Source\BasicMathFunctions/arm_mult_q15.c ****          */
  73:.\DSP\Source\BasicMathFunctions/arm_mult_q15.c ****         vecA = vld1q(pSrcA);
  74:.\DSP\Source\BasicMathFunctions/arm_mult_q15.c ****         vecB = vld1q(pSrcB);
  75:.\DSP\Source\BasicMathFunctions/arm_mult_q15.c ****         vst1q(pDst, vqdmulhq(vecA, vecB));
  76:.\DSP\Source\BasicMathFunctions/arm_mult_q15.c ****         /*
  77:.\DSP\Source\BasicMathFunctions/arm_mult_q15.c ****          * Decrement the blockSize loop counter
  78:.\DSP\Source\BasicMathFunctions/arm_mult_q15.c ****          */
  79:.\DSP\Source\BasicMathFunctions/arm_mult_q15.c ****         blkCnt--;
  80:.\DSP\Source\BasicMathFunctions/arm_mult_q15.c ****         /*
  81:.\DSP\Source\BasicMathFunctions/arm_mult_q15.c ****          * advance vector source and destination pointers
  82:.\DSP\Source\BasicMathFunctions/arm_mult_q15.c ****          */
  83:.\DSP\Source\BasicMathFunctions/arm_mult_q15.c ****         pSrcA  += 8;
  84:.\DSP\Source\BasicMathFunctions/arm_mult_q15.c ****         pSrcB  += 8;
  85:.\DSP\Source\BasicMathFunctions/arm_mult_q15.c ****         pDst   += 8;
  86:.\DSP\Source\BasicMathFunctions/arm_mult_q15.c ****     }
  87:.\DSP\Source\BasicMathFunctions/arm_mult_q15.c ****     /*
  88:.\DSP\Source\BasicMathFunctions/arm_mult_q15.c ****      * tail
ARM GAS  C:\Users\IVYLIU~1\AppData\Local\Temp\ccvYcFl2.s 			page 3


  89:.\DSP\Source\BasicMathFunctions/arm_mult_q15.c ****      */
  90:.\DSP\Source\BasicMathFunctions/arm_mult_q15.c ****     blkCnt = blockSize & 7;
  91:.\DSP\Source\BasicMathFunctions/arm_mult_q15.c ****     if (blkCnt > 0U)
  92:.\DSP\Source\BasicMathFunctions/arm_mult_q15.c ****     {
  93:.\DSP\Source\BasicMathFunctions/arm_mult_q15.c ****         mve_pred16_t p0 = vctp16q(blkCnt);
  94:.\DSP\Source\BasicMathFunctions/arm_mult_q15.c ****         vecA = vld1q(pSrcA);
  95:.\DSP\Source\BasicMathFunctions/arm_mult_q15.c ****         vecB = vld1q(pSrcB);
  96:.\DSP\Source\BasicMathFunctions/arm_mult_q15.c ****         vstrhq_p(pDst, vqdmulhq(vecA, vecB), p0);
  97:.\DSP\Source\BasicMathFunctions/arm_mult_q15.c ****     }
  98:.\DSP\Source\BasicMathFunctions/arm_mult_q15.c **** }
  99:.\DSP\Source\BasicMathFunctions/arm_mult_q15.c **** 
 100:.\DSP\Source\BasicMathFunctions/arm_mult_q15.c **** #else
 101:.\DSP\Source\BasicMathFunctions/arm_mult_q15.c **** void arm_mult_q15(
 102:.\DSP\Source\BasicMathFunctions/arm_mult_q15.c ****   const q15_t * pSrcA,
 103:.\DSP\Source\BasicMathFunctions/arm_mult_q15.c ****   const q15_t * pSrcB,
 104:.\DSP\Source\BasicMathFunctions/arm_mult_q15.c ****         q15_t * pDst,
 105:.\DSP\Source\BasicMathFunctions/arm_mult_q15.c ****         uint32_t blockSize)
 106:.\DSP\Source\BasicMathFunctions/arm_mult_q15.c **** {
  27              		.loc 1 106 0
  28              		.cfi_startproc
  29              		@ args = 0, pretend = 0, frame = 0
  30              		@ frame_needed = 0, uses_anonymous_args = 0
  31              		@ link register save eliminated.
  32              	.LVL0:
  33 0000 E0B4     		push	{r5, r6, r7}
  34              		.cfi_def_cfa_offset 12
  35              		.cfi_offset 5, -12
  36              		.cfi_offset 6, -8
  37              		.cfi_offset 7, -4
  38              	.LVL1:
 107:.\DSP\Source\BasicMathFunctions/arm_mult_q15.c ****         uint32_t blkCnt;                               /* Loop counter */
 108:.\DSP\Source\BasicMathFunctions/arm_mult_q15.c **** 
 109:.\DSP\Source\BasicMathFunctions/arm_mult_q15.c **** #if defined (ARM_MATH_LOOPUNROLL)
 110:.\DSP\Source\BasicMathFunctions/arm_mult_q15.c **** 
 111:.\DSP\Source\BasicMathFunctions/arm_mult_q15.c **** #if defined (ARM_MATH_DSP)
 112:.\DSP\Source\BasicMathFunctions/arm_mult_q15.c ****   q31_t inA1, inA2, inB1, inB2;                  /* Temporary input variables */
 113:.\DSP\Source\BasicMathFunctions/arm_mult_q15.c ****   q15_t out1, out2, out3, out4;                  /* Temporary output variables */
 114:.\DSP\Source\BasicMathFunctions/arm_mult_q15.c ****   q31_t mul1, mul2, mul3, mul4;                  /* Temporary variables */
 115:.\DSP\Source\BasicMathFunctions/arm_mult_q15.c **** #endif
 116:.\DSP\Source\BasicMathFunctions/arm_mult_q15.c **** 
 117:.\DSP\Source\BasicMathFunctions/arm_mult_q15.c ****   /* Loop unrolling: Compute 4 outputs at a time */
 118:.\DSP\Source\BasicMathFunctions/arm_mult_q15.c ****   blkCnt = blockSize >> 2U;
 119:.\DSP\Source\BasicMathFunctions/arm_mult_q15.c **** 
 120:.\DSP\Source\BasicMathFunctions/arm_mult_q15.c ****   while (blkCnt > 0U)
 121:.\DSP\Source\BasicMathFunctions/arm_mult_q15.c ****   {
 122:.\DSP\Source\BasicMathFunctions/arm_mult_q15.c ****     /* C = A * B */
 123:.\DSP\Source\BasicMathFunctions/arm_mult_q15.c **** 
 124:.\DSP\Source\BasicMathFunctions/arm_mult_q15.c **** #if defined (ARM_MATH_DSP)
 125:.\DSP\Source\BasicMathFunctions/arm_mult_q15.c ****     /* read 2 samples at a time from sourceA */
 126:.\DSP\Source\BasicMathFunctions/arm_mult_q15.c ****     inA1 = read_q15x2_ia (&pSrcA);
 127:.\DSP\Source\BasicMathFunctions/arm_mult_q15.c ****     /* read 2 samples at a time from sourceB */
 128:.\DSP\Source\BasicMathFunctions/arm_mult_q15.c ****     inB1 = read_q15x2_ia (&pSrcB);
 129:.\DSP\Source\BasicMathFunctions/arm_mult_q15.c ****     /* read 2 samples at a time from sourceA */
 130:.\DSP\Source\BasicMathFunctions/arm_mult_q15.c ****     inA2 = read_q15x2_ia (&pSrcA);
 131:.\DSP\Source\BasicMathFunctions/arm_mult_q15.c ****     /* read 2 samples at a time from sourceB */
 132:.\DSP\Source\BasicMathFunctions/arm_mult_q15.c ****     inB2 = read_q15x2_ia (&pSrcB);
 133:.\DSP\Source\BasicMathFunctions/arm_mult_q15.c **** 
ARM GAS  C:\Users\IVYLIU~1\AppData\Local\Temp\ccvYcFl2.s 			page 4


 134:.\DSP\Source\BasicMathFunctions/arm_mult_q15.c ****     /* multiply mul = sourceA * sourceB */
 135:.\DSP\Source\BasicMathFunctions/arm_mult_q15.c ****     mul1 = (q31_t) ((q15_t) (inA1 >> 16) * (q15_t) (inB1 >> 16));
 136:.\DSP\Source\BasicMathFunctions/arm_mult_q15.c ****     mul2 = (q31_t) ((q15_t) (inA1      ) * (q15_t) (inB1      ));
 137:.\DSP\Source\BasicMathFunctions/arm_mult_q15.c ****     mul3 = (q31_t) ((q15_t) (inA2 >> 16) * (q15_t) (inB2 >> 16));
 138:.\DSP\Source\BasicMathFunctions/arm_mult_q15.c ****     mul4 = (q31_t) ((q15_t) (inA2      ) * (q15_t) (inB2      ));
 139:.\DSP\Source\BasicMathFunctions/arm_mult_q15.c **** 
 140:.\DSP\Source\BasicMathFunctions/arm_mult_q15.c ****     /* saturate result to 16 bit */
 141:.\DSP\Source\BasicMathFunctions/arm_mult_q15.c ****     out1 = (q15_t) __SSAT(mul1 >> 15, 16);
 142:.\DSP\Source\BasicMathFunctions/arm_mult_q15.c ****     out2 = (q15_t) __SSAT(mul2 >> 15, 16);
 143:.\DSP\Source\BasicMathFunctions/arm_mult_q15.c ****     out3 = (q15_t) __SSAT(mul3 >> 15, 16);
 144:.\DSP\Source\BasicMathFunctions/arm_mult_q15.c ****     out4 = (q15_t) __SSAT(mul4 >> 15, 16);
 145:.\DSP\Source\BasicMathFunctions/arm_mult_q15.c **** 
 146:.\DSP\Source\BasicMathFunctions/arm_mult_q15.c ****     /* store result to destination */
 147:.\DSP\Source\BasicMathFunctions/arm_mult_q15.c **** #ifndef ARM_MATH_BIG_ENDIAN
 148:.\DSP\Source\BasicMathFunctions/arm_mult_q15.c ****     write_q15x2_ia (&pDst, __PKHBT(out2, out1, 16));
 149:.\DSP\Source\BasicMathFunctions/arm_mult_q15.c ****     write_q15x2_ia (&pDst, __PKHBT(out4, out3, 16));
 150:.\DSP\Source\BasicMathFunctions/arm_mult_q15.c **** #else
 151:.\DSP\Source\BasicMathFunctions/arm_mult_q15.c ****     write_q15x2_ia (&pDst, __PKHBT(out1, out2, 16));
 152:.\DSP\Source\BasicMathFunctions/arm_mult_q15.c ****     write_q15x2_ia (&pDst, __PKHBT(out3, out4, 16));
 153:.\DSP\Source\BasicMathFunctions/arm_mult_q15.c **** #endif /* #ifndef ARM_MATH_BIG_ENDIAN */
 154:.\DSP\Source\BasicMathFunctions/arm_mult_q15.c **** 
 155:.\DSP\Source\BasicMathFunctions/arm_mult_q15.c **** #else
 156:.\DSP\Source\BasicMathFunctions/arm_mult_q15.c ****     *pDst++ = (q15_t) __SSAT((((q31_t) (*pSrcA++) * (*pSrcB++)) >> 15), 16);
 157:.\DSP\Source\BasicMathFunctions/arm_mult_q15.c ****     *pDst++ = (q15_t) __SSAT((((q31_t) (*pSrcA++) * (*pSrcB++)) >> 15), 16);
 158:.\DSP\Source\BasicMathFunctions/arm_mult_q15.c ****     *pDst++ = (q15_t) __SSAT((((q31_t) (*pSrcA++) * (*pSrcB++)) >> 15), 16);
 159:.\DSP\Source\BasicMathFunctions/arm_mult_q15.c ****     *pDst++ = (q15_t) __SSAT((((q31_t) (*pSrcA++) * (*pSrcB++)) >> 15), 16);
 160:.\DSP\Source\BasicMathFunctions/arm_mult_q15.c **** #endif
 161:.\DSP\Source\BasicMathFunctions/arm_mult_q15.c **** 
 162:.\DSP\Source\BasicMathFunctions/arm_mult_q15.c ****     /* Decrement loop counter */
 163:.\DSP\Source\BasicMathFunctions/arm_mult_q15.c ****     blkCnt--;
 164:.\DSP\Source\BasicMathFunctions/arm_mult_q15.c ****   }
 165:.\DSP\Source\BasicMathFunctions/arm_mult_q15.c **** 
 166:.\DSP\Source\BasicMathFunctions/arm_mult_q15.c ****   /* Loop unrolling: Compute remaining outputs */
 167:.\DSP\Source\BasicMathFunctions/arm_mult_q15.c ****   blkCnt = blockSize % 0x4U;
 168:.\DSP\Source\BasicMathFunctions/arm_mult_q15.c **** 
 169:.\DSP\Source\BasicMathFunctions/arm_mult_q15.c **** #else
 170:.\DSP\Source\BasicMathFunctions/arm_mult_q15.c **** 
 171:.\DSP\Source\BasicMathFunctions/arm_mult_q15.c ****   /* Initialize blkCnt with number of samples */
 172:.\DSP\Source\BasicMathFunctions/arm_mult_q15.c ****   blkCnt = blockSize;
 173:.\DSP\Source\BasicMathFunctions/arm_mult_q15.c **** 
 174:.\DSP\Source\BasicMathFunctions/arm_mult_q15.c **** #endif /* #if defined (ARM_MATH_LOOPUNROLL) */
 175:.\DSP\Source\BasicMathFunctions/arm_mult_q15.c **** 
 176:.\DSP\Source\BasicMathFunctions/arm_mult_q15.c ****   while (blkCnt > 0U)
  39              		.loc 1 176 0
  40 0002 10E0     		b	.L2
  41              	.LVL2:
  42              	.L3:
 177:.\DSP\Source\BasicMathFunctions/arm_mult_q15.c ****   {
 178:.\DSP\Source\BasicMathFunctions/arm_mult_q15.c ****     /* C = A * B */
 179:.\DSP\Source\BasicMathFunctions/arm_mult_q15.c **** 
 180:.\DSP\Source\BasicMathFunctions/arm_mult_q15.c ****     /* Multiply inputs and store result in destination buffer. */
 181:.\DSP\Source\BasicMathFunctions/arm_mult_q15.c ****     *pDst++ = (q15_t) __SSAT((((q31_t) (*pSrcA++) * (*pSrcB++)) >> 15), 16);
  43              		.loc 1 181 0
  44 0004 961C     		adds	r6, r2, #2
  45              	.LVL3:
  46              	.LBB2:
  47 0006 851C     		adds	r5, r0, #2
ARM GAS  C:\Users\IVYLIU~1\AppData\Local\Temp\ccvYcFl2.s 			page 5


  48              	.LVL4:
  49 0008 B0F90070 		ldrsh	r7, [r0]
  50 000c 881C     		adds	r0, r1, #2
  51              	.LVL5:
  52 000e B1F90010 		ldrsh	r1, [r1]
  53 0012 01FB07F1 		mul	r1, r1, r7
  54 0016 C913     		asrs	r1, r1, #15
  55              	.LVL6:
  56              	@ 181 ".\DSP\Source\BasicMathFunctions\arm_mult_q15.c" 1
  57 0018 01F30F01 		ssat r1, #16, r1
  58              	@ 0 "" 2
  59              	.LVL7:
  60              		.thumb
  61              	.LBE2:
  62 001c 1180     		strh	r1, [r2]	@ movhi
  63              	.LVL8:
 182:.\DSP\Source\BasicMathFunctions/arm_mult_q15.c **** 
 183:.\DSP\Source\BasicMathFunctions/arm_mult_q15.c ****     /* Decrement loop counter */
 184:.\DSP\Source\BasicMathFunctions/arm_mult_q15.c ****     blkCnt--;
  64              		.loc 1 184 0
  65 001e 013B     		subs	r3, r3, #1
  66              	.LVL9:
 181:.\DSP\Source\BasicMathFunctions/arm_mult_q15.c **** 
  67              		.loc 1 181 0
  68 0020 3246     		mov	r2, r6
  69              	.LBB3:
  70 0022 0146     		mov	r1, r0
  71              	.LVL10:
  72 0024 2846     		mov	r0, r5
  73              	.LVL11:
  74              	.L2:
  75              	.LBE3:
 176:.\DSP\Source\BasicMathFunctions/arm_mult_q15.c ****   {
  76              		.loc 1 176 0
  77 0026 002B     		cmp	r3, #0
  78 0028 ECD1     		bne	.L3
 185:.\DSP\Source\BasicMathFunctions/arm_mult_q15.c ****   }
 186:.\DSP\Source\BasicMathFunctions/arm_mult_q15.c **** 
 187:.\DSP\Source\BasicMathFunctions/arm_mult_q15.c **** }
  79              		.loc 1 187 0
  80 002a E0BC     		pop	{r5, r6, r7}
  81              		.cfi_restore 7
  82              		.cfi_restore 6
  83              		.cfi_restore 5
  84              		.cfi_def_cfa_offset 0
  85 002c 7047     		bx	lr
  86              		.cfi_endproc
  87              	.LFE83:
  88              		.size	arm_mult_q15, .-arm_mult_q15
  89 002e 00BF     		.text
  90              	.Letext0:
  91              		.file 2 "c:\\program files (x86)\\cypress\\psoc creator\\3.3\\psoc creator\\import\\gnu\\arm\\4.9.
  92              		.file 3 "c:\\program files (x86)\\cypress\\psoc creator\\3.3\\psoc creator\\import\\gnu\\arm\\4.9.
  93              		.file 4 ".\\DSP\\Include/arm_math_types.h"
  94              		.file 5 ".\\Core\\Include/cmsis_gcc.h"