ARM GAS  C:\Users\IVYLIU~1\AppData\Local\Temp\cckUKuqd.s 			page 1


   1              		.syntax unified
   2              		.cpu cortex-m3
   3              		.fpu softvfp
   4              		.eabi_attribute 20, 1
   5              		.eabi_attribute 21, 1
   6              		.eabi_attribute 23, 3
   7              		.eabi_attribute 24, 1
   8              		.eabi_attribute 25, 1
   9              		.eabi_attribute 26, 1
  10              		.eabi_attribute 30, 1
  11              		.eabi_attribute 34, 1
  12              		.eabi_attribute 18, 4
  13              		.thumb
  14              		.file	"arm_dct4_init_f32.c"
  15              		.text
  16              	.Ltext0:
  17              		.cfi_sections	.debug_frame
  18              		.section	.text.arm_dct4_init_f32,"ax",%progbits
  19              		.align	2
  20              		.global	arm_dct4_init_f32
  21              		.thumb
  22              		.thumb_func
  23              		.type	arm_dct4_init_f32, %function
  24              	arm_dct4_init_f32:
  25              	.LFB84:
  26              		.file 1 ".\\DSP\\Source\\TransformFunctions\\arm_dct4_init_f32.c"
   1:.\DSP\Source\TransformFunctions/arm_dct4_init_f32.c **** /* ----------------------------------------------------------------------
   2:.\DSP\Source\TransformFunctions/arm_dct4_init_f32.c ****  * Project:      CMSIS DSP Library
   3:.\DSP\Source\TransformFunctions/arm_dct4_init_f32.c ****  * Title:        arm_dct4_init_f32.c
   4:.\DSP\Source\TransformFunctions/arm_dct4_init_f32.c ****  * Description:  Initialization function of DCT-4 & IDCT4 F32
   5:.\DSP\Source\TransformFunctions/arm_dct4_init_f32.c ****  *
   6:.\DSP\Source\TransformFunctions/arm_dct4_init_f32.c ****  * $Date:        23 April 2021
   7:.\DSP\Source\TransformFunctions/arm_dct4_init_f32.c ****  * $Revision:    V1.9.0
   8:.\DSP\Source\TransformFunctions/arm_dct4_init_f32.c ****  *
   9:.\DSP\Source\TransformFunctions/arm_dct4_init_f32.c ****  * Target Processor: Cortex-M and Cortex-A cores
  10:.\DSP\Source\TransformFunctions/arm_dct4_init_f32.c ****  * -------------------------------------------------------------------- */
  11:.\DSP\Source\TransformFunctions/arm_dct4_init_f32.c **** /*
  12:.\DSP\Source\TransformFunctions/arm_dct4_init_f32.c ****  * Copyright (C) 2010-2021 ARM Limited or its affiliates. All rights reserved.
  13:.\DSP\Source\TransformFunctions/arm_dct4_init_f32.c ****  *
  14:.\DSP\Source\TransformFunctions/arm_dct4_init_f32.c ****  * SPDX-License-Identifier: Apache-2.0
  15:.\DSP\Source\TransformFunctions/arm_dct4_init_f32.c ****  *
  16:.\DSP\Source\TransformFunctions/arm_dct4_init_f32.c ****  * Licensed under the Apache License, Version 2.0 (the License); you may
  17:.\DSP\Source\TransformFunctions/arm_dct4_init_f32.c ****  * not use this file except in compliance with the License.
  18:.\DSP\Source\TransformFunctions/arm_dct4_init_f32.c ****  * You may obtain a copy of the License at
  19:.\DSP\Source\TransformFunctions/arm_dct4_init_f32.c ****  *
  20:.\DSP\Source\TransformFunctions/arm_dct4_init_f32.c ****  * www.apache.org/licenses/LICENSE-2.0
  21:.\DSP\Source\TransformFunctions/arm_dct4_init_f32.c ****  *
  22:.\DSP\Source\TransformFunctions/arm_dct4_init_f32.c ****  * Unless required by applicable law or agreed to in writing, software
  23:.\DSP\Source\TransformFunctions/arm_dct4_init_f32.c ****  * distributed under the License is distributed on an AS IS BASIS, WITHOUT
  24:.\DSP\Source\TransformFunctions/arm_dct4_init_f32.c ****  * WARRANTIES OR CONDITIONS OF ANY KIND, either express or implied.
  25:.\DSP\Source\TransformFunctions/arm_dct4_init_f32.c ****  * See the License for the specific language governing permissions and
  26:.\DSP\Source\TransformFunctions/arm_dct4_init_f32.c ****  * limitations under the License.
  27:.\DSP\Source\TransformFunctions/arm_dct4_init_f32.c ****  */
  28:.\DSP\Source\TransformFunctions/arm_dct4_init_f32.c **** 
  29:.\DSP\Source\TransformFunctions/arm_dct4_init_f32.c **** #include "dsp/transform_functions.h"
  30:.\DSP\Source\TransformFunctions/arm_dct4_init_f32.c **** #include "arm_common_tables.h"
  31:.\DSP\Source\TransformFunctions/arm_dct4_init_f32.c **** 
ARM GAS  C:\Users\IVYLIU~1\AppData\Local\Temp\cckUKuqd.s 			page 2


  32:.\DSP\Source\TransformFunctions/arm_dct4_init_f32.c **** /**
  33:.\DSP\Source\TransformFunctions/arm_dct4_init_f32.c ****   @ingroup groupTransforms
  34:.\DSP\Source\TransformFunctions/arm_dct4_init_f32.c ****  */
  35:.\DSP\Source\TransformFunctions/arm_dct4_init_f32.c **** 
  36:.\DSP\Source\TransformFunctions/arm_dct4_init_f32.c ****  /**
  37:.\DSP\Source\TransformFunctions/arm_dct4_init_f32.c ****   @addtogroup DCT4_IDCT4
  38:.\DSP\Source\TransformFunctions/arm_dct4_init_f32.c ****   @{
  39:.\DSP\Source\TransformFunctions/arm_dct4_init_f32.c ****  */
  40:.\DSP\Source\TransformFunctions/arm_dct4_init_f32.c **** 
  41:.\DSP\Source\TransformFunctions/arm_dct4_init_f32.c **** /**
  42:.\DSP\Source\TransformFunctions/arm_dct4_init_f32.c ****   @brief         Initialization function for the floating-point DCT4/IDCT4.
  43:.\DSP\Source\TransformFunctions/arm_dct4_init_f32.c ****   @param[in,out] S          points to an instance of floating-point DCT4/IDCT4 structure
  44:.\DSP\Source\TransformFunctions/arm_dct4_init_f32.c ****   @param[in]     S_RFFT     points to an instance of floating-point RFFT/RIFFT structure
  45:.\DSP\Source\TransformFunctions/arm_dct4_init_f32.c ****   @param[in]     S_CFFT     points to an instance of floating-point CFFT/CIFFT structure
  46:.\DSP\Source\TransformFunctions/arm_dct4_init_f32.c ****   @param[in]     N			length of the DCT4
  47:.\DSP\Source\TransformFunctions/arm_dct4_init_f32.c ****   @param[in]     Nby2       half of the length of the DCT4
  48:.\DSP\Source\TransformFunctions/arm_dct4_init_f32.c ****   @param[in]     normalize  normalizing factor.
  49:.\DSP\Source\TransformFunctions/arm_dct4_init_f32.c ****   @return        execution status
  50:.\DSP\Source\TransformFunctions/arm_dct4_init_f32.c ****                    - \ref ARM_MATH_SUCCESS        : Operation successful
  51:.\DSP\Source\TransformFunctions/arm_dct4_init_f32.c ****                    - \ref ARM_MATH_ARGUMENT_ERROR : <code>N</code> is not a supported transform len
  52:.\DSP\Source\TransformFunctions/arm_dct4_init_f32.c **** 
  53:.\DSP\Source\TransformFunctions/arm_dct4_init_f32.c ****   @par           Normalizing factor
  54:.\DSP\Source\TransformFunctions/arm_dct4_init_f32.c ****                    The normalizing factor is <code>sqrt(2/N)</code>, which depends on the size of t
  55:.\DSP\Source\TransformFunctions/arm_dct4_init_f32.c ****                    Floating-point normalizing factors are mentioned in the table below for differen
  56:.\DSP\Source\TransformFunctions/arm_dct4_init_f32.c **** 
  57:.\DSP\Source\TransformFunctions/arm_dct4_init_f32.c ****                    \image html dct4NormalizingF32Table.gif
  58:.\DSP\Source\TransformFunctions/arm_dct4_init_f32.c ****  */
  59:.\DSP\Source\TransformFunctions/arm_dct4_init_f32.c **** 
  60:.\DSP\Source\TransformFunctions/arm_dct4_init_f32.c **** arm_status arm_dct4_init_f32(
  61:.\DSP\Source\TransformFunctions/arm_dct4_init_f32.c ****   arm_dct4_instance_f32 * S,
  62:.\DSP\Source\TransformFunctions/arm_dct4_init_f32.c ****   arm_rfft_instance_f32 * S_RFFT,
  63:.\DSP\Source\TransformFunctions/arm_dct4_init_f32.c ****   arm_cfft_radix4_instance_f32 * S_CFFT,
  64:.\DSP\Source\TransformFunctions/arm_dct4_init_f32.c ****   uint16_t N,
  65:.\DSP\Source\TransformFunctions/arm_dct4_init_f32.c ****   uint16_t Nby2,
  66:.\DSP\Source\TransformFunctions/arm_dct4_init_f32.c ****   float32_t normalize)
  67:.\DSP\Source\TransformFunctions/arm_dct4_init_f32.c **** {
  27              		.loc 1 67 0
  28              		.cfi_startproc
  29              		@ args = 8, pretend = 0, frame = 0
  30              		@ frame_needed = 0, uses_anonymous_args = 0
  31              	.LVL0:
  32 0000 10B5     		push	{r4, lr}
  33              		.cfi_def_cfa_offset 8
  34              		.cfi_offset 4, -8
  35              		.cfi_offset 14, -4
  36 0002 82B0     		sub	sp, sp, #8
  37              		.cfi_def_cfa_offset 16
  38              	.LVL1:
  68:.\DSP\Source\TransformFunctions/arm_dct4_init_f32.c ****   /* Initialize the default arm status */
  69:.\DSP\Source\TransformFunctions/arm_dct4_init_f32.c ****   arm_status status = ARM_MATH_SUCCESS;
  70:.\DSP\Source\TransformFunctions/arm_dct4_init_f32.c **** 
  71:.\DSP\Source\TransformFunctions/arm_dct4_init_f32.c **** 
  72:.\DSP\Source\TransformFunctions/arm_dct4_init_f32.c ****   /* Initialize the DCT4 length */
  73:.\DSP\Source\TransformFunctions/arm_dct4_init_f32.c ****   S->N = N;
  39              		.loc 1 73 0
  40 0004 0380     		strh	r3, [r0]	@ movhi
  74:.\DSP\Source\TransformFunctions/arm_dct4_init_f32.c **** 
ARM GAS  C:\Users\IVYLIU~1\AppData\Local\Temp\cckUKuqd.s 			page 3


  75:.\DSP\Source\TransformFunctions/arm_dct4_init_f32.c ****   /* Initialize the half of DCT4 length */
  76:.\DSP\Source\TransformFunctions/arm_dct4_init_f32.c ****   S->Nby2 = Nby2;
  41              		.loc 1 76 0
  42 0006 BDF81040 		ldrh	r4, [sp, #16]
  43 000a 4480     		strh	r4, [r0, #2]	@ movhi
  77:.\DSP\Source\TransformFunctions/arm_dct4_init_f32.c **** 
  78:.\DSP\Source\TransformFunctions/arm_dct4_init_f32.c ****   /* Initialize the DCT4 Normalizing factor */
  79:.\DSP\Source\TransformFunctions/arm_dct4_init_f32.c ****   S->normalize = normalize;
  44              		.loc 1 79 0
  45 000c 059C     		ldr	r4, [sp, #20]	@ float
  46 000e 4460     		str	r4, [r0, #4]	@ float
  80:.\DSP\Source\TransformFunctions/arm_dct4_init_f32.c **** 
  81:.\DSP\Source\TransformFunctions/arm_dct4_init_f32.c ****   /* Initialize Real FFT Instance */
  82:.\DSP\Source\TransformFunctions/arm_dct4_init_f32.c ****   S->pRfft = S_RFFT;
  47              		.loc 1 82 0
  48 0010 0161     		str	r1, [r0, #16]
  83:.\DSP\Source\TransformFunctions/arm_dct4_init_f32.c **** 
  84:.\DSP\Source\TransformFunctions/arm_dct4_init_f32.c ****   /* Initialize Complex FFT Instance */
  85:.\DSP\Source\TransformFunctions/arm_dct4_init_f32.c ****   S->pCfft = S_CFFT;
  49              		.loc 1 85 0
  50 0012 4261     		str	r2, [r0, #20]
  86:.\DSP\Source\TransformFunctions/arm_dct4_init_f32.c **** 
  87:.\DSP\Source\TransformFunctions/arm_dct4_init_f32.c ****   switch (N)
  51              		.loc 1 87 0
  52 0014 B3F5007F 		cmp	r3, #512
  53 0018 15D0     		beq	.L3
  54 001a 02D8     		bhi	.L4
  55 001c 802B     		cmp	r3, #128
  56 001e 18D0     		beq	.L5
  57 0020 1DE0     		b	.L8
  58              	.L4:
  59 0022 B3F5006F 		cmp	r3, #2048
  60 0026 08D0     		beq	.L6
  61 0028 B3F5005F 		cmp	r3, #8192
  62 002c 17D1     		bne	.L8
  88:.\DSP\Source\TransformFunctions/arm_dct4_init_f32.c ****   {
  89:.\DSP\Source\TransformFunctions/arm_dct4_init_f32.c ****   #if !defined(ARM_DSP_CONFIG_TABLES) || defined(ARM_ALL_FFT_TABLES) || defined(ARM_TABLE_DCT4_F32_
  90:.\DSP\Source\TransformFunctions/arm_dct4_init_f32.c ****     /* Initialize the table modifier values */
  91:.\DSP\Source\TransformFunctions/arm_dct4_init_f32.c ****   case 8192U:
  92:.\DSP\Source\TransformFunctions/arm_dct4_init_f32.c ****     S->pTwiddle = Weights_8192;
  63              		.loc 1 92 0
  64 002e 124C     		ldr	r4, .L10
  65 0030 8460     		str	r4, [r0, #8]
  93:.\DSP\Source\TransformFunctions/arm_dct4_init_f32.c ****     S->pCosFactor = cos_factors_8192;
  66              		.loc 1 93 0
  67 0032 124C     		ldr	r4, .L10+4
  68 0034 C460     		str	r4, [r0, #12]
  69:.\DSP\Source\TransformFunctions/arm_dct4_init_f32.c **** 
  69              		.loc 1 69 0
  70 0036 0024     		movs	r4, #0
  94:.\DSP\Source\TransformFunctions/arm_dct4_init_f32.c ****     break;
  71              		.loc 1 94 0
  72 0038 12E0     		b	.L2
  73              	.L6:
  95:.\DSP\Source\TransformFunctions/arm_dct4_init_f32.c ****   #endif
  96:.\DSP\Source\TransformFunctions/arm_dct4_init_f32.c **** 
  97:.\DSP\Source\TransformFunctions/arm_dct4_init_f32.c ****   #if !defined(ARM_DSP_CONFIG_TABLES) || defined(ARM_ALL_FFT_TABLES) || defined(ARM_TABLE_DCT4_F32_
ARM GAS  C:\Users\IVYLIU~1\AppData\Local\Temp\cckUKuqd.s 			page 4


  98:.\DSP\Source\TransformFunctions/arm_dct4_init_f32.c ****   case 2048U:
  99:.\DSP\Source\TransformFunctions/arm_dct4_init_f32.c ****     S->pTwiddle = Weights_2048;
  74              		.loc 1 99 0
  75 003a 114C     		ldr	r4, .L10+8
  76 003c 8460     		str	r4, [r0, #8]
 100:.\DSP\Source\TransformFunctions/arm_dct4_init_f32.c ****     S->pCosFactor = cos_factors_2048;
  77              		.loc 1 100 0
  78 003e 114C     		ldr	r4, .L10+12
  79 0040 C460     		str	r4, [r0, #12]
  69:.\DSP\Source\TransformFunctions/arm_dct4_init_f32.c **** 
  80              		.loc 1 69 0
  81 0042 0024     		movs	r4, #0
 101:.\DSP\Source\TransformFunctions/arm_dct4_init_f32.c ****     break;
  82              		.loc 1 101 0
  83 0044 0CE0     		b	.L2
  84              	.L3:
 102:.\DSP\Source\TransformFunctions/arm_dct4_init_f32.c ****   #endif
 103:.\DSP\Source\TransformFunctions/arm_dct4_init_f32.c **** 
 104:.\DSP\Source\TransformFunctions/arm_dct4_init_f32.c ****   #if !defined(ARM_DSP_CONFIG_TABLES) || defined(ARM_ALL_FFT_TABLES) || defined(ARM_TABLE_DCT4_F32_
 105:.\DSP\Source\TransformFunctions/arm_dct4_init_f32.c ****   case 512U:
 106:.\DSP\Source\TransformFunctions/arm_dct4_init_f32.c ****     S->pTwiddle = Weights_512;
  85              		.loc 1 106 0
  86 0046 104C     		ldr	r4, .L10+16
  87 0048 8460     		str	r4, [r0, #8]
 107:.\DSP\Source\TransformFunctions/arm_dct4_init_f32.c ****     S->pCosFactor = cos_factors_512;
  88              		.loc 1 107 0
  89 004a 104C     		ldr	r4, .L10+20
  90 004c C460     		str	r4, [r0, #12]
  69:.\DSP\Source\TransformFunctions/arm_dct4_init_f32.c **** 
  91              		.loc 1 69 0
  92 004e 0024     		movs	r4, #0
 108:.\DSP\Source\TransformFunctions/arm_dct4_init_f32.c ****     break;
  93              		.loc 1 108 0
  94 0050 06E0     		b	.L2
  95              	.L5:
 109:.\DSP\Source\TransformFunctions/arm_dct4_init_f32.c ****   #endif
 110:.\DSP\Source\TransformFunctions/arm_dct4_init_f32.c **** 
 111:.\DSP\Source\TransformFunctions/arm_dct4_init_f32.c ****   #if !defined(ARM_DSP_CONFIG_TABLES) || defined(ARM_ALL_FFT_TABLES) || defined(ARM_TABLE_DCT4_F32_
 112:.\DSP\Source\TransformFunctions/arm_dct4_init_f32.c ****   case 128U:
 113:.\DSP\Source\TransformFunctions/arm_dct4_init_f32.c ****     S->pTwiddle = Weights_128;
  96              		.loc 1 113 0
  97 0052 0F4C     		ldr	r4, .L10+24
  98 0054 8460     		str	r4, [r0, #8]
 114:.\DSP\Source\TransformFunctions/arm_dct4_init_f32.c ****     S->pCosFactor = cos_factors_128;
  99              		.loc 1 114 0
 100 0056 0F4C     		ldr	r4, .L10+28
 101 0058 C460     		str	r4, [r0, #12]
  69:.\DSP\Source\TransformFunctions/arm_dct4_init_f32.c **** 
 102              		.loc 1 69 0
 103 005a 0024     		movs	r4, #0
 115:.\DSP\Source\TransformFunctions/arm_dct4_init_f32.c ****     break;
 104              		.loc 1 115 0
 105 005c 00E0     		b	.L2
 106              	.L8:
 116:.\DSP\Source\TransformFunctions/arm_dct4_init_f32.c ****   #endif
 117:.\DSP\Source\TransformFunctions/arm_dct4_init_f32.c ****   default:
 118:.\DSP\Source\TransformFunctions/arm_dct4_init_f32.c ****     status = ARM_MATH_ARGUMENT_ERROR;
ARM GAS  C:\Users\IVYLIU~1\AppData\Local\Temp\cckUKuqd.s 			page 5


 107              		.loc 1 118 0
 108 005e FF24     		movs	r4, #255
 109              	.L2:
 110              	.LVL2:
 119:.\DSP\Source\TransformFunctions/arm_dct4_init_f32.c ****   }
 120:.\DSP\Source\TransformFunctions/arm_dct4_init_f32.c **** 
 121:.\DSP\Source\TransformFunctions/arm_dct4_init_f32.c ****   /* Initialize the RFFT/RIFFT Function */
 122:.\DSP\Source\TransformFunctions/arm_dct4_init_f32.c ****   arm_rfft_init_f32(S->pRfft, S->pCfft, S->N, 0U, 1U);
 111              		.loc 1 122 0
 112 0060 0120     		movs	r0, #1
 113              	.LVL3:
 114 0062 0090     		str	r0, [sp]
 115 0064 0846     		mov	r0, r1
 116 0066 1146     		mov	r1, r2
 117              	.LVL4:
 118 0068 1A46     		mov	r2, r3
 119              	.LVL5:
 120 006a 0023     		movs	r3, #0
 121              	.LVL6:
 122 006c FFF7FEFF 		bl	arm_rfft_init_f32
 123              	.LVL7:
 123:.\DSP\Source\TransformFunctions/arm_dct4_init_f32.c **** 
 124:.\DSP\Source\TransformFunctions/arm_dct4_init_f32.c ****   /* return the status of DCT4 Init function */
 125:.\DSP\Source\TransformFunctions/arm_dct4_init_f32.c ****   return (status);
 126:.\DSP\Source\TransformFunctions/arm_dct4_init_f32.c **** }
 124              		.loc 1 126 0
 125 0070 60B2     		sxtb	r0, r4
 126 0072 02B0     		add	sp, sp, #8
 127              		.cfi_def_cfa_offset 8
 128              		@ sp needed
 129 0074 10BD     		pop	{r4, pc}
 130              	.LVL8:
 131              	.L11:
 132 0076 00BF     		.align	2
 133              	.L10:
 134 0078 00000000 		.word	Weights_8192
 135 007c 00000000 		.word	cos_factors_8192
 136 0080 00000000 		.word	Weights_2048
 137 0084 00000000 		.word	cos_factors_2048
 138 0088 00000000 		.word	Weights_512
 139 008c 00000000 		.word	cos_factors_512
 140 0090 00000000 		.word	Weights_128
 141 0094 00000000 		.word	cos_factors_128
 142              		.cfi_endproc
 143              	.LFE84:
 144              		.size	arm_dct4_init_f32, .-arm_dct4_init_f32
 145              		.text
 146              	.Letext0:
 147              		.file 2 "c:\\program files (x86)\\cypress\\psoc creator\\3.3\\psoc creator\\import\\gnu\\arm\\4.9.
 148              		.file 3 "c:\\program files (x86)\\cypress\\psoc creator\\3.3\\psoc creator\\import\\gnu\\arm\\4.9.
 149              		.file 4 ".\\DSP\\Include/arm_math_types.h"
 150              		.file 5 ".\\DSP\\Include/dsp/transform_functions.h"
 151              		.file 6 ".\\Core\\Include/cmsis_gcc.h"
 152              		.file 7 ".\\DSP\\Include/arm_common_tables.h"