ARM GAS  C:\Users\IVYLIU~1\AppData\Local\Temp\cctEamhT.s 			page 1


   1              		.syntax unified
   2              		.cpu cortex-m3
   3              		.fpu softvfp
   4              		.eabi_attribute 20, 1
   5              		.eabi_attribute 21, 1
   6              		.eabi_attribute 23, 3
   7              		.eabi_attribute 24, 1
   8              		.eabi_attribute 25, 1
   9              		.eabi_attribute 26, 1
  10              		.eabi_attribute 30, 1
  11              		.eabi_attribute 34, 1
  12              		.eabi_attribute 18, 4
  13              		.thumb
  14              		.file	"arm_rfft_q15.c"
  15              		.text
  16              	.Ltext0:
  17              		.cfi_sections	.debug_frame
  18              		.section	.text.arm_split_rfft_q15,"ax",%progbits
  19              		.align	2
  20              		.global	arm_split_rfft_q15
  21              		.thumb
  22              		.thumb_func
  23              		.type	arm_split_rfft_q15, %function
  24              	arm_split_rfft_q15:
  25              	.LFB85:
  26              		.file 1 ".\\DSP\\Source\\TransformFunctions\\arm_rfft_q15.c"
   1:.\DSP\Source\TransformFunctions/arm_rfft_q15.c **** /* ----------------------------------------------------------------------
   2:.\DSP\Source\TransformFunctions/arm_rfft_q15.c ****  * Project:      CMSIS DSP Library
   3:.\DSP\Source\TransformFunctions/arm_rfft_q15.c ****  * Title:        arm_rfft_q15.c
   4:.\DSP\Source\TransformFunctions/arm_rfft_q15.c ****  * Description:  RFFT & RIFFT Q15 process function
   5:.\DSP\Source\TransformFunctions/arm_rfft_q15.c ****  *
   6:.\DSP\Source\TransformFunctions/arm_rfft_q15.c ****  * $Date:        23 April 2021
   7:.\DSP\Source\TransformFunctions/arm_rfft_q15.c ****  * $Revision:    V1.9.0
   8:.\DSP\Source\TransformFunctions/arm_rfft_q15.c ****  *
   9:.\DSP\Source\TransformFunctions/arm_rfft_q15.c ****  * Target Processor: Cortex-M and Cortex-A cores
  10:.\DSP\Source\TransformFunctions/arm_rfft_q15.c ****  * -------------------------------------------------------------------- */
  11:.\DSP\Source\TransformFunctions/arm_rfft_q15.c **** /*
  12:.\DSP\Source\TransformFunctions/arm_rfft_q15.c ****  * Copyright (C) 2010-2021 ARM Limited or its affiliates. All rights reserved.
  13:.\DSP\Source\TransformFunctions/arm_rfft_q15.c ****  *
  14:.\DSP\Source\TransformFunctions/arm_rfft_q15.c ****  * SPDX-License-Identifier: Apache-2.0
  15:.\DSP\Source\TransformFunctions/arm_rfft_q15.c ****  *
  16:.\DSP\Source\TransformFunctions/arm_rfft_q15.c ****  * Licensed under the Apache License, Version 2.0 (the License); you may
  17:.\DSP\Source\TransformFunctions/arm_rfft_q15.c ****  * not use this file except in compliance with the License.
  18:.\DSP\Source\TransformFunctions/arm_rfft_q15.c ****  * You may obtain a copy of the License at
  19:.\DSP\Source\TransformFunctions/arm_rfft_q15.c ****  *
  20:.\DSP\Source\TransformFunctions/arm_rfft_q15.c ****  * www.apache.org/licenses/LICENSE-2.0
  21:.\DSP\Source\TransformFunctions/arm_rfft_q15.c ****  *
  22:.\DSP\Source\TransformFunctions/arm_rfft_q15.c ****  * Unless required by applicable law or agreed to in writing, software
  23:.\DSP\Source\TransformFunctions/arm_rfft_q15.c ****  * distributed under the License is distributed on an AS IS BASIS, WITHOUT
  24:.\DSP\Source\TransformFunctions/arm_rfft_q15.c ****  * WARRANTIES OR CONDITIONS OF ANY KIND, either express or implied.
  25:.\DSP\Source\TransformFunctions/arm_rfft_q15.c ****  * See the License for the specific language governing permissions and
  26:.\DSP\Source\TransformFunctions/arm_rfft_q15.c ****  * limitations under the License.
  27:.\DSP\Source\TransformFunctions/arm_rfft_q15.c ****  */
  28:.\DSP\Source\TransformFunctions/arm_rfft_q15.c **** 
  29:.\DSP\Source\TransformFunctions/arm_rfft_q15.c **** #include "dsp/transform_functions.h"
  30:.\DSP\Source\TransformFunctions/arm_rfft_q15.c **** 
  31:.\DSP\Source\TransformFunctions/arm_rfft_q15.c **** /* ----------------------------------------------------------------------
ARM GAS  C:\Users\IVYLIU~1\AppData\Local\Temp\cctEamhT.s 			page 2


  32:.\DSP\Source\TransformFunctions/arm_rfft_q15.c ****  * Internal functions prototypes
  33:.\DSP\Source\TransformFunctions/arm_rfft_q15.c ****  * -------------------------------------------------------------------- */
  34:.\DSP\Source\TransformFunctions/arm_rfft_q15.c **** 
  35:.\DSP\Source\TransformFunctions/arm_rfft_q15.c **** void arm_split_rfft_q15(
  36:.\DSP\Source\TransformFunctions/arm_rfft_q15.c ****         q15_t * pSrc,
  37:.\DSP\Source\TransformFunctions/arm_rfft_q15.c ****         uint32_t fftLen,
  38:.\DSP\Source\TransformFunctions/arm_rfft_q15.c ****   const q15_t * pATable,
  39:.\DSP\Source\TransformFunctions/arm_rfft_q15.c ****   const q15_t * pBTable,
  40:.\DSP\Source\TransformFunctions/arm_rfft_q15.c ****         q15_t * pDst,
  41:.\DSP\Source\TransformFunctions/arm_rfft_q15.c ****         uint32_t modifier);
  42:.\DSP\Source\TransformFunctions/arm_rfft_q15.c **** 
  43:.\DSP\Source\TransformFunctions/arm_rfft_q15.c **** void arm_split_rifft_q15(
  44:.\DSP\Source\TransformFunctions/arm_rfft_q15.c ****         q15_t * pSrc,
  45:.\DSP\Source\TransformFunctions/arm_rfft_q15.c ****         uint32_t fftLen,
  46:.\DSP\Source\TransformFunctions/arm_rfft_q15.c ****   const q15_t * pATable,
  47:.\DSP\Source\TransformFunctions/arm_rfft_q15.c ****   const q15_t * pBTable,
  48:.\DSP\Source\TransformFunctions/arm_rfft_q15.c ****         q15_t * pDst,
  49:.\DSP\Source\TransformFunctions/arm_rfft_q15.c ****         uint32_t modifier);
  50:.\DSP\Source\TransformFunctions/arm_rfft_q15.c **** 
  51:.\DSP\Source\TransformFunctions/arm_rfft_q15.c **** /**
  52:.\DSP\Source\TransformFunctions/arm_rfft_q15.c ****   @addtogroup RealFFT
  53:.\DSP\Source\TransformFunctions/arm_rfft_q15.c ****   @{
  54:.\DSP\Source\TransformFunctions/arm_rfft_q15.c ****  */
  55:.\DSP\Source\TransformFunctions/arm_rfft_q15.c **** 
  56:.\DSP\Source\TransformFunctions/arm_rfft_q15.c **** /**
  57:.\DSP\Source\TransformFunctions/arm_rfft_q15.c ****   @brief         Processing function for the Q15 RFFT/RIFFT.
  58:.\DSP\Source\TransformFunctions/arm_rfft_q15.c ****   @param[in]     S     points to an instance of the Q15 RFFT/RIFFT structure
  59:.\DSP\Source\TransformFunctions/arm_rfft_q15.c ****   @param[in]     pSrc  points to input buffer (Source buffer is modified by this function.)
  60:.\DSP\Source\TransformFunctions/arm_rfft_q15.c ****   @param[out]    pDst  points to output buffer
  61:.\DSP\Source\TransformFunctions/arm_rfft_q15.c ****   @return        none
  62:.\DSP\Source\TransformFunctions/arm_rfft_q15.c **** 
  63:.\DSP\Source\TransformFunctions/arm_rfft_q15.c ****   @par           Input an output formats
  64:.\DSP\Source\TransformFunctions/arm_rfft_q15.c ****                    Internally input is downscaled by 2 for every stage to avoid saturations inside 
  65:.\DSP\Source\TransformFunctions/arm_rfft_q15.c ****                    Hence the output format is different for different RFFT sizes.
  66:.\DSP\Source\TransformFunctions/arm_rfft_q15.c ****                    The input and output formats for different RFFT sizes and number of bits to upsc
  67:.\DSP\Source\TransformFunctions/arm_rfft_q15.c ****   @par
  68:.\DSP\Source\TransformFunctions/arm_rfft_q15.c ****                    \image html RFFTQ15.gif "Input and Output Formats for Q15 RFFT"
  69:.\DSP\Source\TransformFunctions/arm_rfft_q15.c ****   @par
  70:.\DSP\Source\TransformFunctions/arm_rfft_q15.c ****                    \image html RIFFTQ15.gif "Input and Output Formats for Q15 RIFFT"
  71:.\DSP\Source\TransformFunctions/arm_rfft_q15.c ****   @par
  72:.\DSP\Source\TransformFunctions/arm_rfft_q15.c ****                    If the input buffer is of length N, the output buffer must have length 2*N.
  73:.\DSP\Source\TransformFunctions/arm_rfft_q15.c ****                    The input buffer is modified by this function.
  74:.\DSP\Source\TransformFunctions/arm_rfft_q15.c ****   @par
  75:.\DSP\Source\TransformFunctions/arm_rfft_q15.c ****                    For the RIFFT, the source buffer must at least have length 
  76:.\DSP\Source\TransformFunctions/arm_rfft_q15.c ****                    fftLenReal + 2.
  77:.\DSP\Source\TransformFunctions/arm_rfft_q15.c ****                    The last two elements must be equal to what would be generated
  78:.\DSP\Source\TransformFunctions/arm_rfft_q15.c ****                    by the RFFT:
  79:.\DSP\Source\TransformFunctions/arm_rfft_q15.c ****                      (pSrc[0] - pSrc[1]) >> 1 and 0
  80:.\DSP\Source\TransformFunctions/arm_rfft_q15.c ****  */
  81:.\DSP\Source\TransformFunctions/arm_rfft_q15.c **** 
  82:.\DSP\Source\TransformFunctions/arm_rfft_q15.c **** void arm_rfft_q15(
  83:.\DSP\Source\TransformFunctions/arm_rfft_q15.c ****   const arm_rfft_instance_q15 * S,
  84:.\DSP\Source\TransformFunctions/arm_rfft_q15.c ****         q15_t * pSrc,
  85:.\DSP\Source\TransformFunctions/arm_rfft_q15.c ****         q15_t * pDst)
  86:.\DSP\Source\TransformFunctions/arm_rfft_q15.c **** {
  87:.\DSP\Source\TransformFunctions/arm_rfft_q15.c **** #if defined(ARM_MATH_MVEI) && !defined(ARM_MATH_AUTOVECTORIZE)
  88:.\DSP\Source\TransformFunctions/arm_rfft_q15.c ****   const arm_cfft_instance_q15 *S_CFFT = &(S->cfftInst);
ARM GAS  C:\Users\IVYLIU~1\AppData\Local\Temp\cctEamhT.s 			page 3


  89:.\DSP\Source\TransformFunctions/arm_rfft_q15.c **** #else
  90:.\DSP\Source\TransformFunctions/arm_rfft_q15.c ****   const arm_cfft_instance_q15 *S_CFFT = S->pCfft;
  91:.\DSP\Source\TransformFunctions/arm_rfft_q15.c **** #endif
  92:.\DSP\Source\TransformFunctions/arm_rfft_q15.c ****         uint32_t L2 = S->fftLenReal >> 1U;
  93:.\DSP\Source\TransformFunctions/arm_rfft_q15.c **** 
  94:.\DSP\Source\TransformFunctions/arm_rfft_q15.c ****   /* Calculation of RIFFT of input */
  95:.\DSP\Source\TransformFunctions/arm_rfft_q15.c ****   if (S->ifftFlagR == 1U)
  96:.\DSP\Source\TransformFunctions/arm_rfft_q15.c ****   {
  97:.\DSP\Source\TransformFunctions/arm_rfft_q15.c ****      /*  Real IFFT core process */
  98:.\DSP\Source\TransformFunctions/arm_rfft_q15.c ****      arm_split_rifft_q15 (pSrc, L2, S->pTwiddleAReal, S->pTwiddleBReal, pDst, S->twidCoefRModifier)
  99:.\DSP\Source\TransformFunctions/arm_rfft_q15.c **** 
 100:.\DSP\Source\TransformFunctions/arm_rfft_q15.c ****      /* Complex IFFT process */
 101:.\DSP\Source\TransformFunctions/arm_rfft_q15.c ****      arm_cfft_q15 (S_CFFT, pDst, S->ifftFlagR, S->bitReverseFlagR);
 102:.\DSP\Source\TransformFunctions/arm_rfft_q15.c **** 
 103:.\DSP\Source\TransformFunctions/arm_rfft_q15.c ****      arm_shift_q15(pDst, 1, pDst, S->fftLenReal);
 104:.\DSP\Source\TransformFunctions/arm_rfft_q15.c ****   }
 105:.\DSP\Source\TransformFunctions/arm_rfft_q15.c ****   else
 106:.\DSP\Source\TransformFunctions/arm_rfft_q15.c ****   {
 107:.\DSP\Source\TransformFunctions/arm_rfft_q15.c ****      /* Calculation of RFFT of input */
 108:.\DSP\Source\TransformFunctions/arm_rfft_q15.c **** 
 109:.\DSP\Source\TransformFunctions/arm_rfft_q15.c ****      /* Complex FFT process */
 110:.\DSP\Source\TransformFunctions/arm_rfft_q15.c ****      arm_cfft_q15 (S_CFFT, pSrc, S->ifftFlagR, S->bitReverseFlagR);
 111:.\DSP\Source\TransformFunctions/arm_rfft_q15.c **** 
 112:.\DSP\Source\TransformFunctions/arm_rfft_q15.c ****      /*  Real FFT core process */
 113:.\DSP\Source\TransformFunctions/arm_rfft_q15.c ****      arm_split_rfft_q15 (pSrc, L2, S->pTwiddleAReal, S->pTwiddleBReal, pDst, S->twidCoefRModifier);
 114:.\DSP\Source\TransformFunctions/arm_rfft_q15.c ****   }
 115:.\DSP\Source\TransformFunctions/arm_rfft_q15.c **** 
 116:.\DSP\Source\TransformFunctions/arm_rfft_q15.c **** }
 117:.\DSP\Source\TransformFunctions/arm_rfft_q15.c **** 
 118:.\DSP\Source\TransformFunctions/arm_rfft_q15.c **** /**
 119:.\DSP\Source\TransformFunctions/arm_rfft_q15.c ****   @} end of RealFFT group
 120:.\DSP\Source\TransformFunctions/arm_rfft_q15.c ****  */
 121:.\DSP\Source\TransformFunctions/arm_rfft_q15.c **** 
 122:.\DSP\Source\TransformFunctions/arm_rfft_q15.c **** /**
 123:.\DSP\Source\TransformFunctions/arm_rfft_q15.c ****   @brief         Core Real FFT process
 124:.\DSP\Source\TransformFunctions/arm_rfft_q15.c ****   @param[in]     pSrc      points to input buffer
 125:.\DSP\Source\TransformFunctions/arm_rfft_q15.c ****   @param[in]     fftLen    length of FFT
 126:.\DSP\Source\TransformFunctions/arm_rfft_q15.c ****   @param[in]     pATable   points to twiddle Coef A buffer
 127:.\DSP\Source\TransformFunctions/arm_rfft_q15.c ****   @param[in]     pBTable   points to twiddle Coef B buffer
 128:.\DSP\Source\TransformFunctions/arm_rfft_q15.c ****   @param[out]    pDst      points to output buffer
 129:.\DSP\Source\TransformFunctions/arm_rfft_q15.c ****   @param[in]     modifier  twiddle coefficient modifier that supports different size FFTs with the 
 130:.\DSP\Source\TransformFunctions/arm_rfft_q15.c ****   @return        none
 131:.\DSP\Source\TransformFunctions/arm_rfft_q15.c **** 
 132:.\DSP\Source\TransformFunctions/arm_rfft_q15.c ****   @par
 133:.\DSP\Source\TransformFunctions/arm_rfft_q15.c ****                    The function implements a Real FFT
 134:.\DSP\Source\TransformFunctions/arm_rfft_q15.c ****  */
 135:.\DSP\Source\TransformFunctions/arm_rfft_q15.c **** 
 136:.\DSP\Source\TransformFunctions/arm_rfft_q15.c **** #if defined(ARM_MATH_MVEI) && !defined(ARM_MATH_AUTOVECTORIZE)
 137:.\DSP\Source\TransformFunctions/arm_rfft_q15.c **** 
 138:.\DSP\Source\TransformFunctions/arm_rfft_q15.c **** #include "arm_helium_utils.h"
 139:.\DSP\Source\TransformFunctions/arm_rfft_q15.c **** #include "arm_vec_fft.h"
 140:.\DSP\Source\TransformFunctions/arm_rfft_q15.c **** 
 141:.\DSP\Source\TransformFunctions/arm_rfft_q15.c **** #if defined(__CMSIS_GCC_H)
 142:.\DSP\Source\TransformFunctions/arm_rfft_q15.c **** #define MVE_CMPLX_MULT_FX_AxB_S16(A,B)          vqdmladhxq_s16(vqdmlsdhq_s16((__typeof(A))vuninitia
 143:.\DSP\Source\TransformFunctions/arm_rfft_q15.c **** #define MVE_CMPLX_MULT_FX_AxConjB_S16(A,B)      vqdmladhq_s16(vqdmlsdhxq_s16((__typeof(A))vuninitia
 144:.\DSP\Source\TransformFunctions/arm_rfft_q15.c **** 
 145:.\DSP\Source\TransformFunctions/arm_rfft_q15.c **** #endif 
ARM GAS  C:\Users\IVYLIU~1\AppData\Local\Temp\cctEamhT.s 			page 4


 146:.\DSP\Source\TransformFunctions/arm_rfft_q15.c **** 
 147:.\DSP\Source\TransformFunctions/arm_rfft_q15.c **** void arm_split_rfft_q15(
 148:.\DSP\Source\TransformFunctions/arm_rfft_q15.c ****         q15_t * pSrc,
 149:.\DSP\Source\TransformFunctions/arm_rfft_q15.c ****         uint32_t fftLen,
 150:.\DSP\Source\TransformFunctions/arm_rfft_q15.c ****   const q15_t * pATable,
 151:.\DSP\Source\TransformFunctions/arm_rfft_q15.c ****   const q15_t * pBTable,
 152:.\DSP\Source\TransformFunctions/arm_rfft_q15.c ****         q15_t * pDst,
 153:.\DSP\Source\TransformFunctions/arm_rfft_q15.c ****         uint32_t modifier)
 154:.\DSP\Source\TransformFunctions/arm_rfft_q15.c **** {
 155:.\DSP\Source\TransformFunctions/arm_rfft_q15.c ****    uint32_t        i;          /* Loop Counter */
 156:.\DSP\Source\TransformFunctions/arm_rfft_q15.c ****     const q15_t    *pCoefA, *pCoefB;    /* Temporary pointers for twiddle factors */
 157:.\DSP\Source\TransformFunctions/arm_rfft_q15.c ****     q15_t          *pOut1 = &pDst[2];
 158:.\DSP\Source\TransformFunctions/arm_rfft_q15.c ****     q15_t          *pIn1 = &pSrc[2];
 159:.\DSP\Source\TransformFunctions/arm_rfft_q15.c ****     uint16x8_t      offsetIn = { 6, 7, 4, 5, 2, 3, 0, 1 };
 160:.\DSP\Source\TransformFunctions/arm_rfft_q15.c ****     uint16x8_t      offsetCoef;
 161:.\DSP\Source\TransformFunctions/arm_rfft_q15.c ****     const uint16_t  offsetCoefArr[16] = {
 162:.\DSP\Source\TransformFunctions/arm_rfft_q15.c ****         0, 0, 2, 2, 4, 4, 6, 6,
 163:.\DSP\Source\TransformFunctions/arm_rfft_q15.c ****         0, 1, 0, 1, 0, 1, 0, 1
 164:.\DSP\Source\TransformFunctions/arm_rfft_q15.c ****     };
 165:.\DSP\Source\TransformFunctions/arm_rfft_q15.c **** 
 166:.\DSP\Source\TransformFunctions/arm_rfft_q15.c ****     offsetCoef = vmulq_n_u16(vld1q_u16(offsetCoefArr), modifier) + vld1q_u16(offsetCoefArr + 8);
 167:.\DSP\Source\TransformFunctions/arm_rfft_q15.c ****     offsetIn = vaddq_n_u16(offsetIn, (2 * fftLen - 8));
 168:.\DSP\Source\TransformFunctions/arm_rfft_q15.c **** 
 169:.\DSP\Source\TransformFunctions/arm_rfft_q15.c ****     /* Init coefficient pointers */
 170:.\DSP\Source\TransformFunctions/arm_rfft_q15.c ****     pCoefA = &pATable[modifier * 2];
 171:.\DSP\Source\TransformFunctions/arm_rfft_q15.c ****     pCoefB = &pBTable[modifier * 2];
 172:.\DSP\Source\TransformFunctions/arm_rfft_q15.c **** 
 173:.\DSP\Source\TransformFunctions/arm_rfft_q15.c ****     const q15_t    *pCoefAb, *pCoefBb;
 174:.\DSP\Source\TransformFunctions/arm_rfft_q15.c ****     pCoefAb = pCoefA;
 175:.\DSP\Source\TransformFunctions/arm_rfft_q15.c ****     pCoefBb = pCoefB;
 176:.\DSP\Source\TransformFunctions/arm_rfft_q15.c **** 
 177:.\DSP\Source\TransformFunctions/arm_rfft_q15.c ****     pIn1 = &pSrc[2];
 178:.\DSP\Source\TransformFunctions/arm_rfft_q15.c **** 
 179:.\DSP\Source\TransformFunctions/arm_rfft_q15.c ****     i = fftLen - 1U;
 180:.\DSP\Source\TransformFunctions/arm_rfft_q15.c ****     i = i / 4 + 1;
 181:.\DSP\Source\TransformFunctions/arm_rfft_q15.c ****     while (i > 0U) {
 182:.\DSP\Source\TransformFunctions/arm_rfft_q15.c ****         q15x8_t         in1 = vld1q_s16(pIn1);
 183:.\DSP\Source\TransformFunctions/arm_rfft_q15.c ****         q15x8_t         in2 = vldrhq_gather_shifted_offset_s16(pSrc, offsetIn);
 184:.\DSP\Source\TransformFunctions/arm_rfft_q15.c ****         q15x8_t         coefA = vldrhq_gather_shifted_offset_s16(pCoefAb, offsetCoef);
 185:.\DSP\Source\TransformFunctions/arm_rfft_q15.c ****         q15x8_t         coefB = vldrhq_gather_shifted_offset_s16(pCoefBb, offsetCoef);
 186:.\DSP\Source\TransformFunctions/arm_rfft_q15.c **** 
 187:.\DSP\Source\TransformFunctions/arm_rfft_q15.c **** #if defined(__CMSIS_GCC_H)
 188:.\DSP\Source\TransformFunctions/arm_rfft_q15.c ****         q15x8_t         out = vhaddq_s16(MVE_CMPLX_MULT_FX_AxB_S16(in1, coefA),
 189:.\DSP\Source\TransformFunctions/arm_rfft_q15.c ****                                      MVE_CMPLX_MULT_FX_AxConjB_S16(coefB, in2));
 190:.\DSP\Source\TransformFunctions/arm_rfft_q15.c **** #else
 191:.\DSP\Source\TransformFunctions/arm_rfft_q15.c ****         q15x8_t         out = vhaddq_s16(MVE_CMPLX_MULT_FX_AxB(in1, coefA, q15x8_t),
 192:.\DSP\Source\TransformFunctions/arm_rfft_q15.c ****                                          MVE_CMPLX_MULT_FX_AxConjB(coefB, in2, q15x8_t));
 193:.\DSP\Source\TransformFunctions/arm_rfft_q15.c **** #endif
 194:.\DSP\Source\TransformFunctions/arm_rfft_q15.c ****         vst1q_s16(pOut1, out);
 195:.\DSP\Source\TransformFunctions/arm_rfft_q15.c ****         pOut1 += 8;
 196:.\DSP\Source\TransformFunctions/arm_rfft_q15.c **** 
 197:.\DSP\Source\TransformFunctions/arm_rfft_q15.c ****         offsetCoef = vaddq_n_u16(offsetCoef, modifier * 8);
 198:.\DSP\Source\TransformFunctions/arm_rfft_q15.c ****         offsetIn -= 8;
 199:.\DSP\Source\TransformFunctions/arm_rfft_q15.c ****         pIn1 += 8;
 200:.\DSP\Source\TransformFunctions/arm_rfft_q15.c ****         i -= 1;
 201:.\DSP\Source\TransformFunctions/arm_rfft_q15.c ****     }
 202:.\DSP\Source\TransformFunctions/arm_rfft_q15.c **** 
ARM GAS  C:\Users\IVYLIU~1\AppData\Local\Temp\cctEamhT.s 			page 5


 203:.\DSP\Source\TransformFunctions/arm_rfft_q15.c ****     pDst[2 * fftLen] = (pSrc[0] - pSrc[1]) >> 1U;
 204:.\DSP\Source\TransformFunctions/arm_rfft_q15.c ****     pDst[2 * fftLen + 1] = 0;
 205:.\DSP\Source\TransformFunctions/arm_rfft_q15.c **** 
 206:.\DSP\Source\TransformFunctions/arm_rfft_q15.c ****     pDst[0] = (pSrc[0] + pSrc[1]) >> 1U;
 207:.\DSP\Source\TransformFunctions/arm_rfft_q15.c ****     pDst[1] = 0;
 208:.\DSP\Source\TransformFunctions/arm_rfft_q15.c **** }
 209:.\DSP\Source\TransformFunctions/arm_rfft_q15.c **** #else
 210:.\DSP\Source\TransformFunctions/arm_rfft_q15.c **** void arm_split_rfft_q15(
 211:.\DSP\Source\TransformFunctions/arm_rfft_q15.c ****         q15_t * pSrc,
 212:.\DSP\Source\TransformFunctions/arm_rfft_q15.c ****         uint32_t fftLen,
 213:.\DSP\Source\TransformFunctions/arm_rfft_q15.c ****   const q15_t * pATable,
 214:.\DSP\Source\TransformFunctions/arm_rfft_q15.c ****   const q15_t * pBTable,
 215:.\DSP\Source\TransformFunctions/arm_rfft_q15.c ****         q15_t * pDst,
 216:.\DSP\Source\TransformFunctions/arm_rfft_q15.c ****         uint32_t modifier)
 217:.\DSP\Source\TransformFunctions/arm_rfft_q15.c **** {       
  27              		.loc 1 217 0
  28              		.cfi_startproc
  29              		@ args = 8, pretend = 0, frame = 16
  30              		@ frame_needed = 0, uses_anonymous_args = 0
  31              	.LVL0:
  32 0000 2DE9F04F 		push	{r4, r5, r6, r7, r8, r9, r10, fp, lr}
  33              		.cfi_def_cfa_offset 36
  34              		.cfi_offset 4, -36
  35              		.cfi_offset 5, -32
  36              		.cfi_offset 6, -28
  37              		.cfi_offset 7, -24
  38              		.cfi_offset 8, -20
  39              		.cfi_offset 9, -16
  40              		.cfi_offset 10, -12
  41              		.cfi_offset 11, -8
  42              		.cfi_offset 14, -4
  43 0004 85B0     		sub	sp, sp, #20
  44              		.cfi_def_cfa_offset 56
  45 0006 0390     		str	r0, [sp, #12]
  46 0008 0E46     		mov	r6, r1
  47 000a 0091     		str	r1, [sp]
  48 000c DDF838A0 		ldr	r10, [sp, #56]
 218:.\DSP\Source\TransformFunctions/arm_rfft_q15.c ****         uint32_t i;                                    /* Loop Counter */
 219:.\DSP\Source\TransformFunctions/arm_rfft_q15.c ****         q31_t outR, outI;                              /* Temporary variables for output */
 220:.\DSP\Source\TransformFunctions/arm_rfft_q15.c ****   const q15_t *pCoefA, *pCoefB;                        /* Temporary pointers for twiddle factors */
 221:.\DSP\Source\TransformFunctions/arm_rfft_q15.c ****         q15_t *pSrc1, *pSrc2;
 222:.\DSP\Source\TransformFunctions/arm_rfft_q15.c **** #if defined (ARM_MATH_DSP)
 223:.\DSP\Source\TransformFunctions/arm_rfft_q15.c ****         q15_t *pD1, *pD2;
 224:.\DSP\Source\TransformFunctions/arm_rfft_q15.c **** #endif
 225:.\DSP\Source\TransformFunctions/arm_rfft_q15.c **** 
 226:.\DSP\Source\TransformFunctions/arm_rfft_q15.c ****   /* Init coefficient pointers */
 227:.\DSP\Source\TransformFunctions/arm_rfft_q15.c ****   pCoefA = &pATable[modifier * 2];
  49              		.loc 1 227 0
  50 0010 0F99     		ldr	r1, [sp, #60]
  51              	.LVL1:
  52 0012 8C00     		lsls	r4, r1, #2
  53 0014 0294     		str	r4, [sp, #8]
  54 0016 2244     		add	r2, r2, r4
  55              	.LVL2:
 228:.\DSP\Source\TransformFunctions/arm_rfft_q15.c ****   pCoefB = &pBTable[modifier * 2];
  56              		.loc 1 228 0
  57 0018 2344     		add	r3, r3, r4
ARM GAS  C:\Users\IVYLIU~1\AppData\Local\Temp\cctEamhT.s 			page 6


  58              	.LVL3:
 229:.\DSP\Source\TransformFunctions/arm_rfft_q15.c **** 
 230:.\DSP\Source\TransformFunctions/arm_rfft_q15.c ****   pSrc1 = &pSrc[2];
  59              		.loc 1 230 0
  60 001a 00F1040B 		add	fp, r0, #4
  61              	.LVL4:
 231:.\DSP\Source\TransformFunctions/arm_rfft_q15.c ****   pSrc2 = &pSrc[(2U * fftLen) - 2U];
  62              		.loc 1 231 0
  63 001e 06F18041 		add	r1, r6, #1073741824
  64 0022 0139     		subs	r1, r1, #1
  65 0024 00EB8104 		add	r4, r0, r1, lsl #2
  66              	.LVL5:
 232:.\DSP\Source\TransformFunctions/arm_rfft_q15.c **** 
 233:.\DSP\Source\TransformFunctions/arm_rfft_q15.c **** #if defined (ARM_MATH_DSP)
 234:.\DSP\Source\TransformFunctions/arm_rfft_q15.c **** 
 235:.\DSP\Source\TransformFunctions/arm_rfft_q15.c ****     i = 1U;
 236:.\DSP\Source\TransformFunctions/arm_rfft_q15.c ****     pD1 = pDst + 2;
 237:.\DSP\Source\TransformFunctions/arm_rfft_q15.c ****     pD2 = pDst + (4U * fftLen) - 2;
 238:.\DSP\Source\TransformFunctions/arm_rfft_q15.c **** 
 239:.\DSP\Source\TransformFunctions/arm_rfft_q15.c ****     for (i = fftLen - 1; i > 0; i--)
 240:.\DSP\Source\TransformFunctions/arm_rfft_q15.c ****     {
 241:.\DSP\Source\TransformFunctions/arm_rfft_q15.c ****         /*
 242:.\DSP\Source\TransformFunctions/arm_rfft_q15.c ****           outR = (  pSrc[2 * i]             * pATable[2 * i]
 243:.\DSP\Source\TransformFunctions/arm_rfft_q15.c ****                   - pSrc[2 * i + 1]         * pATable[2 * i + 1]
 244:.\DSP\Source\TransformFunctions/arm_rfft_q15.c ****                   + pSrc[2 * n - 2 * i]     * pBTable[2 * i]
 245:.\DSP\Source\TransformFunctions/arm_rfft_q15.c ****                   + pSrc[2 * n - 2 * i + 1] * pBTable[2 * i + 1]);
 246:.\DSP\Source\TransformFunctions/arm_rfft_q15.c **** 
 247:.\DSP\Source\TransformFunctions/arm_rfft_q15.c ****           outI = (  pIn[2 * i + 1]         * pATable[2 * i]
 248:.\DSP\Source\TransformFunctions/arm_rfft_q15.c ****                   + pIn[2 * i]             * pATable[2 * i + 1]
 249:.\DSP\Source\TransformFunctions/arm_rfft_q15.c ****                   + pIn[2 * n - 2 * i]     * pBTable[2 * i + 1]
 250:.\DSP\Source\TransformFunctions/arm_rfft_q15.c ****                   - pIn[2 * n - 2 * i + 1] * pBTable[2 * i])
 251:.\DSP\Source\TransformFunctions/arm_rfft_q15.c ****          */
 252:.\DSP\Source\TransformFunctions/arm_rfft_q15.c **** 
 253:.\DSP\Source\TransformFunctions/arm_rfft_q15.c **** 
 254:.\DSP\Source\TransformFunctions/arm_rfft_q15.c **** #ifndef ARM_MATH_BIG_ENDIAN
 255:.\DSP\Source\TransformFunctions/arm_rfft_q15.c ****         /* pSrc[2 * i] * pATable[2 * i] - pSrc[2 * i + 1] * pATable[2 * i + 1] */
 256:.\DSP\Source\TransformFunctions/arm_rfft_q15.c ****         outR = __SMUSD(read_q15x2 (pSrc1), read_q15x2((q15_t *) pCoefA));
 257:.\DSP\Source\TransformFunctions/arm_rfft_q15.c **** #else
 258:.\DSP\Source\TransformFunctions/arm_rfft_q15.c ****         /* -(pSrc[2 * i + 1] * pATable[2 * i + 1] - pSrc[2 * i] * pATable[2 * i]) */
 259:.\DSP\Source\TransformFunctions/arm_rfft_q15.c ****         outR = -(__SMUSD(read_q15x2 (pSrc1), read_q15x2((q15_t *) pCoefA)));
 260:.\DSP\Source\TransformFunctions/arm_rfft_q15.c **** #endif /* #ifndef ARM_MATH_BIG_ENDIAN */
 261:.\DSP\Source\TransformFunctions/arm_rfft_q15.c **** 
 262:.\DSP\Source\TransformFunctions/arm_rfft_q15.c ****         /* pSrc[2 * n - 2 * i] * pBTable[2 * i] + pSrc[2 * n - 2 * i + 1] * pBTable[2 * i + 1]) */
 263:.\DSP\Source\TransformFunctions/arm_rfft_q15.c ****         outR = __SMLAD(read_q15x2 (pSrc2), read_q15x2((q15_t *) pCoefB), outR) >> 16U;
 264:.\DSP\Source\TransformFunctions/arm_rfft_q15.c **** 
 265:.\DSP\Source\TransformFunctions/arm_rfft_q15.c ****         /* pIn[2 * n - 2 * i] * pBTable[2 * i + 1] - pIn[2 * n - 2 * i + 1] * pBTable[2 * i] */
 266:.\DSP\Source\TransformFunctions/arm_rfft_q15.c **** #ifndef ARM_MATH_BIG_ENDIAN
 267:.\DSP\Source\TransformFunctions/arm_rfft_q15.c ****         outI = __SMUSDX(read_q15x2_da (&pSrc2), read_q15x2((q15_t *) pCoefB));
 268:.\DSP\Source\TransformFunctions/arm_rfft_q15.c **** #else
 269:.\DSP\Source\TransformFunctions/arm_rfft_q15.c ****         outI = __SMUSDX(read_q15x2 ((q15_t *) pCoefB), read_q15x2_da (&pSrc2));
 270:.\DSP\Source\TransformFunctions/arm_rfft_q15.c **** #endif /* #ifndef ARM_MATH_BIG_ENDIAN */
 271:.\DSP\Source\TransformFunctions/arm_rfft_q15.c **** 
 272:.\DSP\Source\TransformFunctions/arm_rfft_q15.c ****         /* (pIn[2 * i + 1] * pATable[2 * i] + pIn[2 * i] * pATable[2 * i + 1] */
 273:.\DSP\Source\TransformFunctions/arm_rfft_q15.c ****         outI = __SMLADX(read_q15x2_ia (&pSrc1), read_q15x2 ((q15_t *) pCoefA), outI);
 274:.\DSP\Source\TransformFunctions/arm_rfft_q15.c **** 
 275:.\DSP\Source\TransformFunctions/arm_rfft_q15.c ****         /* write output */
 276:.\DSP\Source\TransformFunctions/arm_rfft_q15.c ****         *pD1++ = (q15_t) outR;
ARM GAS  C:\Users\IVYLIU~1\AppData\Local\Temp\cctEamhT.s 			page 7


 277:.\DSP\Source\TransformFunctions/arm_rfft_q15.c ****         *pD1++ = outI >> 16U;
 278:.\DSP\Source\TransformFunctions/arm_rfft_q15.c **** 
 279:.\DSP\Source\TransformFunctions/arm_rfft_q15.c ****         /* write complex conjugate output */
 280:.\DSP\Source\TransformFunctions/arm_rfft_q15.c ****         pD2[0] = (q15_t) outR;
 281:.\DSP\Source\TransformFunctions/arm_rfft_q15.c ****         pD2[1] = -(outI >> 16U);
 282:.\DSP\Source\TransformFunctions/arm_rfft_q15.c ****         pD2 -= 2;
 283:.\DSP\Source\TransformFunctions/arm_rfft_q15.c **** 
 284:.\DSP\Source\TransformFunctions/arm_rfft_q15.c ****         /* update coefficient pointer */
 285:.\DSP\Source\TransformFunctions/arm_rfft_q15.c ****         pCoefB = pCoefB + (2U * modifier);
 286:.\DSP\Source\TransformFunctions/arm_rfft_q15.c ****         pCoefA = pCoefA + (2U * modifier);
 287:.\DSP\Source\TransformFunctions/arm_rfft_q15.c ****     }
 288:.\DSP\Source\TransformFunctions/arm_rfft_q15.c **** 
 289:.\DSP\Source\TransformFunctions/arm_rfft_q15.c ****     pDst[2U * fftLen]      = (pSrc[0] - pSrc[1]) >> 1U;
 290:.\DSP\Source\TransformFunctions/arm_rfft_q15.c ****     pDst[2U * fftLen + 1U] = 0;
 291:.\DSP\Source\TransformFunctions/arm_rfft_q15.c **** 
 292:.\DSP\Source\TransformFunctions/arm_rfft_q15.c ****     pDst[0] = (pSrc[0] + pSrc[1]) >> 1U;
 293:.\DSP\Source\TransformFunctions/arm_rfft_q15.c ****     pDst[1] = 0;
 294:.\DSP\Source\TransformFunctions/arm_rfft_q15.c **** 
 295:.\DSP\Source\TransformFunctions/arm_rfft_q15.c **** #else
 296:.\DSP\Source\TransformFunctions/arm_rfft_q15.c **** 
 297:.\DSP\Source\TransformFunctions/arm_rfft_q15.c ****     i = 1U;
  67              		.loc 1 297 0
  68 0028 4FF00109 		mov	r9, #1
 298:.\DSP\Source\TransformFunctions/arm_rfft_q15.c **** 
 299:.\DSP\Source\TransformFunctions/arm_rfft_q15.c ****     while (i < fftLen)
  69              		.loc 1 299 0
  70 002c 39E0     		b	.L2
  71              	.LVL6:
  72              	.L3:
 300:.\DSP\Source\TransformFunctions/arm_rfft_q15.c ****     {
 301:.\DSP\Source\TransformFunctions/arm_rfft_q15.c ****         /*
 302:.\DSP\Source\TransformFunctions/arm_rfft_q15.c ****           outR = (  pSrc[2 * i]             * pATable[2 * i]
 303:.\DSP\Source\TransformFunctions/arm_rfft_q15.c ****                   - pSrc[2 * i + 1]         * pATable[2 * i + 1]
 304:.\DSP\Source\TransformFunctions/arm_rfft_q15.c ****                   + pSrc[2 * n - 2 * i]     * pBTable[2 * i]
 305:.\DSP\Source\TransformFunctions/arm_rfft_q15.c ****                   + pSrc[2 * n - 2 * i + 1] * pBTable[2 * i + 1]);
 306:.\DSP\Source\TransformFunctions/arm_rfft_q15.c ****         */
 307:.\DSP\Source\TransformFunctions/arm_rfft_q15.c **** 
 308:.\DSP\Source\TransformFunctions/arm_rfft_q15.c ****         outR = *pSrc1 * *pCoefA;
  73              		.loc 1 308 0
  74 002e BBF90010 		ldrsh	r1, [fp]
  75 0032 B2F90000 		ldrsh	r0, [r2]
  76 0036 0191     		str	r1, [sp, #4]
  77 0038 00FB01F1 		mul	r1, r0, r1
  78              	.LVL7:
 309:.\DSP\Source\TransformFunctions/arm_rfft_q15.c ****         outR = outR - (*(pSrc1 + 1) * *(pCoefA + 1));
  79              		.loc 1 309 0
  80 003c BBF902E0 		ldrsh	lr, [fp, #2]
  81 0040 B2F90270 		ldrsh	r7, [r2, #2]
  82 0044 07FB1E11 		mls	r1, r7, lr, r1
  83              	.LVL8:
 310:.\DSP\Source\TransformFunctions/arm_rfft_q15.c ****         outR = outR + (*pSrc2 * *pCoefB);
  84              		.loc 1 310 0
  85 0048 B4F90080 		ldrsh	r8, [r4]
  86 004c B3F90050 		ldrsh	r5, [r3]
  87 0050 05FB0811 		mla	r1, r5, r8, r1
  88              	.LVL9:
 311:.\DSP\Source\TransformFunctions/arm_rfft_q15.c ****         outR = (outR + (*(pSrc2 + 1) * *(pCoefB + 1))) >> 16;
ARM GAS  C:\Users\IVYLIU~1\AppData\Local\Temp\cctEamhT.s 			page 8


  89              		.loc 1 311 0
  90 0054 B4F902C0 		ldrsh	ip, [r4, #2]
  91 0058 B3F90260 		ldrsh	r6, [r3, #2]
  92 005c 06FB0C11 		mla	r1, r6, ip, r1
  93              	.LVL10:
 312:.\DSP\Source\TransformFunctions/arm_rfft_q15.c **** 
 313:.\DSP\Source\TransformFunctions/arm_rfft_q15.c ****         /*
 314:.\DSP\Source\TransformFunctions/arm_rfft_q15.c ****           outI = (  pIn[2 * i + 1]         * pATable[2 * i]
 315:.\DSP\Source\TransformFunctions/arm_rfft_q15.c ****                   + pIn[2 * i]             * pATable[2 * i + 1]
 316:.\DSP\Source\TransformFunctions/arm_rfft_q15.c ****                   + pIn[2 * n - 2 * i]     * pBTable[2 * i + 1]
 317:.\DSP\Source\TransformFunctions/arm_rfft_q15.c ****                   - pIn[2 * n - 2 * i + 1] * pBTable[2 * i]);
 318:.\DSP\Source\TransformFunctions/arm_rfft_q15.c ****         */
 319:.\DSP\Source\TransformFunctions/arm_rfft_q15.c **** 
 320:.\DSP\Source\TransformFunctions/arm_rfft_q15.c ****         outI = *pSrc2 * *(pCoefB + 1);
  94              		.loc 1 320 0
  95 0060 06FB08F6 		mul	r6, r6, r8
  96              	.LVL11:
 321:.\DSP\Source\TransformFunctions/arm_rfft_q15.c ****         outI = outI - (*(pSrc2 + 1) * *pCoefB);
  97              		.loc 1 321 0
  98 0064 0CFB1566 		mls	r6, ip, r5, r6
  99              	.LVL12:
 322:.\DSP\Source\TransformFunctions/arm_rfft_q15.c ****         outI = outI + (*(pSrc1 + 1) * *pCoefA);
 100              		.loc 1 322 0
 101 0068 0EFB0060 		mla	r0, lr, r0, r6
 102              	.LVL13:
 323:.\DSP\Source\TransformFunctions/arm_rfft_q15.c ****         outI = outI + (*pSrc1 * *(pCoefA + 1));
 103              		.loc 1 323 0
 104 006c 019D     		ldr	r5, [sp, #4]
 105 006e 07FB0507 		mla	r7, r7, r5, r0
 106              	.LVL14:
 324:.\DSP\Source\TransformFunctions/arm_rfft_q15.c **** 
 325:.\DSP\Source\TransformFunctions/arm_rfft_q15.c ****         /* update input pointers */
 326:.\DSP\Source\TransformFunctions/arm_rfft_q15.c ****         pSrc1 += 2U;
 107              		.loc 1 326 0
 108 0072 0BF1040B 		add	fp, fp, #4
 109              	.LVL15:
 327:.\DSP\Source\TransformFunctions/arm_rfft_q15.c ****         pSrc2 -= 2U;
 110              		.loc 1 327 0
 111 0076 043C     		subs	r4, r4, #4
 112              	.LVL16:
 328:.\DSP\Source\TransformFunctions/arm_rfft_q15.c **** 
 329:.\DSP\Source\TransformFunctions/arm_rfft_q15.c ****         /* write output */
 330:.\DSP\Source\TransformFunctions/arm_rfft_q15.c ****         pDst[2U * i] = (q15_t) outR;
 113              		.loc 1 330 0
 114 0078 090C     		lsrs	r1, r1, #16
 115              	.LVL17:
 116 007a 2AF82910 		strh	r1, [r10, r9, lsl #2]	@ movhi
 117              	.LVL18:
 331:.\DSP\Source\TransformFunctions/arm_rfft_q15.c ****         pDst[2U * i + 1U] = outI >> 16U;
 118              		.loc 1 331 0
 119 007e 0AEB8900 		add	r0, r10, r9, lsl #2
 120 0082 3F14     		asrs	r7, r7, #16
 121              	.LVL19:
 122 0084 4780     		strh	r7, [r0, #2]	@ movhi
 332:.\DSP\Source\TransformFunctions/arm_rfft_q15.c **** 
 333:.\DSP\Source\TransformFunctions/arm_rfft_q15.c ****         /* write complex conjugate output */
 334:.\DSP\Source\TransformFunctions/arm_rfft_q15.c ****         pDst[(4U * fftLen) - (2U * i)] = (q15_t) outR;
ARM GAS  C:\Users\IVYLIU~1\AppData\Local\Temp\cctEamhT.s 			page 9


 123              		.loc 1 334 0
 124 0086 0098     		ldr	r0, [sp]
 125 0088 C9EB4000 		rsb	r0, r9, r0, lsl #1
 126 008c 2AF82010 		strh	r1, [r10, r0, lsl #2]	@ movhi
 335:.\DSP\Source\TransformFunctions/arm_rfft_q15.c ****         pDst[((4U * fftLen) - (2U * i)) + 1U] = -(outI >> 16U);
 127              		.loc 1 335 0
 128 0090 0AEB8000 		add	r0, r10, r0, lsl #2
 129 0094 7F42     		negs	r7, r7
 130 0096 4780     		strh	r7, [r0, #2]	@ movhi
 336:.\DSP\Source\TransformFunctions/arm_rfft_q15.c **** 
 337:.\DSP\Source\TransformFunctions/arm_rfft_q15.c ****         /* update coefficient pointer */
 338:.\DSP\Source\TransformFunctions/arm_rfft_q15.c ****         pCoefB = pCoefB + (2U * modifier);
 131              		.loc 1 338 0
 132 0098 0298     		ldr	r0, [sp, #8]
 133 009a 0344     		add	r3, r3, r0
 134              	.LVL20:
 339:.\DSP\Source\TransformFunctions/arm_rfft_q15.c ****         pCoefA = pCoefA + (2U * modifier);
 135              		.loc 1 339 0
 136 009c 0244     		add	r2, r2, r0
 137              	.LVL21:
 340:.\DSP\Source\TransformFunctions/arm_rfft_q15.c **** 
 341:.\DSP\Source\TransformFunctions/arm_rfft_q15.c ****         i++;
 138              		.loc 1 341 0
 139 009e 09F10109 		add	r9, r9, #1
 140              	.LVL22:
 141              	.L2:
 299:.\DSP\Source\TransformFunctions/arm_rfft_q15.c ****     {
 142              		.loc 1 299 0
 143 00a2 0099     		ldr	r1, [sp]
 144 00a4 8945     		cmp	r9, r1
 145 00a6 C2D3     		bcc	.L3
 342:.\DSP\Source\TransformFunctions/arm_rfft_q15.c ****     }
 343:.\DSP\Source\TransformFunctions/arm_rfft_q15.c **** 
 344:.\DSP\Source\TransformFunctions/arm_rfft_q15.c ****     pDst[2U * fftLen] = (pSrc[0] - pSrc[1]) >> 1;
 146              		.loc 1 344 0
 147 00a8 0C46     		mov	r4, r1
 148              	.LVL23:
 149 00aa 8A00     		lsls	r2, r1, #2
 150              	.LVL24:
 151 00ac 0398     		ldr	r0, [sp, #12]
 152 00ae B0F90030 		ldrsh	r3, [r0]
 153              	.LVL25:
 154 00b2 B0F90210 		ldrsh	r1, [r0, #2]
 155 00b6 5B1A     		subs	r3, r3, r1
 156 00b8 5B10     		asrs	r3, r3, #1
 157 00ba 2AF82430 		strh	r3, [r10, r4, lsl #2]	@ movhi
 345:.\DSP\Source\TransformFunctions/arm_rfft_q15.c ****     pDst[2U * fftLen + 1U] = 0;
 158              		.loc 1 345 0
 159 00be 931C     		adds	r3, r2, #2
 160 00c0 0022     		movs	r2, #0
 161 00c2 2AF80320 		strh	r2, [r10, r3]	@ movhi
 346:.\DSP\Source\TransformFunctions/arm_rfft_q15.c **** 
 347:.\DSP\Source\TransformFunctions/arm_rfft_q15.c ****     pDst[0] = (pSrc[0] + pSrc[1]) >> 1;
 162              		.loc 1 347 0
 163 00c6 B0F90010 		ldrsh	r1, [r0]
 164 00ca B0F90230 		ldrsh	r3, [r0, #2]
 165 00ce 0B44     		add	r3, r3, r1
ARM GAS  C:\Users\IVYLIU~1\AppData\Local\Temp\cctEamhT.s 			page 10


 166 00d0 5B10     		asrs	r3, r3, #1
 167 00d2 AAF80030 		strh	r3, [r10]	@ movhi
 348:.\DSP\Source\TransformFunctions/arm_rfft_q15.c ****     pDst[1] = 0;
 168              		.loc 1 348 0
 169 00d6 AAF80220 		strh	r2, [r10, #2]	@ movhi
 349:.\DSP\Source\TransformFunctions/arm_rfft_q15.c **** 
 350:.\DSP\Source\TransformFunctions/arm_rfft_q15.c **** #endif /* #if defined (ARM_MATH_DSP) */
 351:.\DSP\Source\TransformFunctions/arm_rfft_q15.c **** }
 170              		.loc 1 351 0
 171 00da 05B0     		add	sp, sp, #20
 172              		.cfi_def_cfa_offset 36
 173              	.LVL26:
 174              		@ sp needed
 175 00dc BDE8F08F 		pop	{r4, r5, r6, r7, r8, r9, r10, fp, pc}
 176              		.cfi_endproc
 177              	.LFE85:
 178              		.size	arm_split_rfft_q15, .-arm_split_rfft_q15
 179              		.section	.text.arm_split_rifft_q15,"ax",%progbits
 180              		.align	2
 181              		.global	arm_split_rifft_q15
 182              		.thumb
 183              		.thumb_func
 184              		.type	arm_split_rifft_q15, %function
 185              	arm_split_rifft_q15:
 186              	.LFB86:
 352:.\DSP\Source\TransformFunctions/arm_rfft_q15.c **** #endif /* defined(ARM_MATH_MVEI) */
 353:.\DSP\Source\TransformFunctions/arm_rfft_q15.c **** 
 354:.\DSP\Source\TransformFunctions/arm_rfft_q15.c **** /**
 355:.\DSP\Source\TransformFunctions/arm_rfft_q15.c ****   @brief         Core Real IFFT process
 356:.\DSP\Source\TransformFunctions/arm_rfft_q15.c ****   @param[in]     pSrc      points to input buffer
 357:.\DSP\Source\TransformFunctions/arm_rfft_q15.c ****   @param[in]     fftLen    length of FFT
 358:.\DSP\Source\TransformFunctions/arm_rfft_q15.c ****   @param[in]     pATable   points to twiddle Coef A buffer
 359:.\DSP\Source\TransformFunctions/arm_rfft_q15.c ****   @param[in]     pBTable   points to twiddle Coef B buffer
 360:.\DSP\Source\TransformFunctions/arm_rfft_q15.c ****   @param[out]    pDst      points to output buffer
 361:.\DSP\Source\TransformFunctions/arm_rfft_q15.c ****   @param[in]     modifier  twiddle coefficient modifier that supports different size FFTs with the 
 362:.\DSP\Source\TransformFunctions/arm_rfft_q15.c ****   @return        none
 363:.\DSP\Source\TransformFunctions/arm_rfft_q15.c **** 
 364:.\DSP\Source\TransformFunctions/arm_rfft_q15.c ****   @par
 365:.\DSP\Source\TransformFunctions/arm_rfft_q15.c ****                    The function implements a Real IFFT
 366:.\DSP\Source\TransformFunctions/arm_rfft_q15.c ****  */
 367:.\DSP\Source\TransformFunctions/arm_rfft_q15.c **** 
 368:.\DSP\Source\TransformFunctions/arm_rfft_q15.c **** #if defined(ARM_MATH_MVEI) && !defined(ARM_MATH_AUTOVECTORIZE)
 369:.\DSP\Source\TransformFunctions/arm_rfft_q15.c **** 
 370:.\DSP\Source\TransformFunctions/arm_rfft_q15.c **** #include "arm_helium_utils.h"
 371:.\DSP\Source\TransformFunctions/arm_rfft_q15.c **** #include "arm_vec_fft.h"
 372:.\DSP\Source\TransformFunctions/arm_rfft_q15.c **** 
 373:.\DSP\Source\TransformFunctions/arm_rfft_q15.c **** void arm_split_rifft_q15(
 374:.\DSP\Source\TransformFunctions/arm_rfft_q15.c ****         q15_t * pSrc,
 375:.\DSP\Source\TransformFunctions/arm_rfft_q15.c ****         uint32_t fftLen,
 376:.\DSP\Source\TransformFunctions/arm_rfft_q15.c ****   const q15_t * pATable,
 377:.\DSP\Source\TransformFunctions/arm_rfft_q15.c ****   const q15_t * pBTable,
 378:.\DSP\Source\TransformFunctions/arm_rfft_q15.c ****         q15_t * pDst,
 379:.\DSP\Source\TransformFunctions/arm_rfft_q15.c ****         uint32_t modifier)
 380:.\DSP\Source\TransformFunctions/arm_rfft_q15.c **** {
 381:.\DSP\Source\TransformFunctions/arm_rfft_q15.c ****    uint32_t        i;                  /* Loop Counter */
 382:.\DSP\Source\TransformFunctions/arm_rfft_q15.c ****     const q15_t    *pCoefA, *pCoefB;    /* Temporary pointers for twiddle factors */
 383:.\DSP\Source\TransformFunctions/arm_rfft_q15.c ****     q15_t          *pIn1;
ARM GAS  C:\Users\IVYLIU~1\AppData\Local\Temp\cctEamhT.s 			page 11


 384:.\DSP\Source\TransformFunctions/arm_rfft_q15.c ****     uint16x8_t      offset = { 6, 7, 4, 5, 2, 3, 0, 1 };
 385:.\DSP\Source\TransformFunctions/arm_rfft_q15.c ****     uint16x8_t      offsetCoef;
 386:.\DSP\Source\TransformFunctions/arm_rfft_q15.c ****     int16x8_t       conj = { 1, -1, 1, -1, 1, -1, 1, -1 }; /* conjugate */
 387:.\DSP\Source\TransformFunctions/arm_rfft_q15.c ****     const uint16_t  offsetCoefArr[16] = {
 388:.\DSP\Source\TransformFunctions/arm_rfft_q15.c ****         0, 0, 2, 2, 4, 4, 6, 6,
 389:.\DSP\Source\TransformFunctions/arm_rfft_q15.c ****         0, 1, 0, 1, 0, 1, 0, 1
 390:.\DSP\Source\TransformFunctions/arm_rfft_q15.c ****     };
 391:.\DSP\Source\TransformFunctions/arm_rfft_q15.c **** 
 392:.\DSP\Source\TransformFunctions/arm_rfft_q15.c ****     offsetCoef = vmulq_n_u16(vld1q_u16(offsetCoefArr), modifier) + vld1q_u16(offsetCoefArr + 8);
 393:.\DSP\Source\TransformFunctions/arm_rfft_q15.c **** 
 394:.\DSP\Source\TransformFunctions/arm_rfft_q15.c ****     offset = vaddq_n_u16(offset, (2 * fftLen - 6));
 395:.\DSP\Source\TransformFunctions/arm_rfft_q15.c **** 
 396:.\DSP\Source\TransformFunctions/arm_rfft_q15.c ****     /* Init coefficient pointers */
 397:.\DSP\Source\TransformFunctions/arm_rfft_q15.c ****     pCoefA = &pATable[0];
 398:.\DSP\Source\TransformFunctions/arm_rfft_q15.c ****     pCoefB = &pBTable[0];
 399:.\DSP\Source\TransformFunctions/arm_rfft_q15.c **** 
 400:.\DSP\Source\TransformFunctions/arm_rfft_q15.c ****     const q15_t    *pCoefAb, *pCoefBb;
 401:.\DSP\Source\TransformFunctions/arm_rfft_q15.c ****     pCoefAb = pCoefA;
 402:.\DSP\Source\TransformFunctions/arm_rfft_q15.c ****     pCoefBb = pCoefB;
 403:.\DSP\Source\TransformFunctions/arm_rfft_q15.c **** 
 404:.\DSP\Source\TransformFunctions/arm_rfft_q15.c ****     pIn1 = &pSrc[0];
 405:.\DSP\Source\TransformFunctions/arm_rfft_q15.c **** 
 406:.\DSP\Source\TransformFunctions/arm_rfft_q15.c ****     i = fftLen;
 407:.\DSP\Source\TransformFunctions/arm_rfft_q15.c ****     i = i / 4;
 408:.\DSP\Source\TransformFunctions/arm_rfft_q15.c **** 
 409:.\DSP\Source\TransformFunctions/arm_rfft_q15.c ****     while (i > 0U) {
 410:.\DSP\Source\TransformFunctions/arm_rfft_q15.c ****         q15x8_t         in1 = vld1q_s16(pIn1);
 411:.\DSP\Source\TransformFunctions/arm_rfft_q15.c ****         q15x8_t         in2 = vldrhq_gather_shifted_offset_s16(pSrc, offset);
 412:.\DSP\Source\TransformFunctions/arm_rfft_q15.c ****         q15x8_t         coefA = vldrhq_gather_shifted_offset_s16(pCoefAb, offsetCoef);
 413:.\DSP\Source\TransformFunctions/arm_rfft_q15.c ****         q15x8_t         coefB = vldrhq_gather_shifted_offset_s16(pCoefBb, offsetCoef);
 414:.\DSP\Source\TransformFunctions/arm_rfft_q15.c **** 
 415:.\DSP\Source\TransformFunctions/arm_rfft_q15.c ****         /* can we avoid the conjugate here ? */
 416:.\DSP\Source\TransformFunctions/arm_rfft_q15.c ****         q15x8_t         out = vhaddq_s16(MVE_CMPLX_MULT_FX_AxConjB(in1, coefA, q15x8_t),
 417:.\DSP\Source\TransformFunctions/arm_rfft_q15.c ****                                          vmulq(conj, MVE_CMPLX_MULT_FX_AxB(in2, coefB, q15x8_t)));
 418:.\DSP\Source\TransformFunctions/arm_rfft_q15.c **** 
 419:.\DSP\Source\TransformFunctions/arm_rfft_q15.c ****         vst1q_s16(pDst, out);
 420:.\DSP\Source\TransformFunctions/arm_rfft_q15.c ****         pDst += 8;
 421:.\DSP\Source\TransformFunctions/arm_rfft_q15.c **** 
 422:.\DSP\Source\TransformFunctions/arm_rfft_q15.c ****         offsetCoef = vaddq_n_u16(offsetCoef, modifier * 8);
 423:.\DSP\Source\TransformFunctions/arm_rfft_q15.c ****         offset -= 8;
 424:.\DSP\Source\TransformFunctions/arm_rfft_q15.c **** 
 425:.\DSP\Source\TransformFunctions/arm_rfft_q15.c ****         pIn1 += 8;
 426:.\DSP\Source\TransformFunctions/arm_rfft_q15.c ****         i -= 1;
 427:.\DSP\Source\TransformFunctions/arm_rfft_q15.c ****     }
 428:.\DSP\Source\TransformFunctions/arm_rfft_q15.c **** }
 429:.\DSP\Source\TransformFunctions/arm_rfft_q15.c **** #else
 430:.\DSP\Source\TransformFunctions/arm_rfft_q15.c **** void arm_split_rifft_q15(
 431:.\DSP\Source\TransformFunctions/arm_rfft_q15.c ****         q15_t * pSrc,
 432:.\DSP\Source\TransformFunctions/arm_rfft_q15.c ****         uint32_t fftLen,
 433:.\DSP\Source\TransformFunctions/arm_rfft_q15.c ****   const q15_t * pATable,
 434:.\DSP\Source\TransformFunctions/arm_rfft_q15.c ****   const q15_t * pBTable,
 435:.\DSP\Source\TransformFunctions/arm_rfft_q15.c ****         q15_t * pDst,
 436:.\DSP\Source\TransformFunctions/arm_rfft_q15.c ****         uint32_t modifier)
 437:.\DSP\Source\TransformFunctions/arm_rfft_q15.c **** {
 187              		.loc 1 437 0
 188              		.cfi_startproc
 189              		@ args = 8, pretend = 0, frame = 0
ARM GAS  C:\Users\IVYLIU~1\AppData\Local\Temp\cctEamhT.s 			page 12


 190              		@ frame_needed = 0, uses_anonymous_args = 0
 191              	.LVL27:
 192 0000 2DE9F04F 		push	{r4, r5, r6, r7, r8, r9, r10, fp, lr}
 193              		.cfi_def_cfa_offset 36
 194              		.cfi_offset 4, -36
 195              		.cfi_offset 5, -32
 196              		.cfi_offset 6, -28
 197              		.cfi_offset 7, -24
 198              		.cfi_offset 8, -20
 199              		.cfi_offset 9, -16
 200              		.cfi_offset 10, -12
 201              		.cfi_offset 11, -8
 202              		.cfi_offset 14, -4
 203              	.LVL28:
 438:.\DSP\Source\TransformFunctions/arm_rfft_q15.c ****         uint32_t i;                                    /* Loop Counter */
 439:.\DSP\Source\TransformFunctions/arm_rfft_q15.c ****         q31_t outR, outI;                              /* Temporary variables for output */
 440:.\DSP\Source\TransformFunctions/arm_rfft_q15.c ****   const q15_t *pCoefA, *pCoefB;                        /* Temporary pointers for twiddle factors */
 441:.\DSP\Source\TransformFunctions/arm_rfft_q15.c ****         q15_t *pSrc1, *pSrc2;
 442:.\DSP\Source\TransformFunctions/arm_rfft_q15.c ****         q15_t *pDst1 = &pDst[0];
 443:.\DSP\Source\TransformFunctions/arm_rfft_q15.c **** 
 444:.\DSP\Source\TransformFunctions/arm_rfft_q15.c ****   pCoefA = &pATable[0];
 445:.\DSP\Source\TransformFunctions/arm_rfft_q15.c ****   pCoefB = &pBTable[0];
 446:.\DSP\Source\TransformFunctions/arm_rfft_q15.c **** 
 447:.\DSP\Source\TransformFunctions/arm_rfft_q15.c ****   pSrc1 = &pSrc[0];
 448:.\DSP\Source\TransformFunctions/arm_rfft_q15.c ****   pSrc2 = &pSrc[2 * fftLen];
 204              		.loc 1 448 0
 205 0004 00EB810B 		add	fp, r0, r1, lsl #2
 206              	.LVL29:
 449:.\DSP\Source\TransformFunctions/arm_rfft_q15.c **** 
 450:.\DSP\Source\TransformFunctions/arm_rfft_q15.c ****   i = fftLen;
 451:.\DSP\Source\TransformFunctions/arm_rfft_q15.c ****   while (i > 0U)
 207              		.loc 1 451 0
 208 0008 2FE0     		b	.L6
 209              	.LVL30:
 210              	.L7:
 452:.\DSP\Source\TransformFunctions/arm_rfft_q15.c ****   {
 453:.\DSP\Source\TransformFunctions/arm_rfft_q15.c ****       /*
 454:.\DSP\Source\TransformFunctions/arm_rfft_q15.c ****         outR = (  pIn[2 * i]             * pATable[2 * i]
 455:.\DSP\Source\TransformFunctions/arm_rfft_q15.c ****                 + pIn[2 * i + 1]         * pATable[2 * i + 1]
 456:.\DSP\Source\TransformFunctions/arm_rfft_q15.c ****                 + pIn[2 * n - 2 * i]     * pBTable[2 * i]
 457:.\DSP\Source\TransformFunctions/arm_rfft_q15.c ****                 - pIn[2 * n - 2 * i + 1] * pBTable[2 * i + 1]);
 458:.\DSP\Source\TransformFunctions/arm_rfft_q15.c **** 
 459:.\DSP\Source\TransformFunctions/arm_rfft_q15.c ****         outI = (  pIn[2 * i + 1]         * pATable[2 * i]
 460:.\DSP\Source\TransformFunctions/arm_rfft_q15.c ****                 - pIn[2 * i]             * pATable[2 * i + 1]
 461:.\DSP\Source\TransformFunctions/arm_rfft_q15.c ****                 - pIn[2 * n - 2 * i]     * pBTable[2 * i + 1]
 462:.\DSP\Source\TransformFunctions/arm_rfft_q15.c ****                 - pIn[2 * n - 2 * i + 1] * pBTable[2 * i]);
 463:.\DSP\Source\TransformFunctions/arm_rfft_q15.c ****        */
 464:.\DSP\Source\TransformFunctions/arm_rfft_q15.c **** 
 465:.\DSP\Source\TransformFunctions/arm_rfft_q15.c **** #if defined (ARM_MATH_DSP)
 466:.\DSP\Source\TransformFunctions/arm_rfft_q15.c **** 
 467:.\DSP\Source\TransformFunctions/arm_rfft_q15.c **** #ifndef ARM_MATH_BIG_ENDIAN
 468:.\DSP\Source\TransformFunctions/arm_rfft_q15.c ****       /* pIn[2 * n - 2 * i] * pBTable[2 * i] - pIn[2 * n - 2 * i + 1] * pBTable[2 * i + 1]) */
 469:.\DSP\Source\TransformFunctions/arm_rfft_q15.c ****       outR = __SMUSD(read_q15x2(pSrc2), read_q15x2((q15_t *) pCoefB));
 470:.\DSP\Source\TransformFunctions/arm_rfft_q15.c **** #else
 471:.\DSP\Source\TransformFunctions/arm_rfft_q15.c ****       /* -(-pIn[2 * n - 2 * i] * pBTable[2 * i] + pIn[2 * n - 2 * i + 1] * pBTable[2 * i + 1])) */
 472:.\DSP\Source\TransformFunctions/arm_rfft_q15.c ****       outR = -(__SMUSD(read_q15x2(pSrc2), read_q15x2((q15_t *) pCoefB)));
 473:.\DSP\Source\TransformFunctions/arm_rfft_q15.c **** #endif /* #ifndef ARM_MATH_BIG_ENDIAN */
ARM GAS  C:\Users\IVYLIU~1\AppData\Local\Temp\cctEamhT.s 			page 13


 474:.\DSP\Source\TransformFunctions/arm_rfft_q15.c **** 
 475:.\DSP\Source\TransformFunctions/arm_rfft_q15.c ****       /* pIn[2 * i] * pATable[2 * i] + pIn[2 * i + 1] * pATable[2 * i + 1] + pIn[2 * n - 2 * i] * p
 476:.\DSP\Source\TransformFunctions/arm_rfft_q15.c ****       outR = __SMLAD(read_q15x2(pSrc1), read_q15x2 ((q15_t *) pCoefA), outR) >> 16U;
 477:.\DSP\Source\TransformFunctions/arm_rfft_q15.c **** 
 478:.\DSP\Source\TransformFunctions/arm_rfft_q15.c ****       /* -pIn[2 * n - 2 * i] * pBTable[2 * i + 1] + pIn[2 * n - 2 * i + 1] * pBTable[2 * i] */
 479:.\DSP\Source\TransformFunctions/arm_rfft_q15.c ****       outI = __SMUADX(read_q15x2_da (&pSrc2), read_q15x2((q15_t *) pCoefB));
 480:.\DSP\Source\TransformFunctions/arm_rfft_q15.c **** 
 481:.\DSP\Source\TransformFunctions/arm_rfft_q15.c ****       /* pIn[2 * i + 1] * pATable[2 * i] - pIn[2 * i] * pATable[2 * i + 1] */
 482:.\DSP\Source\TransformFunctions/arm_rfft_q15.c **** #ifndef ARM_MATH_BIG_ENDIAN
 483:.\DSP\Source\TransformFunctions/arm_rfft_q15.c ****       outI = __SMLSDX(read_q15x2 ((q15_t *) pCoefA), read_q15x2_ia (&pSrc1), -outI);
 484:.\DSP\Source\TransformFunctions/arm_rfft_q15.c **** #else
 485:.\DSP\Source\TransformFunctions/arm_rfft_q15.c ****       outI = __SMLSDX(read_q15x2_ia (&pSrc1), read_q15x2 ((q15_t *) pCoefA), -outI);
 486:.\DSP\Source\TransformFunctions/arm_rfft_q15.c **** #endif /* #ifndef ARM_MATH_BIG_ENDIAN */
 487:.\DSP\Source\TransformFunctions/arm_rfft_q15.c **** 
 488:.\DSP\Source\TransformFunctions/arm_rfft_q15.c ****       /* write output */
 489:.\DSP\Source\TransformFunctions/arm_rfft_q15.c **** #ifndef ARM_MATH_BIG_ENDIAN
 490:.\DSP\Source\TransformFunctions/arm_rfft_q15.c ****       write_q15x2_ia (&pDst1, __PKHBT(outR, (outI >> 16U), 16));
 491:.\DSP\Source\TransformFunctions/arm_rfft_q15.c **** #else
 492:.\DSP\Source\TransformFunctions/arm_rfft_q15.c ****       write_q15x2_ia (&pDst1, __PKHBT((outI >> 16U), outR, 16));
 493:.\DSP\Source\TransformFunctions/arm_rfft_q15.c **** #endif /* #ifndef ARM_MATH_BIG_ENDIAN */
 494:.\DSP\Source\TransformFunctions/arm_rfft_q15.c **** 
 495:.\DSP\Source\TransformFunctions/arm_rfft_q15.c **** 
 496:.\DSP\Source\TransformFunctions/arm_rfft_q15.c **** #else  /* #if defined (ARM_MATH_DSP) */
 497:.\DSP\Source\TransformFunctions/arm_rfft_q15.c **** 
 498:.\DSP\Source\TransformFunctions/arm_rfft_q15.c ****       outR = *pSrc2 * *pCoefB;
 211              		.loc 1 498 0
 212 000a BBF90060 		ldrsh	r6, [fp]
 213 000e B3F90050 		ldrsh	r5, [r3]
 214 0012 05FB06F4 		mul	r4, r5, r6
 215              	.LVL31:
 499:.\DSP\Source\TransformFunctions/arm_rfft_q15.c ****       outR = outR - (*(pSrc2 + 1) * *(pCoefB + 1));
 216              		.loc 1 499 0
 217 0016 BBF902C0 		ldrsh	ip, [fp, #2]
 218 001a B3F90280 		ldrsh	r8, [r3, #2]
 219 001e 08FB1C44 		mls	r4, r8, ip, r4
 220              	.LVL32:
 500:.\DSP\Source\TransformFunctions/arm_rfft_q15.c ****       outR = outR + (*pSrc1 * *pCoefA);
 221              		.loc 1 500 0
 222 0022 B0F90070 		ldrsh	r7, [r0]
 223 0026 B2F900A0 		ldrsh	r10, [r2]
 224 002a 0AFB0744 		mla	r4, r10, r7, r4
 225              	.LVL33:
 501:.\DSP\Source\TransformFunctions/arm_rfft_q15.c ****       outR = (outR + (*(pSrc1 + 1) * *(pCoefA + 1))) >> 16;
 226              		.loc 1 501 0
 227 002e B0F902E0 		ldrsh	lr, [r0, #2]
 228 0032 B2F90290 		ldrsh	r9, [r2, #2]
 229 0036 09FB0E44 		mla	r4, r9, lr, r4
 230              	.LVL34:
 502:.\DSP\Source\TransformFunctions/arm_rfft_q15.c **** 
 503:.\DSP\Source\TransformFunctions/arm_rfft_q15.c ****       outI = *(pSrc1 + 1) * *pCoefA;
 231              		.loc 1 503 0
 232 003a 0EFB0AFE 		mul	lr, lr, r10
 233              	.LVL35:
 504:.\DSP\Source\TransformFunctions/arm_rfft_q15.c ****       outI = outI - (*pSrc1 * *(pCoefA + 1));
 234              		.loc 1 504 0
 235 003e 09FB17EE 		mls	lr, r9, r7, lr
 236              	.LVL36:
ARM GAS  C:\Users\IVYLIU~1\AppData\Local\Temp\cctEamhT.s 			page 14


 505:.\DSP\Source\TransformFunctions/arm_rfft_q15.c ****       outI = outI - (*pSrc2 * *(pCoefB + 1));
 237              		.loc 1 505 0
 238 0042 08FB16E6 		mls	r6, r8, r6, lr
 239              	.LVL37:
 506:.\DSP\Source\TransformFunctions/arm_rfft_q15.c ****       outI = outI - (*(pSrc2 + 1) * *(pCoefB));
 240              		.loc 1 506 0
 241 0046 0CFB1565 		mls	r5, ip, r5, r6
 242              	.LVL38:
 507:.\DSP\Source\TransformFunctions/arm_rfft_q15.c **** 
 508:.\DSP\Source\TransformFunctions/arm_rfft_q15.c ****       /* update input pointers */
 509:.\DSP\Source\TransformFunctions/arm_rfft_q15.c ****       pSrc1 += 2U;
 243              		.loc 1 509 0
 244 004a 0430     		adds	r0, r0, #4
 245              	.LVL39:
 510:.\DSP\Source\TransformFunctions/arm_rfft_q15.c ****       pSrc2 -= 2U;
 246              		.loc 1 510 0
 247 004c ABF1040B 		sub	fp, fp, #4
 248              	.LVL40:
 511:.\DSP\Source\TransformFunctions/arm_rfft_q15.c **** 
 512:.\DSP\Source\TransformFunctions/arm_rfft_q15.c ****       /* write output */
 513:.\DSP\Source\TransformFunctions/arm_rfft_q15.c ****       *pDst1++ = (q15_t) outR;
 249              		.loc 1 513 0
 250 0050 240C     		lsrs	r4, r4, #16
 251              	.LVL41:
 252 0052 099E     		ldr	r6, [sp, #36]
 253 0054 26F8044B 		strh	r4, [r6], #4	@ movhi
 254              	.LVL42:
 514:.\DSP\Source\TransformFunctions/arm_rfft_q15.c ****       *pDst1++ = (q15_t) (outI >> 16);
 255              		.loc 1 514 0
 256 0058 2D0C     		lsrs	r5, r5, #16
 257              	.LVL43:
 258 005a 099C     		ldr	r4, [sp, #36]
 259 005c 6580     		strh	r5, [r4, #2]	@ movhi
 515:.\DSP\Source\TransformFunctions/arm_rfft_q15.c **** 
 516:.\DSP\Source\TransformFunctions/arm_rfft_q15.c **** #endif /* #if defined (ARM_MATH_DSP) */
 517:.\DSP\Source\TransformFunctions/arm_rfft_q15.c **** 
 518:.\DSP\Source\TransformFunctions/arm_rfft_q15.c ****       /* update coefficient pointer */
 519:.\DSP\Source\TransformFunctions/arm_rfft_q15.c ****       pCoefB = pCoefB + (2 * modifier);
 260              		.loc 1 519 0
 261 005e 0A9C     		ldr	r4, [sp, #40]
 262 0060 A400     		lsls	r4, r4, #2
 263 0062 2344     		add	r3, r3, r4
 264              	.LVL44:
 520:.\DSP\Source\TransformFunctions/arm_rfft_q15.c ****       pCoefA = pCoefA + (2 * modifier);
 265              		.loc 1 520 0
 266 0064 2244     		add	r2, r2, r4
 267              	.LVL45:
 521:.\DSP\Source\TransformFunctions/arm_rfft_q15.c **** 
 522:.\DSP\Source\TransformFunctions/arm_rfft_q15.c ****       i--;
 268              		.loc 1 522 0
 269 0066 0139     		subs	r1, r1, #1
 270              	.LVL46:
 514:.\DSP\Source\TransformFunctions/arm_rfft_q15.c **** 
 271              		.loc 1 514 0
 272 0068 0996     		str	r6, [sp, #36]
 273              	.LVL47:
 274              	.L6:
ARM GAS  C:\Users\IVYLIU~1\AppData\Local\Temp\cctEamhT.s 			page 15


 451:.\DSP\Source\TransformFunctions/arm_rfft_q15.c ****   {
 275              		.loc 1 451 0
 276 006a 0029     		cmp	r1, #0
 277 006c CDD1     		bne	.L7
 523:.\DSP\Source\TransformFunctions/arm_rfft_q15.c ****   }
 524:.\DSP\Source\TransformFunctions/arm_rfft_q15.c **** 
 525:.\DSP\Source\TransformFunctions/arm_rfft_q15.c **** }
 278              		.loc 1 525 0
 279 006e BDE8F08F 		pop	{r4, r5, r6, r7, r8, r9, r10, fp, pc}
 280              		.cfi_endproc
 281              	.LFE86:
 282              		.size	arm_split_rifft_q15, .-arm_split_rifft_q15
 283 0072 00BF     		.section	.text.arm_rfft_q15,"ax",%progbits
 284              		.align	2
 285              		.global	arm_rfft_q15
 286              		.thumb
 287              		.thumb_func
 288              		.type	arm_rfft_q15, %function
 289              	arm_rfft_q15:
 290              	.LFB84:
  86:.\DSP\Source\TransformFunctions/arm_rfft_q15.c **** #if defined(ARM_MATH_MVEI) && !defined(ARM_MATH_AUTOVECTORIZE)
 291              		.loc 1 86 0
 292              		.cfi_startproc
 293              		@ args = 0, pretend = 0, frame = 0
 294              		@ frame_needed = 0, uses_anonymous_args = 0
 295              	.LVL48:
 296 0000 2DE9F041 		push	{r4, r5, r6, r7, r8, lr}
 297              		.cfi_def_cfa_offset 24
 298              		.cfi_offset 4, -24
 299              		.cfi_offset 5, -20
 300              		.cfi_offset 6, -16
 301              		.cfi_offset 7, -12
 302              		.cfi_offset 8, -8
 303              		.cfi_offset 14, -4
 304 0004 82B0     		sub	sp, sp, #8
 305              		.cfi_def_cfa_offset 32
 306 0006 0446     		mov	r4, r0
 307 0008 0E46     		mov	r6, r1
 308 000a 1746     		mov	r7, r2
  90:.\DSP\Source\TransformFunctions/arm_rfft_q15.c **** #endif
 309              		.loc 1 90 0
 310 000c D0F81480 		ldr	r8, [r0, #20]
 311              	.LVL49:
  92:.\DSP\Source\TransformFunctions/arm_rfft_q15.c **** 
 312              		.loc 1 92 0
 313 0010 0168     		ldr	r1, [r0]
 314              	.LVL50:
 315 0012 4D08     		lsrs	r5, r1, #1
 316              	.LVL51:
  95:.\DSP\Source\TransformFunctions/arm_rfft_q15.c ****   {
 317              		.loc 1 95 0
 318 0014 0279     		ldrb	r2, [r0, #4]	@ zero_extendqisi2
 319              	.LVL52:
 320 0016 012A     		cmp	r2, #1
 321 0018 15D1     		bne	.L10
  98:.\DSP\Source\TransformFunctions/arm_rfft_q15.c **** 
 322              		.loc 1 98 0
ARM GAS  C:\Users\IVYLIU~1\AppData\Local\Temp\cctEamhT.s 			page 16


 323 001a 0097     		str	r7, [sp]
 324 001c 8368     		ldr	r3, [r0, #8]
 325 001e 0193     		str	r3, [sp, #4]
 326 0020 3046     		mov	r0, r6
 327              	.LVL53:
 328 0022 2946     		mov	r1, r5
 329 0024 E268     		ldr	r2, [r4, #12]
 330 0026 2369     		ldr	r3, [r4, #16]
 331 0028 FFF7FEFF 		bl	arm_split_rifft_q15
 332              	.LVL54:
 101:.\DSP\Source\TransformFunctions/arm_rfft_q15.c **** 
 333              		.loc 1 101 0
 334 002c 4046     		mov	r0, r8
 335 002e 3946     		mov	r1, r7
 336 0030 2279     		ldrb	r2, [r4, #4]	@ zero_extendqisi2
 337 0032 6379     		ldrb	r3, [r4, #5]	@ zero_extendqisi2
 338 0034 FFF7FEFF 		bl	arm_cfft_q15
 339              	.LVL55:
 103:.\DSP\Source\TransformFunctions/arm_rfft_q15.c ****   }
 340              		.loc 1 103 0
 341 0038 3846     		mov	r0, r7
 342 003a 0121     		movs	r1, #1
 343 003c 3A46     		mov	r2, r7
 344 003e 2368     		ldr	r3, [r4]
 345 0040 FFF7FEFF 		bl	arm_shift_q15
 346              	.LVL56:
 347 0044 0DE0     		b	.L9
 348              	.LVL57:
 349              	.L10:
 110:.\DSP\Source\TransformFunctions/arm_rfft_q15.c **** 
 350              		.loc 1 110 0
 351 0046 4046     		mov	r0, r8
 352              	.LVL58:
 353 0048 3146     		mov	r1, r6
 354 004a 6379     		ldrb	r3, [r4, #5]	@ zero_extendqisi2
 355 004c FFF7FEFF 		bl	arm_cfft_q15
 356              	.LVL59:
 113:.\DSP\Source\TransformFunctions/arm_rfft_q15.c ****   }
 357              		.loc 1 113 0
 358 0050 E268     		ldr	r2, [r4, #12]
 359 0052 2369     		ldr	r3, [r4, #16]
 360 0054 0097     		str	r7, [sp]
 361 0056 A168     		ldr	r1, [r4, #8]
 362 0058 0191     		str	r1, [sp, #4]
 363 005a 3046     		mov	r0, r6
 364 005c 2946     		mov	r1, r5
 365 005e FFF7FEFF 		bl	arm_split_rfft_q15
 366              	.LVL60:
 367              	.L9:
 116:.\DSP\Source\TransformFunctions/arm_rfft_q15.c **** 
 368              		.loc 1 116 0
 369 0062 02B0     		add	sp, sp, #8
 370              		.cfi_def_cfa_offset 24
 371              		@ sp needed
 372 0064 BDE8F081 		pop	{r4, r5, r6, r7, r8, pc}
 373              		.cfi_endproc
 374              	.LFE84:
ARM GAS  C:\Users\IVYLIU~1\AppData\Local\Temp\cctEamhT.s 			page 17


 375              		.size	arm_rfft_q15, .-arm_rfft_q15
 376              		.text
 377              	.Letext0:
 378              		.file 2 "c:\\program files (x86)\\cypress\\psoc creator\\3.3\\psoc creator\\import\\gnu\\arm\\4.9.
 379              		.file 3 "c:\\program files (x86)\\cypress\\psoc creator\\3.3\\psoc creator\\import\\gnu\\arm\\4.9.
 380              		.file 4 ".\\DSP\\Include/arm_math_types.h"
 381              		.file 5 ".\\DSP\\Include/dsp/transform_functions.h"
 382              		.file 6 ".\\Core\\Include/cmsis_gcc.h"
 383              		.file 7 ".\\DSP\\Include/dsp/basic_math_functions.h"