ARM GAS  C:\Users\IVYLIU~1\AppData\Local\Temp\ccykkgfT.s 			page 1


   1              		.syntax unified
   2              		.cpu cortex-m3
   3              		.fpu softvfp
   4              		.eabi_attribute 20, 1
   5              		.eabi_attribute 21, 1
   6              		.eabi_attribute 23, 3
   7              		.eabi_attribute 24, 1
   8              		.eabi_attribute 25, 1
   9              		.eabi_attribute 26, 1
  10              		.eabi_attribute 30, 1
  11              		.eabi_attribute 34, 1
  12              		.eabi_attribute 18, 4
  13              		.thumb
  14              		.file	"arm_sub_q15.c"
  15              		.text
  16              	.Ltext0:
  17              		.cfi_sections	.debug_frame
  18              		.section	.text.arm_sub_q15,"ax",%progbits
  19              		.align	2
  20              		.global	arm_sub_q15
  21              		.thumb
  22              		.thumb_func
  23              		.type	arm_sub_q15, %function
  24              	arm_sub_q15:
  25              	.LFB83:
  26              		.file 1 ".\\DSP\\Source\\BasicMathFunctions\\arm_sub_q15.c"
   1:.\DSP\Source\BasicMathFunctions/arm_sub_q15.c **** /* ----------------------------------------------------------------------
   2:.\DSP\Source\BasicMathFunctions/arm_sub_q15.c ****  * Project:      CMSIS DSP Library
   3:.\DSP\Source\BasicMathFunctions/arm_sub_q15.c ****  * Title:        arm_sub_q15.c
   4:.\DSP\Source\BasicMathFunctions/arm_sub_q15.c ****  * Description:  Q15 vector subtraction
   5:.\DSP\Source\BasicMathFunctions/arm_sub_q15.c ****  *
   6:.\DSP\Source\BasicMathFunctions/arm_sub_q15.c ****  * $Date:        23 April 2021
   7:.\DSP\Source\BasicMathFunctions/arm_sub_q15.c ****  * $Revision:    V1.9.0
   8:.\DSP\Source\BasicMathFunctions/arm_sub_q15.c ****  *
   9:.\DSP\Source\BasicMathFunctions/arm_sub_q15.c ****  * Target Processor: Cortex-M and Cortex-A cores
  10:.\DSP\Source\BasicMathFunctions/arm_sub_q15.c ****  * -------------------------------------------------------------------- */
  11:.\DSP\Source\BasicMathFunctions/arm_sub_q15.c **** /*
  12:.\DSP\Source\BasicMathFunctions/arm_sub_q15.c ****  * Copyright (C) 2010-2021 ARM Limited or its affiliates. All rights reserved.
  13:.\DSP\Source\BasicMathFunctions/arm_sub_q15.c ****  *
  14:.\DSP\Source\BasicMathFunctions/arm_sub_q15.c ****  * SPDX-License-Identifier: Apache-2.0
  15:.\DSP\Source\BasicMathFunctions/arm_sub_q15.c ****  *
  16:.\DSP\Source\BasicMathFunctions/arm_sub_q15.c ****  * Licensed under the Apache License, Version 2.0 (the License); you may
  17:.\DSP\Source\BasicMathFunctions/arm_sub_q15.c ****  * not use this file except in compliance with the License.
  18:.\DSP\Source\BasicMathFunctions/arm_sub_q15.c ****  * You may obtain a copy of the License at
  19:.\DSP\Source\BasicMathFunctions/arm_sub_q15.c ****  *
  20:.\DSP\Source\BasicMathFunctions/arm_sub_q15.c ****  * www.apache.org/licenses/LICENSE-2.0
  21:.\DSP\Source\BasicMathFunctions/arm_sub_q15.c ****  *
  22:.\DSP\Source\BasicMathFunctions/arm_sub_q15.c ****  * Unless required by applicable law or agreed to in writing, software
  23:.\DSP\Source\BasicMathFunctions/arm_sub_q15.c ****  * distributed under the License is distributed on an AS IS BASIS, WITHOUT
  24:.\DSP\Source\BasicMathFunctions/arm_sub_q15.c ****  * WARRANTIES OR CONDITIONS OF ANY KIND, either express or implied.
  25:.\DSP\Source\BasicMathFunctions/arm_sub_q15.c ****  * See the License for the specific language governing permissions and
  26:.\DSP\Source\BasicMathFunctions/arm_sub_q15.c ****  * limitations under the License.
  27:.\DSP\Source\BasicMathFunctions/arm_sub_q15.c ****  */
  28:.\DSP\Source\BasicMathFunctions/arm_sub_q15.c **** 
  29:.\DSP\Source\BasicMathFunctions/arm_sub_q15.c **** #include "dsp/basic_math_functions.h"
  30:.\DSP\Source\BasicMathFunctions/arm_sub_q15.c **** 
  31:.\DSP\Source\BasicMathFunctions/arm_sub_q15.c **** /**
ARM GAS  C:\Users\IVYLIU~1\AppData\Local\Temp\ccykkgfT.s 			page 2


  32:.\DSP\Source\BasicMathFunctions/arm_sub_q15.c ****   @ingroup groupMath
  33:.\DSP\Source\BasicMathFunctions/arm_sub_q15.c ****  */
  34:.\DSP\Source\BasicMathFunctions/arm_sub_q15.c **** 
  35:.\DSP\Source\BasicMathFunctions/arm_sub_q15.c **** /**
  36:.\DSP\Source\BasicMathFunctions/arm_sub_q15.c ****   @addtogroup BasicSub
  37:.\DSP\Source\BasicMathFunctions/arm_sub_q15.c ****   @{
  38:.\DSP\Source\BasicMathFunctions/arm_sub_q15.c ****  */
  39:.\DSP\Source\BasicMathFunctions/arm_sub_q15.c **** 
  40:.\DSP\Source\BasicMathFunctions/arm_sub_q15.c **** /**
  41:.\DSP\Source\BasicMathFunctions/arm_sub_q15.c ****   @brief         Q15 vector subtraction.
  42:.\DSP\Source\BasicMathFunctions/arm_sub_q15.c ****   @param[in]     pSrcA      points to the first input vector
  43:.\DSP\Source\BasicMathFunctions/arm_sub_q15.c ****   @param[in]     pSrcB      points to the second input vector
  44:.\DSP\Source\BasicMathFunctions/arm_sub_q15.c ****   @param[out]    pDst       points to the output vector
  45:.\DSP\Source\BasicMathFunctions/arm_sub_q15.c ****   @param[in]     blockSize  number of samples in each vector
  46:.\DSP\Source\BasicMathFunctions/arm_sub_q15.c ****   @return        none
  47:.\DSP\Source\BasicMathFunctions/arm_sub_q15.c **** 
  48:.\DSP\Source\BasicMathFunctions/arm_sub_q15.c ****   @par           Scaling and Overflow Behavior
  49:.\DSP\Source\BasicMathFunctions/arm_sub_q15.c ****                    The function uses saturating arithmetic.
  50:.\DSP\Source\BasicMathFunctions/arm_sub_q15.c ****                    Results outside of the allowable Q15 range [0x8000 0x7FFF] are saturated.
  51:.\DSP\Source\BasicMathFunctions/arm_sub_q15.c ****  */
  52:.\DSP\Source\BasicMathFunctions/arm_sub_q15.c **** 
  53:.\DSP\Source\BasicMathFunctions/arm_sub_q15.c **** #if defined(ARM_MATH_MVEI) && !defined(ARM_MATH_AUTOVECTORIZE)
  54:.\DSP\Source\BasicMathFunctions/arm_sub_q15.c **** 
  55:.\DSP\Source\BasicMathFunctions/arm_sub_q15.c **** #include "arm_helium_utils.h"
  56:.\DSP\Source\BasicMathFunctions/arm_sub_q15.c **** 
  57:.\DSP\Source\BasicMathFunctions/arm_sub_q15.c **** void arm_sub_q15(
  58:.\DSP\Source\BasicMathFunctions/arm_sub_q15.c ****     const q15_t * pSrcA,
  59:.\DSP\Source\BasicMathFunctions/arm_sub_q15.c ****     const q15_t * pSrcB,
  60:.\DSP\Source\BasicMathFunctions/arm_sub_q15.c ****     q15_t * pDst,
  61:.\DSP\Source\BasicMathFunctions/arm_sub_q15.c ****     uint32_t blockSize)
  62:.\DSP\Source\BasicMathFunctions/arm_sub_q15.c **** {
  63:.\DSP\Source\BasicMathFunctions/arm_sub_q15.c ****     uint32_t  blkCnt;           /* loop counters */
  64:.\DSP\Source\BasicMathFunctions/arm_sub_q15.c ****     q15x8_t vecA;
  65:.\DSP\Source\BasicMathFunctions/arm_sub_q15.c ****     q15x8_t vecB;
  66:.\DSP\Source\BasicMathFunctions/arm_sub_q15.c **** 
  67:.\DSP\Source\BasicMathFunctions/arm_sub_q15.c ****     /* Compute 8 outputs at a time */
  68:.\DSP\Source\BasicMathFunctions/arm_sub_q15.c ****     blkCnt = blockSize >> 3;
  69:.\DSP\Source\BasicMathFunctions/arm_sub_q15.c ****     while (blkCnt > 0U)
  70:.\DSP\Source\BasicMathFunctions/arm_sub_q15.c ****     {
  71:.\DSP\Source\BasicMathFunctions/arm_sub_q15.c ****         /*
  72:.\DSP\Source\BasicMathFunctions/arm_sub_q15.c ****          * C = A - B
  73:.\DSP\Source\BasicMathFunctions/arm_sub_q15.c ****          * Subtract and then store the results in the destination buffer.
  74:.\DSP\Source\BasicMathFunctions/arm_sub_q15.c ****          */
  75:.\DSP\Source\BasicMathFunctions/arm_sub_q15.c ****         vecA = vld1q(pSrcA);
  76:.\DSP\Source\BasicMathFunctions/arm_sub_q15.c ****         vecB = vld1q(pSrcB);
  77:.\DSP\Source\BasicMathFunctions/arm_sub_q15.c ****         vst1q(pDst, vqsubq(vecA, vecB));
  78:.\DSP\Source\BasicMathFunctions/arm_sub_q15.c ****         /*
  79:.\DSP\Source\BasicMathFunctions/arm_sub_q15.c ****          * Decrement the blockSize loop counter
  80:.\DSP\Source\BasicMathFunctions/arm_sub_q15.c ****          */
  81:.\DSP\Source\BasicMathFunctions/arm_sub_q15.c ****         blkCnt--;
  82:.\DSP\Source\BasicMathFunctions/arm_sub_q15.c ****         /*
  83:.\DSP\Source\BasicMathFunctions/arm_sub_q15.c ****          * advance vector source and destination pointers
  84:.\DSP\Source\BasicMathFunctions/arm_sub_q15.c ****          */
  85:.\DSP\Source\BasicMathFunctions/arm_sub_q15.c ****         pSrcA  += 8;
  86:.\DSP\Source\BasicMathFunctions/arm_sub_q15.c ****         pSrcB  += 8;
  87:.\DSP\Source\BasicMathFunctions/arm_sub_q15.c ****         pDst   += 8;
  88:.\DSP\Source\BasicMathFunctions/arm_sub_q15.c ****     }
ARM GAS  C:\Users\IVYLIU~1\AppData\Local\Temp\ccykkgfT.s 			page 3


  89:.\DSP\Source\BasicMathFunctions/arm_sub_q15.c ****     /*
  90:.\DSP\Source\BasicMathFunctions/arm_sub_q15.c ****      * tail
  91:.\DSP\Source\BasicMathFunctions/arm_sub_q15.c ****      */
  92:.\DSP\Source\BasicMathFunctions/arm_sub_q15.c ****     blkCnt = blockSize & 7;
  93:.\DSP\Source\BasicMathFunctions/arm_sub_q15.c ****     if (blkCnt > 0U)
  94:.\DSP\Source\BasicMathFunctions/arm_sub_q15.c ****     {
  95:.\DSP\Source\BasicMathFunctions/arm_sub_q15.c ****         mve_pred16_t p0 = vctp16q(blkCnt);
  96:.\DSP\Source\BasicMathFunctions/arm_sub_q15.c ****         vecA = vld1q(pSrcA);
  97:.\DSP\Source\BasicMathFunctions/arm_sub_q15.c ****         vecB = vld1q(pSrcB);
  98:.\DSP\Source\BasicMathFunctions/arm_sub_q15.c ****         vstrhq_p(pDst, vqsubq(vecA, vecB), p0);
  99:.\DSP\Source\BasicMathFunctions/arm_sub_q15.c ****     }
 100:.\DSP\Source\BasicMathFunctions/arm_sub_q15.c **** }
 101:.\DSP\Source\BasicMathFunctions/arm_sub_q15.c **** 
 102:.\DSP\Source\BasicMathFunctions/arm_sub_q15.c **** 
 103:.\DSP\Source\BasicMathFunctions/arm_sub_q15.c **** #else
 104:.\DSP\Source\BasicMathFunctions/arm_sub_q15.c **** void arm_sub_q15(
 105:.\DSP\Source\BasicMathFunctions/arm_sub_q15.c ****   const q15_t * pSrcA,
 106:.\DSP\Source\BasicMathFunctions/arm_sub_q15.c ****   const q15_t * pSrcB,
 107:.\DSP\Source\BasicMathFunctions/arm_sub_q15.c ****         q15_t * pDst,
 108:.\DSP\Source\BasicMathFunctions/arm_sub_q15.c ****         uint32_t blockSize)
 109:.\DSP\Source\BasicMathFunctions/arm_sub_q15.c **** {
  27              		.loc 1 109 0
  28              		.cfi_startproc
  29              		@ args = 0, pretend = 0, frame = 0
  30              		@ frame_needed = 0, uses_anonymous_args = 0
  31              		@ link register save eliminated.
  32              	.LVL0:
  33 0000 70B4     		push	{r4, r5, r6}
  34              		.cfi_def_cfa_offset 12
  35              		.cfi_offset 4, -12
  36              		.cfi_offset 5, -8
  37              		.cfi_offset 6, -4
  38              	.LVL1:
 110:.\DSP\Source\BasicMathFunctions/arm_sub_q15.c ****         uint32_t blkCnt;                               /* Loop counter */
 111:.\DSP\Source\BasicMathFunctions/arm_sub_q15.c **** 
 112:.\DSP\Source\BasicMathFunctions/arm_sub_q15.c **** #if defined (ARM_MATH_LOOPUNROLL)
 113:.\DSP\Source\BasicMathFunctions/arm_sub_q15.c **** 
 114:.\DSP\Source\BasicMathFunctions/arm_sub_q15.c **** #if defined (ARM_MATH_DSP)
 115:.\DSP\Source\BasicMathFunctions/arm_sub_q15.c ****   q31_t inA1, inA2;
 116:.\DSP\Source\BasicMathFunctions/arm_sub_q15.c ****   q31_t inB1, inB2;
 117:.\DSP\Source\BasicMathFunctions/arm_sub_q15.c **** #endif
 118:.\DSP\Source\BasicMathFunctions/arm_sub_q15.c **** 
 119:.\DSP\Source\BasicMathFunctions/arm_sub_q15.c ****   /* Loop unrolling: Compute 4 outputs at a time */
 120:.\DSP\Source\BasicMathFunctions/arm_sub_q15.c ****   blkCnt = blockSize >> 2U;
 121:.\DSP\Source\BasicMathFunctions/arm_sub_q15.c **** 
 122:.\DSP\Source\BasicMathFunctions/arm_sub_q15.c ****   while (blkCnt > 0U)
 123:.\DSP\Source\BasicMathFunctions/arm_sub_q15.c ****   {
 124:.\DSP\Source\BasicMathFunctions/arm_sub_q15.c ****     /* C = A - B */
 125:.\DSP\Source\BasicMathFunctions/arm_sub_q15.c **** 
 126:.\DSP\Source\BasicMathFunctions/arm_sub_q15.c **** #if defined (ARM_MATH_DSP)
 127:.\DSP\Source\BasicMathFunctions/arm_sub_q15.c ****     /* read 2 times 2 samples at a time from sourceA */
 128:.\DSP\Source\BasicMathFunctions/arm_sub_q15.c ****     inA1 = read_q15x2_ia (&pSrcA);
 129:.\DSP\Source\BasicMathFunctions/arm_sub_q15.c ****     inA2 = read_q15x2_ia (&pSrcA);
 130:.\DSP\Source\BasicMathFunctions/arm_sub_q15.c ****     /* read 2 times 2 samples at a time from sourceB */
 131:.\DSP\Source\BasicMathFunctions/arm_sub_q15.c ****     inB1 = read_q15x2_ia (&pSrcB);
 132:.\DSP\Source\BasicMathFunctions/arm_sub_q15.c ****     inB2 = read_q15x2_ia (&pSrcB);
 133:.\DSP\Source\BasicMathFunctions/arm_sub_q15.c **** 
ARM GAS  C:\Users\IVYLIU~1\AppData\Local\Temp\ccykkgfT.s 			page 4


 134:.\DSP\Source\BasicMathFunctions/arm_sub_q15.c ****     /* Subtract and store 2 times 2 samples at a time */
 135:.\DSP\Source\BasicMathFunctions/arm_sub_q15.c ****     write_q15x2_ia (&pDst, __QSUB16(inA1, inB1));
 136:.\DSP\Source\BasicMathFunctions/arm_sub_q15.c ****     write_q15x2_ia (&pDst, __QSUB16(inA2, inB2));
 137:.\DSP\Source\BasicMathFunctions/arm_sub_q15.c **** #else
 138:.\DSP\Source\BasicMathFunctions/arm_sub_q15.c ****     *pDst++ = (q15_t) __SSAT(((q31_t) *pSrcA++ - *pSrcB++), 16);
 139:.\DSP\Source\BasicMathFunctions/arm_sub_q15.c ****     *pDst++ = (q15_t) __SSAT(((q31_t) *pSrcA++ - *pSrcB++), 16);
 140:.\DSP\Source\BasicMathFunctions/arm_sub_q15.c ****     *pDst++ = (q15_t) __SSAT(((q31_t) *pSrcA++ - *pSrcB++), 16);
 141:.\DSP\Source\BasicMathFunctions/arm_sub_q15.c ****     *pDst++ = (q15_t) __SSAT(((q31_t) *pSrcA++ - *pSrcB++), 16);
 142:.\DSP\Source\BasicMathFunctions/arm_sub_q15.c **** #endif
 143:.\DSP\Source\BasicMathFunctions/arm_sub_q15.c **** 
 144:.\DSP\Source\BasicMathFunctions/arm_sub_q15.c ****     /* Decrement loop counter */
 145:.\DSP\Source\BasicMathFunctions/arm_sub_q15.c ****     blkCnt--;
 146:.\DSP\Source\BasicMathFunctions/arm_sub_q15.c ****   }
 147:.\DSP\Source\BasicMathFunctions/arm_sub_q15.c **** 
 148:.\DSP\Source\BasicMathFunctions/arm_sub_q15.c ****   /* Loop unrolling: Compute remaining outputs */
 149:.\DSP\Source\BasicMathFunctions/arm_sub_q15.c ****   blkCnt = blockSize % 0x4U;
 150:.\DSP\Source\BasicMathFunctions/arm_sub_q15.c **** 
 151:.\DSP\Source\BasicMathFunctions/arm_sub_q15.c **** #else
 152:.\DSP\Source\BasicMathFunctions/arm_sub_q15.c **** 
 153:.\DSP\Source\BasicMathFunctions/arm_sub_q15.c ****   /* Initialize blkCnt with number of samples */
 154:.\DSP\Source\BasicMathFunctions/arm_sub_q15.c ****   blkCnt = blockSize;
 155:.\DSP\Source\BasicMathFunctions/arm_sub_q15.c **** 
 156:.\DSP\Source\BasicMathFunctions/arm_sub_q15.c **** #endif /* #if defined (ARM_MATH_LOOPUNROLL) */
 157:.\DSP\Source\BasicMathFunctions/arm_sub_q15.c **** 
 158:.\DSP\Source\BasicMathFunctions/arm_sub_q15.c ****   while (blkCnt > 0U)
  39              		.loc 1 158 0
  40 0002 0EE0     		b	.L2
  41              	.LVL2:
  42              	.L3:
 159:.\DSP\Source\BasicMathFunctions/arm_sub_q15.c ****   {
 160:.\DSP\Source\BasicMathFunctions/arm_sub_q15.c ****     /* C = A - B */
 161:.\DSP\Source\BasicMathFunctions/arm_sub_q15.c **** 
 162:.\DSP\Source\BasicMathFunctions/arm_sub_q15.c ****     /* Subtract and store result in destination buffer. */
 163:.\DSP\Source\BasicMathFunctions/arm_sub_q15.c **** #if defined (ARM_MATH_DSP)
 164:.\DSP\Source\BasicMathFunctions/arm_sub_q15.c ****     *pDst++ = (q15_t) __QSUB16(*pSrcA++, *pSrcB++);
 165:.\DSP\Source\BasicMathFunctions/arm_sub_q15.c **** #else
 166:.\DSP\Source\BasicMathFunctions/arm_sub_q15.c ****     *pDst++ = (q15_t) __SSAT(((q31_t) *pSrcA++ - *pSrcB++), 16);
  43              		.loc 1 166 0
  44 0004 961C     		adds	r6, r2, #2
  45              	.LVL3:
  46              	.LBB2:
  47 0006 841C     		adds	r4, r0, #2
  48              	.LVL4:
  49 0008 B0F90000 		ldrsh	r0, [r0]
  50 000c 8D1C     		adds	r5, r1, #2
  51              	.LVL5:
  52 000e B1F90010 		ldrsh	r1, [r1]
  53 0012 411A     		subs	r1, r0, r1
  54              	.LVL6:
  55              	@ 166 ".\DSP\Source\BasicMathFunctions\arm_sub_q15.c" 1
  56 0014 01F30F01 		ssat r1, #16, r1
  57              	@ 0 "" 2
  58              	.LVL7:
  59              		.thumb
  60              	.LBE2:
  61 0018 1180     		strh	r1, [r2]	@ movhi
  62              	.LVL8:
ARM GAS  C:\Users\IVYLIU~1\AppData\Local\Temp\ccykkgfT.s 			page 5


 167:.\DSP\Source\BasicMathFunctions/arm_sub_q15.c **** #endif
 168:.\DSP\Source\BasicMathFunctions/arm_sub_q15.c **** 
 169:.\DSP\Source\BasicMathFunctions/arm_sub_q15.c ****     /* Decrement loop counter */
 170:.\DSP\Source\BasicMathFunctions/arm_sub_q15.c ****     blkCnt--;
  63              		.loc 1 170 0
  64 001a 013B     		subs	r3, r3, #1
  65              	.LVL9:
 166:.\DSP\Source\BasicMathFunctions/arm_sub_q15.c **** #endif
  66              		.loc 1 166 0
  67 001c 3246     		mov	r2, r6
  68              	.LBB3:
  69 001e 2946     		mov	r1, r5
  70              	.LVL10:
  71 0020 2046     		mov	r0, r4
  72              	.LVL11:
  73              	.L2:
  74              	.LBE3:
 158:.\DSP\Source\BasicMathFunctions/arm_sub_q15.c ****   {
  75              		.loc 1 158 0
  76 0022 002B     		cmp	r3, #0
  77 0024 EED1     		bne	.L3
 171:.\DSP\Source\BasicMathFunctions/arm_sub_q15.c ****   }
 172:.\DSP\Source\BasicMathFunctions/arm_sub_q15.c **** 
 173:.\DSP\Source\BasicMathFunctions/arm_sub_q15.c **** }
  78              		.loc 1 173 0
  79 0026 70BC     		pop	{r4, r5, r6}
  80              		.cfi_restore 6
  81              		.cfi_restore 5
  82              		.cfi_restore 4
  83              		.cfi_def_cfa_offset 0
  84 0028 7047     		bx	lr
  85              		.cfi_endproc
  86              	.LFE83:
  87              		.size	arm_sub_q15, .-arm_sub_q15
  88 002a 00BF     		.text
  89              	.Letext0:
  90              		.file 2 "c:\\program files (x86)\\cypress\\psoc creator\\3.3\\psoc creator\\import\\gnu\\arm\\4.9.
  91              		.file 3 "c:\\program files (x86)\\cypress\\psoc creator\\3.3\\psoc creator\\import\\gnu\\arm\\4.9.
  92              		.file 4 ".\\DSP\\Include/arm_math_types.h"
  93              		.file 5 ".\\Core\\Include/cmsis_gcc.h"