ARM GAS  C:\Users\IVYLIU~1\AppData\Local\Temp\ccRq6c9P.s 			page 1


   1              		.syntax unified
   2              		.cpu cortex-m3
   3              		.fpu softvfp
   4              		.eabi_attribute 20, 1
   5              		.eabi_attribute 21, 1
   6              		.eabi_attribute 23, 3
   7              		.eabi_attribute 24, 1
   8              		.eabi_attribute 25, 1
   9              		.eabi_attribute 26, 1
  10              		.eabi_attribute 30, 1
  11              		.eabi_attribute 34, 1
  12              		.eabi_attribute 18, 4
  13              		.thumb
  14              		.file	"arm_dot_prod_q31.c"
  15              		.text
  16              	.Ltext0:
  17              		.cfi_sections	.debug_frame
  18              		.section	.text.arm_dot_prod_q31,"ax",%progbits
  19              		.align	2
  20              		.global	arm_dot_prod_q31
  21              		.thumb
  22              		.thumb_func
  23              		.type	arm_dot_prod_q31, %function
  24              	arm_dot_prod_q31:
  25              	.LFB83:
  26              		.file 1 ".\\DSP\\Source\\BasicMathFunctions\\arm_dot_prod_q31.c"
   1:.\DSP\Source\BasicMathFunctions/arm_dot_prod_q31.c **** /* ----------------------------------------------------------------------
   2:.\DSP\Source\BasicMathFunctions/arm_dot_prod_q31.c ****  * Project:      CMSIS DSP Library
   3:.\DSP\Source\BasicMathFunctions/arm_dot_prod_q31.c ****  * Title:        arm_dot_prod_q31.c
   4:.\DSP\Source\BasicMathFunctions/arm_dot_prod_q31.c ****  * Description:  Q31 dot product
   5:.\DSP\Source\BasicMathFunctions/arm_dot_prod_q31.c ****  *
   6:.\DSP\Source\BasicMathFunctions/arm_dot_prod_q31.c ****  * $Date:        23 April 2021
   7:.\DSP\Source\BasicMathFunctions/arm_dot_prod_q31.c ****  * $Revision:    V1.9.0
   8:.\DSP\Source\BasicMathFunctions/arm_dot_prod_q31.c ****  *
   9:.\DSP\Source\BasicMathFunctions/arm_dot_prod_q31.c ****  * Target Processor: Cortex-M and Cortex-A cores
  10:.\DSP\Source\BasicMathFunctions/arm_dot_prod_q31.c ****  * -------------------------------------------------------------------- */
  11:.\DSP\Source\BasicMathFunctions/arm_dot_prod_q31.c **** /*
  12:.\DSP\Source\BasicMathFunctions/arm_dot_prod_q31.c ****  * Copyright (C) 2010-2021 ARM Limited or its affiliates. All rights reserved.
  13:.\DSP\Source\BasicMathFunctions/arm_dot_prod_q31.c ****  *
  14:.\DSP\Source\BasicMathFunctions/arm_dot_prod_q31.c ****  * SPDX-License-Identifier: Apache-2.0
  15:.\DSP\Source\BasicMathFunctions/arm_dot_prod_q31.c ****  *
  16:.\DSP\Source\BasicMathFunctions/arm_dot_prod_q31.c ****  * Licensed under the Apache License, Version 2.0 (the License); you may
  17:.\DSP\Source\BasicMathFunctions/arm_dot_prod_q31.c ****  * not use this file except in compliance with the License.
  18:.\DSP\Source\BasicMathFunctions/arm_dot_prod_q31.c ****  * You may obtain a copy of the License at
  19:.\DSP\Source\BasicMathFunctions/arm_dot_prod_q31.c ****  *
  20:.\DSP\Source\BasicMathFunctions/arm_dot_prod_q31.c ****  * www.apache.org/licenses/LICENSE-2.0
  21:.\DSP\Source\BasicMathFunctions/arm_dot_prod_q31.c ****  *
  22:.\DSP\Source\BasicMathFunctions/arm_dot_prod_q31.c ****  * Unless required by applicable law or agreed to in writing, software
  23:.\DSP\Source\BasicMathFunctions/arm_dot_prod_q31.c ****  * distributed under the License is distributed on an AS IS BASIS, WITHOUT
  24:.\DSP\Source\BasicMathFunctions/arm_dot_prod_q31.c ****  * WARRANTIES OR CONDITIONS OF ANY KIND, either express or implied.
  25:.\DSP\Source\BasicMathFunctions/arm_dot_prod_q31.c ****  * See the License for the specific language governing permissions and
  26:.\DSP\Source\BasicMathFunctions/arm_dot_prod_q31.c ****  * limitations under the License.
  27:.\DSP\Source\BasicMathFunctions/arm_dot_prod_q31.c ****  */
  28:.\DSP\Source\BasicMathFunctions/arm_dot_prod_q31.c **** 
  29:.\DSP\Source\BasicMathFunctions/arm_dot_prod_q31.c **** #include "dsp/basic_math_functions.h"
  30:.\DSP\Source\BasicMathFunctions/arm_dot_prod_q31.c **** 
  31:.\DSP\Source\BasicMathFunctions/arm_dot_prod_q31.c **** /**
ARM GAS  C:\Users\IVYLIU~1\AppData\Local\Temp\ccRq6c9P.s 			page 2


  32:.\DSP\Source\BasicMathFunctions/arm_dot_prod_q31.c ****   @ingroup groupMath
  33:.\DSP\Source\BasicMathFunctions/arm_dot_prod_q31.c ****  */
  34:.\DSP\Source\BasicMathFunctions/arm_dot_prod_q31.c **** 
  35:.\DSP\Source\BasicMathFunctions/arm_dot_prod_q31.c **** /**
  36:.\DSP\Source\BasicMathFunctions/arm_dot_prod_q31.c ****   @addtogroup BasicDotProd
  37:.\DSP\Source\BasicMathFunctions/arm_dot_prod_q31.c ****   @{
  38:.\DSP\Source\BasicMathFunctions/arm_dot_prod_q31.c ****  */
  39:.\DSP\Source\BasicMathFunctions/arm_dot_prod_q31.c **** 
  40:.\DSP\Source\BasicMathFunctions/arm_dot_prod_q31.c **** /**
  41:.\DSP\Source\BasicMathFunctions/arm_dot_prod_q31.c ****   @brief         Dot product of Q31 vectors.
  42:.\DSP\Source\BasicMathFunctions/arm_dot_prod_q31.c ****   @param[in]     pSrcA      points to the first input vector.
  43:.\DSP\Source\BasicMathFunctions/arm_dot_prod_q31.c ****   @param[in]     pSrcB      points to the second input vector.
  44:.\DSP\Source\BasicMathFunctions/arm_dot_prod_q31.c ****   @param[in]     blockSize  number of samples in each vector.
  45:.\DSP\Source\BasicMathFunctions/arm_dot_prod_q31.c ****   @param[out]    result     output result returned here.
  46:.\DSP\Source\BasicMathFunctions/arm_dot_prod_q31.c ****   @return        none
  47:.\DSP\Source\BasicMathFunctions/arm_dot_prod_q31.c **** 
  48:.\DSP\Source\BasicMathFunctions/arm_dot_prod_q31.c ****   @par           Scaling and Overflow Behavior
  49:.\DSP\Source\BasicMathFunctions/arm_dot_prod_q31.c ****                    The intermediate multiplications are in 1.31 x 1.31 = 2.62 format and these
  50:.\DSP\Source\BasicMathFunctions/arm_dot_prod_q31.c ****                    are truncated to 2.48 format by discarding the lower 14 bits.
  51:.\DSP\Source\BasicMathFunctions/arm_dot_prod_q31.c ****                    The 2.48 result is then added without saturation to a 64-bit accumulator in 16.4
  52:.\DSP\Source\BasicMathFunctions/arm_dot_prod_q31.c ****                    There are 15 guard bits in the accumulator and there is no risk of overflow as l
  53:.\DSP\Source\BasicMathFunctions/arm_dot_prod_q31.c ****                    the length of the vectors is less than 2^16 elements.
  54:.\DSP\Source\BasicMathFunctions/arm_dot_prod_q31.c ****                    The return result is in 16.48 format.
  55:.\DSP\Source\BasicMathFunctions/arm_dot_prod_q31.c ****  */
  56:.\DSP\Source\BasicMathFunctions/arm_dot_prod_q31.c **** 
  57:.\DSP\Source\BasicMathFunctions/arm_dot_prod_q31.c **** #if defined(ARM_MATH_MVEI) && !defined(ARM_MATH_AUTOVECTORIZE)
  58:.\DSP\Source\BasicMathFunctions/arm_dot_prod_q31.c **** 
  59:.\DSP\Source\BasicMathFunctions/arm_dot_prod_q31.c **** #include "arm_helium_utils.h"
  60:.\DSP\Source\BasicMathFunctions/arm_dot_prod_q31.c **** 
  61:.\DSP\Source\BasicMathFunctions/arm_dot_prod_q31.c **** void arm_dot_prod_q31(
  62:.\DSP\Source\BasicMathFunctions/arm_dot_prod_q31.c ****     const q31_t * pSrcA,
  63:.\DSP\Source\BasicMathFunctions/arm_dot_prod_q31.c ****     const q31_t * pSrcB,
  64:.\DSP\Source\BasicMathFunctions/arm_dot_prod_q31.c ****     uint32_t blockSize,
  65:.\DSP\Source\BasicMathFunctions/arm_dot_prod_q31.c ****     q63_t * result)
  66:.\DSP\Source\BasicMathFunctions/arm_dot_prod_q31.c **** {
  67:.\DSP\Source\BasicMathFunctions/arm_dot_prod_q31.c ****     uint32_t  blkCnt;           /* loop counters */
  68:.\DSP\Source\BasicMathFunctions/arm_dot_prod_q31.c ****     q31x4_t vecA;
  69:.\DSP\Source\BasicMathFunctions/arm_dot_prod_q31.c ****     q31x4_t vecB;
  70:.\DSP\Source\BasicMathFunctions/arm_dot_prod_q31.c ****     q63_t     sum = 0LL;
  71:.\DSP\Source\BasicMathFunctions/arm_dot_prod_q31.c **** 
  72:.\DSP\Source\BasicMathFunctions/arm_dot_prod_q31.c ****     /* Compute 4 outputs at a time */
  73:.\DSP\Source\BasicMathFunctions/arm_dot_prod_q31.c ****     blkCnt = blockSize >> 2;
  74:.\DSP\Source\BasicMathFunctions/arm_dot_prod_q31.c ****     while (blkCnt > 0U)
  75:.\DSP\Source\BasicMathFunctions/arm_dot_prod_q31.c ****     {
  76:.\DSP\Source\BasicMathFunctions/arm_dot_prod_q31.c ****         /*
  77:.\DSP\Source\BasicMathFunctions/arm_dot_prod_q31.c ****          * C = A[0]* B[0] + A[1]* B[1] + A[2]* B[2] + .....+ A[blockSize-1]* B[blockSize-1]
  78:.\DSP\Source\BasicMathFunctions/arm_dot_prod_q31.c ****          * Calculate dot product and then store the result in a temporary buffer.
  79:.\DSP\Source\BasicMathFunctions/arm_dot_prod_q31.c ****          */
  80:.\DSP\Source\BasicMathFunctions/arm_dot_prod_q31.c ****         vecA = vld1q(pSrcA);
  81:.\DSP\Source\BasicMathFunctions/arm_dot_prod_q31.c ****         vecB = vld1q(pSrcB);
  82:.\DSP\Source\BasicMathFunctions/arm_dot_prod_q31.c ****         sum = vrmlaldavhaq(sum, vecA, vecB);
  83:.\DSP\Source\BasicMathFunctions/arm_dot_prod_q31.c ****         /*
  84:.\DSP\Source\BasicMathFunctions/arm_dot_prod_q31.c ****          * Decrement the blockSize loop counter
  85:.\DSP\Source\BasicMathFunctions/arm_dot_prod_q31.c ****          */
  86:.\DSP\Source\BasicMathFunctions/arm_dot_prod_q31.c ****         blkCnt--;
  87:.\DSP\Source\BasicMathFunctions/arm_dot_prod_q31.c ****         /*
  88:.\DSP\Source\BasicMathFunctions/arm_dot_prod_q31.c ****          * advance vector source and destination pointers
ARM GAS  C:\Users\IVYLIU~1\AppData\Local\Temp\ccRq6c9P.s 			page 3


  89:.\DSP\Source\BasicMathFunctions/arm_dot_prod_q31.c ****          */
  90:.\DSP\Source\BasicMathFunctions/arm_dot_prod_q31.c ****         pSrcA += 4;
  91:.\DSP\Source\BasicMathFunctions/arm_dot_prod_q31.c ****         pSrcB += 4;
  92:.\DSP\Source\BasicMathFunctions/arm_dot_prod_q31.c ****     }
  93:.\DSP\Source\BasicMathFunctions/arm_dot_prod_q31.c ****     /*
  94:.\DSP\Source\BasicMathFunctions/arm_dot_prod_q31.c ****      * tail
  95:.\DSP\Source\BasicMathFunctions/arm_dot_prod_q31.c ****      */
  96:.\DSP\Source\BasicMathFunctions/arm_dot_prod_q31.c ****     blkCnt = blockSize & 3;
  97:.\DSP\Source\BasicMathFunctions/arm_dot_prod_q31.c ****     if (blkCnt > 0U)
  98:.\DSP\Source\BasicMathFunctions/arm_dot_prod_q31.c ****     {
  99:.\DSP\Source\BasicMathFunctions/arm_dot_prod_q31.c ****         mve_pred16_t p0 = vctp32q(blkCnt);
 100:.\DSP\Source\BasicMathFunctions/arm_dot_prod_q31.c ****         vecA = vld1q(pSrcA);
 101:.\DSP\Source\BasicMathFunctions/arm_dot_prod_q31.c ****         vecB = vld1q(pSrcB);
 102:.\DSP\Source\BasicMathFunctions/arm_dot_prod_q31.c ****         sum = vrmlaldavhaq_p(sum, vecA, vecB, p0);
 103:.\DSP\Source\BasicMathFunctions/arm_dot_prod_q31.c ****     }
 104:.\DSP\Source\BasicMathFunctions/arm_dot_prod_q31.c **** 
 105:.\DSP\Source\BasicMathFunctions/arm_dot_prod_q31.c ****     /*
 106:.\DSP\Source\BasicMathFunctions/arm_dot_prod_q31.c ****      * vrmlaldavhaq provides extra intermediate accumulator headroom.
 107:.\DSP\Source\BasicMathFunctions/arm_dot_prod_q31.c ****      * limiting the need of intermediate scaling
 108:.\DSP\Source\BasicMathFunctions/arm_dot_prod_q31.c ****      * Scalar variant uses 2.48 accu format by right shifting accumulators by 14.
 109:.\DSP\Source\BasicMathFunctions/arm_dot_prod_q31.c ****      * 16.48 output conversion is performed outside the loop by scaling accu. by 6
 110:.\DSP\Source\BasicMathFunctions/arm_dot_prod_q31.c ****      */
 111:.\DSP\Source\BasicMathFunctions/arm_dot_prod_q31.c ****     *result = asrl(sum, (14 - 8));
 112:.\DSP\Source\BasicMathFunctions/arm_dot_prod_q31.c **** }
 113:.\DSP\Source\BasicMathFunctions/arm_dot_prod_q31.c **** 
 114:.\DSP\Source\BasicMathFunctions/arm_dot_prod_q31.c **** #else
 115:.\DSP\Source\BasicMathFunctions/arm_dot_prod_q31.c **** void arm_dot_prod_q31(
 116:.\DSP\Source\BasicMathFunctions/arm_dot_prod_q31.c ****   const q31_t * pSrcA,
 117:.\DSP\Source\BasicMathFunctions/arm_dot_prod_q31.c ****   const q31_t * pSrcB,
 118:.\DSP\Source\BasicMathFunctions/arm_dot_prod_q31.c ****         uint32_t blockSize,
 119:.\DSP\Source\BasicMathFunctions/arm_dot_prod_q31.c ****         q63_t * result)
 120:.\DSP\Source\BasicMathFunctions/arm_dot_prod_q31.c **** {
  27              		.loc 1 120 0
  28              		.cfi_startproc
  29              		@ args = 0, pretend = 0, frame = 0
  30              		@ frame_needed = 0, uses_anonymous_args = 0
  31              	.LVL0:
  32 0000 2DE9F04F 		push	{r4, r5, r6, r7, r8, r9, r10, fp, lr}
  33              		.cfi_def_cfa_offset 36
  34              		.cfi_offset 4, -36
  35              		.cfi_offset 5, -32
  36              		.cfi_offset 6, -28
  37              		.cfi_offset 7, -24
  38              		.cfi_offset 8, -20
  39              		.cfi_offset 9, -16
  40              		.cfi_offset 10, -12
  41              		.cfi_offset 11, -8
  42              		.cfi_offset 14, -4
  43 0004 9646     		mov	lr, r2
  44 0006 9C46     		mov	ip, r3
  45              	.LVL1:
 121:.\DSP\Source\BasicMathFunctions/arm_dot_prod_q31.c ****         uint32_t blkCnt;                               /* Loop counter */
 122:.\DSP\Source\BasicMathFunctions/arm_dot_prod_q31.c ****         q63_t sum = 0;                                 /* Temporary return variable */
  46              		.loc 1 122 0
  47 0008 4FF00008 		mov	r8, #0
  48 000c 4FF00009 		mov	r9, #0
 123:.\DSP\Source\BasicMathFunctions/arm_dot_prod_q31.c **** 
ARM GAS  C:\Users\IVYLIU~1\AppData\Local\Temp\ccRq6c9P.s 			page 4


 124:.\DSP\Source\BasicMathFunctions/arm_dot_prod_q31.c **** #if defined (ARM_MATH_LOOPUNROLL)
 125:.\DSP\Source\BasicMathFunctions/arm_dot_prod_q31.c **** 
 126:.\DSP\Source\BasicMathFunctions/arm_dot_prod_q31.c ****   /* Loop unrolling: Compute 4 outputs at a time */
 127:.\DSP\Source\BasicMathFunctions/arm_dot_prod_q31.c ****   blkCnt = blockSize >> 2U;
 128:.\DSP\Source\BasicMathFunctions/arm_dot_prod_q31.c **** 
 129:.\DSP\Source\BasicMathFunctions/arm_dot_prod_q31.c ****   while (blkCnt > 0U)
 130:.\DSP\Source\BasicMathFunctions/arm_dot_prod_q31.c ****   {
 131:.\DSP\Source\BasicMathFunctions/arm_dot_prod_q31.c ****     /* C = A[0]* B[0] + A[1]* B[1] + A[2]* B[2] + .....+ A[blockSize-1]* B[blockSize-1] */
 132:.\DSP\Source\BasicMathFunctions/arm_dot_prod_q31.c **** 
 133:.\DSP\Source\BasicMathFunctions/arm_dot_prod_q31.c ****     /* Calculate dot product and store result in a temporary buffer. */
 134:.\DSP\Source\BasicMathFunctions/arm_dot_prod_q31.c ****     sum += ((q63_t) *pSrcA++ * *pSrcB++) >> 14U;
 135:.\DSP\Source\BasicMathFunctions/arm_dot_prod_q31.c **** 
 136:.\DSP\Source\BasicMathFunctions/arm_dot_prod_q31.c ****     sum += ((q63_t) *pSrcA++ * *pSrcB++) >> 14U;
 137:.\DSP\Source\BasicMathFunctions/arm_dot_prod_q31.c **** 
 138:.\DSP\Source\BasicMathFunctions/arm_dot_prod_q31.c ****     sum += ((q63_t) *pSrcA++ * *pSrcB++) >> 14U;
 139:.\DSP\Source\BasicMathFunctions/arm_dot_prod_q31.c **** 
 140:.\DSP\Source\BasicMathFunctions/arm_dot_prod_q31.c ****     sum += ((q63_t) *pSrcA++ * *pSrcB++) >> 14U;
 141:.\DSP\Source\BasicMathFunctions/arm_dot_prod_q31.c **** 
 142:.\DSP\Source\BasicMathFunctions/arm_dot_prod_q31.c ****     /* Decrement loop counter */
 143:.\DSP\Source\BasicMathFunctions/arm_dot_prod_q31.c ****     blkCnt--;
 144:.\DSP\Source\BasicMathFunctions/arm_dot_prod_q31.c ****   }
 145:.\DSP\Source\BasicMathFunctions/arm_dot_prod_q31.c **** 
 146:.\DSP\Source\BasicMathFunctions/arm_dot_prod_q31.c ****   /* Loop unrolling: Compute remaining outputs */
 147:.\DSP\Source\BasicMathFunctions/arm_dot_prod_q31.c ****   blkCnt = blockSize % 0x4U;
 148:.\DSP\Source\BasicMathFunctions/arm_dot_prod_q31.c **** 
 149:.\DSP\Source\BasicMathFunctions/arm_dot_prod_q31.c **** #else
 150:.\DSP\Source\BasicMathFunctions/arm_dot_prod_q31.c **** 
 151:.\DSP\Source\BasicMathFunctions/arm_dot_prod_q31.c ****   /* Initialize blkCnt with number of samples */
 152:.\DSP\Source\BasicMathFunctions/arm_dot_prod_q31.c ****   blkCnt = blockSize;
 153:.\DSP\Source\BasicMathFunctions/arm_dot_prod_q31.c **** 
 154:.\DSP\Source\BasicMathFunctions/arm_dot_prod_q31.c **** #endif /* #if defined (ARM_MATH_LOOPUNROLL) */
 155:.\DSP\Source\BasicMathFunctions/arm_dot_prod_q31.c **** 
 156:.\DSP\Source\BasicMathFunctions/arm_dot_prod_q31.c ****   while (blkCnt > 0U)
  49              		.loc 1 156 0
  50 0010 17E0     		b	.L2
  51              	.LVL2:
  52              	.L3:
 157:.\DSP\Source\BasicMathFunctions/arm_dot_prod_q31.c ****   {
 158:.\DSP\Source\BasicMathFunctions/arm_dot_prod_q31.c ****     /* C = A[0]* B[0] + A[1]* B[1] + A[2]* B[2] + .....+ A[blockSize-1]* B[blockSize-1] */
 159:.\DSP\Source\BasicMathFunctions/arm_dot_prod_q31.c **** 
 160:.\DSP\Source\BasicMathFunctions/arm_dot_prod_q31.c ****     /* Calculate dot product and store result in a temporary buffer. */
 161:.\DSP\Source\BasicMathFunctions/arm_dot_prod_q31.c ****     sum += ((q63_t) *pSrcA++ * *pSrcB++) >> 14U;
  53              		.loc 1 161 0
  54 0012 0468     		ldr	r4, [r0]
  55 0014 4FEAE47B 		asr	fp, r4, #31
  56              	.LVL3:
  57 0018 0D68     		ldr	r5, [r1]
  58 001a EB17     		asrs	r3, r5, #31
  59 001c 04FB03F3 		mul	r3, r4, r3
  60 0020 05FB0B33 		mla	r3, r5, fp, r3
  61 0024 A4FB0545 		umull	r4, r5, r4, r5
  62 0028 1D44     		add	r5, r5, r3
  63 002a A60B     		lsrs	r6, r4, #14
  64 002c 46EA8546 		orr	r6, r6, r5, lsl #18
  65 0030 AF13     		asrs	r7, r5, #14
  66 0032 18EB0608 		adds	r8, r8, r6
  67              	.LVL4:
ARM GAS  C:\Users\IVYLIU~1\AppData\Local\Temp\ccRq6c9P.s 			page 5


  68 0036 49EB0709 		adc	r9, r9, r7
  69              	.LVL5:
 162:.\DSP\Source\BasicMathFunctions/arm_dot_prod_q31.c **** 
 163:.\DSP\Source\BasicMathFunctions/arm_dot_prod_q31.c ****     /* Decrement loop counter */
 164:.\DSP\Source\BasicMathFunctions/arm_dot_prod_q31.c ****     blkCnt--;
  70              		.loc 1 164 0
  71 003a 0EF1FF3E 		add	lr, lr, #-1
  72              	.LVL6:
 161:.\DSP\Source\BasicMathFunctions/arm_dot_prod_q31.c **** 
  73              		.loc 1 161 0
  74 003e 0431     		adds	r1, r1, #4
  75              	.LVL7:
  76 0040 0430     		adds	r0, r0, #4
  77              	.LVL8:
  78              	.L2:
 156:.\DSP\Source\BasicMathFunctions/arm_dot_prod_q31.c ****   {
  79              		.loc 1 156 0
  80 0042 BEF1000F 		cmp	lr, #0
  81 0046 E4D1     		bne	.L3
 165:.\DSP\Source\BasicMathFunctions/arm_dot_prod_q31.c ****   }
 166:.\DSP\Source\BasicMathFunctions/arm_dot_prod_q31.c **** 
 167:.\DSP\Source\BasicMathFunctions/arm_dot_prod_q31.c ****   /* Store result in destination buffer in 16.48 format */
 168:.\DSP\Source\BasicMathFunctions/arm_dot_prod_q31.c ****   *result = sum;
  82              		.loc 1 168 0
  83 0048 CCE90089 		strd	r8, [ip]
  84 004c BDE8F08F 		pop	{r4, r5, r6, r7, r8, r9, r10, fp, pc}
  85              		.cfi_endproc
  86              	.LFE83:
  87              		.size	arm_dot_prod_q31, .-arm_dot_prod_q31
  88              		.text
  89              	.Letext0:
  90              		.file 2 "c:\\program files (x86)\\cypress\\psoc creator\\3.3\\psoc creator\\import\\gnu\\arm\\4.9.
  91              		.file 3 "c:\\program files (x86)\\cypress\\psoc creator\\3.3\\psoc creator\\import\\gnu\\arm\\4.9.
  92              		.file 4 ".\\DSP\\Include/arm_math_types.h"
  93              		.file 5 ".\\Core\\Include/cmsis_gcc.h"