ARM GAS  C:\Users\IVYLIU~1\AppData\Local\Temp\ccG49wPF.s 			page 1


   1              		.syntax unified
   2              		.cpu cortex-m3
   3              		.fpu softvfp
   4              		.eabi_attribute 20, 1
   5              		.eabi_attribute 21, 1
   6              		.eabi_attribute 23, 3
   7              		.eabi_attribute 24, 1
   8              		.eabi_attribute 25, 1
   9              		.eabi_attribute 26, 1
  10              		.eabi_attribute 30, 1
  11              		.eabi_attribute 34, 1
  12              		.eabi_attribute 18, 4
  13              		.thumb
  14              		.file	"arm_mult_f32.c"
  15              		.text
  16              	.Ltext0:
  17              		.cfi_sections	.debug_frame
  18              		.global	__aeabi_fmul
  19              		.section	.text.arm_mult_f32,"ax",%progbits
  20              		.align	2
  21              		.global	arm_mult_f32
  22              		.thumb
  23              		.thumb_func
  24              		.type	arm_mult_f32, %function
  25              	arm_mult_f32:
  26              	.LFB83:
  27              		.file 1 ".\\DSP\\Source\\BasicMathFunctions\\arm_mult_f32.c"
   1:.\DSP\Source\BasicMathFunctions/arm_mult_f32.c **** /* ----------------------------------------------------------------------
   2:.\DSP\Source\BasicMathFunctions/arm_mult_f32.c ****  * Project:      CMSIS DSP Library
   3:.\DSP\Source\BasicMathFunctions/arm_mult_f32.c ****  * Title:        arm_mult_f32.c
   4:.\DSP\Source\BasicMathFunctions/arm_mult_f32.c ****  * Description:  Floating-point vector multiplication
   5:.\DSP\Source\BasicMathFunctions/arm_mult_f32.c ****  *
   6:.\DSP\Source\BasicMathFunctions/arm_mult_f32.c ****  * $Date:        23 April 2021
   7:.\DSP\Source\BasicMathFunctions/arm_mult_f32.c ****  * $Revision:    V1.9.0
   8:.\DSP\Source\BasicMathFunctions/arm_mult_f32.c ****  *
   9:.\DSP\Source\BasicMathFunctions/arm_mult_f32.c ****  * Target Processor: Cortex-M and Cortex-A cores
  10:.\DSP\Source\BasicMathFunctions/arm_mult_f32.c ****  * -------------------------------------------------------------------- */
  11:.\DSP\Source\BasicMathFunctions/arm_mult_f32.c **** /*
  12:.\DSP\Source\BasicMathFunctions/arm_mult_f32.c ****  * Copyright (C) 2010-2021 ARM Limited or its affiliates. All rights reserved.
  13:.\DSP\Source\BasicMathFunctions/arm_mult_f32.c ****  *
  14:.\DSP\Source\BasicMathFunctions/arm_mult_f32.c ****  * SPDX-License-Identifier: Apache-2.0
  15:.\DSP\Source\BasicMathFunctions/arm_mult_f32.c ****  *
  16:.\DSP\Source\BasicMathFunctions/arm_mult_f32.c ****  * Licensed under the Apache License, Version 2.0 (the License); you may
  17:.\DSP\Source\BasicMathFunctions/arm_mult_f32.c ****  * not use this file except in compliance with the License.
  18:.\DSP\Source\BasicMathFunctions/arm_mult_f32.c ****  * You may obtain a copy of the License at
  19:.\DSP\Source\BasicMathFunctions/arm_mult_f32.c ****  *
  20:.\DSP\Source\BasicMathFunctions/arm_mult_f32.c ****  * www.apache.org/licenses/LICENSE-2.0
  21:.\DSP\Source\BasicMathFunctions/arm_mult_f32.c ****  *
  22:.\DSP\Source\BasicMathFunctions/arm_mult_f32.c ****  * Unless required by applicable law or agreed to in writing, software
  23:.\DSP\Source\BasicMathFunctions/arm_mult_f32.c ****  * distributed under the License is distributed on an AS IS BASIS, WITHOUT
  24:.\DSP\Source\BasicMathFunctions/arm_mult_f32.c ****  * WARRANTIES OR CONDITIONS OF ANY KIND, either express or implied.
  25:.\DSP\Source\BasicMathFunctions/arm_mult_f32.c ****  * See the License for the specific language governing permissions and
  26:.\DSP\Source\BasicMathFunctions/arm_mult_f32.c ****  * limitations under the License.
  27:.\DSP\Source\BasicMathFunctions/arm_mult_f32.c ****  */
  28:.\DSP\Source\BasicMathFunctions/arm_mult_f32.c **** 
  29:.\DSP\Source\BasicMathFunctions/arm_mult_f32.c **** #include "dsp/basic_math_functions.h"
  30:.\DSP\Source\BasicMathFunctions/arm_mult_f32.c **** 
ARM GAS  C:\Users\IVYLIU~1\AppData\Local\Temp\ccG49wPF.s 			page 2


  31:.\DSP\Source\BasicMathFunctions/arm_mult_f32.c **** /**
  32:.\DSP\Source\BasicMathFunctions/arm_mult_f32.c ****   @ingroup groupMath
  33:.\DSP\Source\BasicMathFunctions/arm_mult_f32.c ****  */
  34:.\DSP\Source\BasicMathFunctions/arm_mult_f32.c **** 
  35:.\DSP\Source\BasicMathFunctions/arm_mult_f32.c **** /**
  36:.\DSP\Source\BasicMathFunctions/arm_mult_f32.c ****   @defgroup BasicMult Vector Multiplication
  37:.\DSP\Source\BasicMathFunctions/arm_mult_f32.c **** 
  38:.\DSP\Source\BasicMathFunctions/arm_mult_f32.c ****   Element-by-element multiplication of two vectors.
  39:.\DSP\Source\BasicMathFunctions/arm_mult_f32.c **** 
  40:.\DSP\Source\BasicMathFunctions/arm_mult_f32.c ****   <pre>
  41:.\DSP\Source\BasicMathFunctions/arm_mult_f32.c ****       pDst[n] = pSrcA[n] * pSrcB[n],   0 <= n < blockSize.
  42:.\DSP\Source\BasicMathFunctions/arm_mult_f32.c ****   </pre>
  43:.\DSP\Source\BasicMathFunctions/arm_mult_f32.c **** 
  44:.\DSP\Source\BasicMathFunctions/arm_mult_f32.c ****   There are separate functions for floating-point, Q7, Q15, and Q31 data types.
  45:.\DSP\Source\BasicMathFunctions/arm_mult_f32.c ****  */
  46:.\DSP\Source\BasicMathFunctions/arm_mult_f32.c **** 
  47:.\DSP\Source\BasicMathFunctions/arm_mult_f32.c **** /**
  48:.\DSP\Source\BasicMathFunctions/arm_mult_f32.c ****   @addtogroup BasicMult
  49:.\DSP\Source\BasicMathFunctions/arm_mult_f32.c ****   @{
  50:.\DSP\Source\BasicMathFunctions/arm_mult_f32.c ****  */
  51:.\DSP\Source\BasicMathFunctions/arm_mult_f32.c **** 
  52:.\DSP\Source\BasicMathFunctions/arm_mult_f32.c **** /**
  53:.\DSP\Source\BasicMathFunctions/arm_mult_f32.c ****   @brief         Floating-point vector multiplication.
  54:.\DSP\Source\BasicMathFunctions/arm_mult_f32.c ****   @param[in]     pSrcA      points to the first input vector.
  55:.\DSP\Source\BasicMathFunctions/arm_mult_f32.c ****   @param[in]     pSrcB      points to the second input vector.
  56:.\DSP\Source\BasicMathFunctions/arm_mult_f32.c ****   @param[out]    pDst       points to the output vector.
  57:.\DSP\Source\BasicMathFunctions/arm_mult_f32.c ****   @param[in]     blockSize  number of samples in each vector.
  58:.\DSP\Source\BasicMathFunctions/arm_mult_f32.c ****   @return        none
  59:.\DSP\Source\BasicMathFunctions/arm_mult_f32.c ****  */
  60:.\DSP\Source\BasicMathFunctions/arm_mult_f32.c **** 
  61:.\DSP\Source\BasicMathFunctions/arm_mult_f32.c **** #if defined(ARM_MATH_MVEF) && !defined(ARM_MATH_AUTOVECTORIZE)
  62:.\DSP\Source\BasicMathFunctions/arm_mult_f32.c **** 
  63:.\DSP\Source\BasicMathFunctions/arm_mult_f32.c **** #include "arm_helium_utils.h"
  64:.\DSP\Source\BasicMathFunctions/arm_mult_f32.c **** 
  65:.\DSP\Source\BasicMathFunctions/arm_mult_f32.c **** void arm_mult_f32(
  66:.\DSP\Source\BasicMathFunctions/arm_mult_f32.c ****   const float32_t * pSrcA,
  67:.\DSP\Source\BasicMathFunctions/arm_mult_f32.c ****   const float32_t * pSrcB,
  68:.\DSP\Source\BasicMathFunctions/arm_mult_f32.c ****         float32_t * pDst,
  69:.\DSP\Source\BasicMathFunctions/arm_mult_f32.c ****         uint32_t blockSize)
  70:.\DSP\Source\BasicMathFunctions/arm_mult_f32.c **** {
  71:.\DSP\Source\BasicMathFunctions/arm_mult_f32.c ****     uint32_t blkCnt;                               /* Loop counter */
  72:.\DSP\Source\BasicMathFunctions/arm_mult_f32.c **** 
  73:.\DSP\Source\BasicMathFunctions/arm_mult_f32.c ****     f32x4_t vec1;
  74:.\DSP\Source\BasicMathFunctions/arm_mult_f32.c ****     f32x4_t vec2;
  75:.\DSP\Source\BasicMathFunctions/arm_mult_f32.c ****     f32x4_t res;
  76:.\DSP\Source\BasicMathFunctions/arm_mult_f32.c **** 
  77:.\DSP\Source\BasicMathFunctions/arm_mult_f32.c ****     /* Compute 4 outputs at a time */
  78:.\DSP\Source\BasicMathFunctions/arm_mult_f32.c ****     blkCnt = blockSize >> 2U;
  79:.\DSP\Source\BasicMathFunctions/arm_mult_f32.c ****     while (blkCnt > 0U)
  80:.\DSP\Source\BasicMathFunctions/arm_mult_f32.c ****     {
  81:.\DSP\Source\BasicMathFunctions/arm_mult_f32.c ****         /* C = A + B */
  82:.\DSP\Source\BasicMathFunctions/arm_mult_f32.c **** 
  83:.\DSP\Source\BasicMathFunctions/arm_mult_f32.c ****       /* Add and then store the results in the destination buffer. */
  84:.\DSP\Source\BasicMathFunctions/arm_mult_f32.c ****         vec1 = vld1q(pSrcA);
  85:.\DSP\Source\BasicMathFunctions/arm_mult_f32.c ****         vec2 = vld1q(pSrcB);
  86:.\DSP\Source\BasicMathFunctions/arm_mult_f32.c ****         res = vmulq(vec1, vec2);
  87:.\DSP\Source\BasicMathFunctions/arm_mult_f32.c ****         vst1q(pDst, res);
ARM GAS  C:\Users\IVYLIU~1\AppData\Local\Temp\ccG49wPF.s 			page 3


  88:.\DSP\Source\BasicMathFunctions/arm_mult_f32.c **** 
  89:.\DSP\Source\BasicMathFunctions/arm_mult_f32.c ****         /* Increment pointers */
  90:.\DSP\Source\BasicMathFunctions/arm_mult_f32.c ****         pSrcA += 4;
  91:.\DSP\Source\BasicMathFunctions/arm_mult_f32.c ****         pSrcB += 4; 
  92:.\DSP\Source\BasicMathFunctions/arm_mult_f32.c ****         pDst += 4;
  93:.\DSP\Source\BasicMathFunctions/arm_mult_f32.c ****         
  94:.\DSP\Source\BasicMathFunctions/arm_mult_f32.c ****         /* Decrement the loop counter */
  95:.\DSP\Source\BasicMathFunctions/arm_mult_f32.c ****         blkCnt--;
  96:.\DSP\Source\BasicMathFunctions/arm_mult_f32.c ****     }
  97:.\DSP\Source\BasicMathFunctions/arm_mult_f32.c **** 
  98:.\DSP\Source\BasicMathFunctions/arm_mult_f32.c ****     /* Tail */
  99:.\DSP\Source\BasicMathFunctions/arm_mult_f32.c ****     blkCnt = blockSize & 0x3;
 100:.\DSP\Source\BasicMathFunctions/arm_mult_f32.c ****     if (blkCnt > 0U)
 101:.\DSP\Source\BasicMathFunctions/arm_mult_f32.c ****     {
 102:.\DSP\Source\BasicMathFunctions/arm_mult_f32.c ****       /* C = A + B */
 103:.\DSP\Source\BasicMathFunctions/arm_mult_f32.c ****       mve_pred16_t p0 = vctp32q(blkCnt);
 104:.\DSP\Source\BasicMathFunctions/arm_mult_f32.c ****       vec1 = vld1q(pSrcA);
 105:.\DSP\Source\BasicMathFunctions/arm_mult_f32.c ****       vec2 = vld1q(pSrcB);
 106:.\DSP\Source\BasicMathFunctions/arm_mult_f32.c ****       vstrwq_p(pDst, vmulq(vec1,vec2), p0);
 107:.\DSP\Source\BasicMathFunctions/arm_mult_f32.c ****     }
 108:.\DSP\Source\BasicMathFunctions/arm_mult_f32.c **** 
 109:.\DSP\Source\BasicMathFunctions/arm_mult_f32.c **** }
 110:.\DSP\Source\BasicMathFunctions/arm_mult_f32.c **** 
 111:.\DSP\Source\BasicMathFunctions/arm_mult_f32.c **** #else
 112:.\DSP\Source\BasicMathFunctions/arm_mult_f32.c **** void arm_mult_f32(
 113:.\DSP\Source\BasicMathFunctions/arm_mult_f32.c ****   const float32_t * pSrcA,
 114:.\DSP\Source\BasicMathFunctions/arm_mult_f32.c ****   const float32_t * pSrcB,
 115:.\DSP\Source\BasicMathFunctions/arm_mult_f32.c ****         float32_t * pDst,
 116:.\DSP\Source\BasicMathFunctions/arm_mult_f32.c ****         uint32_t blockSize)
 117:.\DSP\Source\BasicMathFunctions/arm_mult_f32.c **** {
  28              		.loc 1 117 0
  29              		.cfi_startproc
  30              		@ args = 0, pretend = 0, frame = 0
  31              		@ frame_needed = 0, uses_anonymous_args = 0
  32              	.LVL0:
  33 0000 2DE9F041 		push	{r4, r5, r6, r7, r8, lr}
  34              		.cfi_def_cfa_offset 24
  35              		.cfi_offset 4, -24
  36              		.cfi_offset 5, -20
  37              		.cfi_offset 6, -16
  38              		.cfi_offset 7, -12
  39              		.cfi_offset 8, -8
  40              		.cfi_offset 14, -4
  41 0004 1546     		mov	r5, r2
  42 0006 1C46     		mov	r4, r3
  43              	.LVL1:
 118:.\DSP\Source\BasicMathFunctions/arm_mult_f32.c ****     uint32_t blkCnt;                               /* Loop counter */
 119:.\DSP\Source\BasicMathFunctions/arm_mult_f32.c **** 
 120:.\DSP\Source\BasicMathFunctions/arm_mult_f32.c **** #if defined(ARM_MATH_NEON) && !defined(ARM_MATH_AUTOVECTORIZE)
 121:.\DSP\Source\BasicMathFunctions/arm_mult_f32.c ****     f32x4_t vec1;
 122:.\DSP\Source\BasicMathFunctions/arm_mult_f32.c ****     f32x4_t vec2;
 123:.\DSP\Source\BasicMathFunctions/arm_mult_f32.c ****     f32x4_t res;
 124:.\DSP\Source\BasicMathFunctions/arm_mult_f32.c **** 
 125:.\DSP\Source\BasicMathFunctions/arm_mult_f32.c ****     /* Compute 4 outputs at a time */
 126:.\DSP\Source\BasicMathFunctions/arm_mult_f32.c ****     blkCnt = blockSize >> 2U;
 127:.\DSP\Source\BasicMathFunctions/arm_mult_f32.c **** 
 128:.\DSP\Source\BasicMathFunctions/arm_mult_f32.c ****     while (blkCnt > 0U)
ARM GAS  C:\Users\IVYLIU~1\AppData\Local\Temp\ccG49wPF.s 			page 4


 129:.\DSP\Source\BasicMathFunctions/arm_mult_f32.c ****     {
 130:.\DSP\Source\BasicMathFunctions/arm_mult_f32.c ****         /* C = A * B */
 131:.\DSP\Source\BasicMathFunctions/arm_mult_f32.c **** 
 132:.\DSP\Source\BasicMathFunctions/arm_mult_f32.c ****     	/* Multiply the inputs and then store the results in the destination buffer. */
 133:.\DSP\Source\BasicMathFunctions/arm_mult_f32.c ****         vec1 = vld1q_f32(pSrcA);
 134:.\DSP\Source\BasicMathFunctions/arm_mult_f32.c ****         vec2 = vld1q_f32(pSrcB);
 135:.\DSP\Source\BasicMathFunctions/arm_mult_f32.c ****         res = vmulq_f32(vec1, vec2);
 136:.\DSP\Source\BasicMathFunctions/arm_mult_f32.c ****         vst1q_f32(pDst, res);
 137:.\DSP\Source\BasicMathFunctions/arm_mult_f32.c **** 
 138:.\DSP\Source\BasicMathFunctions/arm_mult_f32.c ****         /* Increment pointers */
 139:.\DSP\Source\BasicMathFunctions/arm_mult_f32.c ****         pSrcA += 4;
 140:.\DSP\Source\BasicMathFunctions/arm_mult_f32.c ****         pSrcB += 4; 
 141:.\DSP\Source\BasicMathFunctions/arm_mult_f32.c ****         pDst += 4;
 142:.\DSP\Source\BasicMathFunctions/arm_mult_f32.c ****         
 143:.\DSP\Source\BasicMathFunctions/arm_mult_f32.c ****         /* Decrement the loop counter */
 144:.\DSP\Source\BasicMathFunctions/arm_mult_f32.c ****         blkCnt--;
 145:.\DSP\Source\BasicMathFunctions/arm_mult_f32.c ****     }
 146:.\DSP\Source\BasicMathFunctions/arm_mult_f32.c **** 
 147:.\DSP\Source\BasicMathFunctions/arm_mult_f32.c ****     /* Tail */
 148:.\DSP\Source\BasicMathFunctions/arm_mult_f32.c ****     blkCnt = blockSize & 0x3;
 149:.\DSP\Source\BasicMathFunctions/arm_mult_f32.c **** 
 150:.\DSP\Source\BasicMathFunctions/arm_mult_f32.c **** #else
 151:.\DSP\Source\BasicMathFunctions/arm_mult_f32.c **** #if defined (ARM_MATH_LOOPUNROLL) && !defined(ARM_MATH_AUTOVECTORIZE)
 152:.\DSP\Source\BasicMathFunctions/arm_mult_f32.c **** 
 153:.\DSP\Source\BasicMathFunctions/arm_mult_f32.c ****   /* Loop unrolling: Compute 4 outputs at a time */
 154:.\DSP\Source\BasicMathFunctions/arm_mult_f32.c ****   blkCnt = blockSize >> 2U;
 155:.\DSP\Source\BasicMathFunctions/arm_mult_f32.c **** 
 156:.\DSP\Source\BasicMathFunctions/arm_mult_f32.c ****   while (blkCnt > 0U)
 157:.\DSP\Source\BasicMathFunctions/arm_mult_f32.c ****   {
 158:.\DSP\Source\BasicMathFunctions/arm_mult_f32.c ****     /* C = A * B */
 159:.\DSP\Source\BasicMathFunctions/arm_mult_f32.c **** 
 160:.\DSP\Source\BasicMathFunctions/arm_mult_f32.c ****     /* Multiply inputs and store result in destination buffer. */
 161:.\DSP\Source\BasicMathFunctions/arm_mult_f32.c ****     *pDst++ = (*pSrcA++) * (*pSrcB++);
 162:.\DSP\Source\BasicMathFunctions/arm_mult_f32.c **** 
 163:.\DSP\Source\BasicMathFunctions/arm_mult_f32.c ****     *pDst++ = (*pSrcA++) * (*pSrcB++);
 164:.\DSP\Source\BasicMathFunctions/arm_mult_f32.c **** 
 165:.\DSP\Source\BasicMathFunctions/arm_mult_f32.c ****     *pDst++ = (*pSrcA++) * (*pSrcB++);
 166:.\DSP\Source\BasicMathFunctions/arm_mult_f32.c **** 
 167:.\DSP\Source\BasicMathFunctions/arm_mult_f32.c ****     *pDst++ = (*pSrcA++) * (*pSrcB++);
 168:.\DSP\Source\BasicMathFunctions/arm_mult_f32.c **** 
 169:.\DSP\Source\BasicMathFunctions/arm_mult_f32.c ****     /* Decrement loop counter */
 170:.\DSP\Source\BasicMathFunctions/arm_mult_f32.c ****     blkCnt--;
 171:.\DSP\Source\BasicMathFunctions/arm_mult_f32.c ****   }
 172:.\DSP\Source\BasicMathFunctions/arm_mult_f32.c **** 
 173:.\DSP\Source\BasicMathFunctions/arm_mult_f32.c ****   /* Loop unrolling: Compute remaining outputs */
 174:.\DSP\Source\BasicMathFunctions/arm_mult_f32.c ****   blkCnt = blockSize % 0x4U;
 175:.\DSP\Source\BasicMathFunctions/arm_mult_f32.c **** 
 176:.\DSP\Source\BasicMathFunctions/arm_mult_f32.c **** #else
 177:.\DSP\Source\BasicMathFunctions/arm_mult_f32.c **** 
 178:.\DSP\Source\BasicMathFunctions/arm_mult_f32.c ****   /* Initialize blkCnt with number of samples */
 179:.\DSP\Source\BasicMathFunctions/arm_mult_f32.c ****   blkCnt = blockSize;
 180:.\DSP\Source\BasicMathFunctions/arm_mult_f32.c **** 
 181:.\DSP\Source\BasicMathFunctions/arm_mult_f32.c **** #endif /* #if defined (ARM_MATH_LOOPUNROLL) */
 182:.\DSP\Source\BasicMathFunctions/arm_mult_f32.c **** #endif /* #if defined(ARM_MATH_NEON) */
 183:.\DSP\Source\BasicMathFunctions/arm_mult_f32.c **** 
 184:.\DSP\Source\BasicMathFunctions/arm_mult_f32.c ****   while (blkCnt > 0U)
  44              		.loc 1 184 0
ARM GAS  C:\Users\IVYLIU~1\AppData\Local\Temp\ccG49wPF.s 			page 5


  45 0008 0CE0     		b	.L2
  46              	.LVL2:
  47              	.L3:
 185:.\DSP\Source\BasicMathFunctions/arm_mult_f32.c ****   {
 186:.\DSP\Source\BasicMathFunctions/arm_mult_f32.c ****     /* C = A * B */
 187:.\DSP\Source\BasicMathFunctions/arm_mult_f32.c **** 
 188:.\DSP\Source\BasicMathFunctions/arm_mult_f32.c ****     /* Multiply input and store result in destination buffer. */
 189:.\DSP\Source\BasicMathFunctions/arm_mult_f32.c ****     *pDst++ = (*pSrcA++) * (*pSrcB++);
  48              		.loc 1 189 0
  49 000a 05F10408 		add	r8, r5, #4
  50              	.LVL3:
  51 000e 061D     		adds	r6, r0, #4
  52              	.LVL4:
  53 0010 0F1D     		adds	r7, r1, #4
  54              	.LVL5:
  55 0012 0068     		ldr	r0, [r0]	@ float
  56 0014 0968     		ldr	r1, [r1]	@ float
  57 0016 FFF7FEFF 		bl	__aeabi_fmul
  58              	.LVL6:
  59 001a 2860     		str	r0, [r5]	@ float
 190:.\DSP\Source\BasicMathFunctions/arm_mult_f32.c **** 
 191:.\DSP\Source\BasicMathFunctions/arm_mult_f32.c ****     /* Decrement loop counter */
 192:.\DSP\Source\BasicMathFunctions/arm_mult_f32.c ****     blkCnt--;
  60              		.loc 1 192 0
  61 001c 013C     		subs	r4, r4, #1
  62              	.LVL7:
 189:.\DSP\Source\BasicMathFunctions/arm_mult_f32.c **** 
  63              		.loc 1 189 0
  64 001e 4546     		mov	r5, r8
  65 0020 3946     		mov	r1, r7
  66 0022 3046     		mov	r0, r6
  67              	.LVL8:
  68              	.L2:
 184:.\DSP\Source\BasicMathFunctions/arm_mult_f32.c ****   {
  69              		.loc 1 184 0
  70 0024 002C     		cmp	r4, #0
  71 0026 F0D1     		bne	.L3
 193:.\DSP\Source\BasicMathFunctions/arm_mult_f32.c ****   }
 194:.\DSP\Source\BasicMathFunctions/arm_mult_f32.c **** 
 195:.\DSP\Source\BasicMathFunctions/arm_mult_f32.c **** }
  72              		.loc 1 195 0
  73 0028 BDE8F081 		pop	{r4, r5, r6, r7, r8, pc}
  74              		.cfi_endproc
  75              	.LFE83:
  76              		.size	arm_mult_f32, .-arm_mult_f32
  77              		.text
  78              	.Letext0:
  79              		.file 2 "c:\\program files (x86)\\cypress\\psoc creator\\3.3\\psoc creator\\import\\gnu\\arm\\4.9.
  80              		.file 3 "c:\\program files (x86)\\cypress\\psoc creator\\3.3\\psoc creator\\import\\gnu\\arm\\4.9.
  81              		.file 4 ".\\DSP\\Include/arm_math_types.h"
  82              		.file 5 ".\\Core\\Include/cmsis_gcc.h"