ARM GAS  C:\Users\IVYLIU~1\AppData\Local\Temp\cckUVzDM.s 			page 1


   1              		.syntax unified
   2              		.cpu cortex-m3
   3              		.fpu softvfp
   4              		.eabi_attribute 20, 1
   5              		.eabi_attribute 21, 1
   6              		.eabi_attribute 23, 3
   7              		.eabi_attribute 24, 1
   8              		.eabi_attribute 25, 1
   9              		.eabi_attribute 26, 1
  10              		.eabi_attribute 30, 1
  11              		.eabi_attribute 34, 1
  12              		.eabi_attribute 18, 4
  13              		.thumb
  14              		.file	"arm_rfft_fast_init_f32.c"
  15              		.text
  16              	.Ltext0:
  17              		.cfi_sections	.debug_frame
  18              		.section	.text.arm_rfft_32_fast_init_f32,"ax",%progbits
  19              		.align	2
  20              		.thumb
  21              		.thumb_func
  22              		.type	arm_rfft_32_fast_init_f32, %function
  23              	arm_rfft_32_fast_init_f32:
  24              	.LFB84:
  25              		.file 1 ".\\DSP\\Source\\TransformFunctions\\arm_rfft_fast_init_f32.c"
   1:.\DSP\Source\TransformFunctions/arm_rfft_fast_init_f32.c **** /* ----------------------------------------------------------------------
   2:.\DSP\Source\TransformFunctions/arm_rfft_fast_init_f32.c ****  * Project:      CMSIS DSP Library
   3:.\DSP\Source\TransformFunctions/arm_rfft_fast_init_f32.c ****  * Title:        arm_rfft_fast_init_f32.c
   4:.\DSP\Source\TransformFunctions/arm_rfft_fast_init_f32.c ****  * Description:  Split Radix Decimation in Frequency CFFT Floating point processing function
   5:.\DSP\Source\TransformFunctions/arm_rfft_fast_init_f32.c ****  *
   6:.\DSP\Source\TransformFunctions/arm_rfft_fast_init_f32.c ****  * $Date:        23 April 2021
   7:.\DSP\Source\TransformFunctions/arm_rfft_fast_init_f32.c ****  * $Revision:    V1.9.0
   8:.\DSP\Source\TransformFunctions/arm_rfft_fast_init_f32.c ****  *
   9:.\DSP\Source\TransformFunctions/arm_rfft_fast_init_f32.c ****  * Target Processor: Cortex-M and Cortex-A cores
  10:.\DSP\Source\TransformFunctions/arm_rfft_fast_init_f32.c ****  * -------------------------------------------------------------------- */
  11:.\DSP\Source\TransformFunctions/arm_rfft_fast_init_f32.c **** /*
  12:.\DSP\Source\TransformFunctions/arm_rfft_fast_init_f32.c ****  * Copyright (C) 2010-2021 ARM Limited or its affiliates. All rights reserved.
  13:.\DSP\Source\TransformFunctions/arm_rfft_fast_init_f32.c ****  *
  14:.\DSP\Source\TransformFunctions/arm_rfft_fast_init_f32.c ****  * SPDX-License-Identifier: Apache-2.0
  15:.\DSP\Source\TransformFunctions/arm_rfft_fast_init_f32.c ****  *
  16:.\DSP\Source\TransformFunctions/arm_rfft_fast_init_f32.c ****  * Licensed under the Apache License, Version 2.0 (the License); you may
  17:.\DSP\Source\TransformFunctions/arm_rfft_fast_init_f32.c ****  * not use this file except in compliance with the License.
  18:.\DSP\Source\TransformFunctions/arm_rfft_fast_init_f32.c ****  * You may obtain a copy of the License at
  19:.\DSP\Source\TransformFunctions/arm_rfft_fast_init_f32.c ****  *
  20:.\DSP\Source\TransformFunctions/arm_rfft_fast_init_f32.c ****  * www.apache.org/licenses/LICENSE-2.0
  21:.\DSP\Source\TransformFunctions/arm_rfft_fast_init_f32.c ****  *
  22:.\DSP\Source\TransformFunctions/arm_rfft_fast_init_f32.c ****  * Unless required by applicable law or agreed to in writing, software
  23:.\DSP\Source\TransformFunctions/arm_rfft_fast_init_f32.c ****  * distributed under the License is distributed on an AS IS BASIS, WITHOUT
  24:.\DSP\Source\TransformFunctions/arm_rfft_fast_init_f32.c ****  * WARRANTIES OR CONDITIONS OF ANY KIND, either express or implied.
  25:.\DSP\Source\TransformFunctions/arm_rfft_fast_init_f32.c ****  * See the License for the specific language governing permissions and
  26:.\DSP\Source\TransformFunctions/arm_rfft_fast_init_f32.c ****  * limitations under the License.
  27:.\DSP\Source\TransformFunctions/arm_rfft_fast_init_f32.c ****  */
  28:.\DSP\Source\TransformFunctions/arm_rfft_fast_init_f32.c **** 
  29:.\DSP\Source\TransformFunctions/arm_rfft_fast_init_f32.c **** #include "dsp/transform_functions.h"
  30:.\DSP\Source\TransformFunctions/arm_rfft_fast_init_f32.c **** #include "arm_common_tables.h"
  31:.\DSP\Source\TransformFunctions/arm_rfft_fast_init_f32.c **** 
  32:.\DSP\Source\TransformFunctions/arm_rfft_fast_init_f32.c **** /**
ARM GAS  C:\Users\IVYLIU~1\AppData\Local\Temp\cckUVzDM.s 			page 2


  33:.\DSP\Source\TransformFunctions/arm_rfft_fast_init_f32.c ****   @ingroup groupTransforms
  34:.\DSP\Source\TransformFunctions/arm_rfft_fast_init_f32.c ****  */
  35:.\DSP\Source\TransformFunctions/arm_rfft_fast_init_f32.c **** 
  36:.\DSP\Source\TransformFunctions/arm_rfft_fast_init_f32.c **** /**
  37:.\DSP\Source\TransformFunctions/arm_rfft_fast_init_f32.c ****   @addtogroup RealFFT
  38:.\DSP\Source\TransformFunctions/arm_rfft_fast_init_f32.c ****   @{
  39:.\DSP\Source\TransformFunctions/arm_rfft_fast_init_f32.c ****  */
  40:.\DSP\Source\TransformFunctions/arm_rfft_fast_init_f32.c **** 
  41:.\DSP\Source\TransformFunctions/arm_rfft_fast_init_f32.c **** #if !defined(ARM_DSP_CONFIG_TABLES) || defined(ARM_ALL_FFT_TABLES) || (defined(ARM_TABLE_TWIDDLECOE
  42:.\DSP\Source\TransformFunctions/arm_rfft_fast_init_f32.c **** 
  43:.\DSP\Source\TransformFunctions/arm_rfft_fast_init_f32.c **** /**
  44:.\DSP\Source\TransformFunctions/arm_rfft_fast_init_f32.c ****   @private
  45:.\DSP\Source\TransformFunctions/arm_rfft_fast_init_f32.c ****   @brief         Initialization function for the 32pt floating-point real FFT.
  46:.\DSP\Source\TransformFunctions/arm_rfft_fast_init_f32.c ****   @param[in,out] S  points to an arm_rfft_fast_instance_f32 structure
  47:.\DSP\Source\TransformFunctions/arm_rfft_fast_init_f32.c ****   @return        execution status
  48:.\DSP\Source\TransformFunctions/arm_rfft_fast_init_f32.c ****                    - \ref ARM_MATH_SUCCESS        : Operation successful
  49:.\DSP\Source\TransformFunctions/arm_rfft_fast_init_f32.c ****                    - \ref ARM_MATH_ARGUMENT_ERROR : an error is detected
  50:.\DSP\Source\TransformFunctions/arm_rfft_fast_init_f32.c ****  */
  51:.\DSP\Source\TransformFunctions/arm_rfft_fast_init_f32.c **** 
  52:.\DSP\Source\TransformFunctions/arm_rfft_fast_init_f32.c **** static arm_status arm_rfft_32_fast_init_f32( arm_rfft_fast_instance_f32 * S ) {
  26              		.loc 1 52 0
  27              		.cfi_startproc
  28              		@ args = 0, pretend = 0, frame = 0
  29              		@ frame_needed = 0, uses_anonymous_args = 0
  30              	.LVL0:
  53:.\DSP\Source\TransformFunctions/arm_rfft_fast_init_f32.c **** 
  54:.\DSP\Source\TransformFunctions/arm_rfft_fast_init_f32.c ****   arm_status status;
  55:.\DSP\Source\TransformFunctions/arm_rfft_fast_init_f32.c **** 
  56:.\DSP\Source\TransformFunctions/arm_rfft_fast_init_f32.c ****   if( !S ) return ARM_MATH_ARGUMENT_ERROR;
  31              		.loc 1 56 0
  32 0000 50B1     		cbz	r0, .L3
  52:.\DSP\Source\TransformFunctions/arm_rfft_fast_init_f32.c **** 
  33              		.loc 1 52 0
  34 0002 10B5     		push	{r4, lr}
  35              		.cfi_def_cfa_offset 8
  36              		.cfi_offset 4, -8
  37              		.cfi_offset 14, -4
  38 0004 0446     		mov	r4, r0
  57:.\DSP\Source\TransformFunctions/arm_rfft_fast_init_f32.c **** 
  58:.\DSP\Source\TransformFunctions/arm_rfft_fast_init_f32.c ****   status=arm_cfft_init_f32(&(S->Sint),16);
  39              		.loc 1 58 0
  40 0006 1021     		movs	r1, #16
  41 0008 FFF7FEFF 		bl	arm_cfft_init_f32
  42              	.LVL1:
  59:.\DSP\Source\TransformFunctions/arm_rfft_fast_init_f32.c ****   if (status != ARM_MATH_SUCCESS)
  43              		.loc 1 59 0
  44 000c 38B9     		cbnz	r0, .L4
  60:.\DSP\Source\TransformFunctions/arm_rfft_fast_init_f32.c ****   {
  61:.\DSP\Source\TransformFunctions/arm_rfft_fast_init_f32.c ****     return(status);
  62:.\DSP\Source\TransformFunctions/arm_rfft_fast_init_f32.c ****   }
  63:.\DSP\Source\TransformFunctions/arm_rfft_fast_init_f32.c **** 
  64:.\DSP\Source\TransformFunctions/arm_rfft_fast_init_f32.c ****   S->fftLenRFFT = 32U;
  45              		.loc 1 64 0
  46 000e 2023     		movs	r3, #32
  47 0010 2382     		strh	r3, [r4, #16]	@ movhi
  65:.\DSP\Source\TransformFunctions/arm_rfft_fast_init_f32.c ****   S->pTwiddleRFFT    = (float32_t *) twiddleCoef_rfft_32;
  48              		.loc 1 65 0
ARM GAS  C:\Users\IVYLIU~1\AppData\Local\Temp\cckUVzDM.s 			page 3


  49 0012 044B     		ldr	r3, .L6
  50 0014 6361     		str	r3, [r4, #20]
  66:.\DSP\Source\TransformFunctions/arm_rfft_fast_init_f32.c **** 
  67:.\DSP\Source\TransformFunctions/arm_rfft_fast_init_f32.c ****   return ARM_MATH_SUCCESS;
  51              		.loc 1 67 0
  52 0016 02E0     		b	.L2
  53              	.LVL2:
  54              	.L3:
  55              		.cfi_def_cfa_offset 0
  56              		.cfi_restore 4
  57              		.cfi_restore 14
  56:.\DSP\Source\TransformFunctions/arm_rfft_fast_init_f32.c **** 
  58              		.loc 1 56 0
  59 0018 FF20     		movs	r0, #255
  60              	.LVL3:
  68:.\DSP\Source\TransformFunctions/arm_rfft_fast_init_f32.c **** }
  61              		.loc 1 68 0
  62 001a 40B2     		sxtb	r0, r0
  63 001c 7047     		bx	lr
  64              	.LVL4:
  65              	.L4:
  66              		.cfi_def_cfa_offset 8
  67              		.cfi_offset 4, -8
  68              		.cfi_offset 14, -4
  69              	.L2:
  70 001e 40B2     		sxtb	r0, r0
  71 0020 10BD     		pop	{r4, pc}
  72              	.LVL5:
  73              	.L7:
  74 0022 00BF     		.align	2
  75              	.L6:
  76 0024 00000000 		.word	twiddleCoef_rfft_32
  77              		.cfi_endproc
  78              	.LFE84:
  79              		.size	arm_rfft_32_fast_init_f32, .-arm_rfft_32_fast_init_f32
  80              		.section	.text.arm_rfft_64_fast_init_f32,"ax",%progbits
  81              		.align	2
  82              		.thumb
  83              		.thumb_func
  84              		.type	arm_rfft_64_fast_init_f32, %function
  85              	arm_rfft_64_fast_init_f32:
  86              	.LFB85:
  69:.\DSP\Source\TransformFunctions/arm_rfft_fast_init_f32.c **** #endif 
  70:.\DSP\Source\TransformFunctions/arm_rfft_fast_init_f32.c **** 
  71:.\DSP\Source\TransformFunctions/arm_rfft_fast_init_f32.c **** #if !defined(ARM_DSP_CONFIG_TABLES) || defined(ARM_ALL_FFT_TABLES) || (defined(ARM_TABLE_TWIDDLECOE
  72:.\DSP\Source\TransformFunctions/arm_rfft_fast_init_f32.c **** 
  73:.\DSP\Source\TransformFunctions/arm_rfft_fast_init_f32.c **** /**
  74:.\DSP\Source\TransformFunctions/arm_rfft_fast_init_f32.c ****   @private
  75:.\DSP\Source\TransformFunctions/arm_rfft_fast_init_f32.c ****   @brief         Initialization function for the 64pt floating-point real FFT.
  76:.\DSP\Source\TransformFunctions/arm_rfft_fast_init_f32.c ****   @param[in,out] S  points to an arm_rfft_fast_instance_f32 structure
  77:.\DSP\Source\TransformFunctions/arm_rfft_fast_init_f32.c ****   @return        execution status
  78:.\DSP\Source\TransformFunctions/arm_rfft_fast_init_f32.c ****                    - \ref ARM_MATH_SUCCESS        : Operation successful
  79:.\DSP\Source\TransformFunctions/arm_rfft_fast_init_f32.c ****                    - \ref ARM_MATH_ARGUMENT_ERROR : an error is detected
  80:.\DSP\Source\TransformFunctions/arm_rfft_fast_init_f32.c ****  */
  81:.\DSP\Source\TransformFunctions/arm_rfft_fast_init_f32.c **** 
  82:.\DSP\Source\TransformFunctions/arm_rfft_fast_init_f32.c **** static arm_status arm_rfft_64_fast_init_f32( arm_rfft_fast_instance_f32 * S ) {
  87              		.loc 1 82 0
ARM GAS  C:\Users\IVYLIU~1\AppData\Local\Temp\cckUVzDM.s 			page 4


  88              		.cfi_startproc
  89              		@ args = 0, pretend = 0, frame = 0
  90              		@ frame_needed = 0, uses_anonymous_args = 0
  91              	.LVL6:
  83:.\DSP\Source\TransformFunctions/arm_rfft_fast_init_f32.c **** 
  84:.\DSP\Source\TransformFunctions/arm_rfft_fast_init_f32.c ****   arm_status status;
  85:.\DSP\Source\TransformFunctions/arm_rfft_fast_init_f32.c **** 
  86:.\DSP\Source\TransformFunctions/arm_rfft_fast_init_f32.c ****   if( !S ) return ARM_MATH_ARGUMENT_ERROR;
  92              		.loc 1 86 0
  93 0000 50B1     		cbz	r0, .L10
  82:.\DSP\Source\TransformFunctions/arm_rfft_fast_init_f32.c **** 
  94              		.loc 1 82 0
  95 0002 10B5     		push	{r4, lr}
  96              		.cfi_def_cfa_offset 8
  97              		.cfi_offset 4, -8
  98              		.cfi_offset 14, -4
  99 0004 0446     		mov	r4, r0
  87:.\DSP\Source\TransformFunctions/arm_rfft_fast_init_f32.c **** 
  88:.\DSP\Source\TransformFunctions/arm_rfft_fast_init_f32.c ****   status=arm_cfft_init_f32(&(S->Sint),32);
 100              		.loc 1 88 0
 101 0006 2021     		movs	r1, #32
 102 0008 FFF7FEFF 		bl	arm_cfft_init_f32
 103              	.LVL7:
  89:.\DSP\Source\TransformFunctions/arm_rfft_fast_init_f32.c ****   if (status != ARM_MATH_SUCCESS)
 104              		.loc 1 89 0
 105 000c 38B9     		cbnz	r0, .L11
  90:.\DSP\Source\TransformFunctions/arm_rfft_fast_init_f32.c ****   {
  91:.\DSP\Source\TransformFunctions/arm_rfft_fast_init_f32.c ****     return(status);
  92:.\DSP\Source\TransformFunctions/arm_rfft_fast_init_f32.c ****   }
  93:.\DSP\Source\TransformFunctions/arm_rfft_fast_init_f32.c ****   S->fftLenRFFT = 64U;
 106              		.loc 1 93 0
 107 000e 4023     		movs	r3, #64
 108 0010 2382     		strh	r3, [r4, #16]	@ movhi
  94:.\DSP\Source\TransformFunctions/arm_rfft_fast_init_f32.c **** 
  95:.\DSP\Source\TransformFunctions/arm_rfft_fast_init_f32.c ****   S->pTwiddleRFFT    = (float32_t *) twiddleCoef_rfft_64;
 109              		.loc 1 95 0
 110 0012 044B     		ldr	r3, .L13
 111 0014 6361     		str	r3, [r4, #20]
  96:.\DSP\Source\TransformFunctions/arm_rfft_fast_init_f32.c **** 
  97:.\DSP\Source\TransformFunctions/arm_rfft_fast_init_f32.c ****   return ARM_MATH_SUCCESS;
 112              		.loc 1 97 0
 113 0016 02E0     		b	.L9
 114              	.LVL8:
 115              	.L10:
 116              		.cfi_def_cfa_offset 0
 117              		.cfi_restore 4
 118              		.cfi_restore 14
  86:.\DSP\Source\TransformFunctions/arm_rfft_fast_init_f32.c **** 
 119              		.loc 1 86 0
 120 0018 FF20     		movs	r0, #255
 121              	.LVL9:
  98:.\DSP\Source\TransformFunctions/arm_rfft_fast_init_f32.c **** }
 122              		.loc 1 98 0
 123 001a 40B2     		sxtb	r0, r0
 124 001c 7047     		bx	lr
 125              	.LVL10:
 126              	.L11:
ARM GAS  C:\Users\IVYLIU~1\AppData\Local\Temp\cckUVzDM.s 			page 5


 127              		.cfi_def_cfa_offset 8
 128              		.cfi_offset 4, -8
 129              		.cfi_offset 14, -4
 130              	.L9:
 131 001e 40B2     		sxtb	r0, r0
 132 0020 10BD     		pop	{r4, pc}
 133              	.LVL11:
 134              	.L14:
 135 0022 00BF     		.align	2
 136              	.L13:
 137 0024 00000000 		.word	twiddleCoef_rfft_64
 138              		.cfi_endproc
 139              	.LFE85:
 140              		.size	arm_rfft_64_fast_init_f32, .-arm_rfft_64_fast_init_f32
 141              		.section	.text.arm_rfft_128_fast_init_f32,"ax",%progbits
 142              		.align	2
 143              		.thumb
 144              		.thumb_func
 145              		.type	arm_rfft_128_fast_init_f32, %function
 146              	arm_rfft_128_fast_init_f32:
 147              	.LFB86:
  99:.\DSP\Source\TransformFunctions/arm_rfft_fast_init_f32.c **** #endif 
 100:.\DSP\Source\TransformFunctions/arm_rfft_fast_init_f32.c **** 
 101:.\DSP\Source\TransformFunctions/arm_rfft_fast_init_f32.c **** #if !defined(ARM_DSP_CONFIG_TABLES) || defined(ARM_ALL_FFT_TABLES) || (defined(ARM_TABLE_TWIDDLECOE
 102:.\DSP\Source\TransformFunctions/arm_rfft_fast_init_f32.c **** 
 103:.\DSP\Source\TransformFunctions/arm_rfft_fast_init_f32.c **** /**
 104:.\DSP\Source\TransformFunctions/arm_rfft_fast_init_f32.c ****   @private
 105:.\DSP\Source\TransformFunctions/arm_rfft_fast_init_f32.c ****   @brief         Initialization function for the 128pt floating-point real FFT.
 106:.\DSP\Source\TransformFunctions/arm_rfft_fast_init_f32.c ****   @param[in,out] S  points to an arm_rfft_fast_instance_f32 structure
 107:.\DSP\Source\TransformFunctions/arm_rfft_fast_init_f32.c ****   @return        execution status
 108:.\DSP\Source\TransformFunctions/arm_rfft_fast_init_f32.c ****                    - \ref ARM_MATH_SUCCESS        : Operation successful
 109:.\DSP\Source\TransformFunctions/arm_rfft_fast_init_f32.c ****                    - \ref ARM_MATH_ARGUMENT_ERROR : an error is detected
 110:.\DSP\Source\TransformFunctions/arm_rfft_fast_init_f32.c ****  */
 111:.\DSP\Source\TransformFunctions/arm_rfft_fast_init_f32.c **** 
 112:.\DSP\Source\TransformFunctions/arm_rfft_fast_init_f32.c **** static arm_status arm_rfft_128_fast_init_f32( arm_rfft_fast_instance_f32 * S ) {
 148              		.loc 1 112 0
 149              		.cfi_startproc
 150              		@ args = 0, pretend = 0, frame = 0
 151              		@ frame_needed = 0, uses_anonymous_args = 0
 152              	.LVL12:
 113:.\DSP\Source\TransformFunctions/arm_rfft_fast_init_f32.c **** 
 114:.\DSP\Source\TransformFunctions/arm_rfft_fast_init_f32.c ****   arm_status status;
 115:.\DSP\Source\TransformFunctions/arm_rfft_fast_init_f32.c **** 
 116:.\DSP\Source\TransformFunctions/arm_rfft_fast_init_f32.c ****   if( !S ) return ARM_MATH_ARGUMENT_ERROR;
 153              		.loc 1 116 0
 154 0000 50B1     		cbz	r0, .L17
 112:.\DSP\Source\TransformFunctions/arm_rfft_fast_init_f32.c **** 
 155              		.loc 1 112 0
 156 0002 10B5     		push	{r4, lr}
 157              		.cfi_def_cfa_offset 8
 158              		.cfi_offset 4, -8
 159              		.cfi_offset 14, -4
 160 0004 0446     		mov	r4, r0
 117:.\DSP\Source\TransformFunctions/arm_rfft_fast_init_f32.c **** 
 118:.\DSP\Source\TransformFunctions/arm_rfft_fast_init_f32.c ****   status=arm_cfft_init_f32(&(S->Sint),64);
 161              		.loc 1 118 0
 162 0006 4021     		movs	r1, #64
ARM GAS  C:\Users\IVYLIU~1\AppData\Local\Temp\cckUVzDM.s 			page 6


 163 0008 FFF7FEFF 		bl	arm_cfft_init_f32
 164              	.LVL13:
 119:.\DSP\Source\TransformFunctions/arm_rfft_fast_init_f32.c ****   if (status != ARM_MATH_SUCCESS)
 165              		.loc 1 119 0
 166 000c 38B9     		cbnz	r0, .L18
 120:.\DSP\Source\TransformFunctions/arm_rfft_fast_init_f32.c ****   {
 121:.\DSP\Source\TransformFunctions/arm_rfft_fast_init_f32.c ****     return(status);
 122:.\DSP\Source\TransformFunctions/arm_rfft_fast_init_f32.c ****   }
 123:.\DSP\Source\TransformFunctions/arm_rfft_fast_init_f32.c ****   S->fftLenRFFT = 128;
 167              		.loc 1 123 0
 168 000e 8023     		movs	r3, #128
 169 0010 2382     		strh	r3, [r4, #16]	@ movhi
 124:.\DSP\Source\TransformFunctions/arm_rfft_fast_init_f32.c **** 
 125:.\DSP\Source\TransformFunctions/arm_rfft_fast_init_f32.c ****   S->pTwiddleRFFT    = (float32_t *) twiddleCoef_rfft_128;
 170              		.loc 1 125 0
 171 0012 044B     		ldr	r3, .L20
 172 0014 6361     		str	r3, [r4, #20]
 126:.\DSP\Source\TransformFunctions/arm_rfft_fast_init_f32.c **** 
 127:.\DSP\Source\TransformFunctions/arm_rfft_fast_init_f32.c ****   return ARM_MATH_SUCCESS;
 173              		.loc 1 127 0
 174 0016 02E0     		b	.L16
 175              	.LVL14:
 176              	.L17:
 177              		.cfi_def_cfa_offset 0
 178              		.cfi_restore 4
 179              		.cfi_restore 14
 116:.\DSP\Source\TransformFunctions/arm_rfft_fast_init_f32.c **** 
 180              		.loc 1 116 0
 181 0018 FF20     		movs	r0, #255
 182              	.LVL15:
 128:.\DSP\Source\TransformFunctions/arm_rfft_fast_init_f32.c **** }
 183              		.loc 1 128 0
 184 001a 40B2     		sxtb	r0, r0
 185 001c 7047     		bx	lr
 186              	.LVL16:
 187              	.L18:
 188              		.cfi_def_cfa_offset 8
 189              		.cfi_offset 4, -8
 190              		.cfi_offset 14, -4
 191              	.L16:
 192 001e 40B2     		sxtb	r0, r0
 193 0020 10BD     		pop	{r4, pc}
 194              	.LVL17:
 195              	.L21:
 196 0022 00BF     		.align	2
 197              	.L20:
 198 0024 00000000 		.word	twiddleCoef_rfft_128
 199              		.cfi_endproc
 200              	.LFE86:
 201              		.size	arm_rfft_128_fast_init_f32, .-arm_rfft_128_fast_init_f32
 202              		.section	.text.arm_rfft_256_fast_init_f32,"ax",%progbits
 203              		.align	2
 204              		.thumb
 205              		.thumb_func
 206              		.type	arm_rfft_256_fast_init_f32, %function
 207              	arm_rfft_256_fast_init_f32:
 208              	.LFB87:
ARM GAS  C:\Users\IVYLIU~1\AppData\Local\Temp\cckUVzDM.s 			page 7


 129:.\DSP\Source\TransformFunctions/arm_rfft_fast_init_f32.c **** #endif 
 130:.\DSP\Source\TransformFunctions/arm_rfft_fast_init_f32.c **** 
 131:.\DSP\Source\TransformFunctions/arm_rfft_fast_init_f32.c **** #if !defined(ARM_DSP_CONFIG_TABLES) || defined(ARM_ALL_FFT_TABLES) || (defined(ARM_TABLE_TWIDDLECOE
 132:.\DSP\Source\TransformFunctions/arm_rfft_fast_init_f32.c **** 
 133:.\DSP\Source\TransformFunctions/arm_rfft_fast_init_f32.c **** /**
 134:.\DSP\Source\TransformFunctions/arm_rfft_fast_init_f32.c ****   @private
 135:.\DSP\Source\TransformFunctions/arm_rfft_fast_init_f32.c ****   @brief         Initialization function for the 256pt floating-point real FFT.
 136:.\DSP\Source\TransformFunctions/arm_rfft_fast_init_f32.c ****   @param[in,out] S  points to an arm_rfft_fast_instance_f32 structure
 137:.\DSP\Source\TransformFunctions/arm_rfft_fast_init_f32.c ****   @return        execution status
 138:.\DSP\Source\TransformFunctions/arm_rfft_fast_init_f32.c ****                    - \ref ARM_MATH_SUCCESS        : Operation successful
 139:.\DSP\Source\TransformFunctions/arm_rfft_fast_init_f32.c ****                    - \ref ARM_MATH_ARGUMENT_ERROR : an error is detected
 140:.\DSP\Source\TransformFunctions/arm_rfft_fast_init_f32.c **** */
 141:.\DSP\Source\TransformFunctions/arm_rfft_fast_init_f32.c **** 
 142:.\DSP\Source\TransformFunctions/arm_rfft_fast_init_f32.c **** static arm_status arm_rfft_256_fast_init_f32( arm_rfft_fast_instance_f32 * S ) {
 209              		.loc 1 142 0
 210              		.cfi_startproc
 211              		@ args = 0, pretend = 0, frame = 0
 212              		@ frame_needed = 0, uses_anonymous_args = 0
 213              	.LVL18:
 143:.\DSP\Source\TransformFunctions/arm_rfft_fast_init_f32.c **** 
 144:.\DSP\Source\TransformFunctions/arm_rfft_fast_init_f32.c ****   arm_status status;
 145:.\DSP\Source\TransformFunctions/arm_rfft_fast_init_f32.c **** 
 146:.\DSP\Source\TransformFunctions/arm_rfft_fast_init_f32.c ****   if( !S ) return ARM_MATH_ARGUMENT_ERROR;
 214              		.loc 1 146 0
 215 0000 58B1     		cbz	r0, .L24
 142:.\DSP\Source\TransformFunctions/arm_rfft_fast_init_f32.c **** 
 216              		.loc 1 142 0
 217 0002 10B5     		push	{r4, lr}
 218              		.cfi_def_cfa_offset 8
 219              		.cfi_offset 4, -8
 220              		.cfi_offset 14, -4
 221 0004 0446     		mov	r4, r0
 147:.\DSP\Source\TransformFunctions/arm_rfft_fast_init_f32.c **** 
 148:.\DSP\Source\TransformFunctions/arm_rfft_fast_init_f32.c ****   status=arm_cfft_init_f32(&(S->Sint),128);
 222              		.loc 1 148 0
 223 0006 8021     		movs	r1, #128
 224 0008 FFF7FEFF 		bl	arm_cfft_init_f32
 225              	.LVL19:
 149:.\DSP\Source\TransformFunctions/arm_rfft_fast_init_f32.c ****   if (status != ARM_MATH_SUCCESS)
 226              		.loc 1 149 0
 227 000c 40B9     		cbnz	r0, .L25
 150:.\DSP\Source\TransformFunctions/arm_rfft_fast_init_f32.c ****   {
 151:.\DSP\Source\TransformFunctions/arm_rfft_fast_init_f32.c ****     return(status);
 152:.\DSP\Source\TransformFunctions/arm_rfft_fast_init_f32.c ****   }
 153:.\DSP\Source\TransformFunctions/arm_rfft_fast_init_f32.c ****   S->fftLenRFFT = 256U;
 228              		.loc 1 153 0
 229 000e 4FF48073 		mov	r3, #256
 230 0012 2382     		strh	r3, [r4, #16]	@ movhi
 154:.\DSP\Source\TransformFunctions/arm_rfft_fast_init_f32.c **** 
 155:.\DSP\Source\TransformFunctions/arm_rfft_fast_init_f32.c ****   S->pTwiddleRFFT    = (float32_t *) twiddleCoef_rfft_256;
 231              		.loc 1 155 0
 232 0014 034B     		ldr	r3, .L27
 233 0016 6361     		str	r3, [r4, #20]
 156:.\DSP\Source\TransformFunctions/arm_rfft_fast_init_f32.c **** 
 157:.\DSP\Source\TransformFunctions/arm_rfft_fast_init_f32.c ****   return ARM_MATH_SUCCESS;
 234              		.loc 1 157 0
 235 0018 02E0     		b	.L23
ARM GAS  C:\Users\IVYLIU~1\AppData\Local\Temp\cckUVzDM.s 			page 8


 236              	.LVL20:
 237              	.L24:
 238              		.cfi_def_cfa_offset 0
 239              		.cfi_restore 4
 240              		.cfi_restore 14
 146:.\DSP\Source\TransformFunctions/arm_rfft_fast_init_f32.c **** 
 241              		.loc 1 146 0
 242 001a FF20     		movs	r0, #255
 243              	.LVL21:
 158:.\DSP\Source\TransformFunctions/arm_rfft_fast_init_f32.c **** }
 244              		.loc 1 158 0
 245 001c 40B2     		sxtb	r0, r0
 246 001e 7047     		bx	lr
 247              	.LVL22:
 248              	.L25:
 249              		.cfi_def_cfa_offset 8
 250              		.cfi_offset 4, -8
 251              		.cfi_offset 14, -4
 252              	.L23:
 253 0020 40B2     		sxtb	r0, r0
 254 0022 10BD     		pop	{r4, pc}
 255              	.LVL23:
 256              	.L28:
 257              		.align	2
 258              	.L27:
 259 0024 00000000 		.word	twiddleCoef_rfft_256
 260              		.cfi_endproc
 261              	.LFE87:
 262              		.size	arm_rfft_256_fast_init_f32, .-arm_rfft_256_fast_init_f32
 263              		.section	.text.arm_rfft_512_fast_init_f32,"ax",%progbits
 264              		.align	2
 265              		.thumb
 266              		.thumb_func
 267              		.type	arm_rfft_512_fast_init_f32, %function
 268              	arm_rfft_512_fast_init_f32:
 269              	.LFB88:
 159:.\DSP\Source\TransformFunctions/arm_rfft_fast_init_f32.c **** #endif 
 160:.\DSP\Source\TransformFunctions/arm_rfft_fast_init_f32.c **** 
 161:.\DSP\Source\TransformFunctions/arm_rfft_fast_init_f32.c **** #if !defined(ARM_DSP_CONFIG_TABLES) || defined(ARM_ALL_FFT_TABLES) || (defined(ARM_TABLE_TWIDDLECOE
 162:.\DSP\Source\TransformFunctions/arm_rfft_fast_init_f32.c **** 
 163:.\DSP\Source\TransformFunctions/arm_rfft_fast_init_f32.c **** /**
 164:.\DSP\Source\TransformFunctions/arm_rfft_fast_init_f32.c ****   @private
 165:.\DSP\Source\TransformFunctions/arm_rfft_fast_init_f32.c ****   @brief         Initialization function for the 512pt floating-point real FFT.
 166:.\DSP\Source\TransformFunctions/arm_rfft_fast_init_f32.c ****   @param[in,out] S  points to an arm_rfft_fast_instance_f32 structure
 167:.\DSP\Source\TransformFunctions/arm_rfft_fast_init_f32.c ****   @return        execution status
 168:.\DSP\Source\TransformFunctions/arm_rfft_fast_init_f32.c ****                    - \ref ARM_MATH_SUCCESS        : Operation successful
 169:.\DSP\Source\TransformFunctions/arm_rfft_fast_init_f32.c ****                    - \ref ARM_MATH_ARGUMENT_ERROR : an error is detected
 170:.\DSP\Source\TransformFunctions/arm_rfft_fast_init_f32.c ****  */
 171:.\DSP\Source\TransformFunctions/arm_rfft_fast_init_f32.c **** 
 172:.\DSP\Source\TransformFunctions/arm_rfft_fast_init_f32.c **** static arm_status arm_rfft_512_fast_init_f32( arm_rfft_fast_instance_f32 * S ) {
 270              		.loc 1 172 0
 271              		.cfi_startproc
 272              		@ args = 0, pretend = 0, frame = 0
 273              		@ frame_needed = 0, uses_anonymous_args = 0
 274              	.LVL24:
 173:.\DSP\Source\TransformFunctions/arm_rfft_fast_init_f32.c **** 
 174:.\DSP\Source\TransformFunctions/arm_rfft_fast_init_f32.c ****   arm_status status;
ARM GAS  C:\Users\IVYLIU~1\AppData\Local\Temp\cckUVzDM.s 			page 9


 175:.\DSP\Source\TransformFunctions/arm_rfft_fast_init_f32.c **** 
 176:.\DSP\Source\TransformFunctions/arm_rfft_fast_init_f32.c ****   if( !S ) return ARM_MATH_ARGUMENT_ERROR;
 275              		.loc 1 176 0
 276 0000 60B1     		cbz	r0, .L31
 172:.\DSP\Source\TransformFunctions/arm_rfft_fast_init_f32.c **** 
 277              		.loc 1 172 0
 278 0002 10B5     		push	{r4, lr}
 279              		.cfi_def_cfa_offset 8
 280              		.cfi_offset 4, -8
 281              		.cfi_offset 14, -4
 282 0004 0446     		mov	r4, r0
 177:.\DSP\Source\TransformFunctions/arm_rfft_fast_init_f32.c **** 
 178:.\DSP\Source\TransformFunctions/arm_rfft_fast_init_f32.c ****   status=arm_cfft_init_f32(&(S->Sint),256);
 283              		.loc 1 178 0
 284 0006 4FF48071 		mov	r1, #256
 285 000a FFF7FEFF 		bl	arm_cfft_init_f32
 286              	.LVL25:
 179:.\DSP\Source\TransformFunctions/arm_rfft_fast_init_f32.c ****   if (status != ARM_MATH_SUCCESS)
 287              		.loc 1 179 0
 288 000e 40B9     		cbnz	r0, .L32
 180:.\DSP\Source\TransformFunctions/arm_rfft_fast_init_f32.c ****   {
 181:.\DSP\Source\TransformFunctions/arm_rfft_fast_init_f32.c ****     return(status);
 182:.\DSP\Source\TransformFunctions/arm_rfft_fast_init_f32.c ****   }
 183:.\DSP\Source\TransformFunctions/arm_rfft_fast_init_f32.c ****   S->fftLenRFFT = 512U;
 289              		.loc 1 183 0
 290 0010 4FF40073 		mov	r3, #512
 291 0014 2382     		strh	r3, [r4, #16]	@ movhi
 184:.\DSP\Source\TransformFunctions/arm_rfft_fast_init_f32.c **** 
 185:.\DSP\Source\TransformFunctions/arm_rfft_fast_init_f32.c ****   S->pTwiddleRFFT    = (float32_t *) twiddleCoef_rfft_512;
 292              		.loc 1 185 0
 293 0016 044B     		ldr	r3, .L34
 294 0018 6361     		str	r3, [r4, #20]
 186:.\DSP\Source\TransformFunctions/arm_rfft_fast_init_f32.c **** 
 187:.\DSP\Source\TransformFunctions/arm_rfft_fast_init_f32.c ****   return ARM_MATH_SUCCESS;
 295              		.loc 1 187 0
 296 001a 02E0     		b	.L30
 297              	.LVL26:
 298              	.L31:
 299              		.cfi_def_cfa_offset 0
 300              		.cfi_restore 4
 301              		.cfi_restore 14
 176:.\DSP\Source\TransformFunctions/arm_rfft_fast_init_f32.c **** 
 302              		.loc 1 176 0
 303 001c FF20     		movs	r0, #255
 304              	.LVL27:
 188:.\DSP\Source\TransformFunctions/arm_rfft_fast_init_f32.c **** }
 305              		.loc 1 188 0
 306 001e 40B2     		sxtb	r0, r0
 307 0020 7047     		bx	lr
 308              	.LVL28:
 309              	.L32:
 310              		.cfi_def_cfa_offset 8
 311              		.cfi_offset 4, -8
 312              		.cfi_offset 14, -4
 313              	.L30:
 314 0022 40B2     		sxtb	r0, r0
 315 0024 10BD     		pop	{r4, pc}
ARM GAS  C:\Users\IVYLIU~1\AppData\Local\Temp\cckUVzDM.s 			page 10


 316              	.LVL29:
 317              	.L35:
 318 0026 00BF     		.align	2
 319              	.L34:
 320 0028 00000000 		.word	twiddleCoef_rfft_512
 321              		.cfi_endproc
 322              	.LFE88:
 323              		.size	arm_rfft_512_fast_init_f32, .-arm_rfft_512_fast_init_f32
 324              		.section	.text.arm_rfft_1024_fast_init_f32,"ax",%progbits
 325              		.align	2
 326              		.thumb
 327              		.thumb_func
 328              		.type	arm_rfft_1024_fast_init_f32, %function
 329              	arm_rfft_1024_fast_init_f32:
 330              	.LFB89:
 189:.\DSP\Source\TransformFunctions/arm_rfft_fast_init_f32.c **** #endif 
 190:.\DSP\Source\TransformFunctions/arm_rfft_fast_init_f32.c **** 
 191:.\DSP\Source\TransformFunctions/arm_rfft_fast_init_f32.c **** #if !defined(ARM_DSP_CONFIG_TABLES) || defined(ARM_ALL_FFT_TABLES) || (defined(ARM_TABLE_TWIDDLECOE
 192:.\DSP\Source\TransformFunctions/arm_rfft_fast_init_f32.c **** /**
 193:.\DSP\Source\TransformFunctions/arm_rfft_fast_init_f32.c ****   @private
 194:.\DSP\Source\TransformFunctions/arm_rfft_fast_init_f32.c ****   @brief         Initialization function for the 1024pt floating-point real FFT.
 195:.\DSP\Source\TransformFunctions/arm_rfft_fast_init_f32.c ****   @param[in,out] S  points to an arm_rfft_fast_instance_f32 structure
 196:.\DSP\Source\TransformFunctions/arm_rfft_fast_init_f32.c ****   @return        execution status
 197:.\DSP\Source\TransformFunctions/arm_rfft_fast_init_f32.c ****                    - \ref ARM_MATH_SUCCESS        : Operation successful
 198:.\DSP\Source\TransformFunctions/arm_rfft_fast_init_f32.c ****                    - \ref ARM_MATH_ARGUMENT_ERROR : an error is detected
 199:.\DSP\Source\TransformFunctions/arm_rfft_fast_init_f32.c ****  */
 200:.\DSP\Source\TransformFunctions/arm_rfft_fast_init_f32.c **** 
 201:.\DSP\Source\TransformFunctions/arm_rfft_fast_init_f32.c **** static arm_status arm_rfft_1024_fast_init_f32( arm_rfft_fast_instance_f32 * S ) {
 331              		.loc 1 201 0
 332              		.cfi_startproc
 333              		@ args = 0, pretend = 0, frame = 0
 334              		@ frame_needed = 0, uses_anonymous_args = 0
 335              	.LVL30:
 202:.\DSP\Source\TransformFunctions/arm_rfft_fast_init_f32.c **** 
 203:.\DSP\Source\TransformFunctions/arm_rfft_fast_init_f32.c ****   arm_status status;
 204:.\DSP\Source\TransformFunctions/arm_rfft_fast_init_f32.c **** 
 205:.\DSP\Source\TransformFunctions/arm_rfft_fast_init_f32.c ****   if( !S ) return ARM_MATH_ARGUMENT_ERROR;
 336              		.loc 1 205 0
 337 0000 60B1     		cbz	r0, .L38
 201:.\DSP\Source\TransformFunctions/arm_rfft_fast_init_f32.c **** 
 338              		.loc 1 201 0
 339 0002 10B5     		push	{r4, lr}
 340              		.cfi_def_cfa_offset 8
 341              		.cfi_offset 4, -8
 342              		.cfi_offset 14, -4
 343 0004 0446     		mov	r4, r0
 206:.\DSP\Source\TransformFunctions/arm_rfft_fast_init_f32.c **** 
 207:.\DSP\Source\TransformFunctions/arm_rfft_fast_init_f32.c ****   status=arm_cfft_init_f32(&(S->Sint),512);
 344              		.loc 1 207 0
 345 0006 4FF40071 		mov	r1, #512
 346 000a FFF7FEFF 		bl	arm_cfft_init_f32
 347              	.LVL31:
 208:.\DSP\Source\TransformFunctions/arm_rfft_fast_init_f32.c ****   if (status != ARM_MATH_SUCCESS)
 348              		.loc 1 208 0
 349 000e 40B9     		cbnz	r0, .L39
 209:.\DSP\Source\TransformFunctions/arm_rfft_fast_init_f32.c ****   {
 210:.\DSP\Source\TransformFunctions/arm_rfft_fast_init_f32.c ****     return(status);
ARM GAS  C:\Users\IVYLIU~1\AppData\Local\Temp\cckUVzDM.s 			page 11


 211:.\DSP\Source\TransformFunctions/arm_rfft_fast_init_f32.c ****   }
 212:.\DSP\Source\TransformFunctions/arm_rfft_fast_init_f32.c ****   S->fftLenRFFT = 1024U;
 350              		.loc 1 212 0
 351 0010 4FF48063 		mov	r3, #1024
 352 0014 2382     		strh	r3, [r4, #16]	@ movhi
 213:.\DSP\Source\TransformFunctions/arm_rfft_fast_init_f32.c **** 
 214:.\DSP\Source\TransformFunctions/arm_rfft_fast_init_f32.c ****   S->pTwiddleRFFT    = (float32_t *) twiddleCoef_rfft_1024;
 353              		.loc 1 214 0
 354 0016 044B     		ldr	r3, .L41
 355 0018 6361     		str	r3, [r4, #20]
 215:.\DSP\Source\TransformFunctions/arm_rfft_fast_init_f32.c **** 
 216:.\DSP\Source\TransformFunctions/arm_rfft_fast_init_f32.c ****   return ARM_MATH_SUCCESS;
 356              		.loc 1 216 0
 357 001a 02E0     		b	.L37
 358              	.LVL32:
 359              	.L38:
 360              		.cfi_def_cfa_offset 0
 361              		.cfi_restore 4
 362              		.cfi_restore 14
 205:.\DSP\Source\TransformFunctions/arm_rfft_fast_init_f32.c **** 
 363              		.loc 1 205 0
 364 001c FF20     		movs	r0, #255
 365              	.LVL33:
 217:.\DSP\Source\TransformFunctions/arm_rfft_fast_init_f32.c **** }
 366              		.loc 1 217 0
 367 001e 40B2     		sxtb	r0, r0
 368 0020 7047     		bx	lr
 369              	.LVL34:
 370              	.L39:
 371              		.cfi_def_cfa_offset 8
 372              		.cfi_offset 4, -8
 373              		.cfi_offset 14, -4
 374              	.L37:
 375 0022 40B2     		sxtb	r0, r0
 376 0024 10BD     		pop	{r4, pc}
 377              	.LVL35:
 378              	.L42:
 379 0026 00BF     		.align	2
 380              	.L41:
 381 0028 00000000 		.word	twiddleCoef_rfft_1024
 382              		.cfi_endproc
 383              	.LFE89:
 384              		.size	arm_rfft_1024_fast_init_f32, .-arm_rfft_1024_fast_init_f32
 385              		.section	.text.arm_rfft_2048_fast_init_f32,"ax",%progbits
 386              		.align	2
 387              		.thumb
 388              		.thumb_func
 389              		.type	arm_rfft_2048_fast_init_f32, %function
 390              	arm_rfft_2048_fast_init_f32:
 391              	.LFB90:
 218:.\DSP\Source\TransformFunctions/arm_rfft_fast_init_f32.c **** #endif
 219:.\DSP\Source\TransformFunctions/arm_rfft_fast_init_f32.c **** 
 220:.\DSP\Source\TransformFunctions/arm_rfft_fast_init_f32.c **** #if !defined(ARM_DSP_CONFIG_TABLES) || defined(ARM_ALL_FFT_TABLES) || (defined(ARM_TABLE_TWIDDLECOE
 221:.\DSP\Source\TransformFunctions/arm_rfft_fast_init_f32.c **** /**
 222:.\DSP\Source\TransformFunctions/arm_rfft_fast_init_f32.c ****   @private
 223:.\DSP\Source\TransformFunctions/arm_rfft_fast_init_f32.c ****   @brief         Initialization function for the 2048pt floating-point real FFT.
 224:.\DSP\Source\TransformFunctions/arm_rfft_fast_init_f32.c ****   @param[in,out] S  points to an arm_rfft_fast_instance_f32 structure
ARM GAS  C:\Users\IVYLIU~1\AppData\Local\Temp\cckUVzDM.s 			page 12


 225:.\DSP\Source\TransformFunctions/arm_rfft_fast_init_f32.c ****   @return        execution status
 226:.\DSP\Source\TransformFunctions/arm_rfft_fast_init_f32.c ****                    - \ref ARM_MATH_SUCCESS        : Operation successful
 227:.\DSP\Source\TransformFunctions/arm_rfft_fast_init_f32.c ****                    - \ref ARM_MATH_ARGUMENT_ERROR : an error is detected
 228:.\DSP\Source\TransformFunctions/arm_rfft_fast_init_f32.c ****  */
 229:.\DSP\Source\TransformFunctions/arm_rfft_fast_init_f32.c **** static arm_status arm_rfft_2048_fast_init_f32( arm_rfft_fast_instance_f32 * S ) {
 392              		.loc 1 229 0
 393              		.cfi_startproc
 394              		@ args = 0, pretend = 0, frame = 0
 395              		@ frame_needed = 0, uses_anonymous_args = 0
 396              	.LVL36:
 230:.\DSP\Source\TransformFunctions/arm_rfft_fast_init_f32.c **** 
 231:.\DSP\Source\TransformFunctions/arm_rfft_fast_init_f32.c ****   arm_status status;
 232:.\DSP\Source\TransformFunctions/arm_rfft_fast_init_f32.c **** 
 233:.\DSP\Source\TransformFunctions/arm_rfft_fast_init_f32.c ****   if( !S ) return ARM_MATH_ARGUMENT_ERROR;
 397              		.loc 1 233 0
 398 0000 60B1     		cbz	r0, .L45
 229:.\DSP\Source\TransformFunctions/arm_rfft_fast_init_f32.c **** 
 399              		.loc 1 229 0
 400 0002 10B5     		push	{r4, lr}
 401              		.cfi_def_cfa_offset 8
 402              		.cfi_offset 4, -8
 403              		.cfi_offset 14, -4
 404 0004 0446     		mov	r4, r0
 234:.\DSP\Source\TransformFunctions/arm_rfft_fast_init_f32.c **** 
 235:.\DSP\Source\TransformFunctions/arm_rfft_fast_init_f32.c ****   status=arm_cfft_init_f32(&(S->Sint),1024);
 405              		.loc 1 235 0
 406 0006 4FF48061 		mov	r1, #1024
 407 000a FFF7FEFF 		bl	arm_cfft_init_f32
 408              	.LVL37:
 236:.\DSP\Source\TransformFunctions/arm_rfft_fast_init_f32.c ****   if (status != ARM_MATH_SUCCESS)
 409              		.loc 1 236 0
 410 000e 40B9     		cbnz	r0, .L46
 237:.\DSP\Source\TransformFunctions/arm_rfft_fast_init_f32.c ****   {
 238:.\DSP\Source\TransformFunctions/arm_rfft_fast_init_f32.c ****     return(status);
 239:.\DSP\Source\TransformFunctions/arm_rfft_fast_init_f32.c ****   }
 240:.\DSP\Source\TransformFunctions/arm_rfft_fast_init_f32.c ****   S->fftLenRFFT = 2048U;
 411              		.loc 1 240 0
 412 0010 4FF40063 		mov	r3, #2048
 413 0014 2382     		strh	r3, [r4, #16]	@ movhi
 241:.\DSP\Source\TransformFunctions/arm_rfft_fast_init_f32.c **** 
 242:.\DSP\Source\TransformFunctions/arm_rfft_fast_init_f32.c ****   S->pTwiddleRFFT    = (float32_t *) twiddleCoef_rfft_2048;
 414              		.loc 1 242 0
 415 0016 044B     		ldr	r3, .L48
 416 0018 6361     		str	r3, [r4, #20]
 243:.\DSP\Source\TransformFunctions/arm_rfft_fast_init_f32.c **** 
 244:.\DSP\Source\TransformFunctions/arm_rfft_fast_init_f32.c ****   return ARM_MATH_SUCCESS;
 417              		.loc 1 244 0
 418 001a 02E0     		b	.L44
 419              	.LVL38:
 420              	.L45:
 421              		.cfi_def_cfa_offset 0
 422              		.cfi_restore 4
 423              		.cfi_restore 14
 233:.\DSP\Source\TransformFunctions/arm_rfft_fast_init_f32.c **** 
 424              		.loc 1 233 0
 425 001c FF20     		movs	r0, #255
 426              	.LVL39:
ARM GAS  C:\Users\IVYLIU~1\AppData\Local\Temp\cckUVzDM.s 			page 13


 245:.\DSP\Source\TransformFunctions/arm_rfft_fast_init_f32.c **** }
 427              		.loc 1 245 0
 428 001e 40B2     		sxtb	r0, r0
 429 0020 7047     		bx	lr
 430              	.LVL40:
 431              	.L46:
 432              		.cfi_def_cfa_offset 8
 433              		.cfi_offset 4, -8
 434              		.cfi_offset 14, -4
 435              	.L44:
 436 0022 40B2     		sxtb	r0, r0
 437 0024 10BD     		pop	{r4, pc}
 438              	.LVL41:
 439              	.L49:
 440 0026 00BF     		.align	2
 441              	.L48:
 442 0028 00000000 		.word	twiddleCoef_rfft_2048
 443              		.cfi_endproc
 444              	.LFE90:
 445              		.size	arm_rfft_2048_fast_init_f32, .-arm_rfft_2048_fast_init_f32
 446              		.section	.text.arm_rfft_4096_fast_init_f32,"ax",%progbits
 447              		.align	2
 448              		.thumb
 449              		.thumb_func
 450              		.type	arm_rfft_4096_fast_init_f32, %function
 451              	arm_rfft_4096_fast_init_f32:
 452              	.LFB91:
 246:.\DSP\Source\TransformFunctions/arm_rfft_fast_init_f32.c **** #endif
 247:.\DSP\Source\TransformFunctions/arm_rfft_fast_init_f32.c **** 
 248:.\DSP\Source\TransformFunctions/arm_rfft_fast_init_f32.c **** #if !defined(ARM_DSP_CONFIG_TABLES) || defined(ARM_ALL_FFT_TABLES) || (defined(ARM_TABLE_TWIDDLECOE
 249:.\DSP\Source\TransformFunctions/arm_rfft_fast_init_f32.c **** /**
 250:.\DSP\Source\TransformFunctions/arm_rfft_fast_init_f32.c ****   @private
 251:.\DSP\Source\TransformFunctions/arm_rfft_fast_init_f32.c **** * @brief         Initialization function for the 4096pt floating-point real FFT.
 252:.\DSP\Source\TransformFunctions/arm_rfft_fast_init_f32.c **** * @param[in,out] S  points to an arm_rfft_fast_instance_f32 structure
 253:.\DSP\Source\TransformFunctions/arm_rfft_fast_init_f32.c ****   @return        execution status
 254:.\DSP\Source\TransformFunctions/arm_rfft_fast_init_f32.c ****                    - \ref ARM_MATH_SUCCESS        : Operation successful
 255:.\DSP\Source\TransformFunctions/arm_rfft_fast_init_f32.c ****                    - \ref ARM_MATH_ARGUMENT_ERROR : an error is detected
 256:.\DSP\Source\TransformFunctions/arm_rfft_fast_init_f32.c ****  */
 257:.\DSP\Source\TransformFunctions/arm_rfft_fast_init_f32.c **** 
 258:.\DSP\Source\TransformFunctions/arm_rfft_fast_init_f32.c **** static arm_status arm_rfft_4096_fast_init_f32( arm_rfft_fast_instance_f32 * S ) {
 453              		.loc 1 258 0
 454              		.cfi_startproc
 455              		@ args = 0, pretend = 0, frame = 0
 456              		@ frame_needed = 0, uses_anonymous_args = 0
 457              	.LVL42:
 259:.\DSP\Source\TransformFunctions/arm_rfft_fast_init_f32.c **** 
 260:.\DSP\Source\TransformFunctions/arm_rfft_fast_init_f32.c ****   arm_status status;
 261:.\DSP\Source\TransformFunctions/arm_rfft_fast_init_f32.c **** 
 262:.\DSP\Source\TransformFunctions/arm_rfft_fast_init_f32.c ****   if( !S ) return ARM_MATH_ARGUMENT_ERROR;
 458              		.loc 1 262 0
 459 0000 60B1     		cbz	r0, .L52
 258:.\DSP\Source\TransformFunctions/arm_rfft_fast_init_f32.c **** 
 460              		.loc 1 258 0
 461 0002 10B5     		push	{r4, lr}
 462              		.cfi_def_cfa_offset 8
 463              		.cfi_offset 4, -8
 464              		.cfi_offset 14, -4
ARM GAS  C:\Users\IVYLIU~1\AppData\Local\Temp\cckUVzDM.s 			page 14


 465 0004 0446     		mov	r4, r0
 263:.\DSP\Source\TransformFunctions/arm_rfft_fast_init_f32.c **** 
 264:.\DSP\Source\TransformFunctions/arm_rfft_fast_init_f32.c ****   status=arm_cfft_init_f32(&(S->Sint),2048);
 466              		.loc 1 264 0
 467 0006 4FF40061 		mov	r1, #2048
 468 000a FFF7FEFF 		bl	arm_cfft_init_f32
 469              	.LVL43:
 265:.\DSP\Source\TransformFunctions/arm_rfft_fast_init_f32.c ****   if (status != ARM_MATH_SUCCESS)
 470              		.loc 1 265 0
 471 000e 40B9     		cbnz	r0, .L53
 266:.\DSP\Source\TransformFunctions/arm_rfft_fast_init_f32.c ****   {
 267:.\DSP\Source\TransformFunctions/arm_rfft_fast_init_f32.c ****     return(status);
 268:.\DSP\Source\TransformFunctions/arm_rfft_fast_init_f32.c ****   }
 269:.\DSP\Source\TransformFunctions/arm_rfft_fast_init_f32.c ****   S->fftLenRFFT = 4096U;
 472              		.loc 1 269 0
 473 0010 4FF48053 		mov	r3, #4096
 474 0014 2382     		strh	r3, [r4, #16]	@ movhi
 270:.\DSP\Source\TransformFunctions/arm_rfft_fast_init_f32.c **** 
 271:.\DSP\Source\TransformFunctions/arm_rfft_fast_init_f32.c ****   S->pTwiddleRFFT    = (float32_t *) twiddleCoef_rfft_4096;
 475              		.loc 1 271 0
 476 0016 044B     		ldr	r3, .L55
 477 0018 6361     		str	r3, [r4, #20]
 272:.\DSP\Source\TransformFunctions/arm_rfft_fast_init_f32.c **** 
 273:.\DSP\Source\TransformFunctions/arm_rfft_fast_init_f32.c ****   return ARM_MATH_SUCCESS;
 478              		.loc 1 273 0
 479 001a 02E0     		b	.L51
 480              	.LVL44:
 481              	.L52:
 482              		.cfi_def_cfa_offset 0
 483              		.cfi_restore 4
 484              		.cfi_restore 14
 262:.\DSP\Source\TransformFunctions/arm_rfft_fast_init_f32.c **** 
 485              		.loc 1 262 0
 486 001c FF20     		movs	r0, #255
 487              	.LVL45:
 274:.\DSP\Source\TransformFunctions/arm_rfft_fast_init_f32.c **** }
 488              		.loc 1 274 0
 489 001e 40B2     		sxtb	r0, r0
 490 0020 7047     		bx	lr
 491              	.LVL46:
 492              	.L53:
 493              		.cfi_def_cfa_offset 8
 494              		.cfi_offset 4, -8
 495              		.cfi_offset 14, -4
 496              	.L51:
 497 0022 40B2     		sxtb	r0, r0
 498 0024 10BD     		pop	{r4, pc}
 499              	.LVL47:
 500              	.L56:
 501 0026 00BF     		.align	2
 502              	.L55:
 503 0028 00000000 		.word	twiddleCoef_rfft_4096
 504              		.cfi_endproc
 505              	.LFE91:
 506              		.size	arm_rfft_4096_fast_init_f32, .-arm_rfft_4096_fast_init_f32
 507              		.section	.text.arm_rfft_fast_init_f32,"ax",%progbits
 508              		.align	2
ARM GAS  C:\Users\IVYLIU~1\AppData\Local\Temp\cckUVzDM.s 			page 15


 509              		.global	arm_rfft_fast_init_f32
 510              		.thumb
 511              		.thumb_func
 512              		.type	arm_rfft_fast_init_f32, %function
 513              	arm_rfft_fast_init_f32:
 514              	.LFB92:
 275:.\DSP\Source\TransformFunctions/arm_rfft_fast_init_f32.c **** #endif 
 276:.\DSP\Source\TransformFunctions/arm_rfft_fast_init_f32.c **** 
 277:.\DSP\Source\TransformFunctions/arm_rfft_fast_init_f32.c **** /**
 278:.\DSP\Source\TransformFunctions/arm_rfft_fast_init_f32.c ****   @brief         Initialization function for the floating-point real FFT.
 279:.\DSP\Source\TransformFunctions/arm_rfft_fast_init_f32.c ****   @param[in,out] S       points to an arm_rfft_fast_instance_f32 structure
 280:.\DSP\Source\TransformFunctions/arm_rfft_fast_init_f32.c ****   @param[in]     fftLen  length of the Real Sequence
 281:.\DSP\Source\TransformFunctions/arm_rfft_fast_init_f32.c ****   @return        execution status
 282:.\DSP\Source\TransformFunctions/arm_rfft_fast_init_f32.c ****                    - \ref ARM_MATH_SUCCESS        : Operation successful
 283:.\DSP\Source\TransformFunctions/arm_rfft_fast_init_f32.c ****                    - \ref ARM_MATH_ARGUMENT_ERROR : <code>fftLen</code> is not a supported length
 284:.\DSP\Source\TransformFunctions/arm_rfft_fast_init_f32.c **** 
 285:.\DSP\Source\TransformFunctions/arm_rfft_fast_init_f32.c ****   @par           Description
 286:.\DSP\Source\TransformFunctions/arm_rfft_fast_init_f32.c ****                    The parameter <code>fftLen</code> specifies the length of RFFT/CIFFT process.
 287:.\DSP\Source\TransformFunctions/arm_rfft_fast_init_f32.c ****                    Supported FFT Lengths are 32, 64, 128, 256, 512, 1024, 2048, 4096.
 288:.\DSP\Source\TransformFunctions/arm_rfft_fast_init_f32.c ****   @par
 289:.\DSP\Source\TransformFunctions/arm_rfft_fast_init_f32.c ****                    This Function also initializes Twiddle factor table pointer and Bit reversal tab
 290:.\DSP\Source\TransformFunctions/arm_rfft_fast_init_f32.c ****  */
 291:.\DSP\Source\TransformFunctions/arm_rfft_fast_init_f32.c **** 
 292:.\DSP\Source\TransformFunctions/arm_rfft_fast_init_f32.c **** arm_status arm_rfft_fast_init_f32(
 293:.\DSP\Source\TransformFunctions/arm_rfft_fast_init_f32.c ****   arm_rfft_fast_instance_f32 * S,
 294:.\DSP\Source\TransformFunctions/arm_rfft_fast_init_f32.c ****   uint16_t fftLen)
 295:.\DSP\Source\TransformFunctions/arm_rfft_fast_init_f32.c **** {
 515              		.loc 1 295 0
 516              		.cfi_startproc
 517              		@ args = 0, pretend = 0, frame = 0
 518              		@ frame_needed = 0, uses_anonymous_args = 0
 519              	.LVL48:
 520 0000 08B5     		push	{r3, lr}
 521              		.cfi_def_cfa_offset 8
 522              		.cfi_offset 3, -8
 523              		.cfi_offset 14, -4
 524              	.LVL49:
 296:.\DSP\Source\TransformFunctions/arm_rfft_fast_init_f32.c ****   typedef arm_status(*fft_init_ptr)( arm_rfft_fast_instance_f32 *);
 297:.\DSP\Source\TransformFunctions/arm_rfft_fast_init_f32.c ****   fft_init_ptr fptr = 0x0;
 298:.\DSP\Source\TransformFunctions/arm_rfft_fast_init_f32.c **** 
 299:.\DSP\Source\TransformFunctions/arm_rfft_fast_init_f32.c ****   switch (fftLen)
 525              		.loc 1 299 0
 526 0002 B1F5807F 		cmp	r1, #256
 527 0006 1DD0     		beq	.L59
 528 0008 06D8     		bhi	.L60
 529 000a 4029     		cmp	r1, #64
 530 000c 1ED0     		beq	.L61
 531 000e 8029     		cmp	r1, #128
 532 0010 1AD0     		beq	.L62
 533 0012 2029     		cmp	r1, #32
 534 0014 0ED1     		bne	.L58
 535 0016 1BE0     		b	.L63
 536              	.L60:
 537 0018 B1F5806F 		cmp	r1, #1024
 538 001c 0ED0     		beq	.L64
 539 001e 03D8     		bhi	.L65
 540 0020 B1F5007F 		cmp	r1, #512
ARM GAS  C:\Users\IVYLIU~1\AppData\Local\Temp\cckUVzDM.s 			page 16


 541 0024 0CD0     		beq	.L66
 542 0026 05E0     		b	.L58
 543              	.L65:
 544 0028 B1F5006F 		cmp	r1, #2048
 545 002c 04D0     		beq	.L67
 546 002e B1F5805F 		cmp	r1, #4096
 547 0032 0FD0     		beq	.L70
 548              	.L58:
 297:.\DSP\Source\TransformFunctions/arm_rfft_fast_init_f32.c **** 
 549              		.loc 1 297 0
 550 0034 0023     		movs	r3, #0
 551 0036 0EE0     		b	.L68
 552              	.L67:
 553              	.LVL50:
 300:.\DSP\Source\TransformFunctions/arm_rfft_fast_init_f32.c ****   {
 301:.\DSP\Source\TransformFunctions/arm_rfft_fast_init_f32.c **** #if !defined(ARM_DSP_CONFIG_TABLES) || defined(ARM_ALL_FFT_TABLES) || (defined(ARM_TABLE_TWIDDLECOE
 302:.\DSP\Source\TransformFunctions/arm_rfft_fast_init_f32.c ****   case 4096U:
 303:.\DSP\Source\TransformFunctions/arm_rfft_fast_init_f32.c ****     fptr = arm_rfft_4096_fast_init_f32;
 304:.\DSP\Source\TransformFunctions/arm_rfft_fast_init_f32.c ****     break;
 305:.\DSP\Source\TransformFunctions/arm_rfft_fast_init_f32.c **** #endif
 306:.\DSP\Source\TransformFunctions/arm_rfft_fast_init_f32.c **** #if !defined(ARM_DSP_CONFIG_TABLES) || defined(ARM_ALL_FFT_TABLES) || (defined(ARM_TABLE_TWIDDLECOE
 307:.\DSP\Source\TransformFunctions/arm_rfft_fast_init_f32.c ****   case 2048U:
 308:.\DSP\Source\TransformFunctions/arm_rfft_fast_init_f32.c ****     fptr = arm_rfft_2048_fast_init_f32;
 554              		.loc 1 308 0
 555 0038 0A4B     		ldr	r3, .L73
 309:.\DSP\Source\TransformFunctions/arm_rfft_fast_init_f32.c ****     break;
 556              		.loc 1 309 0
 557 003a 0CE0     		b	.L68
 558              	.LVL51:
 559              	.L64:
 310:.\DSP\Source\TransformFunctions/arm_rfft_fast_init_f32.c **** #endif
 311:.\DSP\Source\TransformFunctions/arm_rfft_fast_init_f32.c **** #if !defined(ARM_DSP_CONFIG_TABLES) || defined(ARM_ALL_FFT_TABLES) || (defined(ARM_TABLE_TWIDDLECOE
 312:.\DSP\Source\TransformFunctions/arm_rfft_fast_init_f32.c ****   case 1024U:
 313:.\DSP\Source\TransformFunctions/arm_rfft_fast_init_f32.c ****     fptr = arm_rfft_1024_fast_init_f32;
 560              		.loc 1 313 0
 561 003c 0A4B     		ldr	r3, .L73+4
 314:.\DSP\Source\TransformFunctions/arm_rfft_fast_init_f32.c ****     break;
 562              		.loc 1 314 0
 563 003e 0AE0     		b	.L68
 564              	.LVL52:
 565              	.L66:
 315:.\DSP\Source\TransformFunctions/arm_rfft_fast_init_f32.c **** #endif
 316:.\DSP\Source\TransformFunctions/arm_rfft_fast_init_f32.c **** #if !defined(ARM_DSP_CONFIG_TABLES) || defined(ARM_ALL_FFT_TABLES) || (defined(ARM_TABLE_TWIDDLECOE
 317:.\DSP\Source\TransformFunctions/arm_rfft_fast_init_f32.c ****   case 512U:
 318:.\DSP\Source\TransformFunctions/arm_rfft_fast_init_f32.c ****     fptr = arm_rfft_512_fast_init_f32;
 566              		.loc 1 318 0
 567 0040 0A4B     		ldr	r3, .L73+8
 319:.\DSP\Source\TransformFunctions/arm_rfft_fast_init_f32.c ****     break;
 568              		.loc 1 319 0
 569 0042 08E0     		b	.L68
 570              	.LVL53:
 571              	.L59:
 320:.\DSP\Source\TransformFunctions/arm_rfft_fast_init_f32.c **** #endif
 321:.\DSP\Source\TransformFunctions/arm_rfft_fast_init_f32.c **** #if !defined(ARM_DSP_CONFIG_TABLES) || defined(ARM_ALL_FFT_TABLES) || (defined(ARM_TABLE_TWIDDLECOE
 322:.\DSP\Source\TransformFunctions/arm_rfft_fast_init_f32.c ****   case 256U:
 323:.\DSP\Source\TransformFunctions/arm_rfft_fast_init_f32.c ****     fptr = arm_rfft_256_fast_init_f32;
 572              		.loc 1 323 0
ARM GAS  C:\Users\IVYLIU~1\AppData\Local\Temp\cckUVzDM.s 			page 17


 573 0044 0A4B     		ldr	r3, .L73+12
 324:.\DSP\Source\TransformFunctions/arm_rfft_fast_init_f32.c ****     break;
 574              		.loc 1 324 0
 575 0046 06E0     		b	.L68
 576              	.LVL54:
 577              	.L62:
 325:.\DSP\Source\TransformFunctions/arm_rfft_fast_init_f32.c **** #endif
 326:.\DSP\Source\TransformFunctions/arm_rfft_fast_init_f32.c **** #if !defined(ARM_DSP_CONFIG_TABLES) || defined(ARM_ALL_FFT_TABLES) || (defined(ARM_TABLE_TWIDDLECOE
 327:.\DSP\Source\TransformFunctions/arm_rfft_fast_init_f32.c ****   case 128U:
 328:.\DSP\Source\TransformFunctions/arm_rfft_fast_init_f32.c ****     fptr = arm_rfft_128_fast_init_f32;
 578              		.loc 1 328 0
 579 0048 0A4B     		ldr	r3, .L73+16
 329:.\DSP\Source\TransformFunctions/arm_rfft_fast_init_f32.c ****     break;
 580              		.loc 1 329 0
 581 004a 04E0     		b	.L68
 582              	.LVL55:
 583              	.L61:
 330:.\DSP\Source\TransformFunctions/arm_rfft_fast_init_f32.c **** #endif
 331:.\DSP\Source\TransformFunctions/arm_rfft_fast_init_f32.c **** #if !defined(ARM_DSP_CONFIG_TABLES) || defined(ARM_ALL_FFT_TABLES) || (defined(ARM_TABLE_TWIDDLECOE
 332:.\DSP\Source\TransformFunctions/arm_rfft_fast_init_f32.c ****   case 64U:
 333:.\DSP\Source\TransformFunctions/arm_rfft_fast_init_f32.c ****     fptr = arm_rfft_64_fast_init_f32;
 584              		.loc 1 333 0
 585 004c 0A4B     		ldr	r3, .L73+20
 334:.\DSP\Source\TransformFunctions/arm_rfft_fast_init_f32.c ****     break;
 586              		.loc 1 334 0
 587 004e 02E0     		b	.L68
 588              	.LVL56:
 589              	.L63:
 335:.\DSP\Source\TransformFunctions/arm_rfft_fast_init_f32.c **** #endif
 336:.\DSP\Source\TransformFunctions/arm_rfft_fast_init_f32.c **** #if !defined(ARM_DSP_CONFIG_TABLES) || defined(ARM_ALL_FFT_TABLES) || (defined(ARM_TABLE_TWIDDLECOE
 337:.\DSP\Source\TransformFunctions/arm_rfft_fast_init_f32.c ****   case 32U:
 338:.\DSP\Source\TransformFunctions/arm_rfft_fast_init_f32.c ****     fptr = arm_rfft_32_fast_init_f32;
 590              		.loc 1 338 0
 591 0050 0A4B     		ldr	r3, .L73+24
 339:.\DSP\Source\TransformFunctions/arm_rfft_fast_init_f32.c ****     break;
 592              		.loc 1 339 0
 593 0052 00E0     		b	.L68
 594              	.LVL57:
 595              	.L70:
 303:.\DSP\Source\TransformFunctions/arm_rfft_fast_init_f32.c ****     break;
 596              		.loc 1 303 0
 597 0054 0A4B     		ldr	r3, .L73+28
 598              	.LVL58:
 599              	.L68:
 340:.\DSP\Source\TransformFunctions/arm_rfft_fast_init_f32.c **** #endif
 341:.\DSP\Source\TransformFunctions/arm_rfft_fast_init_f32.c ****   default:
 342:.\DSP\Source\TransformFunctions/arm_rfft_fast_init_f32.c ****     break;
 343:.\DSP\Source\TransformFunctions/arm_rfft_fast_init_f32.c ****   }
 344:.\DSP\Source\TransformFunctions/arm_rfft_fast_init_f32.c **** 
 345:.\DSP\Source\TransformFunctions/arm_rfft_fast_init_f32.c ****   if( ! fptr ) return ARM_MATH_ARGUMENT_ERROR;
 600              		.loc 1 345 0
 601 0056 0BB1     		cbz	r3, .L71
 346:.\DSP\Source\TransformFunctions/arm_rfft_fast_init_f32.c ****   return fptr( S );
 602              		.loc 1 346 0
 603 0058 9847     		blx	r3
 604              	.LVL59:
 605 005a 00E0     		b	.L69
ARM GAS  C:\Users\IVYLIU~1\AppData\Local\Temp\cckUVzDM.s 			page 18


 606              	.LVL60:
 607              	.L71:
 345:.\DSP\Source\TransformFunctions/arm_rfft_fast_init_f32.c ****   return fptr( S );
 608              		.loc 1 345 0
 609 005c FF20     		movs	r0, #255
 610              	.LVL61:
 611              	.L69:
 347:.\DSP\Source\TransformFunctions/arm_rfft_fast_init_f32.c **** 
 348:.\DSP\Source\TransformFunctions/arm_rfft_fast_init_f32.c **** }
 612              		.loc 1 348 0
 613 005e 40B2     		sxtb	r0, r0
 614 0060 08BD     		pop	{r3, pc}
 615              	.L74:
 616 0062 00BF     		.align	2
 617              	.L73:
 618 0064 00000000 		.word	arm_rfft_2048_fast_init_f32
 619 0068 00000000 		.word	arm_rfft_1024_fast_init_f32
 620 006c 00000000 		.word	arm_rfft_512_fast_init_f32
 621 0070 00000000 		.word	arm_rfft_256_fast_init_f32
 622 0074 00000000 		.word	arm_rfft_128_fast_init_f32
 623 0078 00000000 		.word	arm_rfft_64_fast_init_f32
 624 007c 00000000 		.word	arm_rfft_32_fast_init_f32
 625 0080 00000000 		.word	arm_rfft_4096_fast_init_f32
 626              		.cfi_endproc
 627              	.LFE92:
 628              		.size	arm_rfft_fast_init_f32, .-arm_rfft_fast_init_f32
 629              		.text
 630              	.Letext0:
 631              		.file 2 "c:\\program files (x86)\\cypress\\psoc creator\\3.3\\psoc creator\\import\\gnu\\arm\\4.9.
 632              		.file 3 "c:\\program files (x86)\\cypress\\psoc creator\\3.3\\psoc creator\\import\\gnu\\arm\\4.9.
 633              		.file 4 ".\\DSP\\Include/arm_math_types.h"
 634              		.file 5 ".\\DSP\\Include/dsp/transform_functions.h"
 635              		.file 6 ".\\Core\\Include/cmsis_gcc.h"
 636              		.file 7 ".\\DSP\\Include/arm_common_tables.h"