ARM GAS  C:\Users\IVYLIU~1\AppData\Local\Temp\ccdy5u3H.s 			page 1


   1              		.syntax unified
   2              		.cpu cortex-m3
   3              		.fpu softvfp
   4              		.eabi_attribute 20, 1
   5              		.eabi_attribute 21, 1
   6              		.eabi_attribute 23, 3
   7              		.eabi_attribute 24, 1
   8              		.eabi_attribute 25, 1
   9              		.eabi_attribute 26, 1
  10              		.eabi_attribute 30, 1
  11              		.eabi_attribute 34, 1
  12              		.eabi_attribute 18, 4
  13              		.thumb
  14              		.file	"arm_cmplx_mult_cmplx_f64.c"
  15              		.text
  16              	.Ltext0:
  17              		.cfi_sections	.debug_frame
  18              		.global	__aeabi_dmul
  19              		.global	__aeabi_dsub
  20              		.global	__aeabi_dadd
  21              		.section	.text.arm_cmplx_mult_cmplx_f64,"ax",%progbits
  22              		.align	2
  23              		.global	arm_cmplx_mult_cmplx_f64
  24              		.thumb
  25              		.thumb_func
  26              		.type	arm_cmplx_mult_cmplx_f64, %function
  27              	arm_cmplx_mult_cmplx_f64:
  28              	.LFB84:
  29              		.file 1 ".\\DSP\\Source\\ComplexMathFunctions\\arm_cmplx_mult_cmplx_f64.c"
   1:.\DSP\Source\ComplexMathFunctions/arm_cmplx_mult_cmplx_f64.c **** /* ----------------------------------------------------------------------
   2:.\DSP\Source\ComplexMathFunctions/arm_cmplx_mult_cmplx_f64.c ****  * Project:      CMSIS DSP Library
   3:.\DSP\Source\ComplexMathFunctions/arm_cmplx_mult_cmplx_f64.c ****  * Title:        arm_cmplx_mult_cmplx_f64.c
   4:.\DSP\Source\ComplexMathFunctions/arm_cmplx_mult_cmplx_f64.c ****  * Description:  Floating-point complex-by-complex multiplication
   5:.\DSP\Source\ComplexMathFunctions/arm_cmplx_mult_cmplx_f64.c ****  *
   6:.\DSP\Source\ComplexMathFunctions/arm_cmplx_mult_cmplx_f64.c ****  * $Date:        13 September 2021
   7:.\DSP\Source\ComplexMathFunctions/arm_cmplx_mult_cmplx_f64.c ****  * $Revision:    V1.10.0
   8:.\DSP\Source\ComplexMathFunctions/arm_cmplx_mult_cmplx_f64.c ****  *
   9:.\DSP\Source\ComplexMathFunctions/arm_cmplx_mult_cmplx_f64.c ****  * Target Processor: Cortex-M and Cortex-A cores
  10:.\DSP\Source\ComplexMathFunctions/arm_cmplx_mult_cmplx_f64.c ****  * -------------------------------------------------------------------- */
  11:.\DSP\Source\ComplexMathFunctions/arm_cmplx_mult_cmplx_f64.c **** /*
  12:.\DSP\Source\ComplexMathFunctions/arm_cmplx_mult_cmplx_f64.c ****  * Copyright (C) 2010-2021 ARM Limited or its affiliates. All rights reserved.
  13:.\DSP\Source\ComplexMathFunctions/arm_cmplx_mult_cmplx_f64.c ****  *
  14:.\DSP\Source\ComplexMathFunctions/arm_cmplx_mult_cmplx_f64.c ****  * SPDX-License-Identifier: Apache-2.0
  15:.\DSP\Source\ComplexMathFunctions/arm_cmplx_mult_cmplx_f64.c ****  *
  16:.\DSP\Source\ComplexMathFunctions/arm_cmplx_mult_cmplx_f64.c ****  * Licensed under the Apache License, Version 2.0 (the License); you may
  17:.\DSP\Source\ComplexMathFunctions/arm_cmplx_mult_cmplx_f64.c ****  * not use this file except in compliance with the License.
  18:.\DSP\Source\ComplexMathFunctions/arm_cmplx_mult_cmplx_f64.c ****  * You may obtain a copy of the License at
  19:.\DSP\Source\ComplexMathFunctions/arm_cmplx_mult_cmplx_f64.c ****  *
  20:.\DSP\Source\ComplexMathFunctions/arm_cmplx_mult_cmplx_f64.c ****  * www.apache.org/licenses/LICENSE-2.0
  21:.\DSP\Source\ComplexMathFunctions/arm_cmplx_mult_cmplx_f64.c ****  *
  22:.\DSP\Source\ComplexMathFunctions/arm_cmplx_mult_cmplx_f64.c ****  * Unless required by applicable law or agreed to in writing, software
  23:.\DSP\Source\ComplexMathFunctions/arm_cmplx_mult_cmplx_f64.c ****  * distributed under the License is distributed on an AS IS BASIS, WITHOUT
  24:.\DSP\Source\ComplexMathFunctions/arm_cmplx_mult_cmplx_f64.c ****  * WARRANTIES OR CONDITIONS OF ANY KIND, either express or implied.
  25:.\DSP\Source\ComplexMathFunctions/arm_cmplx_mult_cmplx_f64.c ****  * See the License for the specific language governing permissions and
  26:.\DSP\Source\ComplexMathFunctions/arm_cmplx_mult_cmplx_f64.c ****  * limitations under the License.
  27:.\DSP\Source\ComplexMathFunctions/arm_cmplx_mult_cmplx_f64.c ****  */
  28:.\DSP\Source\ComplexMathFunctions/arm_cmplx_mult_cmplx_f64.c **** 
ARM GAS  C:\Users\IVYLIU~1\AppData\Local\Temp\ccdy5u3H.s 			page 2


  29:.\DSP\Source\ComplexMathFunctions/arm_cmplx_mult_cmplx_f64.c **** #include "dsp/complex_math_functions.h"
  30:.\DSP\Source\ComplexMathFunctions/arm_cmplx_mult_cmplx_f64.c **** 
  31:.\DSP\Source\ComplexMathFunctions/arm_cmplx_mult_cmplx_f64.c **** /**
  32:.\DSP\Source\ComplexMathFunctions/arm_cmplx_mult_cmplx_f64.c ****   @ingroup groupCmplxMath
  33:.\DSP\Source\ComplexMathFunctions/arm_cmplx_mult_cmplx_f64.c ****  */
  34:.\DSP\Source\ComplexMathFunctions/arm_cmplx_mult_cmplx_f64.c **** 
  35:.\DSP\Source\ComplexMathFunctions/arm_cmplx_mult_cmplx_f64.c **** /**
  36:.\DSP\Source\ComplexMathFunctions/arm_cmplx_mult_cmplx_f64.c ****   @addtogroup CmplxByCmplxMult
  37:.\DSP\Source\ComplexMathFunctions/arm_cmplx_mult_cmplx_f64.c ****   @{
  38:.\DSP\Source\ComplexMathFunctions/arm_cmplx_mult_cmplx_f64.c ****  */
  39:.\DSP\Source\ComplexMathFunctions/arm_cmplx_mult_cmplx_f64.c **** 
  40:.\DSP\Source\ComplexMathFunctions/arm_cmplx_mult_cmplx_f64.c **** /**
  41:.\DSP\Source\ComplexMathFunctions/arm_cmplx_mult_cmplx_f64.c ****   @brief         Floating-point complex-by-complex multiplication.
  42:.\DSP\Source\ComplexMathFunctions/arm_cmplx_mult_cmplx_f64.c ****   @param[in]     pSrcA       points to first input vector
  43:.\DSP\Source\ComplexMathFunctions/arm_cmplx_mult_cmplx_f64.c ****   @param[in]     pSrcB       points to second input vector
  44:.\DSP\Source\ComplexMathFunctions/arm_cmplx_mult_cmplx_f64.c ****   @param[out]    pDst        points to output vector
  45:.\DSP\Source\ComplexMathFunctions/arm_cmplx_mult_cmplx_f64.c ****   @param[in]     numSamples  number of samples in each vector
  46:.\DSP\Source\ComplexMathFunctions/arm_cmplx_mult_cmplx_f64.c ****   @return        none
  47:.\DSP\Source\ComplexMathFunctions/arm_cmplx_mult_cmplx_f64.c ****  */
  48:.\DSP\Source\ComplexMathFunctions/arm_cmplx_mult_cmplx_f64.c **** 
  49:.\DSP\Source\ComplexMathFunctions/arm_cmplx_mult_cmplx_f64.c **** void arm_cmplx_mult_cmplx_f64(
  50:.\DSP\Source\ComplexMathFunctions/arm_cmplx_mult_cmplx_f64.c ****   const float64_t * pSrcA,
  51:.\DSP\Source\ComplexMathFunctions/arm_cmplx_mult_cmplx_f64.c ****   const float64_t * pSrcB,
  52:.\DSP\Source\ComplexMathFunctions/arm_cmplx_mult_cmplx_f64.c ****         float64_t * pDst,
  53:.\DSP\Source\ComplexMathFunctions/arm_cmplx_mult_cmplx_f64.c ****         uint32_t numSamples)
  54:.\DSP\Source\ComplexMathFunctions/arm_cmplx_mult_cmplx_f64.c **** {
  30              		.loc 1 54 0
  31              		.cfi_startproc
  32              		@ args = 0, pretend = 0, frame = 32
  33              		@ frame_needed = 0, uses_anonymous_args = 0
  34              	.LVL0:
  35 0000 2DE9F04B 		push	{r4, r5, r6, r7, r8, r9, fp, lr}
  36              		.cfi_def_cfa_offset 32
  37              		.cfi_offset 4, -32
  38              		.cfi_offset 5, -28
  39              		.cfi_offset 6, -24
  40              		.cfi_offset 7, -20
  41              		.cfi_offset 8, -16
  42              		.cfi_offset 9, -12
  43              		.cfi_offset 11, -8
  44              		.cfi_offset 14, -4
  45 0004 88B0     		sub	sp, sp, #32
  46              		.cfi_def_cfa_offset 64
  47 0006 9046     		mov	r8, r2
  48 0008 9B46     		mov	fp, r3
  49              	.LVL1:
  55:.\DSP\Source\ComplexMathFunctions/arm_cmplx_mult_cmplx_f64.c ****   uint32_t blkCnt;                               /* Loop counter */
  56:.\DSP\Source\ComplexMathFunctions/arm_cmplx_mult_cmplx_f64.c ****   float64_t a, b, c, d;  /* Temporary variables to store real and imaginary values */
  57:.\DSP\Source\ComplexMathFunctions/arm_cmplx_mult_cmplx_f64.c **** 
  58:.\DSP\Source\ComplexMathFunctions/arm_cmplx_mult_cmplx_f64.c ****   /* Initialize blkCnt with number of samples */
  59:.\DSP\Source\ComplexMathFunctions/arm_cmplx_mult_cmplx_f64.c ****   blkCnt = numSamples;
  60:.\DSP\Source\ComplexMathFunctions/arm_cmplx_mult_cmplx_f64.c **** 
  61:.\DSP\Source\ComplexMathFunctions/arm_cmplx_mult_cmplx_f64.c ****   while (blkCnt > 0U)
  50              		.loc 1 61 0
  51 000a 41E0     		b	.L2
  52              	.LVL2:
  53              	.L3:
ARM GAS  C:\Users\IVYLIU~1\AppData\Local\Temp\ccdy5u3H.s 			page 3


  62:.\DSP\Source\ComplexMathFunctions/arm_cmplx_mult_cmplx_f64.c ****   {
  63:.\DSP\Source\ComplexMathFunctions/arm_cmplx_mult_cmplx_f64.c ****     /* C[2 * i    ] = A[2 * i] * B[2 * i    ] - A[2 * i + 1] * B[2 * i + 1]. */
  64:.\DSP\Source\ComplexMathFunctions/arm_cmplx_mult_cmplx_f64.c ****     /* C[2 * i + 1] = A[2 * i] * B[2 * i + 1] + A[2 * i + 1] * B[2 * i    ]. */
  65:.\DSP\Source\ComplexMathFunctions/arm_cmplx_mult_cmplx_f64.c **** 
  66:.\DSP\Source\ComplexMathFunctions/arm_cmplx_mult_cmplx_f64.c ****     a = *pSrcA++;
  54              		.loc 1 66 0
  55 000c 0446     		mov	r4, r0
  56 000e F4E80423 		ldrd	r2, [r4], #16
  57              	.LVL3:
  67:.\DSP\Source\ComplexMathFunctions/arm_cmplx_mult_cmplx_f64.c ****     b = *pSrcA++;
  58              		.loc 1 67 0
  59 0012 D0E90267 		ldrd	r6, [r0, #8]
  60 0016 CDE90067 		strd	r6, [sp]
  61              	.LVL4:
  68:.\DSP\Source\ComplexMathFunctions/arm_cmplx_mult_cmplx_f64.c ****     c = *pSrcB++;
  62              		.loc 1 68 0
  63 001a 0D46     		mov	r5, r1
  64 001c F5E80467 		ldrd	r6, [r5], #16
  65              	.LVL5:
  69:.\DSP\Source\ComplexMathFunctions/arm_cmplx_mult_cmplx_f64.c ****     d = *pSrcB++;
  66              		.loc 1 69 0
  67 0020 D1E90201 		ldrd	r0, [r1, #8]
  68 0024 CDE90201 		strd	r0, [sp, #8]
  69              	.LVL6:
  70:.\DSP\Source\ComplexMathFunctions/arm_cmplx_mult_cmplx_f64.c **** 
  71:.\DSP\Source\ComplexMathFunctions/arm_cmplx_mult_cmplx_f64.c ****     /* store result in destination buffer. */
  72:.\DSP\Source\ComplexMathFunctions/arm_cmplx_mult_cmplx_f64.c ****     *pDst++ = (a * c) - (b * d);
  70              		.loc 1 72 0
  71 0028 CDE90423 		strd	r2, [sp, #16]
  72 002c 1046     		mov	r0, r2
  73              	.LVL7:
  74 002e 1946     		mov	r1, r3
  75              	.LVL8:
  76 0030 3246     		mov	r2, r6
  77              	.LVL9:
  78 0032 3B46     		mov	r3, r7
  79 0034 FFF7FEFF 		bl	__aeabi_dmul
  80              	.LVL10:
  81 0038 CDE90601 		strd	r0, [sp, #24]
  82 003c DDE90001 		ldrd	r0, [sp]
  83 0040 DDE90223 		ldrd	r2, [sp, #8]
  84 0044 FFF7FEFF 		bl	__aeabi_dmul
  85              	.LVL11:
  86 0048 0246     		mov	r2, r0
  87 004a 0B46     		mov	r3, r1
  88 004c DDE90601 		ldrd	r0, [sp, #24]
  89 0050 FFF7FEFF 		bl	__aeabi_dsub
  90              	.LVL12:
  91 0054 C146     		mov	r9, r8
  92 0056 E9E80401 		strd	r0, [r9], #16
  93              	.LVL13:
  73:.\DSP\Source\ComplexMathFunctions/arm_cmplx_mult_cmplx_f64.c ****     *pDst++ = (a * d) + (b * c);
  94              		.loc 1 73 0
  95 005a DDE90401 		ldrd	r0, [sp, #16]
  96 005e DDE90223 		ldrd	r2, [sp, #8]
  97 0062 FFF7FEFF 		bl	__aeabi_dmul
  98              	.LVL14:
ARM GAS  C:\Users\IVYLIU~1\AppData\Local\Temp\ccdy5u3H.s 			page 4


  99 0066 CDE90201 		strd	r0, [sp, #8]
 100              	.LVL15:
 101 006a DDE90001 		ldrd	r0, [sp]
 102 006e 3246     		mov	r2, r6
 103 0070 3B46     		mov	r3, r7
 104 0072 FFF7FEFF 		bl	__aeabi_dmul
 105              	.LVL16:
 106 0076 0246     		mov	r2, r0
 107 0078 0B46     		mov	r3, r1
 108 007a DDE90201 		ldrd	r0, [sp, #8]
 109 007e FFF7FEFF 		bl	__aeabi_dadd
 110              	.LVL17:
 111 0082 C8E90201 		strd	r0, [r8, #8]
  74:.\DSP\Source\ComplexMathFunctions/arm_cmplx_mult_cmplx_f64.c **** 
  75:.\DSP\Source\ComplexMathFunctions/arm_cmplx_mult_cmplx_f64.c ****     /* Decrement loop counter */
  76:.\DSP\Source\ComplexMathFunctions/arm_cmplx_mult_cmplx_f64.c ****     blkCnt--;
 112              		.loc 1 76 0
 113 0086 0BF1FF3B 		add	fp, fp, #-1
 114              	.LVL18:
  73:.\DSP\Source\ComplexMathFunctions/arm_cmplx_mult_cmplx_f64.c ****     *pDst++ = (a * d) + (b * c);
 115              		.loc 1 73 0
 116 008a C846     		mov	r8, r9
  69:.\DSP\Source\ComplexMathFunctions/arm_cmplx_mult_cmplx_f64.c **** 
 117              		.loc 1 69 0
 118 008c 2946     		mov	r1, r5
  67:.\DSP\Source\ComplexMathFunctions/arm_cmplx_mult_cmplx_f64.c ****     c = *pSrcB++;
 119              		.loc 1 67 0
 120 008e 2046     		mov	r0, r4
 121              	.LVL19:
 122              	.L2:
  61:.\DSP\Source\ComplexMathFunctions/arm_cmplx_mult_cmplx_f64.c ****   {
 123              		.loc 1 61 0
 124 0090 BBF1000F 		cmp	fp, #0
 125 0094 BAD1     		bne	.L3
  77:.\DSP\Source\ComplexMathFunctions/arm_cmplx_mult_cmplx_f64.c ****   }
  78:.\DSP\Source\ComplexMathFunctions/arm_cmplx_mult_cmplx_f64.c **** 
  79:.\DSP\Source\ComplexMathFunctions/arm_cmplx_mult_cmplx_f64.c **** }
 126              		.loc 1 79 0
 127 0096 08B0     		add	sp, sp, #32
 128              		.cfi_def_cfa_offset 32
 129              		@ sp needed
 130 0098 BDE8F08B 		pop	{r4, r5, r6, r7, r8, r9, fp, pc}
 131              		.cfi_endproc
 132              	.LFE84:
 133              		.size	arm_cmplx_mult_cmplx_f64, .-arm_cmplx_mult_cmplx_f64
 134              		.text
 135              	.Letext0:
 136              		.file 2 "c:\\program files (x86)\\cypress\\psoc creator\\3.3\\psoc creator\\import\\gnu\\arm\\4.9.
 137              		.file 3 "c:\\program files (x86)\\cypress\\psoc creator\\3.3\\psoc creator\\import\\gnu\\arm\\4.9.
 138              		.file 4 ".\\DSP\\Include/arm_math_types.h"
 139              		.file 5 ".\\Core\\Include/cmsis_gcc.h"