ARM GAS  C:\Users\IVYLIU~1\AppData\Local\Temp\ccOcgDxX.s 			page 1


   1              		.syntax unified
   2              		.cpu cortex-m3
   3              		.fpu softvfp
   4              		.eabi_attribute 20, 1
   5              		.eabi_attribute 21, 1
   6              		.eabi_attribute 23, 3
   7              		.eabi_attribute 24, 1
   8              		.eabi_attribute 25, 1
   9              		.eabi_attribute 26, 1
  10              		.eabi_attribute 30, 1
  11              		.eabi_attribute 34, 1
  12              		.eabi_attribute 18, 4
  13              		.thumb
  14              		.file	"arm_rfft_q31.c"
  15              		.text
  16              	.Ltext0:
  17              		.cfi_sections	.debug_frame
  18              		.section	.text.arm_split_rfft_q31,"ax",%progbits
  19              		.align	2
  20              		.global	arm_split_rfft_q31
  21              		.thumb
  22              		.thumb_func
  23              		.type	arm_split_rfft_q31, %function
  24              	arm_split_rfft_q31:
  25              	.LFB85:
  26              		.file 1 ".\\DSP\\Source\\TransformFunctions\\arm_rfft_q31.c"
   1:.\DSP\Source\TransformFunctions/arm_rfft_q31.c **** /* ----------------------------------------------------------------------
   2:.\DSP\Source\TransformFunctions/arm_rfft_q31.c ****  * Project:      CMSIS DSP Library
   3:.\DSP\Source\TransformFunctions/arm_rfft_q31.c ****  * Title:        arm_rfft_q31.c
   4:.\DSP\Source\TransformFunctions/arm_rfft_q31.c ****  * Description:  FFT & RIFFT Q31 process function
   5:.\DSP\Source\TransformFunctions/arm_rfft_q31.c ****  *
   6:.\DSP\Source\TransformFunctions/arm_rfft_q31.c ****  * $Date:        23 April 2021
   7:.\DSP\Source\TransformFunctions/arm_rfft_q31.c ****  * $Revision:    V1.9.0
   8:.\DSP\Source\TransformFunctions/arm_rfft_q31.c ****  *
   9:.\DSP\Source\TransformFunctions/arm_rfft_q31.c ****  * Target Processor: Cortex-M and Cortex-A cores
  10:.\DSP\Source\TransformFunctions/arm_rfft_q31.c ****  * -------------------------------------------------------------------- */
  11:.\DSP\Source\TransformFunctions/arm_rfft_q31.c **** /*
  12:.\DSP\Source\TransformFunctions/arm_rfft_q31.c ****  * Copyright (C) 2010-2021 ARM Limited or its affiliates. All rights reserved.
  13:.\DSP\Source\TransformFunctions/arm_rfft_q31.c ****  *
  14:.\DSP\Source\TransformFunctions/arm_rfft_q31.c ****  * SPDX-License-Identifier: Apache-2.0
  15:.\DSP\Source\TransformFunctions/arm_rfft_q31.c ****  *
  16:.\DSP\Source\TransformFunctions/arm_rfft_q31.c ****  * Licensed under the Apache License, Version 2.0 (the License); you may
  17:.\DSP\Source\TransformFunctions/arm_rfft_q31.c ****  * not use this file except in compliance with the License.
  18:.\DSP\Source\TransformFunctions/arm_rfft_q31.c ****  * You may obtain a copy of the License at
  19:.\DSP\Source\TransformFunctions/arm_rfft_q31.c ****  *
  20:.\DSP\Source\TransformFunctions/arm_rfft_q31.c ****  * www.apache.org/licenses/LICENSE-2.0
  21:.\DSP\Source\TransformFunctions/arm_rfft_q31.c ****  *
  22:.\DSP\Source\TransformFunctions/arm_rfft_q31.c ****  * Unless required by applicable law or agreed to in writing, software
  23:.\DSP\Source\TransformFunctions/arm_rfft_q31.c ****  * distributed under the License is distributed on an AS IS BASIS, WITHOUT
  24:.\DSP\Source\TransformFunctions/arm_rfft_q31.c ****  * WARRANTIES OR CONDITIONS OF ANY KIND, either express or implied.
  25:.\DSP\Source\TransformFunctions/arm_rfft_q31.c ****  * See the License for the specific language governing permissions and
  26:.\DSP\Source\TransformFunctions/arm_rfft_q31.c ****  * limitations under the License.
  27:.\DSP\Source\TransformFunctions/arm_rfft_q31.c ****  */
  28:.\DSP\Source\TransformFunctions/arm_rfft_q31.c **** 
  29:.\DSP\Source\TransformFunctions/arm_rfft_q31.c **** #include "dsp/transform_functions.h"
  30:.\DSP\Source\TransformFunctions/arm_rfft_q31.c **** 
  31:.\DSP\Source\TransformFunctions/arm_rfft_q31.c **** /* ----------------------------------------------------------------------
ARM GAS  C:\Users\IVYLIU~1\AppData\Local\Temp\ccOcgDxX.s 			page 2


  32:.\DSP\Source\TransformFunctions/arm_rfft_q31.c ****  * Internal functions prototypes
  33:.\DSP\Source\TransformFunctions/arm_rfft_q31.c ****  * -------------------------------------------------------------------- */
  34:.\DSP\Source\TransformFunctions/arm_rfft_q31.c **** 
  35:.\DSP\Source\TransformFunctions/arm_rfft_q31.c **** void arm_split_rfft_q31(
  36:.\DSP\Source\TransformFunctions/arm_rfft_q31.c ****         q31_t * pSrc,
  37:.\DSP\Source\TransformFunctions/arm_rfft_q31.c ****         uint32_t fftLen,
  38:.\DSP\Source\TransformFunctions/arm_rfft_q31.c ****   const q31_t * pATable,
  39:.\DSP\Source\TransformFunctions/arm_rfft_q31.c ****   const q31_t * pBTable,
  40:.\DSP\Source\TransformFunctions/arm_rfft_q31.c ****         q31_t * pDst,
  41:.\DSP\Source\TransformFunctions/arm_rfft_q31.c ****         uint32_t modifier);
  42:.\DSP\Source\TransformFunctions/arm_rfft_q31.c **** 
  43:.\DSP\Source\TransformFunctions/arm_rfft_q31.c **** void arm_split_rifft_q31(
  44:.\DSP\Source\TransformFunctions/arm_rfft_q31.c ****         q31_t * pSrc,
  45:.\DSP\Source\TransformFunctions/arm_rfft_q31.c ****         uint32_t fftLen,
  46:.\DSP\Source\TransformFunctions/arm_rfft_q31.c ****   const q31_t * pATable,
  47:.\DSP\Source\TransformFunctions/arm_rfft_q31.c ****   const q31_t * pBTable,
  48:.\DSP\Source\TransformFunctions/arm_rfft_q31.c ****         q31_t * pDst,
  49:.\DSP\Source\TransformFunctions/arm_rfft_q31.c ****         uint32_t modifier);
  50:.\DSP\Source\TransformFunctions/arm_rfft_q31.c **** 
  51:.\DSP\Source\TransformFunctions/arm_rfft_q31.c **** /**
  52:.\DSP\Source\TransformFunctions/arm_rfft_q31.c ****   @addtogroup RealFFT
  53:.\DSP\Source\TransformFunctions/arm_rfft_q31.c ****   @{
  54:.\DSP\Source\TransformFunctions/arm_rfft_q31.c ****  */
  55:.\DSP\Source\TransformFunctions/arm_rfft_q31.c **** 
  56:.\DSP\Source\TransformFunctions/arm_rfft_q31.c **** /**
  57:.\DSP\Source\TransformFunctions/arm_rfft_q31.c ****   @brief         Processing function for the Q31 RFFT/RIFFT.
  58:.\DSP\Source\TransformFunctions/arm_rfft_q31.c ****   @param[in]     S     points to an instance of the Q31 RFFT/RIFFT structure
  59:.\DSP\Source\TransformFunctions/arm_rfft_q31.c ****   @param[in]     pSrc  points to input buffer (Source buffer is modified by this function)
  60:.\DSP\Source\TransformFunctions/arm_rfft_q31.c ****   @param[out]    pDst  points to output buffer
  61:.\DSP\Source\TransformFunctions/arm_rfft_q31.c ****   @return        none
  62:.\DSP\Source\TransformFunctions/arm_rfft_q31.c **** 
  63:.\DSP\Source\TransformFunctions/arm_rfft_q31.c ****   @par           Input an output formats
  64:.\DSP\Source\TransformFunctions/arm_rfft_q31.c ****                    Internally input is downscaled by 2 for every stage to avoid saturations inside 
  65:.\DSP\Source\TransformFunctions/arm_rfft_q31.c ****                    Hence the output format is different for different RFFT sizes.
  66:.\DSP\Source\TransformFunctions/arm_rfft_q31.c ****                    The input and output formats for different RFFT sizes and number of bits to upsc
  67:.\DSP\Source\TransformFunctions/arm_rfft_q31.c ****   @par
  68:.\DSP\Source\TransformFunctions/arm_rfft_q31.c ****                    \image html RFFTQ31.gif "Input and Output Formats for Q31 RFFT"
  69:.\DSP\Source\TransformFunctions/arm_rfft_q31.c ****   @par
  70:.\DSP\Source\TransformFunctions/arm_rfft_q31.c ****                    \image html RIFFTQ31.gif "Input and Output Formats for Q31 RIFFT"
  71:.\DSP\Source\TransformFunctions/arm_rfft_q31.c ****   @par
  72:.\DSP\Source\TransformFunctions/arm_rfft_q31.c ****                    If the input buffer is of length N, the output buffer must have length 2*N.
  73:.\DSP\Source\TransformFunctions/arm_rfft_q31.c ****                    The input buffer is modified by this function.
  74:.\DSP\Source\TransformFunctions/arm_rfft_q31.c ****   @par
  75:.\DSP\Source\TransformFunctions/arm_rfft_q31.c ****                    For the RIFFT, the source buffer must at least have length 
  76:.\DSP\Source\TransformFunctions/arm_rfft_q31.c ****                    fftLenReal + 2.
  77:.\DSP\Source\TransformFunctions/arm_rfft_q31.c ****                    The last two elements must be equal to what would be generated
  78:.\DSP\Source\TransformFunctions/arm_rfft_q31.c ****                    by the RFFT:
  79:.\DSP\Source\TransformFunctions/arm_rfft_q31.c ****                      (pSrc[0] - pSrc[1]) >> 1 and 0
  80:.\DSP\Source\TransformFunctions/arm_rfft_q31.c **** 
  81:.\DSP\Source\TransformFunctions/arm_rfft_q31.c ****  */
  82:.\DSP\Source\TransformFunctions/arm_rfft_q31.c **** 
  83:.\DSP\Source\TransformFunctions/arm_rfft_q31.c **** void arm_rfft_q31(
  84:.\DSP\Source\TransformFunctions/arm_rfft_q31.c ****   const arm_rfft_instance_q31 * S,
  85:.\DSP\Source\TransformFunctions/arm_rfft_q31.c ****         q31_t * pSrc,
  86:.\DSP\Source\TransformFunctions/arm_rfft_q31.c ****         q31_t * pDst)
  87:.\DSP\Source\TransformFunctions/arm_rfft_q31.c **** {
  88:.\DSP\Source\TransformFunctions/arm_rfft_q31.c **** #if defined(ARM_MATH_MVEI) && !defined(ARM_MATH_AUTOVECTORIZE)
ARM GAS  C:\Users\IVYLIU~1\AppData\Local\Temp\ccOcgDxX.s 			page 3


  89:.\DSP\Source\TransformFunctions/arm_rfft_q31.c ****   const arm_cfft_instance_q31 *S_CFFT = &(S->cfftInst);
  90:.\DSP\Source\TransformFunctions/arm_rfft_q31.c **** #else
  91:.\DSP\Source\TransformFunctions/arm_rfft_q31.c ****   const arm_cfft_instance_q31 *S_CFFT = S->pCfft;
  92:.\DSP\Source\TransformFunctions/arm_rfft_q31.c **** #endif
  93:.\DSP\Source\TransformFunctions/arm_rfft_q31.c ****         uint32_t L2 = S->fftLenReal >> 1U;
  94:.\DSP\Source\TransformFunctions/arm_rfft_q31.c **** 
  95:.\DSP\Source\TransformFunctions/arm_rfft_q31.c ****   /* Calculation of RIFFT of input */
  96:.\DSP\Source\TransformFunctions/arm_rfft_q31.c ****   if (S->ifftFlagR == 1U)
  97:.\DSP\Source\TransformFunctions/arm_rfft_q31.c ****   {
  98:.\DSP\Source\TransformFunctions/arm_rfft_q31.c ****      /*  Real IFFT core process */
  99:.\DSP\Source\TransformFunctions/arm_rfft_q31.c ****      arm_split_rifft_q31 (pSrc, L2, S->pTwiddleAReal, S->pTwiddleBReal, pDst, S->twidCoefRModifier)
 100:.\DSP\Source\TransformFunctions/arm_rfft_q31.c **** 
 101:.\DSP\Source\TransformFunctions/arm_rfft_q31.c ****      /* Complex IFFT process */
 102:.\DSP\Source\TransformFunctions/arm_rfft_q31.c ****      arm_cfft_q31 (S_CFFT, pDst, S->ifftFlagR, S->bitReverseFlagR);
 103:.\DSP\Source\TransformFunctions/arm_rfft_q31.c **** 
 104:.\DSP\Source\TransformFunctions/arm_rfft_q31.c ****      arm_shift_q31(pDst, 1, pDst, S->fftLenReal);
 105:.\DSP\Source\TransformFunctions/arm_rfft_q31.c ****   }
 106:.\DSP\Source\TransformFunctions/arm_rfft_q31.c ****   else
 107:.\DSP\Source\TransformFunctions/arm_rfft_q31.c ****   {
 108:.\DSP\Source\TransformFunctions/arm_rfft_q31.c ****      /* Calculation of RFFT of input */
 109:.\DSP\Source\TransformFunctions/arm_rfft_q31.c **** 
 110:.\DSP\Source\TransformFunctions/arm_rfft_q31.c ****      /* Complex FFT process */
 111:.\DSP\Source\TransformFunctions/arm_rfft_q31.c ****      arm_cfft_q31 (S_CFFT, pSrc, S->ifftFlagR, S->bitReverseFlagR);
 112:.\DSP\Source\TransformFunctions/arm_rfft_q31.c **** 
 113:.\DSP\Source\TransformFunctions/arm_rfft_q31.c ****      /*  Real FFT core process */
 114:.\DSP\Source\TransformFunctions/arm_rfft_q31.c ****      arm_split_rfft_q31 (pSrc, L2, S->pTwiddleAReal, S->pTwiddleBReal, pDst, S->twidCoefRModifier);
 115:.\DSP\Source\TransformFunctions/arm_rfft_q31.c ****   }
 116:.\DSP\Source\TransformFunctions/arm_rfft_q31.c **** 
 117:.\DSP\Source\TransformFunctions/arm_rfft_q31.c **** }
 118:.\DSP\Source\TransformFunctions/arm_rfft_q31.c **** 
 119:.\DSP\Source\TransformFunctions/arm_rfft_q31.c **** /**
 120:.\DSP\Source\TransformFunctions/arm_rfft_q31.c ****   @} end of RealFFT group
 121:.\DSP\Source\TransformFunctions/arm_rfft_q31.c ****  */
 122:.\DSP\Source\TransformFunctions/arm_rfft_q31.c **** 
 123:.\DSP\Source\TransformFunctions/arm_rfft_q31.c **** /**
 124:.\DSP\Source\TransformFunctions/arm_rfft_q31.c ****   @brief         Core Real FFT process
 125:.\DSP\Source\TransformFunctions/arm_rfft_q31.c ****   @param[in]     pSrc      points to input buffer
 126:.\DSP\Source\TransformFunctions/arm_rfft_q31.c ****   @param[in]     fftLen    length of FFT
 127:.\DSP\Source\TransformFunctions/arm_rfft_q31.c ****   @param[in]     pATable   points to twiddle Coef A buffer
 128:.\DSP\Source\TransformFunctions/arm_rfft_q31.c ****   @param[in]     pBTable   points to twiddle Coef B buffer
 129:.\DSP\Source\TransformFunctions/arm_rfft_q31.c ****   @param[out]    pDst      points to output buffer
 130:.\DSP\Source\TransformFunctions/arm_rfft_q31.c ****   @param[in]     modifier  twiddle coefficient modifier that supports different size FFTs with the 
 131:.\DSP\Source\TransformFunctions/arm_rfft_q31.c ****   @return        none
 132:.\DSP\Source\TransformFunctions/arm_rfft_q31.c ****  */
 133:.\DSP\Source\TransformFunctions/arm_rfft_q31.c **** 
 134:.\DSP\Source\TransformFunctions/arm_rfft_q31.c **** #if defined(ARM_MATH_MVEI) && !defined(ARM_MATH_AUTOVECTORIZE)
 135:.\DSP\Source\TransformFunctions/arm_rfft_q31.c **** 
 136:.\DSP\Source\TransformFunctions/arm_rfft_q31.c **** #include "arm_helium_utils.h"
 137:.\DSP\Source\TransformFunctions/arm_rfft_q31.c **** #include "arm_vec_fft.h"
 138:.\DSP\Source\TransformFunctions/arm_rfft_q31.c **** 
 139:.\DSP\Source\TransformFunctions/arm_rfft_q31.c **** #if defined(__CMSIS_GCC_H)
 140:.\DSP\Source\TransformFunctions/arm_rfft_q31.c **** 
 141:.\DSP\Source\TransformFunctions/arm_rfft_q31.c **** #define MVE_CMPLX_MULT_FX_AxB_S32(A,B)          vqdmladhxq_s32(vqdmlsdhq_s32((__typeof(A))vuninitia
 142:.\DSP\Source\TransformFunctions/arm_rfft_q31.c **** #define MVE_CMPLX_MULT_FX_AxConjB_S32(A,B)      vqdmladhq_s32(vqdmlsdhxq_s32((__typeof(A))vuninitia
 143:.\DSP\Source\TransformFunctions/arm_rfft_q31.c **** 
 144:.\DSP\Source\TransformFunctions/arm_rfft_q31.c **** #endif 
 145:.\DSP\Source\TransformFunctions/arm_rfft_q31.c **** 
ARM GAS  C:\Users\IVYLIU~1\AppData\Local\Temp\ccOcgDxX.s 			page 4


 146:.\DSP\Source\TransformFunctions/arm_rfft_q31.c **** void arm_split_rfft_q31(
 147:.\DSP\Source\TransformFunctions/arm_rfft_q31.c ****     q31_t       *pSrc,
 148:.\DSP\Source\TransformFunctions/arm_rfft_q31.c ****     uint32_t     fftLen,
 149:.\DSP\Source\TransformFunctions/arm_rfft_q31.c ****     const q31_t       *pATable,
 150:.\DSP\Source\TransformFunctions/arm_rfft_q31.c ****     const q31_t       *pBTable,
 151:.\DSP\Source\TransformFunctions/arm_rfft_q31.c ****     q31_t       *pDst,
 152:.\DSP\Source\TransformFunctions/arm_rfft_q31.c ****     uint32_t     modifier)
 153:.\DSP\Source\TransformFunctions/arm_rfft_q31.c **** {
 154:.\DSP\Source\TransformFunctions/arm_rfft_q31.c ****     uint32_t        i;          /* Loop Counter */
 155:.\DSP\Source\TransformFunctions/arm_rfft_q31.c ****     const q31_t    *pCoefA, *pCoefB;    /* Temporary pointers for twiddle factors */
 156:.\DSP\Source\TransformFunctions/arm_rfft_q31.c ****     q31_t          *pOut1 = &pDst[2];
 157:.\DSP\Source\TransformFunctions/arm_rfft_q31.c ****     q31_t          *pIn1 = &pSrc[2];
 158:.\DSP\Source\TransformFunctions/arm_rfft_q31.c ****     uint32x4_t      offset = { 2, 3, 0, 1 };
 159:.\DSP\Source\TransformFunctions/arm_rfft_q31.c ****     uint32x4_t      offsetCoef = { 0, 1, modifier * 2, modifier * 2 + 1 };
 160:.\DSP\Source\TransformFunctions/arm_rfft_q31.c **** 
 161:.\DSP\Source\TransformFunctions/arm_rfft_q31.c ****     offset = offset + (2 * fftLen - 4);
 162:.\DSP\Source\TransformFunctions/arm_rfft_q31.c **** 
 163:.\DSP\Source\TransformFunctions/arm_rfft_q31.c **** 
 164:.\DSP\Source\TransformFunctions/arm_rfft_q31.c ****     /* Init coefficient pointers */
 165:.\DSP\Source\TransformFunctions/arm_rfft_q31.c ****     pCoefA = &pATable[modifier * 2];
 166:.\DSP\Source\TransformFunctions/arm_rfft_q31.c ****     pCoefB = &pBTable[modifier * 2];
 167:.\DSP\Source\TransformFunctions/arm_rfft_q31.c **** 
 168:.\DSP\Source\TransformFunctions/arm_rfft_q31.c ****     const q31_t    *pCoefAb, *pCoefBb;
 169:.\DSP\Source\TransformFunctions/arm_rfft_q31.c ****     pCoefAb = pCoefA;
 170:.\DSP\Source\TransformFunctions/arm_rfft_q31.c ****     pCoefBb = pCoefB;
 171:.\DSP\Source\TransformFunctions/arm_rfft_q31.c **** 
 172:.\DSP\Source\TransformFunctions/arm_rfft_q31.c ****     pIn1 = &pSrc[2];
 173:.\DSP\Source\TransformFunctions/arm_rfft_q31.c **** 
 174:.\DSP\Source\TransformFunctions/arm_rfft_q31.c ****     i = fftLen - 1U;
 175:.\DSP\Source\TransformFunctions/arm_rfft_q31.c ****     i = i / 2 + 1;
 176:.\DSP\Source\TransformFunctions/arm_rfft_q31.c ****     while (i > 0U) {
 177:.\DSP\Source\TransformFunctions/arm_rfft_q31.c ****         q31x4_t         in1 = vld1q_s32(pIn1);
 178:.\DSP\Source\TransformFunctions/arm_rfft_q31.c ****         q31x4_t         in2 = vldrwq_gather_shifted_offset_s32(pSrc, offset);
 179:.\DSP\Source\TransformFunctions/arm_rfft_q31.c ****         q31x4_t         coefA = vldrwq_gather_shifted_offset_s32(pCoefAb, offsetCoef);
 180:.\DSP\Source\TransformFunctions/arm_rfft_q31.c ****         q31x4_t         coefB = vldrwq_gather_shifted_offset_s32(pCoefBb, offsetCoef);
 181:.\DSP\Source\TransformFunctions/arm_rfft_q31.c **** #if defined(__CMSIS_GCC_H)
 182:.\DSP\Source\TransformFunctions/arm_rfft_q31.c ****         q31x4_t         out = vhaddq_s32(MVE_CMPLX_MULT_FX_AxB_S32(in1, coefA),MVE_CMPLX_MULT_FX_Ax
 183:.\DSP\Source\TransformFunctions/arm_rfft_q31.c **** #else
 184:.\DSP\Source\TransformFunctions/arm_rfft_q31.c ****         q31x4_t         out = vhaddq_s32(MVE_CMPLX_MULT_FX_AxB(in1, coefA, q31x4_t),
 185:.\DSP\Source\TransformFunctions/arm_rfft_q31.c ****                                          MVE_CMPLX_MULT_FX_AxConjB(coefB, in2, q31x4_t));
 186:.\DSP\Source\TransformFunctions/arm_rfft_q31.c **** #endif
 187:.\DSP\Source\TransformFunctions/arm_rfft_q31.c ****         vst1q(pOut1, out);
 188:.\DSP\Source\TransformFunctions/arm_rfft_q31.c ****         pOut1 += 4;
 189:.\DSP\Source\TransformFunctions/arm_rfft_q31.c **** 
 190:.\DSP\Source\TransformFunctions/arm_rfft_q31.c ****         offsetCoef += modifier * 4;
 191:.\DSP\Source\TransformFunctions/arm_rfft_q31.c ****         offset -= 4;
 192:.\DSP\Source\TransformFunctions/arm_rfft_q31.c **** 
 193:.\DSP\Source\TransformFunctions/arm_rfft_q31.c ****         pIn1 += 4;
 194:.\DSP\Source\TransformFunctions/arm_rfft_q31.c ****         i -= 1;
 195:.\DSP\Source\TransformFunctions/arm_rfft_q31.c ****     }
 196:.\DSP\Source\TransformFunctions/arm_rfft_q31.c **** 
 197:.\DSP\Source\TransformFunctions/arm_rfft_q31.c ****     pDst[2 * fftLen] = (pSrc[0] - pSrc[1]) >> 1U;
 198:.\DSP\Source\TransformFunctions/arm_rfft_q31.c ****     pDst[2 * fftLen + 1] = 0;
 199:.\DSP\Source\TransformFunctions/arm_rfft_q31.c **** 
 200:.\DSP\Source\TransformFunctions/arm_rfft_q31.c ****     pDst[0] = (pSrc[0] + pSrc[1]) >> 1U;
 201:.\DSP\Source\TransformFunctions/arm_rfft_q31.c ****     pDst[1] = 0;
 202:.\DSP\Source\TransformFunctions/arm_rfft_q31.c **** }
ARM GAS  C:\Users\IVYLIU~1\AppData\Local\Temp\ccOcgDxX.s 			page 5


 203:.\DSP\Source\TransformFunctions/arm_rfft_q31.c **** #else
 204:.\DSP\Source\TransformFunctions/arm_rfft_q31.c **** void arm_split_rfft_q31(
 205:.\DSP\Source\TransformFunctions/arm_rfft_q31.c ****         q31_t * pSrc,
 206:.\DSP\Source\TransformFunctions/arm_rfft_q31.c ****         uint32_t fftLen,
 207:.\DSP\Source\TransformFunctions/arm_rfft_q31.c ****   const q31_t * pATable,
 208:.\DSP\Source\TransformFunctions/arm_rfft_q31.c ****   const q31_t * pBTable,
 209:.\DSP\Source\TransformFunctions/arm_rfft_q31.c ****         q31_t * pDst,
 210:.\DSP\Source\TransformFunctions/arm_rfft_q31.c ****         uint32_t modifier)
 211:.\DSP\Source\TransformFunctions/arm_rfft_q31.c **** {
  27              		.loc 1 211 0
  28              		.cfi_startproc
  29              		@ args = 8, pretend = 0, frame = 104
  30              		@ frame_needed = 0, uses_anonymous_args = 0
  31              	.LVL0:
  32 0000 2DE9F04F 		push	{r4, r5, r6, r7, r8, r9, r10, fp, lr}
  33              		.cfi_def_cfa_offset 36
  34              		.cfi_offset 4, -36
  35              		.cfi_offset 5, -32
  36              		.cfi_offset 6, -28
  37              		.cfi_offset 7, -24
  38              		.cfi_offset 8, -20
  39              		.cfi_offset 9, -16
  40              		.cfi_offset 10, -12
  41              		.cfi_offset 11, -8
  42              		.cfi_offset 14, -4
  43 0004 9BB0     		sub	sp, sp, #108
  44              		.cfi_def_cfa_offset 144
  45 0006 0546     		mov	r5, r0
  46 0008 1890     		str	r0, [sp, #96]
  47 000a 0846     		mov	r0, r1
  48              	.LVL1:
  49 000c 1991     		str	r1, [sp, #100]
 212:.\DSP\Source\TransformFunctions/arm_rfft_q31.c ****         uint32_t i;                                    /* Loop Counter */
 213:.\DSP\Source\TransformFunctions/arm_rfft_q31.c ****         q31_t outR, outI;                              /* Temporary variables for output */
 214:.\DSP\Source\TransformFunctions/arm_rfft_q31.c ****   const q31_t *pCoefA, *pCoefB;                        /* Temporary pointers for twiddle factors */
 215:.\DSP\Source\TransformFunctions/arm_rfft_q31.c ****         q31_t CoefA1, CoefA2, CoefB1;                  /* Temporary variables for twiddle coefficie
 216:.\DSP\Source\TransformFunctions/arm_rfft_q31.c ****         q31_t *pOut1 = &pDst[2], *pOut2 = &pDst[4 * fftLen - 1];
  50              		.loc 1 216 0
  51 000e 249C     		ldr	r4, [sp, #144]
  52 0010 0834     		adds	r4, r4, #8
  53 0012 1294     		str	r4, [sp, #72]
  54              	.LVL2:
  55 0014 249C     		ldr	r4, [sp, #144]
  56              	.LVL3:
  57 0016 04EB0111 		add	r1, r4, r1, lsl #4
  58              	.LVL4:
  59 001a 0C1F     		subs	r4, r1, #4
  60 001c 1394     		str	r4, [sp, #76]
  61              	.LVL5:
 217:.\DSP\Source\TransformFunctions/arm_rfft_q31.c ****         q31_t *pIn1 =  &pSrc[2], *pIn2 =  &pSrc[2 * fftLen - 1];
  62              		.loc 1 217 0
  63 001e 05F10807 		add	r7, r5, #8
  64              	.LVL6:
  65 0022 C100     		lsls	r1, r0, #3
  66 0024 1791     		str	r1, [sp, #92]
  67 0026 A1F1040C 		sub	ip, r1, #4
  68 002a AC44     		add	ip, ip, r5
ARM GAS  C:\Users\IVYLIU~1\AppData\Local\Temp\ccOcgDxX.s 			page 6


  69              	.LVL7:
 218:.\DSP\Source\TransformFunctions/arm_rfft_q31.c **** 
 219:.\DSP\Source\TransformFunctions/arm_rfft_q31.c ****   /* Init coefficient pointers */
 220:.\DSP\Source\TransformFunctions/arm_rfft_q31.c ****   pCoefA = &pATable[modifier * 2];
  70              		.loc 1 220 0
  71 002c 2599     		ldr	r1, [sp, #148]
  72 002e C900     		lsls	r1, r1, #3
  73 0030 1691     		str	r1, [sp, #88]
  74 0032 02EB010E 		add	lr, r2, r1
  75              	.LVL8:
 221:.\DSP\Source\TransformFunctions/arm_rfft_q31.c ****   pCoefB = &pBTable[modifier * 2];
  76              		.loc 1 221 0
  77 0036 0B44     		add	r3, r3, r1
  78              	.LVL9:
 222:.\DSP\Source\TransformFunctions/arm_rfft_q31.c **** 
 223:.\DSP\Source\TransformFunctions/arm_rfft_q31.c ****   i = fftLen - 1U;
  79              		.loc 1 223 0
  80 0038 421E     		subs	r2, r0, #1
  81              	.LVL10:
  82 003a 0492     		str	r2, [sp, #16]
  83              	.LVL11:
  84 003c 0593     		str	r3, [sp, #20]
  85 003e 0197     		str	r7, [sp, #4]
 224:.\DSP\Source\TransformFunctions/arm_rfft_q31.c **** 
 225:.\DSP\Source\TransformFunctions/arm_rfft_q31.c ****   while (i > 0U)
  86              		.loc 1 225 0
  87 0040 D1E0     		b	.L2
  88              	.LVL12:
  89              	.L3:
 226:.\DSP\Source\TransformFunctions/arm_rfft_q31.c ****   {
 227:.\DSP\Source\TransformFunctions/arm_rfft_q31.c ****      /*
 228:.\DSP\Source\TransformFunctions/arm_rfft_q31.c ****        outR = (  pSrc[2 * i]             * pATable[2 * i]
 229:.\DSP\Source\TransformFunctions/arm_rfft_q31.c ****                - pSrc[2 * i + 1]         * pATable[2 * i + 1]
 230:.\DSP\Source\TransformFunctions/arm_rfft_q31.c ****                + pSrc[2 * n - 2 * i]     * pBTable[2 * i]
 231:.\DSP\Source\TransformFunctions/arm_rfft_q31.c ****                + pSrc[2 * n - 2 * i + 1] * pBTable[2 * i + 1]);
 232:.\DSP\Source\TransformFunctions/arm_rfft_q31.c **** 
 233:.\DSP\Source\TransformFunctions/arm_rfft_q31.c ****        outI = (  pIn[2 * i + 1]         * pATable[2 * i]
 234:.\DSP\Source\TransformFunctions/arm_rfft_q31.c ****                + pIn[2 * i]             * pATable[2 * i + 1]
 235:.\DSP\Source\TransformFunctions/arm_rfft_q31.c ****                + pIn[2 * n - 2 * i]     * pBTable[2 * i + 1]
 236:.\DSP\Source\TransformFunctions/arm_rfft_q31.c ****                - pIn[2 * n - 2 * i + 1] * pBTable[2 * i]);
 237:.\DSP\Source\TransformFunctions/arm_rfft_q31.c ****       */
 238:.\DSP\Source\TransformFunctions/arm_rfft_q31.c **** 
 239:.\DSP\Source\TransformFunctions/arm_rfft_q31.c ****      CoefA1 = *pCoefA++;
  90              		.loc 1 239 0
  91 0042 DEF80020 		ldr	r2, [lr]
  92              	.LVL13:
 240:.\DSP\Source\TransformFunctions/arm_rfft_q31.c ****      CoefA2 = *pCoefA;
  93              		.loc 1 240 0
  94 0046 DEF80430 		ldr	r3, [lr, #4]
  95              	.LVL14:
 241:.\DSP\Source\TransformFunctions/arm_rfft_q31.c **** 
 242:.\DSP\Source\TransformFunctions/arm_rfft_q31.c ****      /* outR = (pSrc[2 * i] * pATable[2 * i] */
 243:.\DSP\Source\TransformFunctions/arm_rfft_q31.c ****      mult_32x32_keep32_R (outR, *pIn1, CoefA1);
  96              		.loc 1 243 0
  97 004a 0198     		ldr	r0, [sp, #4]
  98 004c D0F80080 		ldr	r8, [r0]
  99 0050 4646     		mov	r6, r8
ARM GAS  C:\Users\IVYLIU~1\AppData\Local\Temp\ccOcgDxX.s 			page 7


 100 0052 F717     		asrs	r7, r6, #31
 101 0054 1446     		mov	r4, r2
 102 0056 D517     		asrs	r5, r2, #31
 103 0058 CDE91445 		strd	r4, [sp, #80]
 104 005c 08FB05F4 		mul	r4, r8, r5
 105 0060 02FB0744 		mla	r4, r2, r7, r4
 106 0064 A8FB0201 		umull	r0, r1, r8, r2
 107 0068 2144     		add	r1, r1, r4
 108 006a 10F10040 		adds	r0, r0, #-2147483648
 109 006e 41F10001 		adc	r1, r1, #0
 110              	.LVL15:
 244:.\DSP\Source\TransformFunctions/arm_rfft_q31.c **** 
 245:.\DSP\Source\TransformFunctions/arm_rfft_q31.c ****      /* outI = pIn[2 * i] * pATable[2 * i + 1] */
 246:.\DSP\Source\TransformFunctions/arm_rfft_q31.c ****      mult_32x32_keep32_R (outI, *pIn1++, CoefA2);
 111              		.loc 1 246 0
 112 0072 DD17     		asrs	r5, r3, #31
 113 0074 9A46     		mov	r10, r3
 114 0076 AB46     		mov	fp, r5
 115 0078 08FB05F0 		mul	r0, r8, r5
 116 007c 03FB0700 		mla	r0, r3, r7, r0
 117 0080 A8FB0389 		umull	r8, r9, r8, r3
 118 0084 8144     		add	r9, r9, r0
 119 0086 18F10048 		adds	r8, r8, #-2147483648
 120 008a 49F10009 		adc	r9, r9, #0
 121              	.LVL16:
 247:.\DSP\Source\TransformFunctions/arm_rfft_q31.c **** 
 248:.\DSP\Source\TransformFunctions/arm_rfft_q31.c ****      /* - pSrc[2 * i + 1] * pATable[2 * i + 1] */
 249:.\DSP\Source\TransformFunctions/arm_rfft_q31.c ****      multSub_32x32_keep32_R (outR, *pIn1, CoefA2);
 122              		.loc 1 249 0
 123 008e 0391     		str	r1, [sp, #12]
 124 0090 0021     		movs	r1, #0
 125              	.LVL17:
 126 0092 0291     		str	r1, [sp, #8]
 127 0094 0199     		ldr	r1, [sp, #4]
 128 0096 4C68     		ldr	r4, [r1, #4]
 129 0098 E717     		asrs	r7, r4, #31
 130 009a 03FB07F6 		mul	r6, r3, r7
 131 009e CDE906AB 		strd	r10, [sp, #24]
 132 00a2 04FB0566 		mla	r6, r4, r5, r6
 133 00a6 A3FB0401 		umull	r0, r1, r3, r4
 134 00aa 3144     		add	r1, r1, r6
 135 00ac DDE902AB 		ldrd	r10, [sp, #8]
 136 00b0 BAEB000A 		subs	r10, r10, r0
 137 00b4 6BEB010B 		sbc	fp, fp, r1
 138 00b8 5046     		mov	r0, r10
 139 00ba 10F10040 		adds	r0, r0, #-2147483648
 140 00be 4BF10001 		adc	r1, fp, #0
 141              	.LVL18:
 250:.\DSP\Source\TransformFunctions/arm_rfft_q31.c **** 
 251:.\DSP\Source\TransformFunctions/arm_rfft_q31.c ****      /* (pIn[2 * i + 1] * pATable[2 * i] */
 252:.\DSP\Source\TransformFunctions/arm_rfft_q31.c ****      multAcc_32x32_keep32_R (outI, *pIn1++, CoefA1);
 142              		.loc 1 252 0
 143 00c2 CDF82490 		str	r9, [sp, #36]
 144 00c6 DDE902AB 		ldrd	r10, [sp, #8]
 145 00ca CDF820A0 		str	r10, [sp, #32]
 146 00ce 019D     		ldr	r5, [sp, #4]
 147 00d0 0835     		adds	r5, r5, #8
ARM GAS  C:\Users\IVYLIU~1\AppData\Local\Temp\ccOcgDxX.s 			page 8


 148 00d2 0195     		str	r5, [sp, #4]
 149              	.LVL19:
 150 00d4 02FB07F0 		mul	r0, r2, r7
 151 00d8 159D     		ldr	r5, [sp, #84]
 152              	.LVL20:
 153 00da 04FB0500 		mla	r0, r4, r5, r0
 154 00de A2FB0445 		umull	r4, r5, r2, r4
 155 00e2 0544     		add	r5, r5, r0
 156 00e4 DDE90867 		ldrd	r6, [sp, #32]
 157 00e8 3619     		adds	r6, r6, r4
 158 00ea 6F41     		adcs	r7, r7, r5
 159 00ec 3446     		mov	r4, r6
 160 00ee 14F10044 		adds	r4, r4, #-2147483648
 161 00f2 47F10005 		adc	r5, r7, #0
 162              	.LVL21:
 253:.\DSP\Source\TransformFunctions/arm_rfft_q31.c **** 
 254:.\DSP\Source\TransformFunctions/arm_rfft_q31.c ****      /* pSrc[2 * n - 2 * i] * pBTable[2 * i]  */
 255:.\DSP\Source\TransformFunctions/arm_rfft_q31.c ****      multSub_32x32_keep32_R (outR, *pIn2, CoefA2);
 163              		.loc 1 255 0
 164 00f6 0B91     		str	r1, [sp, #44]
 165 00f8 CDF828A0 		str	r10, [sp, #40]
 166 00fc DCF80040 		ldr	r4, [ip]
 167 0100 E117     		asrs	r1, r4, #31
 168              	.LVL22:
 169 0102 03FB01F2 		mul	r2, r3, r1
 170              	.LVL23:
 171 0106 079E     		ldr	r6, [sp, #28]
 172 0108 04FB0622 		mla	r2, r4, r6, r2
 173 010c A3FB0467 		umull	r6, r7, r3, r4
 174 0110 1744     		add	r7, r7, r2
 175 0112 DDE90A89 		ldrd	r8, [sp, #40]
 176 0116 B8EB0608 		subs	r8, r8, r6
 177 011a 69EB0709 		sbc	r9, r9, r7
 178 011e 18F10048 		adds	r8, r8, #-2147483648
 179 0122 49F10009 		adc	r9, r9, #0
 180 0126 CDE91489 		strd	r8, [sp, #80]
 181              	.LVL24:
 256:.\DSP\Source\TransformFunctions/arm_rfft_q31.c ****      CoefB1 = *pCoefB;
 182              		.loc 1 256 0
 183 012a 059A     		ldr	r2, [sp, #20]
 184 012c 1068     		ldr	r0, [r2]
 185              	.LVL25:
 257:.\DSP\Source\TransformFunctions/arm_rfft_q31.c **** 
 258:.\DSP\Source\TransformFunctions/arm_rfft_q31.c ****      /* pIn[2 * n - 2 * i] * pBTable[2 * i + 1] */
 259:.\DSP\Source\TransformFunctions/arm_rfft_q31.c ****      multSub_32x32_keep32_R (outI, *pIn2--, CoefB1);
 186              		.loc 1 259 0
 187 012e 0D95     		str	r5, [sp, #52]
 188 0130 CDF830A0 		str	r10, [sp, #48]
 189              	.LVL26:
 190 0134 4FEAE079 		asr	r9, r0, #31
 191 0138 04FB09F2 		mul	r2, r4, r9
 192 013c 00FB0122 		mla	r2, r0, r1, r2
 193 0140 A4FB0045 		umull	r4, r5, r4, r0
 194 0144 1544     		add	r5, r5, r2
 195              	.LVL27:
 196 0146 DDE90C67 		ldrd	r6, [sp, #48]
 197 014a 361B     		subs	r6, r6, r4
ARM GAS  C:\Users\IVYLIU~1\AppData\Local\Temp\ccOcgDxX.s 			page 9


 198 014c 67EB0507 		sbc	r7, r7, r5
 199 0150 3446     		mov	r4, r6
 200 0152 14F10044 		adds	r4, r4, #-2147483648
 201 0156 47F10005 		adc	r5, r7, #0
 202              	.LVL28:
 260:.\DSP\Source\TransformFunctions/arm_rfft_q31.c **** 
 261:.\DSP\Source\TransformFunctions/arm_rfft_q31.c ****      /* pSrc[2 * n - 2 * i + 1] * pBTable[2 * i + 1] */
 262:.\DSP\Source\TransformFunctions/arm_rfft_q31.c ****      multAcc_32x32_keep32_R (outR, *pIn2, CoefB1);
 203              		.loc 1 262 0
 204 015a 1599     		ldr	r1, [sp, #84]
 205 015c 0F91     		str	r1, [sp, #60]
 206 015e CDF838A0 		str	r10, [sp, #56]
 207 0162 5CF8042C 		ldr	r2, [ip, #-4]
 208 0166 D717     		asrs	r7, r2, #31
 209 0168 00FB07F4 		mul	r4, r0, r7
 210 016c 02FB0944 		mla	r4, r2, r9, r4
 211 0170 A0FB0201 		umull	r0, r1, r0, r2
 212              	.LVL29:
 213 0174 2144     		add	r1, r1, r4
 214 0176 DDE90E89 		ldrd	r8, [sp, #56]
 215 017a 18EB0008 		adds	r8, r8, r0
 216 017e 49EB0109 		adc	r9, r9, r1
 217 0182 4046     		mov	r0, r8
 218 0184 10F10040 		adds	r0, r0, #-2147483648
 219 0188 49F10001 		adc	r1, r9, #0
 220              	.LVL30:
 263:.\DSP\Source\TransformFunctions/arm_rfft_q31.c **** 
 264:.\DSP\Source\TransformFunctions/arm_rfft_q31.c ****      /* pIn[2 * n - 2 * i + 1] * pBTable[2 * i] */
 265:.\DSP\Source\TransformFunctions/arm_rfft_q31.c ****      multSub_32x32_keep32_R (outI, *pIn2--, CoefA2);
 221              		.loc 1 265 0
 222 018c 1195     		str	r5, [sp, #68]
 223 018e CDF840A0 		str	r10, [sp, #64]
 224 0192 ACF1080C 		sub	ip, ip, #8
 225              	.LVL31:
 226 0196 03FB07F0 		mul	r0, r3, r7
 227 019a 079C     		ldr	r4, [sp, #28]
 228 019c 02FB0400 		mla	r0, r2, r4, r0
 229 01a0 A3FB0223 		umull	r2, r3, r3, r2
 230 01a4 0344     		add	r3, r3, r0
 231              	.LVL32:
 232 01a6 DDE91045 		ldrd	r4, [sp, #64]
 233 01aa A41A     		subs	r4, r4, r2
 234 01ac 65EB0305 		sbc	r5, r5, r3
 235              	.LVL33:
 236 01b0 2246     		mov	r2, r4
 237 01b2 12F10042 		adds	r2, r2, #-2147483648
 238 01b6 45F10003 		adc	r3, r5, #0
 239              	.LVL34:
 266:.\DSP\Source\TransformFunctions/arm_rfft_q31.c **** 
 267:.\DSP\Source\TransformFunctions/arm_rfft_q31.c ****      /* write output */
 268:.\DSP\Source\TransformFunctions/arm_rfft_q31.c ****      *pOut1++ = outR;
 240              		.loc 1 268 0
 241 01ba 129C     		ldr	r4, [sp, #72]
 242 01bc 2246     		mov	r2, r4
 243 01be 42F8081B 		str	r1, [r2], #8
 244              	.LVL35:
 269:.\DSP\Source\TransformFunctions/arm_rfft_q31.c ****      *pOut1++ = outI;
ARM GAS  C:\Users\IVYLIU~1\AppData\Local\Temp\ccOcgDxX.s 			page 10


 245              		.loc 1 269 0
 246 01c2 6360     		str	r3, [r4, #4]
 247              	.LVL36:
 270:.\DSP\Source\TransformFunctions/arm_rfft_q31.c **** 
 271:.\DSP\Source\TransformFunctions/arm_rfft_q31.c ****      /* write complex conjugate output */
 272:.\DSP\Source\TransformFunctions/arm_rfft_q31.c ****      *pOut2-- = -outI;
 248              		.loc 1 272 0
 249 01c4 5842     		negs	r0, r3
 250 01c6 139C     		ldr	r4, [sp, #76]
 251 01c8 2346     		mov	r3, r4
 252              	.LVL37:
 253 01ca 43F80809 		str	r0, [r3], #-8
 254              	.LVL38:
 273:.\DSP\Source\TransformFunctions/arm_rfft_q31.c ****      *pOut2-- = outR;
 255              		.loc 1 273 0
 256 01ce 44F8041C 		str	r1, [r4, #-4]
 274:.\DSP\Source\TransformFunctions/arm_rfft_q31.c **** 
 275:.\DSP\Source\TransformFunctions/arm_rfft_q31.c ****      /* update coefficient pointer */
 276:.\DSP\Source\TransformFunctions/arm_rfft_q31.c ****      pCoefB = pCoefB + (2 * modifier);
 257              		.loc 1 276 0
 258 01d2 1698     		ldr	r0, [sp, #88]
 259              	.LVL39:
 260 01d4 059C     		ldr	r4, [sp, #20]
 261 01d6 0444     		add	r4, r4, r0
 262 01d8 0594     		str	r4, [sp, #20]
 263              	.LVL40:
 277:.\DSP\Source\TransformFunctions/arm_rfft_q31.c ****      pCoefA = pCoefA + (2 * modifier - 1);
 264              		.loc 1 277 0
 265 01da 8644     		add	lr, lr, r0
 266              	.LVL41:
 278:.\DSP\Source\TransformFunctions/arm_rfft_q31.c **** 
 279:.\DSP\Source\TransformFunctions/arm_rfft_q31.c ****      /* Decrement loop count */
 280:.\DSP\Source\TransformFunctions/arm_rfft_q31.c ****      i--;
 267              		.loc 1 280 0
 268 01dc 0499     		ldr	r1, [sp, #16]
 269              	.LVL42:
 270 01de 0139     		subs	r1, r1, #1
 271 01e0 0491     		str	r1, [sp, #16]
 272              	.LVL43:
 273:.\DSP\Source\TransformFunctions/arm_rfft_q31.c **** 
 273              		.loc 1 273 0
 274 01e2 1393     		str	r3, [sp, #76]
 275              	.LVL44:
 269:.\DSP\Source\TransformFunctions/arm_rfft_q31.c **** 
 276              		.loc 1 269 0
 277 01e4 1292     		str	r2, [sp, #72]
 278              	.LVL45:
 279              	.L2:
 225:.\DSP\Source\TransformFunctions/arm_rfft_q31.c ****   {
 280              		.loc 1 225 0
 281 01e6 049B     		ldr	r3, [sp, #16]
 282 01e8 002B     		cmp	r3, #0
 283 01ea 7FF42AAF 		bne	.L3
 281:.\DSP\Source\TransformFunctions/arm_rfft_q31.c ****   }
 282:.\DSP\Source\TransformFunctions/arm_rfft_q31.c **** 
 283:.\DSP\Source\TransformFunctions/arm_rfft_q31.c ****   pDst[2 * fftLen]     = (pSrc[0] - pSrc[1]) >> 1U;
 284              		.loc 1 283 0
ARM GAS  C:\Users\IVYLIU~1\AppData\Local\Temp\ccOcgDxX.s 			page 11


 285 01ee 1899     		ldr	r1, [sp, #96]
 286 01f0 0B68     		ldr	r3, [r1]
 287 01f2 4A68     		ldr	r2, [r1, #4]
 288 01f4 9B1A     		subs	r3, r3, r2
 289 01f6 5B10     		asrs	r3, r3, #1
 290 01f8 249A     		ldr	r2, [sp, #144]
 291 01fa 1998     		ldr	r0, [sp, #100]
 292 01fc 42F83030 		str	r3, [r2, r0, lsl #3]
 284:.\DSP\Source\TransformFunctions/arm_rfft_q31.c ****   pDst[2 * fftLen + 1] = 0;
 293              		.loc 1 284 0
 294 0200 179B     		ldr	r3, [sp, #92]
 295 0202 0433     		adds	r3, r3, #4
 296 0204 0022     		movs	r2, #0
 297 0206 2498     		ldr	r0, [sp, #144]
 298 0208 C250     		str	r2, [r0, r3]
 285:.\DSP\Source\TransformFunctions/arm_rfft_q31.c **** 
 286:.\DSP\Source\TransformFunctions/arm_rfft_q31.c ****   pDst[0] = (pSrc[0] + pSrc[1]) >> 1U;
 299              		.loc 1 286 0
 300 020a 0B46     		mov	r3, r1
 301 020c 0968     		ldr	r1, [r1]
 302 020e 5B68     		ldr	r3, [r3, #4]
 303 0210 0B44     		add	r3, r3, r1
 304 0212 5B10     		asrs	r3, r3, #1
 305 0214 0360     		str	r3, [r0]
 287:.\DSP\Source\TransformFunctions/arm_rfft_q31.c ****   pDst[1] = 0;
 306              		.loc 1 287 0
 307 0216 4260     		str	r2, [r0, #4]
 288:.\DSP\Source\TransformFunctions/arm_rfft_q31.c **** }
 308              		.loc 1 288 0
 309 0218 1BB0     		add	sp, sp, #108
 310              		.cfi_def_cfa_offset 36
 311              		@ sp needed
 312 021a BDE8F08F 		pop	{r4, r5, r6, r7, r8, r9, r10, fp, pc}
 313              		.cfi_endproc
 314              	.LFE85:
 315              		.size	arm_split_rfft_q31, .-arm_split_rfft_q31
 316 021e 00BF     		.section	.text.arm_split_rifft_q31,"ax",%progbits
 317              		.align	2
 318              		.global	arm_split_rifft_q31
 319              		.thumb
 320              		.thumb_func
 321              		.type	arm_split_rifft_q31, %function
 322              	arm_split_rifft_q31:
 323              	.LFB86:
 289:.\DSP\Source\TransformFunctions/arm_rfft_q31.c **** #endif /* defined(ARM_MATH_MVEI) */
 290:.\DSP\Source\TransformFunctions/arm_rfft_q31.c **** 
 291:.\DSP\Source\TransformFunctions/arm_rfft_q31.c **** /**
 292:.\DSP\Source\TransformFunctions/arm_rfft_q31.c ****   @brief         Core Real IFFT process
 293:.\DSP\Source\TransformFunctions/arm_rfft_q31.c ****   @param[in]     pSrc      points to input buffer
 294:.\DSP\Source\TransformFunctions/arm_rfft_q31.c ****   @param[in]     fftLen    length of FFT
 295:.\DSP\Source\TransformFunctions/arm_rfft_q31.c ****   @param[in]     pATable   points to twiddle Coef A buffer
 296:.\DSP\Source\TransformFunctions/arm_rfft_q31.c ****   @param[in]     pBTable   points to twiddle Coef B buffer
 297:.\DSP\Source\TransformFunctions/arm_rfft_q31.c ****   @param[out]    pDst      points to output buffer
 298:.\DSP\Source\TransformFunctions/arm_rfft_q31.c ****   @param[in]     modifier  twiddle coefficient modifier that supports different size FFTs with the 
 299:.\DSP\Source\TransformFunctions/arm_rfft_q31.c ****   @return        none
 300:.\DSP\Source\TransformFunctions/arm_rfft_q31.c ****  */
 301:.\DSP\Source\TransformFunctions/arm_rfft_q31.c **** 
ARM GAS  C:\Users\IVYLIU~1\AppData\Local\Temp\ccOcgDxX.s 			page 12


 302:.\DSP\Source\TransformFunctions/arm_rfft_q31.c **** #if defined(ARM_MATH_MVEI) && !defined(ARM_MATH_AUTOVECTORIZE)
 303:.\DSP\Source\TransformFunctions/arm_rfft_q31.c **** 
 304:.\DSP\Source\TransformFunctions/arm_rfft_q31.c **** void arm_split_rifft_q31(
 305:.\DSP\Source\TransformFunctions/arm_rfft_q31.c ****         q31_t * pSrc,
 306:.\DSP\Source\TransformFunctions/arm_rfft_q31.c ****         uint32_t fftLen,
 307:.\DSP\Source\TransformFunctions/arm_rfft_q31.c ****   const q31_t * pATable,
 308:.\DSP\Source\TransformFunctions/arm_rfft_q31.c ****   const q31_t * pBTable,
 309:.\DSP\Source\TransformFunctions/arm_rfft_q31.c ****         q31_t * pDst,
 310:.\DSP\Source\TransformFunctions/arm_rfft_q31.c ****         uint32_t modifier)
 311:.\DSP\Source\TransformFunctions/arm_rfft_q31.c **** {
 312:.\DSP\Source\TransformFunctions/arm_rfft_q31.c ****     uint32_t        i;          /* Loop Counter */
 313:.\DSP\Source\TransformFunctions/arm_rfft_q31.c ****     const q31_t    *pCoefA, *pCoefB;    /* Temporary pointers for twiddle factors */
 314:.\DSP\Source\TransformFunctions/arm_rfft_q31.c ****     q31_t          *pIn1;
 315:.\DSP\Source\TransformFunctions/arm_rfft_q31.c ****     uint32x4_t      offset = { 2, 3, 0, 1 };
 316:.\DSP\Source\TransformFunctions/arm_rfft_q31.c ****     uint32x4_t      offsetCoef = { 0, 1, modifier * 2, modifier * 2 + 1 };
 317:.\DSP\Source\TransformFunctions/arm_rfft_q31.c ****     int32x4_t       conj = { 1, -1, 1, -1 };
 318:.\DSP\Source\TransformFunctions/arm_rfft_q31.c **** 
 319:.\DSP\Source\TransformFunctions/arm_rfft_q31.c ****     offset = offset + (2 * fftLen - 2);
 320:.\DSP\Source\TransformFunctions/arm_rfft_q31.c **** 
 321:.\DSP\Source\TransformFunctions/arm_rfft_q31.c ****     /* Init coefficient pointers */
 322:.\DSP\Source\TransformFunctions/arm_rfft_q31.c ****     pCoefA = &pATable[0];
 323:.\DSP\Source\TransformFunctions/arm_rfft_q31.c ****     pCoefB = &pBTable[0];
 324:.\DSP\Source\TransformFunctions/arm_rfft_q31.c **** 
 325:.\DSP\Source\TransformFunctions/arm_rfft_q31.c ****     const q31_t    *pCoefAb, *pCoefBb;
 326:.\DSP\Source\TransformFunctions/arm_rfft_q31.c ****     pCoefAb = pCoefA;
 327:.\DSP\Source\TransformFunctions/arm_rfft_q31.c ****     pCoefBb = pCoefB;
 328:.\DSP\Source\TransformFunctions/arm_rfft_q31.c **** 
 329:.\DSP\Source\TransformFunctions/arm_rfft_q31.c ****     pIn1 = &pSrc[0];
 330:.\DSP\Source\TransformFunctions/arm_rfft_q31.c **** 
 331:.\DSP\Source\TransformFunctions/arm_rfft_q31.c ****     i = fftLen;
 332:.\DSP\Source\TransformFunctions/arm_rfft_q31.c ****     i = i >> 1;
 333:.\DSP\Source\TransformFunctions/arm_rfft_q31.c ****     while (i > 0U) {
 334:.\DSP\Source\TransformFunctions/arm_rfft_q31.c ****         q31x4_t         in1 = vld1q_s32(pIn1);
 335:.\DSP\Source\TransformFunctions/arm_rfft_q31.c ****         q31x4_t         in2 = vldrwq_gather_shifted_offset_s32(pSrc, offset);
 336:.\DSP\Source\TransformFunctions/arm_rfft_q31.c ****         q31x4_t         coefA = vldrwq_gather_shifted_offset_s32(pCoefAb, offsetCoef);
 337:.\DSP\Source\TransformFunctions/arm_rfft_q31.c ****         q31x4_t         coefB = vldrwq_gather_shifted_offset_s32(pCoefBb, offsetCoef);
 338:.\DSP\Source\TransformFunctions/arm_rfft_q31.c **** 
 339:.\DSP\Source\TransformFunctions/arm_rfft_q31.c ****         /* can we avoid the conjugate here ? */
 340:.\DSP\Source\TransformFunctions/arm_rfft_q31.c **** #if defined(__CMSIS_GCC_H)
 341:.\DSP\Source\TransformFunctions/arm_rfft_q31.c ****         q31x4_t         out = vhaddq_s32(MVE_CMPLX_MULT_FX_AxConjB_S32(in1, coefA),
 342:.\DSP\Source\TransformFunctions/arm_rfft_q31.c ****                                      vmulq_s32(conj, MVE_CMPLX_MULT_FX_AxB_S32(in2, coefB)));
 343:.\DSP\Source\TransformFunctions/arm_rfft_q31.c **** #else
 344:.\DSP\Source\TransformFunctions/arm_rfft_q31.c ****         q31x4_t         out = vhaddq_s32(MVE_CMPLX_MULT_FX_AxConjB(in1, coefA, q31x4_t),
 345:.\DSP\Source\TransformFunctions/arm_rfft_q31.c ****                                          vmulq_s32(conj, MVE_CMPLX_MULT_FX_AxB(in2, coefB, q31x4_t)
 346:.\DSP\Source\TransformFunctions/arm_rfft_q31.c **** #endif
 347:.\DSP\Source\TransformFunctions/arm_rfft_q31.c ****         vst1q_s32(pDst, out);
 348:.\DSP\Source\TransformFunctions/arm_rfft_q31.c ****         pDst += 4;
 349:.\DSP\Source\TransformFunctions/arm_rfft_q31.c **** 
 350:.\DSP\Source\TransformFunctions/arm_rfft_q31.c ****         offsetCoef += modifier * 4;
 351:.\DSP\Source\TransformFunctions/arm_rfft_q31.c ****         offset -= 4;
 352:.\DSP\Source\TransformFunctions/arm_rfft_q31.c **** 
 353:.\DSP\Source\TransformFunctions/arm_rfft_q31.c ****         pIn1 += 4;
 354:.\DSP\Source\TransformFunctions/arm_rfft_q31.c ****         i -= 1;
 355:.\DSP\Source\TransformFunctions/arm_rfft_q31.c ****     }
 356:.\DSP\Source\TransformFunctions/arm_rfft_q31.c **** }
 357:.\DSP\Source\TransformFunctions/arm_rfft_q31.c **** #else
 358:.\DSP\Source\TransformFunctions/arm_rfft_q31.c **** void arm_split_rifft_q31(
ARM GAS  C:\Users\IVYLIU~1\AppData\Local\Temp\ccOcgDxX.s 			page 13


 359:.\DSP\Source\TransformFunctions/arm_rfft_q31.c ****         q31_t * pSrc,
 360:.\DSP\Source\TransformFunctions/arm_rfft_q31.c ****         uint32_t fftLen,
 361:.\DSP\Source\TransformFunctions/arm_rfft_q31.c ****   const q31_t * pATable,
 362:.\DSP\Source\TransformFunctions/arm_rfft_q31.c ****   const q31_t * pBTable,
 363:.\DSP\Source\TransformFunctions/arm_rfft_q31.c ****         q31_t * pDst,
 364:.\DSP\Source\TransformFunctions/arm_rfft_q31.c ****         uint32_t modifier)
 365:.\DSP\Source\TransformFunctions/arm_rfft_q31.c **** {       
 324              		.loc 1 365 0
 325              		.cfi_startproc
 326              		@ args = 8, pretend = 0, frame = 80
 327              		@ frame_needed = 0, uses_anonymous_args = 0
 328              	.LVL46:
 329 0000 2DE9F04F 		push	{r4, r5, r6, r7, r8, r9, r10, fp, lr}
 330              		.cfi_def_cfa_offset 36
 331              		.cfi_offset 4, -36
 332              		.cfi_offset 5, -32
 333              		.cfi_offset 6, -28
 334              		.cfi_offset 7, -24
 335              		.cfi_offset 8, -20
 336              		.cfi_offset 9, -16
 337              		.cfi_offset 10, -12
 338              		.cfi_offset 11, -8
 339              		.cfi_offset 14, -4
 340 0004 95B0     		sub	sp, sp, #84
 341              		.cfi_def_cfa_offset 120
 342 0006 0F90     		str	r0, [sp, #60]
 343 0008 0391     		str	r1, [sp, #12]
 344 000a 9646     		mov	lr, r2
 345 000c 0E93     		str	r3, [sp, #56]
 346              	.LVL47:
 366:.\DSP\Source\TransformFunctions/arm_rfft_q31.c ****         q31_t outR, outI;                              /* Temporary variables for output */
 367:.\DSP\Source\TransformFunctions/arm_rfft_q31.c ****   const q31_t *pCoefA, *pCoefB;                        /* Temporary pointers for twiddle factors */
 368:.\DSP\Source\TransformFunctions/arm_rfft_q31.c ****         q31_t CoefA1, CoefA2, CoefB1;                  /* Temporary variables for twiddle coefficie
 369:.\DSP\Source\TransformFunctions/arm_rfft_q31.c ****         q31_t *pIn1 = &pSrc[0], *pIn2 = &pSrc[2 * fftLen + 1];
 347              		.loc 1 369 0
 348 000e 00EBC10C 		add	ip, r0, r1, lsl #3
 349 0012 0CF1040C 		add	ip, ip, #4
 350              	.LVL48:
 370:.\DSP\Source\TransformFunctions/arm_rfft_q31.c **** 
 371:.\DSP\Source\TransformFunctions/arm_rfft_q31.c ****   pCoefA = &pATable[0];
 372:.\DSP\Source\TransformFunctions/arm_rfft_q31.c ****   pCoefB = &pBTable[0];
 373:.\DSP\Source\TransformFunctions/arm_rfft_q31.c **** 
 374:.\DSP\Source\TransformFunctions/arm_rfft_q31.c ****   while (fftLen > 0U)
 351              		.loc 1 374 0
 352 0016 C9E0     		b	.L6
 353              	.LVL49:
 354              	.L7:
 375:.\DSP\Source\TransformFunctions/arm_rfft_q31.c ****   {
 376:.\DSP\Source\TransformFunctions/arm_rfft_q31.c ****      /*
 377:.\DSP\Source\TransformFunctions/arm_rfft_q31.c ****        outR = (  pIn[2 * i]             * pATable[2 * i]
 378:.\DSP\Source\TransformFunctions/arm_rfft_q31.c ****                + pIn[2 * i + 1]         * pATable[2 * i + 1]
 379:.\DSP\Source\TransformFunctions/arm_rfft_q31.c ****                + pIn[2 * n - 2 * i]     * pBTable[2 * i]
 380:.\DSP\Source\TransformFunctions/arm_rfft_q31.c ****                - pIn[2 * n - 2 * i + 1] * pBTable[2 * i + 1]);
 381:.\DSP\Source\TransformFunctions/arm_rfft_q31.c **** 
 382:.\DSP\Source\TransformFunctions/arm_rfft_q31.c ****        outI = (  pIn[2 * i + 1]         * pATable[2 * i]
 383:.\DSP\Source\TransformFunctions/arm_rfft_q31.c ****                - pIn[2 * i]             * pATable[2 * i + 1]
 384:.\DSP\Source\TransformFunctions/arm_rfft_q31.c ****                - pIn[2 * n - 2 * i]     * pBTable[2 * i + 1]
ARM GAS  C:\Users\IVYLIU~1\AppData\Local\Temp\ccOcgDxX.s 			page 14


 385:.\DSP\Source\TransformFunctions/arm_rfft_q31.c ****                - pIn[2 * n - 2 * i + 1] * pBTable[2 * i]);
 386:.\DSP\Source\TransformFunctions/arm_rfft_q31.c ****       */
 387:.\DSP\Source\TransformFunctions/arm_rfft_q31.c **** 
 388:.\DSP\Source\TransformFunctions/arm_rfft_q31.c ****      CoefA1 = *pCoefA++;
 355              		.loc 1 388 0
 356 0018 DEF80020 		ldr	r2, [lr]
 357              	.LVL50:
 389:.\DSP\Source\TransformFunctions/arm_rfft_q31.c ****      CoefA2 = *pCoefA;
 358              		.loc 1 389 0
 359 001c DEF80430 		ldr	r3, [lr, #4]
 360              	.LVL51:
 390:.\DSP\Source\TransformFunctions/arm_rfft_q31.c **** 
 391:.\DSP\Source\TransformFunctions/arm_rfft_q31.c ****      /* outR = (pIn[2 * i] * pATable[2 * i] */
 392:.\DSP\Source\TransformFunctions/arm_rfft_q31.c ****      mult_32x32_keep32_R (outR, *pIn1, CoefA1);
 361              		.loc 1 392 0
 362 0020 0F9F     		ldr	r7, [sp, #60]
 363 0022 3C68     		ldr	r4, [r7]
 364 0024 4FEAE479 		asr	r9, r4, #31
 365 0028 1046     		mov	r0, r2
 366 002a D117     		asrs	r1, r2, #31
 367 002c CDE91001 		strd	r0, [sp, #64]
 368 0030 04FB01F5 		mul	r5, r4, r1
 369 0034 02FB0955 		mla	r5, r2, r9, r5
 370 0038 A4FB0201 		umull	r0, r1, r4, r2
 371 003c 2944     		add	r1, r1, r5
 372 003e 10F10040 		adds	r0, r0, #-2147483648
 373 0042 41F10001 		adc	r1, r1, #0
 374              	.LVL52:
 393:.\DSP\Source\TransformFunctions/arm_rfft_q31.c **** 
 394:.\DSP\Source\TransformFunctions/arm_rfft_q31.c ****      /* - pIn[2 * i] * pATable[2 * i + 1] */
 395:.\DSP\Source\TransformFunctions/arm_rfft_q31.c ****      mult_32x32_keep32_R (outI, *pIn1++, -CoefA2);
 375              		.loc 1 395 0
 376 0046 C3F10008 		rsb	r8, r3, #0
 377 004a 4FEAE87B 		asr	fp, r8, #31
 378 004e 04FB0BF0 		mul	r0, r4, fp
 379 0052 08FB0900 		mla	r0, r8, r9, r0
 380 0056 A4FB0845 		umull	r4, r5, r4, r8
 381 005a 0544     		add	r5, r5, r0
 382 005c 14F10048 		adds	r8, r4, #-2147483648
 383 0060 45F10009 		adc	r9, r5, #0
 384              	.LVL53:
 396:.\DSP\Source\TransformFunctions/arm_rfft_q31.c **** 
 397:.\DSP\Source\TransformFunctions/arm_rfft_q31.c ****      /* pIn[2 * i + 1] * pATable[2 * i + 1] */
 398:.\DSP\Source\TransformFunctions/arm_rfft_q31.c ****      multAcc_32x32_keep32_R (outR, *pIn1, CoefA2);
 385              		.loc 1 398 0
 386 0064 0191     		str	r1, [sp, #4]
 387 0066 0021     		movs	r1, #0
 388              	.LVL54:
 389 0068 0091     		str	r1, [sp]
 390 006a 7E68     		ldr	r6, [r7, #4]
 391 006c 3046     		mov	r0, r6
 392 006e F117     		asrs	r1, r6, #31
 393 0070 4FEAE37B 		asr	fp, r3, #31
 394 0074 06FB0BF4 		mul	r4, r6, fp
 395 0078 CDE91201 		strd	r0, [sp, #72]
 396 007c 03FB0144 		mla	r4, r3, r1, r4
 397 0080 A6FB0301 		umull	r0, r1, r6, r3
ARM GAS  C:\Users\IVYLIU~1\AppData\Local\Temp\ccOcgDxX.s 			page 15


 398 0084 2144     		add	r1, r1, r4
 399 0086 DDE90045 		ldrd	r4, [sp]
 400 008a 2418     		adds	r4, r4, r0
 401 008c 4D41     		adcs	r5, r5, r1
 402 008e 2046     		mov	r0, r4
 403 0090 10F10040 		adds	r0, r0, #-2147483648
 404 0094 45F10001 		adc	r1, r5, #0
 405              	.LVL55:
 399:.\DSP\Source\TransformFunctions/arm_rfft_q31.c **** 
 400:.\DSP\Source\TransformFunctions/arm_rfft_q31.c ****      /* pIn[2 * i + 1] * pATable[2 * i] */
 401:.\DSP\Source\TransformFunctions/arm_rfft_q31.c ****      multAcc_32x32_keep32_R (outI, *pIn1++, CoefA1);
 406              		.loc 1 401 0
 407 0098 CDF81490 		str	r9, [sp, #20]
 408 009c DDE90089 		ldrd	r8, [sp]
 409 00a0 CDF81080 		str	r8, [sp, #16]
 410 00a4 07F10804 		add	r4, r7, #8
 411 00a8 0F94     		str	r4, [sp, #60]
 412              	.LVL56:
 413 00aa 139C     		ldr	r4, [sp, #76]
 414              	.LVL57:
 415 00ac 02FB04F4 		mul	r4, r2, r4
 416 00b0 2046     		mov	r0, r4
 417 00b2 119C     		ldr	r4, [sp, #68]
 418 00b4 06FB0400 		mla	r0, r6, r4, r0
 419 00b8 A2FB0667 		umull	r6, r7, r2, r6
 420 00bc 0744     		add	r7, r7, r0
 421 00be DDE90445 		ldrd	r4, [sp, #16]
 422 00c2 A419     		adds	r4, r4, r6
 423 00c4 7D41     		adcs	r5, r5, r7
 424 00c6 2646     		mov	r6, r4
 425 00c8 16F10046 		adds	r6, r6, #-2147483648
 426 00cc 45F10007 		adc	r7, r5, #0
 427              	.LVL58:
 402:.\DSP\Source\TransformFunctions/arm_rfft_q31.c **** 
 403:.\DSP\Source\TransformFunctions/arm_rfft_q31.c ****      /* pIn[2 * n - 2 * i] * pBTable[2 * i] */
 404:.\DSP\Source\TransformFunctions/arm_rfft_q31.c ****      multAcc_32x32_keep32_R (outR, *pIn2, CoefA2);
 428              		.loc 1 404 0
 429 00d0 0791     		str	r1, [sp, #28]
 430 00d2 CDF81880 		str	r8, [sp, #24]
 431 00d6 DCF80020 		ldr	r2, [ip]
 432              	.LVL59:
 433 00da D517     		asrs	r5, r2, #31
 434 00dc 03FB05F1 		mul	r1, r3, r5
 435              	.LVL60:
 436 00e0 02FB0B11 		mla	r1, r2, fp, r1
 437 00e4 A3FB0289 		umull	r8, r9, r3, r2
 438 00e8 8944     		add	r9, r9, r1
 439 00ea DDE90601 		ldrd	r0, [sp, #24]
 440 00ee 10EB0800 		adds	r0, r0, r8
 441 00f2 41EB0901 		adc	r1, r1, r9
 442 00f6 10F10040 		adds	r0, r0, #-2147483648
 443 00fa 41F10001 		adc	r1, r1, #0
 444 00fe CDE91001 		strd	r0, [sp, #64]
 445              	.LVL61:
 405:.\DSP\Source\TransformFunctions/arm_rfft_q31.c ****      CoefB1 = *pCoefB;
 446              		.loc 1 405 0
 447 0102 0E99     		ldr	r1, [sp, #56]
ARM GAS  C:\Users\IVYLIU~1\AppData\Local\Temp\ccOcgDxX.s 			page 16


 448 0104 0868     		ldr	r0, [r1]
 449              	.LVL62:
 406:.\DSP\Source\TransformFunctions/arm_rfft_q31.c **** 
 407:.\DSP\Source\TransformFunctions/arm_rfft_q31.c ****      /* pIn[2 * n - 2 * i] * pBTable[2 * i + 1] */
 408:.\DSP\Source\TransformFunctions/arm_rfft_q31.c ****      multSub_32x32_keep32_R (outI, *pIn2--, CoefB1);
 450              		.loc 1 408 0
 451 0106 0997     		str	r7, [sp, #36]
 452 0108 009E     		ldr	r6, [sp]
 453 010a 0896     		str	r6, [sp, #32]
 454              	.LVL63:
 455 010c 4FEAE079 		asr	r9, r0, #31
 456 0110 02FB09F1 		mul	r1, r2, r9
 457 0114 00FB0511 		mla	r1, r0, r5, r1
 458 0118 A2FB0045 		umull	r4, r5, r2, r0
 459 011c 0D44     		add	r5, r5, r1
 460 011e DDE90867 		ldrd	r6, [sp, #32]
 461 0122 361B     		subs	r6, r6, r4
 462 0124 67EB0507 		sbc	r7, r7, r5
 463              	.LVL64:
 464 0128 3446     		mov	r4, r6
 465 012a 14F10044 		adds	r4, r4, #-2147483648
 466 012e 47F10005 		adc	r5, r7, #0
 467              	.LVL65:
 409:.\DSP\Source\TransformFunctions/arm_rfft_q31.c **** 
 410:.\DSP\Source\TransformFunctions/arm_rfft_q31.c ****      /* pIn[2 * n - 2 * i + 1] * pBTable[2 * i + 1] */
 411:.\DSP\Source\TransformFunctions/arm_rfft_q31.c ****      multAcc_32x32_keep32_R (outR, *pIn2, CoefB1);
 468              		.loc 1 411 0
 469 0132 119A     		ldr	r2, [sp, #68]
 470 0134 0B92     		str	r2, [sp, #44]
 471 0136 009A     		ldr	r2, [sp]
 472 0138 0A92     		str	r2, [sp, #40]
 473 013a 5CF8042C 		ldr	r2, [ip, #-4]
 474 013e D717     		asrs	r7, r2, #31
 475 0140 00FB07F4 		mul	r4, r0, r7
 476 0144 02FB0944 		mla	r4, r2, r9, r4
 477 0148 A0FB0201 		umull	r0, r1, r0, r2
 478              	.LVL66:
 479 014c 2144     		add	r1, r1, r4
 480 014e DDE90A89 		ldrd	r8, [sp, #40]
 481 0152 18EB0008 		adds	r8, r8, r0
 482 0156 49EB0109 		adc	r9, r9, r1
 483 015a 4046     		mov	r0, r8
 484 015c 10F10040 		adds	r0, r0, #-2147483648
 485 0160 49F10001 		adc	r1, r9, #0
 486              	.LVL67:
 412:.\DSP\Source\TransformFunctions/arm_rfft_q31.c **** 
 413:.\DSP\Source\TransformFunctions/arm_rfft_q31.c ****      /* pIn[2 * n - 2 * i + 1] * pBTable[2 * i] */
 414:.\DSP\Source\TransformFunctions/arm_rfft_q31.c ****      multAcc_32x32_keep32_R (outI, *pIn2--, CoefA2);
 487              		.loc 1 414 0
 488 0164 0D95     		str	r5, [sp, #52]
 489 0166 009C     		ldr	r4, [sp]
 490 0168 0C94     		str	r4, [sp, #48]
 491 016a ACF1080C 		sub	ip, ip, #8
 492              	.LVL68:
 493 016e 03FB07F0 		mul	r0, r3, r7
 494 0172 02FB0B00 		mla	r0, r2, fp, r0
 495 0176 A3FB0223 		umull	r2, r3, r3, r2
ARM GAS  C:\Users\IVYLIU~1\AppData\Local\Temp\ccOcgDxX.s 			page 17


 496 017a 0344     		add	r3, r3, r0
 497              	.LVL69:
 498 017c DDE90C45 		ldrd	r4, [sp, #48]
 499 0180 A418     		adds	r4, r4, r2
 500 0182 5D41     		adcs	r5, r5, r3
 501              	.LVL70:
 502 0184 2246     		mov	r2, r4
 503 0186 12F10042 		adds	r2, r2, #-2147483648
 504 018a 45F10003 		adc	r3, r5, #0
 505              	.LVL71:
 415:.\DSP\Source\TransformFunctions/arm_rfft_q31.c **** 
 416:.\DSP\Source\TransformFunctions/arm_rfft_q31.c ****      /* write output */
 417:.\DSP\Source\TransformFunctions/arm_rfft_q31.c ****      *pDst++ = outR;
 506              		.loc 1 417 0
 507 018e 1E9A     		ldr	r2, [sp, #120]
 508 0190 42F8081B 		str	r1, [r2], #8
 509              	.LVL72:
 418:.\DSP\Source\TransformFunctions/arm_rfft_q31.c ****      *pDst++ = outI;
 510              		.loc 1 418 0
 511 0194 1E98     		ldr	r0, [sp, #120]
 512 0196 4360     		str	r3, [r0, #4]
 419:.\DSP\Source\TransformFunctions/arm_rfft_q31.c **** 
 420:.\DSP\Source\TransformFunctions/arm_rfft_q31.c ****      /* update coefficient pointer */
 421:.\DSP\Source\TransformFunctions/arm_rfft_q31.c ****      pCoefB = pCoefB + (modifier * 2);
 513              		.loc 1 421 0
 514 0198 1F9B     		ldr	r3, [sp, #124]
 515              	.LVL73:
 516 019a DB00     		lsls	r3, r3, #3
 517 019c 0E99     		ldr	r1, [sp, #56]
 518              	.LVL74:
 519 019e 1944     		add	r1, r1, r3
 520 01a0 0E91     		str	r1, [sp, #56]
 521              	.LVL75:
 422:.\DSP\Source\TransformFunctions/arm_rfft_q31.c ****      pCoefA = pCoefA + (modifier * 2 - 1);
 522              		.loc 1 422 0
 523 01a2 9E44     		add	lr, lr, r3
 524              	.LVL76:
 423:.\DSP\Source\TransformFunctions/arm_rfft_q31.c **** 
 424:.\DSP\Source\TransformFunctions/arm_rfft_q31.c ****      /* Decrement loop count */
 425:.\DSP\Source\TransformFunctions/arm_rfft_q31.c ****      fftLen--;
 525              		.loc 1 425 0
 526 01a4 039B     		ldr	r3, [sp, #12]
 527 01a6 013B     		subs	r3, r3, #1
 528 01a8 0393     		str	r3, [sp, #12]
 529              	.LVL77:
 418:.\DSP\Source\TransformFunctions/arm_rfft_q31.c **** 
 530              		.loc 1 418 0
 531 01aa 1E92     		str	r2, [sp, #120]
 532              	.LVL78:
 533              	.L6:
 374:.\DSP\Source\TransformFunctions/arm_rfft_q31.c ****   {
 534              		.loc 1 374 0
 535 01ac 039B     		ldr	r3, [sp, #12]
 536 01ae 002B     		cmp	r3, #0
 537 01b0 7FF432AF 		bne	.L7
 426:.\DSP\Source\TransformFunctions/arm_rfft_q31.c ****   }
 427:.\DSP\Source\TransformFunctions/arm_rfft_q31.c **** 
ARM GAS  C:\Users\IVYLIU~1\AppData\Local\Temp\ccOcgDxX.s 			page 18


 428:.\DSP\Source\TransformFunctions/arm_rfft_q31.c **** }
 538              		.loc 1 428 0
 539 01b4 15B0     		add	sp, sp, #84
 540              		.cfi_def_cfa_offset 36
 541              		@ sp needed
 542 01b6 BDE8F08F 		pop	{r4, r5, r6, r7, r8, r9, r10, fp, pc}
 543              		.cfi_endproc
 544              	.LFE86:
 545              		.size	arm_split_rifft_q31, .-arm_split_rifft_q31
 546 01ba 00BF     		.section	.text.arm_rfft_q31,"ax",%progbits
 547              		.align	2
 548              		.global	arm_rfft_q31
 549              		.thumb
 550              		.thumb_func
 551              		.type	arm_rfft_q31, %function
 552              	arm_rfft_q31:
 553              	.LFB84:
  87:.\DSP\Source\TransformFunctions/arm_rfft_q31.c **** #if defined(ARM_MATH_MVEI) && !defined(ARM_MATH_AUTOVECTORIZE)
 554              		.loc 1 87 0
 555              		.cfi_startproc
 556              		@ args = 0, pretend = 0, frame = 0
 557              		@ frame_needed = 0, uses_anonymous_args = 0
 558              	.LVL79:
 559 0000 2DE9F041 		push	{r4, r5, r6, r7, r8, lr}
 560              		.cfi_def_cfa_offset 24
 561              		.cfi_offset 4, -24
 562              		.cfi_offset 5, -20
 563              		.cfi_offset 6, -16
 564              		.cfi_offset 7, -12
 565              		.cfi_offset 8, -8
 566              		.cfi_offset 14, -4
 567 0004 82B0     		sub	sp, sp, #8
 568              		.cfi_def_cfa_offset 32
 569 0006 0446     		mov	r4, r0
 570 0008 0E46     		mov	r6, r1
 571 000a 1746     		mov	r7, r2
  91:.\DSP\Source\TransformFunctions/arm_rfft_q31.c **** #endif
 572              		.loc 1 91 0
 573 000c D0F81480 		ldr	r8, [r0, #20]
 574              	.LVL80:
  93:.\DSP\Source\TransformFunctions/arm_rfft_q31.c **** 
 575              		.loc 1 93 0
 576 0010 0168     		ldr	r1, [r0]
 577              	.LVL81:
 578 0012 4D08     		lsrs	r5, r1, #1
 579              	.LVL82:
  96:.\DSP\Source\TransformFunctions/arm_rfft_q31.c ****   {
 580              		.loc 1 96 0
 581 0014 0279     		ldrb	r2, [r0, #4]	@ zero_extendqisi2
 582              	.LVL83:
 583 0016 012A     		cmp	r2, #1
 584 0018 15D1     		bne	.L10
  99:.\DSP\Source\TransformFunctions/arm_rfft_q31.c **** 
 585              		.loc 1 99 0
 586 001a 0097     		str	r7, [sp]
 587 001c 8368     		ldr	r3, [r0, #8]
 588 001e 0193     		str	r3, [sp, #4]
ARM GAS  C:\Users\IVYLIU~1\AppData\Local\Temp\ccOcgDxX.s 			page 19


 589 0020 3046     		mov	r0, r6
 590              	.LVL84:
 591 0022 2946     		mov	r1, r5
 592 0024 E268     		ldr	r2, [r4, #12]
 593 0026 2369     		ldr	r3, [r4, #16]
 594 0028 FFF7FEFF 		bl	arm_split_rifft_q31
 595              	.LVL85:
 102:.\DSP\Source\TransformFunctions/arm_rfft_q31.c **** 
 596              		.loc 1 102 0
 597 002c 4046     		mov	r0, r8
 598 002e 3946     		mov	r1, r7
 599 0030 2279     		ldrb	r2, [r4, #4]	@ zero_extendqisi2
 600 0032 6379     		ldrb	r3, [r4, #5]	@ zero_extendqisi2
 601 0034 FFF7FEFF 		bl	arm_cfft_q31
 602              	.LVL86:
 104:.\DSP\Source\TransformFunctions/arm_rfft_q31.c ****   }
 603              		.loc 1 104 0
 604 0038 3846     		mov	r0, r7
 605 003a 0121     		movs	r1, #1
 606 003c 3A46     		mov	r2, r7
 607 003e 2368     		ldr	r3, [r4]
 608 0040 FFF7FEFF 		bl	arm_shift_q31
 609              	.LVL87:
 610 0044 0DE0     		b	.L9
 611              	.LVL88:
 612              	.L10:
 111:.\DSP\Source\TransformFunctions/arm_rfft_q31.c **** 
 613              		.loc 1 111 0
 614 0046 4046     		mov	r0, r8
 615              	.LVL89:
 616 0048 3146     		mov	r1, r6
 617 004a 6379     		ldrb	r3, [r4, #5]	@ zero_extendqisi2
 618 004c FFF7FEFF 		bl	arm_cfft_q31
 619              	.LVL90:
 114:.\DSP\Source\TransformFunctions/arm_rfft_q31.c ****   }
 620              		.loc 1 114 0
 621 0050 E268     		ldr	r2, [r4, #12]
 622 0052 2369     		ldr	r3, [r4, #16]
 623 0054 0097     		str	r7, [sp]
 624 0056 A168     		ldr	r1, [r4, #8]
 625 0058 0191     		str	r1, [sp, #4]
 626 005a 3046     		mov	r0, r6
 627 005c 2946     		mov	r1, r5
 628 005e FFF7FEFF 		bl	arm_split_rfft_q31
 629              	.LVL91:
 630              	.L9:
 117:.\DSP\Source\TransformFunctions/arm_rfft_q31.c **** 
 631              		.loc 1 117 0
 632 0062 02B0     		add	sp, sp, #8
 633              		.cfi_def_cfa_offset 24
 634              		@ sp needed
 635 0064 BDE8F081 		pop	{r4, r5, r6, r7, r8, pc}
 636              		.cfi_endproc
 637              	.LFE84:
 638              		.size	arm_rfft_q31, .-arm_rfft_q31
 639              		.text
 640              	.Letext0:
ARM GAS  C:\Users\IVYLIU~1\AppData\Local\Temp\ccOcgDxX.s 			page 20


 641              		.file 2 "c:\\program files (x86)\\cypress\\psoc creator\\3.3\\psoc creator\\import\\gnu\\arm\\4.9.
 642              		.file 3 "c:\\program files (x86)\\cypress\\psoc creator\\3.3\\psoc creator\\import\\gnu\\arm\\4.9.
 643              		.file 4 ".\\DSP\\Include/arm_math_types.h"
 644              		.file 5 ".\\DSP\\Include/dsp/transform_functions.h"
 645              		.file 6 ".\\Core\\Include/cmsis_gcc.h"
 646              		.file 7 ".\\DSP\\Include/dsp/basic_math_functions.h"