ARM GAS  C:\Users\IVYLIU~1\AppData\Local\Temp\ccgXWaBA.s 			page 1


   1              		.syntax unified
   2              		.cpu cortex-m3
   3              		.fpu softvfp
   4              		.eabi_attribute 20, 1
   5              		.eabi_attribute 21, 1
   6              		.eabi_attribute 23, 3
   7              		.eabi_attribute 24, 1
   8              		.eabi_attribute 25, 1
   9              		.eabi_attribute 26, 1
  10              		.eabi_attribute 30, 1
  11              		.eabi_attribute 34, 1
  12              		.eabi_attribute 18, 4
  13              		.thumb
  14              		.file	"arm_cfft_q15.c"
  15              		.text
  16              	.Ltext0:
  17              		.cfi_sections	.debug_frame
  18              		.section	.text.arm_cfft_radix4by2_q15,"ax",%progbits
  19              		.align	2
  20              		.global	arm_cfft_radix4by2_q15
  21              		.thumb
  22              		.thumb_func
  23              		.type	arm_cfft_radix4by2_q15, %function
  24              	arm_cfft_radix4by2_q15:
  25              	.LFB85:
  26              		.file 1 ".\\DSP\\Source\\TransformFunctions\\arm_cfft_q15.c"
   1:.\DSP\Source\TransformFunctions/arm_cfft_q15.c **** /* ----------------------------------------------------------------------
   2:.\DSP\Source\TransformFunctions/arm_cfft_q15.c ****  * Project:      CMSIS DSP Library
   3:.\DSP\Source\TransformFunctions/arm_cfft_q15.c ****  * Title:        arm_cfft_q15.c
   4:.\DSP\Source\TransformFunctions/arm_cfft_q15.c ****  * Description:  Combined Radix Decimation in Q15 Frequency CFFT processing function
   5:.\DSP\Source\TransformFunctions/arm_cfft_q15.c ****  *
   6:.\DSP\Source\TransformFunctions/arm_cfft_q15.c ****  * $Date:        23 April 2021
   7:.\DSP\Source\TransformFunctions/arm_cfft_q15.c ****  * $Revision:    V1.9.0
   8:.\DSP\Source\TransformFunctions/arm_cfft_q15.c ****  *
   9:.\DSP\Source\TransformFunctions/arm_cfft_q15.c ****  * Target Processor: Cortex-M and Cortex-A cores
  10:.\DSP\Source\TransformFunctions/arm_cfft_q15.c ****  * -------------------------------------------------------------------- */
  11:.\DSP\Source\TransformFunctions/arm_cfft_q15.c **** /*
  12:.\DSP\Source\TransformFunctions/arm_cfft_q15.c ****  * Copyright (C) 2010-2021 ARM Limited or its affiliates. All rights reserved.
  13:.\DSP\Source\TransformFunctions/arm_cfft_q15.c ****  *
  14:.\DSP\Source\TransformFunctions/arm_cfft_q15.c ****  * SPDX-License-Identifier: Apache-2.0
  15:.\DSP\Source\TransformFunctions/arm_cfft_q15.c ****  *
  16:.\DSP\Source\TransformFunctions/arm_cfft_q15.c ****  * Licensed under the Apache License, Version 2.0 (the License); you may
  17:.\DSP\Source\TransformFunctions/arm_cfft_q15.c ****  * not use this file except in compliance with the License.
  18:.\DSP\Source\TransformFunctions/arm_cfft_q15.c ****  * You may obtain a copy of the License at
  19:.\DSP\Source\TransformFunctions/arm_cfft_q15.c ****  *
  20:.\DSP\Source\TransformFunctions/arm_cfft_q15.c ****  * www.apache.org/licenses/LICENSE-2.0
  21:.\DSP\Source\TransformFunctions/arm_cfft_q15.c ****  *
  22:.\DSP\Source\TransformFunctions/arm_cfft_q15.c ****  * Unless required by applicable law or agreed to in writing, software
  23:.\DSP\Source\TransformFunctions/arm_cfft_q15.c ****  * distributed under the License is distributed on an AS IS BASIS, WITHOUT
  24:.\DSP\Source\TransformFunctions/arm_cfft_q15.c ****  * WARRANTIES OR CONDITIONS OF ANY KIND, either express or implied.
  25:.\DSP\Source\TransformFunctions/arm_cfft_q15.c ****  * See the License for the specific language governing permissions and
  26:.\DSP\Source\TransformFunctions/arm_cfft_q15.c ****  * limitations under the License.
  27:.\DSP\Source\TransformFunctions/arm_cfft_q15.c ****  */
  28:.\DSP\Source\TransformFunctions/arm_cfft_q15.c **** 
  29:.\DSP\Source\TransformFunctions/arm_cfft_q15.c **** #include "dsp/transform_functions.h"
  30:.\DSP\Source\TransformFunctions/arm_cfft_q15.c **** 
  31:.\DSP\Source\TransformFunctions/arm_cfft_q15.c **** #if defined(ARM_MATH_MVEI) && !defined(ARM_MATH_AUTOVECTORIZE)
ARM GAS  C:\Users\IVYLIU~1\AppData\Local\Temp\ccgXWaBA.s 			page 2


  32:.\DSP\Source\TransformFunctions/arm_cfft_q15.c **** 
  33:.\DSP\Source\TransformFunctions/arm_cfft_q15.c **** #include "arm_vec_fft.h"
  34:.\DSP\Source\TransformFunctions/arm_cfft_q15.c **** 
  35:.\DSP\Source\TransformFunctions/arm_cfft_q15.c **** 
  36:.\DSP\Source\TransformFunctions/arm_cfft_q15.c **** static void _arm_radix4_butterfly_q15_mve(
  37:.\DSP\Source\TransformFunctions/arm_cfft_q15.c ****     const arm_cfft_instance_q15 * S,
  38:.\DSP\Source\TransformFunctions/arm_cfft_q15.c ****     q15_t   *pSrc,
  39:.\DSP\Source\TransformFunctions/arm_cfft_q15.c ****     uint32_t fftLen)
  40:.\DSP\Source\TransformFunctions/arm_cfft_q15.c **** {
  41:.\DSP\Source\TransformFunctions/arm_cfft_q15.c ****     q15x8_t vecTmp0, vecTmp1;
  42:.\DSP\Source\TransformFunctions/arm_cfft_q15.c ****     q15x8_t vecSum0, vecDiff0, vecSum1, vecDiff1;
  43:.\DSP\Source\TransformFunctions/arm_cfft_q15.c ****     q15x8_t vecA, vecB, vecC, vecD;
  44:.\DSP\Source\TransformFunctions/arm_cfft_q15.c ****     uint32_t  blkCnt;
  45:.\DSP\Source\TransformFunctions/arm_cfft_q15.c ****     uint32_t  n1, n2;
  46:.\DSP\Source\TransformFunctions/arm_cfft_q15.c ****     uint32_t  stage = 0;
  47:.\DSP\Source\TransformFunctions/arm_cfft_q15.c ****     int32_t  iter = 1;
  48:.\DSP\Source\TransformFunctions/arm_cfft_q15.c ****     static const int32_t strides[4] = {
  49:.\DSP\Source\TransformFunctions/arm_cfft_q15.c ****         (0 - 16) * (int32_t)sizeof(q15_t *), (4 - 16) * (int32_t)sizeof(q15_t *),
  50:.\DSP\Source\TransformFunctions/arm_cfft_q15.c ****         (8 - 16) * (int32_t)sizeof(q15_t *), (12 - 16) * (int32_t)sizeof(q15_t *)
  51:.\DSP\Source\TransformFunctions/arm_cfft_q15.c ****     };
  52:.\DSP\Source\TransformFunctions/arm_cfft_q15.c **** 
  53:.\DSP\Source\TransformFunctions/arm_cfft_q15.c ****     /*
  54:.\DSP\Source\TransformFunctions/arm_cfft_q15.c ****      * Process first stages
  55:.\DSP\Source\TransformFunctions/arm_cfft_q15.c ****      * Each stage in middle stages provides two down scaling of the input
  56:.\DSP\Source\TransformFunctions/arm_cfft_q15.c ****      */
  57:.\DSP\Source\TransformFunctions/arm_cfft_q15.c ****     n2 = fftLen;
  58:.\DSP\Source\TransformFunctions/arm_cfft_q15.c ****     n1 = n2;
  59:.\DSP\Source\TransformFunctions/arm_cfft_q15.c ****     n2 >>= 2u;
  60:.\DSP\Source\TransformFunctions/arm_cfft_q15.c **** 
  61:.\DSP\Source\TransformFunctions/arm_cfft_q15.c ****     for (int k = fftLen / 4u; k > 1; k >>= 2u)
  62:.\DSP\Source\TransformFunctions/arm_cfft_q15.c ****     {
  63:.\DSP\Source\TransformFunctions/arm_cfft_q15.c ****         q15_t const *p_rearranged_twiddle_tab_stride2 =
  64:.\DSP\Source\TransformFunctions/arm_cfft_q15.c ****             &S->rearranged_twiddle_stride2[
  65:.\DSP\Source\TransformFunctions/arm_cfft_q15.c ****             S->rearranged_twiddle_tab_stride2_arr[stage]];
  66:.\DSP\Source\TransformFunctions/arm_cfft_q15.c ****         q15_t const *p_rearranged_twiddle_tab_stride3 = &S->rearranged_twiddle_stride3[
  67:.\DSP\Source\TransformFunctions/arm_cfft_q15.c ****             S->rearranged_twiddle_tab_stride3_arr[stage]];
  68:.\DSP\Source\TransformFunctions/arm_cfft_q15.c ****         q15_t const *p_rearranged_twiddle_tab_stride1 =
  69:.\DSP\Source\TransformFunctions/arm_cfft_q15.c ****             &S->rearranged_twiddle_stride1[
  70:.\DSP\Source\TransformFunctions/arm_cfft_q15.c ****             S->rearranged_twiddle_tab_stride1_arr[stage]];
  71:.\DSP\Source\TransformFunctions/arm_cfft_q15.c **** 
  72:.\DSP\Source\TransformFunctions/arm_cfft_q15.c ****         q15_t * pBase = pSrc;
  73:.\DSP\Source\TransformFunctions/arm_cfft_q15.c ****         for (int i = 0; i < iter; i++)
  74:.\DSP\Source\TransformFunctions/arm_cfft_q15.c ****         {
  75:.\DSP\Source\TransformFunctions/arm_cfft_q15.c ****             q15_t    *inA = pBase;
  76:.\DSP\Source\TransformFunctions/arm_cfft_q15.c ****             q15_t    *inB = inA + n2 * CMPLX_DIM;
  77:.\DSP\Source\TransformFunctions/arm_cfft_q15.c ****             q15_t    *inC = inB + n2 * CMPLX_DIM;
  78:.\DSP\Source\TransformFunctions/arm_cfft_q15.c ****             q15_t    *inD = inC + n2 * CMPLX_DIM;
  79:.\DSP\Source\TransformFunctions/arm_cfft_q15.c ****             q15_t const *pW1 = p_rearranged_twiddle_tab_stride1;
  80:.\DSP\Source\TransformFunctions/arm_cfft_q15.c ****             q15_t const *pW2 = p_rearranged_twiddle_tab_stride2;
  81:.\DSP\Source\TransformFunctions/arm_cfft_q15.c ****             q15_t const *pW3 = p_rearranged_twiddle_tab_stride3;
  82:.\DSP\Source\TransformFunctions/arm_cfft_q15.c ****             q15x8_t    vecW;
  83:.\DSP\Source\TransformFunctions/arm_cfft_q15.c **** 
  84:.\DSP\Source\TransformFunctions/arm_cfft_q15.c ****             blkCnt = n2 / 4;
  85:.\DSP\Source\TransformFunctions/arm_cfft_q15.c ****             /*
  86:.\DSP\Source\TransformFunctions/arm_cfft_q15.c ****              * load 4 x q15 complex pair
  87:.\DSP\Source\TransformFunctions/arm_cfft_q15.c ****              */
  88:.\DSP\Source\TransformFunctions/arm_cfft_q15.c ****             vecA = vldrhq_s16(inA);
ARM GAS  C:\Users\IVYLIU~1\AppData\Local\Temp\ccgXWaBA.s 			page 3


  89:.\DSP\Source\TransformFunctions/arm_cfft_q15.c ****             vecC = vldrhq_s16(inC);
  90:.\DSP\Source\TransformFunctions/arm_cfft_q15.c ****             while (blkCnt > 0U)
  91:.\DSP\Source\TransformFunctions/arm_cfft_q15.c ****             {
  92:.\DSP\Source\TransformFunctions/arm_cfft_q15.c ****                 vecB = vldrhq_s16(inB);
  93:.\DSP\Source\TransformFunctions/arm_cfft_q15.c ****                 vecD = vldrhq_s16(inD);
  94:.\DSP\Source\TransformFunctions/arm_cfft_q15.c **** 
  95:.\DSP\Source\TransformFunctions/arm_cfft_q15.c ****                 vecSum0 = vhaddq(vecA, vecC);
  96:.\DSP\Source\TransformFunctions/arm_cfft_q15.c ****                 vecDiff0 = vhsubq(vecA, vecC);
  97:.\DSP\Source\TransformFunctions/arm_cfft_q15.c **** 
  98:.\DSP\Source\TransformFunctions/arm_cfft_q15.c ****                 vecSum1 = vhaddq(vecB, vecD);
  99:.\DSP\Source\TransformFunctions/arm_cfft_q15.c ****                 vecDiff1 = vhsubq(vecB, vecD);
 100:.\DSP\Source\TransformFunctions/arm_cfft_q15.c ****                 /*
 101:.\DSP\Source\TransformFunctions/arm_cfft_q15.c ****                  * [ 1 1 1 1 ] * [ A B C D ]' .* 1
 102:.\DSP\Source\TransformFunctions/arm_cfft_q15.c ****                  */
 103:.\DSP\Source\TransformFunctions/arm_cfft_q15.c ****                 vecTmp0 = vhaddq(vecSum0, vecSum1);
 104:.\DSP\Source\TransformFunctions/arm_cfft_q15.c ****                 vst1q(inA, vecTmp0);
 105:.\DSP\Source\TransformFunctions/arm_cfft_q15.c ****                 inA += 8;
 106:.\DSP\Source\TransformFunctions/arm_cfft_q15.c ****                 /*
 107:.\DSP\Source\TransformFunctions/arm_cfft_q15.c ****                  * [ 1 -1 1 -1 ] * [ A B C D ]'
 108:.\DSP\Source\TransformFunctions/arm_cfft_q15.c ****                  */
 109:.\DSP\Source\TransformFunctions/arm_cfft_q15.c ****                 vecTmp0 = vhsubq(vecSum0, vecSum1);
 110:.\DSP\Source\TransformFunctions/arm_cfft_q15.c ****                 /*
 111:.\DSP\Source\TransformFunctions/arm_cfft_q15.c ****                  * [ 1 -1 1 -1 ] * [ A B C D ]'.* W2
 112:.\DSP\Source\TransformFunctions/arm_cfft_q15.c ****                  */
 113:.\DSP\Source\TransformFunctions/arm_cfft_q15.c ****                 vecW = vld1q(pW2);
 114:.\DSP\Source\TransformFunctions/arm_cfft_q15.c ****                 pW2 += 8;
 115:.\DSP\Source\TransformFunctions/arm_cfft_q15.c ****                 vecTmp1 = MVE_CMPLX_MULT_FX_AxB(vecW, vecTmp0, q15x8_t);
 116:.\DSP\Source\TransformFunctions/arm_cfft_q15.c **** 
 117:.\DSP\Source\TransformFunctions/arm_cfft_q15.c ****                 vst1q(inB, vecTmp1);
 118:.\DSP\Source\TransformFunctions/arm_cfft_q15.c ****                 inB += 8;
 119:.\DSP\Source\TransformFunctions/arm_cfft_q15.c ****                 /*
 120:.\DSP\Source\TransformFunctions/arm_cfft_q15.c ****                  * [ 1 -i -1 +i ] * [ A B C D ]'
 121:.\DSP\Source\TransformFunctions/arm_cfft_q15.c ****                  */
 122:.\DSP\Source\TransformFunctions/arm_cfft_q15.c ****                 vecTmp0 = MVE_CMPLX_SUB_FX_A_ixB(vecDiff0, vecDiff1);
 123:.\DSP\Source\TransformFunctions/arm_cfft_q15.c ****                 /*
 124:.\DSP\Source\TransformFunctions/arm_cfft_q15.c ****                  * [ 1 -i -1 +i ] * [ A B C D ]'.* W1
 125:.\DSP\Source\TransformFunctions/arm_cfft_q15.c ****                  */
 126:.\DSP\Source\TransformFunctions/arm_cfft_q15.c ****                 vecW = vld1q(pW1);
 127:.\DSP\Source\TransformFunctions/arm_cfft_q15.c ****                 pW1 += 8;
 128:.\DSP\Source\TransformFunctions/arm_cfft_q15.c ****                 vecTmp1 = MVE_CMPLX_MULT_FX_AxB(vecW, vecTmp0, q15x8_t);
 129:.\DSP\Source\TransformFunctions/arm_cfft_q15.c ****                 vst1q(inC, vecTmp1);
 130:.\DSP\Source\TransformFunctions/arm_cfft_q15.c ****                 inC += 8;
 131:.\DSP\Source\TransformFunctions/arm_cfft_q15.c **** 
 132:.\DSP\Source\TransformFunctions/arm_cfft_q15.c ****                 /*
 133:.\DSP\Source\TransformFunctions/arm_cfft_q15.c ****                  * [ 1 +i -1 -i ] * [ A B C D ]'
 134:.\DSP\Source\TransformFunctions/arm_cfft_q15.c ****                  */
 135:.\DSP\Source\TransformFunctions/arm_cfft_q15.c ****                 vecTmp0 = MVE_CMPLX_ADD_FX_A_ixB(vecDiff0, vecDiff1);
 136:.\DSP\Source\TransformFunctions/arm_cfft_q15.c ****                 /*
 137:.\DSP\Source\TransformFunctions/arm_cfft_q15.c ****                  * [ 1 +i -1 -i ] * [ A B C D ]'.* W3
 138:.\DSP\Source\TransformFunctions/arm_cfft_q15.c ****                  */
 139:.\DSP\Source\TransformFunctions/arm_cfft_q15.c ****                 vecW = vld1q(pW3);
 140:.\DSP\Source\TransformFunctions/arm_cfft_q15.c ****                 pW3 += 8;
 141:.\DSP\Source\TransformFunctions/arm_cfft_q15.c ****                 vecTmp1 = MVE_CMPLX_MULT_FX_AxB(vecW, vecTmp0, q15x8_t);
 142:.\DSP\Source\TransformFunctions/arm_cfft_q15.c ****                 vst1q(inD, vecTmp1);
 143:.\DSP\Source\TransformFunctions/arm_cfft_q15.c ****                 inD += 8;
 144:.\DSP\Source\TransformFunctions/arm_cfft_q15.c **** 
 145:.\DSP\Source\TransformFunctions/arm_cfft_q15.c ****                 vecA = vldrhq_s16(inA);
ARM GAS  C:\Users\IVYLIU~1\AppData\Local\Temp\ccgXWaBA.s 			page 4


 146:.\DSP\Source\TransformFunctions/arm_cfft_q15.c ****                 vecC = vldrhq_s16(inC);
 147:.\DSP\Source\TransformFunctions/arm_cfft_q15.c **** 
 148:.\DSP\Source\TransformFunctions/arm_cfft_q15.c ****                 blkCnt--;
 149:.\DSP\Source\TransformFunctions/arm_cfft_q15.c ****             }
 150:.\DSP\Source\TransformFunctions/arm_cfft_q15.c ****             pBase +=  CMPLX_DIM * n1;
 151:.\DSP\Source\TransformFunctions/arm_cfft_q15.c ****         }
 152:.\DSP\Source\TransformFunctions/arm_cfft_q15.c ****         n1 = n2;
 153:.\DSP\Source\TransformFunctions/arm_cfft_q15.c ****         n2 >>= 2u;
 154:.\DSP\Source\TransformFunctions/arm_cfft_q15.c ****         iter = iter << 2;
 155:.\DSP\Source\TransformFunctions/arm_cfft_q15.c ****         stage++;
 156:.\DSP\Source\TransformFunctions/arm_cfft_q15.c ****     }
 157:.\DSP\Source\TransformFunctions/arm_cfft_q15.c **** 
 158:.\DSP\Source\TransformFunctions/arm_cfft_q15.c ****     /*
 159:.\DSP\Source\TransformFunctions/arm_cfft_q15.c ****      * start of Last stage process
 160:.\DSP\Source\TransformFunctions/arm_cfft_q15.c ****      */
 161:.\DSP\Source\TransformFunctions/arm_cfft_q15.c ****     uint32x4_t vecScGathAddr = vld1q_u32 ((uint32_t*)strides);
 162:.\DSP\Source\TransformFunctions/arm_cfft_q15.c ****     vecScGathAddr = vecScGathAddr + (uint32_t) pSrc;
 163:.\DSP\Source\TransformFunctions/arm_cfft_q15.c **** 
 164:.\DSP\Source\TransformFunctions/arm_cfft_q15.c ****     /*
 165:.\DSP\Source\TransformFunctions/arm_cfft_q15.c ****      * load scheduling
 166:.\DSP\Source\TransformFunctions/arm_cfft_q15.c ****      */
 167:.\DSP\Source\TransformFunctions/arm_cfft_q15.c ****     vecA = (q15x8_t) vldrwq_gather_base_wb_s32(&vecScGathAddr, 64);
 168:.\DSP\Source\TransformFunctions/arm_cfft_q15.c ****     vecC = (q15x8_t) vldrwq_gather_base_s32(vecScGathAddr, 8);
 169:.\DSP\Source\TransformFunctions/arm_cfft_q15.c **** 
 170:.\DSP\Source\TransformFunctions/arm_cfft_q15.c ****     blkCnt = (fftLen >> 4);
 171:.\DSP\Source\TransformFunctions/arm_cfft_q15.c ****     while (blkCnt > 0U)
 172:.\DSP\Source\TransformFunctions/arm_cfft_q15.c ****     {
 173:.\DSP\Source\TransformFunctions/arm_cfft_q15.c ****         vecSum0 = vhaddq(vecA, vecC);
 174:.\DSP\Source\TransformFunctions/arm_cfft_q15.c ****         vecDiff0 = vhsubq(vecA, vecC);
 175:.\DSP\Source\TransformFunctions/arm_cfft_q15.c **** 
 176:.\DSP\Source\TransformFunctions/arm_cfft_q15.c ****         vecB = (q15x8_t) vldrwq_gather_base_s32(vecScGathAddr, 4);
 177:.\DSP\Source\TransformFunctions/arm_cfft_q15.c ****         vecD = (q15x8_t) vldrwq_gather_base_s32(vecScGathAddr, 12);
 178:.\DSP\Source\TransformFunctions/arm_cfft_q15.c **** 
 179:.\DSP\Source\TransformFunctions/arm_cfft_q15.c ****         vecSum1 = vhaddq(vecB, vecD);
 180:.\DSP\Source\TransformFunctions/arm_cfft_q15.c ****         vecDiff1 = vhsubq(vecB, vecD);
 181:.\DSP\Source\TransformFunctions/arm_cfft_q15.c ****         /*
 182:.\DSP\Source\TransformFunctions/arm_cfft_q15.c ****          * pre-load for next iteration
 183:.\DSP\Source\TransformFunctions/arm_cfft_q15.c ****          */
 184:.\DSP\Source\TransformFunctions/arm_cfft_q15.c ****         vecA = (q15x8_t) vldrwq_gather_base_wb_s32(&vecScGathAddr, 64);
 185:.\DSP\Source\TransformFunctions/arm_cfft_q15.c ****         vecC = (q15x8_t) vldrwq_gather_base_s32(vecScGathAddr, 8);
 186:.\DSP\Source\TransformFunctions/arm_cfft_q15.c **** 
 187:.\DSP\Source\TransformFunctions/arm_cfft_q15.c ****         vecTmp0 = vhaddq(vecSum0, vecSum1);
 188:.\DSP\Source\TransformFunctions/arm_cfft_q15.c ****         vstrwq_scatter_base_s32(vecScGathAddr, -64, (int32x4_t) vecTmp0);
 189:.\DSP\Source\TransformFunctions/arm_cfft_q15.c **** 
 190:.\DSP\Source\TransformFunctions/arm_cfft_q15.c ****         vecTmp0 = vhsubq(vecSum0, vecSum1);
 191:.\DSP\Source\TransformFunctions/arm_cfft_q15.c ****         vstrwq_scatter_base_s32(vecScGathAddr, -64 + 4, (int32x4_t) vecTmp0);
 192:.\DSP\Source\TransformFunctions/arm_cfft_q15.c **** 
 193:.\DSP\Source\TransformFunctions/arm_cfft_q15.c ****         vecTmp0 = MVE_CMPLX_SUB_FX_A_ixB(vecDiff0, vecDiff1);
 194:.\DSP\Source\TransformFunctions/arm_cfft_q15.c ****         vstrwq_scatter_base_s32(vecScGathAddr, -64 + 8, (int32x4_t) vecTmp0);
 195:.\DSP\Source\TransformFunctions/arm_cfft_q15.c **** 
 196:.\DSP\Source\TransformFunctions/arm_cfft_q15.c ****         vecTmp0 = MVE_CMPLX_ADD_FX_A_ixB(vecDiff0, vecDiff1);
 197:.\DSP\Source\TransformFunctions/arm_cfft_q15.c ****         vstrwq_scatter_base_s32(vecScGathAddr, -64 + 12, (int32x4_t) vecTmp0);
 198:.\DSP\Source\TransformFunctions/arm_cfft_q15.c **** 
 199:.\DSP\Source\TransformFunctions/arm_cfft_q15.c ****         blkCnt--;
 200:.\DSP\Source\TransformFunctions/arm_cfft_q15.c ****     }
 201:.\DSP\Source\TransformFunctions/arm_cfft_q15.c **** 
 202:.\DSP\Source\TransformFunctions/arm_cfft_q15.c **** }
ARM GAS  C:\Users\IVYLIU~1\AppData\Local\Temp\ccgXWaBA.s 			page 5


 203:.\DSP\Source\TransformFunctions/arm_cfft_q15.c **** 
 204:.\DSP\Source\TransformFunctions/arm_cfft_q15.c **** static void arm_cfft_radix4by2_q15_mve(const arm_cfft_instance_q15 *S, q15_t *pSrc, uint32_t fftLen
 205:.\DSP\Source\TransformFunctions/arm_cfft_q15.c **** {
 206:.\DSP\Source\TransformFunctions/arm_cfft_q15.c ****     uint32_t n2;
 207:.\DSP\Source\TransformFunctions/arm_cfft_q15.c ****     q15_t *pIn0;
 208:.\DSP\Source\TransformFunctions/arm_cfft_q15.c ****     q15_t *pIn1;
 209:.\DSP\Source\TransformFunctions/arm_cfft_q15.c ****     const q15_t *pCoef = S->pTwiddle;
 210:.\DSP\Source\TransformFunctions/arm_cfft_q15.c ****     uint32_t     blkCnt;
 211:.\DSP\Source\TransformFunctions/arm_cfft_q15.c ****     q15x8_t    vecIn0, vecIn1, vecSum, vecDiff;
 212:.\DSP\Source\TransformFunctions/arm_cfft_q15.c ****     q15x8_t    vecCmplxTmp, vecTw;
 213:.\DSP\Source\TransformFunctions/arm_cfft_q15.c ****     q15_t  const *pCoefVec;
 214:.\DSP\Source\TransformFunctions/arm_cfft_q15.c **** 
 215:.\DSP\Source\TransformFunctions/arm_cfft_q15.c ****     n2 = fftLen >> 1;
 216:.\DSP\Source\TransformFunctions/arm_cfft_q15.c **** 
 217:.\DSP\Source\TransformFunctions/arm_cfft_q15.c ****     pIn0 = pSrc;
 218:.\DSP\Source\TransformFunctions/arm_cfft_q15.c ****     pIn1 = pSrc + fftLen;
 219:.\DSP\Source\TransformFunctions/arm_cfft_q15.c ****     pCoefVec = pCoef;
 220:.\DSP\Source\TransformFunctions/arm_cfft_q15.c **** 
 221:.\DSP\Source\TransformFunctions/arm_cfft_q15.c ****     blkCnt = n2 / 4;
 222:.\DSP\Source\TransformFunctions/arm_cfft_q15.c **** 
 223:.\DSP\Source\TransformFunctions/arm_cfft_q15.c ****     while (blkCnt > 0U)
 224:.\DSP\Source\TransformFunctions/arm_cfft_q15.c ****     {
 225:.\DSP\Source\TransformFunctions/arm_cfft_q15.c ****         vecIn0 = *(q15x8_t *) pIn0;
 226:.\DSP\Source\TransformFunctions/arm_cfft_q15.c ****         vecIn1 = *(q15x8_t *) pIn1;
 227:.\DSP\Source\TransformFunctions/arm_cfft_q15.c **** 
 228:.\DSP\Source\TransformFunctions/arm_cfft_q15.c ****         vecIn0 = vecIn0 >> 1;
 229:.\DSP\Source\TransformFunctions/arm_cfft_q15.c ****         vecIn1 = vecIn1 >> 1;
 230:.\DSP\Source\TransformFunctions/arm_cfft_q15.c ****         vecSum = vhaddq(vecIn0, vecIn1);
 231:.\DSP\Source\TransformFunctions/arm_cfft_q15.c ****         vst1q(pIn0, vecSum);
 232:.\DSP\Source\TransformFunctions/arm_cfft_q15.c ****         pIn0 += 8;
 233:.\DSP\Source\TransformFunctions/arm_cfft_q15.c **** 
 234:.\DSP\Source\TransformFunctions/arm_cfft_q15.c ****         vecTw = vld1q(pCoefVec);
 235:.\DSP\Source\TransformFunctions/arm_cfft_q15.c ****         pCoefVec += 8;
 236:.\DSP\Source\TransformFunctions/arm_cfft_q15.c **** 
 237:.\DSP\Source\TransformFunctions/arm_cfft_q15.c ****         vecDiff = vhsubq(vecIn0, vecIn1);
 238:.\DSP\Source\TransformFunctions/arm_cfft_q15.c ****         vecCmplxTmp = MVE_CMPLX_MULT_FX_AxConjB(vecDiff, vecTw, q15x8_t);
 239:.\DSP\Source\TransformFunctions/arm_cfft_q15.c ****         vst1q(pIn1, vecCmplxTmp);
 240:.\DSP\Source\TransformFunctions/arm_cfft_q15.c ****         pIn1 += 8;
 241:.\DSP\Source\TransformFunctions/arm_cfft_q15.c **** 
 242:.\DSP\Source\TransformFunctions/arm_cfft_q15.c ****         blkCnt--;
 243:.\DSP\Source\TransformFunctions/arm_cfft_q15.c ****     }
 244:.\DSP\Source\TransformFunctions/arm_cfft_q15.c **** 
 245:.\DSP\Source\TransformFunctions/arm_cfft_q15.c ****     _arm_radix4_butterfly_q15_mve(S, pSrc, n2);
 246:.\DSP\Source\TransformFunctions/arm_cfft_q15.c **** 
 247:.\DSP\Source\TransformFunctions/arm_cfft_q15.c ****     _arm_radix4_butterfly_q15_mve(S, pSrc + fftLen, n2);
 248:.\DSP\Source\TransformFunctions/arm_cfft_q15.c **** 
 249:.\DSP\Source\TransformFunctions/arm_cfft_q15.c **** 
 250:.\DSP\Source\TransformFunctions/arm_cfft_q15.c ****     pIn0 = pSrc;
 251:.\DSP\Source\TransformFunctions/arm_cfft_q15.c ****     blkCnt = (fftLen << 1) >> 3;
 252:.\DSP\Source\TransformFunctions/arm_cfft_q15.c ****     while (blkCnt > 0U)
 253:.\DSP\Source\TransformFunctions/arm_cfft_q15.c ****     {
 254:.\DSP\Source\TransformFunctions/arm_cfft_q15.c ****         vecIn0 = *(q15x8_t *) pIn0;
 255:.\DSP\Source\TransformFunctions/arm_cfft_q15.c ****         vecIn0 = vecIn0 << 1;
 256:.\DSP\Source\TransformFunctions/arm_cfft_q15.c ****         vst1q(pIn0, vecIn0);
 257:.\DSP\Source\TransformFunctions/arm_cfft_q15.c ****         pIn0 += 8;
 258:.\DSP\Source\TransformFunctions/arm_cfft_q15.c ****         blkCnt--;
 259:.\DSP\Source\TransformFunctions/arm_cfft_q15.c ****     }
ARM GAS  C:\Users\IVYLIU~1\AppData\Local\Temp\ccgXWaBA.s 			page 6


 260:.\DSP\Source\TransformFunctions/arm_cfft_q15.c ****     /*
 261:.\DSP\Source\TransformFunctions/arm_cfft_q15.c ****      * tail
 262:.\DSP\Source\TransformFunctions/arm_cfft_q15.c ****      * (will be merged thru tail predication)
 263:.\DSP\Source\TransformFunctions/arm_cfft_q15.c ****      */
 264:.\DSP\Source\TransformFunctions/arm_cfft_q15.c ****     blkCnt = (fftLen << 1) & 7;
 265:.\DSP\Source\TransformFunctions/arm_cfft_q15.c ****     if (blkCnt > 0U)
 266:.\DSP\Source\TransformFunctions/arm_cfft_q15.c ****     {
 267:.\DSP\Source\TransformFunctions/arm_cfft_q15.c ****         mve_pred16_t p0 = vctp16q(blkCnt);
 268:.\DSP\Source\TransformFunctions/arm_cfft_q15.c **** 
 269:.\DSP\Source\TransformFunctions/arm_cfft_q15.c ****         vecIn0 = *(q15x8_t *) pIn0;
 270:.\DSP\Source\TransformFunctions/arm_cfft_q15.c ****         vecIn0 = vecIn0 << 1;
 271:.\DSP\Source\TransformFunctions/arm_cfft_q15.c ****         vstrhq_p(pIn0, vecIn0, p0);
 272:.\DSP\Source\TransformFunctions/arm_cfft_q15.c ****     }
 273:.\DSP\Source\TransformFunctions/arm_cfft_q15.c **** }
 274:.\DSP\Source\TransformFunctions/arm_cfft_q15.c **** 
 275:.\DSP\Source\TransformFunctions/arm_cfft_q15.c **** static void _arm_radix4_butterfly_inverse_q15_mve(const arm_cfft_instance_q15 *S,q15_t *pSrc, uint3
 276:.\DSP\Source\TransformFunctions/arm_cfft_q15.c **** {
 277:.\DSP\Source\TransformFunctions/arm_cfft_q15.c ****     q15x8_t vecTmp0, vecTmp1;
 278:.\DSP\Source\TransformFunctions/arm_cfft_q15.c ****     q15x8_t vecSum0, vecDiff0, vecSum1, vecDiff1;
 279:.\DSP\Source\TransformFunctions/arm_cfft_q15.c ****     q15x8_t vecA, vecB, vecC, vecD;
 280:.\DSP\Source\TransformFunctions/arm_cfft_q15.c ****     uint32_t  blkCnt;
 281:.\DSP\Source\TransformFunctions/arm_cfft_q15.c ****     uint32_t  n1, n2;
 282:.\DSP\Source\TransformFunctions/arm_cfft_q15.c ****     uint32_t  stage = 0;
 283:.\DSP\Source\TransformFunctions/arm_cfft_q15.c ****     int32_t  iter = 1;
 284:.\DSP\Source\TransformFunctions/arm_cfft_q15.c ****     static const int32_t strides[4] = {
 285:.\DSP\Source\TransformFunctions/arm_cfft_q15.c ****         (0 - 16) * (int32_t)sizeof(q15_t *), (4 - 16) * (int32_t)sizeof(q15_t *),
 286:.\DSP\Source\TransformFunctions/arm_cfft_q15.c ****         (8 - 16) * (int32_t)sizeof(q15_t *), (12 - 16) * (int32_t)sizeof(q15_t *)
 287:.\DSP\Source\TransformFunctions/arm_cfft_q15.c ****     };
 288:.\DSP\Source\TransformFunctions/arm_cfft_q15.c **** 
 289:.\DSP\Source\TransformFunctions/arm_cfft_q15.c **** 
 290:.\DSP\Source\TransformFunctions/arm_cfft_q15.c ****     /*
 291:.\DSP\Source\TransformFunctions/arm_cfft_q15.c ****      * Process first stages
 292:.\DSP\Source\TransformFunctions/arm_cfft_q15.c ****      * Each stage in middle stages provides two down scaling of the input
 293:.\DSP\Source\TransformFunctions/arm_cfft_q15.c ****      */
 294:.\DSP\Source\TransformFunctions/arm_cfft_q15.c ****     n2 = fftLen;
 295:.\DSP\Source\TransformFunctions/arm_cfft_q15.c ****     n1 = n2;
 296:.\DSP\Source\TransformFunctions/arm_cfft_q15.c ****     n2 >>= 2u;
 297:.\DSP\Source\TransformFunctions/arm_cfft_q15.c **** 
 298:.\DSP\Source\TransformFunctions/arm_cfft_q15.c ****     for (int k = fftLen / 4u; k > 1; k >>= 2u)
 299:.\DSP\Source\TransformFunctions/arm_cfft_q15.c ****     {
 300:.\DSP\Source\TransformFunctions/arm_cfft_q15.c ****         q15_t const *p_rearranged_twiddle_tab_stride2 =
 301:.\DSP\Source\TransformFunctions/arm_cfft_q15.c ****             &S->rearranged_twiddle_stride2[
 302:.\DSP\Source\TransformFunctions/arm_cfft_q15.c ****             S->rearranged_twiddle_tab_stride2_arr[stage]];
 303:.\DSP\Source\TransformFunctions/arm_cfft_q15.c ****         q15_t const *p_rearranged_twiddle_tab_stride3 = &S->rearranged_twiddle_stride3[
 304:.\DSP\Source\TransformFunctions/arm_cfft_q15.c ****             S->rearranged_twiddle_tab_stride3_arr[stage]];
 305:.\DSP\Source\TransformFunctions/arm_cfft_q15.c ****         q15_t const *p_rearranged_twiddle_tab_stride1 =
 306:.\DSP\Source\TransformFunctions/arm_cfft_q15.c ****             &S->rearranged_twiddle_stride1[
 307:.\DSP\Source\TransformFunctions/arm_cfft_q15.c ****             S->rearranged_twiddle_tab_stride1_arr[stage]];
 308:.\DSP\Source\TransformFunctions/arm_cfft_q15.c **** 
 309:.\DSP\Source\TransformFunctions/arm_cfft_q15.c ****         q15_t * pBase = pSrc;
 310:.\DSP\Source\TransformFunctions/arm_cfft_q15.c ****         for (int i = 0; i < iter; i++)
 311:.\DSP\Source\TransformFunctions/arm_cfft_q15.c ****         {
 312:.\DSP\Source\TransformFunctions/arm_cfft_q15.c ****             q15_t    *inA = pBase;
 313:.\DSP\Source\TransformFunctions/arm_cfft_q15.c ****             q15_t    *inB = inA + n2 * CMPLX_DIM;
 314:.\DSP\Source\TransformFunctions/arm_cfft_q15.c ****             q15_t    *inC = inB + n2 * CMPLX_DIM;
 315:.\DSP\Source\TransformFunctions/arm_cfft_q15.c ****             q15_t    *inD = inC + n2 * CMPLX_DIM;
 316:.\DSP\Source\TransformFunctions/arm_cfft_q15.c ****             q15_t const *pW1 = p_rearranged_twiddle_tab_stride1;
ARM GAS  C:\Users\IVYLIU~1\AppData\Local\Temp\ccgXWaBA.s 			page 7


 317:.\DSP\Source\TransformFunctions/arm_cfft_q15.c ****             q15_t const *pW2 = p_rearranged_twiddle_tab_stride2;
 318:.\DSP\Source\TransformFunctions/arm_cfft_q15.c ****             q15_t const *pW3 = p_rearranged_twiddle_tab_stride3;
 319:.\DSP\Source\TransformFunctions/arm_cfft_q15.c ****             q15x8_t    vecW;
 320:.\DSP\Source\TransformFunctions/arm_cfft_q15.c **** 
 321:.\DSP\Source\TransformFunctions/arm_cfft_q15.c **** 
 322:.\DSP\Source\TransformFunctions/arm_cfft_q15.c ****             blkCnt = n2 / 4;
 323:.\DSP\Source\TransformFunctions/arm_cfft_q15.c ****             /*
 324:.\DSP\Source\TransformFunctions/arm_cfft_q15.c ****              * load 4 x q15 complex pair
 325:.\DSP\Source\TransformFunctions/arm_cfft_q15.c ****              */
 326:.\DSP\Source\TransformFunctions/arm_cfft_q15.c ****             vecA = vldrhq_s16(inA);
 327:.\DSP\Source\TransformFunctions/arm_cfft_q15.c ****             vecC = vldrhq_s16(inC);
 328:.\DSP\Source\TransformFunctions/arm_cfft_q15.c ****             while (blkCnt > 0U)
 329:.\DSP\Source\TransformFunctions/arm_cfft_q15.c ****             {
 330:.\DSP\Source\TransformFunctions/arm_cfft_q15.c ****                 vecB = vldrhq_s16(inB);
 331:.\DSP\Source\TransformFunctions/arm_cfft_q15.c ****                 vecD = vldrhq_s16(inD);
 332:.\DSP\Source\TransformFunctions/arm_cfft_q15.c **** 
 333:.\DSP\Source\TransformFunctions/arm_cfft_q15.c ****                 vecSum0 = vhaddq(vecA, vecC);
 334:.\DSP\Source\TransformFunctions/arm_cfft_q15.c ****                 vecDiff0 = vhsubq(vecA, vecC);
 335:.\DSP\Source\TransformFunctions/arm_cfft_q15.c **** 
 336:.\DSP\Source\TransformFunctions/arm_cfft_q15.c ****                 vecSum1 = vhaddq(vecB, vecD);
 337:.\DSP\Source\TransformFunctions/arm_cfft_q15.c ****                 vecDiff1 = vhsubq(vecB, vecD);
 338:.\DSP\Source\TransformFunctions/arm_cfft_q15.c ****                 /*
 339:.\DSP\Source\TransformFunctions/arm_cfft_q15.c ****                  * [ 1 1 1 1 ] * [ A B C D ]' .* 1
 340:.\DSP\Source\TransformFunctions/arm_cfft_q15.c ****                  */
 341:.\DSP\Source\TransformFunctions/arm_cfft_q15.c ****                 vecTmp0 = vhaddq(vecSum0, vecSum1);
 342:.\DSP\Source\TransformFunctions/arm_cfft_q15.c ****                 vst1q(inA, vecTmp0);
 343:.\DSP\Source\TransformFunctions/arm_cfft_q15.c ****                 inA += 8;
 344:.\DSP\Source\TransformFunctions/arm_cfft_q15.c ****                 /*
 345:.\DSP\Source\TransformFunctions/arm_cfft_q15.c ****                  * [ 1 -1 1 -1 ] * [ A B C D ]'
 346:.\DSP\Source\TransformFunctions/arm_cfft_q15.c ****                  */
 347:.\DSP\Source\TransformFunctions/arm_cfft_q15.c ****                 vecTmp0 = vhsubq(vecSum0, vecSum1);
 348:.\DSP\Source\TransformFunctions/arm_cfft_q15.c ****                 /*
 349:.\DSP\Source\TransformFunctions/arm_cfft_q15.c ****                  * [ 1 -1 1 -1 ] * [ A B C D ]'.* W2
 350:.\DSP\Source\TransformFunctions/arm_cfft_q15.c ****                  */
 351:.\DSP\Source\TransformFunctions/arm_cfft_q15.c ****                 vecW = vld1q(pW2);
 352:.\DSP\Source\TransformFunctions/arm_cfft_q15.c ****                 pW2 += 8;
 353:.\DSP\Source\TransformFunctions/arm_cfft_q15.c ****                 vecTmp1 = MVE_CMPLX_MULT_FX_AxConjB(vecTmp0, vecW, q15x8_t);
 354:.\DSP\Source\TransformFunctions/arm_cfft_q15.c **** 
 355:.\DSP\Source\TransformFunctions/arm_cfft_q15.c ****                 vst1q(inB, vecTmp1);
 356:.\DSP\Source\TransformFunctions/arm_cfft_q15.c ****                 inB += 8;
 357:.\DSP\Source\TransformFunctions/arm_cfft_q15.c ****                 /*
 358:.\DSP\Source\TransformFunctions/arm_cfft_q15.c ****                  * [ 1 -i -1 +i ] * [ A B C D ]'
 359:.\DSP\Source\TransformFunctions/arm_cfft_q15.c ****                  */
 360:.\DSP\Source\TransformFunctions/arm_cfft_q15.c ****                 vecTmp0 = MVE_CMPLX_ADD_FX_A_ixB(vecDiff0, vecDiff1);
 361:.\DSP\Source\TransformFunctions/arm_cfft_q15.c ****                 /*
 362:.\DSP\Source\TransformFunctions/arm_cfft_q15.c ****                  * [ 1 -i -1 +i ] * [ A B C D ]'.* W1
 363:.\DSP\Source\TransformFunctions/arm_cfft_q15.c ****                  */
 364:.\DSP\Source\TransformFunctions/arm_cfft_q15.c ****                 vecW = vld1q(pW1);
 365:.\DSP\Source\TransformFunctions/arm_cfft_q15.c ****                 pW1 += 8;
 366:.\DSP\Source\TransformFunctions/arm_cfft_q15.c ****                 vecTmp1 = MVE_CMPLX_MULT_FX_AxConjB(vecTmp0, vecW, q15x8_t);
 367:.\DSP\Source\TransformFunctions/arm_cfft_q15.c ****                 vst1q(inC, vecTmp1);
 368:.\DSP\Source\TransformFunctions/arm_cfft_q15.c ****                 inC += 8;
 369:.\DSP\Source\TransformFunctions/arm_cfft_q15.c ****                 /*
 370:.\DSP\Source\TransformFunctions/arm_cfft_q15.c ****                  * [ 1 +i -1 -i ] * [ A B C D ]'
 371:.\DSP\Source\TransformFunctions/arm_cfft_q15.c ****                  */
 372:.\DSP\Source\TransformFunctions/arm_cfft_q15.c ****                 vecTmp0 = MVE_CMPLX_SUB_FX_A_ixB(vecDiff0, vecDiff1);
 373:.\DSP\Source\TransformFunctions/arm_cfft_q15.c ****                 /*
ARM GAS  C:\Users\IVYLIU~1\AppData\Local\Temp\ccgXWaBA.s 			page 8


 374:.\DSP\Source\TransformFunctions/arm_cfft_q15.c ****                  * [ 1 +i -1 -i ] * [ A B C D ]'.* W3
 375:.\DSP\Source\TransformFunctions/arm_cfft_q15.c ****                  */
 376:.\DSP\Source\TransformFunctions/arm_cfft_q15.c ****                 vecW = vld1q(pW3);
 377:.\DSP\Source\TransformFunctions/arm_cfft_q15.c ****                 pW3 += 8;
 378:.\DSP\Source\TransformFunctions/arm_cfft_q15.c ****                 vecTmp1 = MVE_CMPLX_MULT_FX_AxConjB(vecTmp0, vecW, q15x8_t);
 379:.\DSP\Source\TransformFunctions/arm_cfft_q15.c ****                 vst1q(inD, vecTmp1);
 380:.\DSP\Source\TransformFunctions/arm_cfft_q15.c ****                 inD += 8;
 381:.\DSP\Source\TransformFunctions/arm_cfft_q15.c **** 
 382:.\DSP\Source\TransformFunctions/arm_cfft_q15.c ****                 vecA = vldrhq_s16(inA);
 383:.\DSP\Source\TransformFunctions/arm_cfft_q15.c ****                 vecC = vldrhq_s16(inC);
 384:.\DSP\Source\TransformFunctions/arm_cfft_q15.c **** 
 385:.\DSP\Source\TransformFunctions/arm_cfft_q15.c ****                 blkCnt--;
 386:.\DSP\Source\TransformFunctions/arm_cfft_q15.c ****             }
 387:.\DSP\Source\TransformFunctions/arm_cfft_q15.c ****             pBase +=  CMPLX_DIM * n1;
 388:.\DSP\Source\TransformFunctions/arm_cfft_q15.c ****         }
 389:.\DSP\Source\TransformFunctions/arm_cfft_q15.c ****         n1 = n2;
 390:.\DSP\Source\TransformFunctions/arm_cfft_q15.c ****         n2 >>= 2u;
 391:.\DSP\Source\TransformFunctions/arm_cfft_q15.c ****         iter = iter << 2;
 392:.\DSP\Source\TransformFunctions/arm_cfft_q15.c ****         stage++;
 393:.\DSP\Source\TransformFunctions/arm_cfft_q15.c ****     }
 394:.\DSP\Source\TransformFunctions/arm_cfft_q15.c **** 
 395:.\DSP\Source\TransformFunctions/arm_cfft_q15.c ****     /*
 396:.\DSP\Source\TransformFunctions/arm_cfft_q15.c ****      * start of Last stage process
 397:.\DSP\Source\TransformFunctions/arm_cfft_q15.c ****      */
 398:.\DSP\Source\TransformFunctions/arm_cfft_q15.c ****     uint32x4_t vecScGathAddr = vld1q_u32((uint32_t*)strides);
 399:.\DSP\Source\TransformFunctions/arm_cfft_q15.c ****     vecScGathAddr = vecScGathAddr + (uint32_t) pSrc;
 400:.\DSP\Source\TransformFunctions/arm_cfft_q15.c **** 
 401:.\DSP\Source\TransformFunctions/arm_cfft_q15.c ****     /*
 402:.\DSP\Source\TransformFunctions/arm_cfft_q15.c ****      * load scheduling
 403:.\DSP\Source\TransformFunctions/arm_cfft_q15.c ****      */
 404:.\DSP\Source\TransformFunctions/arm_cfft_q15.c ****     vecA = (q15x8_t) vldrwq_gather_base_wb_s32(&vecScGathAddr, 64);
 405:.\DSP\Source\TransformFunctions/arm_cfft_q15.c ****     vecC = (q15x8_t) vldrwq_gather_base_s32(vecScGathAddr, 8);
 406:.\DSP\Source\TransformFunctions/arm_cfft_q15.c **** 
 407:.\DSP\Source\TransformFunctions/arm_cfft_q15.c ****     blkCnt = (fftLen >> 4);
 408:.\DSP\Source\TransformFunctions/arm_cfft_q15.c ****     while (blkCnt > 0U)
 409:.\DSP\Source\TransformFunctions/arm_cfft_q15.c ****     {
 410:.\DSP\Source\TransformFunctions/arm_cfft_q15.c ****         vecSum0 = vhaddq(vecA, vecC);
 411:.\DSP\Source\TransformFunctions/arm_cfft_q15.c ****         vecDiff0 = vhsubq(vecA, vecC);
 412:.\DSP\Source\TransformFunctions/arm_cfft_q15.c **** 
 413:.\DSP\Source\TransformFunctions/arm_cfft_q15.c ****         vecB = (q15x8_t) vldrwq_gather_base_s32(vecScGathAddr, 4);
 414:.\DSP\Source\TransformFunctions/arm_cfft_q15.c ****         vecD = (q15x8_t) vldrwq_gather_base_s32(vecScGathAddr, 12);
 415:.\DSP\Source\TransformFunctions/arm_cfft_q15.c **** 
 416:.\DSP\Source\TransformFunctions/arm_cfft_q15.c ****         vecSum1 = vhaddq(vecB, vecD);
 417:.\DSP\Source\TransformFunctions/arm_cfft_q15.c ****         vecDiff1 = vhsubq(vecB, vecD);
 418:.\DSP\Source\TransformFunctions/arm_cfft_q15.c ****         /*
 419:.\DSP\Source\TransformFunctions/arm_cfft_q15.c ****          * pre-load for next iteration
 420:.\DSP\Source\TransformFunctions/arm_cfft_q15.c ****          */
 421:.\DSP\Source\TransformFunctions/arm_cfft_q15.c ****         vecA = (q15x8_t) vldrwq_gather_base_wb_s32(&vecScGathAddr, 64);
 422:.\DSP\Source\TransformFunctions/arm_cfft_q15.c ****         vecC = (q15x8_t) vldrwq_gather_base_s32(vecScGathAddr, 8);
 423:.\DSP\Source\TransformFunctions/arm_cfft_q15.c **** 
 424:.\DSP\Source\TransformFunctions/arm_cfft_q15.c ****         vecTmp0 = vhaddq(vecSum0, vecSum1);
 425:.\DSP\Source\TransformFunctions/arm_cfft_q15.c ****         vstrwq_scatter_base_s32(vecScGathAddr, -64, (int32x4_t) vecTmp0);
 426:.\DSP\Source\TransformFunctions/arm_cfft_q15.c **** 
 427:.\DSP\Source\TransformFunctions/arm_cfft_q15.c ****         vecTmp0 = vhsubq(vecSum0, vecSum1);
 428:.\DSP\Source\TransformFunctions/arm_cfft_q15.c ****         vstrwq_scatter_base_s32(vecScGathAddr, -64 + 4, (int32x4_t) vecTmp0);
 429:.\DSP\Source\TransformFunctions/arm_cfft_q15.c **** 
 430:.\DSP\Source\TransformFunctions/arm_cfft_q15.c ****         vecTmp0 = MVE_CMPLX_ADD_FX_A_ixB(vecDiff0, vecDiff1);
ARM GAS  C:\Users\IVYLIU~1\AppData\Local\Temp\ccgXWaBA.s 			page 9


 431:.\DSP\Source\TransformFunctions/arm_cfft_q15.c ****         vstrwq_scatter_base_s32(vecScGathAddr, -64 + 8, (int32x4_t) vecTmp0);
 432:.\DSP\Source\TransformFunctions/arm_cfft_q15.c **** 
 433:.\DSP\Source\TransformFunctions/arm_cfft_q15.c ****         vecTmp0 = MVE_CMPLX_SUB_FX_A_ixB(vecDiff0, vecDiff1);
 434:.\DSP\Source\TransformFunctions/arm_cfft_q15.c ****         vstrwq_scatter_base_s32(vecScGathAddr, -64 + 12, (int32x4_t) vecTmp0);
 435:.\DSP\Source\TransformFunctions/arm_cfft_q15.c **** 
 436:.\DSP\Source\TransformFunctions/arm_cfft_q15.c ****         blkCnt--;
 437:.\DSP\Source\TransformFunctions/arm_cfft_q15.c ****     }
 438:.\DSP\Source\TransformFunctions/arm_cfft_q15.c **** }
 439:.\DSP\Source\TransformFunctions/arm_cfft_q15.c **** 
 440:.\DSP\Source\TransformFunctions/arm_cfft_q15.c **** static void arm_cfft_radix4by2_inverse_q15_mve(const arm_cfft_instance_q15 *S, q15_t *pSrc, uint32_
 441:.\DSP\Source\TransformFunctions/arm_cfft_q15.c **** {
 442:.\DSP\Source\TransformFunctions/arm_cfft_q15.c ****     uint32_t n2;
 443:.\DSP\Source\TransformFunctions/arm_cfft_q15.c ****     q15_t *pIn0;
 444:.\DSP\Source\TransformFunctions/arm_cfft_q15.c ****     q15_t *pIn1;
 445:.\DSP\Source\TransformFunctions/arm_cfft_q15.c ****     const q15_t *pCoef = S->pTwiddle;
 446:.\DSP\Source\TransformFunctions/arm_cfft_q15.c **** 
 447:.\DSP\Source\TransformFunctions/arm_cfft_q15.c ****     uint32_t     blkCnt;
 448:.\DSP\Source\TransformFunctions/arm_cfft_q15.c ****     q15x8_t    vecIn0, vecIn1, vecSum, vecDiff;
 449:.\DSP\Source\TransformFunctions/arm_cfft_q15.c ****     q15x8_t    vecCmplxTmp, vecTw;
 450:.\DSP\Source\TransformFunctions/arm_cfft_q15.c ****     q15_t  const *pCoefVec;
 451:.\DSP\Source\TransformFunctions/arm_cfft_q15.c **** 
 452:.\DSP\Source\TransformFunctions/arm_cfft_q15.c ****     n2 = fftLen >> 1;
 453:.\DSP\Source\TransformFunctions/arm_cfft_q15.c **** 
 454:.\DSP\Source\TransformFunctions/arm_cfft_q15.c ****     pIn0 = pSrc;
 455:.\DSP\Source\TransformFunctions/arm_cfft_q15.c ****     pIn1 = pSrc + fftLen;
 456:.\DSP\Source\TransformFunctions/arm_cfft_q15.c ****     pCoefVec = pCoef;
 457:.\DSP\Source\TransformFunctions/arm_cfft_q15.c **** 
 458:.\DSP\Source\TransformFunctions/arm_cfft_q15.c ****     blkCnt = n2 / 4;
 459:.\DSP\Source\TransformFunctions/arm_cfft_q15.c **** 
 460:.\DSP\Source\TransformFunctions/arm_cfft_q15.c ****     while (blkCnt > 0U)
 461:.\DSP\Source\TransformFunctions/arm_cfft_q15.c ****     {
 462:.\DSP\Source\TransformFunctions/arm_cfft_q15.c ****         vecIn0 = *(q15x8_t *) pIn0;
 463:.\DSP\Source\TransformFunctions/arm_cfft_q15.c ****         vecIn1 = *(q15x8_t *) pIn1;
 464:.\DSP\Source\TransformFunctions/arm_cfft_q15.c **** 
 465:.\DSP\Source\TransformFunctions/arm_cfft_q15.c ****         vecIn0 = vecIn0 >> 1;
 466:.\DSP\Source\TransformFunctions/arm_cfft_q15.c ****         vecIn1 = vecIn1 >> 1;
 467:.\DSP\Source\TransformFunctions/arm_cfft_q15.c ****         vecSum = vhaddq(vecIn0, vecIn1);
 468:.\DSP\Source\TransformFunctions/arm_cfft_q15.c ****         vst1q(pIn0, vecSum);
 469:.\DSP\Source\TransformFunctions/arm_cfft_q15.c ****         pIn0 += 8;
 470:.\DSP\Source\TransformFunctions/arm_cfft_q15.c **** 
 471:.\DSP\Source\TransformFunctions/arm_cfft_q15.c ****         vecTw = vld1q(pCoefVec);
 472:.\DSP\Source\TransformFunctions/arm_cfft_q15.c ****         pCoefVec += 8;
 473:.\DSP\Source\TransformFunctions/arm_cfft_q15.c **** 
 474:.\DSP\Source\TransformFunctions/arm_cfft_q15.c ****         vecDiff = vhsubq(vecIn0, vecIn1);
 475:.\DSP\Source\TransformFunctions/arm_cfft_q15.c ****         vecCmplxTmp = vqrdmlsdhq(vuninitializedq_s16() , vecDiff, vecTw);
 476:.\DSP\Source\TransformFunctions/arm_cfft_q15.c ****         vecCmplxTmp = vqrdmladhxq(vecCmplxTmp, vecDiff, vecTw);
 477:.\DSP\Source\TransformFunctions/arm_cfft_q15.c ****         vst1q(pIn1, vecCmplxTmp);
 478:.\DSP\Source\TransformFunctions/arm_cfft_q15.c ****         pIn1 += 8;
 479:.\DSP\Source\TransformFunctions/arm_cfft_q15.c **** 
 480:.\DSP\Source\TransformFunctions/arm_cfft_q15.c ****         blkCnt--;
 481:.\DSP\Source\TransformFunctions/arm_cfft_q15.c ****     }
 482:.\DSP\Source\TransformFunctions/arm_cfft_q15.c **** 
 483:.\DSP\Source\TransformFunctions/arm_cfft_q15.c **** 
 484:.\DSP\Source\TransformFunctions/arm_cfft_q15.c ****     _arm_radix4_butterfly_inverse_q15_mve(S, pSrc, n2);
 485:.\DSP\Source\TransformFunctions/arm_cfft_q15.c **** 
 486:.\DSP\Source\TransformFunctions/arm_cfft_q15.c ****     _arm_radix4_butterfly_inverse_q15_mve(S, pSrc + fftLen, n2);
 487:.\DSP\Source\TransformFunctions/arm_cfft_q15.c **** 
ARM GAS  C:\Users\IVYLIU~1\AppData\Local\Temp\ccgXWaBA.s 			page 10


 488:.\DSP\Source\TransformFunctions/arm_cfft_q15.c ****     pIn0 = pSrc;
 489:.\DSP\Source\TransformFunctions/arm_cfft_q15.c ****     blkCnt = (fftLen << 1) >> 3;
 490:.\DSP\Source\TransformFunctions/arm_cfft_q15.c ****     while (blkCnt > 0U)
 491:.\DSP\Source\TransformFunctions/arm_cfft_q15.c ****     {
 492:.\DSP\Source\TransformFunctions/arm_cfft_q15.c ****         vecIn0 = *(q15x8_t *) pIn0;
 493:.\DSP\Source\TransformFunctions/arm_cfft_q15.c ****         vecIn0 = vecIn0 << 1;
 494:.\DSP\Source\TransformFunctions/arm_cfft_q15.c ****         vst1q(pIn0, vecIn0);
 495:.\DSP\Source\TransformFunctions/arm_cfft_q15.c ****         pIn0 += 8;
 496:.\DSP\Source\TransformFunctions/arm_cfft_q15.c ****         blkCnt--;
 497:.\DSP\Source\TransformFunctions/arm_cfft_q15.c ****     }
 498:.\DSP\Source\TransformFunctions/arm_cfft_q15.c ****     /*
 499:.\DSP\Source\TransformFunctions/arm_cfft_q15.c ****      * tail
 500:.\DSP\Source\TransformFunctions/arm_cfft_q15.c ****      * (will be merged thru tail predication)
 501:.\DSP\Source\TransformFunctions/arm_cfft_q15.c ****      */
 502:.\DSP\Source\TransformFunctions/arm_cfft_q15.c ****     blkCnt = (fftLen << 1) & 7;
 503:.\DSP\Source\TransformFunctions/arm_cfft_q15.c ****     while (blkCnt > 0U)
 504:.\DSP\Source\TransformFunctions/arm_cfft_q15.c ****     {
 505:.\DSP\Source\TransformFunctions/arm_cfft_q15.c ****         mve_pred16_t p0 = vctp16q(blkCnt);
 506:.\DSP\Source\TransformFunctions/arm_cfft_q15.c **** 
 507:.\DSP\Source\TransformFunctions/arm_cfft_q15.c ****         vecIn0 = *(q15x8_t *) pIn0;
 508:.\DSP\Source\TransformFunctions/arm_cfft_q15.c ****         vecIn0 = vecIn0 << 1;
 509:.\DSP\Source\TransformFunctions/arm_cfft_q15.c ****         vstrhq_p(pIn0, vecIn0, p0);
 510:.\DSP\Source\TransformFunctions/arm_cfft_q15.c ****     }
 511:.\DSP\Source\TransformFunctions/arm_cfft_q15.c **** }
 512:.\DSP\Source\TransformFunctions/arm_cfft_q15.c **** 
 513:.\DSP\Source\TransformFunctions/arm_cfft_q15.c **** /**
 514:.\DSP\Source\TransformFunctions/arm_cfft_q15.c ****   @ingroup groupTransforms
 515:.\DSP\Source\TransformFunctions/arm_cfft_q15.c ****  */
 516:.\DSP\Source\TransformFunctions/arm_cfft_q15.c **** 
 517:.\DSP\Source\TransformFunctions/arm_cfft_q15.c **** /**
 518:.\DSP\Source\TransformFunctions/arm_cfft_q15.c ****   @addtogroup ComplexFFT
 519:.\DSP\Source\TransformFunctions/arm_cfft_q15.c ****   @{
 520:.\DSP\Source\TransformFunctions/arm_cfft_q15.c ****  */
 521:.\DSP\Source\TransformFunctions/arm_cfft_q15.c **** 
 522:.\DSP\Source\TransformFunctions/arm_cfft_q15.c **** /**
 523:.\DSP\Source\TransformFunctions/arm_cfft_q15.c ****   @brief         Processing function for Q15 complex FFT.
 524:.\DSP\Source\TransformFunctions/arm_cfft_q15.c ****   @param[in]     S               points to an instance of Q15 CFFT structure
 525:.\DSP\Source\TransformFunctions/arm_cfft_q15.c ****   @param[in,out] p1              points to the complex data buffer of size <code>2*fftLen</code>. P
 526:.\DSP\Source\TransformFunctions/arm_cfft_q15.c ****   @param[in]     ifftFlag       flag that selects transform direction
 527:.\DSP\Source\TransformFunctions/arm_cfft_q15.c ****                    - value = 0: forward transform
 528:.\DSP\Source\TransformFunctions/arm_cfft_q15.c ****                    - value = 1: inverse transform
 529:.\DSP\Source\TransformFunctions/arm_cfft_q15.c ****   @param[in]     bitReverseFlag flag that enables / disables bit reversal of output
 530:.\DSP\Source\TransformFunctions/arm_cfft_q15.c ****                    - value = 0: disables bit reversal of output
 531:.\DSP\Source\TransformFunctions/arm_cfft_q15.c ****                    - value = 1: enables bit reversal of output
 532:.\DSP\Source\TransformFunctions/arm_cfft_q15.c ****   @return        none
 533:.\DSP\Source\TransformFunctions/arm_cfft_q15.c ****  */
 534:.\DSP\Source\TransformFunctions/arm_cfft_q15.c **** void arm_cfft_q15(
 535:.\DSP\Source\TransformFunctions/arm_cfft_q15.c ****   const arm_cfft_instance_q15 * S,
 536:.\DSP\Source\TransformFunctions/arm_cfft_q15.c ****         q15_t * pSrc,
 537:.\DSP\Source\TransformFunctions/arm_cfft_q15.c ****         uint8_t ifftFlag,
 538:.\DSP\Source\TransformFunctions/arm_cfft_q15.c ****         uint8_t bitReverseFlag)
 539:.\DSP\Source\TransformFunctions/arm_cfft_q15.c **** {
 540:.\DSP\Source\TransformFunctions/arm_cfft_q15.c ****         uint32_t fftLen = S->fftLen;
 541:.\DSP\Source\TransformFunctions/arm_cfft_q15.c **** 
 542:.\DSP\Source\TransformFunctions/arm_cfft_q15.c ****         if (ifftFlag == 1U) {
 543:.\DSP\Source\TransformFunctions/arm_cfft_q15.c **** 
 544:.\DSP\Source\TransformFunctions/arm_cfft_q15.c ****             switch (fftLen) {
ARM GAS  C:\Users\IVYLIU~1\AppData\Local\Temp\ccgXWaBA.s 			page 11


 545:.\DSP\Source\TransformFunctions/arm_cfft_q15.c ****             case 16:
 546:.\DSP\Source\TransformFunctions/arm_cfft_q15.c ****             case 64:
 547:.\DSP\Source\TransformFunctions/arm_cfft_q15.c ****             case 256:
 548:.\DSP\Source\TransformFunctions/arm_cfft_q15.c ****             case 1024:
 549:.\DSP\Source\TransformFunctions/arm_cfft_q15.c ****             case 4096:
 550:.\DSP\Source\TransformFunctions/arm_cfft_q15.c ****                 _arm_radix4_butterfly_inverse_q15_mve(S, pSrc, fftLen);
 551:.\DSP\Source\TransformFunctions/arm_cfft_q15.c ****                 break;
 552:.\DSP\Source\TransformFunctions/arm_cfft_q15.c **** 
 553:.\DSP\Source\TransformFunctions/arm_cfft_q15.c ****             case 32:
 554:.\DSP\Source\TransformFunctions/arm_cfft_q15.c ****             case 128:
 555:.\DSP\Source\TransformFunctions/arm_cfft_q15.c ****             case 512:
 556:.\DSP\Source\TransformFunctions/arm_cfft_q15.c ****             case 2048:
 557:.\DSP\Source\TransformFunctions/arm_cfft_q15.c ****                 arm_cfft_radix4by2_inverse_q15_mve(S, pSrc, fftLen);
 558:.\DSP\Source\TransformFunctions/arm_cfft_q15.c ****                 break;
 559:.\DSP\Source\TransformFunctions/arm_cfft_q15.c ****             }
 560:.\DSP\Source\TransformFunctions/arm_cfft_q15.c ****         } else {
 561:.\DSP\Source\TransformFunctions/arm_cfft_q15.c ****             switch (fftLen) {
 562:.\DSP\Source\TransformFunctions/arm_cfft_q15.c ****             case 16:
 563:.\DSP\Source\TransformFunctions/arm_cfft_q15.c ****             case 64:
 564:.\DSP\Source\TransformFunctions/arm_cfft_q15.c ****             case 256:
 565:.\DSP\Source\TransformFunctions/arm_cfft_q15.c ****             case 1024:
 566:.\DSP\Source\TransformFunctions/arm_cfft_q15.c ****             case 4096:
 567:.\DSP\Source\TransformFunctions/arm_cfft_q15.c ****                 _arm_radix4_butterfly_q15_mve(S, pSrc, fftLen);
 568:.\DSP\Source\TransformFunctions/arm_cfft_q15.c ****                 break;
 569:.\DSP\Source\TransformFunctions/arm_cfft_q15.c **** 
 570:.\DSP\Source\TransformFunctions/arm_cfft_q15.c ****             case 32:
 571:.\DSP\Source\TransformFunctions/arm_cfft_q15.c ****             case 128:
 572:.\DSP\Source\TransformFunctions/arm_cfft_q15.c ****             case 512:
 573:.\DSP\Source\TransformFunctions/arm_cfft_q15.c ****             case 2048:
 574:.\DSP\Source\TransformFunctions/arm_cfft_q15.c ****                 arm_cfft_radix4by2_q15_mve(S, pSrc, fftLen);
 575:.\DSP\Source\TransformFunctions/arm_cfft_q15.c ****                 break;
 576:.\DSP\Source\TransformFunctions/arm_cfft_q15.c ****             }
 577:.\DSP\Source\TransformFunctions/arm_cfft_q15.c ****         }
 578:.\DSP\Source\TransformFunctions/arm_cfft_q15.c **** 
 579:.\DSP\Source\TransformFunctions/arm_cfft_q15.c **** 
 580:.\DSP\Source\TransformFunctions/arm_cfft_q15.c ****         if (bitReverseFlag)
 581:.\DSP\Source\TransformFunctions/arm_cfft_q15.c ****         {
 582:.\DSP\Source\TransformFunctions/arm_cfft_q15.c **** 
 583:.\DSP\Source\TransformFunctions/arm_cfft_q15.c ****             arm_bitreversal_16_inpl_mve((uint16_t*)pSrc, S->bitRevLength, S->pBitRevTable);
 584:.\DSP\Source\TransformFunctions/arm_cfft_q15.c **** 
 585:.\DSP\Source\TransformFunctions/arm_cfft_q15.c ****         }
 586:.\DSP\Source\TransformFunctions/arm_cfft_q15.c **** }
 587:.\DSP\Source\TransformFunctions/arm_cfft_q15.c **** 
 588:.\DSP\Source\TransformFunctions/arm_cfft_q15.c **** #else
 589:.\DSP\Source\TransformFunctions/arm_cfft_q15.c **** 
 590:.\DSP\Source\TransformFunctions/arm_cfft_q15.c **** extern void arm_radix4_butterfly_q15(
 591:.\DSP\Source\TransformFunctions/arm_cfft_q15.c ****         q15_t * pSrc,
 592:.\DSP\Source\TransformFunctions/arm_cfft_q15.c ****         uint32_t fftLen,
 593:.\DSP\Source\TransformFunctions/arm_cfft_q15.c ****   const q15_t * pCoef,
 594:.\DSP\Source\TransformFunctions/arm_cfft_q15.c ****         uint32_t twidCoefModifier);
 595:.\DSP\Source\TransformFunctions/arm_cfft_q15.c **** 
 596:.\DSP\Source\TransformFunctions/arm_cfft_q15.c **** extern void arm_radix4_butterfly_inverse_q15(
 597:.\DSP\Source\TransformFunctions/arm_cfft_q15.c ****         q15_t * pSrc,
 598:.\DSP\Source\TransformFunctions/arm_cfft_q15.c ****         uint32_t fftLen,
 599:.\DSP\Source\TransformFunctions/arm_cfft_q15.c ****   const q15_t * pCoef,
 600:.\DSP\Source\TransformFunctions/arm_cfft_q15.c ****         uint32_t twidCoefModifier);
 601:.\DSP\Source\TransformFunctions/arm_cfft_q15.c **** 
ARM GAS  C:\Users\IVYLIU~1\AppData\Local\Temp\ccgXWaBA.s 			page 12


 602:.\DSP\Source\TransformFunctions/arm_cfft_q15.c **** extern void arm_bitreversal_16(
 603:.\DSP\Source\TransformFunctions/arm_cfft_q15.c ****         uint16_t * pSrc,
 604:.\DSP\Source\TransformFunctions/arm_cfft_q15.c ****   const uint16_t bitRevLen,
 605:.\DSP\Source\TransformFunctions/arm_cfft_q15.c ****   const uint16_t * pBitRevTable);
 606:.\DSP\Source\TransformFunctions/arm_cfft_q15.c **** 
 607:.\DSP\Source\TransformFunctions/arm_cfft_q15.c **** void arm_cfft_radix4by2_q15(
 608:.\DSP\Source\TransformFunctions/arm_cfft_q15.c ****         q15_t * pSrc,
 609:.\DSP\Source\TransformFunctions/arm_cfft_q15.c ****         uint32_t fftLen,
 610:.\DSP\Source\TransformFunctions/arm_cfft_q15.c ****   const q15_t * pCoef);
 611:.\DSP\Source\TransformFunctions/arm_cfft_q15.c **** 
 612:.\DSP\Source\TransformFunctions/arm_cfft_q15.c **** void arm_cfft_radix4by2_inverse_q15(
 613:.\DSP\Source\TransformFunctions/arm_cfft_q15.c ****         q15_t * pSrc,
 614:.\DSP\Source\TransformFunctions/arm_cfft_q15.c ****         uint32_t fftLen,
 615:.\DSP\Source\TransformFunctions/arm_cfft_q15.c ****   const q15_t * pCoef);
 616:.\DSP\Source\TransformFunctions/arm_cfft_q15.c **** 
 617:.\DSP\Source\TransformFunctions/arm_cfft_q15.c **** /**
 618:.\DSP\Source\TransformFunctions/arm_cfft_q15.c ****   @ingroup groupTransforms
 619:.\DSP\Source\TransformFunctions/arm_cfft_q15.c ****  */
 620:.\DSP\Source\TransformFunctions/arm_cfft_q15.c **** 
 621:.\DSP\Source\TransformFunctions/arm_cfft_q15.c **** /**
 622:.\DSP\Source\TransformFunctions/arm_cfft_q15.c ****   @addtogroup ComplexFFT
 623:.\DSP\Source\TransformFunctions/arm_cfft_q15.c ****   @{
 624:.\DSP\Source\TransformFunctions/arm_cfft_q15.c ****  */
 625:.\DSP\Source\TransformFunctions/arm_cfft_q15.c **** 
 626:.\DSP\Source\TransformFunctions/arm_cfft_q15.c **** /**
 627:.\DSP\Source\TransformFunctions/arm_cfft_q15.c ****   @brief         Processing function for Q15 complex FFT.
 628:.\DSP\Source\TransformFunctions/arm_cfft_q15.c ****   @param[in]     S               points to an instance of Q15 CFFT structure
 629:.\DSP\Source\TransformFunctions/arm_cfft_q15.c ****   @param[in,out] p1              points to the complex data buffer of size <code>2*fftLen</code>. P
 630:.\DSP\Source\TransformFunctions/arm_cfft_q15.c ****   @param[in]     ifftFlag       flag that selects transform direction
 631:.\DSP\Source\TransformFunctions/arm_cfft_q15.c ****                    - value = 0: forward transform
 632:.\DSP\Source\TransformFunctions/arm_cfft_q15.c ****                    - value = 1: inverse transform
 633:.\DSP\Source\TransformFunctions/arm_cfft_q15.c ****   @param[in]     bitReverseFlag flag that enables / disables bit reversal of output
 634:.\DSP\Source\TransformFunctions/arm_cfft_q15.c ****                    - value = 0: disables bit reversal of output
 635:.\DSP\Source\TransformFunctions/arm_cfft_q15.c ****                    - value = 1: enables bit reversal of output
 636:.\DSP\Source\TransformFunctions/arm_cfft_q15.c ****   @return        none
 637:.\DSP\Source\TransformFunctions/arm_cfft_q15.c ****  */
 638:.\DSP\Source\TransformFunctions/arm_cfft_q15.c **** 
 639:.\DSP\Source\TransformFunctions/arm_cfft_q15.c **** void arm_cfft_q15(
 640:.\DSP\Source\TransformFunctions/arm_cfft_q15.c ****   const arm_cfft_instance_q15 * S,
 641:.\DSP\Source\TransformFunctions/arm_cfft_q15.c ****         q15_t * p1,
 642:.\DSP\Source\TransformFunctions/arm_cfft_q15.c ****         uint8_t ifftFlag,
 643:.\DSP\Source\TransformFunctions/arm_cfft_q15.c ****         uint8_t bitReverseFlag)
 644:.\DSP\Source\TransformFunctions/arm_cfft_q15.c **** {
 645:.\DSP\Source\TransformFunctions/arm_cfft_q15.c ****   uint32_t L = S->fftLen;
 646:.\DSP\Source\TransformFunctions/arm_cfft_q15.c **** 
 647:.\DSP\Source\TransformFunctions/arm_cfft_q15.c ****   if (ifftFlag == 1U)
 648:.\DSP\Source\TransformFunctions/arm_cfft_q15.c ****   {
 649:.\DSP\Source\TransformFunctions/arm_cfft_q15.c ****      switch (L)
 650:.\DSP\Source\TransformFunctions/arm_cfft_q15.c ****      {
 651:.\DSP\Source\TransformFunctions/arm_cfft_q15.c ****      case 16:
 652:.\DSP\Source\TransformFunctions/arm_cfft_q15.c ****      case 64:
 653:.\DSP\Source\TransformFunctions/arm_cfft_q15.c ****      case 256:
 654:.\DSP\Source\TransformFunctions/arm_cfft_q15.c ****      case 1024:
 655:.\DSP\Source\TransformFunctions/arm_cfft_q15.c ****      case 4096:
 656:.\DSP\Source\TransformFunctions/arm_cfft_q15.c ****        arm_radix4_butterfly_inverse_q15 ( p1, L, (q15_t*)S->pTwiddle, 1 );
 657:.\DSP\Source\TransformFunctions/arm_cfft_q15.c ****        break;
 658:.\DSP\Source\TransformFunctions/arm_cfft_q15.c **** 
ARM GAS  C:\Users\IVYLIU~1\AppData\Local\Temp\ccgXWaBA.s 			page 13


 659:.\DSP\Source\TransformFunctions/arm_cfft_q15.c ****      case 32:
 660:.\DSP\Source\TransformFunctions/arm_cfft_q15.c ****      case 128:
 661:.\DSP\Source\TransformFunctions/arm_cfft_q15.c ****      case 512:
 662:.\DSP\Source\TransformFunctions/arm_cfft_q15.c ****      case 2048:
 663:.\DSP\Source\TransformFunctions/arm_cfft_q15.c ****        arm_cfft_radix4by2_inverse_q15 ( p1, L, S->pTwiddle );
 664:.\DSP\Source\TransformFunctions/arm_cfft_q15.c ****        break;
 665:.\DSP\Source\TransformFunctions/arm_cfft_q15.c ****      }
 666:.\DSP\Source\TransformFunctions/arm_cfft_q15.c ****   }
 667:.\DSP\Source\TransformFunctions/arm_cfft_q15.c ****   else
 668:.\DSP\Source\TransformFunctions/arm_cfft_q15.c ****   {
 669:.\DSP\Source\TransformFunctions/arm_cfft_q15.c ****      switch (L)
 670:.\DSP\Source\TransformFunctions/arm_cfft_q15.c ****      {
 671:.\DSP\Source\TransformFunctions/arm_cfft_q15.c ****      case 16:
 672:.\DSP\Source\TransformFunctions/arm_cfft_q15.c ****      case 64:
 673:.\DSP\Source\TransformFunctions/arm_cfft_q15.c ****      case 256:
 674:.\DSP\Source\TransformFunctions/arm_cfft_q15.c ****      case 1024:
 675:.\DSP\Source\TransformFunctions/arm_cfft_q15.c ****      case 4096:
 676:.\DSP\Source\TransformFunctions/arm_cfft_q15.c ****        arm_radix4_butterfly_q15  ( p1, L, (q15_t*)S->pTwiddle, 1 );
 677:.\DSP\Source\TransformFunctions/arm_cfft_q15.c ****        break;
 678:.\DSP\Source\TransformFunctions/arm_cfft_q15.c **** 
 679:.\DSP\Source\TransformFunctions/arm_cfft_q15.c ****      case 32:
 680:.\DSP\Source\TransformFunctions/arm_cfft_q15.c ****      case 128:
 681:.\DSP\Source\TransformFunctions/arm_cfft_q15.c ****      case 512:
 682:.\DSP\Source\TransformFunctions/arm_cfft_q15.c ****      case 2048:
 683:.\DSP\Source\TransformFunctions/arm_cfft_q15.c ****        arm_cfft_radix4by2_q15  ( p1, L, S->pTwiddle );
 684:.\DSP\Source\TransformFunctions/arm_cfft_q15.c ****        break;
 685:.\DSP\Source\TransformFunctions/arm_cfft_q15.c ****      }
 686:.\DSP\Source\TransformFunctions/arm_cfft_q15.c ****   }
 687:.\DSP\Source\TransformFunctions/arm_cfft_q15.c **** 
 688:.\DSP\Source\TransformFunctions/arm_cfft_q15.c ****   if ( bitReverseFlag )
 689:.\DSP\Source\TransformFunctions/arm_cfft_q15.c ****     arm_bitreversal_16 ((uint16_t*) p1, S->bitRevLength, S->pBitRevTable);
 690:.\DSP\Source\TransformFunctions/arm_cfft_q15.c **** }
 691:.\DSP\Source\TransformFunctions/arm_cfft_q15.c **** 
 692:.\DSP\Source\TransformFunctions/arm_cfft_q15.c **** /**
 693:.\DSP\Source\TransformFunctions/arm_cfft_q15.c ****   @} end of ComplexFFT group
 694:.\DSP\Source\TransformFunctions/arm_cfft_q15.c ****  */
 695:.\DSP\Source\TransformFunctions/arm_cfft_q15.c **** 
 696:.\DSP\Source\TransformFunctions/arm_cfft_q15.c **** void arm_cfft_radix4by2_q15(
 697:.\DSP\Source\TransformFunctions/arm_cfft_q15.c ****         q15_t * pSrc,
 698:.\DSP\Source\TransformFunctions/arm_cfft_q15.c ****         uint32_t fftLen,
 699:.\DSP\Source\TransformFunctions/arm_cfft_q15.c ****   const q15_t * pCoef)
 700:.\DSP\Source\TransformFunctions/arm_cfft_q15.c **** {
  27              		.loc 1 700 0
  28              		.cfi_startproc
  29              		@ args = 0, pretend = 0, frame = 0
  30              		@ frame_needed = 0, uses_anonymous_args = 0
  31              	.LVL0:
  32 0000 2DE9F84F 		push	{r3, r4, r5, r6, r7, r8, r9, r10, fp, lr}
  33              		.cfi_def_cfa_offset 40
  34              		.cfi_offset 3, -40
  35              		.cfi_offset 4, -36
  36              		.cfi_offset 5, -32
  37              		.cfi_offset 6, -28
  38              		.cfi_offset 7, -24
  39              		.cfi_offset 8, -20
  40              		.cfi_offset 9, -16
  41              		.cfi_offset 10, -12
ARM GAS  C:\Users\IVYLIU~1\AppData\Local\Temp\ccgXWaBA.s 			page 14


  42              		.cfi_offset 11, -8
  43              		.cfi_offset 14, -4
  44 0004 0446     		mov	r4, r0
  45 0006 0F46     		mov	r7, r1
  46 0008 1646     		mov	r6, r2
 701:.\DSP\Source\TransformFunctions/arm_cfft_q15.c ****         uint32_t i;
 702:.\DSP\Source\TransformFunctions/arm_cfft_q15.c ****         uint32_t n2;
 703:.\DSP\Source\TransformFunctions/arm_cfft_q15.c ****         q15_t p0, p1, p2, p3;
 704:.\DSP\Source\TransformFunctions/arm_cfft_q15.c **** #if defined (ARM_MATH_DSP)
 705:.\DSP\Source\TransformFunctions/arm_cfft_q15.c ****         q31_t T, S, R;
 706:.\DSP\Source\TransformFunctions/arm_cfft_q15.c ****         q31_t coeff, out1, out2;
 707:.\DSP\Source\TransformFunctions/arm_cfft_q15.c ****   const q15_t *pC = pCoef;
 708:.\DSP\Source\TransformFunctions/arm_cfft_q15.c ****         q15_t *pSi = pSrc;
 709:.\DSP\Source\TransformFunctions/arm_cfft_q15.c ****         q15_t *pSl = pSrc + fftLen;
 710:.\DSP\Source\TransformFunctions/arm_cfft_q15.c **** #else
 711:.\DSP\Source\TransformFunctions/arm_cfft_q15.c ****         uint32_t l;
 712:.\DSP\Source\TransformFunctions/arm_cfft_q15.c ****         q15_t xt, yt, cosVal, sinVal;
 713:.\DSP\Source\TransformFunctions/arm_cfft_q15.c **** #endif
 714:.\DSP\Source\TransformFunctions/arm_cfft_q15.c **** 
 715:.\DSP\Source\TransformFunctions/arm_cfft_q15.c ****   n2 = fftLen >> 1U;
  47              		.loc 1 715 0
  48 000a 4D08     		lsrs	r5, r1, #1
  49              	.LVL1:
 716:.\DSP\Source\TransformFunctions/arm_cfft_q15.c **** 
 717:.\DSP\Source\TransformFunctions/arm_cfft_q15.c **** #if defined (ARM_MATH_DSP)
 718:.\DSP\Source\TransformFunctions/arm_cfft_q15.c **** 
 719:.\DSP\Source\TransformFunctions/arm_cfft_q15.c ****   for (i = n2; i > 0; i--)
 720:.\DSP\Source\TransformFunctions/arm_cfft_q15.c ****   {
 721:.\DSP\Source\TransformFunctions/arm_cfft_q15.c ****       coeff = read_q15x2_ia (&pC);
 722:.\DSP\Source\TransformFunctions/arm_cfft_q15.c **** 
 723:.\DSP\Source\TransformFunctions/arm_cfft_q15.c ****       T = read_q15x2 (pSi);
 724:.\DSP\Source\TransformFunctions/arm_cfft_q15.c ****       T = __SHADD16(T, 0); /* this is just a SIMD arithmetic shift right by 1 */
 725:.\DSP\Source\TransformFunctions/arm_cfft_q15.c **** 
 726:.\DSP\Source\TransformFunctions/arm_cfft_q15.c ****       S = read_q15x2 (pSl);
 727:.\DSP\Source\TransformFunctions/arm_cfft_q15.c ****       S = __SHADD16(S, 0); /* this is just a SIMD arithmetic shift right by 1 */
 728:.\DSP\Source\TransformFunctions/arm_cfft_q15.c **** 
 729:.\DSP\Source\TransformFunctions/arm_cfft_q15.c ****       R = __QSUB16(T, S);
 730:.\DSP\Source\TransformFunctions/arm_cfft_q15.c **** 
 731:.\DSP\Source\TransformFunctions/arm_cfft_q15.c ****       write_q15x2_ia (&pSi, __SHADD16(T, S));
 732:.\DSP\Source\TransformFunctions/arm_cfft_q15.c **** 
 733:.\DSP\Source\TransformFunctions/arm_cfft_q15.c **** #ifndef ARM_MATH_BIG_ENDIAN
 734:.\DSP\Source\TransformFunctions/arm_cfft_q15.c ****       out1 = __SMUAD(coeff, R) >> 16U;
 735:.\DSP\Source\TransformFunctions/arm_cfft_q15.c ****       out2 = __SMUSDX(coeff, R);
 736:.\DSP\Source\TransformFunctions/arm_cfft_q15.c **** #else
 737:.\DSP\Source\TransformFunctions/arm_cfft_q15.c ****       out1 = __SMUSDX(R, coeff) >> 16U;
 738:.\DSP\Source\TransformFunctions/arm_cfft_q15.c ****       out2 = __SMUAD(coeff, R);
 739:.\DSP\Source\TransformFunctions/arm_cfft_q15.c **** #endif /* #ifndef ARM_MATH_BIG_ENDIAN */
 740:.\DSP\Source\TransformFunctions/arm_cfft_q15.c **** 
 741:.\DSP\Source\TransformFunctions/arm_cfft_q15.c ****       write_q15x2_ia (&pSl, (q31_t)__PKHBT( out1, out2, 0 ) );
 742:.\DSP\Source\TransformFunctions/arm_cfft_q15.c ****   }
 743:.\DSP\Source\TransformFunctions/arm_cfft_q15.c **** 
 744:.\DSP\Source\TransformFunctions/arm_cfft_q15.c **** #else /* #if defined (ARM_MATH_DSP) */
 745:.\DSP\Source\TransformFunctions/arm_cfft_q15.c **** 
 746:.\DSP\Source\TransformFunctions/arm_cfft_q15.c ****   for (i = 0; i < n2; i++)
  50              		.loc 1 746 0
  51 000c 0021     		movs	r1, #0
  52              	.LVL2:
ARM GAS  C:\Users\IVYLIU~1\AppData\Local\Temp\ccgXWaBA.s 			page 15


  53 000e 44E0     		b	.L2
  54              	.LVL3:
  55              	.L3:
 747:.\DSP\Source\TransformFunctions/arm_cfft_q15.c ****   {
 748:.\DSP\Source\TransformFunctions/arm_cfft_q15.c ****      cosVal = pCoef[2 * i];
  56              		.loc 1 748 0 discriminator 3
  57 0010 8800     		lsls	r0, r1, #2
  58 0012 36F82180 		ldrh	r8, [r6, r1, lsl #2]
  59              	.LVL4:
 749:.\DSP\Source\TransformFunctions/arm_cfft_q15.c ****      sinVal = pCoef[2 * i + 1];
  60              		.loc 1 749 0 discriminator 3
  61 0016 0230     		adds	r0, r0, #2
  62 0018 335A     		ldrh	r3, [r6, r0]
  63              	.LVL5:
 750:.\DSP\Source\TransformFunctions/arm_cfft_q15.c **** 
 751:.\DSP\Source\TransformFunctions/arm_cfft_q15.c ****      l = i + n2;
  64              		.loc 1 751 0 discriminator 3
  65 001a 01EB0509 		add	r9, r1, r5
  66              	.LVL6:
 752:.\DSP\Source\TransformFunctions/arm_cfft_q15.c **** 
 753:.\DSP\Source\TransformFunctions/arm_cfft_q15.c ****      xt =           (pSrc[2 * i] >> 1U) - (pSrc[2 * l] >> 1U);
  67              		.loc 1 753 0 discriminator 3
  68 001e 34F921A0 		ldrsh	r10, [r4, r1, lsl #2]
  69 0022 CAF34F0A 		ubfx	r10, r10, #1, #16
  70 0026 4FEA890E 		lsl	lr, r9, #2
  71 002a 34F92920 		ldrsh	r2, [r4, r9, lsl #2]
  72 002e C2F34F02 		ubfx	r2, r2, #1, #16
  73 0032 C2EB0A0C 		rsb	ip, r2, r10
  74              	.LVL7:
 754:.\DSP\Source\TransformFunctions/arm_cfft_q15.c ****      pSrc[2 * i] = ((pSrc[2 * i] >> 1U) + (pSrc[2 * l] >> 1U)) >> 1U;
  75              		.loc 1 754 0 discriminator 3
  76 0036 0FFA8AFA 		sxth	r10, r10
  77 003a 12B2     		sxth	r2, r2
  78 003c 5244     		add	r2, r2, r10
  79 003e 5210     		asrs	r2, r2, #1
  80 0040 24F82120 		strh	r2, [r4, r1, lsl #2]	@ movhi
 755:.\DSP\Source\TransformFunctions/arm_cfft_q15.c **** 
 756:.\DSP\Source\TransformFunctions/arm_cfft_q15.c ****      yt =               (pSrc[2 * i + 1] >> 1U) - (pSrc[2 * l + 1] >> 1U);
  81              		.loc 1 756 0 discriminator 3
  82 0044 225E     		ldrsh	r2, [r4, r0]
  83 0046 C2F34F02 		ubfx	r2, r2, #1, #16
  84 004a 0EF1020E 		add	lr, lr, #2
  85 004e 34F90EB0 		ldrsh	fp, [r4, lr]
  86 0052 CBF34F0B 		ubfx	fp, fp, #1, #16
  87 0056 CBEB020A 		rsb	r10, fp, r2
  88              	.LVL8:
 757:.\DSP\Source\TransformFunctions/arm_cfft_q15.c ****      pSrc[2 * i + 1] = ((pSrc[2 * l + 1] >> 1U) + (pSrc[2 * i + 1] >> 1U)) >> 1U;
  89              		.loc 1 757 0 discriminator 3
  90 005a 0FFA8BFB 		sxth	fp, fp
  91 005e 12B2     		sxth	r2, r2
  92 0060 5A44     		add	r2, r2, fp
  93 0062 5210     		asrs	r2, r2, #1
  94 0064 2252     		strh	r2, [r4, r0]	@ movhi
 758:.\DSP\Source\TransformFunctions/arm_cfft_q15.c **** 
 759:.\DSP\Source\TransformFunctions/arm_cfft_q15.c ****      pSrc[2 * l]     = (((int16_t) (((q31_t) xt * cosVal) >> 16U)) +
  95              		.loc 1 759 0 discriminator 3
  96 0066 0FFA8CFC 		sxth	ip, ip
ARM GAS  C:\Users\IVYLIU~1\AppData\Local\Temp\ccgXWaBA.s 			page 16


  97 006a 0FFA88F8 		sxth	r8, r8
  98 006e 08FB0CF0 		mul	r0, r8, ip
 760:.\DSP\Source\TransformFunctions/arm_cfft_q15.c ****                         ((int16_t) (((q31_t) yt * sinVal) >> 16U))  );
  99              		.loc 1 760 0 discriminator 3
 100 0072 0FFA8AFA 		sxth	r10, r10
 101 0076 1BB2     		sxth	r3, r3
 102 0078 03FB0AF2 		mul	r2, r3, r10
 103 007c 1214     		asrs	r2, r2, #16
 759:.\DSP\Source\TransformFunctions/arm_cfft_q15.c ****                         ((int16_t) (((q31_t) yt * sinVal) >> 16U))  );
 104              		.loc 1 759 0 discriminator 3
 105 007e 02EB2042 		add	r2, r2, r0, asr #16
 106 0082 24F82920 		strh	r2, [r4, r9, lsl #2]	@ movhi
 761:.\DSP\Source\TransformFunctions/arm_cfft_q15.c **** 
 762:.\DSP\Source\TransformFunctions/arm_cfft_q15.c ****      pSrc[2 * l + 1] = (((int16_t) (((q31_t) yt * cosVal) >> 16U)) -
 107              		.loc 1 762 0 discriminator 3
 108 0086 0AFB08FA 		mul	r10, r10, r8
 109              	.LVL9:
 763:.\DSP\Source\TransformFunctions/arm_cfft_q15.c ****                         ((int16_t) (((q31_t) xt * sinVal) >> 16U))   );
 110              		.loc 1 763 0 discriminator 3
 111 008a 03FB0CF3 		mul	r3, r3, ip
 112              	.LVL10:
 113 008e 1B14     		asrs	r3, r3, #16
 762:.\DSP\Source\TransformFunctions/arm_cfft_q15.c ****                         ((int16_t) (((q31_t) xt * sinVal) >> 16U))   );
 114              		.loc 1 762 0 discriminator 3
 115 0090 C3EB2A43 		rsb	r3, r3, r10, asr #16
 116 0094 24F80E30 		strh	r3, [r4, lr]	@ movhi
 746:.\DSP\Source\TransformFunctions/arm_cfft_q15.c ****   {
 117              		.loc 1 746 0 discriminator 3
 118 0098 0131     		adds	r1, r1, #1
 119              	.LVL11:
 120              	.L2:
 746:.\DSP\Source\TransformFunctions/arm_cfft_q15.c ****   {
 121              		.loc 1 746 0 is_stmt 0 discriminator 1
 122 009a A942     		cmp	r1, r5
 123 009c B8D3     		bcc	.L3
 764:.\DSP\Source\TransformFunctions/arm_cfft_q15.c ****   }
 765:.\DSP\Source\TransformFunctions/arm_cfft_q15.c **** 
 766:.\DSP\Source\TransformFunctions/arm_cfft_q15.c **** #endif /* #if defined (ARM_MATH_DSP) */
 767:.\DSP\Source\TransformFunctions/arm_cfft_q15.c **** 
 768:.\DSP\Source\TransformFunctions/arm_cfft_q15.c ****   /* first col */
 769:.\DSP\Source\TransformFunctions/arm_cfft_q15.c ****   arm_radix4_butterfly_q15( pSrc,          n2, (q15_t*)pCoef, 2U);
 124              		.loc 1 769 0 is_stmt 1
 125 009e 2046     		mov	r0, r4
 126 00a0 2946     		mov	r1, r5
 127              	.LVL12:
 128 00a2 3246     		mov	r2, r6
 129 00a4 0223     		movs	r3, #2
 130 00a6 FFF7FEFF 		bl	arm_radix4_butterfly_q15
 131              	.LVL13:
 770:.\DSP\Source\TransformFunctions/arm_cfft_q15.c **** 
 771:.\DSP\Source\TransformFunctions/arm_cfft_q15.c ****   /* second col */
 772:.\DSP\Source\TransformFunctions/arm_cfft_q15.c ****   arm_radix4_butterfly_q15( pSrc + fftLen, n2, (q15_t*)pCoef, 2U);
 132              		.loc 1 772 0
 133 00aa 04EB4700 		add	r0, r4, r7, lsl #1
 134 00ae 2946     		mov	r1, r5
 135 00b0 3246     		mov	r2, r6
 136 00b2 0223     		movs	r3, #2
ARM GAS  C:\Users\IVYLIU~1\AppData\Local\Temp\ccgXWaBA.s 			page 17


 137 00b4 FFF7FEFF 		bl	arm_radix4_butterfly_q15
 138              	.LVL14:
 773:.\DSP\Source\TransformFunctions/arm_cfft_q15.c **** 
 774:.\DSP\Source\TransformFunctions/arm_cfft_q15.c ****   n2 = fftLen >> 1U;
 775:.\DSP\Source\TransformFunctions/arm_cfft_q15.c ****   for (i = 0; i < n2; i++)
 139              		.loc 1 775 0
 140 00b8 0022     		movs	r2, #0
 141 00ba 18E0     		b	.L4
 142              	.LVL15:
 143              	.L5:
 776:.\DSP\Source\TransformFunctions/arm_cfft_q15.c ****   {
 777:.\DSP\Source\TransformFunctions/arm_cfft_q15.c ****      p0 = pSrc[4 * i + 0];
 144              		.loc 1 777 0 discriminator 3
 145 00bc D300     		lsls	r3, r2, #3
 146              	.LVL16:
 778:.\DSP\Source\TransformFunctions/arm_cfft_q15.c ****      p1 = pSrc[4 * i + 1];
 147              		.loc 1 778 0 discriminator 3
 148 00be 03F1020C 		add	ip, r3, #2
 149              	.LVL17:
 779:.\DSP\Source\TransformFunctions/arm_cfft_q15.c ****      p2 = pSrc[4 * i + 2];
 150              		.loc 1 779 0 discriminator 3
 151 00c2 03F1040E 		add	lr, r3, #4
 152              	.LVL18:
 780:.\DSP\Source\TransformFunctions/arm_cfft_q15.c ****      p3 = pSrc[4 * i + 3];
 153              		.loc 1 780 0 discriminator 3
 154 00c6 0633     		adds	r3, r3, #6
 155              	.LVL19:
 781:.\DSP\Source\TransformFunctions/arm_cfft_q15.c **** 
 782:.\DSP\Source\TransformFunctions/arm_cfft_q15.c ****      p0 <<= 1U;
 156              		.loc 1 782 0 discriminator 3
 157 00c8 34F93270 		ldrsh	r7, [r4, r2, lsl #3]
 158 00cc 7F00     		lsls	r7, r7, #1
 159              	.LVL20:
 783:.\DSP\Source\TransformFunctions/arm_cfft_q15.c ****      p1 <<= 1U;
 160              		.loc 1 783 0 discriminator 3
 161 00ce 34F90C60 		ldrsh	r6, [r4, ip]
 162 00d2 7600     		lsls	r6, r6, #1
 163              	.LVL21:
 784:.\DSP\Source\TransformFunctions/arm_cfft_q15.c ****      p2 <<= 1U;
 164              		.loc 1 784 0 discriminator 3
 165 00d4 34F90E00 		ldrsh	r0, [r4, lr]
 166 00d8 4000     		lsls	r0, r0, #1
 167              	.LVL22:
 785:.\DSP\Source\TransformFunctions/arm_cfft_q15.c ****      p3 <<= 1U;
 168              		.loc 1 785 0 discriminator 3
 169 00da E15E     		ldrsh	r1, [r4, r3]
 170 00dc 4900     		lsls	r1, r1, #1
 171              	.LVL23:
 786:.\DSP\Source\TransformFunctions/arm_cfft_q15.c **** 
 787:.\DSP\Source\TransformFunctions/arm_cfft_q15.c ****      pSrc[4 * i + 0] = p0;
 172              		.loc 1 787 0 discriminator 3
 173 00de 24F83270 		strh	r7, [r4, r2, lsl #3]	@ movhi
 788:.\DSP\Source\TransformFunctions/arm_cfft_q15.c ****      pSrc[4 * i + 1] = p1;
 174              		.loc 1 788 0 discriminator 3
 175 00e2 24F80C60 		strh	r6, [r4, ip]	@ movhi
 789:.\DSP\Source\TransformFunctions/arm_cfft_q15.c ****      pSrc[4 * i + 2] = p2;
 176              		.loc 1 789 0 discriminator 3
ARM GAS  C:\Users\IVYLIU~1\AppData\Local\Temp\ccgXWaBA.s 			page 18


 177 00e6 24F80E00 		strh	r0, [r4, lr]	@ movhi
 790:.\DSP\Source\TransformFunctions/arm_cfft_q15.c ****      pSrc[4 * i + 3] = p3;
 178              		.loc 1 790 0 discriminator 3
 179 00ea E152     		strh	r1, [r4, r3]	@ movhi
 775:.\DSP\Source\TransformFunctions/arm_cfft_q15.c ****   {
 180              		.loc 1 775 0 discriminator 3
 181 00ec 0132     		adds	r2, r2, #1
 182              	.LVL24:
 183              	.L4:
 775:.\DSP\Source\TransformFunctions/arm_cfft_q15.c ****   {
 184              		.loc 1 775 0 is_stmt 0 discriminator 1
 185 00ee AA42     		cmp	r2, r5
 186 00f0 E4D3     		bcc	.L5
 791:.\DSP\Source\TransformFunctions/arm_cfft_q15.c ****   }
 792:.\DSP\Source\TransformFunctions/arm_cfft_q15.c **** 
 793:.\DSP\Source\TransformFunctions/arm_cfft_q15.c **** }
 187              		.loc 1 793 0 is_stmt 1
 188 00f2 BDE8F88F 		pop	{r3, r4, r5, r6, r7, r8, r9, r10, fp, pc}
 189              		.cfi_endproc
 190              	.LFE85:
 191              		.size	arm_cfft_radix4by2_q15, .-arm_cfft_radix4by2_q15
 192 00f6 00BF     		.section	.text.arm_cfft_radix4by2_inverse_q15,"ax",%progbits
 193              		.align	2
 194              		.global	arm_cfft_radix4by2_inverse_q15
 195              		.thumb
 196              		.thumb_func
 197              		.type	arm_cfft_radix4by2_inverse_q15, %function
 198              	arm_cfft_radix4by2_inverse_q15:
 199              	.LFB86:
 794:.\DSP\Source\TransformFunctions/arm_cfft_q15.c **** 
 795:.\DSP\Source\TransformFunctions/arm_cfft_q15.c **** void arm_cfft_radix4by2_inverse_q15(
 796:.\DSP\Source\TransformFunctions/arm_cfft_q15.c ****         q15_t * pSrc,
 797:.\DSP\Source\TransformFunctions/arm_cfft_q15.c ****         uint32_t fftLen,
 798:.\DSP\Source\TransformFunctions/arm_cfft_q15.c ****   const q15_t * pCoef)
 799:.\DSP\Source\TransformFunctions/arm_cfft_q15.c **** {
 200              		.loc 1 799 0
 201              		.cfi_startproc
 202              		@ args = 0, pretend = 0, frame = 0
 203              		@ frame_needed = 0, uses_anonymous_args = 0
 204              	.LVL25:
 205 0000 2DE9F84F 		push	{r3, r4, r5, r6, r7, r8, r9, r10, fp, lr}
 206              		.cfi_def_cfa_offset 40
 207              		.cfi_offset 3, -40
 208              		.cfi_offset 4, -36
 209              		.cfi_offset 5, -32
 210              		.cfi_offset 6, -28
 211              		.cfi_offset 7, -24
 212              		.cfi_offset 8, -20
 213              		.cfi_offset 9, -16
 214              		.cfi_offset 10, -12
 215              		.cfi_offset 11, -8
 216              		.cfi_offset 14, -4
 217 0004 0446     		mov	r4, r0
 218 0006 0F46     		mov	r7, r1
 219 0008 1646     		mov	r6, r2
 800:.\DSP\Source\TransformFunctions/arm_cfft_q15.c ****         uint32_t i;
 801:.\DSP\Source\TransformFunctions/arm_cfft_q15.c ****         uint32_t n2;
ARM GAS  C:\Users\IVYLIU~1\AppData\Local\Temp\ccgXWaBA.s 			page 19


 802:.\DSP\Source\TransformFunctions/arm_cfft_q15.c ****         q15_t p0, p1, p2, p3;
 803:.\DSP\Source\TransformFunctions/arm_cfft_q15.c **** #if defined (ARM_MATH_DSP)
 804:.\DSP\Source\TransformFunctions/arm_cfft_q15.c ****         q31_t T, S, R;
 805:.\DSP\Source\TransformFunctions/arm_cfft_q15.c ****         q31_t coeff, out1, out2;
 806:.\DSP\Source\TransformFunctions/arm_cfft_q15.c ****   const q15_t *pC = pCoef;
 807:.\DSP\Source\TransformFunctions/arm_cfft_q15.c ****         q15_t *pSi = pSrc;
 808:.\DSP\Source\TransformFunctions/arm_cfft_q15.c ****         q15_t *pSl = pSrc + fftLen;
 809:.\DSP\Source\TransformFunctions/arm_cfft_q15.c **** #else
 810:.\DSP\Source\TransformFunctions/arm_cfft_q15.c ****         uint32_t l;
 811:.\DSP\Source\TransformFunctions/arm_cfft_q15.c ****         q15_t xt, yt, cosVal, sinVal;
 812:.\DSP\Source\TransformFunctions/arm_cfft_q15.c **** #endif
 813:.\DSP\Source\TransformFunctions/arm_cfft_q15.c **** 
 814:.\DSP\Source\TransformFunctions/arm_cfft_q15.c ****   n2 = fftLen >> 1U;
 220              		.loc 1 814 0
 221 000a 4D08     		lsrs	r5, r1, #1
 222              	.LVL26:
 815:.\DSP\Source\TransformFunctions/arm_cfft_q15.c **** 
 816:.\DSP\Source\TransformFunctions/arm_cfft_q15.c **** #if defined (ARM_MATH_DSP)
 817:.\DSP\Source\TransformFunctions/arm_cfft_q15.c **** 
 818:.\DSP\Source\TransformFunctions/arm_cfft_q15.c ****   for (i = n2; i > 0; i--)
 819:.\DSP\Source\TransformFunctions/arm_cfft_q15.c ****   {
 820:.\DSP\Source\TransformFunctions/arm_cfft_q15.c ****      coeff = read_q15x2_ia (&pC);
 821:.\DSP\Source\TransformFunctions/arm_cfft_q15.c **** 
 822:.\DSP\Source\TransformFunctions/arm_cfft_q15.c ****      T = read_q15x2 (pSi);
 823:.\DSP\Source\TransformFunctions/arm_cfft_q15.c ****      T = __SHADD16(T, 0); /* this is just a SIMD arithmetic shift right by 1 */
 824:.\DSP\Source\TransformFunctions/arm_cfft_q15.c **** 
 825:.\DSP\Source\TransformFunctions/arm_cfft_q15.c ****      S = read_q15x2 (pSl);
 826:.\DSP\Source\TransformFunctions/arm_cfft_q15.c ****      S = __SHADD16(S, 0); /* this is just a SIMD arithmetic shift right by 1 */
 827:.\DSP\Source\TransformFunctions/arm_cfft_q15.c **** 
 828:.\DSP\Source\TransformFunctions/arm_cfft_q15.c ****      R = __QSUB16(T, S);
 829:.\DSP\Source\TransformFunctions/arm_cfft_q15.c **** 
 830:.\DSP\Source\TransformFunctions/arm_cfft_q15.c ****      write_q15x2_ia (&pSi, __SHADD16(T, S));
 831:.\DSP\Source\TransformFunctions/arm_cfft_q15.c **** 
 832:.\DSP\Source\TransformFunctions/arm_cfft_q15.c **** #ifndef ARM_MATH_BIG_ENDIAN
 833:.\DSP\Source\TransformFunctions/arm_cfft_q15.c ****      out1 = __SMUSD(coeff, R) >> 16U;
 834:.\DSP\Source\TransformFunctions/arm_cfft_q15.c ****      out2 = __SMUADX(coeff, R);
 835:.\DSP\Source\TransformFunctions/arm_cfft_q15.c **** #else
 836:.\DSP\Source\TransformFunctions/arm_cfft_q15.c ****      out1 = __SMUADX(R, coeff) >> 16U;
 837:.\DSP\Source\TransformFunctions/arm_cfft_q15.c ****      out2 = __SMUSD(__QSUB(0, coeff), R);
 838:.\DSP\Source\TransformFunctions/arm_cfft_q15.c **** #endif /* #ifndef ARM_MATH_BIG_ENDIAN */
 839:.\DSP\Source\TransformFunctions/arm_cfft_q15.c **** 
 840:.\DSP\Source\TransformFunctions/arm_cfft_q15.c ****      write_q15x2_ia (&pSl, (q31_t)__PKHBT( out1, out2, 0 ));
 841:.\DSP\Source\TransformFunctions/arm_cfft_q15.c ****   }
 842:.\DSP\Source\TransformFunctions/arm_cfft_q15.c **** 
 843:.\DSP\Source\TransformFunctions/arm_cfft_q15.c **** #else /* #if defined (ARM_MATH_DSP) */
 844:.\DSP\Source\TransformFunctions/arm_cfft_q15.c **** 
 845:.\DSP\Source\TransformFunctions/arm_cfft_q15.c ****   for (i = 0; i < n2; i++)
 223              		.loc 1 845 0
 224 000c 0021     		movs	r1, #0
 225              	.LVL27:
 226 000e 44E0     		b	.L8
 227              	.LVL28:
 228              	.L9:
 846:.\DSP\Source\TransformFunctions/arm_cfft_q15.c ****   {
 847:.\DSP\Source\TransformFunctions/arm_cfft_q15.c ****      cosVal = pCoef[2 * i];
 229              		.loc 1 847 0 discriminator 3
 230 0010 8800     		lsls	r0, r1, #2
ARM GAS  C:\Users\IVYLIU~1\AppData\Local\Temp\ccgXWaBA.s 			page 20


 231 0012 36F82180 		ldrh	r8, [r6, r1, lsl #2]
 232              	.LVL29:
 848:.\DSP\Source\TransformFunctions/arm_cfft_q15.c ****      sinVal = pCoef[2 * i + 1];
 233              		.loc 1 848 0 discriminator 3
 234 0016 0230     		adds	r0, r0, #2
 235 0018 335A     		ldrh	r3, [r6, r0]
 236              	.LVL30:
 849:.\DSP\Source\TransformFunctions/arm_cfft_q15.c **** 
 850:.\DSP\Source\TransformFunctions/arm_cfft_q15.c ****      l = i + n2;
 237              		.loc 1 850 0 discriminator 3
 238 001a 01EB0509 		add	r9, r1, r5
 239              	.LVL31:
 851:.\DSP\Source\TransformFunctions/arm_cfft_q15.c **** 
 852:.\DSP\Source\TransformFunctions/arm_cfft_q15.c ****      xt =           (pSrc[2 * i] >> 1U) - (pSrc[2 * l] >> 1U);
 240              		.loc 1 852 0 discriminator 3
 241 001e 34F921A0 		ldrsh	r10, [r4, r1, lsl #2]
 242 0022 CAF34F0A 		ubfx	r10, r10, #1, #16
 243 0026 4FEA890E 		lsl	lr, r9, #2
 244 002a 34F92920 		ldrsh	r2, [r4, r9, lsl #2]
 245 002e C2F34F02 		ubfx	r2, r2, #1, #16
 246 0032 C2EB0A0C 		rsb	ip, r2, r10
 247              	.LVL32:
 853:.\DSP\Source\TransformFunctions/arm_cfft_q15.c ****      pSrc[2 * i] = ((pSrc[2 * i] >> 1U) + (pSrc[2 * l] >> 1U)) >> 1U;
 248              		.loc 1 853 0 discriminator 3
 249 0036 0FFA8AFA 		sxth	r10, r10
 250 003a 12B2     		sxth	r2, r2
 251 003c 5244     		add	r2, r2, r10
 252 003e 5210     		asrs	r2, r2, #1
 253 0040 24F82120 		strh	r2, [r4, r1, lsl #2]	@ movhi
 854:.\DSP\Source\TransformFunctions/arm_cfft_q15.c **** 
 855:.\DSP\Source\TransformFunctions/arm_cfft_q15.c ****      yt =               (pSrc[2 * i + 1] >> 1U) - (pSrc[2 * l + 1] >> 1U);
 254              		.loc 1 855 0 discriminator 3
 255 0044 225E     		ldrsh	r2, [r4, r0]
 256 0046 C2F34F02 		ubfx	r2, r2, #1, #16
 257 004a 0EF1020E 		add	lr, lr, #2
 258 004e 34F90EB0 		ldrsh	fp, [r4, lr]
 259 0052 CBF34F0B 		ubfx	fp, fp, #1, #16
 260 0056 CBEB020A 		rsb	r10, fp, r2
 261              	.LVL33:
 856:.\DSP\Source\TransformFunctions/arm_cfft_q15.c ****      pSrc[2 * i + 1] = ((pSrc[2 * l + 1] >> 1U) + (pSrc[2 * i + 1] >> 1U)) >> 1U;
 262              		.loc 1 856 0 discriminator 3
 263 005a 0FFA8BFB 		sxth	fp, fp
 264 005e 12B2     		sxth	r2, r2
 265 0060 5A44     		add	r2, r2, fp
 266 0062 5210     		asrs	r2, r2, #1
 267 0064 2252     		strh	r2, [r4, r0]	@ movhi
 857:.\DSP\Source\TransformFunctions/arm_cfft_q15.c **** 
 858:.\DSP\Source\TransformFunctions/arm_cfft_q15.c ****      pSrc[2 * l]      = (((int16_t) (((q31_t) xt * cosVal) >> 16U)) -
 268              		.loc 1 858 0 discriminator 3
 269 0066 0FFA8CFC 		sxth	ip, ip
 270 006a 0FFA88F8 		sxth	r8, r8
 271 006e 08FB0CF0 		mul	r0, r8, ip
 859:.\DSP\Source\TransformFunctions/arm_cfft_q15.c ****                          ((int16_t) (((q31_t) yt * sinVal) >> 16U))  );
 272              		.loc 1 859 0 discriminator 3
 273 0072 0FFA8AFA 		sxth	r10, r10
 274 0076 1BB2     		sxth	r3, r3
 275 0078 03FB0AF2 		mul	r2, r3, r10
ARM GAS  C:\Users\IVYLIU~1\AppData\Local\Temp\ccgXWaBA.s 			page 21


 276 007c 1214     		asrs	r2, r2, #16
 858:.\DSP\Source\TransformFunctions/arm_cfft_q15.c ****                          ((int16_t) (((q31_t) yt * sinVal) >> 16U))  );
 277              		.loc 1 858 0 discriminator 3
 278 007e C2EB2042 		rsb	r2, r2, r0, asr #16
 279 0082 24F82920 		strh	r2, [r4, r9, lsl #2]	@ movhi
 860:.\DSP\Source\TransformFunctions/arm_cfft_q15.c **** 
 861:.\DSP\Source\TransformFunctions/arm_cfft_q15.c ****      pSrc[2 * l + 1] = (((int16_t) (((q31_t) yt * cosVal) >> 16U)) +
 280              		.loc 1 861 0 discriminator 3
 281 0086 0AFB08FA 		mul	r10, r10, r8
 282              	.LVL34:
 862:.\DSP\Source\TransformFunctions/arm_cfft_q15.c ****                         ((int16_t) (((q31_t) xt * sinVal) >> 16U))  );
 283              		.loc 1 862 0 discriminator 3
 284 008a 03FB0CF3 		mul	r3, r3, ip
 285              	.LVL35:
 286 008e 1B14     		asrs	r3, r3, #16
 861:.\DSP\Source\TransformFunctions/arm_cfft_q15.c ****                         ((int16_t) (((q31_t) xt * sinVal) >> 16U))  );
 287              		.loc 1 861 0 discriminator 3
 288 0090 03EB2A43 		add	r3, r3, r10, asr #16
 289 0094 24F80E30 		strh	r3, [r4, lr]	@ movhi
 845:.\DSP\Source\TransformFunctions/arm_cfft_q15.c ****   {
 290              		.loc 1 845 0 discriminator 3
 291 0098 0131     		adds	r1, r1, #1
 292              	.LVL36:
 293              	.L8:
 845:.\DSP\Source\TransformFunctions/arm_cfft_q15.c ****   {
 294              		.loc 1 845 0 is_stmt 0 discriminator 1
 295 009a A942     		cmp	r1, r5
 296 009c B8D3     		bcc	.L9
 863:.\DSP\Source\TransformFunctions/arm_cfft_q15.c ****   }
 864:.\DSP\Source\TransformFunctions/arm_cfft_q15.c **** 
 865:.\DSP\Source\TransformFunctions/arm_cfft_q15.c **** #endif /* #if defined (ARM_MATH_DSP) */
 866:.\DSP\Source\TransformFunctions/arm_cfft_q15.c **** 
 867:.\DSP\Source\TransformFunctions/arm_cfft_q15.c ****   /* first col */
 868:.\DSP\Source\TransformFunctions/arm_cfft_q15.c ****   arm_radix4_butterfly_inverse_q15( pSrc,          n2, (q15_t*)pCoef, 2U);
 297              		.loc 1 868 0 is_stmt 1
 298 009e 2046     		mov	r0, r4
 299 00a0 2946     		mov	r1, r5
 300              	.LVL37:
 301 00a2 3246     		mov	r2, r6
 302 00a4 0223     		movs	r3, #2
 303 00a6 FFF7FEFF 		bl	arm_radix4_butterfly_inverse_q15
 304              	.LVL38:
 869:.\DSP\Source\TransformFunctions/arm_cfft_q15.c **** 
 870:.\DSP\Source\TransformFunctions/arm_cfft_q15.c ****   /* second col */
 871:.\DSP\Source\TransformFunctions/arm_cfft_q15.c ****   arm_radix4_butterfly_inverse_q15( pSrc + fftLen, n2, (q15_t*)pCoef, 2U);
 305              		.loc 1 871 0
 306 00aa 04EB4700 		add	r0, r4, r7, lsl #1
 307 00ae 2946     		mov	r1, r5
 308 00b0 3246     		mov	r2, r6
 309 00b2 0223     		movs	r3, #2
 310 00b4 FFF7FEFF 		bl	arm_radix4_butterfly_inverse_q15
 311              	.LVL39:
 872:.\DSP\Source\TransformFunctions/arm_cfft_q15.c **** 
 873:.\DSP\Source\TransformFunctions/arm_cfft_q15.c ****   n2 = fftLen >> 1U;
 874:.\DSP\Source\TransformFunctions/arm_cfft_q15.c ****   for (i = 0; i < n2; i++)
 312              		.loc 1 874 0
 313 00b8 0022     		movs	r2, #0
ARM GAS  C:\Users\IVYLIU~1\AppData\Local\Temp\ccgXWaBA.s 			page 22


 314 00ba 18E0     		b	.L10
 315              	.LVL40:
 316              	.L11:
 875:.\DSP\Source\TransformFunctions/arm_cfft_q15.c ****   {
 876:.\DSP\Source\TransformFunctions/arm_cfft_q15.c ****      p0 = pSrc[4 * i + 0];
 317              		.loc 1 876 0 discriminator 3
 318 00bc D300     		lsls	r3, r2, #3
 319              	.LVL41:
 877:.\DSP\Source\TransformFunctions/arm_cfft_q15.c ****      p1 = pSrc[4 * i + 1];
 320              		.loc 1 877 0 discriminator 3
 321 00be 03F1020C 		add	ip, r3, #2
 322              	.LVL42:
 878:.\DSP\Source\TransformFunctions/arm_cfft_q15.c ****      p2 = pSrc[4 * i + 2];
 323              		.loc 1 878 0 discriminator 3
 324 00c2 03F1040E 		add	lr, r3, #4
 325              	.LVL43:
 879:.\DSP\Source\TransformFunctions/arm_cfft_q15.c ****      p3 = pSrc[4 * i + 3];
 326              		.loc 1 879 0 discriminator 3
 327 00c6 0633     		adds	r3, r3, #6
 328              	.LVL44:
 880:.\DSP\Source\TransformFunctions/arm_cfft_q15.c **** 
 881:.\DSP\Source\TransformFunctions/arm_cfft_q15.c ****      p0 <<= 1U;
 329              		.loc 1 881 0 discriminator 3
 330 00c8 34F93270 		ldrsh	r7, [r4, r2, lsl #3]
 331 00cc 7F00     		lsls	r7, r7, #1
 332              	.LVL45:
 882:.\DSP\Source\TransformFunctions/arm_cfft_q15.c ****      p1 <<= 1U;
 333              		.loc 1 882 0 discriminator 3
 334 00ce 34F90C60 		ldrsh	r6, [r4, ip]
 335 00d2 7600     		lsls	r6, r6, #1
 336              	.LVL46:
 883:.\DSP\Source\TransformFunctions/arm_cfft_q15.c ****      p2 <<= 1U;
 337              		.loc 1 883 0 discriminator 3
 338 00d4 34F90E00 		ldrsh	r0, [r4, lr]
 339 00d8 4000     		lsls	r0, r0, #1
 340              	.LVL47:
 884:.\DSP\Source\TransformFunctions/arm_cfft_q15.c ****      p3 <<= 1U;
 341              		.loc 1 884 0 discriminator 3
 342 00da E15E     		ldrsh	r1, [r4, r3]
 343 00dc 4900     		lsls	r1, r1, #1
 344              	.LVL48:
 885:.\DSP\Source\TransformFunctions/arm_cfft_q15.c **** 
 886:.\DSP\Source\TransformFunctions/arm_cfft_q15.c ****      pSrc[4 * i + 0] = p0;
 345              		.loc 1 886 0 discriminator 3
 346 00de 24F83270 		strh	r7, [r4, r2, lsl #3]	@ movhi
 887:.\DSP\Source\TransformFunctions/arm_cfft_q15.c ****      pSrc[4 * i + 1] = p1;
 347              		.loc 1 887 0 discriminator 3
 348 00e2 24F80C60 		strh	r6, [r4, ip]	@ movhi
 888:.\DSP\Source\TransformFunctions/arm_cfft_q15.c ****      pSrc[4 * i + 2] = p2;
 349              		.loc 1 888 0 discriminator 3
 350 00e6 24F80E00 		strh	r0, [r4, lr]	@ movhi
 889:.\DSP\Source\TransformFunctions/arm_cfft_q15.c ****      pSrc[4 * i + 3] = p3;
 351              		.loc 1 889 0 discriminator 3
 352 00ea E152     		strh	r1, [r4, r3]	@ movhi
 874:.\DSP\Source\TransformFunctions/arm_cfft_q15.c ****   {
 353              		.loc 1 874 0 discriminator 3
 354 00ec 0132     		adds	r2, r2, #1
ARM GAS  C:\Users\IVYLIU~1\AppData\Local\Temp\ccgXWaBA.s 			page 23


 355              	.LVL49:
 356              	.L10:
 874:.\DSP\Source\TransformFunctions/arm_cfft_q15.c ****   {
 357              		.loc 1 874 0 is_stmt 0 discriminator 1
 358 00ee AA42     		cmp	r2, r5
 359 00f0 E4D3     		bcc	.L11
 890:.\DSP\Source\TransformFunctions/arm_cfft_q15.c ****   }
 891:.\DSP\Source\TransformFunctions/arm_cfft_q15.c **** }
 360              		.loc 1 891 0 is_stmt 1
 361 00f2 BDE8F88F 		pop	{r3, r4, r5, r6, r7, r8, r9, r10, fp, pc}
 362              		.cfi_endproc
 363              	.LFE86:
 364              		.size	arm_cfft_radix4by2_inverse_q15, .-arm_cfft_radix4by2_inverse_q15
 365 00f6 00BF     		.section	.text.arm_cfft_q15,"ax",%progbits
 366              		.align	2
 367              		.global	arm_cfft_q15
 368              		.thumb
 369              		.thumb_func
 370              		.type	arm_cfft_q15, %function
 371              	arm_cfft_q15:
 372              	.LFB84:
 644:.\DSP\Source\TransformFunctions/arm_cfft_q15.c ****   uint32_t L = S->fftLen;
 373              		.loc 1 644 0
 374              		.cfi_startproc
 375              		@ args = 0, pretend = 0, frame = 0
 376              		@ frame_needed = 0, uses_anonymous_args = 0
 377              	.LVL50:
 378 0000 70B5     		push	{r4, r5, r6, lr}
 379              		.cfi_def_cfa_offset 16
 380              		.cfi_offset 4, -16
 381              		.cfi_offset 5, -12
 382              		.cfi_offset 6, -8
 383              		.cfi_offset 14, -4
 384 0002 0446     		mov	r4, r0
 385 0004 0D46     		mov	r5, r1
 386 0006 1E46     		mov	r6, r3
 645:.\DSP\Source\TransformFunctions/arm_cfft_q15.c **** 
 387              		.loc 1 645 0
 388 0008 0188     		ldrh	r1, [r0]
 389              	.LVL51:
 647:.\DSP\Source\TransformFunctions/arm_cfft_q15.c ****   {
 390              		.loc 1 647 0
 391 000a 012A     		cmp	r2, #1
 392 000c 27D1     		bne	.L14
 649:.\DSP\Source\TransformFunctions/arm_cfft_q15.c ****      {
 393              		.loc 1 649 0
 394 000e B1F5807F 		cmp	r1, #256
 395 0012 19D0     		beq	.L16
 396 0014 0AD8     		bhi	.L17
 397 0016 2029     		cmp	r1, #32
 398 0018 1CD0     		beq	.L18
 399 001a 02D8     		bhi	.L19
 400 001c 1029     		cmp	r1, #16
 401 001e 45D1     		bne	.L15
 402 0020 12E0     		b	.L16
 403              	.L19:
 404 0022 4029     		cmp	r1, #64
ARM GAS  C:\Users\IVYLIU~1\AppData\Local\Temp\ccgXWaBA.s 			page 24


 405 0024 10D0     		beq	.L16
 406 0026 8029     		cmp	r1, #128
 407 0028 14D0     		beq	.L18
 408 002a 3FE0     		b	.L15
 409              	.L17:
 410 002c B1F5806F 		cmp	r1, #1024
 411 0030 0AD0     		beq	.L16
 412 0032 03D8     		bhi	.L20
 413 0034 B1F5007F 		cmp	r1, #512
 414 0038 0CD0     		beq	.L18
 415 003a 37E0     		b	.L15
 416              	.L20:
 417 003c B1F5006F 		cmp	r1, #2048
 418 0040 08D0     		beq	.L18
 419 0042 B1F5805F 		cmp	r1, #4096
 420 0046 31D1     		bne	.L15
 421              	.L16:
 656:.\DSP\Source\TransformFunctions/arm_cfft_q15.c ****        break;
 422              		.loc 1 656 0
 423 0048 2846     		mov	r0, r5
 424              	.LVL52:
 425 004a 6268     		ldr	r2, [r4, #4]
 426              	.LVL53:
 427 004c 0123     		movs	r3, #1
 428              	.LVL54:
 429 004e FFF7FEFF 		bl	arm_radix4_butterfly_inverse_q15
 430              	.LVL55:
 657:.\DSP\Source\TransformFunctions/arm_cfft_q15.c **** 
 431              		.loc 1 657 0
 432 0052 2BE0     		b	.L15
 433              	.LVL56:
 434              	.L18:
 663:.\DSP\Source\TransformFunctions/arm_cfft_q15.c ****        break;
 435              		.loc 1 663 0
 436 0054 2846     		mov	r0, r5
 437              	.LVL57:
 438 0056 6268     		ldr	r2, [r4, #4]
 439              	.LVL58:
 440 0058 FFF7FEFF 		bl	arm_cfft_radix4by2_inverse_q15
 441              	.LVL59:
 664:.\DSP\Source\TransformFunctions/arm_cfft_q15.c ****      }
 442              		.loc 1 664 0
 443 005c 26E0     		b	.L15
 444              	.LVL60:
 445              	.L14:
 669:.\DSP\Source\TransformFunctions/arm_cfft_q15.c ****      {
 446              		.loc 1 669 0
 447 005e B1F5807F 		cmp	r1, #256
 448 0062 19D0     		beq	.L21
 449 0064 0AD8     		bhi	.L22
 450 0066 2029     		cmp	r1, #32
 451 0068 1CD0     		beq	.L23
 452 006a 02D8     		bhi	.L24
 453 006c 1029     		cmp	r1, #16
 454 006e 1DD1     		bne	.L15
 455 0070 12E0     		b	.L21
 456              	.L24:
ARM GAS  C:\Users\IVYLIU~1\AppData\Local\Temp\ccgXWaBA.s 			page 25


 457 0072 4029     		cmp	r1, #64
 458 0074 10D0     		beq	.L21
 459 0076 8029     		cmp	r1, #128
 460 0078 14D0     		beq	.L23
 461 007a 17E0     		b	.L15
 462              	.L22:
 463 007c B1F5806F 		cmp	r1, #1024
 464 0080 0AD0     		beq	.L21
 465 0082 03D8     		bhi	.L25
 466 0084 B1F5007F 		cmp	r1, #512
 467 0088 0CD0     		beq	.L23
 468 008a 0FE0     		b	.L15
 469              	.L25:
 470 008c B1F5006F 		cmp	r1, #2048
 471 0090 08D0     		beq	.L23
 472 0092 B1F5805F 		cmp	r1, #4096
 473 0096 09D1     		bne	.L15
 474              	.L21:
 676:.\DSP\Source\TransformFunctions/arm_cfft_q15.c ****        break;
 475              		.loc 1 676 0
 476 0098 2846     		mov	r0, r5
 477              	.LVL61:
 478 009a 6268     		ldr	r2, [r4, #4]
 479              	.LVL62:
 480 009c 0123     		movs	r3, #1
 481              	.LVL63:
 482 009e FFF7FEFF 		bl	arm_radix4_butterfly_q15
 483              	.LVL64:
 677:.\DSP\Source\TransformFunctions/arm_cfft_q15.c **** 
 484              		.loc 1 677 0
 485 00a2 03E0     		b	.L15
 486              	.LVL65:
 487              	.L23:
 683:.\DSP\Source\TransformFunctions/arm_cfft_q15.c ****        break;
 488              		.loc 1 683 0
 489 00a4 2846     		mov	r0, r5
 490              	.LVL66:
 491 00a6 6268     		ldr	r2, [r4, #4]
 492              	.LVL67:
 493 00a8 FFF7FEFF 		bl	arm_cfft_radix4by2_q15
 494              	.LVL68:
 495              	.L15:
 688:.\DSP\Source\TransformFunctions/arm_cfft_q15.c ****     arm_bitreversal_16 ((uint16_t*) p1, S->bitRevLength, S->pBitRevTable);
 496              		.loc 1 688 0
 497 00ac 26B1     		cbz	r6, .L13
 689:.\DSP\Source\TransformFunctions/arm_cfft_q15.c **** }
 498              		.loc 1 689 0
 499 00ae 2846     		mov	r0, r5
 500 00b0 A189     		ldrh	r1, [r4, #12]
 501 00b2 A268     		ldr	r2, [r4, #8]
 502 00b4 FFF7FEFF 		bl	arm_bitreversal_16
 503              	.LVL69:
 504              	.L13:
 505 00b8 70BD     		pop	{r4, r5, r6, pc}
 506              		.cfi_endproc
 507              	.LFE84:
 508              		.size	arm_cfft_q15, .-arm_cfft_q15
ARM GAS  C:\Users\IVYLIU~1\AppData\Local\Temp\ccgXWaBA.s 			page 26


 509 00ba 00BF     		.text
 510              	.Letext0:
 511              		.file 2 "c:\\program files (x86)\\cypress\\psoc creator\\3.3\\psoc creator\\import\\gnu\\arm\\4.9.
 512              		.file 3 "c:\\program files (x86)\\cypress\\psoc creator\\3.3\\psoc creator\\import\\gnu\\arm\\4.9.
 513              		.file 4 ".\\DSP\\Include/arm_math_types.h"
 514              		.file 5 ".\\DSP\\Include/dsp/transform_functions.h"
 515              		.file 6 ".\\Core\\Include/cmsis_gcc.h"