ARM GAS  C:\Users\IVYLIU~1\AppData\Local\Temp\ccz8hIiS.s 			page 1


   1              		.syntax unified
   2              		.cpu cortex-m3
   3              		.fpu softvfp
   4              		.eabi_attribute 20, 1
   5              		.eabi_attribute 21, 1
   6              		.eabi_attribute 23, 3
   7              		.eabi_attribute 24, 1
   8              		.eabi_attribute 25, 1
   9              		.eabi_attribute 26, 1
  10              		.eabi_attribute 30, 1
  11              		.eabi_attribute 34, 1
  12              		.eabi_attribute 18, 4
  13              		.thumb
  14              		.file	"arm_abs_f64.c"
  15              		.text
  16              	.Ltext0:
  17              		.cfi_sections	.debug_frame
  18              		.section	.text.arm_abs_f64,"ax",%progbits
  19              		.align	2
  20              		.global	arm_abs_f64
  21              		.thumb
  22              		.thumb_func
  23              		.type	arm_abs_f64, %function
  24              	arm_abs_f64:
  25              	.LFB83:
  26              		.file 1 ".\\DSP\\Source\\BasicMathFunctions\\arm_abs_f64.c"
   1:.\DSP\Source\BasicMathFunctions/arm_abs_f64.c **** /* ----------------------------------------------------------------------
   2:.\DSP\Source\BasicMathFunctions/arm_abs_f64.c ****  * Project:      CMSIS DSP Library
   3:.\DSP\Source\BasicMathFunctions/arm_abs_f64.c ****  * Title:        arm_abs_f64.c
   4:.\DSP\Source\BasicMathFunctions/arm_abs_f64.c ****  * Description:  Floating-point vector absolute value
   5:.\DSP\Source\BasicMathFunctions/arm_abs_f64.c ****  *
   6:.\DSP\Source\BasicMathFunctions/arm_abs_f64.c ****  * $Date:        13 September 2021
   7:.\DSP\Source\BasicMathFunctions/arm_abs_f64.c ****  * $Revision:    V1.10.0
   8:.\DSP\Source\BasicMathFunctions/arm_abs_f64.c ****  *
   9:.\DSP\Source\BasicMathFunctions/arm_abs_f64.c ****  * Target Processor: Cortex-M and Cortex-A cores
  10:.\DSP\Source\BasicMathFunctions/arm_abs_f64.c ****  * -------------------------------------------------------------------- */
  11:.\DSP\Source\BasicMathFunctions/arm_abs_f64.c **** /*
  12:.\DSP\Source\BasicMathFunctions/arm_abs_f64.c ****  * Copyright (C) 2010-2021 ARM Limited or its affiliates. All rights reserved.
  13:.\DSP\Source\BasicMathFunctions/arm_abs_f64.c ****  *
  14:.\DSP\Source\BasicMathFunctions/arm_abs_f64.c ****  * SPDX-License-Identifier: Apache-2.0
  15:.\DSP\Source\BasicMathFunctions/arm_abs_f64.c ****  *
  16:.\DSP\Source\BasicMathFunctions/arm_abs_f64.c ****  * Licensed under the Apache License, Version 2.0 (the License); you may
  17:.\DSP\Source\BasicMathFunctions/arm_abs_f64.c ****  * not use this file except in compliance with the License.
  18:.\DSP\Source\BasicMathFunctions/arm_abs_f64.c ****  * You may obtain a copy of the License at
  19:.\DSP\Source\BasicMathFunctions/arm_abs_f64.c ****  *
  20:.\DSP\Source\BasicMathFunctions/arm_abs_f64.c ****  * www.apache.org/licenses/LICENSE-2.0
  21:.\DSP\Source\BasicMathFunctions/arm_abs_f64.c ****  *
  22:.\DSP\Source\BasicMathFunctions/arm_abs_f64.c ****  * Unless required by applicable law or agreed to in writing, software
  23:.\DSP\Source\BasicMathFunctions/arm_abs_f64.c ****  * distributed under the License is distributed on an AS IS BASIS, WITHOUT
  24:.\DSP\Source\BasicMathFunctions/arm_abs_f64.c ****  * WARRANTIES OR CONDITIONS OF ANY KIND, either express or implied.
  25:.\DSP\Source\BasicMathFunctions/arm_abs_f64.c ****  * See the License for the specific language governing permissions and
  26:.\DSP\Source\BasicMathFunctions/arm_abs_f64.c ****  * limitations under the License.
  27:.\DSP\Source\BasicMathFunctions/arm_abs_f64.c ****  */
  28:.\DSP\Source\BasicMathFunctions/arm_abs_f64.c **** 
  29:.\DSP\Source\BasicMathFunctions/arm_abs_f64.c **** #include "dsp/basic_math_functions.h"
  30:.\DSP\Source\BasicMathFunctions/arm_abs_f64.c **** #include <math.h>
  31:.\DSP\Source\BasicMathFunctions/arm_abs_f64.c **** 
ARM GAS  C:\Users\IVYLIU~1\AppData\Local\Temp\ccz8hIiS.s 			page 2


  32:.\DSP\Source\BasicMathFunctions/arm_abs_f64.c **** /**
  33:.\DSP\Source\BasicMathFunctions/arm_abs_f64.c ****   @ingroup groupMath
  34:.\DSP\Source\BasicMathFunctions/arm_abs_f64.c ****  */
  35:.\DSP\Source\BasicMathFunctions/arm_abs_f64.c **** 
  36:.\DSP\Source\BasicMathFunctions/arm_abs_f64.c **** /**
  37:.\DSP\Source\BasicMathFunctions/arm_abs_f64.c ****   @addtogroup BasicAbs
  38:.\DSP\Source\BasicMathFunctions/arm_abs_f64.c ****   @{
  39:.\DSP\Source\BasicMathFunctions/arm_abs_f64.c ****  */
  40:.\DSP\Source\BasicMathFunctions/arm_abs_f64.c **** 
  41:.\DSP\Source\BasicMathFunctions/arm_abs_f64.c **** /**
  42:.\DSP\Source\BasicMathFunctions/arm_abs_f64.c ****   @brief         Floating-point vector absolute value.
  43:.\DSP\Source\BasicMathFunctions/arm_abs_f64.c ****   @param[in]     pSrc       points to the input vector
  44:.\DSP\Source\BasicMathFunctions/arm_abs_f64.c ****   @param[out]    pDst       points to the output vector
  45:.\DSP\Source\BasicMathFunctions/arm_abs_f64.c ****   @param[in]     blockSize  number of samples in each vector
  46:.\DSP\Source\BasicMathFunctions/arm_abs_f64.c ****   @return        none
  47:.\DSP\Source\BasicMathFunctions/arm_abs_f64.c ****  */
  48:.\DSP\Source\BasicMathFunctions/arm_abs_f64.c **** 
  49:.\DSP\Source\BasicMathFunctions/arm_abs_f64.c **** void arm_abs_f64(
  50:.\DSP\Source\BasicMathFunctions/arm_abs_f64.c ****   const float64_t * pSrc,
  51:.\DSP\Source\BasicMathFunctions/arm_abs_f64.c ****         float64_t * pDst,
  52:.\DSP\Source\BasicMathFunctions/arm_abs_f64.c ****         uint32_t blockSize)
  53:.\DSP\Source\BasicMathFunctions/arm_abs_f64.c **** {
  27              		.loc 1 53 0
  28              		.cfi_startproc
  29              		@ args = 0, pretend = 0, frame = 0
  30              		@ frame_needed = 0, uses_anonymous_args = 0
  31              		@ link register save eliminated.
  32              	.LVL0:
  33 0000 30B4     		push	{r4, r5}
  34              		.cfi_def_cfa_offset 8
  35              		.cfi_offset 4, -8
  36              		.cfi_offset 5, -4
  37              	.LVL1:
  54:.\DSP\Source\BasicMathFunctions/arm_abs_f64.c ****   uint32_t blkCnt;                               /* Loop counter */
  55:.\DSP\Source\BasicMathFunctions/arm_abs_f64.c **** 
  56:.\DSP\Source\BasicMathFunctions/arm_abs_f64.c ****   /* Initialize blkCnt with number of samples */
  57:.\DSP\Source\BasicMathFunctions/arm_abs_f64.c ****   blkCnt = blockSize;
  58:.\DSP\Source\BasicMathFunctions/arm_abs_f64.c **** 
  59:.\DSP\Source\BasicMathFunctions/arm_abs_f64.c ****   while (blkCnt > 0U)
  38              		.loc 1 59 0
  39 0002 08E0     		b	.L2
  40              	.LVL2:
  41              	.L3:
  60:.\DSP\Source\BasicMathFunctions/arm_abs_f64.c ****   {
  61:.\DSP\Source\BasicMathFunctions/arm_abs_f64.c ****     /* C = |A| */
  62:.\DSP\Source\BasicMathFunctions/arm_abs_f64.c **** 
  63:.\DSP\Source\BasicMathFunctions/arm_abs_f64.c ****     /* Calculate absolute and store result in destination buffer. */
  64:.\DSP\Source\BasicMathFunctions/arm_abs_f64.c ****     *pDst++ = fabs(*pSrc++);
  42              		.loc 1 64 0
  43 0004 4368     		ldr	r3, [r0, #4]
  44 0006 0468     		ldr	r4, [r0]
  45 0008 23F00045 		bic	r5, r3, #-2147483648
  46 000c C1E90045 		strd	r4, [r1]
  65:.\DSP\Source\BasicMathFunctions/arm_abs_f64.c **** 
  66:.\DSP\Source\BasicMathFunctions/arm_abs_f64.c ****     /* Decrement loop counter */
  67:.\DSP\Source\BasicMathFunctions/arm_abs_f64.c ****     blkCnt--;
  47              		.loc 1 67 0
ARM GAS  C:\Users\IVYLIU~1\AppData\Local\Temp\ccz8hIiS.s 			page 3


  48 0010 013A     		subs	r2, r2, #1
  49              	.LVL3:
  64:.\DSP\Source\BasicMathFunctions/arm_abs_f64.c **** 
  50              		.loc 1 64 0
  51 0012 0831     		adds	r1, r1, #8
  52              	.LVL4:
  53 0014 0830     		adds	r0, r0, #8
  54              	.LVL5:
  55              	.L2:
  59:.\DSP\Source\BasicMathFunctions/arm_abs_f64.c ****   {
  56              		.loc 1 59 0
  57 0016 002A     		cmp	r2, #0
  58 0018 F4D1     		bne	.L3
  68:.\DSP\Source\BasicMathFunctions/arm_abs_f64.c ****   }
  69:.\DSP\Source\BasicMathFunctions/arm_abs_f64.c **** 
  70:.\DSP\Source\BasicMathFunctions/arm_abs_f64.c **** }
  59              		.loc 1 70 0
  60 001a 30BC     		pop	{r4, r5}
  61              		.cfi_restore 5
  62              		.cfi_restore 4
  63              		.cfi_def_cfa_offset 0
  64 001c 7047     		bx	lr
  65              		.cfi_endproc
  66              	.LFE83:
  67              		.size	arm_abs_f64, .-arm_abs_f64
  68 001e 00BF     		.text
  69              	.Letext0:
  70              		.file 2 "c:\\program files (x86)\\cypress\\psoc creator\\3.3\\psoc creator\\import\\gnu\\arm\\4.9.
  71              		.file 3 "c:\\program files (x86)\\cypress\\psoc creator\\3.3\\psoc creator\\import\\gnu\\arm\\4.9.
  72              		.file 4 ".\\DSP\\Include/arm_math_types.h"
  73              		.file 5 ".\\Core\\Include/cmsis_gcc.h"