ARM GAS  C:\Users\IVYLIU~1\AppData\Local\Temp\ccOJVsdK.s 			page 1


   1              		.syntax unified
   2              		.cpu cortex-m3
   3              		.fpu softvfp
   4              		.eabi_attribute 20, 1
   5              		.eabi_attribute 21, 1
   6              		.eabi_attribute 23, 3
   7              		.eabi_attribute 24, 1
   8              		.eabi_attribute 25, 1
   9              		.eabi_attribute 26, 1
  10              		.eabi_attribute 30, 1
  11              		.eabi_attribute 34, 1
  12              		.eabi_attribute 18, 4
  13              		.thumb
  14              		.file	"arm_cmplx_conj_f32.c"
  15              		.text
  16              	.Ltext0:
  17              		.cfi_sections	.debug_frame
  18              		.section	.text.arm_cmplx_conj_f32,"ax",%progbits
  19              		.align	2
  20              		.global	arm_cmplx_conj_f32
  21              		.thumb
  22              		.thumb_func
  23              		.type	arm_cmplx_conj_f32, %function
  24              	arm_cmplx_conj_f32:
  25              	.LFB84:
  26              		.file 1 ".\\DSP\\Source\\ComplexMathFunctions\\arm_cmplx_conj_f32.c"
   1:.\DSP\Source\ComplexMathFunctions/arm_cmplx_conj_f32.c **** /* ----------------------------------------------------------------------
   2:.\DSP\Source\ComplexMathFunctions/arm_cmplx_conj_f32.c ****  * Project:      CMSIS DSP Library
   3:.\DSP\Source\ComplexMathFunctions/arm_cmplx_conj_f32.c ****  * Title:        arm_cmplx_conj_f32.c
   4:.\DSP\Source\ComplexMathFunctions/arm_cmplx_conj_f32.c ****  * Description:  Floating-point complex conjugate
   5:.\DSP\Source\ComplexMathFunctions/arm_cmplx_conj_f32.c ****  *
   6:.\DSP\Source\ComplexMathFunctions/arm_cmplx_conj_f32.c ****  * $Date:        23 April 2021
   7:.\DSP\Source\ComplexMathFunctions/arm_cmplx_conj_f32.c ****  * $Revision:    V1.9.0
   8:.\DSP\Source\ComplexMathFunctions/arm_cmplx_conj_f32.c ****  *
   9:.\DSP\Source\ComplexMathFunctions/arm_cmplx_conj_f32.c ****  * Target Processor: Cortex-M and Cortex-A cores
  10:.\DSP\Source\ComplexMathFunctions/arm_cmplx_conj_f32.c ****  * -------------------------------------------------------------------- */
  11:.\DSP\Source\ComplexMathFunctions/arm_cmplx_conj_f32.c **** /*
  12:.\DSP\Source\ComplexMathFunctions/arm_cmplx_conj_f32.c ****  * Copyright (C) 2010-2021 ARM Limited or its affiliates. All rights reserved.
  13:.\DSP\Source\ComplexMathFunctions/arm_cmplx_conj_f32.c ****  *
  14:.\DSP\Source\ComplexMathFunctions/arm_cmplx_conj_f32.c ****  * SPDX-License-Identifier: Apache-2.0
  15:.\DSP\Source\ComplexMathFunctions/arm_cmplx_conj_f32.c ****  *
  16:.\DSP\Source\ComplexMathFunctions/arm_cmplx_conj_f32.c ****  * Licensed under the Apache License, Version 2.0 (the License); you may
  17:.\DSP\Source\ComplexMathFunctions/arm_cmplx_conj_f32.c ****  * not use this file except in compliance with the License.
  18:.\DSP\Source\ComplexMathFunctions/arm_cmplx_conj_f32.c ****  * You may obtain a copy of the License at
  19:.\DSP\Source\ComplexMathFunctions/arm_cmplx_conj_f32.c ****  *
  20:.\DSP\Source\ComplexMathFunctions/arm_cmplx_conj_f32.c ****  * www.apache.org/licenses/LICENSE-2.0
  21:.\DSP\Source\ComplexMathFunctions/arm_cmplx_conj_f32.c ****  *
  22:.\DSP\Source\ComplexMathFunctions/arm_cmplx_conj_f32.c ****  * Unless required by applicable law or agreed to in writing, software
  23:.\DSP\Source\ComplexMathFunctions/arm_cmplx_conj_f32.c ****  * distributed under the License is distributed on an AS IS BASIS, WITHOUT
  24:.\DSP\Source\ComplexMathFunctions/arm_cmplx_conj_f32.c ****  * WARRANTIES OR CONDITIONS OF ANY KIND, either express or implied.
  25:.\DSP\Source\ComplexMathFunctions/arm_cmplx_conj_f32.c ****  * See the License for the specific language governing permissions and
  26:.\DSP\Source\ComplexMathFunctions/arm_cmplx_conj_f32.c ****  * limitations under the License.
  27:.\DSP\Source\ComplexMathFunctions/arm_cmplx_conj_f32.c ****  */
  28:.\DSP\Source\ComplexMathFunctions/arm_cmplx_conj_f32.c **** 
  29:.\DSP\Source\ComplexMathFunctions/arm_cmplx_conj_f32.c **** #include "dsp/complex_math_functions.h"
  30:.\DSP\Source\ComplexMathFunctions/arm_cmplx_conj_f32.c **** 
  31:.\DSP\Source\ComplexMathFunctions/arm_cmplx_conj_f32.c **** /**
ARM GAS  C:\Users\IVYLIU~1\AppData\Local\Temp\ccOJVsdK.s 			page 2


  32:.\DSP\Source\ComplexMathFunctions/arm_cmplx_conj_f32.c ****   @ingroup groupCmplxMath
  33:.\DSP\Source\ComplexMathFunctions/arm_cmplx_conj_f32.c ****  */
  34:.\DSP\Source\ComplexMathFunctions/arm_cmplx_conj_f32.c **** 
  35:.\DSP\Source\ComplexMathFunctions/arm_cmplx_conj_f32.c **** /**
  36:.\DSP\Source\ComplexMathFunctions/arm_cmplx_conj_f32.c ****   @defgroup cmplx_conj Complex Conjugate
  37:.\DSP\Source\ComplexMathFunctions/arm_cmplx_conj_f32.c **** 
  38:.\DSP\Source\ComplexMathFunctions/arm_cmplx_conj_f32.c ****   Conjugates the elements of a complex data vector.
  39:.\DSP\Source\ComplexMathFunctions/arm_cmplx_conj_f32.c **** 
  40:.\DSP\Source\ComplexMathFunctions/arm_cmplx_conj_f32.c ****   The <code>pSrc</code> points to the source data and
  41:.\DSP\Source\ComplexMathFunctions/arm_cmplx_conj_f32.c ****   <code>pDst</code> points to the destination data where the result should be written.
  42:.\DSP\Source\ComplexMathFunctions/arm_cmplx_conj_f32.c ****   <code>numSamples</code> specifies the number of complex samples
  43:.\DSP\Source\ComplexMathFunctions/arm_cmplx_conj_f32.c ****   and the data in each array is stored in an interleaved fashion
  44:.\DSP\Source\ComplexMathFunctions/arm_cmplx_conj_f32.c ****   (real, imag, real, imag, ...).
  45:.\DSP\Source\ComplexMathFunctions/arm_cmplx_conj_f32.c ****   Each array has a total of <code>2*numSamples</code> values.
  46:.\DSP\Source\ComplexMathFunctions/arm_cmplx_conj_f32.c **** 
  47:.\DSP\Source\ComplexMathFunctions/arm_cmplx_conj_f32.c ****   The underlying algorithm is used:
  48:.\DSP\Source\ComplexMathFunctions/arm_cmplx_conj_f32.c ****   <pre>
  49:.\DSP\Source\ComplexMathFunctions/arm_cmplx_conj_f32.c ****   for (n = 0; n < numSamples; n++) {
  50:.\DSP\Source\ComplexMathFunctions/arm_cmplx_conj_f32.c ****       pDst[(2*n)  ] =  pSrc[(2*n)  ];    // real part
  51:.\DSP\Source\ComplexMathFunctions/arm_cmplx_conj_f32.c ****       pDst[(2*n)+1] = -pSrc[(2*n)+1];    // imag part
  52:.\DSP\Source\ComplexMathFunctions/arm_cmplx_conj_f32.c ****   }
  53:.\DSP\Source\ComplexMathFunctions/arm_cmplx_conj_f32.c ****   </pre>
  54:.\DSP\Source\ComplexMathFunctions/arm_cmplx_conj_f32.c **** 
  55:.\DSP\Source\ComplexMathFunctions/arm_cmplx_conj_f32.c ****   There are separate functions for floating-point, Q15, and Q31 data types.
  56:.\DSP\Source\ComplexMathFunctions/arm_cmplx_conj_f32.c ****  */
  57:.\DSP\Source\ComplexMathFunctions/arm_cmplx_conj_f32.c **** 
  58:.\DSP\Source\ComplexMathFunctions/arm_cmplx_conj_f32.c **** /**
  59:.\DSP\Source\ComplexMathFunctions/arm_cmplx_conj_f32.c ****   @addtogroup cmplx_conj
  60:.\DSP\Source\ComplexMathFunctions/arm_cmplx_conj_f32.c ****   @{
  61:.\DSP\Source\ComplexMathFunctions/arm_cmplx_conj_f32.c ****  */
  62:.\DSP\Source\ComplexMathFunctions/arm_cmplx_conj_f32.c **** 
  63:.\DSP\Source\ComplexMathFunctions/arm_cmplx_conj_f32.c **** /**
  64:.\DSP\Source\ComplexMathFunctions/arm_cmplx_conj_f32.c ****   @brief         Floating-point complex conjugate.
  65:.\DSP\Source\ComplexMathFunctions/arm_cmplx_conj_f32.c ****   @param[in]     pSrc        points to the input vector
  66:.\DSP\Source\ComplexMathFunctions/arm_cmplx_conj_f32.c ****   @param[out]    pDst        points to the output vector
  67:.\DSP\Source\ComplexMathFunctions/arm_cmplx_conj_f32.c ****   @param[in]     numSamples  number of samples in each vector
  68:.\DSP\Source\ComplexMathFunctions/arm_cmplx_conj_f32.c ****   @return        none
  69:.\DSP\Source\ComplexMathFunctions/arm_cmplx_conj_f32.c ****  */
  70:.\DSP\Source\ComplexMathFunctions/arm_cmplx_conj_f32.c **** 
  71:.\DSP\Source\ComplexMathFunctions/arm_cmplx_conj_f32.c **** #if defined(ARM_MATH_MVEF) && !defined(ARM_MATH_AUTOVECTORIZE)
  72:.\DSP\Source\ComplexMathFunctions/arm_cmplx_conj_f32.c **** 
  73:.\DSP\Source\ComplexMathFunctions/arm_cmplx_conj_f32.c **** void arm_cmplx_conj_f32(
  74:.\DSP\Source\ComplexMathFunctions/arm_cmplx_conj_f32.c ****     const float32_t * pSrc,
  75:.\DSP\Source\ComplexMathFunctions/arm_cmplx_conj_f32.c ****     float32_t * pDst,
  76:.\DSP\Source\ComplexMathFunctions/arm_cmplx_conj_f32.c ****     uint32_t numSamples)
  77:.\DSP\Source\ComplexMathFunctions/arm_cmplx_conj_f32.c **** {
  78:.\DSP\Source\ComplexMathFunctions/arm_cmplx_conj_f32.c ****     static const float32_t cmplx_conj_sign[4] = { 1.0f, -1.0f, 1.0f, -1.0f };
  79:.\DSP\Source\ComplexMathFunctions/arm_cmplx_conj_f32.c ****     uint32_t blockSize = numSamples * CMPLX_DIM;   /* loop counters */
  80:.\DSP\Source\ComplexMathFunctions/arm_cmplx_conj_f32.c ****     uint32_t blkCnt;
  81:.\DSP\Source\ComplexMathFunctions/arm_cmplx_conj_f32.c ****     f32x4_t vecSrc;
  82:.\DSP\Source\ComplexMathFunctions/arm_cmplx_conj_f32.c ****     f32x4_t vecSign;
  83:.\DSP\Source\ComplexMathFunctions/arm_cmplx_conj_f32.c **** 
  84:.\DSP\Source\ComplexMathFunctions/arm_cmplx_conj_f32.c ****     /*
  85:.\DSP\Source\ComplexMathFunctions/arm_cmplx_conj_f32.c ****      * load sign vector
  86:.\DSP\Source\ComplexMathFunctions/arm_cmplx_conj_f32.c ****      */
  87:.\DSP\Source\ComplexMathFunctions/arm_cmplx_conj_f32.c ****     vecSign = *(f32x4_t *) cmplx_conj_sign;
  88:.\DSP\Source\ComplexMathFunctions/arm_cmplx_conj_f32.c **** 
ARM GAS  C:\Users\IVYLIU~1\AppData\Local\Temp\ccOJVsdK.s 			page 3


  89:.\DSP\Source\ComplexMathFunctions/arm_cmplx_conj_f32.c ****     /* Compute 4 real samples at a time */
  90:.\DSP\Source\ComplexMathFunctions/arm_cmplx_conj_f32.c ****     blkCnt = blockSize >> 2U;
  91:.\DSP\Source\ComplexMathFunctions/arm_cmplx_conj_f32.c **** 
  92:.\DSP\Source\ComplexMathFunctions/arm_cmplx_conj_f32.c ****     while (blkCnt > 0U)
  93:.\DSP\Source\ComplexMathFunctions/arm_cmplx_conj_f32.c ****     {
  94:.\DSP\Source\ComplexMathFunctions/arm_cmplx_conj_f32.c ****         vecSrc = vld1q(pSrc);
  95:.\DSP\Source\ComplexMathFunctions/arm_cmplx_conj_f32.c ****         vst1q(pDst,vmulq(vecSrc, vecSign));
  96:.\DSP\Source\ComplexMathFunctions/arm_cmplx_conj_f32.c ****         /*
  97:.\DSP\Source\ComplexMathFunctions/arm_cmplx_conj_f32.c ****          * Decrement the blkCnt loop counter
  98:.\DSP\Source\ComplexMathFunctions/arm_cmplx_conj_f32.c ****          * Advance vector source and destination pointers
  99:.\DSP\Source\ComplexMathFunctions/arm_cmplx_conj_f32.c ****          */
 100:.\DSP\Source\ComplexMathFunctions/arm_cmplx_conj_f32.c ****         pSrc += 4;
 101:.\DSP\Source\ComplexMathFunctions/arm_cmplx_conj_f32.c ****         pDst += 4;
 102:.\DSP\Source\ComplexMathFunctions/arm_cmplx_conj_f32.c ****         blkCnt--;
 103:.\DSP\Source\ComplexMathFunctions/arm_cmplx_conj_f32.c ****     }
 104:.\DSP\Source\ComplexMathFunctions/arm_cmplx_conj_f32.c **** 
 105:.\DSP\Source\ComplexMathFunctions/arm_cmplx_conj_f32.c ****      /* Tail */
 106:.\DSP\Source\ComplexMathFunctions/arm_cmplx_conj_f32.c ****     blkCnt = (blockSize & 0x3) >> 1;
 107:.\DSP\Source\ComplexMathFunctions/arm_cmplx_conj_f32.c **** 
 108:.\DSP\Source\ComplexMathFunctions/arm_cmplx_conj_f32.c ****     while (blkCnt > 0U)
 109:.\DSP\Source\ComplexMathFunctions/arm_cmplx_conj_f32.c ****     {
 110:.\DSP\Source\ComplexMathFunctions/arm_cmplx_conj_f32.c ****       /* C[0] + jC[1] = A[0]+ j(-1)A[1] */
 111:.\DSP\Source\ComplexMathFunctions/arm_cmplx_conj_f32.c ****   
 112:.\DSP\Source\ComplexMathFunctions/arm_cmplx_conj_f32.c ****       /* Calculate Complex Conjugate and store result in destination buffer. */
 113:.\DSP\Source\ComplexMathFunctions/arm_cmplx_conj_f32.c ****       *pDst++ =  *pSrc++;
 114:.\DSP\Source\ComplexMathFunctions/arm_cmplx_conj_f32.c ****       *pDst++ = -*pSrc++;
 115:.\DSP\Source\ComplexMathFunctions/arm_cmplx_conj_f32.c ****   
 116:.\DSP\Source\ComplexMathFunctions/arm_cmplx_conj_f32.c ****       /* Decrement loop counter */
 117:.\DSP\Source\ComplexMathFunctions/arm_cmplx_conj_f32.c ****       blkCnt--;
 118:.\DSP\Source\ComplexMathFunctions/arm_cmplx_conj_f32.c ****     }
 119:.\DSP\Source\ComplexMathFunctions/arm_cmplx_conj_f32.c **** 
 120:.\DSP\Source\ComplexMathFunctions/arm_cmplx_conj_f32.c **** }
 121:.\DSP\Source\ComplexMathFunctions/arm_cmplx_conj_f32.c **** 
 122:.\DSP\Source\ComplexMathFunctions/arm_cmplx_conj_f32.c **** #else
 123:.\DSP\Source\ComplexMathFunctions/arm_cmplx_conj_f32.c **** void arm_cmplx_conj_f32(
 124:.\DSP\Source\ComplexMathFunctions/arm_cmplx_conj_f32.c ****   const float32_t * pSrc,
 125:.\DSP\Source\ComplexMathFunctions/arm_cmplx_conj_f32.c ****         float32_t * pDst,
 126:.\DSP\Source\ComplexMathFunctions/arm_cmplx_conj_f32.c ****         uint32_t numSamples)
 127:.\DSP\Source\ComplexMathFunctions/arm_cmplx_conj_f32.c **** {
  27              		.loc 1 127 0
  28              		.cfi_startproc
  29              		@ args = 0, pretend = 0, frame = 0
  30              		@ frame_needed = 0, uses_anonymous_args = 0
  31              		@ link register save eliminated.
  32              	.LVL0:
  33 0000 30B4     		push	{r4, r5}
  34              		.cfi_def_cfa_offset 8
  35              		.cfi_offset 4, -8
  36              		.cfi_offset 5, -4
  37              	.LVL1:
 128:.\DSP\Source\ComplexMathFunctions/arm_cmplx_conj_f32.c ****         uint32_t blkCnt;                               /* Loop counter */
 129:.\DSP\Source\ComplexMathFunctions/arm_cmplx_conj_f32.c **** 
 130:.\DSP\Source\ComplexMathFunctions/arm_cmplx_conj_f32.c **** #if defined(ARM_MATH_NEON) && !defined(ARM_MATH_AUTOVECTORIZE)
 131:.\DSP\Source\ComplexMathFunctions/arm_cmplx_conj_f32.c ****    float32x4_t zero;
 132:.\DSP\Source\ComplexMathFunctions/arm_cmplx_conj_f32.c ****    float32x4x2_t vec;
 133:.\DSP\Source\ComplexMathFunctions/arm_cmplx_conj_f32.c **** 
 134:.\DSP\Source\ComplexMathFunctions/arm_cmplx_conj_f32.c ****    zero = vdupq_n_f32(0.0f);
ARM GAS  C:\Users\IVYLIU~1\AppData\Local\Temp\ccOJVsdK.s 			page 4


 135:.\DSP\Source\ComplexMathFunctions/arm_cmplx_conj_f32.c **** 
 136:.\DSP\Source\ComplexMathFunctions/arm_cmplx_conj_f32.c ****    /* Compute 4 outputs at a time */
 137:.\DSP\Source\ComplexMathFunctions/arm_cmplx_conj_f32.c ****    blkCnt = numSamples >> 2U;
 138:.\DSP\Source\ComplexMathFunctions/arm_cmplx_conj_f32.c **** 
 139:.\DSP\Source\ComplexMathFunctions/arm_cmplx_conj_f32.c ****    while (blkCnt > 0U)
 140:.\DSP\Source\ComplexMathFunctions/arm_cmplx_conj_f32.c ****    {
 141:.\DSP\Source\ComplexMathFunctions/arm_cmplx_conj_f32.c ****      /* C[0]+jC[1] = A[0]+(-1)*jA[1] */
 142:.\DSP\Source\ComplexMathFunctions/arm_cmplx_conj_f32.c ****      /* Calculate Complex Conjugate and then store the results in the destination buffer. */
 143:.\DSP\Source\ComplexMathFunctions/arm_cmplx_conj_f32.c ****      vec = vld2q_f32(pSrc);
 144:.\DSP\Source\ComplexMathFunctions/arm_cmplx_conj_f32.c ****      vec.val[1] = vsubq_f32(zero,vec.val[1]);
 145:.\DSP\Source\ComplexMathFunctions/arm_cmplx_conj_f32.c ****      vst2q_f32(pDst,vec);
 146:.\DSP\Source\ComplexMathFunctions/arm_cmplx_conj_f32.c **** 
 147:.\DSP\Source\ComplexMathFunctions/arm_cmplx_conj_f32.c ****      /* Increment pointers */
 148:.\DSP\Source\ComplexMathFunctions/arm_cmplx_conj_f32.c ****      pSrc += 8;
 149:.\DSP\Source\ComplexMathFunctions/arm_cmplx_conj_f32.c ****      pDst += 8;
 150:.\DSP\Source\ComplexMathFunctions/arm_cmplx_conj_f32.c ****         
 151:.\DSP\Source\ComplexMathFunctions/arm_cmplx_conj_f32.c ****      /* Decrement the loop counter */
 152:.\DSP\Source\ComplexMathFunctions/arm_cmplx_conj_f32.c ****      blkCnt--;
 153:.\DSP\Source\ComplexMathFunctions/arm_cmplx_conj_f32.c ****    }
 154:.\DSP\Source\ComplexMathFunctions/arm_cmplx_conj_f32.c **** 
 155:.\DSP\Source\ComplexMathFunctions/arm_cmplx_conj_f32.c ****    /* Tail */
 156:.\DSP\Source\ComplexMathFunctions/arm_cmplx_conj_f32.c ****    blkCnt = numSamples & 0x3;
 157:.\DSP\Source\ComplexMathFunctions/arm_cmplx_conj_f32.c **** 
 158:.\DSP\Source\ComplexMathFunctions/arm_cmplx_conj_f32.c **** #else
 159:.\DSP\Source\ComplexMathFunctions/arm_cmplx_conj_f32.c **** #if defined (ARM_MATH_LOOPUNROLL) && !defined(ARM_MATH_AUTOVECTORIZE)
 160:.\DSP\Source\ComplexMathFunctions/arm_cmplx_conj_f32.c **** 
 161:.\DSP\Source\ComplexMathFunctions/arm_cmplx_conj_f32.c ****   /* Loop unrolling: Compute 4 outputs at a time */
 162:.\DSP\Source\ComplexMathFunctions/arm_cmplx_conj_f32.c ****   blkCnt = numSamples >> 2U;
 163:.\DSP\Source\ComplexMathFunctions/arm_cmplx_conj_f32.c **** 
 164:.\DSP\Source\ComplexMathFunctions/arm_cmplx_conj_f32.c ****   while (blkCnt > 0U)
 165:.\DSP\Source\ComplexMathFunctions/arm_cmplx_conj_f32.c ****   {
 166:.\DSP\Source\ComplexMathFunctions/arm_cmplx_conj_f32.c ****     /* C[0] + jC[1] = A[0]+ j(-1)A[1] */
 167:.\DSP\Source\ComplexMathFunctions/arm_cmplx_conj_f32.c **** 
 168:.\DSP\Source\ComplexMathFunctions/arm_cmplx_conj_f32.c ****     /* Calculate Complex Conjugate and store result in destination buffer. */
 169:.\DSP\Source\ComplexMathFunctions/arm_cmplx_conj_f32.c ****     *pDst++ =  *pSrc++;
 170:.\DSP\Source\ComplexMathFunctions/arm_cmplx_conj_f32.c ****     *pDst++ = -*pSrc++;
 171:.\DSP\Source\ComplexMathFunctions/arm_cmplx_conj_f32.c **** 
 172:.\DSP\Source\ComplexMathFunctions/arm_cmplx_conj_f32.c ****     *pDst++ =  *pSrc++;
 173:.\DSP\Source\ComplexMathFunctions/arm_cmplx_conj_f32.c ****     *pDst++ = -*pSrc++;
 174:.\DSP\Source\ComplexMathFunctions/arm_cmplx_conj_f32.c **** 
 175:.\DSP\Source\ComplexMathFunctions/arm_cmplx_conj_f32.c ****     *pDst++ =  *pSrc++;
 176:.\DSP\Source\ComplexMathFunctions/arm_cmplx_conj_f32.c ****     *pDst++ = -*pSrc++;
 177:.\DSP\Source\ComplexMathFunctions/arm_cmplx_conj_f32.c **** 
 178:.\DSP\Source\ComplexMathFunctions/arm_cmplx_conj_f32.c ****     *pDst++ =  *pSrc++;
 179:.\DSP\Source\ComplexMathFunctions/arm_cmplx_conj_f32.c ****     *pDst++ = -*pSrc++;
 180:.\DSP\Source\ComplexMathFunctions/arm_cmplx_conj_f32.c **** 
 181:.\DSP\Source\ComplexMathFunctions/arm_cmplx_conj_f32.c ****     /* Decrement loop counter */
 182:.\DSP\Source\ComplexMathFunctions/arm_cmplx_conj_f32.c ****     blkCnt--;
 183:.\DSP\Source\ComplexMathFunctions/arm_cmplx_conj_f32.c ****   }
 184:.\DSP\Source\ComplexMathFunctions/arm_cmplx_conj_f32.c **** 
 185:.\DSP\Source\ComplexMathFunctions/arm_cmplx_conj_f32.c ****   /* Loop unrolling: Compute remaining outputs */
 186:.\DSP\Source\ComplexMathFunctions/arm_cmplx_conj_f32.c ****   blkCnt = numSamples % 0x4U;
 187:.\DSP\Source\ComplexMathFunctions/arm_cmplx_conj_f32.c **** 
 188:.\DSP\Source\ComplexMathFunctions/arm_cmplx_conj_f32.c **** #else
 189:.\DSP\Source\ComplexMathFunctions/arm_cmplx_conj_f32.c **** 
 190:.\DSP\Source\ComplexMathFunctions/arm_cmplx_conj_f32.c ****   /* Initialize blkCnt with number of samples */
 191:.\DSP\Source\ComplexMathFunctions/arm_cmplx_conj_f32.c ****   blkCnt = numSamples;
ARM GAS  C:\Users\IVYLIU~1\AppData\Local\Temp\ccOJVsdK.s 			page 5


 192:.\DSP\Source\ComplexMathFunctions/arm_cmplx_conj_f32.c **** 
 193:.\DSP\Source\ComplexMathFunctions/arm_cmplx_conj_f32.c **** #endif /* #if defined (ARM_MATH_LOOPUNROLL) */
 194:.\DSP\Source\ComplexMathFunctions/arm_cmplx_conj_f32.c **** #endif /* #if defined (ARM_MATH_NEON) */
 195:.\DSP\Source\ComplexMathFunctions/arm_cmplx_conj_f32.c **** 
 196:.\DSP\Source\ComplexMathFunctions/arm_cmplx_conj_f32.c ****   while (blkCnt > 0U)
  38              		.loc 1 196 0
  39 0002 0CE0     		b	.L2
  40              	.LVL2:
  41              	.L3:
 197:.\DSP\Source\ComplexMathFunctions/arm_cmplx_conj_f32.c ****   {
 198:.\DSP\Source\ComplexMathFunctions/arm_cmplx_conj_f32.c ****     /* C[0] + jC[1] = A[0]+ j(-1)A[1] */
 199:.\DSP\Source\ComplexMathFunctions/arm_cmplx_conj_f32.c **** 
 200:.\DSP\Source\ComplexMathFunctions/arm_cmplx_conj_f32.c ****     /* Calculate Complex Conjugate and store result in destination buffer. */
 201:.\DSP\Source\ComplexMathFunctions/arm_cmplx_conj_f32.c ****     *pDst++ =  *pSrc++;
  42              		.loc 1 201 0
  43 0004 0346     		mov	r3, r0
  44 0006 53F8085B 		ldr	r5, [r3], #8	@ float
  45 000a 0C46     		mov	r4, r1
  46 000c 44F8085B 		str	r5, [r4], #8	@ float
  47              	.LVL3:
 202:.\DSP\Source\ComplexMathFunctions/arm_cmplx_conj_f32.c ****     *pDst++ = -*pSrc++;
  48              		.loc 1 202 0
  49 0010 4068     		ldr	r0, [r0, #4]	@ float
  50 0012 00F10040 		add	r0, r0, #-2147483648
  51 0016 4860     		str	r0, [r1, #4]	@ float
 203:.\DSP\Source\ComplexMathFunctions/arm_cmplx_conj_f32.c **** 
 204:.\DSP\Source\ComplexMathFunctions/arm_cmplx_conj_f32.c ****     /* Decrement loop counter */
 205:.\DSP\Source\ComplexMathFunctions/arm_cmplx_conj_f32.c ****     blkCnt--;
  52              		.loc 1 205 0
  53 0018 013A     		subs	r2, r2, #1
  54              	.LVL4:
 202:.\DSP\Source\ComplexMathFunctions/arm_cmplx_conj_f32.c ****     *pDst++ = -*pSrc++;
  55              		.loc 1 202 0
  56 001a 2146     		mov	r1, r4
  57 001c 1846     		mov	r0, r3
  58              	.LVL5:
  59              	.L2:
 196:.\DSP\Source\ComplexMathFunctions/arm_cmplx_conj_f32.c ****   {
  60              		.loc 1 196 0
  61 001e 002A     		cmp	r2, #0
  62 0020 F0D1     		bne	.L3
 206:.\DSP\Source\ComplexMathFunctions/arm_cmplx_conj_f32.c ****   }
 207:.\DSP\Source\ComplexMathFunctions/arm_cmplx_conj_f32.c **** 
 208:.\DSP\Source\ComplexMathFunctions/arm_cmplx_conj_f32.c **** }
  63              		.loc 1 208 0
  64 0022 30BC     		pop	{r4, r5}
  65              		.cfi_restore 5
  66              		.cfi_restore 4
  67              		.cfi_def_cfa_offset 0
  68 0024 7047     		bx	lr
  69              		.cfi_endproc
  70              	.LFE84:
  71              		.size	arm_cmplx_conj_f32, .-arm_cmplx_conj_f32
  72 0026 00BF     		.text
  73              	.Letext0:
  74              		.file 2 "c:\\program files (x86)\\cypress\\psoc creator\\3.3\\psoc creator\\import\\gnu\\arm\\4.9.
  75              		.file 3 "c:\\program files (x86)\\cypress\\psoc creator\\3.3\\psoc creator\\import\\gnu\\arm\\4.9.
ARM GAS  C:\Users\IVYLIU~1\AppData\Local\Temp\ccOJVsdK.s 			page 6


  76              		.file 4 ".\\DSP\\Include/arm_math_types.h"
  77              		.file 5 ".\\Core\\Include/cmsis_gcc.h"