ARM GAS  C:\Users\IVYLIU~1\AppData\Local\Temp\ccnIS3MN.s 			page 1


   1              		.syntax unified
   2              		.cpu cortex-m3
   3              		.fpu softvfp
   4              		.eabi_attribute 20, 1
   5              		.eabi_attribute 21, 1
   6              		.eabi_attribute 23, 3
   7              		.eabi_attribute 24, 1
   8              		.eabi_attribute 25, 1
   9              		.eabi_attribute 26, 1
  10              		.eabi_attribute 30, 1
  11              		.eabi_attribute 34, 1
  12              		.eabi_attribute 18, 4
  13              		.thumb
  14              		.file	"arm_cmplx_mag_squared_f64.c"
  15              		.text
  16              	.Ltext0:
  17              		.cfi_sections	.debug_frame
  18              		.global	__aeabi_dmul
  19              		.global	__aeabi_dadd
  20              		.section	.text.arm_cmplx_mag_squared_f64,"ax",%progbits
  21              		.align	2
  22              		.global	arm_cmplx_mag_squared_f64
  23              		.thumb
  24              		.thumb_func
  25              		.type	arm_cmplx_mag_squared_f64, %function
  26              	arm_cmplx_mag_squared_f64:
  27              	.LFB84:
  28              		.file 1 ".\\DSP\\Source\\ComplexMathFunctions\\arm_cmplx_mag_squared_f64.c"
   1:.\DSP\Source\ComplexMathFunctions/arm_cmplx_mag_squared_f64.c **** /* ----------------------------------------------------------------------
   2:.\DSP\Source\ComplexMathFunctions/arm_cmplx_mag_squared_f64.c ****  * Project:      CMSIS DSP Library
   3:.\DSP\Source\ComplexMathFunctions/arm_cmplx_mag_squared_f64.c ****  * Title:        arm_cmplx_mag_squared_f64.c
   4:.\DSP\Source\ComplexMathFunctions/arm_cmplx_mag_squared_f64.c ****  * Description:  Floating-point complex magnitude squared
   5:.\DSP\Source\ComplexMathFunctions/arm_cmplx_mag_squared_f64.c ****  *
   6:.\DSP\Source\ComplexMathFunctions/arm_cmplx_mag_squared_f64.c ****  * $Date:        13 September 2021
   7:.\DSP\Source\ComplexMathFunctions/arm_cmplx_mag_squared_f64.c ****  * $Revision:    V1.10.0
   8:.\DSP\Source\ComplexMathFunctions/arm_cmplx_mag_squared_f64.c ****  *
   9:.\DSP\Source\ComplexMathFunctions/arm_cmplx_mag_squared_f64.c ****  * Target Processor: Cortex-M and Cortex-A cores
  10:.\DSP\Source\ComplexMathFunctions/arm_cmplx_mag_squared_f64.c ****  * -------------------------------------------------------------------- */
  11:.\DSP\Source\ComplexMathFunctions/arm_cmplx_mag_squared_f64.c **** /*
  12:.\DSP\Source\ComplexMathFunctions/arm_cmplx_mag_squared_f64.c ****  * Copyright (C) 2010-2021 ARM Limited or its affiliates. All rights reserved.
  13:.\DSP\Source\ComplexMathFunctions/arm_cmplx_mag_squared_f64.c ****  *
  14:.\DSP\Source\ComplexMathFunctions/arm_cmplx_mag_squared_f64.c ****  * SPDX-License-Identifier: Apache-2.0
  15:.\DSP\Source\ComplexMathFunctions/arm_cmplx_mag_squared_f64.c ****  *
  16:.\DSP\Source\ComplexMathFunctions/arm_cmplx_mag_squared_f64.c ****  * Licensed under the Apache License, Version 2.0 (the License); you may
  17:.\DSP\Source\ComplexMathFunctions/arm_cmplx_mag_squared_f64.c ****  * not use this file except in compliance with the License.
  18:.\DSP\Source\ComplexMathFunctions/arm_cmplx_mag_squared_f64.c ****  * You may obtain a copy of the License at
  19:.\DSP\Source\ComplexMathFunctions/arm_cmplx_mag_squared_f64.c ****  *
  20:.\DSP\Source\ComplexMathFunctions/arm_cmplx_mag_squared_f64.c ****  * www.apache.org/licenses/LICENSE-2.0
  21:.\DSP\Source\ComplexMathFunctions/arm_cmplx_mag_squared_f64.c ****  *
  22:.\DSP\Source\ComplexMathFunctions/arm_cmplx_mag_squared_f64.c ****  * Unless required by applicable law or agreed to in writing, software
  23:.\DSP\Source\ComplexMathFunctions/arm_cmplx_mag_squared_f64.c ****  * distributed under the License is distributed on an AS IS BASIS, WITHOUT
  24:.\DSP\Source\ComplexMathFunctions/arm_cmplx_mag_squared_f64.c ****  * WARRANTIES OR CONDITIONS OF ANY KIND, either express or implied.
  25:.\DSP\Source\ComplexMathFunctions/arm_cmplx_mag_squared_f64.c ****  * See the License for the specific language governing permissions and
  26:.\DSP\Source\ComplexMathFunctions/arm_cmplx_mag_squared_f64.c ****  * limitations under the License.
  27:.\DSP\Source\ComplexMathFunctions/arm_cmplx_mag_squared_f64.c ****  */
  28:.\DSP\Source\ComplexMathFunctions/arm_cmplx_mag_squared_f64.c **** 
  29:.\DSP\Source\ComplexMathFunctions/arm_cmplx_mag_squared_f64.c **** #include "dsp/complex_math_functions.h"
ARM GAS  C:\Users\IVYLIU~1\AppData\Local\Temp\ccnIS3MN.s 			page 2


  30:.\DSP\Source\ComplexMathFunctions/arm_cmplx_mag_squared_f64.c **** 
  31:.\DSP\Source\ComplexMathFunctions/arm_cmplx_mag_squared_f64.c **** /**
  32:.\DSP\Source\ComplexMathFunctions/arm_cmplx_mag_squared_f64.c ****   @ingroup groupCmplxMath
  33:.\DSP\Source\ComplexMathFunctions/arm_cmplx_mag_squared_f64.c ****  */
  34:.\DSP\Source\ComplexMathFunctions/arm_cmplx_mag_squared_f64.c **** 
  35:.\DSP\Source\ComplexMathFunctions/arm_cmplx_mag_squared_f64.c **** /**
  36:.\DSP\Source\ComplexMathFunctions/arm_cmplx_mag_squared_f64.c ****   @addtogroup cmplx_mag_squared
  37:.\DSP\Source\ComplexMathFunctions/arm_cmplx_mag_squared_f64.c ****   @{
  38:.\DSP\Source\ComplexMathFunctions/arm_cmplx_mag_squared_f64.c ****  */
  39:.\DSP\Source\ComplexMathFunctions/arm_cmplx_mag_squared_f64.c **** 
  40:.\DSP\Source\ComplexMathFunctions/arm_cmplx_mag_squared_f64.c **** /**
  41:.\DSP\Source\ComplexMathFunctions/arm_cmplx_mag_squared_f64.c ****   @brief         Floating-point complex magnitude squared.
  42:.\DSP\Source\ComplexMathFunctions/arm_cmplx_mag_squared_f64.c ****   @param[in]     pSrc        points to input vector
  43:.\DSP\Source\ComplexMathFunctions/arm_cmplx_mag_squared_f64.c ****   @param[out]    pDst        points to output vector
  44:.\DSP\Source\ComplexMathFunctions/arm_cmplx_mag_squared_f64.c ****   @param[in]     numSamples  number of samples in each vector
  45:.\DSP\Source\ComplexMathFunctions/arm_cmplx_mag_squared_f64.c ****   @return        none
  46:.\DSP\Source\ComplexMathFunctions/arm_cmplx_mag_squared_f64.c ****  */
  47:.\DSP\Source\ComplexMathFunctions/arm_cmplx_mag_squared_f64.c **** void arm_cmplx_mag_squared_f64(
  48:.\DSP\Source\ComplexMathFunctions/arm_cmplx_mag_squared_f64.c ****   const float64_t * pSrc,
  49:.\DSP\Source\ComplexMathFunctions/arm_cmplx_mag_squared_f64.c ****         float64_t * pDst,
  50:.\DSP\Source\ComplexMathFunctions/arm_cmplx_mag_squared_f64.c ****         uint32_t numSamples)
  51:.\DSP\Source\ComplexMathFunctions/arm_cmplx_mag_squared_f64.c **** {
  29              		.loc 1 51 0
  30              		.cfi_startproc
  31              		@ args = 0, pretend = 0, frame = 0
  32              		@ frame_needed = 0, uses_anonymous_args = 0
  33              	.LVL0:
  34 0000 2DE9F84F 		push	{r3, r4, r5, r6, r7, r8, r9, r10, fp, lr}
  35              		.cfi_def_cfa_offset 40
  36              		.cfi_offset 3, -40
  37              		.cfi_offset 4, -36
  38              		.cfi_offset 5, -32
  39              		.cfi_offset 6, -28
  40              		.cfi_offset 7, -24
  41              		.cfi_offset 8, -20
  42              		.cfi_offset 9, -16
  43              		.cfi_offset 10, -12
  44              		.cfi_offset 11, -8
  45              		.cfi_offset 14, -4
  46 0004 8A46     		mov	r10, r1
  47 0006 1546     		mov	r5, r2
  48              	.LVL1:
  52:.\DSP\Source\ComplexMathFunctions/arm_cmplx_mag_squared_f64.c ****         uint32_t blkCnt;                               /* Loop counter */
  53:.\DSP\Source\ComplexMathFunctions/arm_cmplx_mag_squared_f64.c ****         float64_t real, imag;                          /* Temporary input variables */
  54:.\DSP\Source\ComplexMathFunctions/arm_cmplx_mag_squared_f64.c **** 
  55:.\DSP\Source\ComplexMathFunctions/arm_cmplx_mag_squared_f64.c ****   /* Initialize blkCnt with number of samples */
  56:.\DSP\Source\ComplexMathFunctions/arm_cmplx_mag_squared_f64.c ****   blkCnt = numSamples;
  57:.\DSP\Source\ComplexMathFunctions/arm_cmplx_mag_squared_f64.c **** 
  58:.\DSP\Source\ComplexMathFunctions/arm_cmplx_mag_squared_f64.c ****   while (blkCnt > 0U)
  49              		.loc 1 58 0
  50 0008 1DE0     		b	.L2
  51              	.LVL2:
  52              	.L3:
  59:.\DSP\Source\ComplexMathFunctions/arm_cmplx_mag_squared_f64.c ****   {
  60:.\DSP\Source\ComplexMathFunctions/arm_cmplx_mag_squared_f64.c ****     /* C[0] = (A[0] * A[0] + A[1] * A[1]) */
  61:.\DSP\Source\ComplexMathFunctions/arm_cmplx_mag_squared_f64.c **** 
  62:.\DSP\Source\ComplexMathFunctions/arm_cmplx_mag_squared_f64.c ****     real = *pSrc++;
ARM GAS  C:\Users\IVYLIU~1\AppData\Local\Temp\ccnIS3MN.s 			page 3


  53              		.loc 1 62 0
  54 000a 0446     		mov	r4, r0
  55 000c F4E80423 		ldrd	r2, [r4], #16
  56              	.LVL3:
  63:.\DSP\Source\ComplexMathFunctions/arm_cmplx_mag_squared_f64.c ****     imag = *pSrc++;
  57              		.loc 1 63 0
  58 0010 D0E90267 		ldrd	r6, [r0, #8]
  59              	.LVL4:
  64:.\DSP\Source\ComplexMathFunctions/arm_cmplx_mag_squared_f64.c **** 
  65:.\DSP\Source\ComplexMathFunctions/arm_cmplx_mag_squared_f64.c ****     /* store result in destination buffer. */
  66:.\DSP\Source\ComplexMathFunctions/arm_cmplx_mag_squared_f64.c ****     *pDst++ = (real * real) + (imag * imag);
  60              		.loc 1 66 0
  61 0014 0AF1080B 		add	fp, r10, #8
  62              	.LVL5:
  63 0018 1046     		mov	r0, r2
  64 001a 1946     		mov	r1, r3
  65 001c FFF7FEFF 		bl	__aeabi_dmul
  66              	.LVL6:
  67 0020 8046     		mov	r8, r0
  68 0022 8946     		mov	r9, r1
  69 0024 3046     		mov	r0, r6
  70 0026 3946     		mov	r1, r7
  71 0028 3246     		mov	r2, r6
  72 002a 3B46     		mov	r3, r7
  73 002c FFF7FEFF 		bl	__aeabi_dmul
  74              	.LVL7:
  75 0030 0246     		mov	r2, r0
  76 0032 0B46     		mov	r3, r1
  77 0034 4046     		mov	r0, r8
  78 0036 4946     		mov	r1, r9
  79 0038 FFF7FEFF 		bl	__aeabi_dadd
  80              	.LVL8:
  81 003c CAE90001 		strd	r0, [r10]
  67:.\DSP\Source\ComplexMathFunctions/arm_cmplx_mag_squared_f64.c **** 
  68:.\DSP\Source\ComplexMathFunctions/arm_cmplx_mag_squared_f64.c ****     /* Decrement loop counter */
  69:.\DSP\Source\ComplexMathFunctions/arm_cmplx_mag_squared_f64.c ****     blkCnt--;
  82              		.loc 1 69 0
  83 0040 013D     		subs	r5, r5, #1
  84              	.LVL9:
  66:.\DSP\Source\ComplexMathFunctions/arm_cmplx_mag_squared_f64.c **** 
  85              		.loc 1 66 0
  86 0042 DA46     		mov	r10, fp
  63:.\DSP\Source\ComplexMathFunctions/arm_cmplx_mag_squared_f64.c **** 
  87              		.loc 1 63 0
  88 0044 2046     		mov	r0, r4
  89              	.LVL10:
  90              	.L2:
  58:.\DSP\Source\ComplexMathFunctions/arm_cmplx_mag_squared_f64.c ****   {
  91              		.loc 1 58 0
  92 0046 002D     		cmp	r5, #0
  93 0048 DFD1     		bne	.L3
  70:.\DSP\Source\ComplexMathFunctions/arm_cmplx_mag_squared_f64.c ****   }
  71:.\DSP\Source\ComplexMathFunctions/arm_cmplx_mag_squared_f64.c **** 
  72:.\DSP\Source\ComplexMathFunctions/arm_cmplx_mag_squared_f64.c **** }
  94              		.loc 1 72 0
  95 004a BDE8F88F 		pop	{r3, r4, r5, r6, r7, r8, r9, r10, fp, pc}
  96              		.cfi_endproc
ARM GAS  C:\Users\IVYLIU~1\AppData\Local\Temp\ccnIS3MN.s 			page 4


  97              	.LFE84:
  98              		.size	arm_cmplx_mag_squared_f64, .-arm_cmplx_mag_squared_f64
  99 004e 00BF     		.text
 100              	.Letext0:
 101              		.file 2 "c:\\program files (x86)\\cypress\\psoc creator\\3.3\\psoc creator\\import\\gnu\\arm\\4.9.
 102              		.file 3 "c:\\program files (x86)\\cypress\\psoc creator\\3.3\\psoc creator\\import\\gnu\\arm\\4.9.
 103              		.file 4 ".\\DSP\\Include/arm_math_types.h"
 104              		.file 5 ".\\Core\\Include/cmsis_gcc.h"