ARM GAS  C:\Users\IVYLIU~1\AppData\Local\Temp\ccHS0EtC.s 			page 1


   1              		.syntax unified
   2              		.cpu cortex-m3
   3              		.fpu softvfp
   4              		.eabi_attribute 20, 1
   5              		.eabi_attribute 21, 1
   6              		.eabi_attribute 23, 3
   7              		.eabi_attribute 24, 1
   8              		.eabi_attribute 25, 1
   9              		.eabi_attribute 26, 1
  10              		.eabi_attribute 30, 1
  11              		.eabi_attribute 34, 1
  12              		.eabi_attribute 18, 4
  13              		.thumb
  14              		.file	"arm_add_q31.c"
  15              		.text
  16              	.Ltext0:
  17              		.cfi_sections	.debug_frame
  18              		.section	.text.arm_add_q31,"ax",%progbits
  19              		.align	2
  20              		.global	arm_add_q31
  21              		.thumb
  22              		.thumb_func
  23              		.type	arm_add_q31, %function
  24              	arm_add_q31:
  25              	.LFB83:
  26              		.file 1 ".\\DSP\\Source\\BasicMathFunctions\\arm_add_q31.c"
   1:.\DSP\Source\BasicMathFunctions/arm_add_q31.c **** /* ----------------------------------------------------------------------
   2:.\DSP\Source\BasicMathFunctions/arm_add_q31.c ****  * Project:      CMSIS DSP Library
   3:.\DSP\Source\BasicMathFunctions/arm_add_q31.c ****  * Title:        arm_add_q31.c
   4:.\DSP\Source\BasicMathFunctions/arm_add_q31.c ****  * Description:  Q31 vector addition
   5:.\DSP\Source\BasicMathFunctions/arm_add_q31.c ****  *
   6:.\DSP\Source\BasicMathFunctions/arm_add_q31.c ****  * $Date:        23 April 2021
   7:.\DSP\Source\BasicMathFunctions/arm_add_q31.c ****  * $Revision:    V1.9.0
   8:.\DSP\Source\BasicMathFunctions/arm_add_q31.c ****  *
   9:.\DSP\Source\BasicMathFunctions/arm_add_q31.c ****  * Target Processor: Cortex-M and Cortex-A cores
  10:.\DSP\Source\BasicMathFunctions/arm_add_q31.c ****  * -------------------------------------------------------------------- */
  11:.\DSP\Source\BasicMathFunctions/arm_add_q31.c **** /*
  12:.\DSP\Source\BasicMathFunctions/arm_add_q31.c ****  * Copyright (C) 2010-2021 ARM Limited or its affiliates. All rights reserved.
  13:.\DSP\Source\BasicMathFunctions/arm_add_q31.c ****  *
  14:.\DSP\Source\BasicMathFunctions/arm_add_q31.c ****  * SPDX-License-Identifier: Apache-2.0
  15:.\DSP\Source\BasicMathFunctions/arm_add_q31.c ****  *
  16:.\DSP\Source\BasicMathFunctions/arm_add_q31.c ****  * Licensed under the Apache License, Version 2.0 (the License); you may
  17:.\DSP\Source\BasicMathFunctions/arm_add_q31.c ****  * not use this file except in compliance with the License.
  18:.\DSP\Source\BasicMathFunctions/arm_add_q31.c ****  * You may obtain a copy of the License at
  19:.\DSP\Source\BasicMathFunctions/arm_add_q31.c ****  *
  20:.\DSP\Source\BasicMathFunctions/arm_add_q31.c ****  * www.apache.org/licenses/LICENSE-2.0
  21:.\DSP\Source\BasicMathFunctions/arm_add_q31.c ****  *
  22:.\DSP\Source\BasicMathFunctions/arm_add_q31.c ****  * Unless required by applicable law or agreed to in writing, software
  23:.\DSP\Source\BasicMathFunctions/arm_add_q31.c ****  * distributed under the License is distributed on an AS IS BASIS, WITHOUT
  24:.\DSP\Source\BasicMathFunctions/arm_add_q31.c ****  * WARRANTIES OR CONDITIONS OF ANY KIND, either express or implied.
  25:.\DSP\Source\BasicMathFunctions/arm_add_q31.c ****  * See the License for the specific language governing permissions and
  26:.\DSP\Source\BasicMathFunctions/arm_add_q31.c ****  * limitations under the License.
  27:.\DSP\Source\BasicMathFunctions/arm_add_q31.c ****  */
  28:.\DSP\Source\BasicMathFunctions/arm_add_q31.c **** 
  29:.\DSP\Source\BasicMathFunctions/arm_add_q31.c **** #include "dsp/basic_math_functions.h"
  30:.\DSP\Source\BasicMathFunctions/arm_add_q31.c **** 
  31:.\DSP\Source\BasicMathFunctions/arm_add_q31.c **** /**
ARM GAS  C:\Users\IVYLIU~1\AppData\Local\Temp\ccHS0EtC.s 			page 2


  32:.\DSP\Source\BasicMathFunctions/arm_add_q31.c ****   @ingroup groupMath
  33:.\DSP\Source\BasicMathFunctions/arm_add_q31.c ****  */
  34:.\DSP\Source\BasicMathFunctions/arm_add_q31.c **** 
  35:.\DSP\Source\BasicMathFunctions/arm_add_q31.c **** /**
  36:.\DSP\Source\BasicMathFunctions/arm_add_q31.c ****   @addtogroup BasicAdd
  37:.\DSP\Source\BasicMathFunctions/arm_add_q31.c ****   @{
  38:.\DSP\Source\BasicMathFunctions/arm_add_q31.c ****  */
  39:.\DSP\Source\BasicMathFunctions/arm_add_q31.c **** 
  40:.\DSP\Source\BasicMathFunctions/arm_add_q31.c **** /**
  41:.\DSP\Source\BasicMathFunctions/arm_add_q31.c ****   @brief         Q31 vector addition.
  42:.\DSP\Source\BasicMathFunctions/arm_add_q31.c ****   @param[in]     pSrcA      points to the first input vector
  43:.\DSP\Source\BasicMathFunctions/arm_add_q31.c ****   @param[in]     pSrcB      points to the second input vector
  44:.\DSP\Source\BasicMathFunctions/arm_add_q31.c ****   @param[out]    pDst       points to the output vector
  45:.\DSP\Source\BasicMathFunctions/arm_add_q31.c ****   @param[in]     blockSize  number of samples in each vector
  46:.\DSP\Source\BasicMathFunctions/arm_add_q31.c ****   @return        none
  47:.\DSP\Source\BasicMathFunctions/arm_add_q31.c **** 
  48:.\DSP\Source\BasicMathFunctions/arm_add_q31.c ****   @par           Scaling and Overflow Behavior
  49:.\DSP\Source\BasicMathFunctions/arm_add_q31.c ****                    The function uses saturating arithmetic.
  50:.\DSP\Source\BasicMathFunctions/arm_add_q31.c ****                    Results outside of the allowable Q31 range [0x80000000 0x7FFFFFFF] are saturated
  51:.\DSP\Source\BasicMathFunctions/arm_add_q31.c ****  */
  52:.\DSP\Source\BasicMathFunctions/arm_add_q31.c **** 
  53:.\DSP\Source\BasicMathFunctions/arm_add_q31.c **** #if defined(ARM_MATH_MVEI) && !defined(ARM_MATH_AUTOVECTORIZE)
  54:.\DSP\Source\BasicMathFunctions/arm_add_q31.c **** 
  55:.\DSP\Source\BasicMathFunctions/arm_add_q31.c **** #include "arm_helium_utils.h"
  56:.\DSP\Source\BasicMathFunctions/arm_add_q31.c **** 
  57:.\DSP\Source\BasicMathFunctions/arm_add_q31.c **** void arm_add_q31(
  58:.\DSP\Source\BasicMathFunctions/arm_add_q31.c ****   const q31_t * pSrcA,
  59:.\DSP\Source\BasicMathFunctions/arm_add_q31.c ****   const q31_t * pSrcB,
  60:.\DSP\Source\BasicMathFunctions/arm_add_q31.c ****         q31_t * pDst,
  61:.\DSP\Source\BasicMathFunctions/arm_add_q31.c ****         uint32_t blockSize)
  62:.\DSP\Source\BasicMathFunctions/arm_add_q31.c **** {
  63:.\DSP\Source\BasicMathFunctions/arm_add_q31.c ****     uint32_t blkCnt;   
  64:.\DSP\Source\BasicMathFunctions/arm_add_q31.c ****     q31x4_t vecA;
  65:.\DSP\Source\BasicMathFunctions/arm_add_q31.c ****     q31x4_t vecB;
  66:.\DSP\Source\BasicMathFunctions/arm_add_q31.c **** 
  67:.\DSP\Source\BasicMathFunctions/arm_add_q31.c ****     /* Compute 4 outputs at a time */
  68:.\DSP\Source\BasicMathFunctions/arm_add_q31.c ****     blkCnt = blockSize >> 2;
  69:.\DSP\Source\BasicMathFunctions/arm_add_q31.c ****     while (blkCnt > 0U)
  70:.\DSP\Source\BasicMathFunctions/arm_add_q31.c ****     {
  71:.\DSP\Source\BasicMathFunctions/arm_add_q31.c ****         /*
  72:.\DSP\Source\BasicMathFunctions/arm_add_q31.c ****          * C = A + B
  73:.\DSP\Source\BasicMathFunctions/arm_add_q31.c ****          * Add and then store the results in the destination buffer.
  74:.\DSP\Source\BasicMathFunctions/arm_add_q31.c ****          */
  75:.\DSP\Source\BasicMathFunctions/arm_add_q31.c ****         vecA = vld1q(pSrcA);
  76:.\DSP\Source\BasicMathFunctions/arm_add_q31.c ****         vecB = vld1q(pSrcB);
  77:.\DSP\Source\BasicMathFunctions/arm_add_q31.c ****         vst1q(pDst, vqaddq(vecA, vecB));
  78:.\DSP\Source\BasicMathFunctions/arm_add_q31.c ****         /*
  79:.\DSP\Source\BasicMathFunctions/arm_add_q31.c ****          * Decrement the blockSize loop counter
  80:.\DSP\Source\BasicMathFunctions/arm_add_q31.c ****          */
  81:.\DSP\Source\BasicMathFunctions/arm_add_q31.c ****         blkCnt--;
  82:.\DSP\Source\BasicMathFunctions/arm_add_q31.c ****         /*
  83:.\DSP\Source\BasicMathFunctions/arm_add_q31.c ****          * advance vector source and destination pointers
  84:.\DSP\Source\BasicMathFunctions/arm_add_q31.c ****          */
  85:.\DSP\Source\BasicMathFunctions/arm_add_q31.c ****         pSrcA  += 4;
  86:.\DSP\Source\BasicMathFunctions/arm_add_q31.c ****         pSrcB  += 4;
  87:.\DSP\Source\BasicMathFunctions/arm_add_q31.c ****         pDst   += 4;
  88:.\DSP\Source\BasicMathFunctions/arm_add_q31.c ****     }
ARM GAS  C:\Users\IVYLIU~1\AppData\Local\Temp\ccHS0EtC.s 			page 3


  89:.\DSP\Source\BasicMathFunctions/arm_add_q31.c ****     /*
  90:.\DSP\Source\BasicMathFunctions/arm_add_q31.c ****      * tail
  91:.\DSP\Source\BasicMathFunctions/arm_add_q31.c ****      */
  92:.\DSP\Source\BasicMathFunctions/arm_add_q31.c ****     blkCnt = blockSize & 3;
  93:.\DSP\Source\BasicMathFunctions/arm_add_q31.c ****     if (blkCnt > 0U)
  94:.\DSP\Source\BasicMathFunctions/arm_add_q31.c ****     {
  95:.\DSP\Source\BasicMathFunctions/arm_add_q31.c ****         mve_pred16_t p0 = vctp32q(blkCnt);
  96:.\DSP\Source\BasicMathFunctions/arm_add_q31.c ****         vecA = vld1q(pSrcA);
  97:.\DSP\Source\BasicMathFunctions/arm_add_q31.c ****         vecB = vld1q(pSrcB);
  98:.\DSP\Source\BasicMathFunctions/arm_add_q31.c ****         vstrwq_p(pDst, vqaddq(vecA, vecB), p0);
  99:.\DSP\Source\BasicMathFunctions/arm_add_q31.c ****     }
 100:.\DSP\Source\BasicMathFunctions/arm_add_q31.c **** }
 101:.\DSP\Source\BasicMathFunctions/arm_add_q31.c **** 
 102:.\DSP\Source\BasicMathFunctions/arm_add_q31.c **** #else
 103:.\DSP\Source\BasicMathFunctions/arm_add_q31.c **** void arm_add_q31(
 104:.\DSP\Source\BasicMathFunctions/arm_add_q31.c ****   const q31_t * pSrcA,
 105:.\DSP\Source\BasicMathFunctions/arm_add_q31.c ****   const q31_t * pSrcB,
 106:.\DSP\Source\BasicMathFunctions/arm_add_q31.c ****         q31_t * pDst,
 107:.\DSP\Source\BasicMathFunctions/arm_add_q31.c ****         uint32_t blockSize)
 108:.\DSP\Source\BasicMathFunctions/arm_add_q31.c **** {
  27              		.loc 1 108 0
  28              		.cfi_startproc
  29              		@ args = 0, pretend = 0, frame = 0
  30              		@ frame_needed = 0, uses_anonymous_args = 0
  31              		@ link register save eliminated.
  32              	.LVL0:
  33 0000 F0B4     		push	{r4, r5, r6, r7}
  34              		.cfi_def_cfa_offset 16
  35              		.cfi_offset 4, -16
  36              		.cfi_offset 5, -12
  37              		.cfi_offset 6, -8
  38              		.cfi_offset 7, -4
  39              	.LVL1:
 109:.\DSP\Source\BasicMathFunctions/arm_add_q31.c ****         uint32_t blkCnt;                               /* Loop counter */
 110:.\DSP\Source\BasicMathFunctions/arm_add_q31.c **** 
 111:.\DSP\Source\BasicMathFunctions/arm_add_q31.c **** #if defined (ARM_MATH_LOOPUNROLL)
 112:.\DSP\Source\BasicMathFunctions/arm_add_q31.c **** 
 113:.\DSP\Source\BasicMathFunctions/arm_add_q31.c ****   /* Loop unrolling: Compute 4 outputs at a time */
 114:.\DSP\Source\BasicMathFunctions/arm_add_q31.c ****   blkCnt = blockSize >> 2U;
 115:.\DSP\Source\BasicMathFunctions/arm_add_q31.c **** 
 116:.\DSP\Source\BasicMathFunctions/arm_add_q31.c ****   while (blkCnt > 0U)
 117:.\DSP\Source\BasicMathFunctions/arm_add_q31.c ****   {
 118:.\DSP\Source\BasicMathFunctions/arm_add_q31.c ****     /* C = A + B */
 119:.\DSP\Source\BasicMathFunctions/arm_add_q31.c **** 
 120:.\DSP\Source\BasicMathFunctions/arm_add_q31.c ****     /* Add and store result in destination buffer. */
 121:.\DSP\Source\BasicMathFunctions/arm_add_q31.c ****     *pDst++ = __QADD(*pSrcA++, *pSrcB++);
 122:.\DSP\Source\BasicMathFunctions/arm_add_q31.c **** 
 123:.\DSP\Source\BasicMathFunctions/arm_add_q31.c ****     *pDst++ = __QADD(*pSrcA++, *pSrcB++);
 124:.\DSP\Source\BasicMathFunctions/arm_add_q31.c **** 
 125:.\DSP\Source\BasicMathFunctions/arm_add_q31.c ****     *pDst++ = __QADD(*pSrcA++, *pSrcB++);
 126:.\DSP\Source\BasicMathFunctions/arm_add_q31.c **** 
 127:.\DSP\Source\BasicMathFunctions/arm_add_q31.c ****     *pDst++ = __QADD(*pSrcA++, *pSrcB++);
 128:.\DSP\Source\BasicMathFunctions/arm_add_q31.c **** 
 129:.\DSP\Source\BasicMathFunctions/arm_add_q31.c ****     /* Decrement loop counter */
 130:.\DSP\Source\BasicMathFunctions/arm_add_q31.c ****     blkCnt--;
 131:.\DSP\Source\BasicMathFunctions/arm_add_q31.c ****   }
 132:.\DSP\Source\BasicMathFunctions/arm_add_q31.c **** 
ARM GAS  C:\Users\IVYLIU~1\AppData\Local\Temp\ccHS0EtC.s 			page 4


 133:.\DSP\Source\BasicMathFunctions/arm_add_q31.c ****   /* Loop unrolling: Compute remaining outputs */
 134:.\DSP\Source\BasicMathFunctions/arm_add_q31.c ****   blkCnt = blockSize % 0x4U;
 135:.\DSP\Source\BasicMathFunctions/arm_add_q31.c **** 
 136:.\DSP\Source\BasicMathFunctions/arm_add_q31.c **** #else
 137:.\DSP\Source\BasicMathFunctions/arm_add_q31.c **** 
 138:.\DSP\Source\BasicMathFunctions/arm_add_q31.c ****   /* Initialize blkCnt with number of samples */
 139:.\DSP\Source\BasicMathFunctions/arm_add_q31.c ****   blkCnt = blockSize;
 140:.\DSP\Source\BasicMathFunctions/arm_add_q31.c **** 
 141:.\DSP\Source\BasicMathFunctions/arm_add_q31.c **** #endif /* #if defined (ARM_MATH_LOOPUNROLL) */
 142:.\DSP\Source\BasicMathFunctions/arm_add_q31.c **** 
 143:.\DSP\Source\BasicMathFunctions/arm_add_q31.c ****   while (blkCnt > 0U)
  40              		.loc 1 143 0
  41 0002 14E0     		b	.L2
  42              	.LVL2:
  43              	.L5:
 144:.\DSP\Source\BasicMathFunctions/arm_add_q31.c ****   {
 145:.\DSP\Source\BasicMathFunctions/arm_add_q31.c ****     /* C = A + B */
 146:.\DSP\Source\BasicMathFunctions/arm_add_q31.c **** 
 147:.\DSP\Source\BasicMathFunctions/arm_add_q31.c ****     /* Add and store result in destination buffer. */
 148:.\DSP\Source\BasicMathFunctions/arm_add_q31.c ****     *pDst++ = __QADD(*pSrcA++, *pSrcB++);
  44              		.loc 1 148 0
  45 0004 161D     		adds	r6, r2, #4
  46              	.LVL3:
  47 0006 041D     		adds	r4, r0, #4
  48              	.LVL4:
  49 0008 0768     		ldr	r7, [r0]
  50 000a 0D1D     		adds	r5, r1, #4
  51              	.LVL5:
  52 000c 0868     		ldr	r0, [r1]
  53              	.LVL6:
  54              	.LBB8:
  55              	.LBB9:
  56              		.file 2 ".\\DSP\\Include/dsp/none.h"
   1:.\DSP\Include/dsp/none.h **** /******************************************************************************
   2:.\DSP\Include/dsp/none.h ****  * @file     none.h
   3:.\DSP\Include/dsp/none.h ****  * @brief    Intrinsincs when no DSP extension available
   4:.\DSP\Include/dsp/none.h ****  * @version  V1.9.0
   5:.\DSP\Include/dsp/none.h ****  * @date     20. July 2020
   6:.\DSP\Include/dsp/none.h ****  ******************************************************************************/
   7:.\DSP\Include/dsp/none.h **** /*
   8:.\DSP\Include/dsp/none.h ****  * Copyright (c) 2010-2020 Arm Limited or its affiliates. All rights reserved.
   9:.\DSP\Include/dsp/none.h ****  *
  10:.\DSP\Include/dsp/none.h ****  * SPDX-License-Identifier: Apache-2.0
  11:.\DSP\Include/dsp/none.h ****  *
  12:.\DSP\Include/dsp/none.h ****  * Licensed under the Apache License, Version 2.0 (the License); you may
  13:.\DSP\Include/dsp/none.h ****  * not use this file except in compliance with the License.
  14:.\DSP\Include/dsp/none.h ****  * You may obtain a copy of the License at
  15:.\DSP\Include/dsp/none.h ****  *
  16:.\DSP\Include/dsp/none.h ****  * www.apache.org/licenses/LICENSE-2.0
  17:.\DSP\Include/dsp/none.h ****  *
  18:.\DSP\Include/dsp/none.h ****  * Unless required by applicable law or agreed to in writing, software
  19:.\DSP\Include/dsp/none.h ****  * distributed under the License is distributed on an AS IS BASIS, WITHOUT
  20:.\DSP\Include/dsp/none.h ****  * WARRANTIES OR CONDITIONS OF ANY KIND, either express or implied.
  21:.\DSP\Include/dsp/none.h ****  * See the License for the specific language governing permissions and
  22:.\DSP\Include/dsp/none.h ****  * limitations under the License.
  23:.\DSP\Include/dsp/none.h ****  */
  24:.\DSP\Include/dsp/none.h **** 
ARM GAS  C:\Users\IVYLIU~1\AppData\Local\Temp\ccHS0EtC.s 			page 5


  25:.\DSP\Include/dsp/none.h **** /*
  26:.\DSP\Include/dsp/none.h **** 
  27:.\DSP\Include/dsp/none.h **** Definitions in this file are allowing to reuse some versions of the
  28:.\DSP\Include/dsp/none.h **** CMSIS-DSP to build on a core (M0 for instance) or a host where
  29:.\DSP\Include/dsp/none.h **** DSP extension are not available.
  30:.\DSP\Include/dsp/none.h **** 
  31:.\DSP\Include/dsp/none.h **** Ideally a pure C version should have been used instead.
  32:.\DSP\Include/dsp/none.h **** But those are not always available or use a restricted set
  33:.\DSP\Include/dsp/none.h **** of intrinsics.
  34:.\DSP\Include/dsp/none.h **** 
  35:.\DSP\Include/dsp/none.h **** */
  36:.\DSP\Include/dsp/none.h ****  
  37:.\DSP\Include/dsp/none.h **** #ifndef _NONE_H_
  38:.\DSP\Include/dsp/none.h **** #define _NONE_H_
  39:.\DSP\Include/dsp/none.h **** 
  40:.\DSP\Include/dsp/none.h **** #include "arm_math_types.h"
  41:.\DSP\Include/dsp/none.h **** 
  42:.\DSP\Include/dsp/none.h **** #ifdef   __cplusplus
  43:.\DSP\Include/dsp/none.h **** extern "C"
  44:.\DSP\Include/dsp/none.h **** {
  45:.\DSP\Include/dsp/none.h **** #endif
  46:.\DSP\Include/dsp/none.h **** 
  47:.\DSP\Include/dsp/none.h ****  
  48:.\DSP\Include/dsp/none.h **** 
  49:.\DSP\Include/dsp/none.h **** /*
  50:.\DSP\Include/dsp/none.h **** 
  51:.\DSP\Include/dsp/none.h **** Normally those kind of definitions are in a compiler file
  52:.\DSP\Include/dsp/none.h **** in Core or Core_A.
  53:.\DSP\Include/dsp/none.h **** 
  54:.\DSP\Include/dsp/none.h **** But for MSVC compiler it is a bit special. The goal is very specific
  55:.\DSP\Include/dsp/none.h **** to CMSIS-DSP and only to allow the use of this library from other
  56:.\DSP\Include/dsp/none.h **** systems like Python or Matlab.
  57:.\DSP\Include/dsp/none.h **** 
  58:.\DSP\Include/dsp/none.h **** MSVC is not going to be used to cross-compile to ARM. So, having a MSVC
  59:.\DSP\Include/dsp/none.h **** compiler file in Core or Core_A would not make sense.
  60:.\DSP\Include/dsp/none.h **** 
  61:.\DSP\Include/dsp/none.h **** */
  62:.\DSP\Include/dsp/none.h **** #if defined ( _MSC_VER ) || defined(__GNUC_PYTHON__) || defined(__APPLE_CC__)
  63:.\DSP\Include/dsp/none.h ****     __STATIC_FORCEINLINE uint8_t __CLZ(uint32_t data)
  64:.\DSP\Include/dsp/none.h ****     {
  65:.\DSP\Include/dsp/none.h ****       if (data == 0U) { return 32U; }
  66:.\DSP\Include/dsp/none.h **** 
  67:.\DSP\Include/dsp/none.h ****       uint32_t count = 0U;
  68:.\DSP\Include/dsp/none.h ****       uint32_t mask = 0x80000000U;
  69:.\DSP\Include/dsp/none.h **** 
  70:.\DSP\Include/dsp/none.h ****       while ((data & mask) == 0U)
  71:.\DSP\Include/dsp/none.h ****       {
  72:.\DSP\Include/dsp/none.h ****         count += 1U;
  73:.\DSP\Include/dsp/none.h ****         mask = mask >> 1U;
  74:.\DSP\Include/dsp/none.h ****       }
  75:.\DSP\Include/dsp/none.h ****       return count;
  76:.\DSP\Include/dsp/none.h ****     }
  77:.\DSP\Include/dsp/none.h **** 
  78:.\DSP\Include/dsp/none.h ****   __STATIC_FORCEINLINE int32_t __SSAT(int32_t val, uint32_t sat)
  79:.\DSP\Include/dsp/none.h ****   {
  80:.\DSP\Include/dsp/none.h ****     if ((sat >= 1U) && (sat <= 32U))
  81:.\DSP\Include/dsp/none.h ****     {
ARM GAS  C:\Users\IVYLIU~1\AppData\Local\Temp\ccHS0EtC.s 			page 6


  82:.\DSP\Include/dsp/none.h ****       const int32_t max = (int32_t)((1U << (sat - 1U)) - 1U);
  83:.\DSP\Include/dsp/none.h ****       const int32_t min = -1 - max ;
  84:.\DSP\Include/dsp/none.h ****       if (val > max)
  85:.\DSP\Include/dsp/none.h ****       {
  86:.\DSP\Include/dsp/none.h ****         return max;
  87:.\DSP\Include/dsp/none.h ****       }
  88:.\DSP\Include/dsp/none.h ****       else if (val < min)
  89:.\DSP\Include/dsp/none.h ****       {
  90:.\DSP\Include/dsp/none.h ****         return min;
  91:.\DSP\Include/dsp/none.h ****       }
  92:.\DSP\Include/dsp/none.h ****     }
  93:.\DSP\Include/dsp/none.h ****     return val;
  94:.\DSP\Include/dsp/none.h ****   }
  95:.\DSP\Include/dsp/none.h **** 
  96:.\DSP\Include/dsp/none.h ****   __STATIC_FORCEINLINE uint32_t __USAT(int32_t val, uint32_t sat)
  97:.\DSP\Include/dsp/none.h ****   {
  98:.\DSP\Include/dsp/none.h ****     if (sat <= 31U)
  99:.\DSP\Include/dsp/none.h ****     {
 100:.\DSP\Include/dsp/none.h ****       const uint32_t max = ((1U << sat) - 1U);
 101:.\DSP\Include/dsp/none.h ****       if (val > (int32_t)max)
 102:.\DSP\Include/dsp/none.h ****       {
 103:.\DSP\Include/dsp/none.h ****         return max;
 104:.\DSP\Include/dsp/none.h ****       }
 105:.\DSP\Include/dsp/none.h ****       else if (val < 0)
 106:.\DSP\Include/dsp/none.h ****       {
 107:.\DSP\Include/dsp/none.h ****         return 0U;
 108:.\DSP\Include/dsp/none.h ****       }
 109:.\DSP\Include/dsp/none.h ****     }
 110:.\DSP\Include/dsp/none.h ****     return (uint32_t)val;
 111:.\DSP\Include/dsp/none.h ****   }
 112:.\DSP\Include/dsp/none.h **** 
 113:.\DSP\Include/dsp/none.h ****  /**
 114:.\DSP\Include/dsp/none.h ****   \brief   Rotate Right in unsigned value (32 bit)
 115:.\DSP\Include/dsp/none.h ****   \details Rotate Right (immediate) provides the value of the contents of a register rotated by a v
 116:.\DSP\Include/dsp/none.h ****   \param [in]    op1  Value to rotate
 117:.\DSP\Include/dsp/none.h ****   \param [in]    op2  Number of Bits to rotate
 118:.\DSP\Include/dsp/none.h ****   \return               Rotated value
 119:.\DSP\Include/dsp/none.h ****  */
 120:.\DSP\Include/dsp/none.h **** __STATIC_FORCEINLINE uint32_t __ROR(uint32_t op1, uint32_t op2)
 121:.\DSP\Include/dsp/none.h **** {
 122:.\DSP\Include/dsp/none.h ****   op2 %= 32U;
 123:.\DSP\Include/dsp/none.h ****   if (op2 == 0U)
 124:.\DSP\Include/dsp/none.h ****   {
 125:.\DSP\Include/dsp/none.h ****     return op1;
 126:.\DSP\Include/dsp/none.h ****   }
 127:.\DSP\Include/dsp/none.h ****   return (op1 >> op2) | (op1 << (32U - op2));
 128:.\DSP\Include/dsp/none.h **** }
 129:.\DSP\Include/dsp/none.h **** 
 130:.\DSP\Include/dsp/none.h **** 
 131:.\DSP\Include/dsp/none.h **** #endif
 132:.\DSP\Include/dsp/none.h **** 
 133:.\DSP\Include/dsp/none.h **** /**
 134:.\DSP\Include/dsp/none.h ****    * @brief Clips Q63 to Q31 values.
 135:.\DSP\Include/dsp/none.h ****    */
 136:.\DSP\Include/dsp/none.h ****   __STATIC_FORCEINLINE q31_t clip_q63_to_q31(
 137:.\DSP\Include/dsp/none.h ****   q63_t x)
 138:.\DSP\Include/dsp/none.h ****   {
ARM GAS  C:\Users\IVYLIU~1\AppData\Local\Temp\ccHS0EtC.s 			page 7


 139:.\DSP\Include/dsp/none.h ****     return ((q31_t) (x >> 32) != ((q31_t) x >> 31)) ?
 140:.\DSP\Include/dsp/none.h ****       ((0x7FFFFFFF ^ ((q31_t) (x >> 63)))) : (q31_t) x;
 141:.\DSP\Include/dsp/none.h ****   }
 142:.\DSP\Include/dsp/none.h **** 
 143:.\DSP\Include/dsp/none.h ****   /**
 144:.\DSP\Include/dsp/none.h ****    * @brief Clips Q63 to Q15 values.
 145:.\DSP\Include/dsp/none.h ****    */
 146:.\DSP\Include/dsp/none.h ****   __STATIC_FORCEINLINE q15_t clip_q63_to_q15(
 147:.\DSP\Include/dsp/none.h ****   q63_t x)
 148:.\DSP\Include/dsp/none.h ****   {
 149:.\DSP\Include/dsp/none.h ****     return ((q31_t) (x >> 32) != ((q31_t) x >> 31)) ?
 150:.\DSP\Include/dsp/none.h ****       ((0x7FFF ^ ((q15_t) (x >> 63)))) : (q15_t) (x >> 15);
 151:.\DSP\Include/dsp/none.h ****   }
 152:.\DSP\Include/dsp/none.h **** 
 153:.\DSP\Include/dsp/none.h ****   /**
 154:.\DSP\Include/dsp/none.h ****    * @brief Clips Q31 to Q7 values.
 155:.\DSP\Include/dsp/none.h ****    */
 156:.\DSP\Include/dsp/none.h ****   __STATIC_FORCEINLINE q7_t clip_q31_to_q7(
 157:.\DSP\Include/dsp/none.h ****   q31_t x)
 158:.\DSP\Include/dsp/none.h ****   {
 159:.\DSP\Include/dsp/none.h ****     return ((q31_t) (x >> 24) != ((q31_t) x >> 23)) ?
 160:.\DSP\Include/dsp/none.h ****       ((0x7F ^ ((q7_t) (x >> 31)))) : (q7_t) x;
 161:.\DSP\Include/dsp/none.h ****   }
 162:.\DSP\Include/dsp/none.h **** 
 163:.\DSP\Include/dsp/none.h ****   /**
 164:.\DSP\Include/dsp/none.h ****    * @brief Clips Q31 to Q15 values.
 165:.\DSP\Include/dsp/none.h ****    */
 166:.\DSP\Include/dsp/none.h ****   __STATIC_FORCEINLINE q15_t clip_q31_to_q15(
 167:.\DSP\Include/dsp/none.h ****   q31_t x)
 168:.\DSP\Include/dsp/none.h ****   {
 169:.\DSP\Include/dsp/none.h ****     return ((q31_t) (x >> 16) != ((q31_t) x >> 15)) ?
 170:.\DSP\Include/dsp/none.h ****       ((0x7FFF ^ ((q15_t) (x >> 31)))) : (q15_t) x;
 171:.\DSP\Include/dsp/none.h ****   }
 172:.\DSP\Include/dsp/none.h **** 
 173:.\DSP\Include/dsp/none.h ****   /**
 174:.\DSP\Include/dsp/none.h ****    * @brief Multiplies 32 X 64 and returns 32 bit result in 2.30 format.
 175:.\DSP\Include/dsp/none.h ****    */
 176:.\DSP\Include/dsp/none.h ****   __STATIC_FORCEINLINE q63_t mult32x64(
 177:.\DSP\Include/dsp/none.h ****   q63_t x,
 178:.\DSP\Include/dsp/none.h ****   q31_t y)
 179:.\DSP\Include/dsp/none.h ****   {
 180:.\DSP\Include/dsp/none.h ****     return ((((q63_t) (x & 0x00000000FFFFFFFF) * y) >> 32) +
 181:.\DSP\Include/dsp/none.h ****             (((q63_t) (x >> 32)                * y)      )  );
 182:.\DSP\Include/dsp/none.h ****   }
 183:.\DSP\Include/dsp/none.h **** 
 184:.\DSP\Include/dsp/none.h **** /* SMMLAR */
 185:.\DSP\Include/dsp/none.h **** #define multAcc_32x32_keep32_R(a, x, y) \
 186:.\DSP\Include/dsp/none.h ****     a = (q31_t) (((((q63_t) a) << 32) + ((q63_t) x * y) + 0x80000000LL ) >> 32)
 187:.\DSP\Include/dsp/none.h **** 
 188:.\DSP\Include/dsp/none.h **** /* SMMLSR */
 189:.\DSP\Include/dsp/none.h **** #define multSub_32x32_keep32_R(a, x, y) \
 190:.\DSP\Include/dsp/none.h ****     a = (q31_t) (((((q63_t) a) << 32) - ((q63_t) x * y) + 0x80000000LL ) >> 32)
 191:.\DSP\Include/dsp/none.h **** 
 192:.\DSP\Include/dsp/none.h **** /* SMMULR */
 193:.\DSP\Include/dsp/none.h **** #define mult_32x32_keep32_R(a, x, y) \
 194:.\DSP\Include/dsp/none.h ****     a = (q31_t) (((q63_t) x * y + 0x80000000LL ) >> 32)
 195:.\DSP\Include/dsp/none.h **** 
ARM GAS  C:\Users\IVYLIU~1\AppData\Local\Temp\ccHS0EtC.s 			page 8


 196:.\DSP\Include/dsp/none.h **** /* SMMLA */
 197:.\DSP\Include/dsp/none.h **** #define multAcc_32x32_keep32(a, x, y) \
 198:.\DSP\Include/dsp/none.h ****     a += (q31_t) (((q63_t) x * y) >> 32)
 199:.\DSP\Include/dsp/none.h **** 
 200:.\DSP\Include/dsp/none.h **** /* SMMLS */
 201:.\DSP\Include/dsp/none.h **** #define multSub_32x32_keep32(a, x, y) \
 202:.\DSP\Include/dsp/none.h ****     a -= (q31_t) (((q63_t) x * y) >> 32)
 203:.\DSP\Include/dsp/none.h **** 
 204:.\DSP\Include/dsp/none.h **** /* SMMUL */
 205:.\DSP\Include/dsp/none.h **** #define mult_32x32_keep32(a, x, y) \
 206:.\DSP\Include/dsp/none.h ****     a = (q31_t) (((q63_t) x * y ) >> 32)
 207:.\DSP\Include/dsp/none.h **** 
 208:.\DSP\Include/dsp/none.h **** #ifndef ARM_MATH_DSP
 209:.\DSP\Include/dsp/none.h ****   /**
 210:.\DSP\Include/dsp/none.h ****    * @brief definition to pack two 16 bit values.
 211:.\DSP\Include/dsp/none.h ****    */
 212:.\DSP\Include/dsp/none.h ****   #define __PKHBT(ARG1, ARG2, ARG3) ( (((int32_t)(ARG1) <<    0) & (int32_t)0x0000FFFF) | \
 213:.\DSP\Include/dsp/none.h ****                                       (((int32_t)(ARG2) << ARG3) & (int32_t)0xFFFF0000)  )
 214:.\DSP\Include/dsp/none.h ****   #define __PKHTB(ARG1, ARG2, ARG3) ( (((int32_t)(ARG1) <<    0) & (int32_t)0xFFFF0000) | \
 215:.\DSP\Include/dsp/none.h ****                                       (((int32_t)(ARG2) >> ARG3) & (int32_t)0x0000FFFF)  )
 216:.\DSP\Include/dsp/none.h **** #endif
 217:.\DSP\Include/dsp/none.h **** 
 218:.\DSP\Include/dsp/none.h ****    /**
 219:.\DSP\Include/dsp/none.h ****    * @brief definition to pack four 8 bit values.
 220:.\DSP\Include/dsp/none.h ****    */
 221:.\DSP\Include/dsp/none.h **** #ifndef ARM_MATH_BIG_ENDIAN
 222:.\DSP\Include/dsp/none.h ****   #define __PACKq7(v0,v1,v2,v3) ( (((int32_t)(v0) <<  0) & (int32_t)0x000000FF) | \
 223:.\DSP\Include/dsp/none.h ****                                   (((int32_t)(v1) <<  8) & (int32_t)0x0000FF00) | \
 224:.\DSP\Include/dsp/none.h ****                                   (((int32_t)(v2) << 16) & (int32_t)0x00FF0000) | \
 225:.\DSP\Include/dsp/none.h ****                                   (((int32_t)(v3) << 24) & (int32_t)0xFF000000)  )
 226:.\DSP\Include/dsp/none.h **** #else
 227:.\DSP\Include/dsp/none.h ****   #define __PACKq7(v0,v1,v2,v3) ( (((int32_t)(v3) <<  0) & (int32_t)0x000000FF) | \
 228:.\DSP\Include/dsp/none.h ****                                   (((int32_t)(v2) <<  8) & (int32_t)0x0000FF00) | \
 229:.\DSP\Include/dsp/none.h ****                                   (((int32_t)(v1) << 16) & (int32_t)0x00FF0000) | \
 230:.\DSP\Include/dsp/none.h ****                                   (((int32_t)(v0) << 24) & (int32_t)0xFF000000)  )
 231:.\DSP\Include/dsp/none.h **** #endif
 232:.\DSP\Include/dsp/none.h **** 
 233:.\DSP\Include/dsp/none.h **** 
 234:.\DSP\Include/dsp/none.h ****  
 235:.\DSP\Include/dsp/none.h **** 
 236:.\DSP\Include/dsp/none.h **** /*
 237:.\DSP\Include/dsp/none.h ****  * @brief C custom defined intrinsic functions
 238:.\DSP\Include/dsp/none.h ****  */
 239:.\DSP\Include/dsp/none.h **** #if !defined (ARM_MATH_DSP)
 240:.\DSP\Include/dsp/none.h **** 
 241:.\DSP\Include/dsp/none.h **** 
 242:.\DSP\Include/dsp/none.h ****   /*
 243:.\DSP\Include/dsp/none.h ****    * @brief C custom defined QADD8
 244:.\DSP\Include/dsp/none.h ****    */
 245:.\DSP\Include/dsp/none.h ****   __STATIC_FORCEINLINE uint32_t __QADD8(
 246:.\DSP\Include/dsp/none.h ****   uint32_t x,
 247:.\DSP\Include/dsp/none.h ****   uint32_t y)
 248:.\DSP\Include/dsp/none.h ****   {
 249:.\DSP\Include/dsp/none.h ****     q31_t r, s, t, u;
 250:.\DSP\Include/dsp/none.h **** 
 251:.\DSP\Include/dsp/none.h ****     r = __SSAT(((((q31_t)x << 24) >> 24) + (((q31_t)y << 24) >> 24)), 8) & (int32_t)0x000000FF;
 252:.\DSP\Include/dsp/none.h ****     s = __SSAT(((((q31_t)x << 16) >> 24) + (((q31_t)y << 16) >> 24)), 8) & (int32_t)0x000000FF;
ARM GAS  C:\Users\IVYLIU~1\AppData\Local\Temp\ccHS0EtC.s 			page 9


 253:.\DSP\Include/dsp/none.h ****     t = __SSAT(((((q31_t)x <<  8) >> 24) + (((q31_t)y <<  8) >> 24)), 8) & (int32_t)0x000000FF;
 254:.\DSP\Include/dsp/none.h ****     u = __SSAT(((((q31_t)x      ) >> 24) + (((q31_t)y      ) >> 24)), 8) & (int32_t)0x000000FF;
 255:.\DSP\Include/dsp/none.h **** 
 256:.\DSP\Include/dsp/none.h ****     return ((uint32_t)((u << 24) | (t << 16) | (s <<  8) | (r      )));
 257:.\DSP\Include/dsp/none.h ****   }
 258:.\DSP\Include/dsp/none.h **** 
 259:.\DSP\Include/dsp/none.h **** 
 260:.\DSP\Include/dsp/none.h ****   /*
 261:.\DSP\Include/dsp/none.h ****    * @brief C custom defined QSUB8
 262:.\DSP\Include/dsp/none.h ****    */
 263:.\DSP\Include/dsp/none.h ****   __STATIC_FORCEINLINE uint32_t __QSUB8(
 264:.\DSP\Include/dsp/none.h ****   uint32_t x,
 265:.\DSP\Include/dsp/none.h ****   uint32_t y)
 266:.\DSP\Include/dsp/none.h ****   {
 267:.\DSP\Include/dsp/none.h ****     q31_t r, s, t, u;
 268:.\DSP\Include/dsp/none.h **** 
 269:.\DSP\Include/dsp/none.h ****     r = __SSAT(((((q31_t)x << 24) >> 24) - (((q31_t)y << 24) >> 24)), 8) & (int32_t)0x000000FF;
 270:.\DSP\Include/dsp/none.h ****     s = __SSAT(((((q31_t)x << 16) >> 24) - (((q31_t)y << 16) >> 24)), 8) & (int32_t)0x000000FF;
 271:.\DSP\Include/dsp/none.h ****     t = __SSAT(((((q31_t)x <<  8) >> 24) - (((q31_t)y <<  8) >> 24)), 8) & (int32_t)0x000000FF;
 272:.\DSP\Include/dsp/none.h ****     u = __SSAT(((((q31_t)x      ) >> 24) - (((q31_t)y      ) >> 24)), 8) & (int32_t)0x000000FF;
 273:.\DSP\Include/dsp/none.h **** 
 274:.\DSP\Include/dsp/none.h ****     return ((uint32_t)((u << 24) | (t << 16) | (s <<  8) | (r      )));
 275:.\DSP\Include/dsp/none.h ****   }
 276:.\DSP\Include/dsp/none.h **** 
 277:.\DSP\Include/dsp/none.h **** 
 278:.\DSP\Include/dsp/none.h ****   /*
 279:.\DSP\Include/dsp/none.h ****    * @brief C custom defined QADD16
 280:.\DSP\Include/dsp/none.h ****    */
 281:.\DSP\Include/dsp/none.h ****   __STATIC_FORCEINLINE uint32_t __QADD16(
 282:.\DSP\Include/dsp/none.h ****   uint32_t x,
 283:.\DSP\Include/dsp/none.h ****   uint32_t y)
 284:.\DSP\Include/dsp/none.h ****   {
 285:.\DSP\Include/dsp/none.h **** /*  q31_t r,     s;  without initialisation 'arm_offset_q15 test' fails  but 'intrinsic' tests pass
 286:.\DSP\Include/dsp/none.h ****     q31_t r = 0, s = 0;
 287:.\DSP\Include/dsp/none.h **** 
 288:.\DSP\Include/dsp/none.h ****     r = __SSAT(((((q31_t)x << 16) >> 16) + (((q31_t)y << 16) >> 16)), 16) & (int32_t)0x0000FFFF;
 289:.\DSP\Include/dsp/none.h ****     s = __SSAT(((((q31_t)x      ) >> 16) + (((q31_t)y      ) >> 16)), 16) & (int32_t)0x0000FFFF;
 290:.\DSP\Include/dsp/none.h **** 
 291:.\DSP\Include/dsp/none.h ****     return ((uint32_t)((s << 16) | (r      )));
 292:.\DSP\Include/dsp/none.h ****   }
 293:.\DSP\Include/dsp/none.h **** 
 294:.\DSP\Include/dsp/none.h **** 
 295:.\DSP\Include/dsp/none.h ****   /*
 296:.\DSP\Include/dsp/none.h ****    * @brief C custom defined SHADD16
 297:.\DSP\Include/dsp/none.h ****    */
 298:.\DSP\Include/dsp/none.h ****   __STATIC_FORCEINLINE uint32_t __SHADD16(
 299:.\DSP\Include/dsp/none.h ****   uint32_t x,
 300:.\DSP\Include/dsp/none.h ****   uint32_t y)
 301:.\DSP\Include/dsp/none.h ****   {
 302:.\DSP\Include/dsp/none.h ****     q31_t r, s;
 303:.\DSP\Include/dsp/none.h **** 
 304:.\DSP\Include/dsp/none.h ****     r = (((((q31_t)x << 16) >> 16) + (((q31_t)y << 16) >> 16)) >> 1) & (int32_t)0x0000FFFF;
 305:.\DSP\Include/dsp/none.h ****     s = (((((q31_t)x      ) >> 16) + (((q31_t)y      ) >> 16)) >> 1) & (int32_t)0x0000FFFF;
 306:.\DSP\Include/dsp/none.h **** 
 307:.\DSP\Include/dsp/none.h ****     return ((uint32_t)((s << 16) | (r      )));
 308:.\DSP\Include/dsp/none.h ****   }
 309:.\DSP\Include/dsp/none.h **** 
ARM GAS  C:\Users\IVYLIU~1\AppData\Local\Temp\ccHS0EtC.s 			page 10


 310:.\DSP\Include/dsp/none.h **** 
 311:.\DSP\Include/dsp/none.h ****   /*
 312:.\DSP\Include/dsp/none.h ****    * @brief C custom defined QSUB16
 313:.\DSP\Include/dsp/none.h ****    */
 314:.\DSP\Include/dsp/none.h ****   __STATIC_FORCEINLINE uint32_t __QSUB16(
 315:.\DSP\Include/dsp/none.h ****   uint32_t x,
 316:.\DSP\Include/dsp/none.h ****   uint32_t y)
 317:.\DSP\Include/dsp/none.h ****   {
 318:.\DSP\Include/dsp/none.h ****     q31_t r, s;
 319:.\DSP\Include/dsp/none.h **** 
 320:.\DSP\Include/dsp/none.h ****     r = __SSAT(((((q31_t)x << 16) >> 16) - (((q31_t)y << 16) >> 16)), 16) & (int32_t)0x0000FFFF;
 321:.\DSP\Include/dsp/none.h ****     s = __SSAT(((((q31_t)x      ) >> 16) - (((q31_t)y      ) >> 16)), 16) & (int32_t)0x0000FFFF;
 322:.\DSP\Include/dsp/none.h **** 
 323:.\DSP\Include/dsp/none.h ****     return ((uint32_t)((s << 16) | (r      )));
 324:.\DSP\Include/dsp/none.h ****   }
 325:.\DSP\Include/dsp/none.h **** 
 326:.\DSP\Include/dsp/none.h **** 
 327:.\DSP\Include/dsp/none.h ****   /*
 328:.\DSP\Include/dsp/none.h ****    * @brief C custom defined SHSUB16
 329:.\DSP\Include/dsp/none.h ****    */
 330:.\DSP\Include/dsp/none.h ****   __STATIC_FORCEINLINE uint32_t __SHSUB16(
 331:.\DSP\Include/dsp/none.h ****   uint32_t x,
 332:.\DSP\Include/dsp/none.h ****   uint32_t y)
 333:.\DSP\Include/dsp/none.h ****   {
 334:.\DSP\Include/dsp/none.h ****     q31_t r, s;
 335:.\DSP\Include/dsp/none.h **** 
 336:.\DSP\Include/dsp/none.h ****     r = (((((q31_t)x << 16) >> 16) - (((q31_t)y << 16) >> 16)) >> 1) & (int32_t)0x0000FFFF;
 337:.\DSP\Include/dsp/none.h ****     s = (((((q31_t)x      ) >> 16) - (((q31_t)y      ) >> 16)) >> 1) & (int32_t)0x0000FFFF;
 338:.\DSP\Include/dsp/none.h **** 
 339:.\DSP\Include/dsp/none.h ****     return ((uint32_t)((s << 16) | (r      )));
 340:.\DSP\Include/dsp/none.h ****   }
 341:.\DSP\Include/dsp/none.h **** 
 342:.\DSP\Include/dsp/none.h **** 
 343:.\DSP\Include/dsp/none.h ****   /*
 344:.\DSP\Include/dsp/none.h ****    * @brief C custom defined QASX
 345:.\DSP\Include/dsp/none.h ****    */
 346:.\DSP\Include/dsp/none.h ****   __STATIC_FORCEINLINE uint32_t __QASX(
 347:.\DSP\Include/dsp/none.h ****   uint32_t x,
 348:.\DSP\Include/dsp/none.h ****   uint32_t y)
 349:.\DSP\Include/dsp/none.h ****   {
 350:.\DSP\Include/dsp/none.h ****     q31_t r, s;
 351:.\DSP\Include/dsp/none.h **** 
 352:.\DSP\Include/dsp/none.h ****     r = __SSAT(((((q31_t)x << 16) >> 16) - (((q31_t)y      ) >> 16)), 16) & (int32_t)0x0000FFFF;
 353:.\DSP\Include/dsp/none.h ****     s = __SSAT(((((q31_t)x      ) >> 16) + (((q31_t)y << 16) >> 16)), 16) & (int32_t)0x0000FFFF;
 354:.\DSP\Include/dsp/none.h **** 
 355:.\DSP\Include/dsp/none.h ****     return ((uint32_t)((s << 16) | (r      )));
 356:.\DSP\Include/dsp/none.h ****   }
 357:.\DSP\Include/dsp/none.h **** 
 358:.\DSP\Include/dsp/none.h **** 
 359:.\DSP\Include/dsp/none.h ****   /*
 360:.\DSP\Include/dsp/none.h ****    * @brief C custom defined SHASX
 361:.\DSP\Include/dsp/none.h ****    */
 362:.\DSP\Include/dsp/none.h ****   __STATIC_FORCEINLINE uint32_t __SHASX(
 363:.\DSP\Include/dsp/none.h ****   uint32_t x,
 364:.\DSP\Include/dsp/none.h ****   uint32_t y)
 365:.\DSP\Include/dsp/none.h ****   {
 366:.\DSP\Include/dsp/none.h ****     q31_t r, s;
ARM GAS  C:\Users\IVYLIU~1\AppData\Local\Temp\ccHS0EtC.s 			page 11


 367:.\DSP\Include/dsp/none.h **** 
 368:.\DSP\Include/dsp/none.h ****     r = (((((q31_t)x << 16) >> 16) - (((q31_t)y      ) >> 16)) >> 1) & (int32_t)0x0000FFFF;
 369:.\DSP\Include/dsp/none.h ****     s = (((((q31_t)x      ) >> 16) + (((q31_t)y << 16) >> 16)) >> 1) & (int32_t)0x0000FFFF;
 370:.\DSP\Include/dsp/none.h **** 
 371:.\DSP\Include/dsp/none.h ****     return ((uint32_t)((s << 16) | (r      )));
 372:.\DSP\Include/dsp/none.h ****   }
 373:.\DSP\Include/dsp/none.h **** 
 374:.\DSP\Include/dsp/none.h **** 
 375:.\DSP\Include/dsp/none.h ****   /*
 376:.\DSP\Include/dsp/none.h ****    * @brief C custom defined QSAX
 377:.\DSP\Include/dsp/none.h ****    */
 378:.\DSP\Include/dsp/none.h ****   __STATIC_FORCEINLINE uint32_t __QSAX(
 379:.\DSP\Include/dsp/none.h ****   uint32_t x,
 380:.\DSP\Include/dsp/none.h ****   uint32_t y)
 381:.\DSP\Include/dsp/none.h ****   {
 382:.\DSP\Include/dsp/none.h ****     q31_t r, s;
 383:.\DSP\Include/dsp/none.h **** 
 384:.\DSP\Include/dsp/none.h ****     r = __SSAT(((((q31_t)x << 16) >> 16) + (((q31_t)y      ) >> 16)), 16) & (int32_t)0x0000FFFF;
 385:.\DSP\Include/dsp/none.h ****     s = __SSAT(((((q31_t)x      ) >> 16) - (((q31_t)y << 16) >> 16)), 16) & (int32_t)0x0000FFFF;
 386:.\DSP\Include/dsp/none.h **** 
 387:.\DSP\Include/dsp/none.h ****     return ((uint32_t)((s << 16) | (r      )));
 388:.\DSP\Include/dsp/none.h ****   }
 389:.\DSP\Include/dsp/none.h **** 
 390:.\DSP\Include/dsp/none.h **** 
 391:.\DSP\Include/dsp/none.h ****   /*
 392:.\DSP\Include/dsp/none.h ****    * @brief C custom defined SHSAX
 393:.\DSP\Include/dsp/none.h ****    */
 394:.\DSP\Include/dsp/none.h ****   __STATIC_FORCEINLINE uint32_t __SHSAX(
 395:.\DSP\Include/dsp/none.h ****   uint32_t x,
 396:.\DSP\Include/dsp/none.h ****   uint32_t y)
 397:.\DSP\Include/dsp/none.h ****   {
 398:.\DSP\Include/dsp/none.h ****     q31_t r, s;
 399:.\DSP\Include/dsp/none.h **** 
 400:.\DSP\Include/dsp/none.h ****     r = (((((q31_t)x << 16) >> 16) + (((q31_t)y      ) >> 16)) >> 1) & (int32_t)0x0000FFFF;
 401:.\DSP\Include/dsp/none.h ****     s = (((((q31_t)x      ) >> 16) - (((q31_t)y << 16) >> 16)) >> 1) & (int32_t)0x0000FFFF;
 402:.\DSP\Include/dsp/none.h **** 
 403:.\DSP\Include/dsp/none.h ****     return ((uint32_t)((s << 16) | (r      )));
 404:.\DSP\Include/dsp/none.h ****   }
 405:.\DSP\Include/dsp/none.h **** 
 406:.\DSP\Include/dsp/none.h **** 
 407:.\DSP\Include/dsp/none.h ****   /*
 408:.\DSP\Include/dsp/none.h ****    * @brief C custom defined SMUSDX
 409:.\DSP\Include/dsp/none.h ****    */
 410:.\DSP\Include/dsp/none.h ****   __STATIC_FORCEINLINE uint32_t __SMUSDX(
 411:.\DSP\Include/dsp/none.h ****   uint32_t x,
 412:.\DSP\Include/dsp/none.h ****   uint32_t y)
 413:.\DSP\Include/dsp/none.h ****   {
 414:.\DSP\Include/dsp/none.h ****     return ((uint32_t)(((((q31_t)x << 16) >> 16) * (((q31_t)y      ) >> 16)) -
 415:.\DSP\Include/dsp/none.h ****                        ((((q31_t)x      ) >> 16) * (((q31_t)y << 16) >> 16))   ));
 416:.\DSP\Include/dsp/none.h ****   }
 417:.\DSP\Include/dsp/none.h **** 
 418:.\DSP\Include/dsp/none.h ****   /*
 419:.\DSP\Include/dsp/none.h ****    * @brief C custom defined SMUADX
 420:.\DSP\Include/dsp/none.h ****    */
 421:.\DSP\Include/dsp/none.h ****   __STATIC_FORCEINLINE uint32_t __SMUADX(
 422:.\DSP\Include/dsp/none.h ****   uint32_t x,
 423:.\DSP\Include/dsp/none.h ****   uint32_t y)
ARM GAS  C:\Users\IVYLIU~1\AppData\Local\Temp\ccHS0EtC.s 			page 12


 424:.\DSP\Include/dsp/none.h ****   {
 425:.\DSP\Include/dsp/none.h ****     return ((uint32_t)(((((q31_t)x << 16) >> 16) * (((q31_t)y      ) >> 16)) +
 426:.\DSP\Include/dsp/none.h ****                        ((((q31_t)x      ) >> 16) * (((q31_t)y << 16) >> 16))   ));
 427:.\DSP\Include/dsp/none.h ****   }
 428:.\DSP\Include/dsp/none.h **** 
 429:.\DSP\Include/dsp/none.h **** 
 430:.\DSP\Include/dsp/none.h ****   /*
 431:.\DSP\Include/dsp/none.h ****    * @brief C custom defined QADD
 432:.\DSP\Include/dsp/none.h ****    */
 433:.\DSP\Include/dsp/none.h ****   __STATIC_FORCEINLINE int32_t __QADD(
 434:.\DSP\Include/dsp/none.h ****   int32_t x,
 435:.\DSP\Include/dsp/none.h ****   int32_t y)
 436:.\DSP\Include/dsp/none.h ****   {
 437:.\DSP\Include/dsp/none.h ****     return ((int32_t)(clip_q63_to_q31((q63_t)x + (q31_t)y)));
  57              		.loc 2 437 0
  58 000e C117     		asrs	r1, r0, #31
  59 0010 C019     		adds	r0, r0, r7
  60              	.LVL7:
  61 0012 41EBE771 		adc	r1, r1, r7, asr #31
  62              	.LVL8:
  63              	.LBB10:
  64              	.LBB11:
 140:.\DSP\Include/dsp/none.h ****   }
  65              		.loc 2 140 0
  66 0016 B1EBE07F 		cmp	r1, r0, asr #31
  67 001a 03D0     		beq	.L6
  68 001c 6FF00040 		mvn	r0, #-2147483648
  69              	.LVL9:
  70 0020 80EAE170 		eor	r0, r0, r1, asr #31
  71              	.L6:
  72              	.LBE11:
  73              	.LBE10:
  74              	.LBE9:
  75              	.LBE8:
  76              		.loc 1 148 0
  77 0024 1060     		str	r0, [r2]
  78              	.LVL10:
 149:.\DSP\Source\BasicMathFunctions/arm_add_q31.c **** 
 150:.\DSP\Source\BasicMathFunctions/arm_add_q31.c ****     /* Decrement loop counter */
 151:.\DSP\Source\BasicMathFunctions/arm_add_q31.c ****     blkCnt--;
  79              		.loc 1 151 0
  80 0026 013B     		subs	r3, r3, #1
  81              	.LVL11:
 148:.\DSP\Source\BasicMathFunctions/arm_add_q31.c **** 
  82              		.loc 1 148 0
  83 0028 3246     		mov	r2, r6
  84 002a 2946     		mov	r1, r5
  85 002c 2046     		mov	r0, r4
  86              	.LVL12:
  87              	.L2:
 143:.\DSP\Source\BasicMathFunctions/arm_add_q31.c ****   {
  88              		.loc 1 143 0
  89 002e 002B     		cmp	r3, #0
  90 0030 E8D1     		bne	.L5
 152:.\DSP\Source\BasicMathFunctions/arm_add_q31.c ****   }
 153:.\DSP\Source\BasicMathFunctions/arm_add_q31.c **** 
 154:.\DSP\Source\BasicMathFunctions/arm_add_q31.c **** }
ARM GAS  C:\Users\IVYLIU~1\AppData\Local\Temp\ccHS0EtC.s 			page 13


  91              		.loc 1 154 0
  92 0032 F0BC     		pop	{r4, r5, r6, r7}
  93              		.cfi_restore 7
  94              		.cfi_restore 6
  95              		.cfi_restore 5
  96              		.cfi_restore 4
  97              		.cfi_def_cfa_offset 0
  98 0034 7047     		bx	lr
  99              		.cfi_endproc
 100              	.LFE83:
 101              		.size	arm_add_q31, .-arm_add_q31
 102 0036 00BF     		.text
 103              	.Letext0:
 104              		.file 3 "c:\\program files (x86)\\cypress\\psoc creator\\3.3\\psoc creator\\import\\gnu\\arm\\4.9.
 105              		.file 4 "c:\\program files (x86)\\cypress\\psoc creator\\3.3\\psoc creator\\import\\gnu\\arm\\4.9.
 106              		.file 5 ".\\DSP\\Include/arm_math_types.h"
 107              		.file 6 ".\\Core\\Include/cmsis_gcc.h"