ARM GAS  C:\Users\IVYLIU~1\AppData\Local\Temp\ccHWxCbk.s 			page 1


   1              		.syntax unified
   2              		.cpu cortex-m3
   3              		.fpu softvfp
   4              		.eabi_attribute 20, 1
   5              		.eabi_attribute 21, 1
   6              		.eabi_attribute 23, 3
   7              		.eabi_attribute 24, 1
   8              		.eabi_attribute 25, 1
   9              		.eabi_attribute 26, 1
  10              		.eabi_attribute 30, 1
  11              		.eabi_attribute 34, 1
  12              		.eabi_attribute 18, 4
  13              		.thumb
  14              		.file	"arm_cfft_radix4_f32.c"
  15              		.text
  16              	.Ltext0:
  17              		.cfi_sections	.debug_frame
  18              		.global	__aeabi_fadd
  19              		.global	__aeabi_fsub
  20              		.global	__aeabi_fmul
  21              		.section	.text.arm_radix4_butterfly_f32,"ax",%progbits
  22              		.align	2
  23              		.global	arm_radix4_butterfly_f32
  24              		.thumb
  25              		.thumb_func
  26              		.type	arm_radix4_butterfly_f32, %function
  27              	arm_radix4_butterfly_f32:
  28              	.LFB85:
  29              		.file 1 ".\\DSP\\Source\\TransformFunctions\\arm_cfft_radix4_f32.c"
   1:.\DSP\Source\TransformFunctions/arm_cfft_radix4_f32.c **** /* ----------------------------------------------------------------------
   2:.\DSP\Source\TransformFunctions/arm_cfft_radix4_f32.c ****  * Project:      CMSIS DSP Library
   3:.\DSP\Source\TransformFunctions/arm_cfft_radix4_f32.c ****  * Title:        arm_cfft_radix4_f32.c
   4:.\DSP\Source\TransformFunctions/arm_cfft_radix4_f32.c ****  * Description:  Radix-4 Decimation in Frequency CFFT & CIFFT Floating point processing function
   5:.\DSP\Source\TransformFunctions/arm_cfft_radix4_f32.c ****  *
   6:.\DSP\Source\TransformFunctions/arm_cfft_radix4_f32.c ****  * $Date:        23 April 2021
   7:.\DSP\Source\TransformFunctions/arm_cfft_radix4_f32.c ****  * $Revision:    V1.9.0
   8:.\DSP\Source\TransformFunctions/arm_cfft_radix4_f32.c ****  *
   9:.\DSP\Source\TransformFunctions/arm_cfft_radix4_f32.c ****  * Target Processor: Cortex-M and Cortex-A cores
  10:.\DSP\Source\TransformFunctions/arm_cfft_radix4_f32.c ****  * -------------------------------------------------------------------- */
  11:.\DSP\Source\TransformFunctions/arm_cfft_radix4_f32.c **** /*
  12:.\DSP\Source\TransformFunctions/arm_cfft_radix4_f32.c ****  * Copyright (C) 2010-2021 ARM Limited or its affiliates. All rights reserved.
  13:.\DSP\Source\TransformFunctions/arm_cfft_radix4_f32.c ****  *
  14:.\DSP\Source\TransformFunctions/arm_cfft_radix4_f32.c ****  * SPDX-License-Identifier: Apache-2.0
  15:.\DSP\Source\TransformFunctions/arm_cfft_radix4_f32.c ****  *
  16:.\DSP\Source\TransformFunctions/arm_cfft_radix4_f32.c ****  * Licensed under the Apache License, Version 2.0 (the License); you may
  17:.\DSP\Source\TransformFunctions/arm_cfft_radix4_f32.c ****  * not use this file except in compliance with the License.
  18:.\DSP\Source\TransformFunctions/arm_cfft_radix4_f32.c ****  * You may obtain a copy of the License at
  19:.\DSP\Source\TransformFunctions/arm_cfft_radix4_f32.c ****  *
  20:.\DSP\Source\TransformFunctions/arm_cfft_radix4_f32.c ****  * www.apache.org/licenses/LICENSE-2.0
  21:.\DSP\Source\TransformFunctions/arm_cfft_radix4_f32.c ****  *
  22:.\DSP\Source\TransformFunctions/arm_cfft_radix4_f32.c ****  * Unless required by applicable law or agreed to in writing, software
  23:.\DSP\Source\TransformFunctions/arm_cfft_radix4_f32.c ****  * distributed under the License is distributed on an AS IS BASIS, WITHOUT
  24:.\DSP\Source\TransformFunctions/arm_cfft_radix4_f32.c ****  * WARRANTIES OR CONDITIONS OF ANY KIND, either express or implied.
  25:.\DSP\Source\TransformFunctions/arm_cfft_radix4_f32.c ****  * See the License for the specific language governing permissions and
  26:.\DSP\Source\TransformFunctions/arm_cfft_radix4_f32.c ****  * limitations under the License.
  27:.\DSP\Source\TransformFunctions/arm_cfft_radix4_f32.c ****  */
  28:.\DSP\Source\TransformFunctions/arm_cfft_radix4_f32.c **** 
ARM GAS  C:\Users\IVYLIU~1\AppData\Local\Temp\ccHWxCbk.s 			page 2


  29:.\DSP\Source\TransformFunctions/arm_cfft_radix4_f32.c **** #include "dsp/transform_functions.h"
  30:.\DSP\Source\TransformFunctions/arm_cfft_radix4_f32.c **** 
  31:.\DSP\Source\TransformFunctions/arm_cfft_radix4_f32.c **** extern void arm_bitreversal_f32(
  32:.\DSP\Source\TransformFunctions/arm_cfft_radix4_f32.c ****         float32_t * pSrc,
  33:.\DSP\Source\TransformFunctions/arm_cfft_radix4_f32.c ****         uint16_t fftSize,
  34:.\DSP\Source\TransformFunctions/arm_cfft_radix4_f32.c ****         uint16_t bitRevFactor,
  35:.\DSP\Source\TransformFunctions/arm_cfft_radix4_f32.c ****   const uint16_t * pBitRevTab);
  36:.\DSP\Source\TransformFunctions/arm_cfft_radix4_f32.c **** 
  37:.\DSP\Source\TransformFunctions/arm_cfft_radix4_f32.c **** void arm_radix4_butterfly_f32(
  38:.\DSP\Source\TransformFunctions/arm_cfft_radix4_f32.c ****         float32_t * pSrc,
  39:.\DSP\Source\TransformFunctions/arm_cfft_radix4_f32.c ****         uint16_t fftLen,
  40:.\DSP\Source\TransformFunctions/arm_cfft_radix4_f32.c ****   const float32_t * pCoef,
  41:.\DSP\Source\TransformFunctions/arm_cfft_radix4_f32.c ****         uint16_t twidCoefModifier);
  42:.\DSP\Source\TransformFunctions/arm_cfft_radix4_f32.c **** 
  43:.\DSP\Source\TransformFunctions/arm_cfft_radix4_f32.c **** void arm_radix4_butterfly_inverse_f32(
  44:.\DSP\Source\TransformFunctions/arm_cfft_radix4_f32.c ****         float32_t * pSrc,
  45:.\DSP\Source\TransformFunctions/arm_cfft_radix4_f32.c ****         uint16_t fftLen,
  46:.\DSP\Source\TransformFunctions/arm_cfft_radix4_f32.c ****   const float32_t * pCoef,
  47:.\DSP\Source\TransformFunctions/arm_cfft_radix4_f32.c ****         uint16_t twidCoefModifier,
  48:.\DSP\Source\TransformFunctions/arm_cfft_radix4_f32.c ****         float32_t onebyfftLen);
  49:.\DSP\Source\TransformFunctions/arm_cfft_radix4_f32.c **** 
  50:.\DSP\Source\TransformFunctions/arm_cfft_radix4_f32.c **** 
  51:.\DSP\Source\TransformFunctions/arm_cfft_radix4_f32.c **** 
  52:.\DSP\Source\TransformFunctions/arm_cfft_radix4_f32.c **** 
  53:.\DSP\Source\TransformFunctions/arm_cfft_radix4_f32.c **** /**
  54:.\DSP\Source\TransformFunctions/arm_cfft_radix4_f32.c ****   @ingroup groupTransforms
  55:.\DSP\Source\TransformFunctions/arm_cfft_radix4_f32.c ****  */
  56:.\DSP\Source\TransformFunctions/arm_cfft_radix4_f32.c **** 
  57:.\DSP\Source\TransformFunctions/arm_cfft_radix4_f32.c **** /**
  58:.\DSP\Source\TransformFunctions/arm_cfft_radix4_f32.c ****   @addtogroup ComplexFFT
  59:.\DSP\Source\TransformFunctions/arm_cfft_radix4_f32.c ****   @{
  60:.\DSP\Source\TransformFunctions/arm_cfft_radix4_f32.c ****  */
  61:.\DSP\Source\TransformFunctions/arm_cfft_radix4_f32.c **** 
  62:.\DSP\Source\TransformFunctions/arm_cfft_radix4_f32.c **** 
  63:.\DSP\Source\TransformFunctions/arm_cfft_radix4_f32.c **** /**
  64:.\DSP\Source\TransformFunctions/arm_cfft_radix4_f32.c ****   @brief         Processing function for the floating-point Radix-4 CFFT/CIFFT.
  65:.\DSP\Source\TransformFunctions/arm_cfft_radix4_f32.c ****   @deprecated    Do not use this function. It has been superseded by \ref arm_cfft_f32 and will be 
  66:.\DSP\Source\TransformFunctions/arm_cfft_radix4_f32.c ****   @param[in]     S    points to an instance of the floating-point Radix-4 CFFT/CIFFT structure
  67:.\DSP\Source\TransformFunctions/arm_cfft_radix4_f32.c ****   @param[in,out] pSrc points to the complex data buffer of size <code>2*fftLen</code>. Processing o
  68:.\DSP\Source\TransformFunctions/arm_cfft_radix4_f32.c ****   @return        none
  69:.\DSP\Source\TransformFunctions/arm_cfft_radix4_f32.c ****  */
  70:.\DSP\Source\TransformFunctions/arm_cfft_radix4_f32.c **** 
  71:.\DSP\Source\TransformFunctions/arm_cfft_radix4_f32.c **** void arm_cfft_radix4_f32(
  72:.\DSP\Source\TransformFunctions/arm_cfft_radix4_f32.c ****   const arm_cfft_radix4_instance_f32 * S,
  73:.\DSP\Source\TransformFunctions/arm_cfft_radix4_f32.c ****         float32_t * pSrc)
  74:.\DSP\Source\TransformFunctions/arm_cfft_radix4_f32.c **** {
  75:.\DSP\Source\TransformFunctions/arm_cfft_radix4_f32.c ****    if (S->ifftFlag == 1U)
  76:.\DSP\Source\TransformFunctions/arm_cfft_radix4_f32.c ****    {
  77:.\DSP\Source\TransformFunctions/arm_cfft_radix4_f32.c ****       /*  Complex IFFT radix-4  */
  78:.\DSP\Source\TransformFunctions/arm_cfft_radix4_f32.c ****       arm_radix4_butterfly_inverse_f32(pSrc, S->fftLen, S->pTwiddle, S->twidCoefModifier, S->onebyf
  79:.\DSP\Source\TransformFunctions/arm_cfft_radix4_f32.c ****    }
  80:.\DSP\Source\TransformFunctions/arm_cfft_radix4_f32.c ****    else
  81:.\DSP\Source\TransformFunctions/arm_cfft_radix4_f32.c ****    {
  82:.\DSP\Source\TransformFunctions/arm_cfft_radix4_f32.c ****       /*  Complex FFT radix-4  */
  83:.\DSP\Source\TransformFunctions/arm_cfft_radix4_f32.c ****       arm_radix4_butterfly_f32(pSrc, S->fftLen, S->pTwiddle, S->twidCoefModifier);
  84:.\DSP\Source\TransformFunctions/arm_cfft_radix4_f32.c ****    }
  85:.\DSP\Source\TransformFunctions/arm_cfft_radix4_f32.c **** 
ARM GAS  C:\Users\IVYLIU~1\AppData\Local\Temp\ccHWxCbk.s 			page 3


  86:.\DSP\Source\TransformFunctions/arm_cfft_radix4_f32.c ****    if (S->bitReverseFlag == 1U)
  87:.\DSP\Source\TransformFunctions/arm_cfft_radix4_f32.c ****    {
  88:.\DSP\Source\TransformFunctions/arm_cfft_radix4_f32.c ****       /*  Bit Reversal */
  89:.\DSP\Source\TransformFunctions/arm_cfft_radix4_f32.c ****       arm_bitreversal_f32(pSrc, S->fftLen, S->bitRevFactor, S->pBitRevTable);
  90:.\DSP\Source\TransformFunctions/arm_cfft_radix4_f32.c ****    }
  91:.\DSP\Source\TransformFunctions/arm_cfft_radix4_f32.c **** 
  92:.\DSP\Source\TransformFunctions/arm_cfft_radix4_f32.c **** }
  93:.\DSP\Source\TransformFunctions/arm_cfft_radix4_f32.c **** 
  94:.\DSP\Source\TransformFunctions/arm_cfft_radix4_f32.c **** /**
  95:.\DSP\Source\TransformFunctions/arm_cfft_radix4_f32.c ****   @} end of ComplexFFT group
  96:.\DSP\Source\TransformFunctions/arm_cfft_radix4_f32.c ****  */
  97:.\DSP\Source\TransformFunctions/arm_cfft_radix4_f32.c **** 
  98:.\DSP\Source\TransformFunctions/arm_cfft_radix4_f32.c **** /* ----------------------------------------------------------------------
  99:.\DSP\Source\TransformFunctions/arm_cfft_radix4_f32.c ****  * Internal helper function used by the FFTs
 100:.\DSP\Source\TransformFunctions/arm_cfft_radix4_f32.c ****  * ---------------------------------------------------------------------- */
 101:.\DSP\Source\TransformFunctions/arm_cfft_radix4_f32.c **** 
 102:.\DSP\Source\TransformFunctions/arm_cfft_radix4_f32.c **** /**
 103:.\DSP\Source\TransformFunctions/arm_cfft_radix4_f32.c ****   brief         Core function for the floating-point CFFT butterfly process.
 104:.\DSP\Source\TransformFunctions/arm_cfft_radix4_f32.c ****   param[in,out] pSrc             points to the in-place buffer of floating-point data type
 105:.\DSP\Source\TransformFunctions/arm_cfft_radix4_f32.c ****   param[in]     fftLen           length of the FFT
 106:.\DSP\Source\TransformFunctions/arm_cfft_radix4_f32.c ****   param[in]     pCoef            points to the twiddle coefficient buffer
 107:.\DSP\Source\TransformFunctions/arm_cfft_radix4_f32.c ****   param[in]     twidCoefModifier twiddle coefficient modifier that supports different size FFTs wit
 108:.\DSP\Source\TransformFunctions/arm_cfft_radix4_f32.c ****   return        none
 109:.\DSP\Source\TransformFunctions/arm_cfft_radix4_f32.c ****  */
 110:.\DSP\Source\TransformFunctions/arm_cfft_radix4_f32.c **** 
 111:.\DSP\Source\TransformFunctions/arm_cfft_radix4_f32.c **** void arm_radix4_butterfly_f32(
 112:.\DSP\Source\TransformFunctions/arm_cfft_radix4_f32.c ****         float32_t * pSrc,
 113:.\DSP\Source\TransformFunctions/arm_cfft_radix4_f32.c ****         uint16_t fftLen,
 114:.\DSP\Source\TransformFunctions/arm_cfft_radix4_f32.c ****   const float32_t * pCoef,
 115:.\DSP\Source\TransformFunctions/arm_cfft_radix4_f32.c ****         uint16_t twidCoefModifier)
 116:.\DSP\Source\TransformFunctions/arm_cfft_radix4_f32.c **** {
  30              		.loc 1 116 0
  31              		.cfi_startproc
  32              		@ args = 0, pretend = 0, frame = 88
  33              		@ frame_needed = 0, uses_anonymous_args = 0
  34              	.LVL0:
  35 0000 2DE9F04F 		push	{r4, r5, r6, r7, r8, r9, r10, fp, lr}
  36              		.cfi_def_cfa_offset 36
  37              		.cfi_offset 4, -36
  38              		.cfi_offset 5, -32
  39              		.cfi_offset 6, -28
  40              		.cfi_offset 7, -24
  41              		.cfi_offset 8, -20
  42              		.cfi_offset 9, -16
  43              		.cfi_offset 10, -12
  44              		.cfi_offset 11, -8
  45              		.cfi_offset 14, -4
  46 0004 97B0     		sub	sp, sp, #92
  47              		.cfi_def_cfa_offset 128
  48 0006 1492     		str	r2, [sp, #80]
  49 0008 1393     		str	r3, [sp, #76]
 117:.\DSP\Source\TransformFunctions/arm_cfft_radix4_f32.c ****         float32_t co1, co2, co3, si1, si2, si3;
 118:.\DSP\Source\TransformFunctions/arm_cfft_radix4_f32.c ****         uint32_t ia1, ia2, ia3;
 119:.\DSP\Source\TransformFunctions/arm_cfft_radix4_f32.c ****         uint32_t i0, i1, i2, i3;
 120:.\DSP\Source\TransformFunctions/arm_cfft_radix4_f32.c ****         uint32_t n1, n2, j, k;
 121:.\DSP\Source\TransformFunctions/arm_cfft_radix4_f32.c **** 
 122:.\DSP\Source\TransformFunctions/arm_cfft_radix4_f32.c **** #if defined (ARM_MATH_LOOPUNROLL)
ARM GAS  C:\Users\IVYLIU~1\AppData\Local\Temp\ccHWxCbk.s 			page 4


 123:.\DSP\Source\TransformFunctions/arm_cfft_radix4_f32.c **** 
 124:.\DSP\Source\TransformFunctions/arm_cfft_radix4_f32.c ****         float32_t xaIn, yaIn, xbIn, ybIn, xcIn, ycIn, xdIn, ydIn;
 125:.\DSP\Source\TransformFunctions/arm_cfft_radix4_f32.c ****         float32_t Xaplusc, Xbplusd, Yaplusc, Ybplusd, Xaminusc, Xbminusd, Yaminusc,
 126:.\DSP\Source\TransformFunctions/arm_cfft_radix4_f32.c ****         Ybminusd;
 127:.\DSP\Source\TransformFunctions/arm_cfft_radix4_f32.c ****         float32_t Xb12C_out, Yb12C_out, Xc12C_out, Yc12C_out, Xd12C_out, Yd12C_out;
 128:.\DSP\Source\TransformFunctions/arm_cfft_radix4_f32.c ****         float32_t Xb12_out, Yb12_out, Xc12_out, Yc12_out, Xd12_out, Yd12_out;
 129:.\DSP\Source\TransformFunctions/arm_cfft_radix4_f32.c ****         float32_t *ptr1;
 130:.\DSP\Source\TransformFunctions/arm_cfft_radix4_f32.c ****         float32_t p0,p1,p2,p3,p4,p5;
 131:.\DSP\Source\TransformFunctions/arm_cfft_radix4_f32.c ****         float32_t a0,a1,a2,a3,a4,a5,a6,a7;
 132:.\DSP\Source\TransformFunctions/arm_cfft_radix4_f32.c **** 
 133:.\DSP\Source\TransformFunctions/arm_cfft_radix4_f32.c ****    /*  Initializations for the first stage */
 134:.\DSP\Source\TransformFunctions/arm_cfft_radix4_f32.c ****    n2 = fftLen;
 135:.\DSP\Source\TransformFunctions/arm_cfft_radix4_f32.c ****    n1 = n2;
 136:.\DSP\Source\TransformFunctions/arm_cfft_radix4_f32.c **** 
 137:.\DSP\Source\TransformFunctions/arm_cfft_radix4_f32.c ****    /* n2 = fftLen/4 */
 138:.\DSP\Source\TransformFunctions/arm_cfft_radix4_f32.c ****    n2 >>= 2U;
 139:.\DSP\Source\TransformFunctions/arm_cfft_radix4_f32.c ****    i0 = 0U;
 140:.\DSP\Source\TransformFunctions/arm_cfft_radix4_f32.c ****    ia1 = 0U;
 141:.\DSP\Source\TransformFunctions/arm_cfft_radix4_f32.c **** 
 142:.\DSP\Source\TransformFunctions/arm_cfft_radix4_f32.c ****    j = n2;
 143:.\DSP\Source\TransformFunctions/arm_cfft_radix4_f32.c **** 
 144:.\DSP\Source\TransformFunctions/arm_cfft_radix4_f32.c ****    /*  Calculation of first stage */
 145:.\DSP\Source\TransformFunctions/arm_cfft_radix4_f32.c ****    do
 146:.\DSP\Source\TransformFunctions/arm_cfft_radix4_f32.c ****    {
 147:.\DSP\Source\TransformFunctions/arm_cfft_radix4_f32.c ****       /*  index calculation for the input as, */
 148:.\DSP\Source\TransformFunctions/arm_cfft_radix4_f32.c ****       /*  pSrc[i0 + 0], pSrc[i0 + fftLen/4], pSrc[i0 + fftLen/2], pSrc[i0 + 3fftLen/4] */
 149:.\DSP\Source\TransformFunctions/arm_cfft_radix4_f32.c ****       i1 = i0 + n2;
 150:.\DSP\Source\TransformFunctions/arm_cfft_radix4_f32.c ****       i2 = i1 + n2;
 151:.\DSP\Source\TransformFunctions/arm_cfft_radix4_f32.c ****       i3 = i2 + n2;
 152:.\DSP\Source\TransformFunctions/arm_cfft_radix4_f32.c **** 
 153:.\DSP\Source\TransformFunctions/arm_cfft_radix4_f32.c ****       xaIn = pSrc[(2U * i0)];
 154:.\DSP\Source\TransformFunctions/arm_cfft_radix4_f32.c ****       yaIn = pSrc[(2U * i0) + 1U];
 155:.\DSP\Source\TransformFunctions/arm_cfft_radix4_f32.c **** 
 156:.\DSP\Source\TransformFunctions/arm_cfft_radix4_f32.c ****       xbIn = pSrc[(2U * i1)];
 157:.\DSP\Source\TransformFunctions/arm_cfft_radix4_f32.c ****       ybIn = pSrc[(2U * i1) + 1U];
 158:.\DSP\Source\TransformFunctions/arm_cfft_radix4_f32.c **** 
 159:.\DSP\Source\TransformFunctions/arm_cfft_radix4_f32.c ****       xcIn = pSrc[(2U * i2)];
 160:.\DSP\Source\TransformFunctions/arm_cfft_radix4_f32.c ****       ycIn = pSrc[(2U * i2) + 1U];
 161:.\DSP\Source\TransformFunctions/arm_cfft_radix4_f32.c **** 
 162:.\DSP\Source\TransformFunctions/arm_cfft_radix4_f32.c ****       xdIn = pSrc[(2U * i3)];
 163:.\DSP\Source\TransformFunctions/arm_cfft_radix4_f32.c ****       ydIn = pSrc[(2U * i3) + 1U];
 164:.\DSP\Source\TransformFunctions/arm_cfft_radix4_f32.c **** 
 165:.\DSP\Source\TransformFunctions/arm_cfft_radix4_f32.c ****       /* xa + xc */
 166:.\DSP\Source\TransformFunctions/arm_cfft_radix4_f32.c ****       Xaplusc = xaIn + xcIn;
 167:.\DSP\Source\TransformFunctions/arm_cfft_radix4_f32.c ****       /* xb + xd */
 168:.\DSP\Source\TransformFunctions/arm_cfft_radix4_f32.c ****       Xbplusd = xbIn + xdIn;
 169:.\DSP\Source\TransformFunctions/arm_cfft_radix4_f32.c ****       /* ya + yc */
 170:.\DSP\Source\TransformFunctions/arm_cfft_radix4_f32.c ****       Yaplusc = yaIn + ycIn;
 171:.\DSP\Source\TransformFunctions/arm_cfft_radix4_f32.c ****       /* yb + yd */
 172:.\DSP\Source\TransformFunctions/arm_cfft_radix4_f32.c ****       Ybplusd = ybIn + ydIn;
 173:.\DSP\Source\TransformFunctions/arm_cfft_radix4_f32.c **** 
 174:.\DSP\Source\TransformFunctions/arm_cfft_radix4_f32.c ****       /*  index calculation for the coefficients */
 175:.\DSP\Source\TransformFunctions/arm_cfft_radix4_f32.c ****       ia2 = ia1 + ia1;
 176:.\DSP\Source\TransformFunctions/arm_cfft_radix4_f32.c ****       co2 = pCoef[ia2 * 2U];
 177:.\DSP\Source\TransformFunctions/arm_cfft_radix4_f32.c ****       si2 = pCoef[(ia2 * 2U) + 1U];
 178:.\DSP\Source\TransformFunctions/arm_cfft_radix4_f32.c **** 
 179:.\DSP\Source\TransformFunctions/arm_cfft_radix4_f32.c ****       /* xa - xc */
ARM GAS  C:\Users\IVYLIU~1\AppData\Local\Temp\ccHWxCbk.s 			page 5


 180:.\DSP\Source\TransformFunctions/arm_cfft_radix4_f32.c ****       Xaminusc = xaIn - xcIn;
 181:.\DSP\Source\TransformFunctions/arm_cfft_radix4_f32.c ****       /* xb - xd */
 182:.\DSP\Source\TransformFunctions/arm_cfft_radix4_f32.c ****       Xbminusd = xbIn - xdIn;
 183:.\DSP\Source\TransformFunctions/arm_cfft_radix4_f32.c ****       /* ya - yc */
 184:.\DSP\Source\TransformFunctions/arm_cfft_radix4_f32.c ****       Yaminusc = yaIn - ycIn;
 185:.\DSP\Source\TransformFunctions/arm_cfft_radix4_f32.c ****       /* yb - yd */
 186:.\DSP\Source\TransformFunctions/arm_cfft_radix4_f32.c ****       Ybminusd = ybIn - ydIn;
 187:.\DSP\Source\TransformFunctions/arm_cfft_radix4_f32.c **** 
 188:.\DSP\Source\TransformFunctions/arm_cfft_radix4_f32.c ****       /* xa' = xa + xb + xc + xd */
 189:.\DSP\Source\TransformFunctions/arm_cfft_radix4_f32.c ****       pSrc[(2U * i0)] = Xaplusc + Xbplusd;
 190:.\DSP\Source\TransformFunctions/arm_cfft_radix4_f32.c ****       /* ya' = ya + yb + yc + yd */
 191:.\DSP\Source\TransformFunctions/arm_cfft_radix4_f32.c ****       pSrc[(2U * i0) + 1U] = Yaplusc + Ybplusd;
 192:.\DSP\Source\TransformFunctions/arm_cfft_radix4_f32.c **** 
 193:.\DSP\Source\TransformFunctions/arm_cfft_radix4_f32.c ****       /* (xa - xc) + (yb - yd) */
 194:.\DSP\Source\TransformFunctions/arm_cfft_radix4_f32.c ****       Xb12C_out = (Xaminusc + Ybminusd);
 195:.\DSP\Source\TransformFunctions/arm_cfft_radix4_f32.c ****       /* (ya - yc) + (xb - xd) */
 196:.\DSP\Source\TransformFunctions/arm_cfft_radix4_f32.c ****       Yb12C_out = (Yaminusc - Xbminusd);
 197:.\DSP\Source\TransformFunctions/arm_cfft_radix4_f32.c ****       /* (xa + xc) - (xb + xd) */
 198:.\DSP\Source\TransformFunctions/arm_cfft_radix4_f32.c ****       Xc12C_out = (Xaplusc - Xbplusd);
 199:.\DSP\Source\TransformFunctions/arm_cfft_radix4_f32.c ****       /* (ya + yc) - (yb + yd) */
 200:.\DSP\Source\TransformFunctions/arm_cfft_radix4_f32.c ****       Yc12C_out = (Yaplusc - Ybplusd);
 201:.\DSP\Source\TransformFunctions/arm_cfft_radix4_f32.c ****       /* (xa - xc) - (yb - yd) */
 202:.\DSP\Source\TransformFunctions/arm_cfft_radix4_f32.c ****       Xd12C_out = (Xaminusc - Ybminusd);
 203:.\DSP\Source\TransformFunctions/arm_cfft_radix4_f32.c ****       /* (ya - yc) + (xb - xd) */
 204:.\DSP\Source\TransformFunctions/arm_cfft_radix4_f32.c ****       Yd12C_out = (Xbminusd + Yaminusc);
 205:.\DSP\Source\TransformFunctions/arm_cfft_radix4_f32.c **** 
 206:.\DSP\Source\TransformFunctions/arm_cfft_radix4_f32.c ****       co1 = pCoef[ia1 * 2U];
 207:.\DSP\Source\TransformFunctions/arm_cfft_radix4_f32.c ****       si1 = pCoef[(ia1 * 2U) + 1U];
 208:.\DSP\Source\TransformFunctions/arm_cfft_radix4_f32.c **** 
 209:.\DSP\Source\TransformFunctions/arm_cfft_radix4_f32.c ****       /*  index calculation for the coefficients */
 210:.\DSP\Source\TransformFunctions/arm_cfft_radix4_f32.c ****       ia3 = ia2 + ia1;
 211:.\DSP\Source\TransformFunctions/arm_cfft_radix4_f32.c ****       co3 = pCoef[ia3 * 2U];
 212:.\DSP\Source\TransformFunctions/arm_cfft_radix4_f32.c ****       si3 = pCoef[(ia3 * 2U) + 1U];
 213:.\DSP\Source\TransformFunctions/arm_cfft_radix4_f32.c **** 
 214:.\DSP\Source\TransformFunctions/arm_cfft_radix4_f32.c ****       Xb12_out = Xb12C_out * co1;
 215:.\DSP\Source\TransformFunctions/arm_cfft_radix4_f32.c ****       Yb12_out = Yb12C_out * co1;
 216:.\DSP\Source\TransformFunctions/arm_cfft_radix4_f32.c ****       Xc12_out = Xc12C_out * co2;
 217:.\DSP\Source\TransformFunctions/arm_cfft_radix4_f32.c ****       Yc12_out = Yc12C_out * co2;
 218:.\DSP\Source\TransformFunctions/arm_cfft_radix4_f32.c ****       Xd12_out = Xd12C_out * co3;
 219:.\DSP\Source\TransformFunctions/arm_cfft_radix4_f32.c ****       Yd12_out = Yd12C_out * co3;
 220:.\DSP\Source\TransformFunctions/arm_cfft_radix4_f32.c **** 
 221:.\DSP\Source\TransformFunctions/arm_cfft_radix4_f32.c ****       /* xb' = (xa+yb-xc-yd)co1 - (ya-xb-yc+xd)(si1) */
 222:.\DSP\Source\TransformFunctions/arm_cfft_radix4_f32.c ****       //Xb12_out -= Yb12C_out * si1;
 223:.\DSP\Source\TransformFunctions/arm_cfft_radix4_f32.c ****       p0 = Yb12C_out * si1;
 224:.\DSP\Source\TransformFunctions/arm_cfft_radix4_f32.c ****       /* yb' = (ya-xb-yc+xd)co1 + (xa+yb-xc-yd)(si1) */
 225:.\DSP\Source\TransformFunctions/arm_cfft_radix4_f32.c ****       //Yb12_out += Xb12C_out * si1;
 226:.\DSP\Source\TransformFunctions/arm_cfft_radix4_f32.c ****       p1 = Xb12C_out * si1;
 227:.\DSP\Source\TransformFunctions/arm_cfft_radix4_f32.c ****       /* xc' = (xa-xb+xc-xd)co2 - (ya-yb+yc-yd)(si2) */
 228:.\DSP\Source\TransformFunctions/arm_cfft_radix4_f32.c ****       //Xc12_out -= Yc12C_out * si2;
 229:.\DSP\Source\TransformFunctions/arm_cfft_radix4_f32.c ****       p2 = Yc12C_out * si2;
 230:.\DSP\Source\TransformFunctions/arm_cfft_radix4_f32.c ****       /* yc' = (ya-yb+yc-yd)co2 + (xa-xb+xc-xd)(si2) */
 231:.\DSP\Source\TransformFunctions/arm_cfft_radix4_f32.c ****       //Yc12_out += Xc12C_out * si2;
 232:.\DSP\Source\TransformFunctions/arm_cfft_radix4_f32.c ****       p3 = Xc12C_out * si2;
 233:.\DSP\Source\TransformFunctions/arm_cfft_radix4_f32.c ****       /* xd' = (xa-yb-xc+yd)co3 - (ya+xb-yc-xd)(si3) */
 234:.\DSP\Source\TransformFunctions/arm_cfft_radix4_f32.c ****       //Xd12_out -= Yd12C_out * si3;
 235:.\DSP\Source\TransformFunctions/arm_cfft_radix4_f32.c ****       p4 = Yd12C_out * si3;
 236:.\DSP\Source\TransformFunctions/arm_cfft_radix4_f32.c ****       /* yd' = (ya+xb-yc-xd)co3 + (xa-yb-xc+yd)(si3) */
ARM GAS  C:\Users\IVYLIU~1\AppData\Local\Temp\ccHWxCbk.s 			page 6


 237:.\DSP\Source\TransformFunctions/arm_cfft_radix4_f32.c ****       //Yd12_out += Xd12C_out * si3;
 238:.\DSP\Source\TransformFunctions/arm_cfft_radix4_f32.c ****       p5 = Xd12C_out * si3;
 239:.\DSP\Source\TransformFunctions/arm_cfft_radix4_f32.c **** 
 240:.\DSP\Source\TransformFunctions/arm_cfft_radix4_f32.c ****       Xb12_out += p0;
 241:.\DSP\Source\TransformFunctions/arm_cfft_radix4_f32.c ****       Yb12_out -= p1;
 242:.\DSP\Source\TransformFunctions/arm_cfft_radix4_f32.c ****       Xc12_out += p2;
 243:.\DSP\Source\TransformFunctions/arm_cfft_radix4_f32.c ****       Yc12_out -= p3;
 244:.\DSP\Source\TransformFunctions/arm_cfft_radix4_f32.c ****       Xd12_out += p4;
 245:.\DSP\Source\TransformFunctions/arm_cfft_radix4_f32.c ****       Yd12_out -= p5;
 246:.\DSP\Source\TransformFunctions/arm_cfft_radix4_f32.c **** 
 247:.\DSP\Source\TransformFunctions/arm_cfft_radix4_f32.c ****       /* xc' = (xa-xb+xc-xd)co2 + (ya-yb+yc-yd)(si2) */
 248:.\DSP\Source\TransformFunctions/arm_cfft_radix4_f32.c ****       pSrc[2U * i1] = Xc12_out;
 249:.\DSP\Source\TransformFunctions/arm_cfft_radix4_f32.c **** 
 250:.\DSP\Source\TransformFunctions/arm_cfft_radix4_f32.c ****       /* yc' = (ya-yb+yc-yd)co2 - (xa-xb+xc-xd)(si2) */
 251:.\DSP\Source\TransformFunctions/arm_cfft_radix4_f32.c ****       pSrc[(2U * i1) + 1U] = Yc12_out;
 252:.\DSP\Source\TransformFunctions/arm_cfft_radix4_f32.c **** 
 253:.\DSP\Source\TransformFunctions/arm_cfft_radix4_f32.c ****       /* xb' = (xa+yb-xc-yd)co1 + (ya-xb-yc+xd)(si1) */
 254:.\DSP\Source\TransformFunctions/arm_cfft_radix4_f32.c ****       pSrc[2U * i2] = Xb12_out;
 255:.\DSP\Source\TransformFunctions/arm_cfft_radix4_f32.c **** 
 256:.\DSP\Source\TransformFunctions/arm_cfft_radix4_f32.c ****       /* yb' = (ya-xb-yc+xd)co1 - (xa+yb-xc-yd)(si1) */
 257:.\DSP\Source\TransformFunctions/arm_cfft_radix4_f32.c ****       pSrc[(2U * i2) + 1U] = Yb12_out;
 258:.\DSP\Source\TransformFunctions/arm_cfft_radix4_f32.c **** 
 259:.\DSP\Source\TransformFunctions/arm_cfft_radix4_f32.c ****       /* xd' = (xa-yb-xc+yd)co3 + (ya+xb-yc-xd)(si3) */
 260:.\DSP\Source\TransformFunctions/arm_cfft_radix4_f32.c ****       pSrc[2U * i3] = Xd12_out;
 261:.\DSP\Source\TransformFunctions/arm_cfft_radix4_f32.c **** 
 262:.\DSP\Source\TransformFunctions/arm_cfft_radix4_f32.c ****       /* yd' = (ya+xb-yc-xd)co3 - (xa-yb-xc+yd)(si3) */
 263:.\DSP\Source\TransformFunctions/arm_cfft_radix4_f32.c ****       pSrc[(2U * i3) + 1U] = Yd12_out;
 264:.\DSP\Source\TransformFunctions/arm_cfft_radix4_f32.c **** 
 265:.\DSP\Source\TransformFunctions/arm_cfft_radix4_f32.c ****       /*  Twiddle coefficients index modifier */
 266:.\DSP\Source\TransformFunctions/arm_cfft_radix4_f32.c ****       ia1 += twidCoefModifier;
 267:.\DSP\Source\TransformFunctions/arm_cfft_radix4_f32.c **** 
 268:.\DSP\Source\TransformFunctions/arm_cfft_radix4_f32.c ****       /*  Updating input index */
 269:.\DSP\Source\TransformFunctions/arm_cfft_radix4_f32.c ****       i0++;
 270:.\DSP\Source\TransformFunctions/arm_cfft_radix4_f32.c **** 
 271:.\DSP\Source\TransformFunctions/arm_cfft_radix4_f32.c ****    }
 272:.\DSP\Source\TransformFunctions/arm_cfft_radix4_f32.c ****    while (--j);
 273:.\DSP\Source\TransformFunctions/arm_cfft_radix4_f32.c **** 
 274:.\DSP\Source\TransformFunctions/arm_cfft_radix4_f32.c ****    twidCoefModifier <<= 2U;
 275:.\DSP\Source\TransformFunctions/arm_cfft_radix4_f32.c **** 
 276:.\DSP\Source\TransformFunctions/arm_cfft_radix4_f32.c ****    /*  Calculation of second stage to excluding last stage */
 277:.\DSP\Source\TransformFunctions/arm_cfft_radix4_f32.c ****    for (k = fftLen >> 2U; k > 4U; k >>= 2U)
 278:.\DSP\Source\TransformFunctions/arm_cfft_radix4_f32.c ****    {
 279:.\DSP\Source\TransformFunctions/arm_cfft_radix4_f32.c ****       /*  Initializations for the first stage */
 280:.\DSP\Source\TransformFunctions/arm_cfft_radix4_f32.c ****       n1 = n2;
 281:.\DSP\Source\TransformFunctions/arm_cfft_radix4_f32.c ****       n2 >>= 2U;
 282:.\DSP\Source\TransformFunctions/arm_cfft_radix4_f32.c ****       ia1 = 0U;
 283:.\DSP\Source\TransformFunctions/arm_cfft_radix4_f32.c **** 
 284:.\DSP\Source\TransformFunctions/arm_cfft_radix4_f32.c ****       /*  Calculation of first stage */
 285:.\DSP\Source\TransformFunctions/arm_cfft_radix4_f32.c ****       j = 0;
 286:.\DSP\Source\TransformFunctions/arm_cfft_radix4_f32.c ****       do
 287:.\DSP\Source\TransformFunctions/arm_cfft_radix4_f32.c ****       {
 288:.\DSP\Source\TransformFunctions/arm_cfft_radix4_f32.c ****          /*  index calculation for the coefficients */
 289:.\DSP\Source\TransformFunctions/arm_cfft_radix4_f32.c ****          ia2 = ia1 + ia1;
 290:.\DSP\Source\TransformFunctions/arm_cfft_radix4_f32.c ****          ia3 = ia2 + ia1;
 291:.\DSP\Source\TransformFunctions/arm_cfft_radix4_f32.c ****          co1 = pCoef[(ia1 * 2U)];
 292:.\DSP\Source\TransformFunctions/arm_cfft_radix4_f32.c ****          si1 = pCoef[(ia1 * 2U) + 1U];
 293:.\DSP\Source\TransformFunctions/arm_cfft_radix4_f32.c ****          co2 = pCoef[(ia2 * 2U)];
ARM GAS  C:\Users\IVYLIU~1\AppData\Local\Temp\ccHWxCbk.s 			page 7


 294:.\DSP\Source\TransformFunctions/arm_cfft_radix4_f32.c ****          si2 = pCoef[(ia2 * 2U) + 1U];
 295:.\DSP\Source\TransformFunctions/arm_cfft_radix4_f32.c ****          co3 = pCoef[(ia3 * 2U)];
 296:.\DSP\Source\TransformFunctions/arm_cfft_radix4_f32.c ****          si3 = pCoef[(ia3 * 2U) + 1U];
 297:.\DSP\Source\TransformFunctions/arm_cfft_radix4_f32.c **** 
 298:.\DSP\Source\TransformFunctions/arm_cfft_radix4_f32.c ****          /*  Twiddle coefficients index modifier */
 299:.\DSP\Source\TransformFunctions/arm_cfft_radix4_f32.c ****          ia1 += twidCoefModifier;
 300:.\DSP\Source\TransformFunctions/arm_cfft_radix4_f32.c **** 
 301:.\DSP\Source\TransformFunctions/arm_cfft_radix4_f32.c ****          i0 = j;
 302:.\DSP\Source\TransformFunctions/arm_cfft_radix4_f32.c ****          do
 303:.\DSP\Source\TransformFunctions/arm_cfft_radix4_f32.c ****          {
 304:.\DSP\Source\TransformFunctions/arm_cfft_radix4_f32.c ****             /*  index calculation for the input as, */
 305:.\DSP\Source\TransformFunctions/arm_cfft_radix4_f32.c ****             /*  pSrc[i0 + 0], pSrc[i0 + fftLen/4], pSrc[i0 + fftLen/2], pSrc[i0 + 3fftLen/4] */
 306:.\DSP\Source\TransformFunctions/arm_cfft_radix4_f32.c ****             i1 = i0 + n2;
 307:.\DSP\Source\TransformFunctions/arm_cfft_radix4_f32.c ****             i2 = i1 + n2;
 308:.\DSP\Source\TransformFunctions/arm_cfft_radix4_f32.c ****             i3 = i2 + n2;
 309:.\DSP\Source\TransformFunctions/arm_cfft_radix4_f32.c **** 
 310:.\DSP\Source\TransformFunctions/arm_cfft_radix4_f32.c ****             xaIn = pSrc[(2U * i0)];
 311:.\DSP\Source\TransformFunctions/arm_cfft_radix4_f32.c ****             yaIn = pSrc[(2U * i0) + 1U];
 312:.\DSP\Source\TransformFunctions/arm_cfft_radix4_f32.c **** 
 313:.\DSP\Source\TransformFunctions/arm_cfft_radix4_f32.c ****             xbIn = pSrc[(2U * i1)];
 314:.\DSP\Source\TransformFunctions/arm_cfft_radix4_f32.c ****             ybIn = pSrc[(2U * i1) + 1U];
 315:.\DSP\Source\TransformFunctions/arm_cfft_radix4_f32.c **** 
 316:.\DSP\Source\TransformFunctions/arm_cfft_radix4_f32.c ****             xcIn = pSrc[(2U * i2)];
 317:.\DSP\Source\TransformFunctions/arm_cfft_radix4_f32.c ****             ycIn = pSrc[(2U * i2) + 1U];
 318:.\DSP\Source\TransformFunctions/arm_cfft_radix4_f32.c **** 
 319:.\DSP\Source\TransformFunctions/arm_cfft_radix4_f32.c ****             xdIn = pSrc[(2U * i3)];
 320:.\DSP\Source\TransformFunctions/arm_cfft_radix4_f32.c ****             ydIn = pSrc[(2U * i3) + 1U];
 321:.\DSP\Source\TransformFunctions/arm_cfft_radix4_f32.c **** 
 322:.\DSP\Source\TransformFunctions/arm_cfft_radix4_f32.c ****             /* xa - xc */
 323:.\DSP\Source\TransformFunctions/arm_cfft_radix4_f32.c ****             Xaminusc = xaIn - xcIn;
 324:.\DSP\Source\TransformFunctions/arm_cfft_radix4_f32.c ****             /* (xb - xd) */
 325:.\DSP\Source\TransformFunctions/arm_cfft_radix4_f32.c ****             Xbminusd = xbIn - xdIn;
 326:.\DSP\Source\TransformFunctions/arm_cfft_radix4_f32.c ****             /* ya - yc */
 327:.\DSP\Source\TransformFunctions/arm_cfft_radix4_f32.c ****             Yaminusc = yaIn - ycIn;
 328:.\DSP\Source\TransformFunctions/arm_cfft_radix4_f32.c ****             /* (yb - yd) */
 329:.\DSP\Source\TransformFunctions/arm_cfft_radix4_f32.c ****             Ybminusd = ybIn - ydIn;
 330:.\DSP\Source\TransformFunctions/arm_cfft_radix4_f32.c **** 
 331:.\DSP\Source\TransformFunctions/arm_cfft_radix4_f32.c ****             /* xa + xc */
 332:.\DSP\Source\TransformFunctions/arm_cfft_radix4_f32.c ****             Xaplusc = xaIn + xcIn;
 333:.\DSP\Source\TransformFunctions/arm_cfft_radix4_f32.c ****             /* xb + xd */
 334:.\DSP\Source\TransformFunctions/arm_cfft_radix4_f32.c ****             Xbplusd = xbIn + xdIn;
 335:.\DSP\Source\TransformFunctions/arm_cfft_radix4_f32.c ****             /* ya + yc */
 336:.\DSP\Source\TransformFunctions/arm_cfft_radix4_f32.c ****             Yaplusc = yaIn + ycIn;
 337:.\DSP\Source\TransformFunctions/arm_cfft_radix4_f32.c ****             /* yb + yd */
 338:.\DSP\Source\TransformFunctions/arm_cfft_radix4_f32.c ****             Ybplusd = ybIn + ydIn;
 339:.\DSP\Source\TransformFunctions/arm_cfft_radix4_f32.c **** 
 340:.\DSP\Source\TransformFunctions/arm_cfft_radix4_f32.c ****             /* (xa - xc) + (yb - yd) */
 341:.\DSP\Source\TransformFunctions/arm_cfft_radix4_f32.c ****             Xb12C_out = (Xaminusc + Ybminusd);
 342:.\DSP\Source\TransformFunctions/arm_cfft_radix4_f32.c ****             /* (ya - yc) -  (xb - xd) */
 343:.\DSP\Source\TransformFunctions/arm_cfft_radix4_f32.c ****             Yb12C_out = (Yaminusc - Xbminusd);
 344:.\DSP\Source\TransformFunctions/arm_cfft_radix4_f32.c ****             /* xa + xc -(xb + xd) */
 345:.\DSP\Source\TransformFunctions/arm_cfft_radix4_f32.c ****             Xc12C_out = (Xaplusc - Xbplusd);
 346:.\DSP\Source\TransformFunctions/arm_cfft_radix4_f32.c ****             /* (ya + yc) - (yb + yd) */
 347:.\DSP\Source\TransformFunctions/arm_cfft_radix4_f32.c ****             Yc12C_out = (Yaplusc - Ybplusd);
 348:.\DSP\Source\TransformFunctions/arm_cfft_radix4_f32.c ****             /* (xa - xc) - (yb - yd) */
 349:.\DSP\Source\TransformFunctions/arm_cfft_radix4_f32.c ****             Xd12C_out = (Xaminusc - Ybminusd);
 350:.\DSP\Source\TransformFunctions/arm_cfft_radix4_f32.c ****             /* (ya - yc) +  (xb - xd) */
ARM GAS  C:\Users\IVYLIU~1\AppData\Local\Temp\ccHWxCbk.s 			page 8


 351:.\DSP\Source\TransformFunctions/arm_cfft_radix4_f32.c ****             Yd12C_out = (Xbminusd + Yaminusc);
 352:.\DSP\Source\TransformFunctions/arm_cfft_radix4_f32.c **** 
 353:.\DSP\Source\TransformFunctions/arm_cfft_radix4_f32.c ****             pSrc[(2U * i0)] = Xaplusc + Xbplusd;
 354:.\DSP\Source\TransformFunctions/arm_cfft_radix4_f32.c ****             pSrc[(2U * i0) + 1U] = Yaplusc + Ybplusd;
 355:.\DSP\Source\TransformFunctions/arm_cfft_radix4_f32.c **** 
 356:.\DSP\Source\TransformFunctions/arm_cfft_radix4_f32.c ****             Xb12_out = Xb12C_out * co1;
 357:.\DSP\Source\TransformFunctions/arm_cfft_radix4_f32.c ****             Yb12_out = Yb12C_out * co1;
 358:.\DSP\Source\TransformFunctions/arm_cfft_radix4_f32.c ****             Xc12_out = Xc12C_out * co2;
 359:.\DSP\Source\TransformFunctions/arm_cfft_radix4_f32.c ****             Yc12_out = Yc12C_out * co2;
 360:.\DSP\Source\TransformFunctions/arm_cfft_radix4_f32.c ****             Xd12_out = Xd12C_out * co3;
 361:.\DSP\Source\TransformFunctions/arm_cfft_radix4_f32.c ****             Yd12_out = Yd12C_out * co3;
 362:.\DSP\Source\TransformFunctions/arm_cfft_radix4_f32.c **** 
 363:.\DSP\Source\TransformFunctions/arm_cfft_radix4_f32.c ****             /* xb' = (xa+yb-xc-yd)co1 - (ya-xb-yc+xd)(si1) */
 364:.\DSP\Source\TransformFunctions/arm_cfft_radix4_f32.c ****             //Xb12_out -= Yb12C_out * si1;
 365:.\DSP\Source\TransformFunctions/arm_cfft_radix4_f32.c ****             p0 = Yb12C_out * si1;
 366:.\DSP\Source\TransformFunctions/arm_cfft_radix4_f32.c ****             /* yb' = (ya-xb-yc+xd)co1 + (xa+yb-xc-yd)(si1) */
 367:.\DSP\Source\TransformFunctions/arm_cfft_radix4_f32.c ****             //Yb12_out += Xb12C_out * si1;
 368:.\DSP\Source\TransformFunctions/arm_cfft_radix4_f32.c ****             p1 = Xb12C_out * si1;
 369:.\DSP\Source\TransformFunctions/arm_cfft_radix4_f32.c ****             /* xc' = (xa-xb+xc-xd)co2 - (ya-yb+yc-yd)(si2) */
 370:.\DSP\Source\TransformFunctions/arm_cfft_radix4_f32.c ****             //Xc12_out -= Yc12C_out * si2;
 371:.\DSP\Source\TransformFunctions/arm_cfft_radix4_f32.c ****             p2 = Yc12C_out * si2;
 372:.\DSP\Source\TransformFunctions/arm_cfft_radix4_f32.c ****             /* yc' = (ya-yb+yc-yd)co2 + (xa-xb+xc-xd)(si2) */
 373:.\DSP\Source\TransformFunctions/arm_cfft_radix4_f32.c ****             //Yc12_out += Xc12C_out * si2;
 374:.\DSP\Source\TransformFunctions/arm_cfft_radix4_f32.c ****             p3 = Xc12C_out * si2;
 375:.\DSP\Source\TransformFunctions/arm_cfft_radix4_f32.c ****             /* xd' = (xa-yb-xc+yd)co3 - (ya+xb-yc-xd)(si3) */
 376:.\DSP\Source\TransformFunctions/arm_cfft_radix4_f32.c ****             //Xd12_out -= Yd12C_out * si3;
 377:.\DSP\Source\TransformFunctions/arm_cfft_radix4_f32.c ****             p4 = Yd12C_out * si3;
 378:.\DSP\Source\TransformFunctions/arm_cfft_radix4_f32.c ****             /* yd' = (ya+xb-yc-xd)co3 + (xa-yb-xc+yd)(si3) */
 379:.\DSP\Source\TransformFunctions/arm_cfft_radix4_f32.c ****             //Yd12_out += Xd12C_out * si3;
 380:.\DSP\Source\TransformFunctions/arm_cfft_radix4_f32.c ****             p5 = Xd12C_out * si3;
 381:.\DSP\Source\TransformFunctions/arm_cfft_radix4_f32.c **** 
 382:.\DSP\Source\TransformFunctions/arm_cfft_radix4_f32.c ****             Xb12_out += p0;
 383:.\DSP\Source\TransformFunctions/arm_cfft_radix4_f32.c ****             Yb12_out -= p1;
 384:.\DSP\Source\TransformFunctions/arm_cfft_radix4_f32.c ****             Xc12_out += p2;
 385:.\DSP\Source\TransformFunctions/arm_cfft_radix4_f32.c ****             Yc12_out -= p3;
 386:.\DSP\Source\TransformFunctions/arm_cfft_radix4_f32.c ****             Xd12_out += p4;
 387:.\DSP\Source\TransformFunctions/arm_cfft_radix4_f32.c ****             Yd12_out -= p5;
 388:.\DSP\Source\TransformFunctions/arm_cfft_radix4_f32.c **** 
 389:.\DSP\Source\TransformFunctions/arm_cfft_radix4_f32.c ****             /* xc' = (xa-xb+xc-xd)co2 + (ya-yb+yc-yd)(si2) */
 390:.\DSP\Source\TransformFunctions/arm_cfft_radix4_f32.c ****             pSrc[2U * i1] = Xc12_out;
 391:.\DSP\Source\TransformFunctions/arm_cfft_radix4_f32.c **** 
 392:.\DSP\Source\TransformFunctions/arm_cfft_radix4_f32.c ****             /* yc' = (ya-yb+yc-yd)co2 - (xa-xb+xc-xd)(si2) */
 393:.\DSP\Source\TransformFunctions/arm_cfft_radix4_f32.c ****             pSrc[(2U * i1) + 1U] = Yc12_out;
 394:.\DSP\Source\TransformFunctions/arm_cfft_radix4_f32.c **** 
 395:.\DSP\Source\TransformFunctions/arm_cfft_radix4_f32.c ****             /* xb' = (xa+yb-xc-yd)co1 + (ya-xb-yc+xd)(si1) */
 396:.\DSP\Source\TransformFunctions/arm_cfft_radix4_f32.c ****             pSrc[2U * i2] = Xb12_out;
 397:.\DSP\Source\TransformFunctions/arm_cfft_radix4_f32.c **** 
 398:.\DSP\Source\TransformFunctions/arm_cfft_radix4_f32.c ****             /* yb' = (ya-xb-yc+xd)co1 - (xa+yb-xc-yd)(si1) */
 399:.\DSP\Source\TransformFunctions/arm_cfft_radix4_f32.c ****             pSrc[(2U * i2) + 1U] = Yb12_out;
 400:.\DSP\Source\TransformFunctions/arm_cfft_radix4_f32.c **** 
 401:.\DSP\Source\TransformFunctions/arm_cfft_radix4_f32.c ****             /* xd' = (xa-yb-xc+yd)co3 + (ya+xb-yc-xd)(si3) */
 402:.\DSP\Source\TransformFunctions/arm_cfft_radix4_f32.c ****             pSrc[2U * i3] = Xd12_out;
 403:.\DSP\Source\TransformFunctions/arm_cfft_radix4_f32.c **** 
 404:.\DSP\Source\TransformFunctions/arm_cfft_radix4_f32.c ****             /* yd' = (ya+xb-yc-xd)co3 - (xa-yb-xc+yd)(si3) */
 405:.\DSP\Source\TransformFunctions/arm_cfft_radix4_f32.c ****             pSrc[(2U * i3) + 1U] = Yd12_out;
 406:.\DSP\Source\TransformFunctions/arm_cfft_radix4_f32.c **** 
 407:.\DSP\Source\TransformFunctions/arm_cfft_radix4_f32.c ****             i0 += n1;
ARM GAS  C:\Users\IVYLIU~1\AppData\Local\Temp\ccHWxCbk.s 			page 9


 408:.\DSP\Source\TransformFunctions/arm_cfft_radix4_f32.c ****          } while (i0 < fftLen);
 409:.\DSP\Source\TransformFunctions/arm_cfft_radix4_f32.c ****          j++;
 410:.\DSP\Source\TransformFunctions/arm_cfft_radix4_f32.c ****       } while (j <= (n2 - 1U));
 411:.\DSP\Source\TransformFunctions/arm_cfft_radix4_f32.c ****       twidCoefModifier <<= 2U;
 412:.\DSP\Source\TransformFunctions/arm_cfft_radix4_f32.c ****    }
 413:.\DSP\Source\TransformFunctions/arm_cfft_radix4_f32.c **** 
 414:.\DSP\Source\TransformFunctions/arm_cfft_radix4_f32.c ****    j = fftLen >> 2;
 415:.\DSP\Source\TransformFunctions/arm_cfft_radix4_f32.c ****    ptr1 = &pSrc[0];
 416:.\DSP\Source\TransformFunctions/arm_cfft_radix4_f32.c **** 
 417:.\DSP\Source\TransformFunctions/arm_cfft_radix4_f32.c ****    /*  Calculations of last stage */
 418:.\DSP\Source\TransformFunctions/arm_cfft_radix4_f32.c ****    do
 419:.\DSP\Source\TransformFunctions/arm_cfft_radix4_f32.c ****    {
 420:.\DSP\Source\TransformFunctions/arm_cfft_radix4_f32.c ****       xaIn = ptr1[0];
 421:.\DSP\Source\TransformFunctions/arm_cfft_radix4_f32.c ****       yaIn = ptr1[1];
 422:.\DSP\Source\TransformFunctions/arm_cfft_radix4_f32.c ****       xbIn = ptr1[2];
 423:.\DSP\Source\TransformFunctions/arm_cfft_radix4_f32.c ****       ybIn = ptr1[3];
 424:.\DSP\Source\TransformFunctions/arm_cfft_radix4_f32.c ****       xcIn = ptr1[4];
 425:.\DSP\Source\TransformFunctions/arm_cfft_radix4_f32.c ****       ycIn = ptr1[5];
 426:.\DSP\Source\TransformFunctions/arm_cfft_radix4_f32.c ****       xdIn = ptr1[6];
 427:.\DSP\Source\TransformFunctions/arm_cfft_radix4_f32.c ****       ydIn = ptr1[7];
 428:.\DSP\Source\TransformFunctions/arm_cfft_radix4_f32.c **** 
 429:.\DSP\Source\TransformFunctions/arm_cfft_radix4_f32.c ****       /* xa + xc */
 430:.\DSP\Source\TransformFunctions/arm_cfft_radix4_f32.c ****       Xaplusc = xaIn + xcIn;
 431:.\DSP\Source\TransformFunctions/arm_cfft_radix4_f32.c **** 
 432:.\DSP\Source\TransformFunctions/arm_cfft_radix4_f32.c ****       /* xa - xc */
 433:.\DSP\Source\TransformFunctions/arm_cfft_radix4_f32.c ****       Xaminusc = xaIn - xcIn;
 434:.\DSP\Source\TransformFunctions/arm_cfft_radix4_f32.c **** 
 435:.\DSP\Source\TransformFunctions/arm_cfft_radix4_f32.c ****       /* ya + yc */
 436:.\DSP\Source\TransformFunctions/arm_cfft_radix4_f32.c ****       Yaplusc = yaIn + ycIn;
 437:.\DSP\Source\TransformFunctions/arm_cfft_radix4_f32.c **** 
 438:.\DSP\Source\TransformFunctions/arm_cfft_radix4_f32.c ****       /* ya - yc */
 439:.\DSP\Source\TransformFunctions/arm_cfft_radix4_f32.c ****       Yaminusc = yaIn - ycIn;
 440:.\DSP\Source\TransformFunctions/arm_cfft_radix4_f32.c **** 
 441:.\DSP\Source\TransformFunctions/arm_cfft_radix4_f32.c ****       /* xb + xd */
 442:.\DSP\Source\TransformFunctions/arm_cfft_radix4_f32.c ****       Xbplusd = xbIn + xdIn;
 443:.\DSP\Source\TransformFunctions/arm_cfft_radix4_f32.c **** 
 444:.\DSP\Source\TransformFunctions/arm_cfft_radix4_f32.c ****       /* yb + yd */
 445:.\DSP\Source\TransformFunctions/arm_cfft_radix4_f32.c ****       Ybplusd = ybIn + ydIn;
 446:.\DSP\Source\TransformFunctions/arm_cfft_radix4_f32.c **** 
 447:.\DSP\Source\TransformFunctions/arm_cfft_radix4_f32.c ****       /* (xb-xd) */
 448:.\DSP\Source\TransformFunctions/arm_cfft_radix4_f32.c ****       Xbminusd = xbIn - xdIn;
 449:.\DSP\Source\TransformFunctions/arm_cfft_radix4_f32.c **** 
 450:.\DSP\Source\TransformFunctions/arm_cfft_radix4_f32.c ****       /* (yb-yd) */
 451:.\DSP\Source\TransformFunctions/arm_cfft_radix4_f32.c ****       Ybminusd = ybIn - ydIn;
 452:.\DSP\Source\TransformFunctions/arm_cfft_radix4_f32.c **** 
 453:.\DSP\Source\TransformFunctions/arm_cfft_radix4_f32.c ****       /* xa' = xa + xb + xc + xd */
 454:.\DSP\Source\TransformFunctions/arm_cfft_radix4_f32.c ****       a0 = (Xaplusc + Xbplusd);
 455:.\DSP\Source\TransformFunctions/arm_cfft_radix4_f32.c ****       /* ya' = ya + yb + yc + yd */
 456:.\DSP\Source\TransformFunctions/arm_cfft_radix4_f32.c ****       a1 = (Yaplusc + Ybplusd);
 457:.\DSP\Source\TransformFunctions/arm_cfft_radix4_f32.c ****       /* xc' = (xa-xb+xc-xd) */
 458:.\DSP\Source\TransformFunctions/arm_cfft_radix4_f32.c ****       a2 = (Xaplusc - Xbplusd);
 459:.\DSP\Source\TransformFunctions/arm_cfft_radix4_f32.c ****       /* yc' = (ya-yb+yc-yd) */
 460:.\DSP\Source\TransformFunctions/arm_cfft_radix4_f32.c ****       a3 = (Yaplusc - Ybplusd);
 461:.\DSP\Source\TransformFunctions/arm_cfft_radix4_f32.c ****       /* xb' = (xa+yb-xc-yd) */
 462:.\DSP\Source\TransformFunctions/arm_cfft_radix4_f32.c ****       a4 = (Xaminusc + Ybminusd);
 463:.\DSP\Source\TransformFunctions/arm_cfft_radix4_f32.c ****       /* yb' = (ya-xb-yc+xd) */
 464:.\DSP\Source\TransformFunctions/arm_cfft_radix4_f32.c ****       a5 = (Yaminusc - Xbminusd);
ARM GAS  C:\Users\IVYLIU~1\AppData\Local\Temp\ccHWxCbk.s 			page 10


 465:.\DSP\Source\TransformFunctions/arm_cfft_radix4_f32.c ****       /* xd' = (xa-yb-xc+yd)) */
 466:.\DSP\Source\TransformFunctions/arm_cfft_radix4_f32.c ****       a6 = (Xaminusc - Ybminusd);
 467:.\DSP\Source\TransformFunctions/arm_cfft_radix4_f32.c ****       /* yd' = (ya+xb-yc-xd) */
 468:.\DSP\Source\TransformFunctions/arm_cfft_radix4_f32.c ****       a7 = (Xbminusd + Yaminusc);
 469:.\DSP\Source\TransformFunctions/arm_cfft_radix4_f32.c **** 
 470:.\DSP\Source\TransformFunctions/arm_cfft_radix4_f32.c ****       ptr1[0] = a0;
 471:.\DSP\Source\TransformFunctions/arm_cfft_radix4_f32.c ****       ptr1[1] = a1;
 472:.\DSP\Source\TransformFunctions/arm_cfft_radix4_f32.c ****       ptr1[2] = a2;
 473:.\DSP\Source\TransformFunctions/arm_cfft_radix4_f32.c ****       ptr1[3] = a3;
 474:.\DSP\Source\TransformFunctions/arm_cfft_radix4_f32.c ****       ptr1[4] = a4;
 475:.\DSP\Source\TransformFunctions/arm_cfft_radix4_f32.c ****       ptr1[5] = a5;
 476:.\DSP\Source\TransformFunctions/arm_cfft_radix4_f32.c ****       ptr1[6] = a6;
 477:.\DSP\Source\TransformFunctions/arm_cfft_radix4_f32.c ****       ptr1[7] = a7;
 478:.\DSP\Source\TransformFunctions/arm_cfft_radix4_f32.c **** 
 479:.\DSP\Source\TransformFunctions/arm_cfft_radix4_f32.c ****       /* increment pointer by 8 */
 480:.\DSP\Source\TransformFunctions/arm_cfft_radix4_f32.c ****       ptr1 += 8U;
 481:.\DSP\Source\TransformFunctions/arm_cfft_radix4_f32.c ****    } while (--j);
 482:.\DSP\Source\TransformFunctions/arm_cfft_radix4_f32.c **** 
 483:.\DSP\Source\TransformFunctions/arm_cfft_radix4_f32.c **** #else
 484:.\DSP\Source\TransformFunctions/arm_cfft_radix4_f32.c **** 
 485:.\DSP\Source\TransformFunctions/arm_cfft_radix4_f32.c ****         float32_t t1, t2, r1, r2, s1, s2;
 486:.\DSP\Source\TransformFunctions/arm_cfft_radix4_f32.c **** 
 487:.\DSP\Source\TransformFunctions/arm_cfft_radix4_f32.c ****    /* Initializations for the fft calculation */
 488:.\DSP\Source\TransformFunctions/arm_cfft_radix4_f32.c ****    n2 = fftLen;
  50              		.loc 1 488 0
  51 000a 1091     		str	r1, [sp, #64]
  52              	.LVL1:
 489:.\DSP\Source\TransformFunctions/arm_cfft_radix4_f32.c ****    n1 = n2;
 490:.\DSP\Source\TransformFunctions/arm_cfft_radix4_f32.c ****    for (k = fftLen; k > 1U; k >>= 2U)
  53              		.loc 1 490 0
  54 000c 1591     		str	r1, [sp, #84]
 488:.\DSP\Source\TransformFunctions/arm_cfft_radix4_f32.c ****    n1 = n2;
  55              		.loc 1 488 0
  56 000e 0F91     		str	r1, [sp, #60]
  57 0010 8046     		mov	r8, r0
  58              		.loc 1 490 0
  59 0012 11E1     		b	.L2
  60              	.LVL2:
  61              	.L5:
 491:.\DSP\Source\TransformFunctions/arm_cfft_radix4_f32.c ****    {
 492:.\DSP\Source\TransformFunctions/arm_cfft_radix4_f32.c ****       /*  Initializations for the fft calculation */
 493:.\DSP\Source\TransformFunctions/arm_cfft_radix4_f32.c ****       n1 = n2;
 494:.\DSP\Source\TransformFunctions/arm_cfft_radix4_f32.c ****       n2 >>= 2U;
  62              		.loc 1 494 0
  63 0014 0F9B     		ldr	r3, [sp, #60]
  64              	.LVL3:
  65 0016 9B08     		lsrs	r3, r3, #2
  66 0018 0D93     		str	r3, [sp, #52]
  67              	.LVL4:
 495:.\DSP\Source\TransformFunctions/arm_cfft_radix4_f32.c ****       ia1 = 0U;
 496:.\DSP\Source\TransformFunctions/arm_cfft_radix4_f32.c **** 
 497:.\DSP\Source\TransformFunctions/arm_cfft_radix4_f32.c ****       /*  FFT Calculation */
 498:.\DSP\Source\TransformFunctions/arm_cfft_radix4_f32.c ****       j = 0;
  68              		.loc 1 498 0
  69 001a 0023     		movs	r3, #0
  70              	.LVL5:
  71 001c 1193     		str	r3, [sp, #68]
ARM GAS  C:\Users\IVYLIU~1\AppData\Local\Temp\ccHWxCbk.s 			page 11


 495:.\DSP\Source\TransformFunctions/arm_cfft_radix4_f32.c ****       ia1 = 0U;
  72              		.loc 1 495 0
  73 001e 1293     		str	r3, [sp, #72]
  74 0020 C346     		mov	fp, r8
  75              	.LVL6:
  76              	.L4:
 499:.\DSP\Source\TransformFunctions/arm_cfft_radix4_f32.c ****       do
 500:.\DSP\Source\TransformFunctions/arm_cfft_radix4_f32.c ****       {
 501:.\DSP\Source\TransformFunctions/arm_cfft_radix4_f32.c ****          /*  index calculation for the coefficients */
 502:.\DSP\Source\TransformFunctions/arm_cfft_radix4_f32.c ****          ia2 = ia1 + ia1;
 503:.\DSP\Source\TransformFunctions/arm_cfft_radix4_f32.c ****          ia3 = ia2 + ia1;
  77              		.loc 1 503 0
  78 0022 129D     		ldr	r5, [sp, #72]
  79 0024 05EB4503 		add	r3, r5, r5, lsl #1
  80              	.LVL7:
 504:.\DSP\Source\TransformFunctions/arm_cfft_radix4_f32.c ****          co1 = pCoef[ia1 * 2U];
  81              		.loc 1 504 0
  82 0028 1499     		ldr	r1, [sp, #80]
  83 002a 51F83520 		ldr	r2, [r1, r5, lsl #3]	@ float
  84 002e 0492     		str	r2, [sp, #16]	@ float
  85              	.LVL8:
 505:.\DSP\Source\TransformFunctions/arm_cfft_radix4_f32.c ****          si1 = pCoef[(ia1 * 2U) + 1U];
  86              		.loc 1 505 0
  87 0030 01EBC502 		add	r2, r1, r5, lsl #3
  88              	.LVL9:
  89 0034 5268     		ldr	r2, [r2, #4]	@ float
  90              	.LVL10:
  91 0036 0592     		str	r2, [sp, #20]	@ float
  92              	.LVL11:
 506:.\DSP\Source\TransformFunctions/arm_cfft_radix4_f32.c ****          co2 = pCoef[ia2 * 2U];
  93              		.loc 1 506 0
  94 0038 2A01     		lsls	r2, r5, #4
  95              	.LVL12:
  96 003a 8858     		ldr	r0, [r1, r2]	@ float
  97 003c 0690     		str	r0, [sp, #24]	@ float
  98              	.LVL13:
 507:.\DSP\Source\TransformFunctions/arm_cfft_radix4_f32.c ****          si2 = pCoef[(ia2 * 2U) + 1U];
  99              		.loc 1 507 0
 100 003e 0432     		adds	r2, r2, #4
 101 0040 8A58     		ldr	r2, [r1, r2]	@ float
 102 0042 0792     		str	r2, [sp, #28]	@ float
 103              	.LVL14:
 508:.\DSP\Source\TransformFunctions/arm_cfft_radix4_f32.c ****          co3 = pCoef[ia3 * 2U];
 104              		.loc 1 508 0
 105 0044 51F83320 		ldr	r2, [r1, r3, lsl #3]	@ float
 106              	.LVL15:
 107 0048 0892     		str	r2, [sp, #32]	@ float
 108              	.LVL16:
 509:.\DSP\Source\TransformFunctions/arm_cfft_radix4_f32.c ****          si3 = pCoef[(ia3 * 2U) + 1U];
 109              		.loc 1 509 0
 110 004a 01EBC303 		add	r3, r1, r3, lsl #3
 111              	.LVL17:
 112 004e 5B68     		ldr	r3, [r3, #4]	@ float
 113 0050 0E93     		str	r3, [sp, #56]	@ float
 114              	.LVL18:
 510:.\DSP\Source\TransformFunctions/arm_cfft_radix4_f32.c **** 
 511:.\DSP\Source\TransformFunctions/arm_cfft_radix4_f32.c ****          /*  Twiddle coefficients index modifier */
ARM GAS  C:\Users\IVYLIU~1\AppData\Local\Temp\ccHWxCbk.s 			page 12


 512:.\DSP\Source\TransformFunctions/arm_cfft_radix4_f32.c ****          ia1 = ia1 + twidCoefModifier;
 115              		.loc 1 512 0
 116 0052 139B     		ldr	r3, [sp, #76]
 117              	.LVL19:
 118 0054 EB18     		adds	r3, r5, r3
 119 0056 1293     		str	r3, [sp, #72]
 120              	.LVL20:
 513:.\DSP\Source\TransformFunctions/arm_cfft_radix4_f32.c **** 
 514:.\DSP\Source\TransformFunctions/arm_cfft_radix4_f32.c ****          i0 = j;
 121              		.loc 1 514 0
 122 0058 119F     		ldr	r7, [sp, #68]
 123              	.LVL21:
 124              	.L3:
 515:.\DSP\Source\TransformFunctions/arm_cfft_radix4_f32.c ****          do
 516:.\DSP\Source\TransformFunctions/arm_cfft_radix4_f32.c ****          {
 517:.\DSP\Source\TransformFunctions/arm_cfft_radix4_f32.c ****             /*  index calculation for the input as, */
 518:.\DSP\Source\TransformFunctions/arm_cfft_radix4_f32.c ****             /*  pSrc[i0 + 0], pSrc[i0 + fftLen/4], pSrc[i0 + fftLen/2], pSrc[i0 + 3fftLen/4] */
 519:.\DSP\Source\TransformFunctions/arm_cfft_radix4_f32.c ****             i1 = i0 + n2;
 125              		.loc 1 519 0 discriminator 1
 126 005a 0D9B     		ldr	r3, [sp, #52]
 127 005c FD18     		adds	r5, r7, r3
 128              	.LVL22:
 520:.\DSP\Source\TransformFunctions/arm_cfft_radix4_f32.c ****             i2 = i1 + n2;
 129              		.loc 1 520 0 discriminator 1
 130 005e 05EB0308 		add	r8, r5, r3
 131              	.LVL23:
 521:.\DSP\Source\TransformFunctions/arm_cfft_radix4_f32.c ****             i3 = i2 + n2;
 132              		.loc 1 521 0 discriminator 1
 133 0062 08EB0309 		add	r9, r8, r3
 134              	.LVL24:
 522:.\DSP\Source\TransformFunctions/arm_cfft_radix4_f32.c **** 
 523:.\DSP\Source\TransformFunctions/arm_cfft_radix4_f32.c ****             /* xa + xc */
 524:.\DSP\Source\TransformFunctions/arm_cfft_radix4_f32.c ****             r1 = pSrc[(2U * i0)] + pSrc[(2U * i2)];
 135              		.loc 1 524 0 discriminator 1
 136 0066 FE00     		lsls	r6, r7, #3
 137 0068 5BF83730 		ldr	r3, [fp, r7, lsl #3]	@ float
 138 006c 4FEAC80A 		lsl	r10, r8, #3
 139 0070 5BF83840 		ldr	r4, [fp, r8, lsl #3]	@ float
 140 0074 0293     		str	r3, [sp, #8]	@ float
 141 0076 1846     		mov	r0, r3
 142 0078 2146     		mov	r1, r4
 143 007a FFF7FEFF 		bl	__aeabi_fadd
 144              	.LVL25:
 145 007e 0190     		str	r0, [sp, #4]	@ float
 146              	.LVL26:
 525:.\DSP\Source\TransformFunctions/arm_cfft_radix4_f32.c **** 
 526:.\DSP\Source\TransformFunctions/arm_cfft_radix4_f32.c ****             /* xa - xc */
 527:.\DSP\Source\TransformFunctions/arm_cfft_radix4_f32.c ****             r2 = pSrc[(2U * i0)] - pSrc[(2U * i2)];
 147              		.loc 1 527 0 discriminator 1
 148 0080 0298     		ldr	r0, [sp, #8]	@ float
 149              	.LVL27:
 150 0082 2146     		mov	r1, r4
 151 0084 FFF7FEFF 		bl	__aeabi_fsub
 152              	.LVL28:
 153 0088 0990     		str	r0, [sp, #36]	@ float
 154              	.LVL29:
 528:.\DSP\Source\TransformFunctions/arm_cfft_radix4_f32.c **** 
ARM GAS  C:\Users\IVYLIU~1\AppData\Local\Temp\ccHWxCbk.s 			page 13


 529:.\DSP\Source\TransformFunctions/arm_cfft_radix4_f32.c ****             /* ya + yc */
 530:.\DSP\Source\TransformFunctions/arm_cfft_radix4_f32.c ****             s1 = pSrc[(2U * i0) + 1U] + pSrc[(2U * i2) + 1U];
 155              		.loc 1 530 0 discriminator 1
 156 008a 0436     		adds	r6, r6, #4
 157 008c 5BF80640 		ldr	r4, [fp, r6]	@ float
 158 0090 0AF10403 		add	r3, r10, #4
 159 0094 0A93     		str	r3, [sp, #40]
 160 0096 5BF803A0 		ldr	r10, [fp, r3]	@ float
 161 009a 2046     		mov	r0, r4
 162              	.LVL30:
 163 009c 5146     		mov	r1, r10
 164 009e FFF7FEFF 		bl	__aeabi_fadd
 165              	.LVL31:
 166 00a2 0290     		str	r0, [sp, #8]	@ float
 167              	.LVL32:
 531:.\DSP\Source\TransformFunctions/arm_cfft_radix4_f32.c **** 
 532:.\DSP\Source\TransformFunctions/arm_cfft_radix4_f32.c ****             /* ya - yc */
 533:.\DSP\Source\TransformFunctions/arm_cfft_radix4_f32.c ****             s2 = pSrc[(2U * i0) + 1U] - pSrc[(2U * i2) + 1U];
 168              		.loc 1 533 0 discriminator 1
 169 00a4 2046     		mov	r0, r4
 170              	.LVL33:
 171 00a6 5146     		mov	r1, r10
 172 00a8 FFF7FEFF 		bl	__aeabi_fsub
 173              	.LVL34:
 174 00ac 0390     		str	r0, [sp, #12]	@ float
 175              	.LVL35:
 534:.\DSP\Source\TransformFunctions/arm_cfft_radix4_f32.c **** 
 535:.\DSP\Source\TransformFunctions/arm_cfft_radix4_f32.c ****             /* xb + xd */
 536:.\DSP\Source\TransformFunctions/arm_cfft_radix4_f32.c ****             t1 = pSrc[2U * i1] + pSrc[2U * i3];
 176              		.loc 1 536 0 discriminator 1
 177 00ae EC00     		lsls	r4, r5, #3
 178 00b0 4FEAC90A 		lsl	r10, r9, #3
 179 00b4 5BF83500 		ldr	r0, [fp, r5, lsl #3]	@ float
 180              	.LVL36:
 181 00b8 5BF83910 		ldr	r1, [fp, r9, lsl #3]	@ float
 182 00bc FFF7FEFF 		bl	__aeabi_fadd
 183              	.LVL37:
 184 00c0 0146     		mov	r1, r0
 185              	.LVL38:
 537:.\DSP\Source\TransformFunctions/arm_cfft_radix4_f32.c **** 
 538:.\DSP\Source\TransformFunctions/arm_cfft_radix4_f32.c ****             /* xa' = xa + xb + xc + xd */
 539:.\DSP\Source\TransformFunctions/arm_cfft_radix4_f32.c ****             pSrc[2U * i0] = r1 + t1;
 186              		.loc 1 539 0 discriminator 1
 187 00c2 0198     		ldr	r0, [sp, #4]	@ float
 188              	.LVL39:
 189 00c4 0B91     		str	r1, [sp, #44]	@ float
 190 00c6 FFF7FEFF 		bl	__aeabi_fadd
 191              	.LVL40:
 192 00ca 4BF83700 		str	r0, [fp, r7, lsl #3]	@ float
 540:.\DSP\Source\TransformFunctions/arm_cfft_radix4_f32.c **** 
 541:.\DSP\Source\TransformFunctions/arm_cfft_radix4_f32.c ****             /* xa + xc -(xb + xd) */
 542:.\DSP\Source\TransformFunctions/arm_cfft_radix4_f32.c ****             r1 = r1 - t1;
 193              		.loc 1 542 0 discriminator 1
 194 00ce 0198     		ldr	r0, [sp, #4]	@ float
 195 00d0 0B99     		ldr	r1, [sp, #44]	@ float
 196 00d2 FFF7FEFF 		bl	__aeabi_fsub
 197              	.LVL41:
ARM GAS  C:\Users\IVYLIU~1\AppData\Local\Temp\ccHWxCbk.s 			page 14


 198 00d6 0190     		str	r0, [sp, #4]	@ float
 199              	.LVL42:
 543:.\DSP\Source\TransformFunctions/arm_cfft_radix4_f32.c **** 
 544:.\DSP\Source\TransformFunctions/arm_cfft_radix4_f32.c ****             /* yb + yd */
 545:.\DSP\Source\TransformFunctions/arm_cfft_radix4_f32.c ****             t2 = pSrc[(2U * i1) + 1U] + pSrc[(2U * i3) + 1U];
 200              		.loc 1 545 0 discriminator 1
 201 00d8 0434     		adds	r4, r4, #4
 202 00da 0AF1040A 		add	r10, r10, #4
 203 00de 5BF80400 		ldr	r0, [fp, r4]	@ float
 204              	.LVL43:
 205 00e2 5BF80A10 		ldr	r1, [fp, r10]	@ float
 206 00e6 FFF7FEFF 		bl	__aeabi_fadd
 207              	.LVL44:
 208 00ea 0146     		mov	r1, r0
 209              	.LVL45:
 546:.\DSP\Source\TransformFunctions/arm_cfft_radix4_f32.c **** 
 547:.\DSP\Source\TransformFunctions/arm_cfft_radix4_f32.c ****             /* ya' = ya + yb + yc + yd */
 548:.\DSP\Source\TransformFunctions/arm_cfft_radix4_f32.c ****             pSrc[(2U * i0) + 1U] = s1 + t2;
 210              		.loc 1 548 0 discriminator 1
 211 00ec 0298     		ldr	r0, [sp, #8]	@ float
 212              	.LVL46:
 213 00ee 0B91     		str	r1, [sp, #44]	@ float
 214              	.LVL47:
 215 00f0 FFF7FEFF 		bl	__aeabi_fadd
 216              	.LVL48:
 217 00f4 4BF80600 		str	r0, [fp, r6]	@ float
 549:.\DSP\Source\TransformFunctions/arm_cfft_radix4_f32.c **** 
 550:.\DSP\Source\TransformFunctions/arm_cfft_radix4_f32.c ****             /* (ya + yc) - (yb + yd) */
 551:.\DSP\Source\TransformFunctions/arm_cfft_radix4_f32.c ****             s1 = s1 - t2;
 218              		.loc 1 551 0 discriminator 1
 219 00f8 0298     		ldr	r0, [sp, #8]	@ float
 220 00fa 0B99     		ldr	r1, [sp, #44]	@ float
 221 00fc FFF7FEFF 		bl	__aeabi_fsub
 222              	.LVL49:
 223 0100 0646     		mov	r6, r0
 224              	.LVL50:
 552:.\DSP\Source\TransformFunctions/arm_cfft_radix4_f32.c **** 
 553:.\DSP\Source\TransformFunctions/arm_cfft_radix4_f32.c ****             /* (yb - yd) */
 554:.\DSP\Source\TransformFunctions/arm_cfft_radix4_f32.c ****             t1 = pSrc[(2U * i1) + 1U] - pSrc[(2U * i3) + 1U];
 225              		.loc 1 554 0 discriminator 1
 226 0102 5BF80400 		ldr	r0, [fp, r4]	@ float
 227              	.LVL51:
 228 0106 5BF80A10 		ldr	r1, [fp, r10]	@ float
 229 010a FFF7FEFF 		bl	__aeabi_fsub
 230              	.LVL52:
 231 010e 0B90     		str	r0, [sp, #44]	@ float
 232              	.LVL53:
 555:.\DSP\Source\TransformFunctions/arm_cfft_radix4_f32.c **** 
 556:.\DSP\Source\TransformFunctions/arm_cfft_radix4_f32.c ****             /* (xb - xd) */
 557:.\DSP\Source\TransformFunctions/arm_cfft_radix4_f32.c ****             t2 = pSrc[2U * i1] - pSrc[2U * i3];
 233              		.loc 1 557 0 discriminator 1
 234 0110 5BF83500 		ldr	r0, [fp, r5, lsl #3]	@ float
 235              	.LVL54:
 236 0114 5BF83910 		ldr	r1, [fp, r9, lsl #3]	@ float
 237 0118 FFF7FEFF 		bl	__aeabi_fsub
 238              	.LVL55:
 239 011c 0290     		str	r0, [sp, #8]	@ float
ARM GAS  C:\Users\IVYLIU~1\AppData\Local\Temp\ccHWxCbk.s 			page 15


 240              	.LVL56:
 558:.\DSP\Source\TransformFunctions/arm_cfft_radix4_f32.c **** 
 559:.\DSP\Source\TransformFunctions/arm_cfft_radix4_f32.c ****             /* xc' = (xa-xb+xc-xd)co2 + (ya-yb+yc-yd)(si2) */
 560:.\DSP\Source\TransformFunctions/arm_cfft_radix4_f32.c ****             pSrc[2U * i1] = (r1 * co2) + (s1 * si2);
 241              		.loc 1 560 0 discriminator 1
 242 011e 0198     		ldr	r0, [sp, #4]	@ float
 243              	.LVL57:
 244 0120 0699     		ldr	r1, [sp, #24]	@ float
 245 0122 FFF7FEFF 		bl	__aeabi_fmul
 246              	.LVL58:
 247 0126 0C90     		str	r0, [sp, #48]	@ float
 248 0128 3046     		mov	r0, r6
 249 012a 0799     		ldr	r1, [sp, #28]	@ float
 250 012c FFF7FEFF 		bl	__aeabi_fmul
 251              	.LVL59:
 252 0130 0146     		mov	r1, r0
 253 0132 0C98     		ldr	r0, [sp, #48]	@ float
 254 0134 FFF7FEFF 		bl	__aeabi_fadd
 255              	.LVL60:
 256 0138 4BF83500 		str	r0, [fp, r5, lsl #3]	@ float
 561:.\DSP\Source\TransformFunctions/arm_cfft_radix4_f32.c **** 
 562:.\DSP\Source\TransformFunctions/arm_cfft_radix4_f32.c ****             /* yc' = (ya-yb+yc-yd)co2 - (xa-xb+xc-xd)(si2) */
 563:.\DSP\Source\TransformFunctions/arm_cfft_radix4_f32.c ****             pSrc[(2U * i1) + 1U] = (s1 * co2) - (r1 * si2);
 257              		.loc 1 563 0 discriminator 1
 258 013c 3046     		mov	r0, r6
 259 013e 0699     		ldr	r1, [sp, #24]	@ float
 260 0140 FFF7FEFF 		bl	__aeabi_fmul
 261              	.LVL61:
 262 0144 0546     		mov	r5, r0
 263              	.LVL62:
 264 0146 0198     		ldr	r0, [sp, #4]	@ float
 265 0148 0799     		ldr	r1, [sp, #28]	@ float
 266 014a FFF7FEFF 		bl	__aeabi_fmul
 267              	.LVL63:
 268 014e 0146     		mov	r1, r0
 269 0150 2846     		mov	r0, r5
 270 0152 FFF7FEFF 		bl	__aeabi_fsub
 271              	.LVL64:
 272 0156 4BF80400 		str	r0, [fp, r4]	@ float
 564:.\DSP\Source\TransformFunctions/arm_cfft_radix4_f32.c **** 
 565:.\DSP\Source\TransformFunctions/arm_cfft_radix4_f32.c ****             /* (xa - xc) + (yb - yd) */
 566:.\DSP\Source\TransformFunctions/arm_cfft_radix4_f32.c ****             r1 = r2 + t1;
 273              		.loc 1 566 0 discriminator 1
 274 015a 099E     		ldr	r6, [sp, #36]	@ float
 275              	.LVL65:
 276 015c 3046     		mov	r0, r6
 277 015e 0B9D     		ldr	r5, [sp, #44]	@ float
 278 0160 2946     		mov	r1, r5
 279 0162 FFF7FEFF 		bl	__aeabi_fadd
 280              	.LVL66:
 281 0166 0446     		mov	r4, r0
 282              	.LVL67:
 567:.\DSP\Source\TransformFunctions/arm_cfft_radix4_f32.c **** 
 568:.\DSP\Source\TransformFunctions/arm_cfft_radix4_f32.c ****             /* (xa - xc) - (yb - yd) */
 569:.\DSP\Source\TransformFunctions/arm_cfft_radix4_f32.c ****             r2 = r2 - t1;
 283              		.loc 1 569 0 discriminator 1
 284 0168 3046     		mov	r0, r6
ARM GAS  C:\Users\IVYLIU~1\AppData\Local\Temp\ccHWxCbk.s 			page 16


 285              	.LVL68:
 286 016a 2946     		mov	r1, r5
 287 016c FFF7FEFF 		bl	__aeabi_fsub
 288              	.LVL69:
 289 0170 0646     		mov	r6, r0
 290              	.LVL70:
 570:.\DSP\Source\TransformFunctions/arm_cfft_radix4_f32.c **** 
 571:.\DSP\Source\TransformFunctions/arm_cfft_radix4_f32.c ****             /* (ya - yc) -  (xb - xd) */
 572:.\DSP\Source\TransformFunctions/arm_cfft_radix4_f32.c ****             s1 = s2 - t2;
 291              		.loc 1 572 0 discriminator 1
 292 0172 0398     		ldr	r0, [sp, #12]	@ float
 293              	.LVL71:
 294 0174 0299     		ldr	r1, [sp, #8]	@ float
 295 0176 FFF7FEFF 		bl	__aeabi_fsub
 296              	.LVL72:
 297 017a 0546     		mov	r5, r0
 298              	.LVL73:
 573:.\DSP\Source\TransformFunctions/arm_cfft_radix4_f32.c **** 
 574:.\DSP\Source\TransformFunctions/arm_cfft_radix4_f32.c ****             /* (ya - yc) +  (xb - xd) */
 575:.\DSP\Source\TransformFunctions/arm_cfft_radix4_f32.c ****             s2 = s2 + t2;
 299              		.loc 1 575 0 discriminator 1
 300 017c 0398     		ldr	r0, [sp, #12]	@ float
 301              	.LVL74:
 302 017e 0299     		ldr	r1, [sp, #8]	@ float
 303 0180 FFF7FEFF 		bl	__aeabi_fadd
 304              	.LVL75:
 305 0184 0190     		str	r0, [sp, #4]	@ float
 306              	.LVL76:
 576:.\DSP\Source\TransformFunctions/arm_cfft_radix4_f32.c **** 
 577:.\DSP\Source\TransformFunctions/arm_cfft_radix4_f32.c ****             /* xb' = (xa+yb-xc-yd)co1 + (ya-xb-yc+xd)(si1) */
 578:.\DSP\Source\TransformFunctions/arm_cfft_radix4_f32.c ****             pSrc[2U * i2] = (r1 * co1) + (s1 * si1);
 307              		.loc 1 578 0 discriminator 1
 308 0186 2046     		mov	r0, r4
 309              	.LVL77:
 310 0188 0499     		ldr	r1, [sp, #16]	@ float
 311 018a FFF7FEFF 		bl	__aeabi_fmul
 312              	.LVL78:
 313 018e 0290     		str	r0, [sp, #8]	@ float
 314              	.LVL79:
 315 0190 2846     		mov	r0, r5
 316 0192 0599     		ldr	r1, [sp, #20]	@ float
 317 0194 FFF7FEFF 		bl	__aeabi_fmul
 318              	.LVL80:
 319 0198 0146     		mov	r1, r0
 320 019a 0298     		ldr	r0, [sp, #8]	@ float
 321 019c FFF7FEFF 		bl	__aeabi_fadd
 322              	.LVL81:
 323 01a0 4BF83800 		str	r0, [fp, r8, lsl #3]	@ float
 579:.\DSP\Source\TransformFunctions/arm_cfft_radix4_f32.c **** 
 580:.\DSP\Source\TransformFunctions/arm_cfft_radix4_f32.c ****             /* yb' = (ya-xb-yc+xd)co1 - (xa+yb-xc-yd)(si1) */
 581:.\DSP\Source\TransformFunctions/arm_cfft_radix4_f32.c ****             pSrc[(2U * i2) + 1U] = (s1 * co1) - (r1 * si1);
 324              		.loc 1 581 0 discriminator 1
 325 01a4 2846     		mov	r0, r5
 326 01a6 0499     		ldr	r1, [sp, #16]	@ float
 327 01a8 FFF7FEFF 		bl	__aeabi_fmul
 328              	.LVL82:
 329 01ac 0546     		mov	r5, r0
ARM GAS  C:\Users\IVYLIU~1\AppData\Local\Temp\ccHWxCbk.s 			page 17


 330              	.LVL83:
 331 01ae 2046     		mov	r0, r4
 332 01b0 0599     		ldr	r1, [sp, #20]	@ float
 333 01b2 FFF7FEFF 		bl	__aeabi_fmul
 334              	.LVL84:
 335 01b6 0146     		mov	r1, r0
 336 01b8 2846     		mov	r0, r5
 337 01ba FFF7FEFF 		bl	__aeabi_fsub
 338              	.LVL85:
 339 01be 0A9A     		ldr	r2, [sp, #40]
 340 01c0 4BF80200 		str	r0, [fp, r2]	@ float
 582:.\DSP\Source\TransformFunctions/arm_cfft_radix4_f32.c **** 
 583:.\DSP\Source\TransformFunctions/arm_cfft_radix4_f32.c ****             /* xd' = (xa-yb-xc+yd)co3 + (ya+xb-yc-xd)(si3) */
 584:.\DSP\Source\TransformFunctions/arm_cfft_radix4_f32.c ****             pSrc[2U * i3] = (r2 * co3) + (s2 * si3);
 341              		.loc 1 584 0 discriminator 1
 342 01c4 3046     		mov	r0, r6
 343 01c6 0899     		ldr	r1, [sp, #32]	@ float
 344 01c8 FFF7FEFF 		bl	__aeabi_fmul
 345              	.LVL86:
 346 01cc 0446     		mov	r4, r0
 347              	.LVL87:
 348 01ce DDF80480 		ldr	r8, [sp, #4]	@ float
 349              	.LVL88:
 350 01d2 4046     		mov	r0, r8
 351 01d4 0E9D     		ldr	r5, [sp, #56]	@ float
 352 01d6 2946     		mov	r1, r5
 353 01d8 FFF7FEFF 		bl	__aeabi_fmul
 354              	.LVL89:
 355 01dc 0146     		mov	r1, r0
 356 01de 2046     		mov	r0, r4
 357 01e0 FFF7FEFF 		bl	__aeabi_fadd
 358              	.LVL90:
 359 01e4 4BF83900 		str	r0, [fp, r9, lsl #3]	@ float
 585:.\DSP\Source\TransformFunctions/arm_cfft_radix4_f32.c **** 
 586:.\DSP\Source\TransformFunctions/arm_cfft_radix4_f32.c ****             /* yd' = (ya+xb-yc-xd)co3 - (xa-yb-xc+yd)(si3) */
 587:.\DSP\Source\TransformFunctions/arm_cfft_radix4_f32.c ****             pSrc[(2U * i3) + 1U] = (s2 * co3) - (r2 * si3);
 360              		.loc 1 587 0 discriminator 1
 361 01e8 4046     		mov	r0, r8
 362 01ea 0899     		ldr	r1, [sp, #32]	@ float
 363 01ec FFF7FEFF 		bl	__aeabi_fmul
 364              	.LVL91:
 365 01f0 0446     		mov	r4, r0
 366 01f2 3046     		mov	r0, r6
 367 01f4 2946     		mov	r1, r5
 368 01f6 FFF7FEFF 		bl	__aeabi_fmul
 369              	.LVL92:
 370 01fa 0146     		mov	r1, r0
 371 01fc 2046     		mov	r0, r4
 372 01fe FFF7FEFF 		bl	__aeabi_fsub
 373              	.LVL93:
 374 0202 4BF80A00 		str	r0, [fp, r10]	@ float
 588:.\DSP\Source\TransformFunctions/arm_cfft_radix4_f32.c **** 
 589:.\DSP\Source\TransformFunctions/arm_cfft_radix4_f32.c ****             i0 += n1;
 375              		.loc 1 589 0 discriminator 1
 376 0206 0F9B     		ldr	r3, [sp, #60]
 377 0208 1F44     		add	r7, r7, r3
 378              	.LVL94:
ARM GAS  C:\Users\IVYLIU~1\AppData\Local\Temp\ccHWxCbk.s 			page 18


 590:.\DSP\Source\TransformFunctions/arm_cfft_radix4_f32.c ****          } while ( i0 < fftLen);
 379              		.loc 1 590 0 discriminator 1
 380 020a 109B     		ldr	r3, [sp, #64]
 381 020c BB42     		cmp	r3, r7
 382 020e 3FF624AF 		bhi	.L3
 591:.\DSP\Source\TransformFunctions/arm_cfft_radix4_f32.c ****          j++;
 383              		.loc 1 591 0
 384 0212 119B     		ldr	r3, [sp, #68]
 385 0214 0133     		adds	r3, r3, #1
 386 0216 1A46     		mov	r2, r3
 387 0218 1193     		str	r3, [sp, #68]
 388              	.LVL95:
 592:.\DSP\Source\TransformFunctions/arm_cfft_radix4_f32.c ****       } while (j <= (n2 - 1U));
 389              		.loc 1 592 0
 390 021a 0D9B     		ldr	r3, [sp, #52]
 391 021c 013B     		subs	r3, r3, #1
 392 021e 9342     		cmp	r3, r2
 393 0220 BFF4FFAE 		bcs	.L4
 394 0224 D846     		mov	r8, fp
 593:.\DSP\Source\TransformFunctions/arm_cfft_radix4_f32.c ****       twidCoefModifier <<= 2U;
 395              		.loc 1 593 0 discriminator 2
 396 0226 139B     		ldr	r3, [sp, #76]
 397 0228 9B00     		lsls	r3, r3, #2
 398 022a 9BB2     		uxth	r3, r3
 399 022c 1393     		str	r3, [sp, #76]
 400              	.LVL96:
 490:.\DSP\Source\TransformFunctions/arm_cfft_radix4_f32.c ****    {
 401              		.loc 1 490 0 discriminator 2
 402 022e 159B     		ldr	r3, [sp, #84]
 403 0230 9B08     		lsrs	r3, r3, #2
 404 0232 1593     		str	r3, [sp, #84]
 405              	.LVL97:
 494:.\DSP\Source\TransformFunctions/arm_cfft_radix4_f32.c ****       ia1 = 0U;
 406              		.loc 1 494 0 discriminator 2
 407 0234 0D9B     		ldr	r3, [sp, #52]
 408              	.LVL98:
 409 0236 0F93     		str	r3, [sp, #60]
 410              	.LVL99:
 411              	.L2:
 490:.\DSP\Source\TransformFunctions/arm_cfft_radix4_f32.c ****    {
 412              		.loc 1 490 0 discriminator 1
 413 0238 159B     		ldr	r3, [sp, #84]
 414 023a 012B     		cmp	r3, #1
 415 023c 3FF6EAAE 		bhi	.L5
 594:.\DSP\Source\TransformFunctions/arm_cfft_radix4_f32.c ****    }
 595:.\DSP\Source\TransformFunctions/arm_cfft_radix4_f32.c **** 
 596:.\DSP\Source\TransformFunctions/arm_cfft_radix4_f32.c **** #endif /* #if defined (ARM_MATH_LOOPUNROLL) */
 597:.\DSP\Source\TransformFunctions/arm_cfft_radix4_f32.c **** 
 598:.\DSP\Source\TransformFunctions/arm_cfft_radix4_f32.c **** }
 416              		.loc 1 598 0
 417 0240 17B0     		add	sp, sp, #92
 418              		.cfi_def_cfa_offset 36
 419              		@ sp needed
 420 0242 BDE8F08F 		pop	{r4, r5, r6, r7, r8, r9, r10, fp, pc}
 421              		.cfi_endproc
 422              	.LFE85:
 423              		.size	arm_radix4_butterfly_f32, .-arm_radix4_butterfly_f32
ARM GAS  C:\Users\IVYLIU~1\AppData\Local\Temp\ccHWxCbk.s 			page 19


 424 0246 00BF     		.section	.text.arm_radix4_butterfly_inverse_f32,"ax",%progbits
 425              		.align	2
 426              		.global	arm_radix4_butterfly_inverse_f32
 427              		.thumb
 428              		.thumb_func
 429              		.type	arm_radix4_butterfly_inverse_f32, %function
 430              	arm_radix4_butterfly_inverse_f32:
 431              	.LFB86:
 599:.\DSP\Source\TransformFunctions/arm_cfft_radix4_f32.c **** 
 600:.\DSP\Source\TransformFunctions/arm_cfft_radix4_f32.c **** /**
 601:.\DSP\Source\TransformFunctions/arm_cfft_radix4_f32.c ****   brief         Core function for the floating-point CIFFT butterfly process.
 602:.\DSP\Source\TransformFunctions/arm_cfft_radix4_f32.c ****   param[in,out] pSrc             points to the in-place buffer of floating-point data type
 603:.\DSP\Source\TransformFunctions/arm_cfft_radix4_f32.c ****   param[in]     fftLen           length of the FFT
 604:.\DSP\Source\TransformFunctions/arm_cfft_radix4_f32.c ****   param[in]     pCoef            points to twiddle coefficient buffer
 605:.\DSP\Source\TransformFunctions/arm_cfft_radix4_f32.c ****   param[in]     twidCoefModifier twiddle coefficient modifier that supports different size FFTs wit
 606:.\DSP\Source\TransformFunctions/arm_cfft_radix4_f32.c ****   param[in]     onebyfftLen      value of 1/fftLen
 607:.\DSP\Source\TransformFunctions/arm_cfft_radix4_f32.c ****   return        none
 608:.\DSP\Source\TransformFunctions/arm_cfft_radix4_f32.c ****  */
 609:.\DSP\Source\TransformFunctions/arm_cfft_radix4_f32.c **** 
 610:.\DSP\Source\TransformFunctions/arm_cfft_radix4_f32.c **** void arm_radix4_butterfly_inverse_f32(
 611:.\DSP\Source\TransformFunctions/arm_cfft_radix4_f32.c ****         float32_t * pSrc,
 612:.\DSP\Source\TransformFunctions/arm_cfft_radix4_f32.c ****         uint16_t fftLen,
 613:.\DSP\Source\TransformFunctions/arm_cfft_radix4_f32.c ****   const float32_t * pCoef,
 614:.\DSP\Source\TransformFunctions/arm_cfft_radix4_f32.c ****         uint16_t twidCoefModifier,
 615:.\DSP\Source\TransformFunctions/arm_cfft_radix4_f32.c ****         float32_t onebyfftLen)
 616:.\DSP\Source\TransformFunctions/arm_cfft_radix4_f32.c **** {
 432              		.loc 1 616 0
 433              		.cfi_startproc
 434              		@ args = 4, pretend = 0, frame = 88
 435              		@ frame_needed = 0, uses_anonymous_args = 0
 436              	.LVL100:
 437 0000 2DE9F04F 		push	{r4, r5, r6, r7, r8, r9, r10, fp, lr}
 438              		.cfi_def_cfa_offset 36
 439              		.cfi_offset 4, -36
 440              		.cfi_offset 5, -32
 441              		.cfi_offset 6, -28
 442              		.cfi_offset 7, -24
 443              		.cfi_offset 8, -20
 444              		.cfi_offset 9, -16
 445              		.cfi_offset 10, -12
 446              		.cfi_offset 11, -8
 447              		.cfi_offset 14, -4
 448 0004 97B0     		sub	sp, sp, #92
 449              		.cfi_def_cfa_offset 128
 450 0006 1492     		str	r2, [sp, #80]
 451 0008 1393     		str	r3, [sp, #76]
 617:.\DSP\Source\TransformFunctions/arm_cfft_radix4_f32.c ****         float32_t co1, co2, co3, si1, si2, si3;
 618:.\DSP\Source\TransformFunctions/arm_cfft_radix4_f32.c ****         uint32_t ia1, ia2, ia3;
 619:.\DSP\Source\TransformFunctions/arm_cfft_radix4_f32.c ****         uint32_t i0, i1, i2, i3;
 620:.\DSP\Source\TransformFunctions/arm_cfft_radix4_f32.c ****         uint32_t n1, n2, j, k;
 621:.\DSP\Source\TransformFunctions/arm_cfft_radix4_f32.c **** 
 622:.\DSP\Source\TransformFunctions/arm_cfft_radix4_f32.c **** #if defined (ARM_MATH_LOOPUNROLL)
 623:.\DSP\Source\TransformFunctions/arm_cfft_radix4_f32.c **** 
 624:.\DSP\Source\TransformFunctions/arm_cfft_radix4_f32.c ****         float32_t xaIn, yaIn, xbIn, ybIn, xcIn, ycIn, xdIn, ydIn;
 625:.\DSP\Source\TransformFunctions/arm_cfft_radix4_f32.c ****         float32_t Xaplusc, Xbplusd, Yaplusc, Ybplusd, Xaminusc, Xbminusd, Yaminusc,
 626:.\DSP\Source\TransformFunctions/arm_cfft_radix4_f32.c ****         Ybminusd;
 627:.\DSP\Source\TransformFunctions/arm_cfft_radix4_f32.c ****         float32_t Xb12C_out, Yb12C_out, Xc12C_out, Yc12C_out, Xd12C_out, Yd12C_out;
ARM GAS  C:\Users\IVYLIU~1\AppData\Local\Temp\ccHWxCbk.s 			page 20


 628:.\DSP\Source\TransformFunctions/arm_cfft_radix4_f32.c ****         float32_t Xb12_out, Yb12_out, Xc12_out, Yc12_out, Xd12_out, Yd12_out;
 629:.\DSP\Source\TransformFunctions/arm_cfft_radix4_f32.c ****         float32_t *ptr1;
 630:.\DSP\Source\TransformFunctions/arm_cfft_radix4_f32.c ****         float32_t p0,p1,p2,p3,p4,p5,p6,p7;
 631:.\DSP\Source\TransformFunctions/arm_cfft_radix4_f32.c ****         float32_t a0,a1,a2,a3,a4,a5,a6,a7;
 632:.\DSP\Source\TransformFunctions/arm_cfft_radix4_f32.c **** 
 633:.\DSP\Source\TransformFunctions/arm_cfft_radix4_f32.c **** 
 634:.\DSP\Source\TransformFunctions/arm_cfft_radix4_f32.c ****    /*  Initializations for the first stage */
 635:.\DSP\Source\TransformFunctions/arm_cfft_radix4_f32.c ****    n2 = fftLen;
 636:.\DSP\Source\TransformFunctions/arm_cfft_radix4_f32.c ****    n1 = n2;
 637:.\DSP\Source\TransformFunctions/arm_cfft_radix4_f32.c **** 
 638:.\DSP\Source\TransformFunctions/arm_cfft_radix4_f32.c ****    /* n2 = fftLen/4 */
 639:.\DSP\Source\TransformFunctions/arm_cfft_radix4_f32.c ****    n2 >>= 2U;
 640:.\DSP\Source\TransformFunctions/arm_cfft_radix4_f32.c ****    i0 = 0U;
 641:.\DSP\Source\TransformFunctions/arm_cfft_radix4_f32.c ****    ia1 = 0U;
 642:.\DSP\Source\TransformFunctions/arm_cfft_radix4_f32.c **** 
 643:.\DSP\Source\TransformFunctions/arm_cfft_radix4_f32.c ****    j = n2;
 644:.\DSP\Source\TransformFunctions/arm_cfft_radix4_f32.c **** 
 645:.\DSP\Source\TransformFunctions/arm_cfft_radix4_f32.c ****    /*  Calculation of first stage */
 646:.\DSP\Source\TransformFunctions/arm_cfft_radix4_f32.c ****    do
 647:.\DSP\Source\TransformFunctions/arm_cfft_radix4_f32.c ****    {
 648:.\DSP\Source\TransformFunctions/arm_cfft_radix4_f32.c ****       /*  index calculation for the input as, */
 649:.\DSP\Source\TransformFunctions/arm_cfft_radix4_f32.c ****       /*  pSrc[i0 + 0], pSrc[i0 + fftLen/4], pSrc[i0 + fftLen/2], pSrc[i0 + 3fftLen/4] */
 650:.\DSP\Source\TransformFunctions/arm_cfft_radix4_f32.c ****       i1 = i0 + n2;
 651:.\DSP\Source\TransformFunctions/arm_cfft_radix4_f32.c ****       i2 = i1 + n2;
 652:.\DSP\Source\TransformFunctions/arm_cfft_radix4_f32.c ****       i3 = i2 + n2;
 653:.\DSP\Source\TransformFunctions/arm_cfft_radix4_f32.c **** 
 654:.\DSP\Source\TransformFunctions/arm_cfft_radix4_f32.c ****       /*  Butterfly implementation */
 655:.\DSP\Source\TransformFunctions/arm_cfft_radix4_f32.c ****       xaIn = pSrc[(2U * i0)];
 656:.\DSP\Source\TransformFunctions/arm_cfft_radix4_f32.c ****       yaIn = pSrc[(2U * i0) + 1U];
 657:.\DSP\Source\TransformFunctions/arm_cfft_radix4_f32.c **** 
 658:.\DSP\Source\TransformFunctions/arm_cfft_radix4_f32.c ****       xcIn = pSrc[(2U * i2)];
 659:.\DSP\Source\TransformFunctions/arm_cfft_radix4_f32.c ****       ycIn = pSrc[(2U * i2) + 1U];
 660:.\DSP\Source\TransformFunctions/arm_cfft_radix4_f32.c **** 
 661:.\DSP\Source\TransformFunctions/arm_cfft_radix4_f32.c ****       xbIn = pSrc[(2U * i1)];
 662:.\DSP\Source\TransformFunctions/arm_cfft_radix4_f32.c ****       ybIn = pSrc[(2U * i1) + 1U];
 663:.\DSP\Source\TransformFunctions/arm_cfft_radix4_f32.c **** 
 664:.\DSP\Source\TransformFunctions/arm_cfft_radix4_f32.c ****       xdIn = pSrc[(2U * i3)];
 665:.\DSP\Source\TransformFunctions/arm_cfft_radix4_f32.c ****       ydIn = pSrc[(2U * i3) + 1U];
 666:.\DSP\Source\TransformFunctions/arm_cfft_radix4_f32.c **** 
 667:.\DSP\Source\TransformFunctions/arm_cfft_radix4_f32.c ****       /* xa + xc */
 668:.\DSP\Source\TransformFunctions/arm_cfft_radix4_f32.c ****       Xaplusc = xaIn + xcIn;
 669:.\DSP\Source\TransformFunctions/arm_cfft_radix4_f32.c ****       /* xb + xd */
 670:.\DSP\Source\TransformFunctions/arm_cfft_radix4_f32.c ****       Xbplusd = xbIn + xdIn;
 671:.\DSP\Source\TransformFunctions/arm_cfft_radix4_f32.c ****       /* ya + yc */
 672:.\DSP\Source\TransformFunctions/arm_cfft_radix4_f32.c ****       Yaplusc = yaIn + ycIn;
 673:.\DSP\Source\TransformFunctions/arm_cfft_radix4_f32.c ****       /* yb + yd */
 674:.\DSP\Source\TransformFunctions/arm_cfft_radix4_f32.c ****       Ybplusd = ybIn + ydIn;
 675:.\DSP\Source\TransformFunctions/arm_cfft_radix4_f32.c **** 
 676:.\DSP\Source\TransformFunctions/arm_cfft_radix4_f32.c ****       /*  index calculation for the coefficients */
 677:.\DSP\Source\TransformFunctions/arm_cfft_radix4_f32.c ****       ia2 = ia1 + ia1;
 678:.\DSP\Source\TransformFunctions/arm_cfft_radix4_f32.c ****       co2 = pCoef[ia2 * 2U];
 679:.\DSP\Source\TransformFunctions/arm_cfft_radix4_f32.c ****       si2 = pCoef[(ia2 * 2U) + 1U];
 680:.\DSP\Source\TransformFunctions/arm_cfft_radix4_f32.c **** 
 681:.\DSP\Source\TransformFunctions/arm_cfft_radix4_f32.c ****       /* xa - xc */
 682:.\DSP\Source\TransformFunctions/arm_cfft_radix4_f32.c ****       Xaminusc = xaIn - xcIn;
 683:.\DSP\Source\TransformFunctions/arm_cfft_radix4_f32.c ****       /* xb - xd */
 684:.\DSP\Source\TransformFunctions/arm_cfft_radix4_f32.c ****       Xbminusd = xbIn - xdIn;
ARM GAS  C:\Users\IVYLIU~1\AppData\Local\Temp\ccHWxCbk.s 			page 21


 685:.\DSP\Source\TransformFunctions/arm_cfft_radix4_f32.c ****       /* ya - yc */
 686:.\DSP\Source\TransformFunctions/arm_cfft_radix4_f32.c ****       Yaminusc = yaIn - ycIn;
 687:.\DSP\Source\TransformFunctions/arm_cfft_radix4_f32.c ****       /* yb - yd */
 688:.\DSP\Source\TransformFunctions/arm_cfft_radix4_f32.c ****       Ybminusd = ybIn - ydIn;
 689:.\DSP\Source\TransformFunctions/arm_cfft_radix4_f32.c **** 
 690:.\DSP\Source\TransformFunctions/arm_cfft_radix4_f32.c ****       /* xa' = xa + xb + xc + xd */
 691:.\DSP\Source\TransformFunctions/arm_cfft_radix4_f32.c ****       pSrc[(2U * i0)] = Xaplusc + Xbplusd;
 692:.\DSP\Source\TransformFunctions/arm_cfft_radix4_f32.c **** 
 693:.\DSP\Source\TransformFunctions/arm_cfft_radix4_f32.c ****       /* ya' = ya + yb + yc + yd */
 694:.\DSP\Source\TransformFunctions/arm_cfft_radix4_f32.c ****       pSrc[(2U * i0) + 1U] = Yaplusc + Ybplusd;
 695:.\DSP\Source\TransformFunctions/arm_cfft_radix4_f32.c **** 
 696:.\DSP\Source\TransformFunctions/arm_cfft_radix4_f32.c ****       /* (xa - xc) - (yb - yd) */
 697:.\DSP\Source\TransformFunctions/arm_cfft_radix4_f32.c ****       Xb12C_out = (Xaminusc - Ybminusd);
 698:.\DSP\Source\TransformFunctions/arm_cfft_radix4_f32.c ****       /* (ya - yc) + (xb - xd) */
 699:.\DSP\Source\TransformFunctions/arm_cfft_radix4_f32.c ****       Yb12C_out = (Yaminusc + Xbminusd);
 700:.\DSP\Source\TransformFunctions/arm_cfft_radix4_f32.c ****       /* (xa + xc) - (xb + xd) */
 701:.\DSP\Source\TransformFunctions/arm_cfft_radix4_f32.c ****       Xc12C_out = (Xaplusc - Xbplusd);
 702:.\DSP\Source\TransformFunctions/arm_cfft_radix4_f32.c ****       /* (ya + yc) - (yb + yd) */
 703:.\DSP\Source\TransformFunctions/arm_cfft_radix4_f32.c ****       Yc12C_out = (Yaplusc - Ybplusd);
 704:.\DSP\Source\TransformFunctions/arm_cfft_radix4_f32.c ****       /* (xa - xc) + (yb - yd) */
 705:.\DSP\Source\TransformFunctions/arm_cfft_radix4_f32.c ****       Xd12C_out = (Xaminusc + Ybminusd);
 706:.\DSP\Source\TransformFunctions/arm_cfft_radix4_f32.c ****       /* (ya - yc) - (xb - xd) */
 707:.\DSP\Source\TransformFunctions/arm_cfft_radix4_f32.c ****       Yd12C_out = (Yaminusc - Xbminusd);
 708:.\DSP\Source\TransformFunctions/arm_cfft_radix4_f32.c **** 
 709:.\DSP\Source\TransformFunctions/arm_cfft_radix4_f32.c ****       co1 = pCoef[ia1 * 2U];
 710:.\DSP\Source\TransformFunctions/arm_cfft_radix4_f32.c ****       si1 = pCoef[(ia1 * 2U) + 1U];
 711:.\DSP\Source\TransformFunctions/arm_cfft_radix4_f32.c **** 
 712:.\DSP\Source\TransformFunctions/arm_cfft_radix4_f32.c ****       /*  index calculation for the coefficients */
 713:.\DSP\Source\TransformFunctions/arm_cfft_radix4_f32.c ****       ia3 = ia2 + ia1;
 714:.\DSP\Source\TransformFunctions/arm_cfft_radix4_f32.c ****       co3 = pCoef[ia3 * 2U];
 715:.\DSP\Source\TransformFunctions/arm_cfft_radix4_f32.c ****       si3 = pCoef[(ia3 * 2U) + 1U];
 716:.\DSP\Source\TransformFunctions/arm_cfft_radix4_f32.c **** 
 717:.\DSP\Source\TransformFunctions/arm_cfft_radix4_f32.c ****       Xb12_out = Xb12C_out * co1;
 718:.\DSP\Source\TransformFunctions/arm_cfft_radix4_f32.c ****       Yb12_out = Yb12C_out * co1;
 719:.\DSP\Source\TransformFunctions/arm_cfft_radix4_f32.c ****       Xc12_out = Xc12C_out * co2;
 720:.\DSP\Source\TransformFunctions/arm_cfft_radix4_f32.c ****       Yc12_out = Yc12C_out * co2;
 721:.\DSP\Source\TransformFunctions/arm_cfft_radix4_f32.c ****       Xd12_out = Xd12C_out * co3;
 722:.\DSP\Source\TransformFunctions/arm_cfft_radix4_f32.c ****       Yd12_out = Yd12C_out * co3;
 723:.\DSP\Source\TransformFunctions/arm_cfft_radix4_f32.c **** 
 724:.\DSP\Source\TransformFunctions/arm_cfft_radix4_f32.c ****       /* xb' = (xa+yb-xc-yd)co1 - (ya-xb-yc+xd)(si1) */
 725:.\DSP\Source\TransformFunctions/arm_cfft_radix4_f32.c ****       //Xb12_out -= Yb12C_out * si1;
 726:.\DSP\Source\TransformFunctions/arm_cfft_radix4_f32.c ****       p0 = Yb12C_out * si1;
 727:.\DSP\Source\TransformFunctions/arm_cfft_radix4_f32.c ****       /* yb' = (ya-xb-yc+xd)co1 + (xa+yb-xc-yd)(si1) */
 728:.\DSP\Source\TransformFunctions/arm_cfft_radix4_f32.c ****       //Yb12_out += Xb12C_out * si1;
 729:.\DSP\Source\TransformFunctions/arm_cfft_radix4_f32.c ****       p1 = Xb12C_out * si1;
 730:.\DSP\Source\TransformFunctions/arm_cfft_radix4_f32.c ****       /* xc' = (xa-xb+xc-xd)co2 - (ya-yb+yc-yd)(si2) */
 731:.\DSP\Source\TransformFunctions/arm_cfft_radix4_f32.c ****       //Xc12_out -= Yc12C_out * si2;
 732:.\DSP\Source\TransformFunctions/arm_cfft_radix4_f32.c ****       p2 = Yc12C_out * si2;
 733:.\DSP\Source\TransformFunctions/arm_cfft_radix4_f32.c ****       /* yc' = (ya-yb+yc-yd)co2 + (xa-xb+xc-xd)(si2) */
 734:.\DSP\Source\TransformFunctions/arm_cfft_radix4_f32.c ****       //Yc12_out += Xc12C_out * si2;
 735:.\DSP\Source\TransformFunctions/arm_cfft_radix4_f32.c ****       p3 = Xc12C_out * si2;
 736:.\DSP\Source\TransformFunctions/arm_cfft_radix4_f32.c ****       /* xd' = (xa-yb-xc+yd)co3 - (ya+xb-yc-xd)(si3) */
 737:.\DSP\Source\TransformFunctions/arm_cfft_radix4_f32.c ****       //Xd12_out -= Yd12C_out * si3;
 738:.\DSP\Source\TransformFunctions/arm_cfft_radix4_f32.c ****       p4 = Yd12C_out * si3;
 739:.\DSP\Source\TransformFunctions/arm_cfft_radix4_f32.c ****       /* yd' = (ya+xb-yc-xd)co3 + (xa-yb-xc+yd)(si3) */
 740:.\DSP\Source\TransformFunctions/arm_cfft_radix4_f32.c ****       //Yd12_out += Xd12C_out * si3;
 741:.\DSP\Source\TransformFunctions/arm_cfft_radix4_f32.c ****       p5 = Xd12C_out * si3;
ARM GAS  C:\Users\IVYLIU~1\AppData\Local\Temp\ccHWxCbk.s 			page 22


 742:.\DSP\Source\TransformFunctions/arm_cfft_radix4_f32.c **** 
 743:.\DSP\Source\TransformFunctions/arm_cfft_radix4_f32.c ****       Xb12_out -= p0;
 744:.\DSP\Source\TransformFunctions/arm_cfft_radix4_f32.c ****       Yb12_out += p1;
 745:.\DSP\Source\TransformFunctions/arm_cfft_radix4_f32.c ****       Xc12_out -= p2;
 746:.\DSP\Source\TransformFunctions/arm_cfft_radix4_f32.c ****       Yc12_out += p3;
 747:.\DSP\Source\TransformFunctions/arm_cfft_radix4_f32.c ****       Xd12_out -= p4;
 748:.\DSP\Source\TransformFunctions/arm_cfft_radix4_f32.c ****       Yd12_out += p5;
 749:.\DSP\Source\TransformFunctions/arm_cfft_radix4_f32.c **** 
 750:.\DSP\Source\TransformFunctions/arm_cfft_radix4_f32.c ****       /* xc' = (xa-xb+xc-xd)co2 - (ya-yb+yc-yd)(si2) */
 751:.\DSP\Source\TransformFunctions/arm_cfft_radix4_f32.c ****       pSrc[2U * i1] = Xc12_out;
 752:.\DSP\Source\TransformFunctions/arm_cfft_radix4_f32.c **** 
 753:.\DSP\Source\TransformFunctions/arm_cfft_radix4_f32.c ****       /* yc' = (ya-yb+yc-yd)co2 + (xa-xb+xc-xd)(si2) */
 754:.\DSP\Source\TransformFunctions/arm_cfft_radix4_f32.c ****       pSrc[(2U * i1) + 1U] = Yc12_out;
 755:.\DSP\Source\TransformFunctions/arm_cfft_radix4_f32.c **** 
 756:.\DSP\Source\TransformFunctions/arm_cfft_radix4_f32.c ****       /* xb' = (xa+yb-xc-yd)co1 - (ya-xb-yc+xd)(si1) */
 757:.\DSP\Source\TransformFunctions/arm_cfft_radix4_f32.c ****       pSrc[2U * i2] = Xb12_out;
 758:.\DSP\Source\TransformFunctions/arm_cfft_radix4_f32.c **** 
 759:.\DSP\Source\TransformFunctions/arm_cfft_radix4_f32.c ****       /* yb' = (ya-xb-yc+xd)co1 + (xa+yb-xc-yd)(si1) */
 760:.\DSP\Source\TransformFunctions/arm_cfft_radix4_f32.c ****       pSrc[(2U * i2) + 1U] = Yb12_out;
 761:.\DSP\Source\TransformFunctions/arm_cfft_radix4_f32.c **** 
 762:.\DSP\Source\TransformFunctions/arm_cfft_radix4_f32.c ****       /* xd' = (xa-yb-xc+yd)co3 - (ya+xb-yc-xd)(si3) */
 763:.\DSP\Source\TransformFunctions/arm_cfft_radix4_f32.c ****       pSrc[2U * i3] = Xd12_out;
 764:.\DSP\Source\TransformFunctions/arm_cfft_radix4_f32.c **** 
 765:.\DSP\Source\TransformFunctions/arm_cfft_radix4_f32.c ****       /* yd' = (ya+xb-yc-xd)co3 + (xa-yb-xc+yd)(si3) */
 766:.\DSP\Source\TransformFunctions/arm_cfft_radix4_f32.c ****       pSrc[(2U * i3) + 1U] = Yd12_out;
 767:.\DSP\Source\TransformFunctions/arm_cfft_radix4_f32.c **** 
 768:.\DSP\Source\TransformFunctions/arm_cfft_radix4_f32.c ****       /*  Twiddle coefficients index modifier */
 769:.\DSP\Source\TransformFunctions/arm_cfft_radix4_f32.c ****       ia1 = ia1 + twidCoefModifier;
 770:.\DSP\Source\TransformFunctions/arm_cfft_radix4_f32.c **** 
 771:.\DSP\Source\TransformFunctions/arm_cfft_radix4_f32.c ****       /*  Updating input index */
 772:.\DSP\Source\TransformFunctions/arm_cfft_radix4_f32.c ****       i0 = i0 + 1U;
 773:.\DSP\Source\TransformFunctions/arm_cfft_radix4_f32.c **** 
 774:.\DSP\Source\TransformFunctions/arm_cfft_radix4_f32.c ****    } while (--j);
 775:.\DSP\Source\TransformFunctions/arm_cfft_radix4_f32.c **** 
 776:.\DSP\Source\TransformFunctions/arm_cfft_radix4_f32.c ****    twidCoefModifier <<= 2U;
 777:.\DSP\Source\TransformFunctions/arm_cfft_radix4_f32.c **** 
 778:.\DSP\Source\TransformFunctions/arm_cfft_radix4_f32.c ****    /*  Calculation of second stage to excluding last stage */
 779:.\DSP\Source\TransformFunctions/arm_cfft_radix4_f32.c ****    for (k = fftLen >> 2U; k > 4U; k >>= 2U)
 780:.\DSP\Source\TransformFunctions/arm_cfft_radix4_f32.c ****    {
 781:.\DSP\Source\TransformFunctions/arm_cfft_radix4_f32.c ****       /*  Initializations for the first stage */
 782:.\DSP\Source\TransformFunctions/arm_cfft_radix4_f32.c ****       n1 = n2;
 783:.\DSP\Source\TransformFunctions/arm_cfft_radix4_f32.c ****       n2 >>= 2U;
 784:.\DSP\Source\TransformFunctions/arm_cfft_radix4_f32.c ****       ia1 = 0U;
 785:.\DSP\Source\TransformFunctions/arm_cfft_radix4_f32.c **** 
 786:.\DSP\Source\TransformFunctions/arm_cfft_radix4_f32.c ****       /*  Calculation of first stage */
 787:.\DSP\Source\TransformFunctions/arm_cfft_radix4_f32.c ****       j = 0;
 788:.\DSP\Source\TransformFunctions/arm_cfft_radix4_f32.c ****       do
 789:.\DSP\Source\TransformFunctions/arm_cfft_radix4_f32.c ****       {
 790:.\DSP\Source\TransformFunctions/arm_cfft_radix4_f32.c ****          /*  index calculation for the coefficients */
 791:.\DSP\Source\TransformFunctions/arm_cfft_radix4_f32.c ****          ia2 = ia1 + ia1;
 792:.\DSP\Source\TransformFunctions/arm_cfft_radix4_f32.c ****          ia3 = ia2 + ia1;
 793:.\DSP\Source\TransformFunctions/arm_cfft_radix4_f32.c ****          co1 = pCoef[ia1 * 2U];
 794:.\DSP\Source\TransformFunctions/arm_cfft_radix4_f32.c ****          si1 = pCoef[(ia1 * 2U) + 1U];
 795:.\DSP\Source\TransformFunctions/arm_cfft_radix4_f32.c ****          co2 = pCoef[ia2 * 2U];
 796:.\DSP\Source\TransformFunctions/arm_cfft_radix4_f32.c ****          si2 = pCoef[(ia2 * 2U) + 1U];
 797:.\DSP\Source\TransformFunctions/arm_cfft_radix4_f32.c ****          co3 = pCoef[ia3 * 2U];
 798:.\DSP\Source\TransformFunctions/arm_cfft_radix4_f32.c ****          si3 = pCoef[(ia3 * 2U) + 1U];
ARM GAS  C:\Users\IVYLIU~1\AppData\Local\Temp\ccHWxCbk.s 			page 23


 799:.\DSP\Source\TransformFunctions/arm_cfft_radix4_f32.c **** 
 800:.\DSP\Source\TransformFunctions/arm_cfft_radix4_f32.c ****          /*  Twiddle coefficients index modifier */
 801:.\DSP\Source\TransformFunctions/arm_cfft_radix4_f32.c ****          ia1 = ia1 + twidCoefModifier;
 802:.\DSP\Source\TransformFunctions/arm_cfft_radix4_f32.c **** 
 803:.\DSP\Source\TransformFunctions/arm_cfft_radix4_f32.c ****          i0 = j;
 804:.\DSP\Source\TransformFunctions/arm_cfft_radix4_f32.c ****          do
 805:.\DSP\Source\TransformFunctions/arm_cfft_radix4_f32.c ****          {
 806:.\DSP\Source\TransformFunctions/arm_cfft_radix4_f32.c ****             /*  index calculation for the input as, */
 807:.\DSP\Source\TransformFunctions/arm_cfft_radix4_f32.c ****             /*  pSrc[i0 + 0], pSrc[i0 + fftLen/4], pSrc[i0 + fftLen/2], pSrc[i0 + 3fftLen/4] */
 808:.\DSP\Source\TransformFunctions/arm_cfft_radix4_f32.c ****             i1 = i0 + n2;
 809:.\DSP\Source\TransformFunctions/arm_cfft_radix4_f32.c ****             i2 = i1 + n2;
 810:.\DSP\Source\TransformFunctions/arm_cfft_radix4_f32.c ****             i3 = i2 + n2;
 811:.\DSP\Source\TransformFunctions/arm_cfft_radix4_f32.c **** 
 812:.\DSP\Source\TransformFunctions/arm_cfft_radix4_f32.c ****             xaIn = pSrc[(2U * i0)];
 813:.\DSP\Source\TransformFunctions/arm_cfft_radix4_f32.c ****             yaIn = pSrc[(2U * i0) + 1U];
 814:.\DSP\Source\TransformFunctions/arm_cfft_radix4_f32.c **** 
 815:.\DSP\Source\TransformFunctions/arm_cfft_radix4_f32.c ****             xbIn = pSrc[(2U * i1)];
 816:.\DSP\Source\TransformFunctions/arm_cfft_radix4_f32.c ****             ybIn = pSrc[(2U * i1) + 1U];
 817:.\DSP\Source\TransformFunctions/arm_cfft_radix4_f32.c **** 
 818:.\DSP\Source\TransformFunctions/arm_cfft_radix4_f32.c ****             xcIn = pSrc[(2U * i2)];
 819:.\DSP\Source\TransformFunctions/arm_cfft_radix4_f32.c ****             ycIn = pSrc[(2U * i2) + 1U];
 820:.\DSP\Source\TransformFunctions/arm_cfft_radix4_f32.c **** 
 821:.\DSP\Source\TransformFunctions/arm_cfft_radix4_f32.c ****             xdIn = pSrc[(2U * i3)];
 822:.\DSP\Source\TransformFunctions/arm_cfft_radix4_f32.c ****             ydIn = pSrc[(2U * i3) + 1U];
 823:.\DSP\Source\TransformFunctions/arm_cfft_radix4_f32.c **** 
 824:.\DSP\Source\TransformFunctions/arm_cfft_radix4_f32.c ****             /* xa - xc */
 825:.\DSP\Source\TransformFunctions/arm_cfft_radix4_f32.c ****             Xaminusc = xaIn - xcIn;
 826:.\DSP\Source\TransformFunctions/arm_cfft_radix4_f32.c ****             /* (xb - xd) */
 827:.\DSP\Source\TransformFunctions/arm_cfft_radix4_f32.c ****             Xbminusd = xbIn - xdIn;
 828:.\DSP\Source\TransformFunctions/arm_cfft_radix4_f32.c ****             /* ya - yc */
 829:.\DSP\Source\TransformFunctions/arm_cfft_radix4_f32.c ****             Yaminusc = yaIn - ycIn;
 830:.\DSP\Source\TransformFunctions/arm_cfft_radix4_f32.c ****             /* (yb - yd) */
 831:.\DSP\Source\TransformFunctions/arm_cfft_radix4_f32.c ****             Ybminusd = ybIn - ydIn;
 832:.\DSP\Source\TransformFunctions/arm_cfft_radix4_f32.c **** 
 833:.\DSP\Source\TransformFunctions/arm_cfft_radix4_f32.c ****             /* xa + xc */
 834:.\DSP\Source\TransformFunctions/arm_cfft_radix4_f32.c ****             Xaplusc = xaIn + xcIn;
 835:.\DSP\Source\TransformFunctions/arm_cfft_radix4_f32.c ****             /* xb + xd */
 836:.\DSP\Source\TransformFunctions/arm_cfft_radix4_f32.c ****             Xbplusd = xbIn + xdIn;
 837:.\DSP\Source\TransformFunctions/arm_cfft_radix4_f32.c ****             /* ya + yc */
 838:.\DSP\Source\TransformFunctions/arm_cfft_radix4_f32.c ****             Yaplusc = yaIn + ycIn;
 839:.\DSP\Source\TransformFunctions/arm_cfft_radix4_f32.c ****             /* yb + yd */
 840:.\DSP\Source\TransformFunctions/arm_cfft_radix4_f32.c ****             Ybplusd = ybIn + ydIn;
 841:.\DSP\Source\TransformFunctions/arm_cfft_radix4_f32.c **** 
 842:.\DSP\Source\TransformFunctions/arm_cfft_radix4_f32.c ****             /* (xa - xc) - (yb - yd) */
 843:.\DSP\Source\TransformFunctions/arm_cfft_radix4_f32.c ****             Xb12C_out = (Xaminusc - Ybminusd);
 844:.\DSP\Source\TransformFunctions/arm_cfft_radix4_f32.c ****             /* (ya - yc) +  (xb - xd) */
 845:.\DSP\Source\TransformFunctions/arm_cfft_radix4_f32.c ****             Yb12C_out = (Yaminusc + Xbminusd);
 846:.\DSP\Source\TransformFunctions/arm_cfft_radix4_f32.c ****             /* xa + xc -(xb + xd) */
 847:.\DSP\Source\TransformFunctions/arm_cfft_radix4_f32.c ****             Xc12C_out = (Xaplusc - Xbplusd);
 848:.\DSP\Source\TransformFunctions/arm_cfft_radix4_f32.c ****             /* (ya + yc) - (yb + yd) */
 849:.\DSP\Source\TransformFunctions/arm_cfft_radix4_f32.c ****             Yc12C_out = (Yaplusc - Ybplusd);
 850:.\DSP\Source\TransformFunctions/arm_cfft_radix4_f32.c ****             /* (xa - xc) + (yb - yd) */
 851:.\DSP\Source\TransformFunctions/arm_cfft_radix4_f32.c ****             Xd12C_out = (Xaminusc + Ybminusd);
 852:.\DSP\Source\TransformFunctions/arm_cfft_radix4_f32.c ****             /* (ya - yc) -  (xb - xd) */
 853:.\DSP\Source\TransformFunctions/arm_cfft_radix4_f32.c ****             Yd12C_out = (Yaminusc - Xbminusd);
 854:.\DSP\Source\TransformFunctions/arm_cfft_radix4_f32.c **** 
 855:.\DSP\Source\TransformFunctions/arm_cfft_radix4_f32.c ****             pSrc[(2U * i0)] = Xaplusc + Xbplusd;
ARM GAS  C:\Users\IVYLIU~1\AppData\Local\Temp\ccHWxCbk.s 			page 24


 856:.\DSP\Source\TransformFunctions/arm_cfft_radix4_f32.c ****             pSrc[(2U * i0) + 1U] = Yaplusc + Ybplusd;
 857:.\DSP\Source\TransformFunctions/arm_cfft_radix4_f32.c **** 
 858:.\DSP\Source\TransformFunctions/arm_cfft_radix4_f32.c ****             Xb12_out = Xb12C_out * co1;
 859:.\DSP\Source\TransformFunctions/arm_cfft_radix4_f32.c ****             Yb12_out = Yb12C_out * co1;
 860:.\DSP\Source\TransformFunctions/arm_cfft_radix4_f32.c ****             Xc12_out = Xc12C_out * co2;
 861:.\DSP\Source\TransformFunctions/arm_cfft_radix4_f32.c ****             Yc12_out = Yc12C_out * co2;
 862:.\DSP\Source\TransformFunctions/arm_cfft_radix4_f32.c ****             Xd12_out = Xd12C_out * co3;
 863:.\DSP\Source\TransformFunctions/arm_cfft_radix4_f32.c ****             Yd12_out = Yd12C_out * co3;
 864:.\DSP\Source\TransformFunctions/arm_cfft_radix4_f32.c **** 
 865:.\DSP\Source\TransformFunctions/arm_cfft_radix4_f32.c ****             /* xb' = (xa+yb-xc-yd)co1 - (ya-xb-yc+xd)(si1) */
 866:.\DSP\Source\TransformFunctions/arm_cfft_radix4_f32.c ****             //Xb12_out -= Yb12C_out * si1;
 867:.\DSP\Source\TransformFunctions/arm_cfft_radix4_f32.c ****             p0 = Yb12C_out * si1;
 868:.\DSP\Source\TransformFunctions/arm_cfft_radix4_f32.c ****             /* yb' = (ya-xb-yc+xd)co1 + (xa+yb-xc-yd)(si1) */
 869:.\DSP\Source\TransformFunctions/arm_cfft_radix4_f32.c ****             //Yb12_out += Xb12C_out * si1;
 870:.\DSP\Source\TransformFunctions/arm_cfft_radix4_f32.c ****             p1 = Xb12C_out * si1;
 871:.\DSP\Source\TransformFunctions/arm_cfft_radix4_f32.c ****             /* xc' = (xa-xb+xc-xd)co2 - (ya-yb+yc-yd)(si2) */
 872:.\DSP\Source\TransformFunctions/arm_cfft_radix4_f32.c ****             //Xc12_out -= Yc12C_out * si2;
 873:.\DSP\Source\TransformFunctions/arm_cfft_radix4_f32.c ****             p2 = Yc12C_out * si2;
 874:.\DSP\Source\TransformFunctions/arm_cfft_radix4_f32.c ****             /* yc' = (ya-yb+yc-yd)co2 + (xa-xb+xc-xd)(si2) */
 875:.\DSP\Source\TransformFunctions/arm_cfft_radix4_f32.c ****             //Yc12_out += Xc12C_out * si2;
 876:.\DSP\Source\TransformFunctions/arm_cfft_radix4_f32.c ****             p3 = Xc12C_out * si2;
 877:.\DSP\Source\TransformFunctions/arm_cfft_radix4_f32.c ****             /* xd' = (xa-yb-xc+yd)co3 - (ya+xb-yc-xd)(si3) */
 878:.\DSP\Source\TransformFunctions/arm_cfft_radix4_f32.c ****             //Xd12_out -= Yd12C_out * si3;
 879:.\DSP\Source\TransformFunctions/arm_cfft_radix4_f32.c ****             p4 = Yd12C_out * si3;
 880:.\DSP\Source\TransformFunctions/arm_cfft_radix4_f32.c ****             /* yd' = (ya+xb-yc-xd)co3 + (xa-yb-xc+yd)(si3) */
 881:.\DSP\Source\TransformFunctions/arm_cfft_radix4_f32.c ****             //Yd12_out += Xd12C_out * si3;
 882:.\DSP\Source\TransformFunctions/arm_cfft_radix4_f32.c ****             p5 = Xd12C_out * si3;
 883:.\DSP\Source\TransformFunctions/arm_cfft_radix4_f32.c **** 
 884:.\DSP\Source\TransformFunctions/arm_cfft_radix4_f32.c ****             Xb12_out -= p0;
 885:.\DSP\Source\TransformFunctions/arm_cfft_radix4_f32.c ****             Yb12_out += p1;
 886:.\DSP\Source\TransformFunctions/arm_cfft_radix4_f32.c ****             Xc12_out -= p2;
 887:.\DSP\Source\TransformFunctions/arm_cfft_radix4_f32.c ****             Yc12_out += p3;
 888:.\DSP\Source\TransformFunctions/arm_cfft_radix4_f32.c ****             Xd12_out -= p4;
 889:.\DSP\Source\TransformFunctions/arm_cfft_radix4_f32.c ****             Yd12_out += p5;
 890:.\DSP\Source\TransformFunctions/arm_cfft_radix4_f32.c **** 
 891:.\DSP\Source\TransformFunctions/arm_cfft_radix4_f32.c ****             /* xc' = (xa-xb+xc-xd)co2 - (ya-yb+yc-yd)(si2) */
 892:.\DSP\Source\TransformFunctions/arm_cfft_radix4_f32.c ****             pSrc[2U * i1] = Xc12_out;
 893:.\DSP\Source\TransformFunctions/arm_cfft_radix4_f32.c **** 
 894:.\DSP\Source\TransformFunctions/arm_cfft_radix4_f32.c ****             /* yc' = (ya-yb+yc-yd)co2 + (xa-xb+xc-xd)(si2) */
 895:.\DSP\Source\TransformFunctions/arm_cfft_radix4_f32.c ****             pSrc[(2U * i1) + 1U] = Yc12_out;
 896:.\DSP\Source\TransformFunctions/arm_cfft_radix4_f32.c **** 
 897:.\DSP\Source\TransformFunctions/arm_cfft_radix4_f32.c ****             /* xb' = (xa+yb-xc-yd)co1 - (ya-xb-yc+xd)(si1) */
 898:.\DSP\Source\TransformFunctions/arm_cfft_radix4_f32.c ****             pSrc[2U * i2] = Xb12_out;
 899:.\DSP\Source\TransformFunctions/arm_cfft_radix4_f32.c **** 
 900:.\DSP\Source\TransformFunctions/arm_cfft_radix4_f32.c ****             /* yb' = (ya-xb-yc+xd)co1 + (xa+yb-xc-yd)(si1) */
 901:.\DSP\Source\TransformFunctions/arm_cfft_radix4_f32.c ****             pSrc[(2U * i2) + 1U] = Yb12_out;
 902:.\DSP\Source\TransformFunctions/arm_cfft_radix4_f32.c **** 
 903:.\DSP\Source\TransformFunctions/arm_cfft_radix4_f32.c ****             /* xd' = (xa-yb-xc+yd)co3 - (ya+xb-yc-xd)(si3) */
 904:.\DSP\Source\TransformFunctions/arm_cfft_radix4_f32.c ****             pSrc[2U * i3] = Xd12_out;
 905:.\DSP\Source\TransformFunctions/arm_cfft_radix4_f32.c **** 
 906:.\DSP\Source\TransformFunctions/arm_cfft_radix4_f32.c ****             /* yd' = (ya+xb-yc-xd)co3 + (xa-yb-xc+yd)(si3) */
 907:.\DSP\Source\TransformFunctions/arm_cfft_radix4_f32.c ****             pSrc[(2U * i3) + 1U] = Yd12_out;
 908:.\DSP\Source\TransformFunctions/arm_cfft_radix4_f32.c **** 
 909:.\DSP\Source\TransformFunctions/arm_cfft_radix4_f32.c ****             i0 += n1;
 910:.\DSP\Source\TransformFunctions/arm_cfft_radix4_f32.c ****          } while (i0 < fftLen);
 911:.\DSP\Source\TransformFunctions/arm_cfft_radix4_f32.c ****          j++;
 912:.\DSP\Source\TransformFunctions/arm_cfft_radix4_f32.c ****       } while (j <= (n2 - 1U));
ARM GAS  C:\Users\IVYLIU~1\AppData\Local\Temp\ccHWxCbk.s 			page 25


 913:.\DSP\Source\TransformFunctions/arm_cfft_radix4_f32.c ****       twidCoefModifier <<= 2U;
 914:.\DSP\Source\TransformFunctions/arm_cfft_radix4_f32.c ****    }
 915:.\DSP\Source\TransformFunctions/arm_cfft_radix4_f32.c ****    /*  Initializations of last stage */
 916:.\DSP\Source\TransformFunctions/arm_cfft_radix4_f32.c **** 
 917:.\DSP\Source\TransformFunctions/arm_cfft_radix4_f32.c ****    j = fftLen >> 2;
 918:.\DSP\Source\TransformFunctions/arm_cfft_radix4_f32.c ****    ptr1 = &pSrc[0];
 919:.\DSP\Source\TransformFunctions/arm_cfft_radix4_f32.c **** 
 920:.\DSP\Source\TransformFunctions/arm_cfft_radix4_f32.c ****    /*  Calculations of last stage */
 921:.\DSP\Source\TransformFunctions/arm_cfft_radix4_f32.c ****    do
 922:.\DSP\Source\TransformFunctions/arm_cfft_radix4_f32.c ****    {
 923:.\DSP\Source\TransformFunctions/arm_cfft_radix4_f32.c ****       xaIn = ptr1[0];
 924:.\DSP\Source\TransformFunctions/arm_cfft_radix4_f32.c ****       yaIn = ptr1[1];
 925:.\DSP\Source\TransformFunctions/arm_cfft_radix4_f32.c ****       xbIn = ptr1[2];
 926:.\DSP\Source\TransformFunctions/arm_cfft_radix4_f32.c ****       ybIn = ptr1[3];
 927:.\DSP\Source\TransformFunctions/arm_cfft_radix4_f32.c ****       xcIn = ptr1[4];
 928:.\DSP\Source\TransformFunctions/arm_cfft_radix4_f32.c ****       ycIn = ptr1[5];
 929:.\DSP\Source\TransformFunctions/arm_cfft_radix4_f32.c ****       xdIn = ptr1[6];
 930:.\DSP\Source\TransformFunctions/arm_cfft_radix4_f32.c ****       ydIn = ptr1[7];
 931:.\DSP\Source\TransformFunctions/arm_cfft_radix4_f32.c **** 
 932:.\DSP\Source\TransformFunctions/arm_cfft_radix4_f32.c ****       /*  Butterfly implementation */
 933:.\DSP\Source\TransformFunctions/arm_cfft_radix4_f32.c ****       /* xa + xc */
 934:.\DSP\Source\TransformFunctions/arm_cfft_radix4_f32.c ****       Xaplusc = xaIn + xcIn;
 935:.\DSP\Source\TransformFunctions/arm_cfft_radix4_f32.c **** 
 936:.\DSP\Source\TransformFunctions/arm_cfft_radix4_f32.c ****       /* xa - xc */
 937:.\DSP\Source\TransformFunctions/arm_cfft_radix4_f32.c ****       Xaminusc = xaIn - xcIn;
 938:.\DSP\Source\TransformFunctions/arm_cfft_radix4_f32.c **** 
 939:.\DSP\Source\TransformFunctions/arm_cfft_radix4_f32.c ****       /* ya + yc */
 940:.\DSP\Source\TransformFunctions/arm_cfft_radix4_f32.c ****       Yaplusc = yaIn + ycIn;
 941:.\DSP\Source\TransformFunctions/arm_cfft_radix4_f32.c **** 
 942:.\DSP\Source\TransformFunctions/arm_cfft_radix4_f32.c ****       /* ya - yc */
 943:.\DSP\Source\TransformFunctions/arm_cfft_radix4_f32.c ****       Yaminusc = yaIn - ycIn;
 944:.\DSP\Source\TransformFunctions/arm_cfft_radix4_f32.c **** 
 945:.\DSP\Source\TransformFunctions/arm_cfft_radix4_f32.c ****       /* xb + xd */
 946:.\DSP\Source\TransformFunctions/arm_cfft_radix4_f32.c ****       Xbplusd = xbIn + xdIn;
 947:.\DSP\Source\TransformFunctions/arm_cfft_radix4_f32.c **** 
 948:.\DSP\Source\TransformFunctions/arm_cfft_radix4_f32.c ****       /* yb + yd */
 949:.\DSP\Source\TransformFunctions/arm_cfft_radix4_f32.c ****       Ybplusd = ybIn + ydIn;
 950:.\DSP\Source\TransformFunctions/arm_cfft_radix4_f32.c **** 
 951:.\DSP\Source\TransformFunctions/arm_cfft_radix4_f32.c ****       /* (xb-xd) */
 952:.\DSP\Source\TransformFunctions/arm_cfft_radix4_f32.c ****       Xbminusd = xbIn - xdIn;
 953:.\DSP\Source\TransformFunctions/arm_cfft_radix4_f32.c **** 
 954:.\DSP\Source\TransformFunctions/arm_cfft_radix4_f32.c ****       /* (yb-yd) */
 955:.\DSP\Source\TransformFunctions/arm_cfft_radix4_f32.c ****       Ybminusd = ybIn - ydIn;
 956:.\DSP\Source\TransformFunctions/arm_cfft_radix4_f32.c **** 
 957:.\DSP\Source\TransformFunctions/arm_cfft_radix4_f32.c ****       /* xa' = (xa+xb+xc+xd) * onebyfftLen */
 958:.\DSP\Source\TransformFunctions/arm_cfft_radix4_f32.c ****       a0 = (Xaplusc + Xbplusd);
 959:.\DSP\Source\TransformFunctions/arm_cfft_radix4_f32.c ****       /* ya' = (ya+yb+yc+yd) * onebyfftLen */
 960:.\DSP\Source\TransformFunctions/arm_cfft_radix4_f32.c ****       a1 = (Yaplusc + Ybplusd);
 961:.\DSP\Source\TransformFunctions/arm_cfft_radix4_f32.c ****       /* xc' = (xa-xb+xc-xd) * onebyfftLen */
 962:.\DSP\Source\TransformFunctions/arm_cfft_radix4_f32.c ****       a2 = (Xaplusc - Xbplusd);
 963:.\DSP\Source\TransformFunctions/arm_cfft_radix4_f32.c ****       /* yc' = (ya-yb+yc-yd) * onebyfftLen  */
 964:.\DSP\Source\TransformFunctions/arm_cfft_radix4_f32.c ****       a3 = (Yaplusc - Ybplusd);
 965:.\DSP\Source\TransformFunctions/arm_cfft_radix4_f32.c ****       /* xb' = (xa-yb-xc+yd) * onebyfftLen */
 966:.\DSP\Source\TransformFunctions/arm_cfft_radix4_f32.c ****       a4 = (Xaminusc - Ybminusd);
 967:.\DSP\Source\TransformFunctions/arm_cfft_radix4_f32.c ****       /* yb' = (ya+xb-yc-xd) * onebyfftLen */
 968:.\DSP\Source\TransformFunctions/arm_cfft_radix4_f32.c ****       a5 = (Yaminusc + Xbminusd);
 969:.\DSP\Source\TransformFunctions/arm_cfft_radix4_f32.c ****       /* xd' = (xa-yb-xc+yd) * onebyfftLen */
ARM GAS  C:\Users\IVYLIU~1\AppData\Local\Temp\ccHWxCbk.s 			page 26


 970:.\DSP\Source\TransformFunctions/arm_cfft_radix4_f32.c ****       a6 = (Xaminusc + Ybminusd);
 971:.\DSP\Source\TransformFunctions/arm_cfft_radix4_f32.c ****       /* yd' = (ya-xb-yc+xd) * onebyfftLen */
 972:.\DSP\Source\TransformFunctions/arm_cfft_radix4_f32.c ****       a7 = (Yaminusc - Xbminusd);
 973:.\DSP\Source\TransformFunctions/arm_cfft_radix4_f32.c **** 
 974:.\DSP\Source\TransformFunctions/arm_cfft_radix4_f32.c ****       p0 = a0 * onebyfftLen;
 975:.\DSP\Source\TransformFunctions/arm_cfft_radix4_f32.c ****       p1 = a1 * onebyfftLen;
 976:.\DSP\Source\TransformFunctions/arm_cfft_radix4_f32.c ****       p2 = a2 * onebyfftLen;
 977:.\DSP\Source\TransformFunctions/arm_cfft_radix4_f32.c ****       p3 = a3 * onebyfftLen;
 978:.\DSP\Source\TransformFunctions/arm_cfft_radix4_f32.c ****       p4 = a4 * onebyfftLen;
 979:.\DSP\Source\TransformFunctions/arm_cfft_radix4_f32.c ****       p5 = a5 * onebyfftLen;
 980:.\DSP\Source\TransformFunctions/arm_cfft_radix4_f32.c ****       p6 = a6 * onebyfftLen;
 981:.\DSP\Source\TransformFunctions/arm_cfft_radix4_f32.c ****       p7 = a7 * onebyfftLen;
 982:.\DSP\Source\TransformFunctions/arm_cfft_radix4_f32.c **** 
 983:.\DSP\Source\TransformFunctions/arm_cfft_radix4_f32.c ****       /* xa' = (xa+xb+xc+xd) * onebyfftLen */
 984:.\DSP\Source\TransformFunctions/arm_cfft_radix4_f32.c ****       ptr1[0] = p0;
 985:.\DSP\Source\TransformFunctions/arm_cfft_radix4_f32.c ****       /* ya' = (ya+yb+yc+yd) * onebyfftLen */
 986:.\DSP\Source\TransformFunctions/arm_cfft_radix4_f32.c ****       ptr1[1] = p1;
 987:.\DSP\Source\TransformFunctions/arm_cfft_radix4_f32.c ****       /* xc' = (xa-xb+xc-xd) * onebyfftLen */
 988:.\DSP\Source\TransformFunctions/arm_cfft_radix4_f32.c ****       ptr1[2] = p2;
 989:.\DSP\Source\TransformFunctions/arm_cfft_radix4_f32.c ****       /* yc' = (ya-yb+yc-yd) * onebyfftLen  */
 990:.\DSP\Source\TransformFunctions/arm_cfft_radix4_f32.c ****       ptr1[3] = p3;
 991:.\DSP\Source\TransformFunctions/arm_cfft_radix4_f32.c ****       /* xb' = (xa-yb-xc+yd) * onebyfftLen */
 992:.\DSP\Source\TransformFunctions/arm_cfft_radix4_f32.c ****       ptr1[4] = p4;
 993:.\DSP\Source\TransformFunctions/arm_cfft_radix4_f32.c ****       /* yb' = (ya+xb-yc-xd) * onebyfftLen */
 994:.\DSP\Source\TransformFunctions/arm_cfft_radix4_f32.c ****       ptr1[5] = p5;
 995:.\DSP\Source\TransformFunctions/arm_cfft_radix4_f32.c ****       /* xd' = (xa-yb-xc+yd) * onebyfftLen */
 996:.\DSP\Source\TransformFunctions/arm_cfft_radix4_f32.c ****       ptr1[6] = p6;
 997:.\DSP\Source\TransformFunctions/arm_cfft_radix4_f32.c ****       /* yd' = (ya-xb-yc+xd) * onebyfftLen */
 998:.\DSP\Source\TransformFunctions/arm_cfft_radix4_f32.c ****       ptr1[7] = p7;
 999:.\DSP\Source\TransformFunctions/arm_cfft_radix4_f32.c **** 
1000:.\DSP\Source\TransformFunctions/arm_cfft_radix4_f32.c ****       /* increment source pointer by 8 for next calculations */
1001:.\DSP\Source\TransformFunctions/arm_cfft_radix4_f32.c ****       ptr1 = ptr1 + 8U;
1002:.\DSP\Source\TransformFunctions/arm_cfft_radix4_f32.c **** 
1003:.\DSP\Source\TransformFunctions/arm_cfft_radix4_f32.c ****    } while (--j);
1004:.\DSP\Source\TransformFunctions/arm_cfft_radix4_f32.c **** 
1005:.\DSP\Source\TransformFunctions/arm_cfft_radix4_f32.c **** #else
1006:.\DSP\Source\TransformFunctions/arm_cfft_radix4_f32.c **** 
1007:.\DSP\Source\TransformFunctions/arm_cfft_radix4_f32.c ****         float32_t t1, t2, r1, r2, s1, s2;
1008:.\DSP\Source\TransformFunctions/arm_cfft_radix4_f32.c **** 
1009:.\DSP\Source\TransformFunctions/arm_cfft_radix4_f32.c ****    /*  Initializations for the first stage */
1010:.\DSP\Source\TransformFunctions/arm_cfft_radix4_f32.c ****    n2 = fftLen;
 452              		.loc 1 1010 0
 453 000a 1091     		str	r1, [sp, #64]
 454              	.LVL101:
1011:.\DSP\Source\TransformFunctions/arm_cfft_radix4_f32.c ****    n1 = n2;
1012:.\DSP\Source\TransformFunctions/arm_cfft_radix4_f32.c **** 
1013:.\DSP\Source\TransformFunctions/arm_cfft_radix4_f32.c ****    /*  Calculation of first stage */
1014:.\DSP\Source\TransformFunctions/arm_cfft_radix4_f32.c ****    for (k = fftLen; k > 4U; k >>= 2U)
 455              		.loc 1 1014 0
 456 000c 1591     		str	r1, [sp, #84]
1010:.\DSP\Source\TransformFunctions/arm_cfft_radix4_f32.c ****    n1 = n2;
 457              		.loc 1 1010 0
 458 000e 0F91     		str	r1, [sp, #60]
 459 0010 8046     		mov	r8, r0
 460              		.loc 1 1014 0
 461 0012 11E1     		b	.L8
 462              	.LVL102:
ARM GAS  C:\Users\IVYLIU~1\AppData\Local\Temp\ccHWxCbk.s 			page 27


 463              	.L11:
1015:.\DSP\Source\TransformFunctions/arm_cfft_radix4_f32.c ****    {
1016:.\DSP\Source\TransformFunctions/arm_cfft_radix4_f32.c ****       /*  Initializations for the first stage */
1017:.\DSP\Source\TransformFunctions/arm_cfft_radix4_f32.c ****       n1 = n2;
1018:.\DSP\Source\TransformFunctions/arm_cfft_radix4_f32.c ****       n2 >>= 2U;
 464              		.loc 1 1018 0
 465 0014 0F9B     		ldr	r3, [sp, #60]
 466              	.LVL103:
 467 0016 9B08     		lsrs	r3, r3, #2
 468 0018 0D93     		str	r3, [sp, #52]
 469              	.LVL104:
1019:.\DSP\Source\TransformFunctions/arm_cfft_radix4_f32.c ****       ia1 = 0U;
1020:.\DSP\Source\TransformFunctions/arm_cfft_radix4_f32.c **** 
1021:.\DSP\Source\TransformFunctions/arm_cfft_radix4_f32.c ****       /*  Calculation of first stage */
1022:.\DSP\Source\TransformFunctions/arm_cfft_radix4_f32.c ****       j = 0;
 470              		.loc 1 1022 0
 471 001a 0023     		movs	r3, #0
 472              	.LVL105:
 473 001c 1193     		str	r3, [sp, #68]
1019:.\DSP\Source\TransformFunctions/arm_cfft_radix4_f32.c ****       ia1 = 0U;
 474              		.loc 1 1019 0
 475 001e 1293     		str	r3, [sp, #72]
 476 0020 C346     		mov	fp, r8
 477              	.LVL106:
 478              	.L10:
1023:.\DSP\Source\TransformFunctions/arm_cfft_radix4_f32.c ****       do
1024:.\DSP\Source\TransformFunctions/arm_cfft_radix4_f32.c ****       {
1025:.\DSP\Source\TransformFunctions/arm_cfft_radix4_f32.c ****          /*  index calculation for the coefficients */
1026:.\DSP\Source\TransformFunctions/arm_cfft_radix4_f32.c ****          ia2 = ia1 + ia1;
1027:.\DSP\Source\TransformFunctions/arm_cfft_radix4_f32.c ****          ia3 = ia2 + ia1;
 479              		.loc 1 1027 0
 480 0022 129D     		ldr	r5, [sp, #72]
 481 0024 05EB4503 		add	r3, r5, r5, lsl #1
 482              	.LVL107:
1028:.\DSP\Source\TransformFunctions/arm_cfft_radix4_f32.c ****          co1 = pCoef[ia1 * 2U];
 483              		.loc 1 1028 0
 484 0028 1499     		ldr	r1, [sp, #80]
 485 002a 51F83520 		ldr	r2, [r1, r5, lsl #3]	@ float
 486 002e 0492     		str	r2, [sp, #16]	@ float
 487              	.LVL108:
1029:.\DSP\Source\TransformFunctions/arm_cfft_radix4_f32.c ****          si1 = pCoef[(ia1 * 2U) + 1U];
 488              		.loc 1 1029 0
 489 0030 01EBC502 		add	r2, r1, r5, lsl #3
 490              	.LVL109:
 491 0034 5268     		ldr	r2, [r2, #4]	@ float
 492              	.LVL110:
 493 0036 0592     		str	r2, [sp, #20]	@ float
 494              	.LVL111:
1030:.\DSP\Source\TransformFunctions/arm_cfft_radix4_f32.c ****          co2 = pCoef[ia2 * 2U];
 495              		.loc 1 1030 0
 496 0038 2A01     		lsls	r2, r5, #4
 497              	.LVL112:
 498 003a 8858     		ldr	r0, [r1, r2]	@ float
 499 003c 0690     		str	r0, [sp, #24]	@ float
 500              	.LVL113:
1031:.\DSP\Source\TransformFunctions/arm_cfft_radix4_f32.c ****          si2 = pCoef[(ia2 * 2U) + 1U];
 501              		.loc 1 1031 0
ARM GAS  C:\Users\IVYLIU~1\AppData\Local\Temp\ccHWxCbk.s 			page 28


 502 003e 0432     		adds	r2, r2, #4
 503 0040 8A58     		ldr	r2, [r1, r2]	@ float
 504 0042 0792     		str	r2, [sp, #28]	@ float
 505              	.LVL114:
1032:.\DSP\Source\TransformFunctions/arm_cfft_radix4_f32.c ****          co3 = pCoef[ia3 * 2U];
 506              		.loc 1 1032 0
 507 0044 51F83320 		ldr	r2, [r1, r3, lsl #3]	@ float
 508              	.LVL115:
 509 0048 0892     		str	r2, [sp, #32]	@ float
 510              	.LVL116:
1033:.\DSP\Source\TransformFunctions/arm_cfft_radix4_f32.c ****          si3 = pCoef[(ia3 * 2U) + 1U];
 511              		.loc 1 1033 0
 512 004a 01EBC303 		add	r3, r1, r3, lsl #3
 513              	.LVL117:
 514 004e 5B68     		ldr	r3, [r3, #4]	@ float
 515 0050 0E93     		str	r3, [sp, #56]	@ float
 516              	.LVL118:
1034:.\DSP\Source\TransformFunctions/arm_cfft_radix4_f32.c **** 
1035:.\DSP\Source\TransformFunctions/arm_cfft_radix4_f32.c ****          /*  Twiddle coefficients index modifier */
1036:.\DSP\Source\TransformFunctions/arm_cfft_radix4_f32.c ****          ia1 = ia1 + twidCoefModifier;
 517              		.loc 1 1036 0
 518 0052 139B     		ldr	r3, [sp, #76]
 519              	.LVL119:
 520 0054 EB18     		adds	r3, r5, r3
 521 0056 1293     		str	r3, [sp, #72]
 522              	.LVL120:
1037:.\DSP\Source\TransformFunctions/arm_cfft_radix4_f32.c **** 
1038:.\DSP\Source\TransformFunctions/arm_cfft_radix4_f32.c ****          i0 = j;
 523              		.loc 1 1038 0
 524 0058 119F     		ldr	r7, [sp, #68]
 525              	.LVL121:
 526              	.L9:
1039:.\DSP\Source\TransformFunctions/arm_cfft_radix4_f32.c ****          do
1040:.\DSP\Source\TransformFunctions/arm_cfft_radix4_f32.c ****          {
1041:.\DSP\Source\TransformFunctions/arm_cfft_radix4_f32.c ****             /*  index calculation for the input as, */
1042:.\DSP\Source\TransformFunctions/arm_cfft_radix4_f32.c ****             /*  pSrc[i0 + 0], pSrc[i0 + fftLen/4], pSrc[i0 + fftLen/2], pSrc[i0 + 3fftLen/4] */
1043:.\DSP\Source\TransformFunctions/arm_cfft_radix4_f32.c ****             i1 = i0 + n2;
 527              		.loc 1 1043 0 discriminator 1
 528 005a 0D9B     		ldr	r3, [sp, #52]
 529 005c FD18     		adds	r5, r7, r3
 530              	.LVL122:
1044:.\DSP\Source\TransformFunctions/arm_cfft_radix4_f32.c ****             i2 = i1 + n2;
 531              		.loc 1 1044 0 discriminator 1
 532 005e 05EB0308 		add	r8, r5, r3
 533              	.LVL123:
1045:.\DSP\Source\TransformFunctions/arm_cfft_radix4_f32.c ****             i3 = i2 + n2;
 534              		.loc 1 1045 0 discriminator 1
 535 0062 08EB0309 		add	r9, r8, r3
 536              	.LVL124:
1046:.\DSP\Source\TransformFunctions/arm_cfft_radix4_f32.c **** 
1047:.\DSP\Source\TransformFunctions/arm_cfft_radix4_f32.c ****             /* xa + xc */
1048:.\DSP\Source\TransformFunctions/arm_cfft_radix4_f32.c ****             r1 = pSrc[(2U * i0)] + pSrc[(2U * i2)];
 537              		.loc 1 1048 0 discriminator 1
 538 0066 FE00     		lsls	r6, r7, #3
 539 0068 5BF83730 		ldr	r3, [fp, r7, lsl #3]	@ float
 540 006c 4FEAC80A 		lsl	r10, r8, #3
 541 0070 5BF83840 		ldr	r4, [fp, r8, lsl #3]	@ float
ARM GAS  C:\Users\IVYLIU~1\AppData\Local\Temp\ccHWxCbk.s 			page 29


 542 0074 0293     		str	r3, [sp, #8]	@ float
 543 0076 1846     		mov	r0, r3
 544 0078 2146     		mov	r1, r4
 545 007a FFF7FEFF 		bl	__aeabi_fadd
 546              	.LVL125:
 547 007e 0190     		str	r0, [sp, #4]	@ float
 548              	.LVL126:
1049:.\DSP\Source\TransformFunctions/arm_cfft_radix4_f32.c **** 
1050:.\DSP\Source\TransformFunctions/arm_cfft_radix4_f32.c ****             /* xa - xc */
1051:.\DSP\Source\TransformFunctions/arm_cfft_radix4_f32.c ****             r2 = pSrc[(2U * i0)] - pSrc[(2U * i2)];
 549              		.loc 1 1051 0 discriminator 1
 550 0080 0298     		ldr	r0, [sp, #8]	@ float
 551              	.LVL127:
 552 0082 2146     		mov	r1, r4
 553 0084 FFF7FEFF 		bl	__aeabi_fsub
 554              	.LVL128:
 555 0088 0990     		str	r0, [sp, #36]	@ float
 556              	.LVL129:
1052:.\DSP\Source\TransformFunctions/arm_cfft_radix4_f32.c **** 
1053:.\DSP\Source\TransformFunctions/arm_cfft_radix4_f32.c ****             /* ya + yc */
1054:.\DSP\Source\TransformFunctions/arm_cfft_radix4_f32.c ****             s1 = pSrc[(2U * i0) + 1U] + pSrc[(2U * i2) + 1U];
 557              		.loc 1 1054 0 discriminator 1
 558 008a 0436     		adds	r6, r6, #4
 559 008c 5BF80640 		ldr	r4, [fp, r6]	@ float
 560 0090 0AF10403 		add	r3, r10, #4
 561 0094 0A93     		str	r3, [sp, #40]
 562 0096 5BF803A0 		ldr	r10, [fp, r3]	@ float
 563 009a 2046     		mov	r0, r4
 564              	.LVL130:
 565 009c 5146     		mov	r1, r10
 566 009e FFF7FEFF 		bl	__aeabi_fadd
 567              	.LVL131:
 568 00a2 0290     		str	r0, [sp, #8]	@ float
 569              	.LVL132:
1055:.\DSP\Source\TransformFunctions/arm_cfft_radix4_f32.c **** 
1056:.\DSP\Source\TransformFunctions/arm_cfft_radix4_f32.c ****             /* ya - yc */
1057:.\DSP\Source\TransformFunctions/arm_cfft_radix4_f32.c ****             s2 = pSrc[(2U * i0) + 1U] - pSrc[(2U * i2) + 1U];
 570              		.loc 1 1057 0 discriminator 1
 571 00a4 2046     		mov	r0, r4
 572              	.LVL133:
 573 00a6 5146     		mov	r1, r10
 574 00a8 FFF7FEFF 		bl	__aeabi_fsub
 575              	.LVL134:
 576 00ac 0390     		str	r0, [sp, #12]	@ float
 577              	.LVL135:
1058:.\DSP\Source\TransformFunctions/arm_cfft_radix4_f32.c **** 
1059:.\DSP\Source\TransformFunctions/arm_cfft_radix4_f32.c ****             /* xb + xd */
1060:.\DSP\Source\TransformFunctions/arm_cfft_radix4_f32.c ****             t1 = pSrc[2U * i1] + pSrc[2U * i3];
 578              		.loc 1 1060 0 discriminator 1
 579 00ae EC00     		lsls	r4, r5, #3
 580 00b0 4FEAC90A 		lsl	r10, r9, #3
 581 00b4 5BF83500 		ldr	r0, [fp, r5, lsl #3]	@ float
 582              	.LVL136:
 583 00b8 5BF83910 		ldr	r1, [fp, r9, lsl #3]	@ float
 584 00bc FFF7FEFF 		bl	__aeabi_fadd
 585              	.LVL137:
 586 00c0 0146     		mov	r1, r0
ARM GAS  C:\Users\IVYLIU~1\AppData\Local\Temp\ccHWxCbk.s 			page 30


 587              	.LVL138:
1061:.\DSP\Source\TransformFunctions/arm_cfft_radix4_f32.c **** 
1062:.\DSP\Source\TransformFunctions/arm_cfft_radix4_f32.c ****             /* xa' = xa + xb + xc + xd */
1063:.\DSP\Source\TransformFunctions/arm_cfft_radix4_f32.c ****             pSrc[2U * i0] = r1 + t1;
 588              		.loc 1 1063 0 discriminator 1
 589 00c2 0198     		ldr	r0, [sp, #4]	@ float
 590              	.LVL139:
 591 00c4 0B91     		str	r1, [sp, #44]	@ float
 592 00c6 FFF7FEFF 		bl	__aeabi_fadd
 593              	.LVL140:
 594 00ca 4BF83700 		str	r0, [fp, r7, lsl #3]	@ float
1064:.\DSP\Source\TransformFunctions/arm_cfft_radix4_f32.c **** 
1065:.\DSP\Source\TransformFunctions/arm_cfft_radix4_f32.c ****             /* xa + xc -(xb + xd) */
1066:.\DSP\Source\TransformFunctions/arm_cfft_radix4_f32.c ****             r1 = r1 - t1;
 595              		.loc 1 1066 0 discriminator 1
 596 00ce 0198     		ldr	r0, [sp, #4]	@ float
 597 00d0 0B99     		ldr	r1, [sp, #44]	@ float
 598 00d2 FFF7FEFF 		bl	__aeabi_fsub
 599              	.LVL141:
 600 00d6 0190     		str	r0, [sp, #4]	@ float
 601              	.LVL142:
1067:.\DSP\Source\TransformFunctions/arm_cfft_radix4_f32.c **** 
1068:.\DSP\Source\TransformFunctions/arm_cfft_radix4_f32.c ****             /* yb + yd */
1069:.\DSP\Source\TransformFunctions/arm_cfft_radix4_f32.c ****             t2 = pSrc[(2U * i1) + 1U] + pSrc[(2U * i3) + 1U];
 602              		.loc 1 1069 0 discriminator 1
 603 00d8 0434     		adds	r4, r4, #4
 604 00da 0AF1040A 		add	r10, r10, #4
 605 00de 5BF80400 		ldr	r0, [fp, r4]	@ float
 606              	.LVL143:
 607 00e2 5BF80A10 		ldr	r1, [fp, r10]	@ float
 608 00e6 FFF7FEFF 		bl	__aeabi_fadd
 609              	.LVL144:
 610 00ea 0146     		mov	r1, r0
 611              	.LVL145:
1070:.\DSP\Source\TransformFunctions/arm_cfft_radix4_f32.c **** 
1071:.\DSP\Source\TransformFunctions/arm_cfft_radix4_f32.c ****             /* ya' = ya + yb + yc + yd */
1072:.\DSP\Source\TransformFunctions/arm_cfft_radix4_f32.c ****             pSrc[(2U * i0) + 1U] = s1 + t2;
 612              		.loc 1 1072 0 discriminator 1
 613 00ec 0298     		ldr	r0, [sp, #8]	@ float
 614              	.LVL146:
 615 00ee 0B91     		str	r1, [sp, #44]	@ float
 616              	.LVL147:
 617 00f0 FFF7FEFF 		bl	__aeabi_fadd
 618              	.LVL148:
 619 00f4 4BF80600 		str	r0, [fp, r6]	@ float
1073:.\DSP\Source\TransformFunctions/arm_cfft_radix4_f32.c **** 
1074:.\DSP\Source\TransformFunctions/arm_cfft_radix4_f32.c ****             /* (ya + yc) - (yb + yd) */
1075:.\DSP\Source\TransformFunctions/arm_cfft_radix4_f32.c ****             s1 = s1 - t2;
 620              		.loc 1 1075 0 discriminator 1
 621 00f8 0298     		ldr	r0, [sp, #8]	@ float
 622 00fa 0B99     		ldr	r1, [sp, #44]	@ float
 623 00fc FFF7FEFF 		bl	__aeabi_fsub
 624              	.LVL149:
 625 0100 0646     		mov	r6, r0
 626              	.LVL150:
1076:.\DSP\Source\TransformFunctions/arm_cfft_radix4_f32.c **** 
1077:.\DSP\Source\TransformFunctions/arm_cfft_radix4_f32.c ****             /* (yb - yd) */
ARM GAS  C:\Users\IVYLIU~1\AppData\Local\Temp\ccHWxCbk.s 			page 31


1078:.\DSP\Source\TransformFunctions/arm_cfft_radix4_f32.c ****             t1 = pSrc[(2U * i1) + 1U] - pSrc[(2U * i3) + 1U];
 627              		.loc 1 1078 0 discriminator 1
 628 0102 5BF80400 		ldr	r0, [fp, r4]	@ float
 629              	.LVL151:
 630 0106 5BF80A10 		ldr	r1, [fp, r10]	@ float
 631 010a FFF7FEFF 		bl	__aeabi_fsub
 632              	.LVL152:
 633 010e 0B90     		str	r0, [sp, #44]	@ float
 634              	.LVL153:
1079:.\DSP\Source\TransformFunctions/arm_cfft_radix4_f32.c **** 
1080:.\DSP\Source\TransformFunctions/arm_cfft_radix4_f32.c ****             /* (xb - xd) */
1081:.\DSP\Source\TransformFunctions/arm_cfft_radix4_f32.c ****             t2 = pSrc[2U * i1] - pSrc[2U * i3];
 635              		.loc 1 1081 0 discriminator 1
 636 0110 5BF83500 		ldr	r0, [fp, r5, lsl #3]	@ float
 637              	.LVL154:
 638 0114 5BF83910 		ldr	r1, [fp, r9, lsl #3]	@ float
 639 0118 FFF7FEFF 		bl	__aeabi_fsub
 640              	.LVL155:
 641 011c 0290     		str	r0, [sp, #8]	@ float
 642              	.LVL156:
1082:.\DSP\Source\TransformFunctions/arm_cfft_radix4_f32.c **** 
1083:.\DSP\Source\TransformFunctions/arm_cfft_radix4_f32.c ****             /* xc' = (xa-xb+xc-xd)co2 - (ya-yb+yc-yd)(si2) */
1084:.\DSP\Source\TransformFunctions/arm_cfft_radix4_f32.c ****             pSrc[2U * i1] = (r1 * co2) - (s1 * si2);
 643              		.loc 1 1084 0 discriminator 1
 644 011e 0198     		ldr	r0, [sp, #4]	@ float
 645              	.LVL157:
 646 0120 0699     		ldr	r1, [sp, #24]	@ float
 647 0122 FFF7FEFF 		bl	__aeabi_fmul
 648              	.LVL158:
 649 0126 0C90     		str	r0, [sp, #48]	@ float
 650 0128 3046     		mov	r0, r6
 651 012a 0799     		ldr	r1, [sp, #28]	@ float
 652 012c FFF7FEFF 		bl	__aeabi_fmul
 653              	.LVL159:
 654 0130 0146     		mov	r1, r0
 655 0132 0C98     		ldr	r0, [sp, #48]	@ float
 656 0134 FFF7FEFF 		bl	__aeabi_fsub
 657              	.LVL160:
 658 0138 4BF83500 		str	r0, [fp, r5, lsl #3]	@ float
1085:.\DSP\Source\TransformFunctions/arm_cfft_radix4_f32.c **** 
1086:.\DSP\Source\TransformFunctions/arm_cfft_radix4_f32.c ****             /* yc' = (ya-yb+yc-yd)co2 + (xa-xb+xc-xd)(si2) */
1087:.\DSP\Source\TransformFunctions/arm_cfft_radix4_f32.c ****             pSrc[(2U * i1) + 1U] = (s1 * co2) + (r1 * si2);
 659              		.loc 1 1087 0 discriminator 1
 660 013c 3046     		mov	r0, r6
 661 013e 0699     		ldr	r1, [sp, #24]	@ float
 662 0140 FFF7FEFF 		bl	__aeabi_fmul
 663              	.LVL161:
 664 0144 0546     		mov	r5, r0
 665              	.LVL162:
 666 0146 0198     		ldr	r0, [sp, #4]	@ float
 667 0148 0799     		ldr	r1, [sp, #28]	@ float
 668 014a FFF7FEFF 		bl	__aeabi_fmul
 669              	.LVL163:
 670 014e 0146     		mov	r1, r0
 671 0150 2846     		mov	r0, r5
 672 0152 FFF7FEFF 		bl	__aeabi_fadd
 673              	.LVL164:
ARM GAS  C:\Users\IVYLIU~1\AppData\Local\Temp\ccHWxCbk.s 			page 32


 674 0156 4BF80400 		str	r0, [fp, r4]	@ float
1088:.\DSP\Source\TransformFunctions/arm_cfft_radix4_f32.c **** 
1089:.\DSP\Source\TransformFunctions/arm_cfft_radix4_f32.c ****             /* (xa - xc) - (yb - yd) */
1090:.\DSP\Source\TransformFunctions/arm_cfft_radix4_f32.c ****             r1 = r2 - t1;
 675              		.loc 1 1090 0 discriminator 1
 676 015a 099E     		ldr	r6, [sp, #36]	@ float
 677              	.LVL165:
 678 015c 3046     		mov	r0, r6
 679 015e 0B9D     		ldr	r5, [sp, #44]	@ float
 680 0160 2946     		mov	r1, r5
 681 0162 FFF7FEFF 		bl	__aeabi_fsub
 682              	.LVL166:
 683 0166 0446     		mov	r4, r0
 684              	.LVL167:
1091:.\DSP\Source\TransformFunctions/arm_cfft_radix4_f32.c **** 
1092:.\DSP\Source\TransformFunctions/arm_cfft_radix4_f32.c ****             /* (xa - xc) + (yb - yd) */
1093:.\DSP\Source\TransformFunctions/arm_cfft_radix4_f32.c ****             r2 = r2 + t1;
 685              		.loc 1 1093 0 discriminator 1
 686 0168 3046     		mov	r0, r6
 687              	.LVL168:
 688 016a 2946     		mov	r1, r5
 689 016c FFF7FEFF 		bl	__aeabi_fadd
 690              	.LVL169:
 691 0170 0646     		mov	r6, r0
 692              	.LVL170:
1094:.\DSP\Source\TransformFunctions/arm_cfft_radix4_f32.c **** 
1095:.\DSP\Source\TransformFunctions/arm_cfft_radix4_f32.c ****             /* (ya - yc) +  (xb - xd) */
1096:.\DSP\Source\TransformFunctions/arm_cfft_radix4_f32.c ****             s1 = s2 + t2;
 693              		.loc 1 1096 0 discriminator 1
 694 0172 0398     		ldr	r0, [sp, #12]	@ float
 695              	.LVL171:
 696 0174 0299     		ldr	r1, [sp, #8]	@ float
 697 0176 FFF7FEFF 		bl	__aeabi_fadd
 698              	.LVL172:
 699 017a 0546     		mov	r5, r0
 700              	.LVL173:
1097:.\DSP\Source\TransformFunctions/arm_cfft_radix4_f32.c **** 
1098:.\DSP\Source\TransformFunctions/arm_cfft_radix4_f32.c ****             /* (ya - yc) -  (xb - xd) */
1099:.\DSP\Source\TransformFunctions/arm_cfft_radix4_f32.c ****             s2 = s2 - t2;
 701              		.loc 1 1099 0 discriminator 1
 702 017c 0398     		ldr	r0, [sp, #12]	@ float
 703              	.LVL174:
 704 017e 0299     		ldr	r1, [sp, #8]	@ float
 705 0180 FFF7FEFF 		bl	__aeabi_fsub
 706              	.LVL175:
 707 0184 0190     		str	r0, [sp, #4]	@ float
 708              	.LVL176:
1100:.\DSP\Source\TransformFunctions/arm_cfft_radix4_f32.c **** 
1101:.\DSP\Source\TransformFunctions/arm_cfft_radix4_f32.c ****             /* xb' = (xa+yb-xc-yd)co1 - (ya-xb-yc+xd)(si1) */
1102:.\DSP\Source\TransformFunctions/arm_cfft_radix4_f32.c ****             pSrc[2U * i2] = (r1 * co1) - (s1 * si1);
 709              		.loc 1 1102 0 discriminator 1
 710 0186 2046     		mov	r0, r4
 711              	.LVL177:
 712 0188 0499     		ldr	r1, [sp, #16]	@ float
 713 018a FFF7FEFF 		bl	__aeabi_fmul
 714              	.LVL178:
 715 018e 0290     		str	r0, [sp, #8]	@ float
ARM GAS  C:\Users\IVYLIU~1\AppData\Local\Temp\ccHWxCbk.s 			page 33


 716              	.LVL179:
 717 0190 2846     		mov	r0, r5
 718 0192 0599     		ldr	r1, [sp, #20]	@ float
 719 0194 FFF7FEFF 		bl	__aeabi_fmul
 720              	.LVL180:
 721 0198 0146     		mov	r1, r0
 722 019a 0298     		ldr	r0, [sp, #8]	@ float
 723 019c FFF7FEFF 		bl	__aeabi_fsub
 724              	.LVL181:
 725 01a0 4BF83800 		str	r0, [fp, r8, lsl #3]	@ float
1103:.\DSP\Source\TransformFunctions/arm_cfft_radix4_f32.c **** 
1104:.\DSP\Source\TransformFunctions/arm_cfft_radix4_f32.c ****             /* yb' = (ya-xb-yc+xd)co1 + (xa+yb-xc-yd)(si1) */
1105:.\DSP\Source\TransformFunctions/arm_cfft_radix4_f32.c ****             pSrc[(2U * i2) + 1U] = (s1 * co1) + (r1 * si1);
 726              		.loc 1 1105 0 discriminator 1
 727 01a4 2846     		mov	r0, r5
 728 01a6 0499     		ldr	r1, [sp, #16]	@ float
 729 01a8 FFF7FEFF 		bl	__aeabi_fmul
 730              	.LVL182:
 731 01ac 0546     		mov	r5, r0
 732              	.LVL183:
 733 01ae 2046     		mov	r0, r4
 734 01b0 0599     		ldr	r1, [sp, #20]	@ float
 735 01b2 FFF7FEFF 		bl	__aeabi_fmul
 736              	.LVL184:
 737 01b6 0146     		mov	r1, r0
 738 01b8 2846     		mov	r0, r5
 739 01ba FFF7FEFF 		bl	__aeabi_fadd
 740              	.LVL185:
 741 01be 0A9A     		ldr	r2, [sp, #40]
 742 01c0 4BF80200 		str	r0, [fp, r2]	@ float
1106:.\DSP\Source\TransformFunctions/arm_cfft_radix4_f32.c **** 
1107:.\DSP\Source\TransformFunctions/arm_cfft_radix4_f32.c ****             /* xd' = (xa-yb-xc+yd)co3 - (ya+xb-yc-xd)(si3) */
1108:.\DSP\Source\TransformFunctions/arm_cfft_radix4_f32.c ****             pSrc[2U * i3] = (r2 * co3) - (s2 * si3);
 743              		.loc 1 1108 0 discriminator 1
 744 01c4 3046     		mov	r0, r6
 745 01c6 0899     		ldr	r1, [sp, #32]	@ float
 746 01c8 FFF7FEFF 		bl	__aeabi_fmul
 747              	.LVL186:
 748 01cc 0446     		mov	r4, r0
 749              	.LVL187:
 750 01ce DDF80480 		ldr	r8, [sp, #4]	@ float
 751              	.LVL188:
 752 01d2 4046     		mov	r0, r8
 753 01d4 0E9D     		ldr	r5, [sp, #56]	@ float
 754 01d6 2946     		mov	r1, r5
 755 01d8 FFF7FEFF 		bl	__aeabi_fmul
 756              	.LVL189:
 757 01dc 0146     		mov	r1, r0
 758 01de 2046     		mov	r0, r4
 759 01e0 FFF7FEFF 		bl	__aeabi_fsub
 760              	.LVL190:
 761 01e4 4BF83900 		str	r0, [fp, r9, lsl #3]	@ float
1109:.\DSP\Source\TransformFunctions/arm_cfft_radix4_f32.c **** 
1110:.\DSP\Source\TransformFunctions/arm_cfft_radix4_f32.c ****             /* yd' = (ya+xb-yc-xd)co3 + (xa-yb-xc+yd)(si3) */
1111:.\DSP\Source\TransformFunctions/arm_cfft_radix4_f32.c ****             pSrc[(2U * i3) + 1U] = (s2 * co3) + (r2 * si3);
 762              		.loc 1 1111 0 discriminator 1
 763 01e8 4046     		mov	r0, r8
ARM GAS  C:\Users\IVYLIU~1\AppData\Local\Temp\ccHWxCbk.s 			page 34


 764 01ea 0899     		ldr	r1, [sp, #32]	@ float
 765 01ec FFF7FEFF 		bl	__aeabi_fmul
 766              	.LVL191:
 767 01f0 0446     		mov	r4, r0
 768 01f2 3046     		mov	r0, r6
 769 01f4 2946     		mov	r1, r5
 770 01f6 FFF7FEFF 		bl	__aeabi_fmul
 771              	.LVL192:
 772 01fa 0146     		mov	r1, r0
 773 01fc 2046     		mov	r0, r4
 774 01fe FFF7FEFF 		bl	__aeabi_fadd
 775              	.LVL193:
 776 0202 4BF80A00 		str	r0, [fp, r10]	@ float
1112:.\DSP\Source\TransformFunctions/arm_cfft_radix4_f32.c **** 
1113:.\DSP\Source\TransformFunctions/arm_cfft_radix4_f32.c ****             i0 += n1;
 777              		.loc 1 1113 0 discriminator 1
 778 0206 0F9B     		ldr	r3, [sp, #60]
 779 0208 1F44     		add	r7, r7, r3
 780              	.LVL194:
1114:.\DSP\Source\TransformFunctions/arm_cfft_radix4_f32.c ****          } while ( i0 < fftLen);
 781              		.loc 1 1114 0 discriminator 1
 782 020a 109B     		ldr	r3, [sp, #64]
 783 020c BB42     		cmp	r3, r7
 784 020e 3FF624AF 		bhi	.L9
1115:.\DSP\Source\TransformFunctions/arm_cfft_radix4_f32.c ****          j++;
 785              		.loc 1 1115 0
 786 0212 119B     		ldr	r3, [sp, #68]
 787 0214 0133     		adds	r3, r3, #1
 788 0216 1A46     		mov	r2, r3
 789 0218 1193     		str	r3, [sp, #68]
 790              	.LVL195:
1116:.\DSP\Source\TransformFunctions/arm_cfft_radix4_f32.c ****       } while (j <= (n2 - 1U));
 791              		.loc 1 1116 0
 792 021a 0D9B     		ldr	r3, [sp, #52]
 793 021c 013B     		subs	r3, r3, #1
 794 021e 9342     		cmp	r3, r2
 795 0220 BFF4FFAE 		bcs	.L10
 796 0224 D846     		mov	r8, fp
1117:.\DSP\Source\TransformFunctions/arm_cfft_radix4_f32.c ****       twidCoefModifier <<= 2U;
 797              		.loc 1 1117 0 discriminator 2
 798 0226 139B     		ldr	r3, [sp, #76]
 799 0228 9B00     		lsls	r3, r3, #2
 800 022a 9BB2     		uxth	r3, r3
 801 022c 1393     		str	r3, [sp, #76]
 802              	.LVL196:
1014:.\DSP\Source\TransformFunctions/arm_cfft_radix4_f32.c ****    {
 803              		.loc 1 1014 0 discriminator 2
 804 022e 159B     		ldr	r3, [sp, #84]
 805 0230 9B08     		lsrs	r3, r3, #2
 806 0232 1593     		str	r3, [sp, #84]
 807              	.LVL197:
1018:.\DSP\Source\TransformFunctions/arm_cfft_radix4_f32.c ****       ia1 = 0U;
 808              		.loc 1 1018 0 discriminator 2
 809 0234 0D9B     		ldr	r3, [sp, #52]
 810              	.LVL198:
 811 0236 0F93     		str	r3, [sp, #60]
 812              	.LVL199:
ARM GAS  C:\Users\IVYLIU~1\AppData\Local\Temp\ccHWxCbk.s 			page 35


 813              	.L8:
1014:.\DSP\Source\TransformFunctions/arm_cfft_radix4_f32.c ****    {
 814              		.loc 1 1014 0 discriminator 1
 815 0238 159B     		ldr	r3, [sp, #84]
 816 023a 042B     		cmp	r3, #4
 817 023c 3FF6EAAE 		bhi	.L11
 818 0240 C346     		mov	fp, r8
 819              	.LVL200:
1118:.\DSP\Source\TransformFunctions/arm_cfft_radix4_f32.c ****    }
1119:.\DSP\Source\TransformFunctions/arm_cfft_radix4_f32.c ****    /*  Initializations of last stage */
1120:.\DSP\Source\TransformFunctions/arm_cfft_radix4_f32.c ****    n1 = n2;
1121:.\DSP\Source\TransformFunctions/arm_cfft_radix4_f32.c ****    n2 >>= 2U;
 820              		.loc 1 1121 0
 821 0242 0F9B     		ldr	r3, [sp, #60]
 822 0244 9B08     		lsrs	r3, r3, #2
 823 0246 0793     		str	r3, [sp, #28]
 824              	.LVL201:
1122:.\DSP\Source\TransformFunctions/arm_cfft_radix4_f32.c **** 
1123:.\DSP\Source\TransformFunctions/arm_cfft_radix4_f32.c ****    /*  Calculations of last stage */
1124:.\DSP\Source\TransformFunctions/arm_cfft_radix4_f32.c ****    for (i0 = 0U; i0 <= (fftLen - n1); i0 += n1)
 825              		.loc 1 1124 0
 826 0248 0023     		movs	r3, #0
 827              	.LVL202:
 828 024a 1C46     		mov	r4, r3
 829 024c A4E0     		b	.L12
 830              	.LVL203:
 831              	.L13:
1125:.\DSP\Source\TransformFunctions/arm_cfft_radix4_f32.c ****    {
1126:.\DSP\Source\TransformFunctions/arm_cfft_radix4_f32.c ****       /*  index calculation for the input as, */
1127:.\DSP\Source\TransformFunctions/arm_cfft_radix4_f32.c ****       /*  pSrc[i0 + 0], pSrc[i0 + fftLen/4], pSrc[i0 + fftLen/2], pSrc[i0 + 3fftLen/4] */
1128:.\DSP\Source\TransformFunctions/arm_cfft_radix4_f32.c ****       i1 = i0 + n2;
 832              		.loc 1 1128 0 discriminator 3
 833 024e 079B     		ldr	r3, [sp, #28]
 834 0250 E718     		adds	r7, r4, r3
 835              	.LVL204:
1129:.\DSP\Source\TransformFunctions/arm_cfft_radix4_f32.c ****       i2 = i1 + n2;
 836              		.loc 1 1129 0 discriminator 3
 837 0252 07EB0308 		add	r8, r7, r3
 838              	.LVL205:
1130:.\DSP\Source\TransformFunctions/arm_cfft_radix4_f32.c ****       i3 = i2 + n2;
 839              		.loc 1 1130 0 discriminator 3
 840 0256 08EB030A 		add	r10, r8, r3
 841              	.LVL206:
1131:.\DSP\Source\TransformFunctions/arm_cfft_radix4_f32.c **** 
1132:.\DSP\Source\TransformFunctions/arm_cfft_radix4_f32.c ****       /*  Butterfly implementation */
1133:.\DSP\Source\TransformFunctions/arm_cfft_radix4_f32.c ****       /* xa + xc */
1134:.\DSP\Source\TransformFunctions/arm_cfft_radix4_f32.c ****       r1 = pSrc[2U * i0] + pSrc[2U * i2];
 842              		.loc 1 1134 0 discriminator 3
 843 025a 4FEAC409 		lsl	r9, r4, #3
 844 025e 5BF83430 		ldr	r3, [fp, r4, lsl #3]	@ float
 845 0262 4FEAC806 		lsl	r6, r8, #3
 846 0266 5BF83850 		ldr	r5, [fp, r8, lsl #3]	@ float
 847 026a 0293     		str	r3, [sp, #8]	@ float
 848 026c 1846     		mov	r0, r3
 849 026e 2946     		mov	r1, r5
 850 0270 FFF7FEFF 		bl	__aeabi_fadd
 851              	.LVL207:
ARM GAS  C:\Users\IVYLIU~1\AppData\Local\Temp\ccHWxCbk.s 			page 36


 852 0274 0190     		str	r0, [sp, #4]	@ float
 853              	.LVL208:
1135:.\DSP\Source\TransformFunctions/arm_cfft_radix4_f32.c **** 
1136:.\DSP\Source\TransformFunctions/arm_cfft_radix4_f32.c ****       /* xa - xc */
1137:.\DSP\Source\TransformFunctions/arm_cfft_radix4_f32.c ****       r2 = pSrc[2U * i0] - pSrc[2U * i2];
 854              		.loc 1 1137 0 discriminator 3
 855 0276 0298     		ldr	r0, [sp, #8]	@ float
 856              	.LVL209:
 857 0278 2946     		mov	r1, r5
 858 027a FFF7FEFF 		bl	__aeabi_fsub
 859              	.LVL210:
 860 027e 0490     		str	r0, [sp, #16]	@ float
 861              	.LVL211:
1138:.\DSP\Source\TransformFunctions/arm_cfft_radix4_f32.c **** 
1139:.\DSP\Source\TransformFunctions/arm_cfft_radix4_f32.c ****       /* ya + yc */
1140:.\DSP\Source\TransformFunctions/arm_cfft_radix4_f32.c ****       s1 = pSrc[(2U * i0) + 1U] + pSrc[(2U * i2) + 1U];
 862              		.loc 1 1140 0 discriminator 3
 863 0280 09F10409 		add	r9, r9, #4
 864 0284 5BF80950 		ldr	r5, [fp, r9]	@ float
 865 0288 331D     		adds	r3, r6, #4
 866 028a 0593     		str	r3, [sp, #20]
 867 028c 5BF80360 		ldr	r6, [fp, r3]	@ float
 868 0290 2846     		mov	r0, r5
 869              	.LVL212:
 870 0292 3146     		mov	r1, r6
 871 0294 FFF7FEFF 		bl	__aeabi_fadd
 872              	.LVL213:
 873 0298 0290     		str	r0, [sp, #8]	@ float
 874              	.LVL214:
1141:.\DSP\Source\TransformFunctions/arm_cfft_radix4_f32.c **** 
1142:.\DSP\Source\TransformFunctions/arm_cfft_radix4_f32.c ****       /* ya - yc */
1143:.\DSP\Source\TransformFunctions/arm_cfft_radix4_f32.c ****       s2 = pSrc[(2U * i0) + 1U] - pSrc[(2U * i2) + 1U];
 875              		.loc 1 1143 0 discriminator 3
 876 029a 2846     		mov	r0, r5
 877              	.LVL215:
 878 029c 3146     		mov	r1, r6
 879 029e FFF7FEFF 		bl	__aeabi_fsub
 880              	.LVL216:
 881 02a2 0390     		str	r0, [sp, #12]	@ float
 882              	.LVL217:
1144:.\DSP\Source\TransformFunctions/arm_cfft_radix4_f32.c **** 
1145:.\DSP\Source\TransformFunctions/arm_cfft_radix4_f32.c ****       /* xc + xd */
1146:.\DSP\Source\TransformFunctions/arm_cfft_radix4_f32.c ****       t1 = pSrc[2U * i1] + pSrc[2U * i3];
 883              		.loc 1 1146 0 discriminator 3
 884 02a4 FE00     		lsls	r6, r7, #3
 885 02a6 4FEACA05 		lsl	r5, r10, #3
 886 02aa 5BF83700 		ldr	r0, [fp, r7, lsl #3]	@ float
 887              	.LVL218:
 888 02ae 5BF83A10 		ldr	r1, [fp, r10, lsl #3]	@ float
 889 02b2 FFF7FEFF 		bl	__aeabi_fadd
 890              	.LVL219:
 891 02b6 0146     		mov	r1, r0
 892              	.LVL220:
1147:.\DSP\Source\TransformFunctions/arm_cfft_radix4_f32.c **** 
1148:.\DSP\Source\TransformFunctions/arm_cfft_radix4_f32.c ****       /* xa' = xa + xb + xc + xd */
1149:.\DSP\Source\TransformFunctions/arm_cfft_radix4_f32.c ****       pSrc[2U * i0] = (r1 + t1) * onebyfftLen;
 893              		.loc 1 1149 0 discriminator 3
ARM GAS  C:\Users\IVYLIU~1\AppData\Local\Temp\ccHWxCbk.s 			page 37


 894 02b8 0198     		ldr	r0, [sp, #4]	@ float
 895              	.LVL221:
 896 02ba 0691     		str	r1, [sp, #24]	@ float
 897 02bc FFF7FEFF 		bl	__aeabi_fadd
 898              	.LVL222:
 899 02c0 2099     		ldr	r1, [sp, #128]	@ float
 900 02c2 FFF7FEFF 		bl	__aeabi_fmul
 901              	.LVL223:
 902 02c6 4BF83400 		str	r0, [fp, r4, lsl #3]	@ float
1150:.\DSP\Source\TransformFunctions/arm_cfft_radix4_f32.c **** 
1151:.\DSP\Source\TransformFunctions/arm_cfft_radix4_f32.c ****       /* (xa + xb) - (xc + xd) */
1152:.\DSP\Source\TransformFunctions/arm_cfft_radix4_f32.c ****       r1 = r1 - t1;
 903              		.loc 1 1152 0 discriminator 3
 904 02ca 0198     		ldr	r0, [sp, #4]	@ float
 905 02cc 0699     		ldr	r1, [sp, #24]	@ float
 906 02ce FFF7FEFF 		bl	__aeabi_fsub
 907              	.LVL224:
 908 02d2 0190     		str	r0, [sp, #4]	@ float
 909              	.LVL225:
1153:.\DSP\Source\TransformFunctions/arm_cfft_radix4_f32.c **** 
1154:.\DSP\Source\TransformFunctions/arm_cfft_radix4_f32.c ****       /* yb + yd */
1155:.\DSP\Source\TransformFunctions/arm_cfft_radix4_f32.c ****       t2 = pSrc[(2U * i1) + 1U] + pSrc[(2U * i3) + 1U];
 910              		.loc 1 1155 0 discriminator 3
 911 02d4 0436     		adds	r6, r6, #4
 912 02d6 0435     		adds	r5, r5, #4
 913 02d8 5BF80600 		ldr	r0, [fp, r6]	@ float
 914              	.LVL226:
 915 02dc 5BF80510 		ldr	r1, [fp, r5]	@ float
 916 02e0 FFF7FEFF 		bl	__aeabi_fadd
 917              	.LVL227:
 918 02e4 0146     		mov	r1, r0
 919              	.LVL228:
1156:.\DSP\Source\TransformFunctions/arm_cfft_radix4_f32.c **** 
1157:.\DSP\Source\TransformFunctions/arm_cfft_radix4_f32.c ****       /* ya' = ya + yb + yc + yd */
1158:.\DSP\Source\TransformFunctions/arm_cfft_radix4_f32.c ****       pSrc[(2U * i0) + 1U] = (s1 + t2) * onebyfftLen;
 920              		.loc 1 1158 0 discriminator 3
 921 02e6 0298     		ldr	r0, [sp, #8]	@ float
 922              	.LVL229:
 923 02e8 0691     		str	r1, [sp, #24]	@ float
 924              	.LVL230:
 925 02ea FFF7FEFF 		bl	__aeabi_fadd
 926              	.LVL231:
 927 02ee 2099     		ldr	r1, [sp, #128]	@ float
 928 02f0 FFF7FEFF 		bl	__aeabi_fmul
 929              	.LVL232:
 930 02f4 4BF80900 		str	r0, [fp, r9]	@ float
1159:.\DSP\Source\TransformFunctions/arm_cfft_radix4_f32.c **** 
1160:.\DSP\Source\TransformFunctions/arm_cfft_radix4_f32.c ****       /* (ya + yc) - (yb + yd) */
1161:.\DSP\Source\TransformFunctions/arm_cfft_radix4_f32.c ****       s1 = s1 - t2;
 931              		.loc 1 1161 0 discriminator 3
 932 02f8 0298     		ldr	r0, [sp, #8]	@ float
 933 02fa 0699     		ldr	r1, [sp, #24]	@ float
 934 02fc FFF7FEFF 		bl	__aeabi_fsub
 935              	.LVL233:
 936 0300 0290     		str	r0, [sp, #8]	@ float
 937              	.LVL234:
1162:.\DSP\Source\TransformFunctions/arm_cfft_radix4_f32.c **** 
ARM GAS  C:\Users\IVYLIU~1\AppData\Local\Temp\ccHWxCbk.s 			page 38


1163:.\DSP\Source\TransformFunctions/arm_cfft_radix4_f32.c ****       /* (yb-yd) */
1164:.\DSP\Source\TransformFunctions/arm_cfft_radix4_f32.c ****       t1 = pSrc[(2U * i1) + 1U] - pSrc[(2U * i3) + 1U];
 938              		.loc 1 1164 0 discriminator 3
 939 0302 5BF80600 		ldr	r0, [fp, r6]	@ float
 940              	.LVL235:
 941 0306 5BF80510 		ldr	r1, [fp, r5]	@ float
 942 030a FFF7FEFF 		bl	__aeabi_fsub
 943              	.LVL236:
 944 030e 8146     		mov	r9, r0
 945              	.LVL237:
1165:.\DSP\Source\TransformFunctions/arm_cfft_radix4_f32.c **** 
1166:.\DSP\Source\TransformFunctions/arm_cfft_radix4_f32.c ****       /* (xb-xd) */
1167:.\DSP\Source\TransformFunctions/arm_cfft_radix4_f32.c ****       t2 = pSrc[2U * i1] - pSrc[2U * i3];
 946              		.loc 1 1167 0 discriminator 3
 947 0310 5BF83700 		ldr	r0, [fp, r7, lsl #3]	@ float
 948              	.LVL238:
 949 0314 5BF83A10 		ldr	r1, [fp, r10, lsl #3]	@ float
 950 0318 FFF7FEFF 		bl	__aeabi_fsub
 951              	.LVL239:
 952 031c 0690     		str	r0, [sp, #24]	@ float
 953              	.LVL240:
1168:.\DSP\Source\TransformFunctions/arm_cfft_radix4_f32.c **** 
1169:.\DSP\Source\TransformFunctions/arm_cfft_radix4_f32.c ****       /* xc' = (xa-xb+xc-xd)co2 - (ya-yb+yc-yd)(si2) */
1170:.\DSP\Source\TransformFunctions/arm_cfft_radix4_f32.c ****       pSrc[2U * i1] = r1 * onebyfftLen;
 954              		.loc 1 1170 0 discriminator 3
 955 031e 0198     		ldr	r0, [sp, #4]	@ float
 956              	.LVL241:
 957 0320 2099     		ldr	r1, [sp, #128]	@ float
 958 0322 FFF7FEFF 		bl	__aeabi_fmul
 959              	.LVL242:
 960 0326 4BF83700 		str	r0, [fp, r7, lsl #3]	@ float
1171:.\DSP\Source\TransformFunctions/arm_cfft_radix4_f32.c **** 
1172:.\DSP\Source\TransformFunctions/arm_cfft_radix4_f32.c ****       /* yc' = (ya-yb+yc-yd)co2 + (xa-xb+xc-xd)(si2) */
1173:.\DSP\Source\TransformFunctions/arm_cfft_radix4_f32.c ****       pSrc[(2U * i1) + 1U] = s1 * onebyfftLen;
 961              		.loc 1 1173 0 discriminator 3
 962 032a 0298     		ldr	r0, [sp, #8]	@ float
 963 032c 2099     		ldr	r1, [sp, #128]	@ float
 964 032e FFF7FEFF 		bl	__aeabi_fmul
 965              	.LVL243:
 966 0332 4BF80600 		str	r0, [fp, r6]	@ float
1174:.\DSP\Source\TransformFunctions/arm_cfft_radix4_f32.c **** 
1175:.\DSP\Source\TransformFunctions/arm_cfft_radix4_f32.c ****       /* (xa - xc) - (yb-yd) */
1176:.\DSP\Source\TransformFunctions/arm_cfft_radix4_f32.c ****       r1 = r2 - t1;
 967              		.loc 1 1176 0 discriminator 3
 968 0336 049F     		ldr	r7, [sp, #16]	@ float
 969              	.LVL244:
 970 0338 3846     		mov	r0, r7
 971 033a 4946     		mov	r1, r9
 972 033c FFF7FEFF 		bl	__aeabi_fsub
 973              	.LVL245:
 974 0340 0190     		str	r0, [sp, #4]	@ float
 975              	.LVL246:
1177:.\DSP\Source\TransformFunctions/arm_cfft_radix4_f32.c **** 
1178:.\DSP\Source\TransformFunctions/arm_cfft_radix4_f32.c ****       /* (xa - xc) + (yb-yd) */
1179:.\DSP\Source\TransformFunctions/arm_cfft_radix4_f32.c ****       r2 = r2 + t1;
 976              		.loc 1 1179 0 discriminator 3
 977 0342 3846     		mov	r0, r7
ARM GAS  C:\Users\IVYLIU~1\AppData\Local\Temp\ccHWxCbk.s 			page 39


 978              	.LVL247:
 979 0344 4946     		mov	r1, r9
 980 0346 FFF7FEFF 		bl	__aeabi_fadd
 981              	.LVL248:
 982 034a 0746     		mov	r7, r0
 983              	.LVL249:
1180:.\DSP\Source\TransformFunctions/arm_cfft_radix4_f32.c **** 
1181:.\DSP\Source\TransformFunctions/arm_cfft_radix4_f32.c ****       /* (ya - yc) + (xb-xd) */
1182:.\DSP\Source\TransformFunctions/arm_cfft_radix4_f32.c ****       s1 = s2 + t2;
 984              		.loc 1 1182 0 discriminator 3
 985 034c 0398     		ldr	r0, [sp, #12]	@ float
 986              	.LVL250:
 987 034e 069E     		ldr	r6, [sp, #24]	@ float
 988 0350 3146     		mov	r1, r6
 989 0352 FFF7FEFF 		bl	__aeabi_fadd
 990              	.LVL251:
 991 0356 8146     		mov	r9, r0
 992              	.LVL252:
1183:.\DSP\Source\TransformFunctions/arm_cfft_radix4_f32.c **** 
1184:.\DSP\Source\TransformFunctions/arm_cfft_radix4_f32.c ****       /* (ya - yc) - (xb-xd) */
1185:.\DSP\Source\TransformFunctions/arm_cfft_radix4_f32.c ****       s2 = s2 - t2;
 993              		.loc 1 1185 0 discriminator 3
 994 0358 0398     		ldr	r0, [sp, #12]	@ float
 995              	.LVL253:
 996 035a 3146     		mov	r1, r6
 997 035c FFF7FEFF 		bl	__aeabi_fsub
 998              	.LVL254:
 999 0360 0646     		mov	r6, r0
 1000              	.LVL255:
1186:.\DSP\Source\TransformFunctions/arm_cfft_radix4_f32.c **** 
1187:.\DSP\Source\TransformFunctions/arm_cfft_radix4_f32.c ****       /* xb' = (xa+yb-xc-yd)co1 - (ya-xb-yc+xd)(si1) */
1188:.\DSP\Source\TransformFunctions/arm_cfft_radix4_f32.c ****       pSrc[2U * i2] = r1 * onebyfftLen;
 1001              		.loc 1 1188 0 discriminator 3
 1002 0362 0198     		ldr	r0, [sp, #4]	@ float
 1003              	.LVL256:
 1004 0364 2099     		ldr	r1, [sp, #128]	@ float
 1005 0366 FFF7FEFF 		bl	__aeabi_fmul
 1006              	.LVL257:
 1007 036a 4BF83800 		str	r0, [fp, r8, lsl #3]	@ float
1189:.\DSP\Source\TransformFunctions/arm_cfft_radix4_f32.c **** 
1190:.\DSP\Source\TransformFunctions/arm_cfft_radix4_f32.c ****       /* yb' = (ya-xb-yc+xd)co1 + (xa+yb-xc-yd)(si1) */
1191:.\DSP\Source\TransformFunctions/arm_cfft_radix4_f32.c ****       pSrc[(2U * i2) + 1U] = s1 * onebyfftLen;
 1008              		.loc 1 1191 0 discriminator 3
 1009 036e 4846     		mov	r0, r9
 1010 0370 2099     		ldr	r1, [sp, #128]	@ float
 1011 0372 FFF7FEFF 		bl	__aeabi_fmul
 1012              	.LVL258:
 1013 0376 059A     		ldr	r2, [sp, #20]
 1014 0378 4BF80200 		str	r0, [fp, r2]	@ float
1192:.\DSP\Source\TransformFunctions/arm_cfft_radix4_f32.c **** 
1193:.\DSP\Source\TransformFunctions/arm_cfft_radix4_f32.c ****       /* xd' = (xa-yb-xc+yd)co3 - (ya+xb-yc-xd)(si3) */
1194:.\DSP\Source\TransformFunctions/arm_cfft_radix4_f32.c ****       pSrc[2U * i3] = r2 * onebyfftLen;
 1015              		.loc 1 1194 0 discriminator 3
 1016 037c 3846     		mov	r0, r7
 1017 037e 2099     		ldr	r1, [sp, #128]	@ float
 1018 0380 FFF7FEFF 		bl	__aeabi_fmul
 1019              	.LVL259:
ARM GAS  C:\Users\IVYLIU~1\AppData\Local\Temp\ccHWxCbk.s 			page 40


 1020 0384 4BF83A00 		str	r0, [fp, r10, lsl #3]	@ float
1195:.\DSP\Source\TransformFunctions/arm_cfft_radix4_f32.c **** 
1196:.\DSP\Source\TransformFunctions/arm_cfft_radix4_f32.c ****       /* yd' = (ya+xb-yc-xd)co3 + (xa-yb-xc+yd)(si3) */
1197:.\DSP\Source\TransformFunctions/arm_cfft_radix4_f32.c ****       pSrc[(2U * i3) + 1U] = s2 * onebyfftLen;
 1021              		.loc 1 1197 0 discriminator 3
 1022 0388 3046     		mov	r0, r6
 1023 038a 2099     		ldr	r1, [sp, #128]	@ float
 1024 038c FFF7FEFF 		bl	__aeabi_fmul
 1025              	.LVL260:
 1026 0390 4BF80500 		str	r0, [fp, r5]	@ float
1124:.\DSP\Source\TransformFunctions/arm_cfft_radix4_f32.c ****    {
 1027              		.loc 1 1124 0 discriminator 3
 1028 0394 0F9B     		ldr	r3, [sp, #60]
 1029 0396 1C44     		add	r4, r4, r3
 1030              	.LVL261:
 1031              	.L12:
1124:.\DSP\Source\TransformFunctions/arm_cfft_radix4_f32.c ****    {
 1032              		.loc 1 1124 0 is_stmt 0 discriminator 1
 1033 0398 109B     		ldr	r3, [sp, #64]
 1034 039a 0F9A     		ldr	r2, [sp, #60]
 1035 039c 9B1A     		subs	r3, r3, r2
 1036 039e A342     		cmp	r3, r4
 1037 03a0 BFF455AF 		bcs	.L13
1198:.\DSP\Source\TransformFunctions/arm_cfft_radix4_f32.c ****    }
1199:.\DSP\Source\TransformFunctions/arm_cfft_radix4_f32.c **** 
1200:.\DSP\Source\TransformFunctions/arm_cfft_radix4_f32.c **** #endif /* #if defined (ARM_MATH_LOOPUNROLL) */
1201:.\DSP\Source\TransformFunctions/arm_cfft_radix4_f32.c **** }
 1038              		.loc 1 1201 0 is_stmt 1
 1039 03a4 17B0     		add	sp, sp, #92
 1040              		.cfi_def_cfa_offset 36
 1041              		@ sp needed
 1042 03a6 BDE8F08F 		pop	{r4, r5, r6, r7, r8, r9, r10, fp, pc}
 1043              		.cfi_endproc
 1044              	.LFE86:
 1045              		.size	arm_radix4_butterfly_inverse_f32, .-arm_radix4_butterfly_inverse_f32
 1046 03aa 00BF     		.section	.text.arm_cfft_radix4_f32,"ax",%progbits
 1047              		.align	2
 1048              		.global	arm_cfft_radix4_f32
 1049              		.thumb
 1050              		.thumb_func
 1051              		.type	arm_cfft_radix4_f32, %function
 1052              	arm_cfft_radix4_f32:
 1053              	.LFB84:
  74:.\DSP\Source\TransformFunctions/arm_cfft_radix4_f32.c ****    if (S->ifftFlag == 1U)
 1054              		.loc 1 74 0
 1055              		.cfi_startproc
 1056              		@ args = 0, pretend = 0, frame = 0
 1057              		@ frame_needed = 0, uses_anonymous_args = 0
 1058              	.LVL262:
 1059 0000 30B5     		push	{r4, r5, lr}
 1060              		.cfi_def_cfa_offset 12
 1061              		.cfi_offset 4, -12
 1062              		.cfi_offset 5, -8
 1063              		.cfi_offset 14, -4
 1064 0002 83B0     		sub	sp, sp, #12
 1065              		.cfi_def_cfa_offset 24
 1066 0004 0446     		mov	r4, r0
ARM GAS  C:\Users\IVYLIU~1\AppData\Local\Temp\ccHWxCbk.s 			page 41


 1067 0006 0D46     		mov	r5, r1
  75:.\DSP\Source\TransformFunctions/arm_cfft_radix4_f32.c ****    {
 1068              		.loc 1 75 0
 1069 0008 8378     		ldrb	r3, [r0, #2]	@ zero_extendqisi2
 1070 000a 012B     		cmp	r3, #1
 1071 000c 08D1     		bne	.L16
  78:.\DSP\Source\TransformFunctions/arm_cfft_radix4_f32.c ****    }
 1072              		.loc 1 78 0
 1073 000e 0188     		ldrh	r1, [r0]
 1074              	.LVL263:
 1075 0010 8389     		ldrh	r3, [r0, #12]
 1076 0012 0269     		ldr	r2, [r0, #16]	@ float
 1077 0014 0092     		str	r2, [sp]	@ float
 1078 0016 2846     		mov	r0, r5
 1079              	.LVL264:
 1080 0018 6268     		ldr	r2, [r4, #4]
 1081 001a FFF7FEFF 		bl	arm_radix4_butterfly_inverse_f32
 1082              	.LVL265:
 1083 001e 05E0     		b	.L17
 1084              	.LVL266:
 1085              	.L16:
  83:.\DSP\Source\TransformFunctions/arm_cfft_radix4_f32.c ****    }
 1086              		.loc 1 83 0
 1087 0020 0846     		mov	r0, r1
 1088              	.LVL267:
 1089 0022 2188     		ldrh	r1, [r4]
 1090              	.LVL268:
 1091 0024 6268     		ldr	r2, [r4, #4]
 1092 0026 A389     		ldrh	r3, [r4, #12]
 1093 0028 FFF7FEFF 		bl	arm_radix4_butterfly_f32
 1094              	.LVL269:
 1095              	.L17:
  86:.\DSP\Source\TransformFunctions/arm_cfft_radix4_f32.c ****    {
 1096              		.loc 1 86 0
 1097 002c E378     		ldrb	r3, [r4, #3]	@ zero_extendqisi2
 1098 002e 012B     		cmp	r3, #1
 1099 0030 05D1     		bne	.L15
  89:.\DSP\Source\TransformFunctions/arm_cfft_radix4_f32.c ****    }
 1100              		.loc 1 89 0
 1101 0032 2846     		mov	r0, r5
 1102 0034 2188     		ldrh	r1, [r4]
 1103 0036 E289     		ldrh	r2, [r4, #14]
 1104 0038 A368     		ldr	r3, [r4, #8]
 1105 003a FFF7FEFF 		bl	arm_bitreversal_f32
 1106              	.LVL270:
 1107              	.L15:
  92:.\DSP\Source\TransformFunctions/arm_cfft_radix4_f32.c **** 
 1108              		.loc 1 92 0
 1109 003e 03B0     		add	sp, sp, #12
 1110              		.cfi_def_cfa_offset 12
 1111              		@ sp needed
 1112 0040 30BD     		pop	{r4, r5, pc}
 1113              		.cfi_endproc
 1114              	.LFE84:
 1115              		.size	arm_cfft_radix4_f32, .-arm_cfft_radix4_f32
 1116 0042 00BF     		.text
 1117              	.Letext0:
ARM GAS  C:\Users\IVYLIU~1\AppData\Local\Temp\ccHWxCbk.s 			page 42


 1118              		.file 2 "c:\\program files (x86)\\cypress\\psoc creator\\3.3\\psoc creator\\import\\gnu\\arm\\4.9.
 1119              		.file 3 "c:\\program files (x86)\\cypress\\psoc creator\\3.3\\psoc creator\\import\\gnu\\arm\\4.9.
 1120              		.file 4 ".\\DSP\\Include/arm_math_types.h"
 1121              		.file 5 ".\\DSP\\Include/dsp/transform_functions.h"
 1122              		.file 6 ".\\Core\\Include/cmsis_gcc.h"
 1123              		.section	.debug_info,"",%progbits
 1124              	.Ldebug_info0:
 1125 0000 0C060000 		.4byte	0x60c
 1126 0004 0400     		.2byte	0x4
 1127 0006 00000000 		.4byte	.Ldebug_abbrev0
 1128 000a 04       		.byte	0x4
 1129 000b 01       		.uleb128 0x1
 1130 000c D3020000 		.4byte	.LASF43
 1131 0010 01       		.byte	0x1
 1132 0011 B1010000 		.4byte	.LASF44
 1133 0015 28020000 		.4byte	.LASF45
 1134 0019 00000000 		.4byte	.Ldebug_ranges0+0
 1135 001d 00000000 		.4byte	0
 1136 0021 00000000 		.4byte	.Ldebug_line0
 1137 0025 02       		.uleb128 0x2
 1138 0026 01       		.byte	0x1
 1139 0027 06       		.byte	0x6
 1140 0028 7D000000 		.4byte	.LASF0
 1141 002c 03       		.uleb128 0x3
 1142 002d 1E000000 		.4byte	.LASF3
 1143 0031 02       		.byte	0x2
 1144 0032 1D       		.byte	0x1d
 1145 0033 37000000 		.4byte	0x37
 1146 0037 02       		.uleb128 0x2
 1147 0038 01       		.byte	0x1
 1148 0039 08       		.byte	0x8
 1149 003a E7010000 		.4byte	.LASF1
 1150 003e 02       		.uleb128 0x2
 1151 003f 02       		.byte	0x2
 1152 0040 05       		.byte	0x5
 1153 0041 01020000 		.4byte	.LASF2
 1154 0045 03       		.uleb128 0x3
 1155 0046 83020000 		.4byte	.LASF4
 1156 004a 02       		.byte	0x2
 1157 004b 2B       		.byte	0x2b
 1158 004c 50000000 		.4byte	0x50
 1159 0050 02       		.uleb128 0x2
 1160 0051 02       		.byte	0x2
 1161 0052 07       		.byte	0x7
 1162 0053 3C010000 		.4byte	.LASF5
 1163 0057 02       		.uleb128 0x2
 1164 0058 04       		.byte	0x4
 1165 0059 05       		.byte	0x5
 1166 005a 9E000000 		.4byte	.LASF6
 1167 005e 03       		.uleb128 0x3
 1168 005f DD000000 		.4byte	.LASF7
 1169 0063 02       		.byte	0x2
 1170 0064 41       		.byte	0x41
 1171 0065 69000000 		.4byte	0x69
 1172 0069 02       		.uleb128 0x2
 1173 006a 04       		.byte	0x4
 1174 006b 07       		.byte	0x7
ARM GAS  C:\Users\IVYLIU~1\AppData\Local\Temp\ccHWxCbk.s 			page 43


 1175 006c 16010000 		.4byte	.LASF8
 1176 0070 02       		.uleb128 0x2
 1177 0071 08       		.byte	0x8
 1178 0072 05       		.byte	0x5
 1179 0073 6F000000 		.4byte	.LASF9
 1180 0077 02       		.uleb128 0x2
 1181 0078 08       		.byte	0x8
 1182 0079 07       		.byte	0x7
 1183 007a 28000000 		.4byte	.LASF10
 1184 007e 04       		.uleb128 0x4
 1185 007f 04       		.byte	0x4
 1186 0080 05       		.byte	0x5
 1187 0081 696E7400 		.ascii	"int\000"
 1188 0085 02       		.uleb128 0x2
 1189 0086 04       		.byte	0x4
 1190 0087 07       		.byte	0x7
 1191 0088 04010000 		.4byte	.LASF11
 1192 008c 03       		.uleb128 0x3
 1193 008d BA020000 		.4byte	.LASF12
 1194 0091 03       		.byte	0x3
 1195 0092 15       		.byte	0x15
 1196 0093 2C000000 		.4byte	0x2c
 1197 0097 03       		.uleb128 0x3
 1198 0098 CD000000 		.4byte	.LASF13
 1199 009c 03       		.byte	0x3
 1200 009d 21       		.byte	0x21
 1201 009e 45000000 		.4byte	0x45
 1202 00a2 03       		.uleb128 0x3
 1203 00a3 1F020000 		.4byte	.LASF14
 1204 00a7 03       		.byte	0x3
 1205 00a8 2D       		.byte	0x2d
 1206 00a9 5E000000 		.4byte	0x5e
 1207 00ad 02       		.uleb128 0x2
 1208 00ae 04       		.byte	0x4
 1209 00af 07       		.byte	0x7
 1210 00b0 7D010000 		.4byte	.LASF15
 1211 00b4 02       		.uleb128 0x2
 1212 00b5 01       		.byte	0x1
 1213 00b6 08       		.byte	0x8
 1214 00b7 7E020000 		.4byte	.LASF16
 1215 00bb 02       		.uleb128 0x2
 1216 00bc 08       		.byte	0x8
 1217 00bd 04       		.byte	0x4
 1218 00be D6000000 		.4byte	.LASF17
 1219 00c2 02       		.uleb128 0x2
 1220 00c3 04       		.byte	0x4
 1221 00c4 04       		.byte	0x4
 1222 00c5 AB010000 		.4byte	.LASF18
 1223 00c9 02       		.uleb128 0x2
 1224 00ca 08       		.byte	0x8
 1225 00cb 04       		.byte	0x4
 1226 00cc 86010000 		.4byte	.LASF19
 1227 00d0 05       		.uleb128 0x5
 1228 00d1 8E020000 		.4byte	.LASF20
 1229 00d5 04       		.byte	0x4
 1230 00d6 2F01     		.2byte	0x12f
 1231 00d8 C2000000 		.4byte	0xc2
ARM GAS  C:\Users\IVYLIU~1\AppData\Local\Temp\ccHWxCbk.s 			page 44


 1232 00dc 06       		.uleb128 0x6
 1233 00dd 04       		.byte	0x4
 1234 00de E2000000 		.4byte	0xe2
 1235 00e2 07       		.uleb128 0x7
 1236 00e3 97000000 		.4byte	0x97
 1237 00e7 06       		.uleb128 0x6
 1238 00e8 04       		.byte	0x4
 1239 00e9 ED000000 		.4byte	0xed
 1240 00ed 07       		.uleb128 0x7
 1241 00ee D0000000 		.4byte	0xd0
 1242 00f2 08       		.uleb128 0x8
 1243 00f3 14       		.byte	0x14
 1244 00f4 05       		.byte	0x5
 1245 00f5 BA       		.byte	0xba
 1246 00f6 5B010000 		.4byte	0x15b
 1247 00fa 09       		.uleb128 0x9
 1248 00fb E8000000 		.4byte	.LASF21
 1249 00ff 05       		.byte	0x5
 1250 0100 BC       		.byte	0xbc
 1251 0101 97000000 		.4byte	0x97
 1252 0105 00       		.byte	0
 1253 0106 09       		.uleb128 0x9
 1254 0107 6C030000 		.4byte	.LASF22
 1255 010b 05       		.byte	0x5
 1256 010c BD       		.byte	0xbd
 1257 010d 8C000000 		.4byte	0x8c
 1258 0111 02       		.byte	0x2
 1259 0112 09       		.uleb128 0x9
 1260 0113 92010000 		.4byte	.LASF23
 1261 0117 05       		.byte	0x5
 1262 0118 BE       		.byte	0xbe
 1263 0119 8C000000 		.4byte	0x8c
 1264 011d 03       		.byte	0x3
 1265 011e 09       		.uleb128 0x9
 1266 011f AB020000 		.4byte	.LASF24
 1267 0123 05       		.byte	0x5
 1268 0124 BF       		.byte	0xbf
 1269 0125 E7000000 		.4byte	0xe7
 1270 0129 04       		.byte	0x4
 1271 012a 09       		.uleb128 0x9
 1272 012b C0000000 		.4byte	.LASF25
 1273 012f 05       		.byte	0x5
 1274 0130 C0       		.byte	0xc0
 1275 0131 DC000000 		.4byte	0xdc
 1276 0135 08       		.byte	0x8
 1277 0136 09       		.uleb128 0x9
 1278 0137 C2020000 		.4byte	.LASF26
 1279 013b 05       		.byte	0x5
 1280 013c C1       		.byte	0xc1
 1281 013d 97000000 		.4byte	0x97
 1282 0141 0C       		.byte	0xc
 1283 0142 09       		.uleb128 0x9
 1284 0143 4F010000 		.4byte	.LASF27
 1285 0147 05       		.byte	0x5
 1286 0148 C2       		.byte	0xc2
 1287 0149 97000000 		.4byte	0x97
 1288 014d 0E       		.byte	0xe
ARM GAS  C:\Users\IVYLIU~1\AppData\Local\Temp\ccHWxCbk.s 			page 45


 1289 014e 09       		.uleb128 0x9
 1290 014f F5010000 		.4byte	.LASF28
 1291 0153 05       		.byte	0x5
 1292 0154 C3       		.byte	0xc3
 1293 0155 D0000000 		.4byte	0xd0
 1294 0159 10       		.byte	0x10
 1295 015a 00       		.byte	0
 1296 015b 03       		.uleb128 0x3
 1297 015c 3F000000 		.4byte	.LASF29
 1298 0160 05       		.byte	0x5
 1299 0161 C4       		.byte	0xc4
 1300 0162 F2000000 		.4byte	0xf2
 1301 0166 06       		.uleb128 0x6
 1302 0167 04       		.byte	0x4
 1303 0168 6C010000 		.4byte	0x16c
 1304 016c 07       		.uleb128 0x7
 1305 016d A2000000 		.4byte	0xa2
 1306 0171 0A       		.uleb128 0xa
 1307 0172 A7000000 		.4byte	.LASF32
 1308 0176 01       		.byte	0x1
 1309 0177 6F       		.byte	0x6f
 1310 0178 00000000 		.4byte	.LFB85
 1311 017c 46020000 		.4byte	.LFE85-.LFB85
 1312 0180 01       		.uleb128 0x1
 1313 0181 9C       		.byte	0x9c
 1314 0182 12030000 		.4byte	0x312
 1315 0186 0B       		.uleb128 0xb
 1316 0187 11010000 		.4byte	.LASF30
 1317 018b 01       		.byte	0x1
 1318 018c 70       		.byte	0x70
 1319 018d 12030000 		.4byte	0x312
 1320 0191 00000000 		.4byte	.LLST0
 1321 0195 0B       		.uleb128 0xb
 1322 0196 E8000000 		.4byte	.LASF21
 1323 019a 01       		.byte	0x1
 1324 019b 71       		.byte	0x71
 1325 019c 97000000 		.4byte	0x97
 1326 01a0 34000000 		.4byte	.LLST1
 1327 01a4 0B       		.uleb128 0xb
 1328 01a5 B4020000 		.4byte	.LASF31
 1329 01a9 01       		.byte	0x1
 1330 01aa 72       		.byte	0x72
 1331 01ab E7000000 		.4byte	0xe7
 1332 01af 55000000 		.4byte	.LLST2
 1333 01b3 0B       		.uleb128 0xb
 1334 01b4 C2020000 		.4byte	.LASF26
 1335 01b8 01       		.byte	0x1
 1336 01b9 73       		.byte	0x73
 1337 01ba 97000000 		.4byte	0x97
 1338 01be 74000000 		.4byte	.LLST3
 1339 01c2 0C       		.uleb128 0xc
 1340 01c3 636F3100 		.ascii	"co1\000"
 1341 01c7 01       		.byte	0x1
 1342 01c8 75       		.byte	0x75
 1343 01c9 D0000000 		.4byte	0xd0
 1344 01cd 93000000 		.4byte	.LLST4
 1345 01d1 0C       		.uleb128 0xc
ARM GAS  C:\Users\IVYLIU~1\AppData\Local\Temp\ccHWxCbk.s 			page 46


 1346 01d2 636F3200 		.ascii	"co2\000"
 1347 01d6 01       		.byte	0x1
 1348 01d7 75       		.byte	0x75
 1349 01d8 D0000000 		.4byte	0xd0
 1350 01dc E2000000 		.4byte	.LLST5
 1351 01e0 0C       		.uleb128 0xc
 1352 01e1 636F3300 		.ascii	"co3\000"
 1353 01e5 01       		.byte	0x1
 1354 01e6 75       		.byte	0x75
 1355 01e7 D0000000 		.4byte	0xd0
 1356 01eb 02010000 		.4byte	.LLST6
 1357 01ef 0C       		.uleb128 0xc
 1358 01f0 73693100 		.ascii	"si1\000"
 1359 01f4 01       		.byte	0x1
 1360 01f5 75       		.byte	0x75
 1361 01f6 D0000000 		.4byte	0xd0
 1362 01fa 22010000 		.4byte	.LLST7
 1363 01fe 0C       		.uleb128 0xc
 1364 01ff 73693200 		.ascii	"si2\000"
 1365 0203 01       		.byte	0x1
 1366 0204 75       		.byte	0x75
 1367 0205 D0000000 		.4byte	0xd0
 1368 0209 69010000 		.4byte	.LLST8
 1369 020d 0C       		.uleb128 0xc
 1370 020e 73693300 		.ascii	"si3\000"
 1371 0212 01       		.byte	0x1
 1372 0213 75       		.byte	0x75
 1373 0214 D0000000 		.4byte	0xd0
 1374 0218 B0010000 		.4byte	.LLST9
 1375 021c 0C       		.uleb128 0xc
 1376 021d 69613100 		.ascii	"ia1\000"
 1377 0221 01       		.byte	0x1
 1378 0222 76       		.byte	0x76
 1379 0223 A2000000 		.4byte	0xa2
 1380 0227 FE010000 		.4byte	.LLST10
 1381 022b 0C       		.uleb128 0xc
 1382 022c 69613200 		.ascii	"ia2\000"
 1383 0230 01       		.byte	0x1
 1384 0231 76       		.byte	0x76
 1385 0232 A2000000 		.4byte	0xa2
 1386 0236 35020000 		.4byte	.LLST11
 1387 023a 0C       		.uleb128 0xc
 1388 023b 69613300 		.ascii	"ia3\000"
 1389 023f 01       		.byte	0x1
 1390 0240 76       		.byte	0x76
 1391 0241 A2000000 		.4byte	0xa2
 1392 0245 5C020000 		.4byte	.LLST12
 1393 0249 0C       		.uleb128 0xc
 1394 024a 693000   		.ascii	"i0\000"
 1395 024d 01       		.byte	0x1
 1396 024e 77       		.byte	0x77
 1397 024f A2000000 		.4byte	0xa2
 1398 0253 91020000 		.4byte	.LLST13
 1399 0257 0C       		.uleb128 0xc
 1400 0258 693100   		.ascii	"i1\000"
 1401 025b 01       		.byte	0x1
 1402 025c 77       		.byte	0x77
ARM GAS  C:\Users\IVYLIU~1\AppData\Local\Temp\ccHWxCbk.s 			page 47


 1403 025d A2000000 		.4byte	0xa2
 1404 0261 B0020000 		.4byte	.LLST14
 1405 0265 0C       		.uleb128 0xc
 1406 0266 693200   		.ascii	"i2\000"
 1407 0269 01       		.byte	0x1
 1408 026a 77       		.byte	0x77
 1409 026b A2000000 		.4byte	0xa2
 1410 026f D5020000 		.4byte	.LLST15
 1411 0273 0C       		.uleb128 0xc
 1412 0274 693300   		.ascii	"i3\000"
 1413 0277 01       		.byte	0x1
 1414 0278 77       		.byte	0x77
 1415 0279 A2000000 		.4byte	0xa2
 1416 027d FC020000 		.4byte	.LLST16
 1417 0281 0C       		.uleb128 0xc
 1418 0282 6E3100   		.ascii	"n1\000"
 1419 0285 01       		.byte	0x1
 1420 0286 78       		.byte	0x78
 1421 0287 A2000000 		.4byte	0xa2
 1422 028b 0F030000 		.4byte	.LLST17
 1423 028f 0C       		.uleb128 0xc
 1424 0290 6E3200   		.ascii	"n2\000"
 1425 0293 01       		.byte	0x1
 1426 0294 78       		.byte	0x78
 1427 0295 A2000000 		.4byte	0xa2
 1428 0299 2F030000 		.4byte	.LLST18
 1429 029d 0C       		.uleb128 0xc
 1430 029e 6A00     		.ascii	"j\000"
 1431 02a0 01       		.byte	0x1
 1432 02a1 78       		.byte	0x78
 1433 02a2 A2000000 		.4byte	0xa2
 1434 02a6 74030000 		.4byte	.LLST19
 1435 02aa 0C       		.uleb128 0xc
 1436 02ab 6B00     		.ascii	"k\000"
 1437 02ad 01       		.byte	0x1
 1438 02ae 78       		.byte	0x78
 1439 02af A2000000 		.4byte	0xa2
 1440 02b3 9F030000 		.4byte	.LLST20
 1441 02b7 0D       		.uleb128 0xd
 1442 02b8 743100   		.ascii	"t1\000"
 1443 02bb 01       		.byte	0x1
 1444 02bc E501     		.2byte	0x1e5
 1445 02be D0000000 		.4byte	0xd0
 1446 02c2 E0030000 		.4byte	.LLST21
 1447 02c6 0D       		.uleb128 0xd
 1448 02c7 743200   		.ascii	"t2\000"
 1449 02ca 01       		.byte	0x1
 1450 02cb E501     		.2byte	0x1e5
 1451 02cd D0000000 		.4byte	0xd0
 1452 02d1 23040000 		.4byte	.LLST22
 1453 02d5 0D       		.uleb128 0xd
 1454 02d6 723100   		.ascii	"r1\000"
 1455 02d9 01       		.byte	0x1
 1456 02da E501     		.2byte	0x1e5
 1457 02dc D0000000 		.4byte	0xd0
 1458 02e0 66040000 		.4byte	.LLST23
 1459 02e4 0D       		.uleb128 0xd
ARM GAS  C:\Users\IVYLIU~1\AppData\Local\Temp\ccHWxCbk.s 			page 48


 1460 02e5 723200   		.ascii	"r2\000"
 1461 02e8 01       		.byte	0x1
 1462 02e9 E501     		.2byte	0x1e5
 1463 02eb D0000000 		.4byte	0xd0
 1464 02ef B4040000 		.4byte	.LLST24
 1465 02f3 0D       		.uleb128 0xd
 1466 02f4 733100   		.ascii	"s1\000"
 1467 02f7 01       		.byte	0x1
 1468 02f8 E501     		.2byte	0x1e5
 1469 02fa D0000000 		.4byte	0xd0
 1470 02fe EA040000 		.4byte	.LLST25
 1471 0302 0D       		.uleb128 0xd
 1472 0303 733200   		.ascii	"s2\000"
 1473 0306 01       		.byte	0x1
 1474 0307 E501     		.2byte	0x1e5
 1475 0309 D0000000 		.4byte	0xd0
 1476 030d 36050000 		.4byte	.LLST26
 1477 0311 00       		.byte	0
 1478 0312 06       		.uleb128 0x6
 1479 0313 04       		.byte	0x4
 1480 0314 D0000000 		.4byte	0xd0
 1481 0318 0E       		.uleb128 0xe
 1482 0319 5C010000 		.4byte	.LASF33
 1483 031d 01       		.byte	0x1
 1484 031e 6202     		.2byte	0x262
 1485 0320 00000000 		.4byte	.LFB86
 1486 0324 AA030000 		.4byte	.LFE86-.LFB86
 1487 0328 01       		.uleb128 0x1
 1488 0329 9C       		.byte	0x9c
 1489 032a DE040000 		.4byte	0x4de
 1490 032e 0F       		.uleb128 0xf
 1491 032f 11010000 		.4byte	.LASF30
 1492 0333 01       		.byte	0x1
 1493 0334 6302     		.2byte	0x263
 1494 0336 12030000 		.4byte	0x312
 1495 033a 6E050000 		.4byte	.LLST27
 1496 033e 0F       		.uleb128 0xf
 1497 033f E8000000 		.4byte	.LASF21
 1498 0343 01       		.byte	0x1
 1499 0344 6402     		.2byte	0x264
 1500 0346 97000000 		.4byte	0x97
 1501 034a AD050000 		.4byte	.LLST28
 1502 034e 0F       		.uleb128 0xf
 1503 034f B4020000 		.4byte	.LASF31
 1504 0353 01       		.byte	0x1
 1505 0354 6502     		.2byte	0x265
 1506 0356 E7000000 		.4byte	0xe7
 1507 035a CE050000 		.4byte	.LLST29
 1508 035e 0F       		.uleb128 0xf
 1509 035f C2020000 		.4byte	.LASF26
 1510 0363 01       		.byte	0x1
 1511 0364 6602     		.2byte	0x266
 1512 0366 97000000 		.4byte	0x97
 1513 036a ED050000 		.4byte	.LLST30
 1514 036e 10       		.uleb128 0x10
 1515 036f F5010000 		.4byte	.LASF28
 1516 0373 01       		.byte	0x1
ARM GAS  C:\Users\IVYLIU~1\AppData\Local\Temp\ccHWxCbk.s 			page 49


 1517 0374 6702     		.2byte	0x267
 1518 0376 D0000000 		.4byte	0xd0
 1519 037a 02       		.uleb128 0x2
 1520 037b 91       		.byte	0x91
 1521 037c 00       		.sleb128 0
 1522 037d 0D       		.uleb128 0xd
 1523 037e 636F3100 		.ascii	"co1\000"
 1524 0382 01       		.byte	0x1
 1525 0383 6902     		.2byte	0x269
 1526 0385 D0000000 		.4byte	0xd0
 1527 0389 0C060000 		.4byte	.LLST31
 1528 038d 0D       		.uleb128 0xd
 1529 038e 636F3200 		.ascii	"co2\000"
 1530 0392 01       		.byte	0x1
 1531 0393 6902     		.2byte	0x269
 1532 0395 D0000000 		.4byte	0xd0
 1533 0399 5B060000 		.4byte	.LLST32
 1534 039d 0D       		.uleb128 0xd
 1535 039e 636F3300 		.ascii	"co3\000"
 1536 03a2 01       		.byte	0x1
 1537 03a3 6902     		.2byte	0x269
 1538 03a5 D0000000 		.4byte	0xd0
 1539 03a9 7B060000 		.4byte	.LLST33
 1540 03ad 0D       		.uleb128 0xd
 1541 03ae 73693100 		.ascii	"si1\000"
 1542 03b2 01       		.byte	0x1
 1543 03b3 6902     		.2byte	0x269
 1544 03b5 D0000000 		.4byte	0xd0
 1545 03b9 9B060000 		.4byte	.LLST34
 1546 03bd 0D       		.uleb128 0xd
 1547 03be 73693200 		.ascii	"si2\000"
 1548 03c2 01       		.byte	0x1
 1549 03c3 6902     		.2byte	0x269
 1550 03c5 D0000000 		.4byte	0xd0
 1551 03c9 E2060000 		.4byte	.LLST35
 1552 03cd 0D       		.uleb128 0xd
 1553 03ce 73693300 		.ascii	"si3\000"
 1554 03d2 01       		.byte	0x1
 1555 03d3 6902     		.2byte	0x269
 1556 03d5 D0000000 		.4byte	0xd0
 1557 03d9 29070000 		.4byte	.LLST36
 1558 03dd 0D       		.uleb128 0xd
 1559 03de 69613100 		.ascii	"ia1\000"
 1560 03e2 01       		.byte	0x1
 1561 03e3 6A02     		.2byte	0x26a
 1562 03e5 A2000000 		.4byte	0xa2
 1563 03e9 77070000 		.4byte	.LLST37
 1564 03ed 0D       		.uleb128 0xd
 1565 03ee 69613200 		.ascii	"ia2\000"
 1566 03f2 01       		.byte	0x1
 1567 03f3 6A02     		.2byte	0x26a
 1568 03f5 A2000000 		.4byte	0xa2
 1569 03f9 AE070000 		.4byte	.LLST38
 1570 03fd 0D       		.uleb128 0xd
 1571 03fe 69613300 		.ascii	"ia3\000"
 1572 0402 01       		.byte	0x1
 1573 0403 6A02     		.2byte	0x26a
ARM GAS  C:\Users\IVYLIU~1\AppData\Local\Temp\ccHWxCbk.s 			page 50


 1574 0405 A2000000 		.4byte	0xa2
 1575 0409 D5070000 		.4byte	.LLST39
 1576 040d 0D       		.uleb128 0xd
 1577 040e 693000   		.ascii	"i0\000"
 1578 0411 01       		.byte	0x1
 1579 0412 6B02     		.2byte	0x26b
 1580 0414 A2000000 		.4byte	0xa2
 1581 0418 0A080000 		.4byte	.LLST40
 1582 041c 0D       		.uleb128 0xd
 1583 041d 693100   		.ascii	"i1\000"
 1584 0420 01       		.byte	0x1
 1585 0421 6B02     		.2byte	0x26b
 1586 0423 A2000000 		.4byte	0xa2
 1587 0427 40080000 		.4byte	.LLST41
 1588 042b 0D       		.uleb128 0xd
 1589 042c 693200   		.ascii	"i2\000"
 1590 042f 01       		.byte	0x1
 1591 0430 6B02     		.2byte	0x26b
 1592 0432 A2000000 		.4byte	0xa2
 1593 0436 82080000 		.4byte	.LLST42
 1594 043a 0D       		.uleb128 0xd
 1595 043b 693300   		.ascii	"i3\000"
 1596 043e 01       		.byte	0x1
 1597 043f 6B02     		.2byte	0x26b
 1598 0441 A2000000 		.4byte	0xa2
 1599 0445 B4080000 		.4byte	.LLST43
 1600 0449 0D       		.uleb128 0xd
 1601 044a 6E3100   		.ascii	"n1\000"
 1602 044d 01       		.byte	0x1
 1603 044e 6C02     		.2byte	0x26c
 1604 0450 A2000000 		.4byte	0xa2
 1605 0454 D2080000 		.4byte	.LLST44
 1606 0458 0D       		.uleb128 0xd
 1607 0459 6E3200   		.ascii	"n2\000"
 1608 045c 01       		.byte	0x1
 1609 045d 6C02     		.2byte	0x26c
 1610 045f A2000000 		.4byte	0xa2
 1611 0463 FF080000 		.4byte	.LLST45
 1612 0467 0D       		.uleb128 0xd
 1613 0468 6A00     		.ascii	"j\000"
 1614 046a 01       		.byte	0x1
 1615 046b 6C02     		.2byte	0x26c
 1616 046d A2000000 		.4byte	0xa2
 1617 0471 5C090000 		.4byte	.LLST46
 1618 0475 0D       		.uleb128 0xd
 1619 0476 6B00     		.ascii	"k\000"
 1620 0478 01       		.byte	0x1
 1621 0479 6C02     		.2byte	0x26c
 1622 047b A2000000 		.4byte	0xa2
 1623 047f 87090000 		.4byte	.LLST47
 1624 0483 0D       		.uleb128 0xd
 1625 0484 743100   		.ascii	"t1\000"
 1626 0487 01       		.byte	0x1
 1627 0488 EF03     		.2byte	0x3ef
 1628 048a D0000000 		.4byte	0xd0
 1629 048e C8090000 		.4byte	.LLST48
 1630 0492 0D       		.uleb128 0xd
ARM GAS  C:\Users\IVYLIU~1\AppData\Local\Temp\ccHWxCbk.s 			page 51


 1631 0493 743200   		.ascii	"t2\000"
 1632 0496 01       		.byte	0x1
 1633 0497 EF03     		.2byte	0x3ef
 1634 0499 D0000000 		.4byte	0xd0
 1635 049d 440A0000 		.4byte	.LLST49
 1636 04a1 0D       		.uleb128 0xd
 1637 04a2 723100   		.ascii	"r1\000"
 1638 04a5 01       		.byte	0x1
 1639 04a6 EF03     		.2byte	0x3ef
 1640 04a8 D0000000 		.4byte	0xd0
 1641 04ac C20A0000 		.4byte	.LLST50
 1642 04b0 0D       		.uleb128 0xd
 1643 04b1 723200   		.ascii	"r2\000"
 1644 04b4 01       		.byte	0x1
 1645 04b5 EF03     		.2byte	0x3ef
 1646 04b7 D0000000 		.4byte	0xd0
 1647 04bb 580B0000 		.4byte	.LLST51
 1648 04bf 0D       		.uleb128 0xd
 1649 04c0 733100   		.ascii	"s1\000"
 1650 04c3 01       		.byte	0x1
 1651 04c4 EF03     		.2byte	0x3ef
 1652 04c6 D0000000 		.4byte	0xd0
 1653 04ca BC0B0000 		.4byte	.LLST52
 1654 04ce 0D       		.uleb128 0xd
 1655 04cf 733200   		.ascii	"s2\000"
 1656 04d2 01       		.byte	0x1
 1657 04d3 EF03     		.2byte	0x3ef
 1658 04d5 D0000000 		.4byte	0xd0
 1659 04d9 4E0C0000 		.4byte	.LLST53
 1660 04dd 00       		.byte	0
 1661 04de 11       		.uleb128 0x11
 1662 04df 0B020000 		.4byte	.LASF34
 1663 04e3 01       		.byte	0x1
 1664 04e4 47       		.byte	0x47
 1665 04e5 00000000 		.4byte	.LFB84
 1666 04e9 42000000 		.4byte	.LFE84-.LFB84
 1667 04ed 01       		.uleb128 0x1
 1668 04ee 9C       		.byte	0x9c
 1669 04ef 48050000 		.4byte	0x548
 1670 04f3 12       		.uleb128 0x12
 1671 04f4 5300     		.ascii	"S\000"
 1672 04f6 01       		.byte	0x1
 1673 04f7 48       		.byte	0x48
 1674 04f8 48050000 		.4byte	0x548
 1675 04fc B40C0000 		.4byte	.LLST54
 1676 0500 0B       		.uleb128 0xb
 1677 0501 11010000 		.4byte	.LASF30
 1678 0505 01       		.byte	0x1
 1679 0506 49       		.byte	0x49
 1680 0507 12030000 		.4byte	0x312
 1681 050b E80C0000 		.4byte	.LLST55
 1682 050f 13       		.uleb128 0x13
 1683 0510 1E000000 		.4byte	.LVL265
 1684 0514 18030000 		.4byte	0x318
 1685 0518 23050000 		.4byte	0x523
 1686 051c 14       		.uleb128 0x14
 1687 051d 01       		.uleb128 0x1
ARM GAS  C:\Users\IVYLIU~1\AppData\Local\Temp\ccHWxCbk.s 			page 52


 1688 051e 50       		.byte	0x50
 1689 051f 02       		.uleb128 0x2
 1690 0520 75       		.byte	0x75
 1691 0521 00       		.sleb128 0
 1692 0522 00       		.byte	0
 1693 0523 13       		.uleb128 0x13
 1694 0524 2C000000 		.4byte	.LVL269
 1695 0528 71010000 		.4byte	0x171
 1696 052c 37050000 		.4byte	0x537
 1697 0530 14       		.uleb128 0x14
 1698 0531 01       		.uleb128 0x1
 1699 0532 50       		.byte	0x50
 1700 0533 02       		.uleb128 0x2
 1701 0534 75       		.byte	0x75
 1702 0535 00       		.sleb128 0
 1703 0536 00       		.byte	0
 1704 0537 15       		.uleb128 0x15
 1705 0538 3E000000 		.4byte	.LVL270
 1706 053c F3050000 		.4byte	0x5f3
 1707 0540 14       		.uleb128 0x14
 1708 0541 01       		.uleb128 0x1
 1709 0542 50       		.byte	0x50
 1710 0543 02       		.uleb128 0x2
 1711 0544 75       		.byte	0x75
 1712 0545 00       		.sleb128 0
 1713 0546 00       		.byte	0
 1714 0547 00       		.byte	0
 1715 0548 06       		.uleb128 0x6
 1716 0549 04       		.byte	0x4
 1717 054a 4E050000 		.4byte	0x54e
 1718 054e 07       		.uleb128 0x7
 1719 054f 5B010000 		.4byte	0x15b
 1720 0553 03       		.uleb128 0x3
 1721 0554 00000000 		.4byte	.LASF35
 1722 0558 06       		.byte	0x6
 1723 0559 8B       		.byte	0x8b
 1724 055a C6050000 		.4byte	0x5c6
 1725 055e 06       		.uleb128 0x6
 1726 055f 04       		.byte	0x4
 1727 0560 A2000000 		.4byte	0xa2
 1728 0564 16       		.uleb128 0x16
 1729 0565 EF000000 		.4byte	.LASF36
 1730 0569 06       		.byte	0x6
 1731 056a 92       		.byte	0x92
 1732 056b 6F050000 		.4byte	0x56f
 1733 056f 07       		.uleb128 0x7
 1734 0570 53050000 		.4byte	0x553
 1735 0574 16       		.uleb128 0x16
 1736 0575 5C000000 		.4byte	.LASF37
 1737 0579 06       		.byte	0x6
 1738 057a 93       		.byte	0x93
 1739 057b 6F050000 		.4byte	0x56f
 1740 057f 03       		.uleb128 0x3
 1741 0580 0F000000 		.4byte	.LASF38
 1742 0584 06       		.byte	0x6
 1743 0585 90       		.byte	0x90
 1744 0586 A5050000 		.4byte	0x5a5
ARM GAS  C:\Users\IVYLIU~1\AppData\Local\Temp\ccHWxCbk.s 			page 53


 1745 058a 16       		.uleb128 0x16
 1746 058b 89000000 		.4byte	.LASF39
 1747 058f 06       		.byte	0x6
 1748 0590 94       		.byte	0x94
 1749 0591 95050000 		.4byte	0x595
 1750 0595 07       		.uleb128 0x7
 1751 0596 7F050000 		.4byte	0x57f
 1752 059a 16       		.uleb128 0x16
 1753 059b 98020000 		.4byte	.LASF40
 1754 059f 06       		.byte	0x6
 1755 05a0 95       		.byte	0x95
 1756 05a1 95050000 		.4byte	0x595
 1757 05a5 08       		.uleb128 0x8
 1758 05a6 08       		.byte	0x8
 1759 05a7 06       		.byte	0x6
 1760 05a8 8D       		.byte	0x8d
 1761 05a9 C6050000 		.4byte	0x5c6
 1762 05ad 09       		.uleb128 0x9
 1763 05ae A1010000 		.4byte	.LASF41
 1764 05b2 06       		.byte	0x6
 1765 05b3 8E       		.byte	0x8e
 1766 05b4 5E050000 		.4byte	0x55e
 1767 05b8 00       		.byte	0
 1768 05b9 09       		.uleb128 0x9
 1769 05ba A6010000 		.4byte	.LASF42
 1770 05be 06       		.byte	0x6
 1771 05bf 8F       		.byte	0x8f
 1772 05c0 A2000000 		.4byte	0xa2
 1773 05c4 04       		.byte	0x4
 1774 05c5 00       		.byte	0
 1775 05c6 08       		.uleb128 0x8
 1776 05c7 0C       		.byte	0xc
 1777 05c8 06       		.byte	0x6
 1778 05c9 87       		.byte	0x87
 1779 05ca F3050000 		.4byte	0x5f3
 1780 05ce 17       		.uleb128 0x17
 1781 05cf 73726300 		.ascii	"src\000"
 1782 05d3 06       		.byte	0x6
 1783 05d4 88       		.byte	0x88
 1784 05d5 66010000 		.4byte	0x166
 1785 05d9 00       		.byte	0
 1786 05da 09       		.uleb128 0x9
 1787 05db A1010000 		.4byte	.LASF41
 1788 05df 06       		.byte	0x6
 1789 05e0 89       		.byte	0x89
 1790 05e1 5E050000 		.4byte	0x55e
 1791 05e5 04       		.byte	0x4
 1792 05e6 09       		.uleb128 0x9
 1793 05e7 A6010000 		.4byte	.LASF42
 1794 05eb 06       		.byte	0x6
 1795 05ec 8A       		.byte	0x8a
 1796 05ed A2000000 		.4byte	0xa2
 1797 05f1 08       		.byte	0x8
 1798 05f2 00       		.byte	0
 1799 05f3 18       		.uleb128 0x18
 1800 05f4 28010000 		.4byte	.LASF46
 1801 05f8 01       		.byte	0x1
ARM GAS  C:\Users\IVYLIU~1\AppData\Local\Temp\ccHWxCbk.s 			page 54


 1802 05f9 1F       		.byte	0x1f
 1803 05fa 19       		.uleb128 0x19
 1804 05fb 12030000 		.4byte	0x312
 1805 05ff 19       		.uleb128 0x19
 1806 0600 97000000 		.4byte	0x97
 1807 0604 19       		.uleb128 0x19
 1808 0605 97000000 		.4byte	0x97
 1809 0609 19       		.uleb128 0x19
 1810 060a DC000000 		.4byte	0xdc
 1811 060e 00       		.byte	0
 1812 060f 00       		.byte	0
 1813              		.section	.debug_abbrev,"",%progbits
 1814              	.Ldebug_abbrev0:
 1815 0000 01       		.uleb128 0x1
 1816 0001 11       		.uleb128 0x11
 1817 0002 01       		.byte	0x1
 1818 0003 25       		.uleb128 0x25
 1819 0004 0E       		.uleb128 0xe
 1820 0005 13       		.uleb128 0x13
 1821 0006 0B       		.uleb128 0xb
 1822 0007 03       		.uleb128 0x3
 1823 0008 0E       		.uleb128 0xe
 1824 0009 1B       		.uleb128 0x1b
 1825 000a 0E       		.uleb128 0xe
 1826 000b 55       		.uleb128 0x55
 1827 000c 17       		.uleb128 0x17
 1828 000d 11       		.uleb128 0x11
 1829 000e 01       		.uleb128 0x1
 1830 000f 10       		.uleb128 0x10
 1831 0010 17       		.uleb128 0x17
 1832 0011 00       		.byte	0
 1833 0012 00       		.byte	0
 1834 0013 02       		.uleb128 0x2
 1835 0014 24       		.uleb128 0x24
 1836 0015 00       		.byte	0
 1837 0016 0B       		.uleb128 0xb
 1838 0017 0B       		.uleb128 0xb
 1839 0018 3E       		.uleb128 0x3e
 1840 0019 0B       		.uleb128 0xb
 1841 001a 03       		.uleb128 0x3
 1842 001b 0E       		.uleb128 0xe
 1843 001c 00       		.byte	0
 1844 001d 00       		.byte	0
 1845 001e 03       		.uleb128 0x3
 1846 001f 16       		.uleb128 0x16
 1847 0020 00       		.byte	0
 1848 0021 03       		.uleb128 0x3
 1849 0022 0E       		.uleb128 0xe
 1850 0023 3A       		.uleb128 0x3a
 1851 0024 0B       		.uleb128 0xb
 1852 0025 3B       		.uleb128 0x3b
 1853 0026 0B       		.uleb128 0xb
 1854 0027 49       		.uleb128 0x49
 1855 0028 13       		.uleb128 0x13
 1856 0029 00       		.byte	0
 1857 002a 00       		.byte	0
 1858 002b 04       		.uleb128 0x4
ARM GAS  C:\Users\IVYLIU~1\AppData\Local\Temp\ccHWxCbk.s 			page 55


 1859 002c 24       		.uleb128 0x24
 1860 002d 00       		.byte	0
 1861 002e 0B       		.uleb128 0xb
 1862 002f 0B       		.uleb128 0xb
 1863 0030 3E       		.uleb128 0x3e
 1864 0031 0B       		.uleb128 0xb
 1865 0032 03       		.uleb128 0x3
 1866 0033 08       		.uleb128 0x8
 1867 0034 00       		.byte	0
 1868 0035 00       		.byte	0
 1869 0036 05       		.uleb128 0x5
 1870 0037 16       		.uleb128 0x16
 1871 0038 00       		.byte	0
 1872 0039 03       		.uleb128 0x3
 1873 003a 0E       		.uleb128 0xe
 1874 003b 3A       		.uleb128 0x3a
 1875 003c 0B       		.uleb128 0xb
 1876 003d 3B       		.uleb128 0x3b
 1877 003e 05       		.uleb128 0x5
 1878 003f 49       		.uleb128 0x49
 1879 0040 13       		.uleb128 0x13
 1880 0041 00       		.byte	0
 1881 0042 00       		.byte	0
 1882 0043 06       		.uleb128 0x6
 1883 0044 0F       		.uleb128 0xf
 1884 0045 00       		.byte	0
 1885 0046 0B       		.uleb128 0xb
 1886 0047 0B       		.uleb128 0xb
 1887 0048 49       		.uleb128 0x49
 1888 0049 13       		.uleb128 0x13
 1889 004a 00       		.byte	0
 1890 004b 00       		.byte	0
 1891 004c 07       		.uleb128 0x7
 1892 004d 26       		.uleb128 0x26
 1893 004e 00       		.byte	0
 1894 004f 49       		.uleb128 0x49
 1895 0050 13       		.uleb128 0x13
 1896 0051 00       		.byte	0
 1897 0052 00       		.byte	0
 1898 0053 08       		.uleb128 0x8
 1899 0054 13       		.uleb128 0x13
 1900 0055 01       		.byte	0x1
 1901 0056 0B       		.uleb128 0xb
 1902 0057 0B       		.uleb128 0xb
 1903 0058 3A       		.uleb128 0x3a
 1904 0059 0B       		.uleb128 0xb
 1905 005a 3B       		.uleb128 0x3b
 1906 005b 0B       		.uleb128 0xb
 1907 005c 01       		.uleb128 0x1
 1908 005d 13       		.uleb128 0x13
 1909 005e 00       		.byte	0
 1910 005f 00       		.byte	0
 1911 0060 09       		.uleb128 0x9
 1912 0061 0D       		.uleb128 0xd
 1913 0062 00       		.byte	0
 1914 0063 03       		.uleb128 0x3
 1915 0064 0E       		.uleb128 0xe
ARM GAS  C:\Users\IVYLIU~1\AppData\Local\Temp\ccHWxCbk.s 			page 56


 1916 0065 3A       		.uleb128 0x3a
 1917 0066 0B       		.uleb128 0xb
 1918 0067 3B       		.uleb128 0x3b
 1919 0068 0B       		.uleb128 0xb
 1920 0069 49       		.uleb128 0x49
 1921 006a 13       		.uleb128 0x13
 1922 006b 38       		.uleb128 0x38
 1923 006c 0B       		.uleb128 0xb
 1924 006d 00       		.byte	0
 1925 006e 00       		.byte	0
 1926 006f 0A       		.uleb128 0xa
 1927 0070 2E       		.uleb128 0x2e
 1928 0071 01       		.byte	0x1
 1929 0072 3F       		.uleb128 0x3f
 1930 0073 19       		.uleb128 0x19
 1931 0074 03       		.uleb128 0x3
 1932 0075 0E       		.uleb128 0xe
 1933 0076 3A       		.uleb128 0x3a
 1934 0077 0B       		.uleb128 0xb
 1935 0078 3B       		.uleb128 0x3b
 1936 0079 0B       		.uleb128 0xb
 1937 007a 27       		.uleb128 0x27
 1938 007b 19       		.uleb128 0x19
 1939 007c 11       		.uleb128 0x11
 1940 007d 01       		.uleb128 0x1
 1941 007e 12       		.uleb128 0x12
 1942 007f 06       		.uleb128 0x6
 1943 0080 40       		.uleb128 0x40
 1944 0081 18       		.uleb128 0x18
 1945 0082 9642     		.uleb128 0x2116
 1946 0084 19       		.uleb128 0x19
 1947 0085 01       		.uleb128 0x1
 1948 0086 13       		.uleb128 0x13
 1949 0087 00       		.byte	0
 1950 0088 00       		.byte	0
 1951 0089 0B       		.uleb128 0xb
 1952 008a 05       		.uleb128 0x5
 1953 008b 00       		.byte	0
 1954 008c 03       		.uleb128 0x3
 1955 008d 0E       		.uleb128 0xe
 1956 008e 3A       		.uleb128 0x3a
 1957 008f 0B       		.uleb128 0xb
 1958 0090 3B       		.uleb128 0x3b
 1959 0091 0B       		.uleb128 0xb
 1960 0092 49       		.uleb128 0x49
 1961 0093 13       		.uleb128 0x13
 1962 0094 02       		.uleb128 0x2
 1963 0095 17       		.uleb128 0x17
 1964 0096 00       		.byte	0
 1965 0097 00       		.byte	0
 1966 0098 0C       		.uleb128 0xc
 1967 0099 34       		.uleb128 0x34
 1968 009a 00       		.byte	0
 1969 009b 03       		.uleb128 0x3
 1970 009c 08       		.uleb128 0x8
 1971 009d 3A       		.uleb128 0x3a
 1972 009e 0B       		.uleb128 0xb
ARM GAS  C:\Users\IVYLIU~1\AppData\Local\Temp\ccHWxCbk.s 			page 57


 1973 009f 3B       		.uleb128 0x3b
 1974 00a0 0B       		.uleb128 0xb
 1975 00a1 49       		.uleb128 0x49
 1976 00a2 13       		.uleb128 0x13
 1977 00a3 02       		.uleb128 0x2
 1978 00a4 17       		.uleb128 0x17
 1979 00a5 00       		.byte	0
 1980 00a6 00       		.byte	0
 1981 00a7 0D       		.uleb128 0xd
 1982 00a8 34       		.uleb128 0x34
 1983 00a9 00       		.byte	0
 1984 00aa 03       		.uleb128 0x3
 1985 00ab 08       		.uleb128 0x8
 1986 00ac 3A       		.uleb128 0x3a
 1987 00ad 0B       		.uleb128 0xb
 1988 00ae 3B       		.uleb128 0x3b
 1989 00af 05       		.uleb128 0x5
 1990 00b0 49       		.uleb128 0x49
 1991 00b1 13       		.uleb128 0x13
 1992 00b2 02       		.uleb128 0x2
 1993 00b3 17       		.uleb128 0x17
 1994 00b4 00       		.byte	0
 1995 00b5 00       		.byte	0
 1996 00b6 0E       		.uleb128 0xe
 1997 00b7 2E       		.uleb128 0x2e
 1998 00b8 01       		.byte	0x1
 1999 00b9 3F       		.uleb128 0x3f
 2000 00ba 19       		.uleb128 0x19
 2001 00bb 03       		.uleb128 0x3
 2002 00bc 0E       		.uleb128 0xe
 2003 00bd 3A       		.uleb128 0x3a
 2004 00be 0B       		.uleb128 0xb
 2005 00bf 3B       		.uleb128 0x3b
 2006 00c0 05       		.uleb128 0x5
 2007 00c1 27       		.uleb128 0x27
 2008 00c2 19       		.uleb128 0x19
 2009 00c3 11       		.uleb128 0x11
 2010 00c4 01       		.uleb128 0x1
 2011 00c5 12       		.uleb128 0x12
 2012 00c6 06       		.uleb128 0x6
 2013 00c7 40       		.uleb128 0x40
 2014 00c8 18       		.uleb128 0x18
 2015 00c9 9642     		.uleb128 0x2116
 2016 00cb 19       		.uleb128 0x19
 2017 00cc 01       		.uleb128 0x1
 2018 00cd 13       		.uleb128 0x13
 2019 00ce 00       		.byte	0
 2020 00cf 00       		.byte	0
 2021 00d0 0F       		.uleb128 0xf
 2022 00d1 05       		.uleb128 0x5
 2023 00d2 00       		.byte	0
 2024 00d3 03       		.uleb128 0x3
 2025 00d4 0E       		.uleb128 0xe
 2026 00d5 3A       		.uleb128 0x3a
 2027 00d6 0B       		.uleb128 0xb
 2028 00d7 3B       		.uleb128 0x3b
 2029 00d8 05       		.uleb128 0x5
ARM GAS  C:\Users\IVYLIU~1\AppData\Local\Temp\ccHWxCbk.s 			page 58


 2030 00d9 49       		.uleb128 0x49
 2031 00da 13       		.uleb128 0x13
 2032 00db 02       		.uleb128 0x2
 2033 00dc 17       		.uleb128 0x17
 2034 00dd 00       		.byte	0
 2035 00de 00       		.byte	0
 2036 00df 10       		.uleb128 0x10
 2037 00e0 05       		.uleb128 0x5
 2038 00e1 00       		.byte	0
 2039 00e2 03       		.uleb128 0x3
 2040 00e3 0E       		.uleb128 0xe
 2041 00e4 3A       		.uleb128 0x3a
 2042 00e5 0B       		.uleb128 0xb
 2043 00e6 3B       		.uleb128 0x3b
 2044 00e7 05       		.uleb128 0x5
 2045 00e8 49       		.uleb128 0x49
 2046 00e9 13       		.uleb128 0x13
 2047 00ea 02       		.uleb128 0x2
 2048 00eb 18       		.uleb128 0x18
 2049 00ec 00       		.byte	0
 2050 00ed 00       		.byte	0
 2051 00ee 11       		.uleb128 0x11
 2052 00ef 2E       		.uleb128 0x2e
 2053 00f0 01       		.byte	0x1
 2054 00f1 3F       		.uleb128 0x3f
 2055 00f2 19       		.uleb128 0x19
 2056 00f3 03       		.uleb128 0x3
 2057 00f4 0E       		.uleb128 0xe
 2058 00f5 3A       		.uleb128 0x3a
 2059 00f6 0B       		.uleb128 0xb
 2060 00f7 3B       		.uleb128 0x3b
 2061 00f8 0B       		.uleb128 0xb
 2062 00f9 27       		.uleb128 0x27
 2063 00fa 19       		.uleb128 0x19
 2064 00fb 11       		.uleb128 0x11
 2065 00fc 01       		.uleb128 0x1
 2066 00fd 12       		.uleb128 0x12
 2067 00fe 06       		.uleb128 0x6
 2068 00ff 40       		.uleb128 0x40
 2069 0100 18       		.uleb128 0x18
 2070 0101 9742     		.uleb128 0x2117
 2071 0103 19       		.uleb128 0x19
 2072 0104 01       		.uleb128 0x1
 2073 0105 13       		.uleb128 0x13
 2074 0106 00       		.byte	0
 2075 0107 00       		.byte	0
 2076 0108 12       		.uleb128 0x12
 2077 0109 05       		.uleb128 0x5
 2078 010a 00       		.byte	0
 2079 010b 03       		.uleb128 0x3
 2080 010c 08       		.uleb128 0x8
 2081 010d 3A       		.uleb128 0x3a
 2082 010e 0B       		.uleb128 0xb
 2083 010f 3B       		.uleb128 0x3b
 2084 0110 0B       		.uleb128 0xb
 2085 0111 49       		.uleb128 0x49
 2086 0112 13       		.uleb128 0x13
ARM GAS  C:\Users\IVYLIU~1\AppData\Local\Temp\ccHWxCbk.s 			page 59


 2087 0113 02       		.uleb128 0x2
 2088 0114 17       		.uleb128 0x17
 2089 0115 00       		.byte	0
 2090 0116 00       		.byte	0
 2091 0117 13       		.uleb128 0x13
 2092 0118 898201   		.uleb128 0x4109
 2093 011b 01       		.byte	0x1
 2094 011c 11       		.uleb128 0x11
 2095 011d 01       		.uleb128 0x1
 2096 011e 31       		.uleb128 0x31
 2097 011f 13       		.uleb128 0x13
 2098 0120 01       		.uleb128 0x1
 2099 0121 13       		.uleb128 0x13
 2100 0122 00       		.byte	0
 2101 0123 00       		.byte	0
 2102 0124 14       		.uleb128 0x14
 2103 0125 8A8201   		.uleb128 0x410a
 2104 0128 00       		.byte	0
 2105 0129 02       		.uleb128 0x2
 2106 012a 18       		.uleb128 0x18
 2107 012b 9142     		.uleb128 0x2111
 2108 012d 18       		.uleb128 0x18
 2109 012e 00       		.byte	0
 2110 012f 00       		.byte	0
 2111 0130 15       		.uleb128 0x15
 2112 0131 898201   		.uleb128 0x4109
 2113 0134 01       		.byte	0x1
 2114 0135 11       		.uleb128 0x11
 2115 0136 01       		.uleb128 0x1
 2116 0137 31       		.uleb128 0x31
 2117 0138 13       		.uleb128 0x13
 2118 0139 00       		.byte	0
 2119 013a 00       		.byte	0
 2120 013b 16       		.uleb128 0x16
 2121 013c 34       		.uleb128 0x34
 2122 013d 00       		.byte	0
 2123 013e 03       		.uleb128 0x3
 2124 013f 0E       		.uleb128 0xe
 2125 0140 3A       		.uleb128 0x3a
 2126 0141 0B       		.uleb128 0xb
 2127 0142 3B       		.uleb128 0x3b
 2128 0143 0B       		.uleb128 0xb
 2129 0144 49       		.uleb128 0x49
 2130 0145 13       		.uleb128 0x13
 2131 0146 3F       		.uleb128 0x3f
 2132 0147 19       		.uleb128 0x19
 2133 0148 3C       		.uleb128 0x3c
 2134 0149 19       		.uleb128 0x19
 2135 014a 00       		.byte	0
 2136 014b 00       		.byte	0
 2137 014c 17       		.uleb128 0x17
 2138 014d 0D       		.uleb128 0xd
 2139 014e 00       		.byte	0
 2140 014f 03       		.uleb128 0x3
 2141 0150 08       		.uleb128 0x8
 2142 0151 3A       		.uleb128 0x3a
 2143 0152 0B       		.uleb128 0xb
ARM GAS  C:\Users\IVYLIU~1\AppData\Local\Temp\ccHWxCbk.s 			page 60


 2144 0153 3B       		.uleb128 0x3b
 2145 0154 0B       		.uleb128 0xb
 2146 0155 49       		.uleb128 0x49
 2147 0156 13       		.uleb128 0x13
 2148 0157 38       		.uleb128 0x38
 2149 0158 0B       		.uleb128 0xb
 2150 0159 00       		.byte	0
 2151 015a 00       		.byte	0
 2152 015b 18       		.uleb128 0x18
 2153 015c 2E       		.uleb128 0x2e
 2154 015d 01       		.byte	0x1
 2155 015e 3F       		.uleb128 0x3f
 2156 015f 19       		.uleb128 0x19
 2157 0160 03       		.uleb128 0x3
 2158 0161 0E       		.uleb128 0xe
 2159 0162 3A       		.uleb128 0x3a
 2160 0163 0B       		.uleb128 0xb
 2161 0164 3B       		.uleb128 0x3b
 2162 0165 0B       		.uleb128 0xb
 2163 0166 27       		.uleb128 0x27
 2164 0167 19       		.uleb128 0x19
 2165 0168 3C       		.uleb128 0x3c
 2166 0169 19       		.uleb128 0x19
 2167 016a 00       		.byte	0
 2168 016b 00       		.byte	0
 2169 016c 19       		.uleb128 0x19
 2170 016d 05       		.uleb128 0x5
 2171 016e 00       		.byte	0
 2172 016f 49       		.uleb128 0x49
 2173 0170 13       		.uleb128 0x13
 2174 0171 00       		.byte	0
 2175 0172 00       		.byte	0
 2176 0173 00       		.byte	0
 2177              		.section	.debug_loc,"",%progbits
 2178              	.Ldebug_loc0:
 2179              	.LLST0:
 2180 0000 00000000 		.4byte	.LVL0
 2181 0004 14000000 		.4byte	.LVL2
 2182 0008 0100     		.2byte	0x1
 2183 000a 50       		.byte	0x50
 2184 000b 14000000 		.4byte	.LVL2
 2185 000f 22000000 		.4byte	.LVL6
 2186 0013 0100     		.2byte	0x1
 2187 0015 58       		.byte	0x58
 2188 0016 22000000 		.4byte	.LVL6
 2189 001a 38020000 		.4byte	.LVL99
 2190 001e 0100     		.2byte	0x1
 2191 0020 5B       		.byte	0x5b
 2192 0021 38020000 		.4byte	.LVL99
 2193 0025 46020000 		.4byte	.LFE85
 2194 0029 0100     		.2byte	0x1
 2195 002b 58       		.byte	0x58
 2196 002c 00000000 		.4byte	0
 2197 0030 00000000 		.4byte	0
 2198              	.LLST1:
 2199 0034 00000000 		.4byte	.LVL0
 2200 0038 14000000 		.4byte	.LVL2
ARM GAS  C:\Users\IVYLIU~1\AppData\Local\Temp\ccHWxCbk.s 			page 61


 2201 003c 0100     		.2byte	0x1
 2202 003e 51       		.byte	0x51
 2203 003f 14000000 		.4byte	.LVL2
 2204 0043 46020000 		.4byte	.LFE85
 2205 0047 0400     		.2byte	0x4
 2206 0049 F3       		.byte	0xf3
 2207 004a 01       		.uleb128 0x1
 2208 004b 51       		.byte	0x51
 2209 004c 9F       		.byte	0x9f
 2210 004d 00000000 		.4byte	0
 2211 0051 00000000 		.4byte	0
 2212              	.LLST2:
 2213 0055 00000000 		.4byte	.LVL0
 2214 0059 14000000 		.4byte	.LVL2
 2215 005d 0100     		.2byte	0x1
 2216 005f 52       		.byte	0x52
 2217 0060 14000000 		.4byte	.LVL2
 2218 0064 46020000 		.4byte	.LFE85
 2219 0068 0200     		.2byte	0x2
 2220 006a 91       		.byte	0x91
 2221 006b 50       		.sleb128 -48
 2222 006c 00000000 		.4byte	0
 2223 0070 00000000 		.4byte	0
 2224              	.LLST3:
 2225 0074 00000000 		.4byte	.LVL0
 2226 0078 14000000 		.4byte	.LVL2
 2227 007c 0100     		.2byte	0x1
 2228 007e 53       		.byte	0x53
 2229 007f 14000000 		.4byte	.LVL2
 2230 0083 46020000 		.4byte	.LFE85
 2231 0087 0200     		.2byte	0x2
 2232 0089 91       		.byte	0x91
 2233 008a 4C       		.sleb128 -52
 2234 008b 00000000 		.4byte	0
 2235 008f 00000000 		.4byte	0
 2236              	.LLST4:
 2237 0093 30000000 		.4byte	.LVL8
 2238 0097 34000000 		.4byte	.LVL9
 2239 009b 0100     		.2byte	0x1
 2240 009d 52       		.byte	0x52
 2241 009e 34000000 		.4byte	.LVL9
 2242 00a2 36000000 		.4byte	.LVL10
 2243 00a6 0200     		.2byte	0x2
 2244 00a8 72       		.byte	0x72
 2245 00a9 00       		.sleb128 0
 2246 00aa 36000000 		.4byte	.LVL10
 2247 00ae 58000000 		.4byte	.LVL20
 2248 00b2 0800     		.2byte	0x8
 2249 00b4 91       		.byte	0x91
 2250 00b5 48       		.sleb128 -56
 2251 00b6 06       		.byte	0x6
 2252 00b7 33       		.byte	0x33
 2253 00b8 24       		.byte	0x24
 2254 00b9 71       		.byte	0x71
 2255 00ba 00       		.sleb128 0
 2256 00bb 22       		.byte	0x22
 2257 00bc 58000000 		.4byte	.LVL20
ARM GAS  C:\Users\IVYLIU~1\AppData\Local\Temp\ccHWxCbk.s 			page 62


 2258 00c0 5A000000 		.4byte	.LVL21
 2259 00c4 0700     		.2byte	0x7
 2260 00c6 75       		.byte	0x75
 2261 00c7 00       		.sleb128 0
 2262 00c8 33       		.byte	0x33
 2263 00c9 24       		.byte	0x24
 2264 00ca 71       		.byte	0x71
 2265 00cb 00       		.sleb128 0
 2266 00cc 22       		.byte	0x22
 2267 00cd 5A000000 		.4byte	.LVL21
 2268 00d1 38020000 		.4byte	.LVL99
 2269 00d5 0300     		.2byte	0x3
 2270 00d7 91       		.byte	0x91
 2271 00d8 907F     		.sleb128 -112
 2272 00da 00000000 		.4byte	0
 2273 00de 00000000 		.4byte	0
 2274              	.LLST5:
 2275 00e2 3E000000 		.4byte	.LVL13
 2276 00e6 5A000000 		.4byte	.LVL21
 2277 00ea 0100     		.2byte	0x1
 2278 00ec 50       		.byte	0x50
 2279 00ed 5A000000 		.4byte	.LVL21
 2280 00f1 38020000 		.4byte	.LVL99
 2281 00f5 0300     		.2byte	0x3
 2282 00f7 91       		.byte	0x91
 2283 00f8 987F     		.sleb128 -104
 2284 00fa 00000000 		.4byte	0
 2285 00fe 00000000 		.4byte	0
 2286              	.LLST6:
 2287 0102 4A000000 		.4byte	.LVL16
 2288 0106 5A000000 		.4byte	.LVL21
 2289 010a 0100     		.2byte	0x1
 2290 010c 52       		.byte	0x52
 2291 010d 5A000000 		.4byte	.LVL21
 2292 0111 38020000 		.4byte	.LVL99
 2293 0115 0300     		.2byte	0x3
 2294 0117 91       		.byte	0x91
 2295 0118 A07F     		.sleb128 -96
 2296 011a 00000000 		.4byte	0
 2297 011e 00000000 		.4byte	0
 2298              	.LLST7:
 2299 0122 38000000 		.4byte	.LVL11
 2300 0126 3A000000 		.4byte	.LVL12
 2301 012a 0100     		.2byte	0x1
 2302 012c 52       		.byte	0x52
 2303 012d 3A000000 		.4byte	.LVL12
 2304 0131 58000000 		.4byte	.LVL20
 2305 0135 0A00     		.2byte	0xa
 2306 0137 91       		.byte	0x91
 2307 0138 48       		.sleb128 -56
 2308 0139 06       		.byte	0x6
 2309 013a 33       		.byte	0x33
 2310 013b 24       		.byte	0x24
 2311 013c 71       		.byte	0x71
 2312 013d 00       		.sleb128 0
 2313 013e 22       		.byte	0x22
 2314 013f 23       		.byte	0x23
ARM GAS  C:\Users\IVYLIU~1\AppData\Local\Temp\ccHWxCbk.s 			page 63


 2315 0140 04       		.uleb128 0x4
 2316 0141 58000000 		.4byte	.LVL20
 2317 0145 5A000000 		.4byte	.LVL21
 2318 0149 0900     		.2byte	0x9
 2319 014b 75       		.byte	0x75
 2320 014c 00       		.sleb128 0
 2321 014d 33       		.byte	0x33
 2322 014e 24       		.byte	0x24
 2323 014f 71       		.byte	0x71
 2324 0150 00       		.sleb128 0
 2325 0151 22       		.byte	0x22
 2326 0152 23       		.byte	0x23
 2327 0153 04       		.uleb128 0x4
 2328 0154 5A000000 		.4byte	.LVL21
 2329 0158 38020000 		.4byte	.LVL99
 2330 015c 0300     		.2byte	0x3
 2331 015e 91       		.byte	0x91
 2332 015f 947F     		.sleb128 -108
 2333 0161 00000000 		.4byte	0
 2334 0165 00000000 		.4byte	0
 2335              	.LLST8:
 2336 0169 44000000 		.4byte	.LVL14
 2337 016d 48000000 		.4byte	.LVL15
 2338 0171 0100     		.2byte	0x1
 2339 0173 52       		.byte	0x52
 2340 0174 48000000 		.4byte	.LVL15
 2341 0178 58000000 		.4byte	.LVL20
 2342 017c 0A00     		.2byte	0xa
 2343 017e 91       		.byte	0x91
 2344 017f 48       		.sleb128 -56
 2345 0180 06       		.byte	0x6
 2346 0181 34       		.byte	0x34
 2347 0182 24       		.byte	0x24
 2348 0183 71       		.byte	0x71
 2349 0184 00       		.sleb128 0
 2350 0185 22       		.byte	0x22
 2351 0186 23       		.byte	0x23
 2352 0187 04       		.uleb128 0x4
 2353 0188 58000000 		.4byte	.LVL20
 2354 018c 5A000000 		.4byte	.LVL21
 2355 0190 0900     		.2byte	0x9
 2356 0192 75       		.byte	0x75
 2357 0193 00       		.sleb128 0
 2358 0194 34       		.byte	0x34
 2359 0195 24       		.byte	0x24
 2360 0196 71       		.byte	0x71
 2361 0197 00       		.sleb128 0
 2362 0198 22       		.byte	0x22
 2363 0199 23       		.byte	0x23
 2364 019a 04       		.uleb128 0x4
 2365 019b 5A000000 		.4byte	.LVL21
 2366 019f 38020000 		.4byte	.LVL99
 2367 01a3 0300     		.2byte	0x3
 2368 01a5 91       		.byte	0x91
 2369 01a6 9C7F     		.sleb128 -100
 2370 01a8 00000000 		.4byte	0
 2371 01ac 00000000 		.4byte	0
ARM GAS  C:\Users\IVYLIU~1\AppData\Local\Temp\ccHWxCbk.s 			page 64


 2372              	.LLST9:
 2373 01b0 52000000 		.4byte	.LVL18
 2374 01b4 54000000 		.4byte	.LVL19
 2375 01b8 0100     		.2byte	0x1
 2376 01ba 53       		.byte	0x53
 2377 01bb 54000000 		.4byte	.LVL19
 2378 01bf 58000000 		.4byte	.LVL20
 2379 01c3 0C00     		.2byte	0xc
 2380 01c5 91       		.byte	0x91
 2381 01c6 48       		.sleb128 -56
 2382 01c7 06       		.byte	0x6
 2383 01c8 33       		.byte	0x33
 2384 01c9 1E       		.byte	0x1e
 2385 01ca 33       		.byte	0x33
 2386 01cb 24       		.byte	0x24
 2387 01cc 71       		.byte	0x71
 2388 01cd 00       		.sleb128 0
 2389 01ce 22       		.byte	0x22
 2390 01cf 23       		.byte	0x23
 2391 01d0 04       		.uleb128 0x4
 2392 01d1 58000000 		.4byte	.LVL20
 2393 01d5 5A000000 		.4byte	.LVL21
 2394 01d9 0E00     		.2byte	0xe
 2395 01db 75       		.byte	0x75
 2396 01dc 00       		.sleb128 0
 2397 01dd 31       		.byte	0x31
 2398 01de 24       		.byte	0x24
 2399 01df 75       		.byte	0x75
 2400 01e0 00       		.sleb128 0
 2401 01e1 22       		.byte	0x22
 2402 01e2 33       		.byte	0x33
 2403 01e3 24       		.byte	0x24
 2404 01e4 71       		.byte	0x71
 2405 01e5 00       		.sleb128 0
 2406 01e6 22       		.byte	0x22
 2407 01e7 23       		.byte	0x23
 2408 01e8 04       		.uleb128 0x4
 2409 01e9 5A000000 		.4byte	.LVL21
 2410 01ed 38020000 		.4byte	.LVL99
 2411 01f1 0300     		.2byte	0x3
 2412 01f3 91       		.byte	0x91
 2413 01f4 B87F     		.sleb128 -72
 2414 01f6 00000000 		.4byte	0
 2415 01fa 00000000 		.4byte	0
 2416              	.LLST10:
 2417 01fe 1A000000 		.4byte	.LVL4
 2418 0202 22000000 		.4byte	.LVL6
 2419 0206 0200     		.2byte	0x2
 2420 0208 30       		.byte	0x30
 2421 0209 9F       		.byte	0x9f
 2422 020a 22000000 		.4byte	.LVL6
 2423 020e 58000000 		.4byte	.LVL20
 2424 0212 0200     		.2byte	0x2
 2425 0214 91       		.byte	0x91
 2426 0215 48       		.sleb128 -56
 2427 0216 58000000 		.4byte	.LVL20
 2428 021a 5A000000 		.4byte	.LVL21
ARM GAS  C:\Users\IVYLIU~1\AppData\Local\Temp\ccHWxCbk.s 			page 65


 2429 021e 0100     		.2byte	0x1
 2430 0220 53       		.byte	0x53
 2431 0221 5A000000 		.4byte	.LVL21
 2432 0225 38020000 		.4byte	.LVL99
 2433 0229 0200     		.2byte	0x2
 2434 022b 91       		.byte	0x91
 2435 022c 48       		.sleb128 -56
 2436 022d 00000000 		.4byte	0
 2437 0231 00000000 		.4byte	0
 2438              	.LLST11:
 2439 0235 22000000 		.4byte	.LVL6
 2440 0239 58000000 		.4byte	.LVL20
 2441 023d 0600     		.2byte	0x6
 2442 023f 91       		.byte	0x91
 2443 0240 48       		.sleb128 -56
 2444 0241 06       		.byte	0x6
 2445 0242 31       		.byte	0x31
 2446 0243 24       		.byte	0x24
 2447 0244 9F       		.byte	0x9f
 2448 0245 58000000 		.4byte	.LVL20
 2449 0249 5A000000 		.4byte	.LVL21
 2450 024d 0500     		.2byte	0x5
 2451 024f 75       		.byte	0x75
 2452 0250 00       		.sleb128 0
 2453 0251 31       		.byte	0x31
 2454 0252 24       		.byte	0x24
 2455 0253 9F       		.byte	0x9f
 2456 0254 00000000 		.4byte	0
 2457 0258 00000000 		.4byte	0
 2458              	.LLST12:
 2459 025c 28000000 		.4byte	.LVL7
 2460 0260 4E000000 		.4byte	.LVL17
 2461 0264 0100     		.2byte	0x1
 2462 0266 53       		.byte	0x53
 2463 0267 4E000000 		.4byte	.LVL17
 2464 026b 58000000 		.4byte	.LVL20
 2465 026f 0600     		.2byte	0x6
 2466 0271 91       		.byte	0x91
 2467 0272 48       		.sleb128 -56
 2468 0273 06       		.byte	0x6
 2469 0274 33       		.byte	0x33
 2470 0275 1E       		.byte	0x1e
 2471 0276 9F       		.byte	0x9f
 2472 0277 58000000 		.4byte	.LVL20
 2473 027b 5A000000 		.4byte	.LVL21
 2474 027f 0800     		.2byte	0x8
 2475 0281 75       		.byte	0x75
 2476 0282 00       		.sleb128 0
 2477 0283 31       		.byte	0x31
 2478 0284 24       		.byte	0x24
 2479 0285 75       		.byte	0x75
 2480 0286 00       		.sleb128 0
 2481 0287 22       		.byte	0x22
 2482 0288 9F       		.byte	0x9f
 2483 0289 00000000 		.4byte	0
 2484 028d 00000000 		.4byte	0
 2485              	.LLST13:
ARM GAS  C:\Users\IVYLIU~1\AppData\Local\Temp\ccHWxCbk.s 			page 66


 2486 0291 58000000 		.4byte	.LVL20
 2487 0295 5A000000 		.4byte	.LVL21
 2488 0299 0200     		.2byte	0x2
 2489 029b 91       		.byte	0x91
 2490 029c 44       		.sleb128 -60
 2491 029d 5A000000 		.4byte	.LVL21
 2492 02a1 38020000 		.4byte	.LVL99
 2493 02a5 0100     		.2byte	0x1
 2494 02a7 57       		.byte	0x57
 2495 02a8 00000000 		.4byte	0
 2496 02ac 00000000 		.4byte	0
 2497              	.LLST14:
 2498 02b0 5E000000 		.4byte	.LVL22
 2499 02b4 46010000 		.4byte	.LVL62
 2500 02b8 0100     		.2byte	0x1
 2501 02ba 55       		.byte	0x55
 2502 02bb 46010000 		.4byte	.LVL62
 2503 02bf 0A020000 		.4byte	.LVL94
 2504 02c3 0800     		.2byte	0x8
 2505 02c5 77       		.byte	0x77
 2506 02c6 00       		.sleb128 0
 2507 02c7 91       		.byte	0x91
 2508 02c8 B47F     		.sleb128 -76
 2509 02ca 06       		.byte	0x6
 2510 02cb 22       		.byte	0x22
 2511 02cc 9F       		.byte	0x9f
 2512 02cd 00000000 		.4byte	0
 2513 02d1 00000000 		.4byte	0
 2514              	.LLST15:
 2515 02d5 62000000 		.4byte	.LVL23
 2516 02d9 D2010000 		.4byte	.LVL88
 2517 02dd 0100     		.2byte	0x1
 2518 02df 58       		.byte	0x58
 2519 02e0 D2010000 		.4byte	.LVL88
 2520 02e4 0A020000 		.4byte	.LVL94
 2521 02e8 0A00     		.2byte	0xa
 2522 02ea 91       		.byte	0x91
 2523 02eb B47F     		.sleb128 -76
 2524 02ed 06       		.byte	0x6
 2525 02ee 31       		.byte	0x31
 2526 02ef 24       		.byte	0x24
 2527 02f0 77       		.byte	0x77
 2528 02f1 00       		.sleb128 0
 2529 02f2 22       		.byte	0x22
 2530 02f3 9F       		.byte	0x9f
 2531 02f4 00000000 		.4byte	0
 2532 02f8 00000000 		.4byte	0
 2533              	.LLST16:
 2534 02fc 66000000 		.4byte	.LVL24
 2535 0300 38020000 		.4byte	.LVL99
 2536 0304 0100     		.2byte	0x1
 2537 0306 59       		.byte	0x59
 2538 0307 00000000 		.4byte	0
 2539 030b 00000000 		.4byte	0
 2540              	.LLST17:
 2541 030f 0C000000 		.4byte	.LVL1
 2542 0313 14000000 		.4byte	.LVL2
ARM GAS  C:\Users\IVYLIU~1\AppData\Local\Temp\ccHWxCbk.s 			page 67


 2543 0317 0100     		.2byte	0x1
 2544 0319 51       		.byte	0x51
 2545 031a 14000000 		.4byte	.LVL2
 2546 031e 38020000 		.4byte	.LVL99
 2547 0322 0300     		.2byte	0x3
 2548 0324 91       		.byte	0x91
 2549 0325 BC7F     		.sleb128 -68
 2550 0327 00000000 		.4byte	0
 2551 032b 00000000 		.4byte	0
 2552              	.LLST18:
 2553 032f 0C000000 		.4byte	.LVL1
 2554 0333 14000000 		.4byte	.LVL2
 2555 0337 0100     		.2byte	0x1
 2556 0339 51       		.byte	0x51
 2557 033a 14000000 		.4byte	.LVL2
 2558 033e 1A000000 		.4byte	.LVL4
 2559 0342 0300     		.2byte	0x3
 2560 0344 91       		.byte	0x91
 2561 0345 BC7F     		.sleb128 -68
 2562 0347 1A000000 		.4byte	.LVL4
 2563 034b 1C000000 		.4byte	.LVL5
 2564 034f 0100     		.2byte	0x1
 2565 0351 53       		.byte	0x53
 2566 0352 1C000000 		.4byte	.LVL5
 2567 0356 38020000 		.4byte	.LVL99
 2568 035a 0300     		.2byte	0x3
 2569 035c 91       		.byte	0x91
 2570 035d B47F     		.sleb128 -76
 2571 035f 38020000 		.4byte	.LVL99
 2572 0363 46020000 		.4byte	.LFE85
 2573 0367 0300     		.2byte	0x3
 2574 0369 91       		.byte	0x91
 2575 036a BC7F     		.sleb128 -68
 2576 036c 00000000 		.4byte	0
 2577 0370 00000000 		.4byte	0
 2578              	.LLST19:
 2579 0374 1A000000 		.4byte	.LVL4
 2580 0378 22000000 		.4byte	.LVL6
 2581 037c 0200     		.2byte	0x2
 2582 037e 30       		.byte	0x30
 2583 037f 9F       		.byte	0x9f
 2584 0380 22000000 		.4byte	.LVL6
 2585 0384 1A020000 		.4byte	.LVL95
 2586 0388 0200     		.2byte	0x2
 2587 038a 91       		.byte	0x91
 2588 038b 44       		.sleb128 -60
 2589 038c 1A020000 		.4byte	.LVL95
 2590 0390 38020000 		.4byte	.LVL99
 2591 0394 0100     		.2byte	0x1
 2592 0396 52       		.byte	0x52
 2593 0397 00000000 		.4byte	0
 2594 039b 00000000 		.4byte	0
 2595              	.LLST20:
 2596 039f 0C000000 		.4byte	.LVL1
 2597 03a3 14000000 		.4byte	.LVL2
 2598 03a7 0100     		.2byte	0x1
 2599 03a9 51       		.byte	0x51
ARM GAS  C:\Users\IVYLIU~1\AppData\Local\Temp\ccHWxCbk.s 			page 68


 2600 03aa 14000000 		.4byte	.LVL2
 2601 03ae 16000000 		.4byte	.LVL3
 2602 03b2 0100     		.2byte	0x1
 2603 03b4 53       		.byte	0x53
 2604 03b5 16000000 		.4byte	.LVL3
 2605 03b9 34020000 		.4byte	.LVL97
 2606 03bd 0200     		.2byte	0x2
 2607 03bf 91       		.byte	0x91
 2608 03c0 54       		.sleb128 -44
 2609 03c1 34020000 		.4byte	.LVL97
 2610 03c5 36020000 		.4byte	.LVL98
 2611 03c9 0100     		.2byte	0x1
 2612 03cb 53       		.byte	0x53
 2613 03cc 36020000 		.4byte	.LVL98
 2614 03d0 46020000 		.4byte	.LFE85
 2615 03d4 0200     		.2byte	0x2
 2616 03d6 91       		.byte	0x91
 2617 03d7 54       		.sleb128 -44
 2618 03d8 00000000 		.4byte	0
 2619 03dc 00000000 		.4byte	0
 2620              	.LLST21:
 2621 03e0 C2000000 		.4byte	.LVL38
 2622 03e4 C4000000 		.4byte	.LVL39
 2623 03e8 0100     		.2byte	0x1
 2624 03ea 50       		.byte	0x50
 2625 03eb C4000000 		.4byte	.LVL39
 2626 03ef C9000000 		.4byte	.LVL40-1
 2627 03f3 0100     		.2byte	0x1
 2628 03f5 51       		.byte	0x51
 2629 03f6 C9000000 		.4byte	.LVL40-1
 2630 03fa F0000000 		.4byte	.LVL47
 2631 03fe 0300     		.2byte	0x3
 2632 0400 91       		.byte	0x91
 2633 0401 AC7F     		.sleb128 -84
 2634 0403 10010000 		.4byte	.LVL53
 2635 0407 14010000 		.4byte	.LVL54
 2636 040b 0100     		.2byte	0x1
 2637 040d 50       		.byte	0x50
 2638 040e 14010000 		.4byte	.LVL54
 2639 0412 38020000 		.4byte	.LVL99
 2640 0416 0300     		.2byte	0x3
 2641 0418 91       		.byte	0x91
 2642 0419 AC7F     		.sleb128 -84
 2643 041b 00000000 		.4byte	0
 2644 041f 00000000 		.4byte	0
 2645              	.LLST22:
 2646 0423 EC000000 		.4byte	.LVL45
 2647 0427 EE000000 		.4byte	.LVL46
 2648 042b 0100     		.2byte	0x1
 2649 042d 50       		.byte	0x50
 2650 042e EE000000 		.4byte	.LVL46
 2651 0432 F3000000 		.4byte	.LVL48-1
 2652 0436 0100     		.2byte	0x1
 2653 0438 51       		.byte	0x51
 2654 0439 F3000000 		.4byte	.LVL48-1
 2655 043d 10010000 		.4byte	.LVL53
 2656 0441 0300     		.2byte	0x3
ARM GAS  C:\Users\IVYLIU~1\AppData\Local\Temp\ccHWxCbk.s 			page 69


 2657 0443 91       		.byte	0x91
 2658 0444 AC7F     		.sleb128 -84
 2659 0446 1E010000 		.4byte	.LVL56
 2660 044a 20010000 		.4byte	.LVL57
 2661 044e 0100     		.2byte	0x1
 2662 0450 50       		.byte	0x50
 2663 0451 20010000 		.4byte	.LVL57
 2664 0455 90010000 		.4byte	.LVL79
 2665 0459 0300     		.2byte	0x3
 2666 045b 91       		.byte	0x91
 2667 045c 887F     		.sleb128 -120
 2668 045e 00000000 		.4byte	0
 2669 0462 00000000 		.4byte	0
 2670              	.LLST23:
 2671 0466 80000000 		.4byte	.LVL26
 2672 046a 82000000 		.4byte	.LVL27
 2673 046e 0100     		.2byte	0x1
 2674 0470 50       		.byte	0x50
 2675 0471 82000000 		.4byte	.LVL27
 2676 0475 D8000000 		.4byte	.LVL42
 2677 0479 0300     		.2byte	0x3
 2678 047b 91       		.byte	0x91
 2679 047c 847F     		.sleb128 -124
 2680 047e D8000000 		.4byte	.LVL42
 2681 0482 E2000000 		.4byte	.LVL43
 2682 0486 0100     		.2byte	0x1
 2683 0488 50       		.byte	0x50
 2684 0489 E2000000 		.4byte	.LVL43
 2685 048d 68010000 		.4byte	.LVL67
 2686 0491 0300     		.2byte	0x3
 2687 0493 91       		.byte	0x91
 2688 0494 847F     		.sleb128 -124
 2689 0496 68010000 		.4byte	.LVL67
 2690 049a 6A010000 		.4byte	.LVL68
 2691 049e 0100     		.2byte	0x1
 2692 04a0 50       		.byte	0x50
 2693 04a1 6A010000 		.4byte	.LVL68
 2694 04a5 CE010000 		.4byte	.LVL87
 2695 04a9 0100     		.2byte	0x1
 2696 04ab 54       		.byte	0x54
 2697 04ac 00000000 		.4byte	0
 2698 04b0 00000000 		.4byte	0
 2699              	.LLST24:
 2700 04b4 8A000000 		.4byte	.LVL29
 2701 04b8 9C000000 		.4byte	.LVL30
 2702 04bc 0100     		.2byte	0x1
 2703 04be 50       		.byte	0x50
 2704 04bf 9C000000 		.4byte	.LVL30
 2705 04c3 72010000 		.4byte	.LVL70
 2706 04c7 0300     		.2byte	0x3
 2707 04c9 91       		.byte	0x91
 2708 04ca A47F     		.sleb128 -92
 2709 04cc 72010000 		.4byte	.LVL70
 2710 04d0 74010000 		.4byte	.LVL71
 2711 04d4 0100     		.2byte	0x1
 2712 04d6 50       		.byte	0x50
 2713 04d7 74010000 		.4byte	.LVL71
ARM GAS  C:\Users\IVYLIU~1\AppData\Local\Temp\ccHWxCbk.s 			page 70


 2714 04db 38020000 		.4byte	.LVL99
 2715 04df 0100     		.2byte	0x1
 2716 04e1 56       		.byte	0x56
 2717 04e2 00000000 		.4byte	0
 2718 04e6 00000000 		.4byte	0
 2719              	.LLST25:
 2720 04ea A4000000 		.4byte	.LVL32
 2721 04ee A6000000 		.4byte	.LVL33
 2722 04f2 0100     		.2byte	0x1
 2723 04f4 50       		.byte	0x50
 2724 04f5 A6000000 		.4byte	.LVL33
 2725 04f9 02010000 		.4byte	.LVL50
 2726 04fd 0300     		.2byte	0x3
 2727 04ff 91       		.byte	0x91
 2728 0500 887F     		.sleb128 -120
 2729 0502 02010000 		.4byte	.LVL50
 2730 0506 06010000 		.4byte	.LVL51
 2731 050a 0100     		.2byte	0x1
 2732 050c 50       		.byte	0x50
 2733 050d 06010000 		.4byte	.LVL51
 2734 0511 5C010000 		.4byte	.LVL65
 2735 0515 0100     		.2byte	0x1
 2736 0517 56       		.byte	0x56
 2737 0518 7C010000 		.4byte	.LVL73
 2738 051c 7E010000 		.4byte	.LVL74
 2739 0520 0100     		.2byte	0x1
 2740 0522 50       		.byte	0x50
 2741 0523 7E010000 		.4byte	.LVL74
 2742 0527 AE010000 		.4byte	.LVL83
 2743 052b 0100     		.2byte	0x1
 2744 052d 55       		.byte	0x55
 2745 052e 00000000 		.4byte	0
 2746 0532 00000000 		.4byte	0
 2747              	.LLST26:
 2748 0536 AE000000 		.4byte	.LVL35
 2749 053a B8000000 		.4byte	.LVL36
 2750 053e 0100     		.2byte	0x1
 2751 0540 50       		.byte	0x50
 2752 0541 B8000000 		.4byte	.LVL36
 2753 0545 86010000 		.4byte	.LVL76
 2754 0549 0300     		.2byte	0x3
 2755 054b 91       		.byte	0x91
 2756 054c 8C7F     		.sleb128 -116
 2757 054e 86010000 		.4byte	.LVL76
 2758 0552 88010000 		.4byte	.LVL77
 2759 0556 0100     		.2byte	0x1
 2760 0558 50       		.byte	0x50
 2761 0559 88010000 		.4byte	.LVL77
 2762 055d 38020000 		.4byte	.LVL99
 2763 0561 0300     		.2byte	0x3
 2764 0563 91       		.byte	0x91
 2765 0564 847F     		.sleb128 -124
 2766 0566 00000000 		.4byte	0
 2767 056a 00000000 		.4byte	0
 2768              	.LLST27:
 2769 056e 00000000 		.4byte	.LVL100
 2770 0572 14000000 		.4byte	.LVL102
ARM GAS  C:\Users\IVYLIU~1\AppData\Local\Temp\ccHWxCbk.s 			page 71


 2771 0576 0100     		.2byte	0x1
 2772 0578 50       		.byte	0x50
 2773 0579 14000000 		.4byte	.LVL102
 2774 057d 22000000 		.4byte	.LVL106
 2775 0581 0100     		.2byte	0x1
 2776 0583 58       		.byte	0x58
 2777 0584 22000000 		.4byte	.LVL106
 2778 0588 38020000 		.4byte	.LVL199
 2779 058c 0100     		.2byte	0x1
 2780 058e 5B       		.byte	0x5b
 2781 058f 38020000 		.4byte	.LVL199
 2782 0593 4E020000 		.4byte	.LVL203
 2783 0597 0100     		.2byte	0x1
 2784 0599 58       		.byte	0x58
 2785 059a 4E020000 		.4byte	.LVL203
 2786 059e AA030000 		.4byte	.LFE86
 2787 05a2 0100     		.2byte	0x1
 2788 05a4 5B       		.byte	0x5b
 2789 05a5 00000000 		.4byte	0
 2790 05a9 00000000 		.4byte	0
 2791              	.LLST28:
 2792 05ad 00000000 		.4byte	.LVL100
 2793 05b1 14000000 		.4byte	.LVL102
 2794 05b5 0100     		.2byte	0x1
 2795 05b7 51       		.byte	0x51
 2796 05b8 14000000 		.4byte	.LVL102
 2797 05bc AA030000 		.4byte	.LFE86
 2798 05c0 0400     		.2byte	0x4
 2799 05c2 F3       		.byte	0xf3
 2800 05c3 01       		.uleb128 0x1
 2801 05c4 51       		.byte	0x51
 2802 05c5 9F       		.byte	0x9f
 2803 05c6 00000000 		.4byte	0
 2804 05ca 00000000 		.4byte	0
 2805              	.LLST29:
 2806 05ce 00000000 		.4byte	.LVL100
 2807 05d2 14000000 		.4byte	.LVL102
 2808 05d6 0100     		.2byte	0x1
 2809 05d8 52       		.byte	0x52
 2810 05d9 14000000 		.4byte	.LVL102
 2811 05dd AA030000 		.4byte	.LFE86
 2812 05e1 0200     		.2byte	0x2
 2813 05e3 91       		.byte	0x91
 2814 05e4 50       		.sleb128 -48
 2815 05e5 00000000 		.4byte	0
 2816 05e9 00000000 		.4byte	0
 2817              	.LLST30:
 2818 05ed 00000000 		.4byte	.LVL100
 2819 05f1 14000000 		.4byte	.LVL102
 2820 05f5 0100     		.2byte	0x1
 2821 05f7 53       		.byte	0x53
 2822 05f8 14000000 		.4byte	.LVL102
 2823 05fc AA030000 		.4byte	.LFE86
 2824 0600 0200     		.2byte	0x2
 2825 0602 91       		.byte	0x91
 2826 0603 4C       		.sleb128 -52
 2827 0604 00000000 		.4byte	0
ARM GAS  C:\Users\IVYLIU~1\AppData\Local\Temp\ccHWxCbk.s 			page 72


 2828 0608 00000000 		.4byte	0
 2829              	.LLST31:
 2830 060c 30000000 		.4byte	.LVL108
 2831 0610 34000000 		.4byte	.LVL109
 2832 0614 0100     		.2byte	0x1
 2833 0616 52       		.byte	0x52
 2834 0617 34000000 		.4byte	.LVL109
 2835 061b 36000000 		.4byte	.LVL110
 2836 061f 0200     		.2byte	0x2
 2837 0621 72       		.byte	0x72
 2838 0622 00       		.sleb128 0
 2839 0623 36000000 		.4byte	.LVL110
 2840 0627 58000000 		.4byte	.LVL120
 2841 062b 0800     		.2byte	0x8
 2842 062d 91       		.byte	0x91
 2843 062e 48       		.sleb128 -56
 2844 062f 06       		.byte	0x6
 2845 0630 33       		.byte	0x33
 2846 0631 24       		.byte	0x24
 2847 0632 71       		.byte	0x71
 2848 0633 00       		.sleb128 0
 2849 0634 22       		.byte	0x22
 2850 0635 58000000 		.4byte	.LVL120
 2851 0639 5A000000 		.4byte	.LVL121
 2852 063d 0700     		.2byte	0x7
 2853 063f 75       		.byte	0x75
 2854 0640 00       		.sleb128 0
 2855 0641 33       		.byte	0x33
 2856 0642 24       		.byte	0x24
 2857 0643 71       		.byte	0x71
 2858 0644 00       		.sleb128 0
 2859 0645 22       		.byte	0x22
 2860 0646 5A000000 		.4byte	.LVL121
 2861 064a 38020000 		.4byte	.LVL199
 2862 064e 0300     		.2byte	0x3
 2863 0650 91       		.byte	0x91
 2864 0651 907F     		.sleb128 -112
 2865 0653 00000000 		.4byte	0
 2866 0657 00000000 		.4byte	0
 2867              	.LLST32:
 2868 065b 3E000000 		.4byte	.LVL113
 2869 065f 5A000000 		.4byte	.LVL121
 2870 0663 0100     		.2byte	0x1
 2871 0665 50       		.byte	0x50
 2872 0666 5A000000 		.4byte	.LVL121
 2873 066a 38020000 		.4byte	.LVL199
 2874 066e 0300     		.2byte	0x3
 2875 0670 91       		.byte	0x91
 2876 0671 987F     		.sleb128 -104
 2877 0673 00000000 		.4byte	0
 2878 0677 00000000 		.4byte	0
 2879              	.LLST33:
 2880 067b 4A000000 		.4byte	.LVL116
 2881 067f 5A000000 		.4byte	.LVL121
 2882 0683 0100     		.2byte	0x1
 2883 0685 52       		.byte	0x52
 2884 0686 5A000000 		.4byte	.LVL121
ARM GAS  C:\Users\IVYLIU~1\AppData\Local\Temp\ccHWxCbk.s 			page 73


 2885 068a 38020000 		.4byte	.LVL199
 2886 068e 0300     		.2byte	0x3
 2887 0690 91       		.byte	0x91
 2888 0691 A07F     		.sleb128 -96
 2889 0693 00000000 		.4byte	0
 2890 0697 00000000 		.4byte	0
 2891              	.LLST34:
 2892 069b 38000000 		.4byte	.LVL111
 2893 069f 3A000000 		.4byte	.LVL112
 2894 06a3 0100     		.2byte	0x1
 2895 06a5 52       		.byte	0x52
 2896 06a6 3A000000 		.4byte	.LVL112
 2897 06aa 58000000 		.4byte	.LVL120
 2898 06ae 0A00     		.2byte	0xa
 2899 06b0 91       		.byte	0x91
 2900 06b1 48       		.sleb128 -56
 2901 06b2 06       		.byte	0x6
 2902 06b3 33       		.byte	0x33
 2903 06b4 24       		.byte	0x24
 2904 06b5 71       		.byte	0x71
 2905 06b6 00       		.sleb128 0
 2906 06b7 22       		.byte	0x22
 2907 06b8 23       		.byte	0x23
 2908 06b9 04       		.uleb128 0x4
 2909 06ba 58000000 		.4byte	.LVL120
 2910 06be 5A000000 		.4byte	.LVL121
 2911 06c2 0900     		.2byte	0x9
 2912 06c4 75       		.byte	0x75
 2913 06c5 00       		.sleb128 0
 2914 06c6 33       		.byte	0x33
 2915 06c7 24       		.byte	0x24
 2916 06c8 71       		.byte	0x71
 2917 06c9 00       		.sleb128 0
 2918 06ca 22       		.byte	0x22
 2919 06cb 23       		.byte	0x23
 2920 06cc 04       		.uleb128 0x4
 2921 06cd 5A000000 		.4byte	.LVL121
 2922 06d1 38020000 		.4byte	.LVL199
 2923 06d5 0300     		.2byte	0x3
 2924 06d7 91       		.byte	0x91
 2925 06d8 947F     		.sleb128 -108
 2926 06da 00000000 		.4byte	0
 2927 06de 00000000 		.4byte	0
 2928              	.LLST35:
 2929 06e2 44000000 		.4byte	.LVL114
 2930 06e6 48000000 		.4byte	.LVL115
 2931 06ea 0100     		.2byte	0x1
 2932 06ec 52       		.byte	0x52
 2933 06ed 48000000 		.4byte	.LVL115
 2934 06f1 58000000 		.4byte	.LVL120
 2935 06f5 0A00     		.2byte	0xa
 2936 06f7 91       		.byte	0x91
 2937 06f8 48       		.sleb128 -56
 2938 06f9 06       		.byte	0x6
 2939 06fa 34       		.byte	0x34
 2940 06fb 24       		.byte	0x24
 2941 06fc 71       		.byte	0x71
ARM GAS  C:\Users\IVYLIU~1\AppData\Local\Temp\ccHWxCbk.s 			page 74


 2942 06fd 00       		.sleb128 0
 2943 06fe 22       		.byte	0x22
 2944 06ff 23       		.byte	0x23
 2945 0700 04       		.uleb128 0x4
 2946 0701 58000000 		.4byte	.LVL120
 2947 0705 5A000000 		.4byte	.LVL121
 2948 0709 0900     		.2byte	0x9
 2949 070b 75       		.byte	0x75
 2950 070c 00       		.sleb128 0
 2951 070d 34       		.byte	0x34
 2952 070e 24       		.byte	0x24
 2953 070f 71       		.byte	0x71
 2954 0710 00       		.sleb128 0
 2955 0711 22       		.byte	0x22
 2956 0712 23       		.byte	0x23
 2957 0713 04       		.uleb128 0x4
 2958 0714 5A000000 		.4byte	.LVL121
 2959 0718 38020000 		.4byte	.LVL199
 2960 071c 0300     		.2byte	0x3
 2961 071e 91       		.byte	0x91
 2962 071f 9C7F     		.sleb128 -100
 2963 0721 00000000 		.4byte	0
 2964 0725 00000000 		.4byte	0
 2965              	.LLST36:
 2966 0729 52000000 		.4byte	.LVL118
 2967 072d 54000000 		.4byte	.LVL119
 2968 0731 0100     		.2byte	0x1
 2969 0733 53       		.byte	0x53
 2970 0734 54000000 		.4byte	.LVL119
 2971 0738 58000000 		.4byte	.LVL120
 2972 073c 0C00     		.2byte	0xc
 2973 073e 91       		.byte	0x91
 2974 073f 48       		.sleb128 -56
 2975 0740 06       		.byte	0x6
 2976 0741 33       		.byte	0x33
 2977 0742 1E       		.byte	0x1e
 2978 0743 33       		.byte	0x33
 2979 0744 24       		.byte	0x24
 2980 0745 71       		.byte	0x71
 2981 0746 00       		.sleb128 0
 2982 0747 22       		.byte	0x22
 2983 0748 23       		.byte	0x23
 2984 0749 04       		.uleb128 0x4
 2985 074a 58000000 		.4byte	.LVL120
 2986 074e 5A000000 		.4byte	.LVL121
 2987 0752 0E00     		.2byte	0xe
 2988 0754 75       		.byte	0x75
 2989 0755 00       		.sleb128 0
 2990 0756 31       		.byte	0x31
 2991 0757 24       		.byte	0x24
 2992 0758 75       		.byte	0x75
 2993 0759 00       		.sleb128 0
 2994 075a 22       		.byte	0x22
 2995 075b 33       		.byte	0x33
 2996 075c 24       		.byte	0x24
 2997 075d 71       		.byte	0x71
 2998 075e 00       		.sleb128 0
ARM GAS  C:\Users\IVYLIU~1\AppData\Local\Temp\ccHWxCbk.s 			page 75


 2999 075f 22       		.byte	0x22
 3000 0760 23       		.byte	0x23
 3001 0761 04       		.uleb128 0x4
 3002 0762 5A000000 		.4byte	.LVL121
 3003 0766 38020000 		.4byte	.LVL199
 3004 076a 0300     		.2byte	0x3
 3005 076c 91       		.byte	0x91
 3006 076d B87F     		.sleb128 -72
 3007 076f 00000000 		.4byte	0
 3008 0773 00000000 		.4byte	0
 3009              	.LLST37:
 3010 0777 1A000000 		.4byte	.LVL104
 3011 077b 22000000 		.4byte	.LVL106
 3012 077f 0200     		.2byte	0x2
 3013 0781 30       		.byte	0x30
 3014 0782 9F       		.byte	0x9f
 3015 0783 22000000 		.4byte	.LVL106
 3016 0787 58000000 		.4byte	.LVL120
 3017 078b 0200     		.2byte	0x2
 3018 078d 91       		.byte	0x91
 3019 078e 48       		.sleb128 -56
 3020 078f 58000000 		.4byte	.LVL120
 3021 0793 5A000000 		.4byte	.LVL121
 3022 0797 0100     		.2byte	0x1
 3023 0799 53       		.byte	0x53
 3024 079a 5A000000 		.4byte	.LVL121
 3025 079e 38020000 		.4byte	.LVL199
 3026 07a2 0200     		.2byte	0x2
 3027 07a4 91       		.byte	0x91
 3028 07a5 48       		.sleb128 -56
 3029 07a6 00000000 		.4byte	0
 3030 07aa 00000000 		.4byte	0
 3031              	.LLST38:
 3032 07ae 22000000 		.4byte	.LVL106
 3033 07b2 58000000 		.4byte	.LVL120
 3034 07b6 0600     		.2byte	0x6
 3035 07b8 91       		.byte	0x91
 3036 07b9 48       		.sleb128 -56
 3037 07ba 06       		.byte	0x6
 3038 07bb 31       		.byte	0x31
 3039 07bc 24       		.byte	0x24
 3040 07bd 9F       		.byte	0x9f
 3041 07be 58000000 		.4byte	.LVL120
 3042 07c2 5A000000 		.4byte	.LVL121
 3043 07c6 0500     		.2byte	0x5
 3044 07c8 75       		.byte	0x75
 3045 07c9 00       		.sleb128 0
 3046 07ca 31       		.byte	0x31
 3047 07cb 24       		.byte	0x24
 3048 07cc 9F       		.byte	0x9f
 3049 07cd 00000000 		.4byte	0
 3050 07d1 00000000 		.4byte	0
 3051              	.LLST39:
 3052 07d5 28000000 		.4byte	.LVL107
 3053 07d9 4E000000 		.4byte	.LVL117
 3054 07dd 0100     		.2byte	0x1
 3055 07df 53       		.byte	0x53
ARM GAS  C:\Users\IVYLIU~1\AppData\Local\Temp\ccHWxCbk.s 			page 76


 3056 07e0 4E000000 		.4byte	.LVL117
 3057 07e4 58000000 		.4byte	.LVL120
 3058 07e8 0600     		.2byte	0x6
 3059 07ea 91       		.byte	0x91
 3060 07eb 48       		.sleb128 -56
 3061 07ec 06       		.byte	0x6
 3062 07ed 33       		.byte	0x33
 3063 07ee 1E       		.byte	0x1e
 3064 07ef 9F       		.byte	0x9f
 3065 07f0 58000000 		.4byte	.LVL120
 3066 07f4 5A000000 		.4byte	.LVL121
 3067 07f8 0800     		.2byte	0x8
 3068 07fa 75       		.byte	0x75
 3069 07fb 00       		.sleb128 0
 3070 07fc 31       		.byte	0x31
 3071 07fd 24       		.byte	0x24
 3072 07fe 75       		.byte	0x75
 3073 07ff 00       		.sleb128 0
 3074 0800 22       		.byte	0x22
 3075 0801 9F       		.byte	0x9f
 3076 0802 00000000 		.4byte	0
 3077 0806 00000000 		.4byte	0
 3078              	.LLST40:
 3079 080a 58000000 		.4byte	.LVL120
 3080 080e 5A000000 		.4byte	.LVL121
 3081 0812 0200     		.2byte	0x2
 3082 0814 91       		.byte	0x91
 3083 0815 44       		.sleb128 -60
 3084 0816 5A000000 		.4byte	.LVL121
 3085 081a 38020000 		.4byte	.LVL199
 3086 081e 0100     		.2byte	0x1
 3087 0820 57       		.byte	0x57
 3088 0821 48020000 		.4byte	.LVL201
 3089 0825 4E020000 		.4byte	.LVL203
 3090 0829 0200     		.2byte	0x2
 3091 082b 30       		.byte	0x30
 3092 082c 9F       		.byte	0x9f
 3093 082d 4E020000 		.4byte	.LVL203
 3094 0831 AA030000 		.4byte	.LFE86
 3095 0835 0100     		.2byte	0x1
 3096 0837 54       		.byte	0x54
 3097 0838 00000000 		.4byte	0
 3098 083c 00000000 		.4byte	0
 3099              	.LLST41:
 3100 0840 5E000000 		.4byte	.LVL122
 3101 0844 46010000 		.4byte	.LVL162
 3102 0848 0100     		.2byte	0x1
 3103 084a 55       		.byte	0x55
 3104 084b 46010000 		.4byte	.LVL162
 3105 084f 0A020000 		.4byte	.LVL194
 3106 0853 0800     		.2byte	0x8
 3107 0855 77       		.byte	0x77
 3108 0856 00       		.sleb128 0
 3109 0857 91       		.byte	0x91
 3110 0858 B47F     		.sleb128 -76
 3111 085a 06       		.byte	0x6
 3112 085b 22       		.byte	0x22
ARM GAS  C:\Users\IVYLIU~1\AppData\Local\Temp\ccHWxCbk.s 			page 77


 3113 085c 9F       		.byte	0x9f
 3114 085d 52020000 		.4byte	.LVL204
 3115 0861 38030000 		.4byte	.LVL244
 3116 0865 0100     		.2byte	0x1
 3117 0867 57       		.byte	0x57
 3118 0868 38030000 		.4byte	.LVL244
 3119 086c 98030000 		.4byte	.LVL261
 3120 0870 0800     		.2byte	0x8
 3121 0872 74       		.byte	0x74
 3122 0873 00       		.sleb128 0
 3123 0874 91       		.byte	0x91
 3124 0875 9C7F     		.sleb128 -100
 3125 0877 06       		.byte	0x6
 3126 0878 22       		.byte	0x22
 3127 0879 9F       		.byte	0x9f
 3128 087a 00000000 		.4byte	0
 3129 087e 00000000 		.4byte	0
 3130              	.LLST42:
 3131 0882 62000000 		.4byte	.LVL123
 3132 0886 D2010000 		.4byte	.LVL188
 3133 088a 0100     		.2byte	0x1
 3134 088c 58       		.byte	0x58
 3135 088d D2010000 		.4byte	.LVL188
 3136 0891 0A020000 		.4byte	.LVL194
 3137 0895 0A00     		.2byte	0xa
 3138 0897 91       		.byte	0x91
 3139 0898 B47F     		.sleb128 -76
 3140 089a 06       		.byte	0x6
 3141 089b 31       		.byte	0x31
 3142 089c 24       		.byte	0x24
 3143 089d 77       		.byte	0x77
 3144 089e 00       		.sleb128 0
 3145 089f 22       		.byte	0x22
 3146 08a0 9F       		.byte	0x9f
 3147 08a1 56020000 		.4byte	.LVL205
 3148 08a5 98030000 		.4byte	.LVL261
 3149 08a9 0100     		.2byte	0x1
 3150 08ab 58       		.byte	0x58
 3151 08ac 00000000 		.4byte	0
 3152 08b0 00000000 		.4byte	0
 3153              	.LLST43:
 3154 08b4 66000000 		.4byte	.LVL124
 3155 08b8 38020000 		.4byte	.LVL199
 3156 08bc 0100     		.2byte	0x1
 3157 08be 59       		.byte	0x59
 3158 08bf 5A020000 		.4byte	.LVL206
 3159 08c3 98030000 		.4byte	.LVL261
 3160 08c7 0100     		.2byte	0x1
 3161 08c9 5A       		.byte	0x5a
 3162 08ca 00000000 		.4byte	0
 3163 08ce 00000000 		.4byte	0
 3164              	.LLST44:
 3165 08d2 0C000000 		.4byte	.LVL101
 3166 08d6 14000000 		.4byte	.LVL102
 3167 08da 0100     		.2byte	0x1
 3168 08dc 51       		.byte	0x51
 3169 08dd 14000000 		.4byte	.LVL102
ARM GAS  C:\Users\IVYLIU~1\AppData\Local\Temp\ccHWxCbk.s 			page 78


 3170 08e1 38020000 		.4byte	.LVL199
 3171 08e5 0300     		.2byte	0x3
 3172 08e7 91       		.byte	0x91
 3173 08e8 BC7F     		.sleb128 -68
 3174 08ea 42020000 		.4byte	.LVL200
 3175 08ee AA030000 		.4byte	.LFE86
 3176 08f2 0300     		.2byte	0x3
 3177 08f4 91       		.byte	0x91
 3178 08f5 BC7F     		.sleb128 -68
 3179 08f7 00000000 		.4byte	0
 3180 08fb 00000000 		.4byte	0
 3181              	.LLST45:
 3182 08ff 0C000000 		.4byte	.LVL101
 3183 0903 14000000 		.4byte	.LVL102
 3184 0907 0100     		.2byte	0x1
 3185 0909 51       		.byte	0x51
 3186 090a 14000000 		.4byte	.LVL102
 3187 090e 1A000000 		.4byte	.LVL104
 3188 0912 0300     		.2byte	0x3
 3189 0914 91       		.byte	0x91
 3190 0915 BC7F     		.sleb128 -68
 3191 0917 1A000000 		.4byte	.LVL104
 3192 091b 1C000000 		.4byte	.LVL105
 3193 091f 0100     		.2byte	0x1
 3194 0921 53       		.byte	0x53
 3195 0922 1C000000 		.4byte	.LVL105
 3196 0926 38020000 		.4byte	.LVL199
 3197 092a 0300     		.2byte	0x3
 3198 092c 91       		.byte	0x91
 3199 092d B47F     		.sleb128 -76
 3200 092f 38020000 		.4byte	.LVL199
 3201 0933 48020000 		.4byte	.LVL201
 3202 0937 0300     		.2byte	0x3
 3203 0939 91       		.byte	0x91
 3204 093a BC7F     		.sleb128 -68
 3205 093c 48020000 		.4byte	.LVL201
 3206 0940 4A020000 		.4byte	.LVL202
 3207 0944 0100     		.2byte	0x1
 3208 0946 53       		.byte	0x53
 3209 0947 4A020000 		.4byte	.LVL202
 3210 094b AA030000 		.4byte	.LFE86
 3211 094f 0300     		.2byte	0x3
 3212 0951 91       		.byte	0x91
 3213 0952 9C7F     		.sleb128 -100
 3214 0954 00000000 		.4byte	0
 3215 0958 00000000 		.4byte	0
 3216              	.LLST46:
 3217 095c 1A000000 		.4byte	.LVL104
 3218 0960 22000000 		.4byte	.LVL106
 3219 0964 0200     		.2byte	0x2
 3220 0966 30       		.byte	0x30
 3221 0967 9F       		.byte	0x9f
 3222 0968 22000000 		.4byte	.LVL106
 3223 096c 1A020000 		.4byte	.LVL195
 3224 0970 0200     		.2byte	0x2
 3225 0972 91       		.byte	0x91
 3226 0973 44       		.sleb128 -60
ARM GAS  C:\Users\IVYLIU~1\AppData\Local\Temp\ccHWxCbk.s 			page 79


 3227 0974 1A020000 		.4byte	.LVL195
 3228 0978 38020000 		.4byte	.LVL199
 3229 097c 0100     		.2byte	0x1
 3230 097e 52       		.byte	0x52
 3231 097f 00000000 		.4byte	0
 3232 0983 00000000 		.4byte	0
 3233              	.LLST47:
 3234 0987 0C000000 		.4byte	.LVL101
 3235 098b 14000000 		.4byte	.LVL102
 3236 098f 0100     		.2byte	0x1
 3237 0991 51       		.byte	0x51
 3238 0992 14000000 		.4byte	.LVL102
 3239 0996 16000000 		.4byte	.LVL103
 3240 099a 0100     		.2byte	0x1
 3241 099c 53       		.byte	0x53
 3242 099d 16000000 		.4byte	.LVL103
 3243 09a1 34020000 		.4byte	.LVL197
 3244 09a5 0200     		.2byte	0x2
 3245 09a7 91       		.byte	0x91
 3246 09a8 54       		.sleb128 -44
 3247 09a9 34020000 		.4byte	.LVL197
 3248 09ad 36020000 		.4byte	.LVL198
 3249 09b1 0100     		.2byte	0x1
 3250 09b3 53       		.byte	0x53
 3251 09b4 36020000 		.4byte	.LVL198
 3252 09b8 AA030000 		.4byte	.LFE86
 3253 09bc 0200     		.2byte	0x2
 3254 09be 91       		.byte	0x91
 3255 09bf 54       		.sleb128 -44
 3256 09c0 00000000 		.4byte	0
 3257 09c4 00000000 		.4byte	0
 3258              	.LLST48:
 3259 09c8 C2000000 		.4byte	.LVL138
 3260 09cc C4000000 		.4byte	.LVL139
 3261 09d0 0100     		.2byte	0x1
 3262 09d2 50       		.byte	0x50
 3263 09d3 C4000000 		.4byte	.LVL139
 3264 09d7 C9000000 		.4byte	.LVL140-1
 3265 09db 0100     		.2byte	0x1
 3266 09dd 51       		.byte	0x51
 3267 09de C9000000 		.4byte	.LVL140-1
 3268 09e2 F0000000 		.4byte	.LVL147
 3269 09e6 0300     		.2byte	0x3
 3270 09e8 91       		.byte	0x91
 3271 09e9 AC7F     		.sleb128 -84
 3272 09eb 10010000 		.4byte	.LVL153
 3273 09ef 14010000 		.4byte	.LVL154
 3274 09f3 0100     		.2byte	0x1
 3275 09f5 50       		.byte	0x50
 3276 09f6 14010000 		.4byte	.LVL154
 3277 09fa 38020000 		.4byte	.LVL199
 3278 09fe 0300     		.2byte	0x3
 3279 0a00 91       		.byte	0x91
 3280 0a01 AC7F     		.sleb128 -84
 3281 0a03 B8020000 		.4byte	.LVL220
 3282 0a07 BA020000 		.4byte	.LVL221
 3283 0a0b 0100     		.2byte	0x1
ARM GAS  C:\Users\IVYLIU~1\AppData\Local\Temp\ccHWxCbk.s 			page 80


 3284 0a0d 50       		.byte	0x50
 3285 0a0e BA020000 		.4byte	.LVL221
 3286 0a12 BF020000 		.4byte	.LVL222-1
 3287 0a16 0100     		.2byte	0x1
 3288 0a18 51       		.byte	0x51
 3289 0a19 BF020000 		.4byte	.LVL222-1
 3290 0a1d EA020000 		.4byte	.LVL230
 3291 0a21 0300     		.2byte	0x3
 3292 0a23 91       		.byte	0x91
 3293 0a24 987F     		.sleb128 -104
 3294 0a26 10030000 		.4byte	.LVL237
 3295 0a2a 14030000 		.4byte	.LVL238
 3296 0a2e 0100     		.2byte	0x1
 3297 0a30 50       		.byte	0x50
 3298 0a31 14030000 		.4byte	.LVL238
 3299 0a35 58030000 		.4byte	.LVL252
 3300 0a39 0100     		.2byte	0x1
 3301 0a3b 59       		.byte	0x59
 3302 0a3c 00000000 		.4byte	0
 3303 0a40 00000000 		.4byte	0
 3304              	.LLST49:
 3305 0a44 EC000000 		.4byte	.LVL145
 3306 0a48 EE000000 		.4byte	.LVL146
 3307 0a4c 0100     		.2byte	0x1
 3308 0a4e 50       		.byte	0x50
 3309 0a4f EE000000 		.4byte	.LVL146
 3310 0a53 F3000000 		.4byte	.LVL148-1
 3311 0a57 0100     		.2byte	0x1
 3312 0a59 51       		.byte	0x51
 3313 0a5a F3000000 		.4byte	.LVL148-1
 3314 0a5e 10010000 		.4byte	.LVL153
 3315 0a62 0300     		.2byte	0x3
 3316 0a64 91       		.byte	0x91
 3317 0a65 AC7F     		.sleb128 -84
 3318 0a67 1E010000 		.4byte	.LVL156
 3319 0a6b 20010000 		.4byte	.LVL157
 3320 0a6f 0100     		.2byte	0x1
 3321 0a71 50       		.byte	0x50
 3322 0a72 20010000 		.4byte	.LVL157
 3323 0a76 90010000 		.4byte	.LVL179
 3324 0a7a 0300     		.2byte	0x3
 3325 0a7c 91       		.byte	0x91
 3326 0a7d 887F     		.sleb128 -120
 3327 0a7f E6020000 		.4byte	.LVL228
 3328 0a83 E8020000 		.4byte	.LVL229
 3329 0a87 0100     		.2byte	0x1
 3330 0a89 50       		.byte	0x50
 3331 0a8a E8020000 		.4byte	.LVL229
 3332 0a8e ED020000 		.4byte	.LVL231-1
 3333 0a92 0100     		.2byte	0x1
 3334 0a94 51       		.byte	0x51
 3335 0a95 ED020000 		.4byte	.LVL231-1
 3336 0a99 1E030000 		.4byte	.LVL240
 3337 0a9d 0300     		.2byte	0x3
 3338 0a9f 91       		.byte	0x91
 3339 0aa0 987F     		.sleb128 -104
 3340 0aa2 1E030000 		.4byte	.LVL240
ARM GAS  C:\Users\IVYLIU~1\AppData\Local\Temp\ccHWxCbk.s 			page 81


 3341 0aa6 20030000 		.4byte	.LVL241
 3342 0aaa 0100     		.2byte	0x1
 3343 0aac 50       		.byte	0x50
 3344 0aad 20030000 		.4byte	.LVL241
 3345 0ab1 98030000 		.4byte	.LVL261
 3346 0ab5 0300     		.2byte	0x3
 3347 0ab7 91       		.byte	0x91
 3348 0ab8 987F     		.sleb128 -104
 3349 0aba 00000000 		.4byte	0
 3350 0abe 00000000 		.4byte	0
 3351              	.LLST50:
 3352 0ac2 80000000 		.4byte	.LVL126
 3353 0ac6 82000000 		.4byte	.LVL127
 3354 0aca 0100     		.2byte	0x1
 3355 0acc 50       		.byte	0x50
 3356 0acd 82000000 		.4byte	.LVL127
 3357 0ad1 D8000000 		.4byte	.LVL142
 3358 0ad5 0300     		.2byte	0x3
 3359 0ad7 91       		.byte	0x91
 3360 0ad8 847F     		.sleb128 -124
 3361 0ada D8000000 		.4byte	.LVL142
 3362 0ade E2000000 		.4byte	.LVL143
 3363 0ae2 0100     		.2byte	0x1
 3364 0ae4 50       		.byte	0x50
 3365 0ae5 E2000000 		.4byte	.LVL143
 3366 0ae9 68010000 		.4byte	.LVL167
 3367 0aed 0300     		.2byte	0x3
 3368 0aef 91       		.byte	0x91
 3369 0af0 847F     		.sleb128 -124
 3370 0af2 68010000 		.4byte	.LVL167
 3371 0af6 6A010000 		.4byte	.LVL168
 3372 0afa 0100     		.2byte	0x1
 3373 0afc 50       		.byte	0x50
 3374 0afd 6A010000 		.4byte	.LVL168
 3375 0b01 CE010000 		.4byte	.LVL187
 3376 0b05 0100     		.2byte	0x1
 3377 0b07 54       		.byte	0x54
 3378 0b08 76020000 		.4byte	.LVL208
 3379 0b0c 78020000 		.4byte	.LVL209
 3380 0b10 0100     		.2byte	0x1
 3381 0b12 50       		.byte	0x50
 3382 0b13 78020000 		.4byte	.LVL209
 3383 0b17 D4020000 		.4byte	.LVL225
 3384 0b1b 0300     		.2byte	0x3
 3385 0b1d 91       		.byte	0x91
 3386 0b1e 847F     		.sleb128 -124
 3387 0b20 D4020000 		.4byte	.LVL225
 3388 0b24 DC020000 		.4byte	.LVL226
 3389 0b28 0100     		.2byte	0x1
 3390 0b2a 50       		.byte	0x50
 3391 0b2b DC020000 		.4byte	.LVL226
 3392 0b2f 42030000 		.4byte	.LVL246
 3393 0b33 0300     		.2byte	0x3
 3394 0b35 91       		.byte	0x91
 3395 0b36 847F     		.sleb128 -124
 3396 0b38 42030000 		.4byte	.LVL246
 3397 0b3c 44030000 		.4byte	.LVL247
ARM GAS  C:\Users\IVYLIU~1\AppData\Local\Temp\ccHWxCbk.s 			page 82


 3398 0b40 0100     		.2byte	0x1
 3399 0b42 50       		.byte	0x50
 3400 0b43 44030000 		.4byte	.LVL247
 3401 0b47 98030000 		.4byte	.LVL261
 3402 0b4b 0300     		.2byte	0x3
 3403 0b4d 91       		.byte	0x91
 3404 0b4e 847F     		.sleb128 -124
 3405 0b50 00000000 		.4byte	0
 3406 0b54 00000000 		.4byte	0
 3407              	.LLST51:
 3408 0b58 8A000000 		.4byte	.LVL129
 3409 0b5c 9C000000 		.4byte	.LVL130
 3410 0b60 0100     		.2byte	0x1
 3411 0b62 50       		.byte	0x50
 3412 0b63 9C000000 		.4byte	.LVL130
 3413 0b67 72010000 		.4byte	.LVL170
 3414 0b6b 0300     		.2byte	0x3
 3415 0b6d 91       		.byte	0x91
 3416 0b6e A47F     		.sleb128 -92
 3417 0b70 72010000 		.4byte	.LVL170
 3418 0b74 74010000 		.4byte	.LVL171
 3419 0b78 0100     		.2byte	0x1
 3420 0b7a 50       		.byte	0x50
 3421 0b7b 74010000 		.4byte	.LVL171
 3422 0b7f 38020000 		.4byte	.LVL199
 3423 0b83 0100     		.2byte	0x1
 3424 0b85 56       		.byte	0x56
 3425 0b86 80020000 		.4byte	.LVL211
 3426 0b8a 92020000 		.4byte	.LVL212
 3427 0b8e 0100     		.2byte	0x1
 3428 0b90 50       		.byte	0x50
 3429 0b91 92020000 		.4byte	.LVL212
 3430 0b95 4C030000 		.4byte	.LVL249
 3431 0b99 0300     		.2byte	0x3
 3432 0b9b 91       		.byte	0x91
 3433 0b9c 907F     		.sleb128 -112
 3434 0b9e 4C030000 		.4byte	.LVL249
 3435 0ba2 4E030000 		.4byte	.LVL250
 3436 0ba6 0100     		.2byte	0x1
 3437 0ba8 50       		.byte	0x50
 3438 0ba9 4E030000 		.4byte	.LVL250
 3439 0bad 98030000 		.4byte	.LVL261
 3440 0bb1 0100     		.2byte	0x1
 3441 0bb3 57       		.byte	0x57
 3442 0bb4 00000000 		.4byte	0
 3443 0bb8 00000000 		.4byte	0
 3444              	.LLST52:
 3445 0bbc A4000000 		.4byte	.LVL132
 3446 0bc0 A6000000 		.4byte	.LVL133
 3447 0bc4 0100     		.2byte	0x1
 3448 0bc6 50       		.byte	0x50
 3449 0bc7 A6000000 		.4byte	.LVL133
 3450 0bcb 02010000 		.4byte	.LVL150
 3451 0bcf 0300     		.2byte	0x3
 3452 0bd1 91       		.byte	0x91
 3453 0bd2 887F     		.sleb128 -120
 3454 0bd4 02010000 		.4byte	.LVL150
ARM GAS  C:\Users\IVYLIU~1\AppData\Local\Temp\ccHWxCbk.s 			page 83


 3455 0bd8 06010000 		.4byte	.LVL151
 3456 0bdc 0100     		.2byte	0x1
 3457 0bde 50       		.byte	0x50
 3458 0bdf 06010000 		.4byte	.LVL151
 3459 0be3 5C010000 		.4byte	.LVL165
 3460 0be7 0100     		.2byte	0x1
 3461 0be9 56       		.byte	0x56
 3462 0bea 7C010000 		.4byte	.LVL173
 3463 0bee 7E010000 		.4byte	.LVL174
 3464 0bf2 0100     		.2byte	0x1
 3465 0bf4 50       		.byte	0x50
 3466 0bf5 7E010000 		.4byte	.LVL174
 3467 0bf9 AE010000 		.4byte	.LVL183
 3468 0bfd 0100     		.2byte	0x1
 3469 0bff 55       		.byte	0x55
 3470 0c00 9A020000 		.4byte	.LVL214
 3471 0c04 9C020000 		.4byte	.LVL215
 3472 0c08 0100     		.2byte	0x1
 3473 0c0a 50       		.byte	0x50
 3474 0c0b 9C020000 		.4byte	.LVL215
 3475 0c0f 02030000 		.4byte	.LVL234
 3476 0c13 0300     		.2byte	0x3
 3477 0c15 91       		.byte	0x91
 3478 0c16 887F     		.sleb128 -120
 3479 0c18 02030000 		.4byte	.LVL234
 3480 0c1c 06030000 		.4byte	.LVL235
 3481 0c20 0100     		.2byte	0x1
 3482 0c22 50       		.byte	0x50
 3483 0c23 06030000 		.4byte	.LVL235
 3484 0c27 58030000 		.4byte	.LVL252
 3485 0c2b 0300     		.2byte	0x3
 3486 0c2d 91       		.byte	0x91
 3487 0c2e 887F     		.sleb128 -120
 3488 0c30 58030000 		.4byte	.LVL252
 3489 0c34 5A030000 		.4byte	.LVL253
 3490 0c38 0100     		.2byte	0x1
 3491 0c3a 50       		.byte	0x50
 3492 0c3b 5A030000 		.4byte	.LVL253
 3493 0c3f 98030000 		.4byte	.LVL261
 3494 0c43 0100     		.2byte	0x1
 3495 0c45 59       		.byte	0x59
 3496 0c46 00000000 		.4byte	0
 3497 0c4a 00000000 		.4byte	0
 3498              	.LLST53:
 3499 0c4e AE000000 		.4byte	.LVL135
 3500 0c52 B8000000 		.4byte	.LVL136
 3501 0c56 0100     		.2byte	0x1
 3502 0c58 50       		.byte	0x50
 3503 0c59 B8000000 		.4byte	.LVL136
 3504 0c5d 86010000 		.4byte	.LVL176
 3505 0c61 0300     		.2byte	0x3
 3506 0c63 91       		.byte	0x91
 3507 0c64 8C7F     		.sleb128 -116
 3508 0c66 86010000 		.4byte	.LVL176
 3509 0c6a 88010000 		.4byte	.LVL177
 3510 0c6e 0100     		.2byte	0x1
 3511 0c70 50       		.byte	0x50
ARM GAS  C:\Users\IVYLIU~1\AppData\Local\Temp\ccHWxCbk.s 			page 84


 3512 0c71 88010000 		.4byte	.LVL177
 3513 0c75 38020000 		.4byte	.LVL199
 3514 0c79 0300     		.2byte	0x3
 3515 0c7b 91       		.byte	0x91
 3516 0c7c 847F     		.sleb128 -124
 3517 0c7e A4020000 		.4byte	.LVL217
 3518 0c82 AE020000 		.4byte	.LVL218
 3519 0c86 0100     		.2byte	0x1
 3520 0c88 50       		.byte	0x50
 3521 0c89 AE020000 		.4byte	.LVL218
 3522 0c8d 62030000 		.4byte	.LVL255
 3523 0c91 0300     		.2byte	0x3
 3524 0c93 91       		.byte	0x91
 3525 0c94 8C7F     		.sleb128 -116
 3526 0c96 62030000 		.4byte	.LVL255
 3527 0c9a 64030000 		.4byte	.LVL256
 3528 0c9e 0100     		.2byte	0x1
 3529 0ca0 50       		.byte	0x50
 3530 0ca1 64030000 		.4byte	.LVL256
 3531 0ca5 98030000 		.4byte	.LVL261
 3532 0ca9 0100     		.2byte	0x1
 3533 0cab 56       		.byte	0x56
 3534 0cac 00000000 		.4byte	0
 3535 0cb0 00000000 		.4byte	0
 3536              	.LLST54:
 3537 0cb4 00000000 		.4byte	.LVL262
 3538 0cb8 18000000 		.4byte	.LVL264
 3539 0cbc 0100     		.2byte	0x1
 3540 0cbe 50       		.byte	0x50
 3541 0cbf 18000000 		.4byte	.LVL264
 3542 0cc3 20000000 		.4byte	.LVL266
 3543 0cc7 0100     		.2byte	0x1
 3544 0cc9 54       		.byte	0x54
 3545 0cca 20000000 		.4byte	.LVL266
 3546 0cce 22000000 		.4byte	.LVL267
 3547 0cd2 0100     		.2byte	0x1
 3548 0cd4 50       		.byte	0x50
 3549 0cd5 22000000 		.4byte	.LVL267
 3550 0cd9 42000000 		.4byte	.LFE84
 3551 0cdd 0100     		.2byte	0x1
 3552 0cdf 54       		.byte	0x54
 3553 0ce0 00000000 		.4byte	0
 3554 0ce4 00000000 		.4byte	0
 3555              	.LLST55:
 3556 0ce8 00000000 		.4byte	.LVL262
 3557 0cec 10000000 		.4byte	.LVL263
 3558 0cf0 0100     		.2byte	0x1
 3559 0cf2 51       		.byte	0x51
 3560 0cf3 10000000 		.4byte	.LVL263
 3561 0cf7 20000000 		.4byte	.LVL266
 3562 0cfb 0100     		.2byte	0x1
 3563 0cfd 55       		.byte	0x55
 3564 0cfe 20000000 		.4byte	.LVL266
 3565 0d02 24000000 		.4byte	.LVL268
 3566 0d06 0100     		.2byte	0x1
 3567 0d08 51       		.byte	0x51
 3568 0d09 24000000 		.4byte	.LVL268
ARM GAS  C:\Users\IVYLIU~1\AppData\Local\Temp\ccHWxCbk.s 			page 85


 3569 0d0d 42000000 		.4byte	.LFE84
 3570 0d11 0100     		.2byte	0x1
 3571 0d13 55       		.byte	0x55
 3572 0d14 00000000 		.4byte	0
 3573 0d18 00000000 		.4byte	0
 3574              		.section	.debug_aranges,"",%progbits
 3575 0000 2C000000 		.4byte	0x2c
 3576 0004 0200     		.2byte	0x2
 3577 0006 00000000 		.4byte	.Ldebug_info0
 3578 000a 04       		.byte	0x4
 3579 000b 00       		.byte	0
 3580 000c 0000     		.2byte	0
 3581 000e 0000     		.2byte	0
 3582 0010 00000000 		.4byte	.LFB85
 3583 0014 46020000 		.4byte	.LFE85-.LFB85
 3584 0018 00000000 		.4byte	.LFB86
 3585 001c AA030000 		.4byte	.LFE86-.LFB86
 3586 0020 00000000 		.4byte	.LFB84
 3587 0024 42000000 		.4byte	.LFE84-.LFB84
 3588 0028 00000000 		.4byte	0
 3589 002c 00000000 		.4byte	0
 3590              		.section	.debug_ranges,"",%progbits
 3591              	.Ldebug_ranges0:
 3592 0000 00000000 		.4byte	.LFB85
 3593 0004 46020000 		.4byte	.LFE85
 3594 0008 00000000 		.4byte	.LFB86
 3595 000c AA030000 		.4byte	.LFE86
 3596 0010 00000000 		.4byte	.LFB84
 3597 0014 42000000 		.4byte	.LFE84
 3598 0018 00000000 		.4byte	0
 3599 001c 00000000 		.4byte	0
 3600              		.section	.debug_line,"",%progbits
 3601              	.Ldebug_line0:
 3602 0000 EC030000 		.section	.debug_str,"MS",%progbits,1
 3602      0200AF01 
 3602      00000201 
 3602      FB0E0D00 
 3602      01010101 
 3603              	.LASF35:
 3604 0000 5F5F636F 		.ascii	"__copy_table_t\000"
 3604      70795F74 
 3604      61626C65 
 3604      5F7400
 3605              	.LASF38:
 3606 000f 5F5F7A65 		.ascii	"__zero_table_t\000"
 3606      726F5F74 
 3606      61626C65 
 3606      5F7400
 3607              	.LASF3:
 3608 001e 5F5F7569 		.ascii	"__uint8_t\000"
 3608      6E74385F 
 3608      7400
 3609              	.LASF10:
 3610 0028 6C6F6E67 		.ascii	"long long unsigned int\000"
 3610      206C6F6E 
 3610      6720756E 
 3610      7369676E 
ARM GAS  C:\Users\IVYLIU~1\AppData\Local\Temp\ccHWxCbk.s 			page 86


 3610      65642069 
 3611              	.LASF29:
 3612 003f 61726D5F 		.ascii	"arm_cfft_radix4_instance_f32\000"
 3612      63666674 
 3612      5F726164 
 3612      6978345F 
 3612      696E7374 
 3613              	.LASF37:
 3614 005c 5F5F636F 		.ascii	"__copy_table_end__\000"
 3614      70795F74 
 3614      61626C65 
 3614      5F656E64 
 3614      5F5F00
 3615              	.LASF9:
 3616 006f 6C6F6E67 		.ascii	"long long int\000"
 3616      206C6F6E 
 3616      6720696E 
 3616      7400
 3617              	.LASF0:
 3618 007d 7369676E 		.ascii	"signed char\000"
 3618      65642063 
 3618      68617200 
 3619              	.LASF39:
 3620 0089 5F5F7A65 		.ascii	"__zero_table_start__\000"
 3620      726F5F74 
 3620      61626C65 
 3620      5F737461 
 3620      72745F5F 
 3621              	.LASF6:
 3622 009e 6C6F6E67 		.ascii	"long int\000"
 3622      20696E74 
 3622      00
 3623              	.LASF32:
 3624 00a7 61726D5F 		.ascii	"arm_radix4_butterfly_f32\000"
 3624      72616469 
 3624      78345F62 
 3624      75747465 
 3624      72666C79 
 3625              	.LASF25:
 3626 00c0 70426974 		.ascii	"pBitRevTable\000"
 3626      52657654 
 3626      61626C65 
 3626      00
 3627              	.LASF13:
 3628 00cd 75696E74 		.ascii	"uint16_t\000"
 3628      31365F74 
 3628      00
 3629              	.LASF17:
 3630 00d6 646F7562 		.ascii	"double\000"
 3630      6C6500
 3631              	.LASF7:
 3632 00dd 5F5F7569 		.ascii	"__uint32_t\000"
 3632      6E743332 
 3632      5F7400
 3633              	.LASF21:
 3634 00e8 6666744C 		.ascii	"fftLen\000"
 3634      656E00
ARM GAS  C:\Users\IVYLIU~1\AppData\Local\Temp\ccHWxCbk.s 			page 87


 3635              	.LASF36:
 3636 00ef 5F5F636F 		.ascii	"__copy_table_start__\000"
 3636      70795F74 
 3636      61626C65 
 3636      5F737461 
 3636      72745F5F 
 3637              	.LASF11:
 3638 0104 756E7369 		.ascii	"unsigned int\000"
 3638      676E6564 
 3638      20696E74 
 3638      00
 3639              	.LASF30:
 3640 0111 70537263 		.ascii	"pSrc\000"
 3640      00
 3641              	.LASF8:
 3642 0116 6C6F6E67 		.ascii	"long unsigned int\000"
 3642      20756E73 
 3642      69676E65 
 3642      6420696E 
 3642      7400
 3643              	.LASF46:
 3644 0128 61726D5F 		.ascii	"arm_bitreversal_f32\000"
 3644      62697472 
 3644      65766572 
 3644      73616C5F 
 3644      66333200 
 3645              	.LASF5:
 3646 013c 73686F72 		.ascii	"short unsigned int\000"
 3646      7420756E 
 3646      7369676E 
 3646      65642069 
 3646      6E7400
 3647              	.LASF27:
 3648 014f 62697452 		.ascii	"bitRevFactor\000"
 3648      65764661 
 3648      63746F72 
 3648      00
 3649              	.LASF33:
 3650 015c 61726D5F 		.ascii	"arm_radix4_butterfly_inverse_f32\000"
 3650      72616469 
 3650      78345F62 
 3650      75747465 
 3650      72666C79 
 3651              	.LASF15:
 3652 017d 73697A65 		.ascii	"sizetype\000"
 3652      74797065 
 3652      00
 3653              	.LASF19:
 3654 0186 6C6F6E67 		.ascii	"long double\000"
 3654      20646F75 
 3654      626C6500 
 3655              	.LASF23:
 3656 0192 62697452 		.ascii	"bitReverseFlag\000"
 3656      65766572 
 3656      7365466C 
 3656      616700
 3657              	.LASF41:
ARM GAS  C:\Users\IVYLIU~1\AppData\Local\Temp\ccHWxCbk.s 			page 88


 3658 01a1 64657374 		.ascii	"dest\000"
 3658      00
 3659              	.LASF42:
 3660 01a6 776C656E 		.ascii	"wlen\000"
 3660      00
 3661              	.LASF18:
 3662 01ab 666C6F61 		.ascii	"float\000"
 3662      7400
 3663              	.LASF44:
 3664 01b1 2E5C4453 		.ascii	".\\DSP\\Source\\TransformFunctions\\arm_cfft_radix4"
 3664      505C536F 
 3664      75726365 
 3664      5C547261 
 3664      6E73666F 
 3665 01e0 5F663332 		.ascii	"_f32.c\000"
 3665      2E6300
 3666              	.LASF1:
 3667 01e7 756E7369 		.ascii	"unsigned char\000"
 3667      676E6564 
 3667      20636861 
 3667      7200
 3668              	.LASF28:
 3669 01f5 6F6E6562 		.ascii	"onebyfftLen\000"
 3669      79666674 
 3669      4C656E00 
 3670              	.LASF2:
 3671 0201 73686F72 		.ascii	"short int\000"
 3671      7420696E 
 3671      7400
 3672              	.LASF34:
 3673 020b 61726D5F 		.ascii	"arm_cfft_radix4_f32\000"
 3673      63666674 
 3673      5F726164 
 3673      6978345F 
 3673      66333200 
 3674              	.LASF14:
 3675 021f 75696E74 		.ascii	"uint32_t\000"
 3675      33325F74 
 3675      00
 3676              	.LASF45:
 3677 0228 5C5C766D 		.ascii	"\\\\vmware-host\\Shared Folders\\Documents\\PSoC Cr"
 3677      77617265 
 3677      2D686F73 
 3677      745C5368 
 3677      61726564 
 3678 0256 6561746F 		.ascii	"eator\\FinalProject\\SoundDetection.cydsn\000"
 3678      725C4669 
 3678      6E616C50 
 3678      726F6A65 
 3678      63745C53 
 3679              	.LASF16:
 3680 027e 63686172 		.ascii	"char\000"
 3680      00
 3681              	.LASF4:
 3682 0283 5F5F7569 		.ascii	"__uint16_t\000"
 3682      6E743136 
 3682      5F7400
ARM GAS  C:\Users\IVYLIU~1\AppData\Local\Temp\ccHWxCbk.s 			page 89


 3683              	.LASF20:
 3684 028e 666C6F61 		.ascii	"float32_t\000"
 3684      7433325F 
 3684      7400
 3685              	.LASF40:
 3686 0298 5F5F7A65 		.ascii	"__zero_table_end__\000"
 3686      726F5F74 
 3686      61626C65 
 3686      5F656E64 
 3686      5F5F00
 3687              	.LASF24:
 3688 02ab 70547769 		.ascii	"pTwiddle\000"
 3688      64646C65 
 3688      00
 3689              	.LASF31:
 3690 02b4 70436F65 		.ascii	"pCoef\000"
 3690      6600
 3691              	.LASF12:
 3692 02ba 75696E74 		.ascii	"uint8_t\000"
 3692      385F7400 
 3693              	.LASF26:
 3694 02c2 74776964 		.ascii	"twidCoefModifier\000"
 3694      436F6566 
 3694      4D6F6469 
 3694      66696572 
 3694      00
 3695              	.LASF43:
 3696 02d3 474E5520 		.ascii	"GNU C 4.9.3 20150303 (release) [ARM/embedded-4_9-br"
 3696      4320342E 
 3696      392E3320 
 3696      32303135 
 3696      30333033 
 3697 0306 616E6368 		.ascii	"anch revision 221220] -mcpu=cortex-m3 -mthumb -g -O"
 3697      20726576 
 3697      6973696F 
 3697      6E203232 
 3697      31323230 
 3698 0339 67202D73 		.ascii	"g -std=gnu99 -ffunction-sections -ffat-lto-objects\000"
 3698      74643D67 
 3698      6E753939 
 3698      202D6666 
 3698      756E6374 
 3699              	.LASF22:
 3700 036c 69666674 		.ascii	"ifftFlag\000"
 3700      466C6167 
 3700      00
 3701              		.ident	"GCC: (GNU Tools for ARM Embedded Processors) 4.9.3 20150303 (release) [ARM/embedded-4_9-br
