ARM GAS  C:\Users\IVYLIU~1\AppData\Local\Temp\ccUqZ4Fb.s 			page 1


   1              		.syntax unified
   2              		.cpu cortex-m3
   3              		.fpu softvfp
   4              		.eabi_attribute 20, 1
   5              		.eabi_attribute 21, 1
   6              		.eabi_attribute 23, 3
   7              		.eabi_attribute 24, 1
   8              		.eabi_attribute 25, 1
   9              		.eabi_attribute 26, 1
  10              		.eabi_attribute 30, 1
  11              		.eabi_attribute 34, 1
  12              		.eabi_attribute 18, 4
  13              		.thumb
  14              		.file	"arm_cmplx_mult_real_q15.c"
  15              		.text
  16              	.Ltext0:
  17              		.cfi_sections	.debug_frame
  18              		.section	.text.arm_cmplx_mult_real_q15,"ax",%progbits
  19              		.align	2
  20              		.global	arm_cmplx_mult_real_q15
  21              		.thumb
  22              		.thumb_func
  23              		.type	arm_cmplx_mult_real_q15, %function
  24              	arm_cmplx_mult_real_q15:
  25              	.LFB84:
  26              		.file 1 ".\\DSP\\Source\\ComplexMathFunctions\\arm_cmplx_mult_real_q15.c"
   1:.\DSP\Source\ComplexMathFunctions/arm_cmplx_mult_real_q15.c **** /* ----------------------------------------------------------------------
   2:.\DSP\Source\ComplexMathFunctions/arm_cmplx_mult_real_q15.c ****  * Project:      CMSIS DSP Library
   3:.\DSP\Source\ComplexMathFunctions/arm_cmplx_mult_real_q15.c ****  * Title:        arm_cmplx_mult_real_q15.c
   4:.\DSP\Source\ComplexMathFunctions/arm_cmplx_mult_real_q15.c ****  * Description:  Q15 complex by real multiplication
   5:.\DSP\Source\ComplexMathFunctions/arm_cmplx_mult_real_q15.c ****  *
   6:.\DSP\Source\ComplexMathFunctions/arm_cmplx_mult_real_q15.c ****  * $Date:        23 April 2021
   7:.\DSP\Source\ComplexMathFunctions/arm_cmplx_mult_real_q15.c ****  * $Revision:    V1.9.0
   8:.\DSP\Source\ComplexMathFunctions/arm_cmplx_mult_real_q15.c ****  *
   9:.\DSP\Source\ComplexMathFunctions/arm_cmplx_mult_real_q15.c ****  * Target Processor: Cortex-M and Cortex-A cores
  10:.\DSP\Source\ComplexMathFunctions/arm_cmplx_mult_real_q15.c ****  * -------------------------------------------------------------------- */
  11:.\DSP\Source\ComplexMathFunctions/arm_cmplx_mult_real_q15.c **** /*
  12:.\DSP\Source\ComplexMathFunctions/arm_cmplx_mult_real_q15.c ****  * Copyright (C) 2010-2021 ARM Limited or its affiliates. All rights reserved.
  13:.\DSP\Source\ComplexMathFunctions/arm_cmplx_mult_real_q15.c ****  *
  14:.\DSP\Source\ComplexMathFunctions/arm_cmplx_mult_real_q15.c ****  * SPDX-License-Identifier: Apache-2.0
  15:.\DSP\Source\ComplexMathFunctions/arm_cmplx_mult_real_q15.c ****  *
  16:.\DSP\Source\ComplexMathFunctions/arm_cmplx_mult_real_q15.c ****  * Licensed under the Apache License, Version 2.0 (the License); you may
  17:.\DSP\Source\ComplexMathFunctions/arm_cmplx_mult_real_q15.c ****  * not use this file except in compliance with the License.
  18:.\DSP\Source\ComplexMathFunctions/arm_cmplx_mult_real_q15.c ****  * You may obtain a copy of the License at
  19:.\DSP\Source\ComplexMathFunctions/arm_cmplx_mult_real_q15.c ****  *
  20:.\DSP\Source\ComplexMathFunctions/arm_cmplx_mult_real_q15.c ****  * www.apache.org/licenses/LICENSE-2.0
  21:.\DSP\Source\ComplexMathFunctions/arm_cmplx_mult_real_q15.c ****  *
  22:.\DSP\Source\ComplexMathFunctions/arm_cmplx_mult_real_q15.c ****  * Unless required by applicable law or agreed to in writing, software
  23:.\DSP\Source\ComplexMathFunctions/arm_cmplx_mult_real_q15.c ****  * distributed under the License is distributed on an AS IS BASIS, WITHOUT
  24:.\DSP\Source\ComplexMathFunctions/arm_cmplx_mult_real_q15.c ****  * WARRANTIES OR CONDITIONS OF ANY KIND, either express or implied.
  25:.\DSP\Source\ComplexMathFunctions/arm_cmplx_mult_real_q15.c ****  * See the License for the specific language governing permissions and
  26:.\DSP\Source\ComplexMathFunctions/arm_cmplx_mult_real_q15.c ****  * limitations under the License.
  27:.\DSP\Source\ComplexMathFunctions/arm_cmplx_mult_real_q15.c ****  */
  28:.\DSP\Source\ComplexMathFunctions/arm_cmplx_mult_real_q15.c **** 
  29:.\DSP\Source\ComplexMathFunctions/arm_cmplx_mult_real_q15.c **** #include "dsp/complex_math_functions.h"
  30:.\DSP\Source\ComplexMathFunctions/arm_cmplx_mult_real_q15.c **** 
  31:.\DSP\Source\ComplexMathFunctions/arm_cmplx_mult_real_q15.c **** /**
ARM GAS  C:\Users\IVYLIU~1\AppData\Local\Temp\ccUqZ4Fb.s 			page 2


  32:.\DSP\Source\ComplexMathFunctions/arm_cmplx_mult_real_q15.c ****   @ingroup groupCmplxMath
  33:.\DSP\Source\ComplexMathFunctions/arm_cmplx_mult_real_q15.c ****  */
  34:.\DSP\Source\ComplexMathFunctions/arm_cmplx_mult_real_q15.c **** 
  35:.\DSP\Source\ComplexMathFunctions/arm_cmplx_mult_real_q15.c **** /**
  36:.\DSP\Source\ComplexMathFunctions/arm_cmplx_mult_real_q15.c ****   @addtogroup CmplxByRealMult
  37:.\DSP\Source\ComplexMathFunctions/arm_cmplx_mult_real_q15.c ****   @{
  38:.\DSP\Source\ComplexMathFunctions/arm_cmplx_mult_real_q15.c ****  */
  39:.\DSP\Source\ComplexMathFunctions/arm_cmplx_mult_real_q15.c **** 
  40:.\DSP\Source\ComplexMathFunctions/arm_cmplx_mult_real_q15.c **** /**
  41:.\DSP\Source\ComplexMathFunctions/arm_cmplx_mult_real_q15.c ****   @brief         Q15 complex-by-real multiplication.
  42:.\DSP\Source\ComplexMathFunctions/arm_cmplx_mult_real_q15.c ****   @param[in]     pSrcCmplx   points to complex input vector
  43:.\DSP\Source\ComplexMathFunctions/arm_cmplx_mult_real_q15.c ****   @param[in]     pSrcReal    points to real input vector
  44:.\DSP\Source\ComplexMathFunctions/arm_cmplx_mult_real_q15.c ****   @param[out]    pCmplxDst   points to complex output vector
  45:.\DSP\Source\ComplexMathFunctions/arm_cmplx_mult_real_q15.c ****   @param[in]     numSamples  number of samples in each vector
  46:.\DSP\Source\ComplexMathFunctions/arm_cmplx_mult_real_q15.c ****   @return        none
  47:.\DSP\Source\ComplexMathFunctions/arm_cmplx_mult_real_q15.c **** 
  48:.\DSP\Source\ComplexMathFunctions/arm_cmplx_mult_real_q15.c ****   @par           Scaling and Overflow Behavior
  49:.\DSP\Source\ComplexMathFunctions/arm_cmplx_mult_real_q15.c ****                    The function uses saturating arithmetic.
  50:.\DSP\Source\ComplexMathFunctions/arm_cmplx_mult_real_q15.c ****                    Results outside of the allowable Q15 range [0x8000 0x7FFF] are saturated.
  51:.\DSP\Source\ComplexMathFunctions/arm_cmplx_mult_real_q15.c ****  */
  52:.\DSP\Source\ComplexMathFunctions/arm_cmplx_mult_real_q15.c **** #if defined(ARM_MATH_MVEI) && !defined(ARM_MATH_AUTOVECTORIZE)
  53:.\DSP\Source\ComplexMathFunctions/arm_cmplx_mult_real_q15.c **** 
  54:.\DSP\Source\ComplexMathFunctions/arm_cmplx_mult_real_q15.c **** void arm_cmplx_mult_real_q15(
  55:.\DSP\Source\ComplexMathFunctions/arm_cmplx_mult_real_q15.c ****   const q15_t * pSrcCmplx,
  56:.\DSP\Source\ComplexMathFunctions/arm_cmplx_mult_real_q15.c ****   const q15_t * pSrcReal,
  57:.\DSP\Source\ComplexMathFunctions/arm_cmplx_mult_real_q15.c ****         q15_t * pCmplxDst,
  58:.\DSP\Source\ComplexMathFunctions/arm_cmplx_mult_real_q15.c ****         uint32_t numSamples)
  59:.\DSP\Source\ComplexMathFunctions/arm_cmplx_mult_real_q15.c **** {
  60:.\DSP\Source\ComplexMathFunctions/arm_cmplx_mult_real_q15.c ****   static const uint16_t stride_cmplx_x_real_16[8] = {
  61:.\DSP\Source\ComplexMathFunctions/arm_cmplx_mult_real_q15.c ****       0, 0, 1, 1, 2, 2, 3, 3
  62:.\DSP\Source\ComplexMathFunctions/arm_cmplx_mult_real_q15.c ****       };
  63:.\DSP\Source\ComplexMathFunctions/arm_cmplx_mult_real_q15.c ****   q15x8_t rVec;
  64:.\DSP\Source\ComplexMathFunctions/arm_cmplx_mult_real_q15.c ****   q15x8_t cmplxVec;
  65:.\DSP\Source\ComplexMathFunctions/arm_cmplx_mult_real_q15.c ****   q15x8_t dstVec;
  66:.\DSP\Source\ComplexMathFunctions/arm_cmplx_mult_real_q15.c ****   uint16x8_t strideVec;
  67:.\DSP\Source\ComplexMathFunctions/arm_cmplx_mult_real_q15.c ****   uint32_t blockSizeC = numSamples * CMPLX_DIM;   /* loop counters */
  68:.\DSP\Source\ComplexMathFunctions/arm_cmplx_mult_real_q15.c ****   uint32_t blkCnt;
  69:.\DSP\Source\ComplexMathFunctions/arm_cmplx_mult_real_q15.c ****   q15_t in;  
  70:.\DSP\Source\ComplexMathFunctions/arm_cmplx_mult_real_q15.c **** 
  71:.\DSP\Source\ComplexMathFunctions/arm_cmplx_mult_real_q15.c ****   /*
  72:.\DSP\Source\ComplexMathFunctions/arm_cmplx_mult_real_q15.c ****   * stride vector for pairs of real generation
  73:.\DSP\Source\ComplexMathFunctions/arm_cmplx_mult_real_q15.c ****   */
  74:.\DSP\Source\ComplexMathFunctions/arm_cmplx_mult_real_q15.c ****   strideVec = vld1q(stride_cmplx_x_real_16);
  75:.\DSP\Source\ComplexMathFunctions/arm_cmplx_mult_real_q15.c **** 
  76:.\DSP\Source\ComplexMathFunctions/arm_cmplx_mult_real_q15.c ****   blkCnt = blockSizeC >> 3;
  77:.\DSP\Source\ComplexMathFunctions/arm_cmplx_mult_real_q15.c **** 
  78:.\DSP\Source\ComplexMathFunctions/arm_cmplx_mult_real_q15.c ****   while (blkCnt > 0U) 
  79:.\DSP\Source\ComplexMathFunctions/arm_cmplx_mult_real_q15.c ****   {
  80:.\DSP\Source\ComplexMathFunctions/arm_cmplx_mult_real_q15.c ****     cmplxVec = vld1q(pSrcCmplx);
  81:.\DSP\Source\ComplexMathFunctions/arm_cmplx_mult_real_q15.c ****     rVec = vldrhq_gather_shifted_offset_s16(pSrcReal, strideVec);
  82:.\DSP\Source\ComplexMathFunctions/arm_cmplx_mult_real_q15.c ****     dstVec = vqdmulhq(cmplxVec, rVec);
  83:.\DSP\Source\ComplexMathFunctions/arm_cmplx_mult_real_q15.c ****     vst1q(pCmplxDst, dstVec);
  84:.\DSP\Source\ComplexMathFunctions/arm_cmplx_mult_real_q15.c **** 
  85:.\DSP\Source\ComplexMathFunctions/arm_cmplx_mult_real_q15.c ****     pSrcReal += 4;
  86:.\DSP\Source\ComplexMathFunctions/arm_cmplx_mult_real_q15.c ****     pSrcCmplx += 8;
  87:.\DSP\Source\ComplexMathFunctions/arm_cmplx_mult_real_q15.c ****     pCmplxDst += 8;
  88:.\DSP\Source\ComplexMathFunctions/arm_cmplx_mult_real_q15.c ****     blkCnt --;
ARM GAS  C:\Users\IVYLIU~1\AppData\Local\Temp\ccUqZ4Fb.s 			page 3


  89:.\DSP\Source\ComplexMathFunctions/arm_cmplx_mult_real_q15.c ****   }
  90:.\DSP\Source\ComplexMathFunctions/arm_cmplx_mult_real_q15.c **** 
  91:.\DSP\Source\ComplexMathFunctions/arm_cmplx_mult_real_q15.c ****   /* Tail */
  92:.\DSP\Source\ComplexMathFunctions/arm_cmplx_mult_real_q15.c ****   blkCnt = (blockSizeC & 7) >> 1;
  93:.\DSP\Source\ComplexMathFunctions/arm_cmplx_mult_real_q15.c ****   while (blkCnt > 0U)
  94:.\DSP\Source\ComplexMathFunctions/arm_cmplx_mult_real_q15.c ****   {
  95:.\DSP\Source\ComplexMathFunctions/arm_cmplx_mult_real_q15.c ****     /* C[2 * i    ] = A[2 * i    ] * B[i]. */
  96:.\DSP\Source\ComplexMathFunctions/arm_cmplx_mult_real_q15.c ****     /* C[2 * i + 1] = A[2 * i + 1] * B[i]. */
  97:.\DSP\Source\ComplexMathFunctions/arm_cmplx_mult_real_q15.c **** 
  98:.\DSP\Source\ComplexMathFunctions/arm_cmplx_mult_real_q15.c ****     in = *pSrcReal++;
  99:.\DSP\Source\ComplexMathFunctions/arm_cmplx_mult_real_q15.c ****     /* store the result in the destination buffer. */
 100:.\DSP\Source\ComplexMathFunctions/arm_cmplx_mult_real_q15.c ****     *pCmplxDst++ = (q15_t) __SSAT((((q31_t) *pSrcCmplx++ * in) >> 15), 16);
 101:.\DSP\Source\ComplexMathFunctions/arm_cmplx_mult_real_q15.c ****     *pCmplxDst++ = (q15_t) __SSAT((((q31_t) *pSrcCmplx++ * in) >> 15), 16);
 102:.\DSP\Source\ComplexMathFunctions/arm_cmplx_mult_real_q15.c **** 
 103:.\DSP\Source\ComplexMathFunctions/arm_cmplx_mult_real_q15.c ****     /* Decrement loop counter */
 104:.\DSP\Source\ComplexMathFunctions/arm_cmplx_mult_real_q15.c ****     blkCnt--;
 105:.\DSP\Source\ComplexMathFunctions/arm_cmplx_mult_real_q15.c ****   }
 106:.\DSP\Source\ComplexMathFunctions/arm_cmplx_mult_real_q15.c **** }
 107:.\DSP\Source\ComplexMathFunctions/arm_cmplx_mult_real_q15.c **** #else
 108:.\DSP\Source\ComplexMathFunctions/arm_cmplx_mult_real_q15.c **** void arm_cmplx_mult_real_q15(
 109:.\DSP\Source\ComplexMathFunctions/arm_cmplx_mult_real_q15.c ****   const q15_t * pSrcCmplx,
 110:.\DSP\Source\ComplexMathFunctions/arm_cmplx_mult_real_q15.c ****   const q15_t * pSrcReal,
 111:.\DSP\Source\ComplexMathFunctions/arm_cmplx_mult_real_q15.c ****         q15_t * pCmplxDst,
 112:.\DSP\Source\ComplexMathFunctions/arm_cmplx_mult_real_q15.c ****         uint32_t numSamples)
 113:.\DSP\Source\ComplexMathFunctions/arm_cmplx_mult_real_q15.c **** {
  27              		.loc 1 113 0
  28              		.cfi_startproc
  29              		@ args = 0, pretend = 0, frame = 0
  30              		@ frame_needed = 0, uses_anonymous_args = 0
  31              	.LVL0:
  32 0000 F0B5     		push	{r4, r5, r6, r7, lr}
  33              		.cfi_def_cfa_offset 20
  34              		.cfi_offset 4, -20
  35              		.cfi_offset 5, -16
  36              		.cfi_offset 6, -12
  37              		.cfi_offset 7, -8
  38              		.cfi_offset 14, -4
  39              	.LVL1:
 114:.\DSP\Source\ComplexMathFunctions/arm_cmplx_mult_real_q15.c ****         uint32_t blkCnt;                               /* Loop counter */
 115:.\DSP\Source\ComplexMathFunctions/arm_cmplx_mult_real_q15.c ****         q15_t in;                                      /* Temporary variable */
 116:.\DSP\Source\ComplexMathFunctions/arm_cmplx_mult_real_q15.c **** 
 117:.\DSP\Source\ComplexMathFunctions/arm_cmplx_mult_real_q15.c **** #if defined (ARM_MATH_LOOPUNROLL)
 118:.\DSP\Source\ComplexMathFunctions/arm_cmplx_mult_real_q15.c **** 
 119:.\DSP\Source\ComplexMathFunctions/arm_cmplx_mult_real_q15.c **** #if defined (ARM_MATH_DSP)
 120:.\DSP\Source\ComplexMathFunctions/arm_cmplx_mult_real_q15.c ****         q31_t inA1, inA2;                              /* Temporary variables to hold input data */
 121:.\DSP\Source\ComplexMathFunctions/arm_cmplx_mult_real_q15.c ****         q31_t inB1;                                    /* Temporary variables to hold input data */
 122:.\DSP\Source\ComplexMathFunctions/arm_cmplx_mult_real_q15.c ****         q15_t out1, out2, out3, out4;                  /* Temporary variables to hold output data *
 123:.\DSP\Source\ComplexMathFunctions/arm_cmplx_mult_real_q15.c ****         q31_t mul1, mul2, mul3, mul4;                  /* Temporary variables to hold intermediate 
 124:.\DSP\Source\ComplexMathFunctions/arm_cmplx_mult_real_q15.c **** #endif
 125:.\DSP\Source\ComplexMathFunctions/arm_cmplx_mult_real_q15.c **** 
 126:.\DSP\Source\ComplexMathFunctions/arm_cmplx_mult_real_q15.c ****   /* Loop unrolling: Compute 4 outputs at a time */
 127:.\DSP\Source\ComplexMathFunctions/arm_cmplx_mult_real_q15.c ****   blkCnt = numSamples >> 2U;
 128:.\DSP\Source\ComplexMathFunctions/arm_cmplx_mult_real_q15.c **** 
 129:.\DSP\Source\ComplexMathFunctions/arm_cmplx_mult_real_q15.c ****   while (blkCnt > 0U)
 130:.\DSP\Source\ComplexMathFunctions/arm_cmplx_mult_real_q15.c ****   {
 131:.\DSP\Source\ComplexMathFunctions/arm_cmplx_mult_real_q15.c ****     /* C[2 * i    ] = A[2 * i    ] * B[i]. */
 132:.\DSP\Source\ComplexMathFunctions/arm_cmplx_mult_real_q15.c ****     /* C[2 * i + 1] = A[2 * i + 1] * B[i]. */
ARM GAS  C:\Users\IVYLIU~1\AppData\Local\Temp\ccUqZ4Fb.s 			page 4


 133:.\DSP\Source\ComplexMathFunctions/arm_cmplx_mult_real_q15.c **** 
 134:.\DSP\Source\ComplexMathFunctions/arm_cmplx_mult_real_q15.c **** #if defined (ARM_MATH_DSP)
 135:.\DSP\Source\ComplexMathFunctions/arm_cmplx_mult_real_q15.c ****     /* read 2 complex numbers both real and imaginary from complex input buffer */
 136:.\DSP\Source\ComplexMathFunctions/arm_cmplx_mult_real_q15.c ****     inA1 = read_q15x2_ia (&pSrcCmplx);
 137:.\DSP\Source\ComplexMathFunctions/arm_cmplx_mult_real_q15.c ****     inA2 = read_q15x2_ia (&pSrcCmplx);
 138:.\DSP\Source\ComplexMathFunctions/arm_cmplx_mult_real_q15.c ****     /* read 2 real values at a time from real input buffer */
 139:.\DSP\Source\ComplexMathFunctions/arm_cmplx_mult_real_q15.c ****     inB1 = read_q15x2_ia (&pSrcReal);
 140:.\DSP\Source\ComplexMathFunctions/arm_cmplx_mult_real_q15.c **** 
 141:.\DSP\Source\ComplexMathFunctions/arm_cmplx_mult_real_q15.c ****     /* multiply complex number with real numbers */
 142:.\DSP\Source\ComplexMathFunctions/arm_cmplx_mult_real_q15.c **** #ifndef ARM_MATH_BIG_ENDIAN
 143:.\DSP\Source\ComplexMathFunctions/arm_cmplx_mult_real_q15.c ****     mul1 = (q31_t) ((q15_t) (inA1)       * (q15_t) (inB1));
 144:.\DSP\Source\ComplexMathFunctions/arm_cmplx_mult_real_q15.c ****     mul2 = (q31_t) ((q15_t) (inA1 >> 16) * (q15_t) (inB1));
 145:.\DSP\Source\ComplexMathFunctions/arm_cmplx_mult_real_q15.c ****     mul3 = (q31_t) ((q15_t) (inA2)       * (q15_t) (inB1 >> 16));
 146:.\DSP\Source\ComplexMathFunctions/arm_cmplx_mult_real_q15.c ****     mul4 = (q31_t) ((q15_t) (inA2 >> 16) * (q15_t) (inB1 >> 16));
 147:.\DSP\Source\ComplexMathFunctions/arm_cmplx_mult_real_q15.c **** #else
 148:.\DSP\Source\ComplexMathFunctions/arm_cmplx_mult_real_q15.c ****     mul2 = (q31_t) ((q15_t) (inA1 >> 16) * (q15_t) (inB1 >> 16));
 149:.\DSP\Source\ComplexMathFunctions/arm_cmplx_mult_real_q15.c ****     mul1 = (q31_t) ((q15_t) inA1         * (q15_t) (inB1 >> 16));
 150:.\DSP\Source\ComplexMathFunctions/arm_cmplx_mult_real_q15.c ****     mul4 = (q31_t) ((q15_t) (inA2 >> 16) * (q15_t) inB1);
 151:.\DSP\Source\ComplexMathFunctions/arm_cmplx_mult_real_q15.c ****     mul3 = (q31_t) ((q15_t) inA2         * (q15_t) inB1);
 152:.\DSP\Source\ComplexMathFunctions/arm_cmplx_mult_real_q15.c **** #endif /* #ifndef ARM_MATH_BIG_ENDIAN */
 153:.\DSP\Source\ComplexMathFunctions/arm_cmplx_mult_real_q15.c **** 
 154:.\DSP\Source\ComplexMathFunctions/arm_cmplx_mult_real_q15.c ****     /* saturate the result */
 155:.\DSP\Source\ComplexMathFunctions/arm_cmplx_mult_real_q15.c ****     out1 = (q15_t) __SSAT(mul1 >> 15U, 16);
 156:.\DSP\Source\ComplexMathFunctions/arm_cmplx_mult_real_q15.c ****     out2 = (q15_t) __SSAT(mul2 >> 15U, 16);
 157:.\DSP\Source\ComplexMathFunctions/arm_cmplx_mult_real_q15.c ****     out3 = (q15_t) __SSAT(mul3 >> 15U, 16);
 158:.\DSP\Source\ComplexMathFunctions/arm_cmplx_mult_real_q15.c ****     out4 = (q15_t) __SSAT(mul4 >> 15U, 16);
 159:.\DSP\Source\ComplexMathFunctions/arm_cmplx_mult_real_q15.c **** 
 160:.\DSP\Source\ComplexMathFunctions/arm_cmplx_mult_real_q15.c ****     /* pack real and imaginary outputs and store them to destination */
 161:.\DSP\Source\ComplexMathFunctions/arm_cmplx_mult_real_q15.c ****     write_q15x2_ia (&pCmplxDst, __PKHBT(out1, out2, 16));
 162:.\DSP\Source\ComplexMathFunctions/arm_cmplx_mult_real_q15.c ****     write_q15x2_ia (&pCmplxDst, __PKHBT(out3, out4, 16));
 163:.\DSP\Source\ComplexMathFunctions/arm_cmplx_mult_real_q15.c **** 
 164:.\DSP\Source\ComplexMathFunctions/arm_cmplx_mult_real_q15.c ****     inA1 = read_q15x2_ia (&pSrcCmplx);
 165:.\DSP\Source\ComplexMathFunctions/arm_cmplx_mult_real_q15.c ****     inA2 = read_q15x2_ia (&pSrcCmplx);
 166:.\DSP\Source\ComplexMathFunctions/arm_cmplx_mult_real_q15.c ****     inB1 = read_q15x2_ia (&pSrcReal);
 167:.\DSP\Source\ComplexMathFunctions/arm_cmplx_mult_real_q15.c **** 
 168:.\DSP\Source\ComplexMathFunctions/arm_cmplx_mult_real_q15.c **** #ifndef ARM_MATH_BIG_ENDIAN
 169:.\DSP\Source\ComplexMathFunctions/arm_cmplx_mult_real_q15.c ****     mul1 = (q31_t) ((q15_t) (inA1)       * (q15_t) (inB1));
 170:.\DSP\Source\ComplexMathFunctions/arm_cmplx_mult_real_q15.c ****     mul2 = (q31_t) ((q15_t) (inA1 >> 16) * (q15_t) (inB1));
 171:.\DSP\Source\ComplexMathFunctions/arm_cmplx_mult_real_q15.c ****     mul3 = (q31_t) ((q15_t) (inA2)       * (q15_t) (inB1 >> 16));
 172:.\DSP\Source\ComplexMathFunctions/arm_cmplx_mult_real_q15.c ****     mul4 = (q31_t) ((q15_t) (inA2 >> 16) * (q15_t) (inB1 >> 16));
 173:.\DSP\Source\ComplexMathFunctions/arm_cmplx_mult_real_q15.c **** #else
 174:.\DSP\Source\ComplexMathFunctions/arm_cmplx_mult_real_q15.c ****     mul2 = (q31_t) ((q15_t) (inA1 >> 16) * (q15_t) (inB1 >> 16));
 175:.\DSP\Source\ComplexMathFunctions/arm_cmplx_mult_real_q15.c ****     mul1 = (q31_t) ((q15_t) inA1         * (q15_t) (inB1 >> 16));
 176:.\DSP\Source\ComplexMathFunctions/arm_cmplx_mult_real_q15.c ****     mul4 = (q31_t) ((q15_t) (inA2 >> 16) * (q15_t) inB1);
 177:.\DSP\Source\ComplexMathFunctions/arm_cmplx_mult_real_q15.c ****     mul3 = (q31_t) ((q15_t) inA2 * (q15_t) inB1);
 178:.\DSP\Source\ComplexMathFunctions/arm_cmplx_mult_real_q15.c **** #endif /* #ifndef ARM_MATH_BIG_ENDIAN */
 179:.\DSP\Source\ComplexMathFunctions/arm_cmplx_mult_real_q15.c **** 
 180:.\DSP\Source\ComplexMathFunctions/arm_cmplx_mult_real_q15.c ****     out1 = (q15_t) __SSAT(mul1 >> 15U, 16);
 181:.\DSP\Source\ComplexMathFunctions/arm_cmplx_mult_real_q15.c ****     out2 = (q15_t) __SSAT(mul2 >> 15U, 16);
 182:.\DSP\Source\ComplexMathFunctions/arm_cmplx_mult_real_q15.c ****     out3 = (q15_t) __SSAT(mul3 >> 15U, 16);
 183:.\DSP\Source\ComplexMathFunctions/arm_cmplx_mult_real_q15.c ****     out4 = (q15_t) __SSAT(mul4 >> 15U, 16);
 184:.\DSP\Source\ComplexMathFunctions/arm_cmplx_mult_real_q15.c **** 
 185:.\DSP\Source\ComplexMathFunctions/arm_cmplx_mult_real_q15.c ****     write_q15x2_ia (&pCmplxDst, __PKHBT(out1, out2, 16));
 186:.\DSP\Source\ComplexMathFunctions/arm_cmplx_mult_real_q15.c ****     write_q15x2_ia (&pCmplxDst, __PKHBT(out3, out4, 16));
 187:.\DSP\Source\ComplexMathFunctions/arm_cmplx_mult_real_q15.c **** #else
 188:.\DSP\Source\ComplexMathFunctions/arm_cmplx_mult_real_q15.c ****     in = *pSrcReal++;
 189:.\DSP\Source\ComplexMathFunctions/arm_cmplx_mult_real_q15.c ****     *pCmplxDst++ = (q15_t) __SSAT((((q31_t) *pSrcCmplx++ * in) >> 15), 16);
ARM GAS  C:\Users\IVYLIU~1\AppData\Local\Temp\ccUqZ4Fb.s 			page 5


 190:.\DSP\Source\ComplexMathFunctions/arm_cmplx_mult_real_q15.c ****     *pCmplxDst++ = (q15_t) __SSAT((((q31_t) *pSrcCmplx++ * in) >> 15), 16);
 191:.\DSP\Source\ComplexMathFunctions/arm_cmplx_mult_real_q15.c **** 
 192:.\DSP\Source\ComplexMathFunctions/arm_cmplx_mult_real_q15.c ****     in = *pSrcReal++;
 193:.\DSP\Source\ComplexMathFunctions/arm_cmplx_mult_real_q15.c ****     *pCmplxDst++ = (q15_t) __SSAT((((q31_t) *pSrcCmplx++ * in) >> 15), 16);
 194:.\DSP\Source\ComplexMathFunctions/arm_cmplx_mult_real_q15.c ****     *pCmplxDst++ = (q15_t) __SSAT((((q31_t) *pSrcCmplx++ * in) >> 15), 16);
 195:.\DSP\Source\ComplexMathFunctions/arm_cmplx_mult_real_q15.c **** 
 196:.\DSP\Source\ComplexMathFunctions/arm_cmplx_mult_real_q15.c ****     in = *pSrcReal++;
 197:.\DSP\Source\ComplexMathFunctions/arm_cmplx_mult_real_q15.c ****     *pCmplxDst++ = (q15_t) __SSAT((((q31_t) *pSrcCmplx++ * in) >> 15), 16);
 198:.\DSP\Source\ComplexMathFunctions/arm_cmplx_mult_real_q15.c ****     *pCmplxDst++ = (q15_t) __SSAT((((q31_t) *pSrcCmplx++ * in) >> 15), 16);
 199:.\DSP\Source\ComplexMathFunctions/arm_cmplx_mult_real_q15.c **** 
 200:.\DSP\Source\ComplexMathFunctions/arm_cmplx_mult_real_q15.c ****     in = *pSrcReal++;
 201:.\DSP\Source\ComplexMathFunctions/arm_cmplx_mult_real_q15.c ****     *pCmplxDst++ = (q15_t) __SSAT((((q31_t) *pSrcCmplx++ * in) >> 15), 16);
 202:.\DSP\Source\ComplexMathFunctions/arm_cmplx_mult_real_q15.c ****     *pCmplxDst++ = (q15_t) __SSAT((((q31_t) *pSrcCmplx++ * in) >> 15), 16);
 203:.\DSP\Source\ComplexMathFunctions/arm_cmplx_mult_real_q15.c **** #endif
 204:.\DSP\Source\ComplexMathFunctions/arm_cmplx_mult_real_q15.c **** 
 205:.\DSP\Source\ComplexMathFunctions/arm_cmplx_mult_real_q15.c ****     /* Decrement loop counter */
 206:.\DSP\Source\ComplexMathFunctions/arm_cmplx_mult_real_q15.c ****     blkCnt--;
 207:.\DSP\Source\ComplexMathFunctions/arm_cmplx_mult_real_q15.c ****   }
 208:.\DSP\Source\ComplexMathFunctions/arm_cmplx_mult_real_q15.c **** 
 209:.\DSP\Source\ComplexMathFunctions/arm_cmplx_mult_real_q15.c ****   /* Loop unrolling: Compute remaining outputs */
 210:.\DSP\Source\ComplexMathFunctions/arm_cmplx_mult_real_q15.c ****   blkCnt = numSamples % 0x4U;
 211:.\DSP\Source\ComplexMathFunctions/arm_cmplx_mult_real_q15.c **** 
 212:.\DSP\Source\ComplexMathFunctions/arm_cmplx_mult_real_q15.c **** #else
 213:.\DSP\Source\ComplexMathFunctions/arm_cmplx_mult_real_q15.c **** 
 214:.\DSP\Source\ComplexMathFunctions/arm_cmplx_mult_real_q15.c ****   /* Initialize blkCnt with number of samples */
 215:.\DSP\Source\ComplexMathFunctions/arm_cmplx_mult_real_q15.c ****   blkCnt = numSamples;
 216:.\DSP\Source\ComplexMathFunctions/arm_cmplx_mult_real_q15.c **** 
 217:.\DSP\Source\ComplexMathFunctions/arm_cmplx_mult_real_q15.c **** #endif /* #if defined (ARM_MATH_LOOPUNROLL) */
 218:.\DSP\Source\ComplexMathFunctions/arm_cmplx_mult_real_q15.c **** 
 219:.\DSP\Source\ComplexMathFunctions/arm_cmplx_mult_real_q15.c ****   while (blkCnt > 0U)
  40              		.loc 1 219 0
  41 0002 19E0     		b	.L2
  42              	.LVL2:
  43              	.L3:
 220:.\DSP\Source\ComplexMathFunctions/arm_cmplx_mult_real_q15.c ****   {
 221:.\DSP\Source\ComplexMathFunctions/arm_cmplx_mult_real_q15.c ****     /* C[2 * i    ] = A[2 * i    ] * B[i]. */
 222:.\DSP\Source\ComplexMathFunctions/arm_cmplx_mult_real_q15.c ****     /* C[2 * i + 1] = A[2 * i + 1] * B[i]. */
 223:.\DSP\Source\ComplexMathFunctions/arm_cmplx_mult_real_q15.c **** 
 224:.\DSP\Source\ComplexMathFunctions/arm_cmplx_mult_real_q15.c ****     in = *pSrcReal++;
  44              		.loc 1 224 0
  45 0004 8F1C     		adds	r7, r1, #2
  46              	.LVL3:
  47              	.LBB2:
 225:.\DSP\Source\ComplexMathFunctions/arm_cmplx_mult_real_q15.c ****     /* store the result in the destination buffer. */
 226:.\DSP\Source\ComplexMathFunctions/arm_cmplx_mult_real_q15.c ****     *pCmplxDst++ = (q15_t) __SSAT((((q31_t) *pSrcCmplx++ * in) >> 15), 16);
  48              		.loc 1 226 0
  49 0006 0546     		mov	r5, r0
  50 0008 35F9044B 		ldrsh	r4, [r5], #4
  51 000c B1F900E0 		ldrsh	lr, [r1]
  52 0010 0EFB04F4 		mul	r4, lr, r4
  53 0014 E413     		asrs	r4, r4, #15
  54              	.LVL4:
  55              	@ 226 ".\DSP\Source\ComplexMathFunctions\arm_cmplx_mult_real_q15.c" 1
  56 0016 04F30F04 		ssat r4, #16, r4
  57              	@ 0 "" 2
  58              	.LVL5:
  59              		.thumb
ARM GAS  C:\Users\IVYLIU~1\AppData\Local\Temp\ccUqZ4Fb.s 			page 6


  60              	.LBE2:
  61 001a 1646     		mov	r6, r2
  62 001c 26F8044B 		strh	r4, [r6], #4	@ movhi
  63              	.LVL6:
  64              	.LBB3:
 227:.\DSP\Source\ComplexMathFunctions/arm_cmplx_mult_real_q15.c ****     *pCmplxDst++ = (q15_t) __SSAT((((q31_t) *pSrcCmplx++ * in) >> 15), 16);
  65              		.loc 1 227 0
  66 0020 B0F90210 		ldrsh	r1, [r0, #2]
  67 0024 01FB0EF1 		mul	r1, r1, lr
  68 0028 C913     		asrs	r1, r1, #15
  69              	.LVL7:
  70              	@ 227 ".\DSP\Source\ComplexMathFunctions\arm_cmplx_mult_real_q15.c" 1
  71 002a 01F30F01 		ssat r1, #16, r1
  72              	@ 0 "" 2
  73              	.LVL8:
  74              		.thumb
  75              	.LBE3:
  76 002e 5180     		strh	r1, [r2, #2]	@ movhi
  77              	.LVL9:
 228:.\DSP\Source\ComplexMathFunctions/arm_cmplx_mult_real_q15.c **** 
 229:.\DSP\Source\ComplexMathFunctions/arm_cmplx_mult_real_q15.c ****     /* Decrement loop counter */
 230:.\DSP\Source\ComplexMathFunctions/arm_cmplx_mult_real_q15.c ****     blkCnt--;
  78              		.loc 1 230 0
  79 0030 013B     		subs	r3, r3, #1
  80              	.LVL10:
 227:.\DSP\Source\ComplexMathFunctions/arm_cmplx_mult_real_q15.c ****     *pCmplxDst++ = (q15_t) __SSAT((((q31_t) *pSrcCmplx++ * in) >> 15), 16);
  81              		.loc 1 227 0
  82 0032 3246     		mov	r2, r6
 224:.\DSP\Source\ComplexMathFunctions/arm_cmplx_mult_real_q15.c ****     /* store the result in the destination buffer. */
  83              		.loc 1 224 0
  84 0034 3946     		mov	r1, r7
  85              	.LVL11:
  86              	.LBB4:
 227:.\DSP\Source\ComplexMathFunctions/arm_cmplx_mult_real_q15.c ****     *pCmplxDst++ = (q15_t) __SSAT((((q31_t) *pSrcCmplx++ * in) >> 15), 16);
  87              		.loc 1 227 0
  88 0036 2846     		mov	r0, r5
  89              	.LVL12:
  90              	.L2:
  91              	.LBE4:
 219:.\DSP\Source\ComplexMathFunctions/arm_cmplx_mult_real_q15.c ****   {
  92              		.loc 1 219 0
  93 0038 002B     		cmp	r3, #0
  94 003a E3D1     		bne	.L3
 231:.\DSP\Source\ComplexMathFunctions/arm_cmplx_mult_real_q15.c ****   }
 232:.\DSP\Source\ComplexMathFunctions/arm_cmplx_mult_real_q15.c **** 
 233:.\DSP\Source\ComplexMathFunctions/arm_cmplx_mult_real_q15.c **** }
  95              		.loc 1 233 0
  96 003c F0BD     		pop	{r4, r5, r6, r7, pc}
  97              		.cfi_endproc
  98              	.LFE84:
  99              		.size	arm_cmplx_mult_real_q15, .-arm_cmplx_mult_real_q15
 100 003e 00BF     		.text
 101              	.Letext0:
 102              		.file 2 "c:\\program files (x86)\\cypress\\psoc creator\\3.3\\psoc creator\\import\\gnu\\arm\\4.9.
 103              		.file 3 "c:\\program files (x86)\\cypress\\psoc creator\\3.3\\psoc creator\\import\\gnu\\arm\\4.9.
 104              		.file 4 ".\\DSP\\Include/arm_math_types.h"
 105              		.file 5 ".\\Core\\Include/cmsis_gcc.h"
ARM GAS  C:\Users\IVYLIU~1\AppData\Local\Temp\ccUqZ4Fb.s 			page 7

