ARM GAS  C:\Users\IVYLIU~1\AppData\Local\Temp\ccTa4uBU.s 			page 1


   1              		.syntax unified
   2              		.cpu cortex-m3
   3              		.fpu softvfp
   4              		.eabi_attribute 20, 1
   5              		.eabi_attribute 21, 1
   6              		.eabi_attribute 23, 3
   7              		.eabi_attribute 24, 1
   8              		.eabi_attribute 25, 1
   9              		.eabi_attribute 26, 1
  10              		.eabi_attribute 30, 1
  11              		.eabi_attribute 34, 1
  12              		.eabi_attribute 18, 4
  13              		.thumb
  14              		.file	"arm_cmplx_dot_prod_q31.c"
  15              		.text
  16              	.Ltext0:
  17              		.cfi_sections	.debug_frame
  18              		.section	.text.arm_cmplx_dot_prod_q31,"ax",%progbits
  19              		.align	2
  20              		.global	arm_cmplx_dot_prod_q31
  21              		.thumb
  22              		.thumb_func
  23              		.type	arm_cmplx_dot_prod_q31, %function
  24              	arm_cmplx_dot_prod_q31:
  25              	.LFB84:
  26              		.file 1 ".\\DSP\\Source\\ComplexMathFunctions\\arm_cmplx_dot_prod_q31.c"
   1:.\DSP\Source\ComplexMathFunctions/arm_cmplx_dot_prod_q31.c **** /* ----------------------------------------------------------------------
   2:.\DSP\Source\ComplexMathFunctions/arm_cmplx_dot_prod_q31.c ****  * Project:      CMSIS DSP Library
   3:.\DSP\Source\ComplexMathFunctions/arm_cmplx_dot_prod_q31.c ****  * Title:        arm_cmplx_dot_prod_q31.c
   4:.\DSP\Source\ComplexMathFunctions/arm_cmplx_dot_prod_q31.c ****  * Description:  Q31 complex dot product
   5:.\DSP\Source\ComplexMathFunctions/arm_cmplx_dot_prod_q31.c ****  *
   6:.\DSP\Source\ComplexMathFunctions/arm_cmplx_dot_prod_q31.c ****  * $Date:        23 April 2021
   7:.\DSP\Source\ComplexMathFunctions/arm_cmplx_dot_prod_q31.c ****  * $Revision:    V1.9.0
   8:.\DSP\Source\ComplexMathFunctions/arm_cmplx_dot_prod_q31.c ****  *
   9:.\DSP\Source\ComplexMathFunctions/arm_cmplx_dot_prod_q31.c ****  * Target Processor: Cortex-M and Cortex-A cores
  10:.\DSP\Source\ComplexMathFunctions/arm_cmplx_dot_prod_q31.c ****  * -------------------------------------------------------------------- */
  11:.\DSP\Source\ComplexMathFunctions/arm_cmplx_dot_prod_q31.c **** /*
  12:.\DSP\Source\ComplexMathFunctions/arm_cmplx_dot_prod_q31.c ****  * Copyright (C) 2010-2021 ARM Limited or its affiliates. All rights reserved.
  13:.\DSP\Source\ComplexMathFunctions/arm_cmplx_dot_prod_q31.c ****  *
  14:.\DSP\Source\ComplexMathFunctions/arm_cmplx_dot_prod_q31.c ****  * SPDX-License-Identifier: Apache-2.0
  15:.\DSP\Source\ComplexMathFunctions/arm_cmplx_dot_prod_q31.c ****  *
  16:.\DSP\Source\ComplexMathFunctions/arm_cmplx_dot_prod_q31.c ****  * Licensed under the Apache License, Version 2.0 (the License); you may
  17:.\DSP\Source\ComplexMathFunctions/arm_cmplx_dot_prod_q31.c ****  * not use this file except in compliance with the License.
  18:.\DSP\Source\ComplexMathFunctions/arm_cmplx_dot_prod_q31.c ****  * You may obtain a copy of the License at
  19:.\DSP\Source\ComplexMathFunctions/arm_cmplx_dot_prod_q31.c ****  *
  20:.\DSP\Source\ComplexMathFunctions/arm_cmplx_dot_prod_q31.c ****  * www.apache.org/licenses/LICENSE-2.0
  21:.\DSP\Source\ComplexMathFunctions/arm_cmplx_dot_prod_q31.c ****  *
  22:.\DSP\Source\ComplexMathFunctions/arm_cmplx_dot_prod_q31.c ****  * Unless required by applicable law or agreed to in writing, software
  23:.\DSP\Source\ComplexMathFunctions/arm_cmplx_dot_prod_q31.c ****  * distributed under the License is distributed on an AS IS BASIS, WITHOUT
  24:.\DSP\Source\ComplexMathFunctions/arm_cmplx_dot_prod_q31.c ****  * WARRANTIES OR CONDITIONS OF ANY KIND, either express or implied.
  25:.\DSP\Source\ComplexMathFunctions/arm_cmplx_dot_prod_q31.c ****  * See the License for the specific language governing permissions and
  26:.\DSP\Source\ComplexMathFunctions/arm_cmplx_dot_prod_q31.c ****  * limitations under the License.
  27:.\DSP\Source\ComplexMathFunctions/arm_cmplx_dot_prod_q31.c ****  */
  28:.\DSP\Source\ComplexMathFunctions/arm_cmplx_dot_prod_q31.c **** 
  29:.\DSP\Source\ComplexMathFunctions/arm_cmplx_dot_prod_q31.c **** #include "dsp/complex_math_functions.h"
  30:.\DSP\Source\ComplexMathFunctions/arm_cmplx_dot_prod_q31.c **** 
  31:.\DSP\Source\ComplexMathFunctions/arm_cmplx_dot_prod_q31.c **** /**
ARM GAS  C:\Users\IVYLIU~1\AppData\Local\Temp\ccTa4uBU.s 			page 2


  32:.\DSP\Source\ComplexMathFunctions/arm_cmplx_dot_prod_q31.c ****   @ingroup groupCmplxMath
  33:.\DSP\Source\ComplexMathFunctions/arm_cmplx_dot_prod_q31.c ****  */
  34:.\DSP\Source\ComplexMathFunctions/arm_cmplx_dot_prod_q31.c **** 
  35:.\DSP\Source\ComplexMathFunctions/arm_cmplx_dot_prod_q31.c **** /**
  36:.\DSP\Source\ComplexMathFunctions/arm_cmplx_dot_prod_q31.c ****   @addtogroup cmplx_dot_prod
  37:.\DSP\Source\ComplexMathFunctions/arm_cmplx_dot_prod_q31.c ****   @{
  38:.\DSP\Source\ComplexMathFunctions/arm_cmplx_dot_prod_q31.c ****  */
  39:.\DSP\Source\ComplexMathFunctions/arm_cmplx_dot_prod_q31.c **** 
  40:.\DSP\Source\ComplexMathFunctions/arm_cmplx_dot_prod_q31.c **** /**
  41:.\DSP\Source\ComplexMathFunctions/arm_cmplx_dot_prod_q31.c ****   @brief         Q31 complex dot product.
  42:.\DSP\Source\ComplexMathFunctions/arm_cmplx_dot_prod_q31.c ****   @param[in]     pSrcA       points to the first input vector
  43:.\DSP\Source\ComplexMathFunctions/arm_cmplx_dot_prod_q31.c ****   @param[in]     pSrcB       points to the second input vector
  44:.\DSP\Source\ComplexMathFunctions/arm_cmplx_dot_prod_q31.c ****   @param[in]     numSamples  number of samples in each vector
  45:.\DSP\Source\ComplexMathFunctions/arm_cmplx_dot_prod_q31.c ****   @param[out]    realResult  real part of the result returned here
  46:.\DSP\Source\ComplexMathFunctions/arm_cmplx_dot_prod_q31.c ****   @param[out]    imagResult  imaginary part of the result returned here
  47:.\DSP\Source\ComplexMathFunctions/arm_cmplx_dot_prod_q31.c ****   @return        none
  48:.\DSP\Source\ComplexMathFunctions/arm_cmplx_dot_prod_q31.c **** 
  49:.\DSP\Source\ComplexMathFunctions/arm_cmplx_dot_prod_q31.c ****   @par           Scaling and Overflow Behavior
  50:.\DSP\Source\ComplexMathFunctions/arm_cmplx_dot_prod_q31.c ****                    The function is implemented using an internal 64-bit accumulator.
  51:.\DSP\Source\ComplexMathFunctions/arm_cmplx_dot_prod_q31.c ****                    The intermediate 1.31 by 1.31 multiplications are performed with 64-bit precisio
  52:.\DSP\Source\ComplexMathFunctions/arm_cmplx_dot_prod_q31.c ****                    The internal real and imaginary accumulators are in 16.48 format and provide 15 
  53:.\DSP\Source\ComplexMathFunctions/arm_cmplx_dot_prod_q31.c ****                    Additions are nonsaturating and no overflow will occur as long as <code>numSampl
  54:.\DSP\Source\ComplexMathFunctions/arm_cmplx_dot_prod_q31.c ****                    The return results <code>realResult</code> and <code>imagResult</code> are in 16
  55:.\DSP\Source\ComplexMathFunctions/arm_cmplx_dot_prod_q31.c ****                    Input down scaling is not required.
  56:.\DSP\Source\ComplexMathFunctions/arm_cmplx_dot_prod_q31.c ****  */
  57:.\DSP\Source\ComplexMathFunctions/arm_cmplx_dot_prod_q31.c **** 
  58:.\DSP\Source\ComplexMathFunctions/arm_cmplx_dot_prod_q31.c **** #if defined(ARM_MATH_MVEI) && !defined(ARM_MATH_AUTOVECTORIZE)
  59:.\DSP\Source\ComplexMathFunctions/arm_cmplx_dot_prod_q31.c **** 
  60:.\DSP\Source\ComplexMathFunctions/arm_cmplx_dot_prod_q31.c **** void arm_cmplx_dot_prod_q31(
  61:.\DSP\Source\ComplexMathFunctions/arm_cmplx_dot_prod_q31.c ****   const q31_t * pSrcA,
  62:.\DSP\Source\ComplexMathFunctions/arm_cmplx_dot_prod_q31.c ****   const q31_t * pSrcB,
  63:.\DSP\Source\ComplexMathFunctions/arm_cmplx_dot_prod_q31.c ****         uint32_t numSamples,
  64:.\DSP\Source\ComplexMathFunctions/arm_cmplx_dot_prod_q31.c ****         q63_t * realResult,
  65:.\DSP\Source\ComplexMathFunctions/arm_cmplx_dot_prod_q31.c ****         q63_t * imagResult)
  66:.\DSP\Source\ComplexMathFunctions/arm_cmplx_dot_prod_q31.c **** {
  67:.\DSP\Source\ComplexMathFunctions/arm_cmplx_dot_prod_q31.c ****     int32_t         blkCnt;
  68:.\DSP\Source\ComplexMathFunctions/arm_cmplx_dot_prod_q31.c ****     q63_t           accReal = 0LL;
  69:.\DSP\Source\ComplexMathFunctions/arm_cmplx_dot_prod_q31.c ****     q63_t           accImag = 0LL;
  70:.\DSP\Source\ComplexMathFunctions/arm_cmplx_dot_prod_q31.c ****     q31x4_t         vecSrcA, vecSrcB;
  71:.\DSP\Source\ComplexMathFunctions/arm_cmplx_dot_prod_q31.c ****     q31x4_t         vecSrcC, vecSrcD;
  72:.\DSP\Source\ComplexMathFunctions/arm_cmplx_dot_prod_q31.c **** 
  73:.\DSP\Source\ComplexMathFunctions/arm_cmplx_dot_prod_q31.c ****     blkCnt = numSamples >> 2;
  74:.\DSP\Source\ComplexMathFunctions/arm_cmplx_dot_prod_q31.c ****     blkCnt -= 1;
  75:.\DSP\Source\ComplexMathFunctions/arm_cmplx_dot_prod_q31.c ****     if (blkCnt > 0) {
  76:.\DSP\Source\ComplexMathFunctions/arm_cmplx_dot_prod_q31.c ****         /* should give more freedom to generate stall free code */
  77:.\DSP\Source\ComplexMathFunctions/arm_cmplx_dot_prod_q31.c ****         vecSrcA = vld1q(pSrcA);
  78:.\DSP\Source\ComplexMathFunctions/arm_cmplx_dot_prod_q31.c ****         vecSrcB = vld1q(pSrcB);
  79:.\DSP\Source\ComplexMathFunctions/arm_cmplx_dot_prod_q31.c ****         pSrcA += 4;
  80:.\DSP\Source\ComplexMathFunctions/arm_cmplx_dot_prod_q31.c ****         pSrcB += 4;
  81:.\DSP\Source\ComplexMathFunctions/arm_cmplx_dot_prod_q31.c **** 
  82:.\DSP\Source\ComplexMathFunctions/arm_cmplx_dot_prod_q31.c ****         while (blkCnt > 0) {
  83:.\DSP\Source\ComplexMathFunctions/arm_cmplx_dot_prod_q31.c **** 
  84:.\DSP\Source\ComplexMathFunctions/arm_cmplx_dot_prod_q31.c ****             accReal = vrmlsldavhaq(accReal, vecSrcA, vecSrcB);
  85:.\DSP\Source\ComplexMathFunctions/arm_cmplx_dot_prod_q31.c ****             vecSrcC = vld1q(pSrcA);
  86:.\DSP\Source\ComplexMathFunctions/arm_cmplx_dot_prod_q31.c ****             pSrcA += 4;
  87:.\DSP\Source\ComplexMathFunctions/arm_cmplx_dot_prod_q31.c **** 
  88:.\DSP\Source\ComplexMathFunctions/arm_cmplx_dot_prod_q31.c ****             accImag = vrmlaldavhaxq(accImag, vecSrcA, vecSrcB);
ARM GAS  C:\Users\IVYLIU~1\AppData\Local\Temp\ccTa4uBU.s 			page 3


  89:.\DSP\Source\ComplexMathFunctions/arm_cmplx_dot_prod_q31.c ****             vecSrcD = vld1q(pSrcB);
  90:.\DSP\Source\ComplexMathFunctions/arm_cmplx_dot_prod_q31.c ****             pSrcB += 4;
  91:.\DSP\Source\ComplexMathFunctions/arm_cmplx_dot_prod_q31.c **** 
  92:.\DSP\Source\ComplexMathFunctions/arm_cmplx_dot_prod_q31.c ****             accReal = vrmlsldavhaq(accReal, vecSrcC, vecSrcD);
  93:.\DSP\Source\ComplexMathFunctions/arm_cmplx_dot_prod_q31.c ****             vecSrcA = vld1q(pSrcA);
  94:.\DSP\Source\ComplexMathFunctions/arm_cmplx_dot_prod_q31.c ****             pSrcA += 4;
  95:.\DSP\Source\ComplexMathFunctions/arm_cmplx_dot_prod_q31.c **** 
  96:.\DSP\Source\ComplexMathFunctions/arm_cmplx_dot_prod_q31.c ****             accImag = vrmlaldavhaxq(accImag, vecSrcC, vecSrcD);
  97:.\DSP\Source\ComplexMathFunctions/arm_cmplx_dot_prod_q31.c ****             vecSrcB = vld1q(pSrcB);
  98:.\DSP\Source\ComplexMathFunctions/arm_cmplx_dot_prod_q31.c ****             pSrcB += 4;
  99:.\DSP\Source\ComplexMathFunctions/arm_cmplx_dot_prod_q31.c ****             /*
 100:.\DSP\Source\ComplexMathFunctions/arm_cmplx_dot_prod_q31.c ****              * Decrement the blockSize loop counter
 101:.\DSP\Source\ComplexMathFunctions/arm_cmplx_dot_prod_q31.c ****              */
 102:.\DSP\Source\ComplexMathFunctions/arm_cmplx_dot_prod_q31.c ****             blkCnt--;
 103:.\DSP\Source\ComplexMathFunctions/arm_cmplx_dot_prod_q31.c ****         }
 104:.\DSP\Source\ComplexMathFunctions/arm_cmplx_dot_prod_q31.c **** 
 105:.\DSP\Source\ComplexMathFunctions/arm_cmplx_dot_prod_q31.c ****         /* process last elements out of the loop avoid the armclang breaking the SW pipeline */
 106:.\DSP\Source\ComplexMathFunctions/arm_cmplx_dot_prod_q31.c ****         accReal = vrmlsldavhaq(accReal, vecSrcA, vecSrcB);
 107:.\DSP\Source\ComplexMathFunctions/arm_cmplx_dot_prod_q31.c ****         vecSrcC = vld1q(pSrcA);
 108:.\DSP\Source\ComplexMathFunctions/arm_cmplx_dot_prod_q31.c **** 
 109:.\DSP\Source\ComplexMathFunctions/arm_cmplx_dot_prod_q31.c ****         accImag = vrmlaldavhaxq(accImag, vecSrcA, vecSrcB);
 110:.\DSP\Source\ComplexMathFunctions/arm_cmplx_dot_prod_q31.c ****         vecSrcD = vld1q(pSrcB);
 111:.\DSP\Source\ComplexMathFunctions/arm_cmplx_dot_prod_q31.c **** 
 112:.\DSP\Source\ComplexMathFunctions/arm_cmplx_dot_prod_q31.c ****         accReal = vrmlsldavhaq(accReal, vecSrcC, vecSrcD);
 113:.\DSP\Source\ComplexMathFunctions/arm_cmplx_dot_prod_q31.c ****         vecSrcA = vld1q(pSrcA);
 114:.\DSP\Source\ComplexMathFunctions/arm_cmplx_dot_prod_q31.c **** 
 115:.\DSP\Source\ComplexMathFunctions/arm_cmplx_dot_prod_q31.c ****         accImag = vrmlaldavhaxq(accImag, vecSrcC, vecSrcD);
 116:.\DSP\Source\ComplexMathFunctions/arm_cmplx_dot_prod_q31.c ****         vecSrcB = vld1q(pSrcB);
 117:.\DSP\Source\ComplexMathFunctions/arm_cmplx_dot_prod_q31.c **** 
 118:.\DSP\Source\ComplexMathFunctions/arm_cmplx_dot_prod_q31.c ****         /*
 119:.\DSP\Source\ComplexMathFunctions/arm_cmplx_dot_prod_q31.c ****          * tail
 120:.\DSP\Source\ComplexMathFunctions/arm_cmplx_dot_prod_q31.c ****          */
 121:.\DSP\Source\ComplexMathFunctions/arm_cmplx_dot_prod_q31.c ****         blkCnt = CMPLX_DIM * (numSamples & 3);
 122:.\DSP\Source\ComplexMathFunctions/arm_cmplx_dot_prod_q31.c ****         do {
 123:.\DSP\Source\ComplexMathFunctions/arm_cmplx_dot_prod_q31.c ****             mve_pred16_t    p = vctp32q(blkCnt);
 124:.\DSP\Source\ComplexMathFunctions/arm_cmplx_dot_prod_q31.c **** 
 125:.\DSP\Source\ComplexMathFunctions/arm_cmplx_dot_prod_q31.c ****             pSrcA += 4;
 126:.\DSP\Source\ComplexMathFunctions/arm_cmplx_dot_prod_q31.c ****             pSrcB += 4;
 127:.\DSP\Source\ComplexMathFunctions/arm_cmplx_dot_prod_q31.c **** 
 128:.\DSP\Source\ComplexMathFunctions/arm_cmplx_dot_prod_q31.c ****             vecSrcA = vldrwq_z_s32(pSrcA, p);
 129:.\DSP\Source\ComplexMathFunctions/arm_cmplx_dot_prod_q31.c ****             vecSrcB = vldrwq_z_s32(pSrcB, p);
 130:.\DSP\Source\ComplexMathFunctions/arm_cmplx_dot_prod_q31.c **** 
 131:.\DSP\Source\ComplexMathFunctions/arm_cmplx_dot_prod_q31.c ****             accReal = vrmlsldavhaq_p(accReal, vecSrcA, vecSrcB, p);
 132:.\DSP\Source\ComplexMathFunctions/arm_cmplx_dot_prod_q31.c ****             accImag = vrmlaldavhaxq_p(accImag, vecSrcA, vecSrcB, p);
 133:.\DSP\Source\ComplexMathFunctions/arm_cmplx_dot_prod_q31.c **** 
 134:.\DSP\Source\ComplexMathFunctions/arm_cmplx_dot_prod_q31.c ****             blkCnt -= 4;
 135:.\DSP\Source\ComplexMathFunctions/arm_cmplx_dot_prod_q31.c ****         }
 136:.\DSP\Source\ComplexMathFunctions/arm_cmplx_dot_prod_q31.c ****         while ((int32_t) blkCnt > 0);
 137:.\DSP\Source\ComplexMathFunctions/arm_cmplx_dot_prod_q31.c ****     } else {
 138:.\DSP\Source\ComplexMathFunctions/arm_cmplx_dot_prod_q31.c ****         blkCnt = numSamples * CMPLX_DIM;
 139:.\DSP\Source\ComplexMathFunctions/arm_cmplx_dot_prod_q31.c ****         while (blkCnt > 0) {
 140:.\DSP\Source\ComplexMathFunctions/arm_cmplx_dot_prod_q31.c ****             mve_pred16_t    p = vctp32q(blkCnt);
 141:.\DSP\Source\ComplexMathFunctions/arm_cmplx_dot_prod_q31.c **** 
 142:.\DSP\Source\ComplexMathFunctions/arm_cmplx_dot_prod_q31.c ****             vecSrcA = vldrwq_z_s32(pSrcA, p);
 143:.\DSP\Source\ComplexMathFunctions/arm_cmplx_dot_prod_q31.c ****             vecSrcB = vldrwq_z_s32(pSrcB, p);
 144:.\DSP\Source\ComplexMathFunctions/arm_cmplx_dot_prod_q31.c **** 
 145:.\DSP\Source\ComplexMathFunctions/arm_cmplx_dot_prod_q31.c ****             accReal = vrmlsldavhaq_p(accReal, vecSrcA, vecSrcB, p);
ARM GAS  C:\Users\IVYLIU~1\AppData\Local\Temp\ccTa4uBU.s 			page 4


 146:.\DSP\Source\ComplexMathFunctions/arm_cmplx_dot_prod_q31.c ****             accImag = vrmlaldavhaxq_p(accImag, vecSrcA, vecSrcB, p);
 147:.\DSP\Source\ComplexMathFunctions/arm_cmplx_dot_prod_q31.c **** 
 148:.\DSP\Source\ComplexMathFunctions/arm_cmplx_dot_prod_q31.c ****             /*
 149:.\DSP\Source\ComplexMathFunctions/arm_cmplx_dot_prod_q31.c ****              * Decrement the blkCnt loop counter
 150:.\DSP\Source\ComplexMathFunctions/arm_cmplx_dot_prod_q31.c ****              * Advance vector source and destination pointers
 151:.\DSP\Source\ComplexMathFunctions/arm_cmplx_dot_prod_q31.c ****              */
 152:.\DSP\Source\ComplexMathFunctions/arm_cmplx_dot_prod_q31.c ****             pSrcA += 4;
 153:.\DSP\Source\ComplexMathFunctions/arm_cmplx_dot_prod_q31.c ****             pSrcB += 4;
 154:.\DSP\Source\ComplexMathFunctions/arm_cmplx_dot_prod_q31.c ****             blkCnt -= 4;
 155:.\DSP\Source\ComplexMathFunctions/arm_cmplx_dot_prod_q31.c ****         }
 156:.\DSP\Source\ComplexMathFunctions/arm_cmplx_dot_prod_q31.c ****     }
 157:.\DSP\Source\ComplexMathFunctions/arm_cmplx_dot_prod_q31.c ****     *realResult = asrl(accReal, (14 - 8));
 158:.\DSP\Source\ComplexMathFunctions/arm_cmplx_dot_prod_q31.c ****     *imagResult = asrl(accImag, (14 - 8));
 159:.\DSP\Source\ComplexMathFunctions/arm_cmplx_dot_prod_q31.c **** 
 160:.\DSP\Source\ComplexMathFunctions/arm_cmplx_dot_prod_q31.c **** }
 161:.\DSP\Source\ComplexMathFunctions/arm_cmplx_dot_prod_q31.c **** 
 162:.\DSP\Source\ComplexMathFunctions/arm_cmplx_dot_prod_q31.c **** #else
 163:.\DSP\Source\ComplexMathFunctions/arm_cmplx_dot_prod_q31.c **** void arm_cmplx_dot_prod_q31(
 164:.\DSP\Source\ComplexMathFunctions/arm_cmplx_dot_prod_q31.c ****   const q31_t * pSrcA,
 165:.\DSP\Source\ComplexMathFunctions/arm_cmplx_dot_prod_q31.c ****   const q31_t * pSrcB,
 166:.\DSP\Source\ComplexMathFunctions/arm_cmplx_dot_prod_q31.c ****         uint32_t numSamples,
 167:.\DSP\Source\ComplexMathFunctions/arm_cmplx_dot_prod_q31.c ****         q63_t * realResult,
 168:.\DSP\Source\ComplexMathFunctions/arm_cmplx_dot_prod_q31.c ****         q63_t * imagResult)
 169:.\DSP\Source\ComplexMathFunctions/arm_cmplx_dot_prod_q31.c **** {
  27              		.loc 1 169 0
  28              		.cfi_startproc
  29              		@ args = 4, pretend = 0, frame = 56
  30              		@ frame_needed = 0, uses_anonymous_args = 0
  31              	.LVL0:
  32 0000 2DE9F04F 		push	{r4, r5, r6, r7, r8, r9, r10, fp, lr}
  33              		.cfi_def_cfa_offset 36
  34              		.cfi_offset 4, -36
  35              		.cfi_offset 5, -32
  36              		.cfi_offset 6, -28
  37              		.cfi_offset 7, -24
  38              		.cfi_offset 8, -20
  39              		.cfi_offset 9, -16
  40              		.cfi_offset 10, -12
  41              		.cfi_offset 11, -8
  42              		.cfi_offset 14, -4
  43 0004 8FB0     		sub	sp, sp, #60
  44              		.cfi_def_cfa_offset 96
  45 0006 9446     		mov	ip, r2
  46 0008 0D93     		str	r3, [sp, #52]
  47              	.LVL1:
 170:.\DSP\Source\ComplexMathFunctions/arm_cmplx_dot_prod_q31.c ****         uint32_t blkCnt;                               /* Loop counter */
 171:.\DSP\Source\ComplexMathFunctions/arm_cmplx_dot_prod_q31.c ****         q63_t real_sum = 0, imag_sum = 0;              /* Temporary result variables */
  48              		.loc 1 171 0
  49 000a 0022     		movs	r2, #0
  50              	.LVL2:
  51 000c 0023     		movs	r3, #0
  52              	.LVL3:
  53 000e CDE90823 		strd	r2, [sp, #32]
  54 0012 CDE90623 		strd	r2, [sp, #24]
  55 0016 0346     		mov	r3, r0
  56 0018 CDF830C0 		str	ip, [sp, #48]
 172:.\DSP\Source\ComplexMathFunctions/arm_cmplx_dot_prod_q31.c ****         q31_t a0,b0,c0,d0;
ARM GAS  C:\Users\IVYLIU~1\AppData\Local\Temp\ccTa4uBU.s 			page 5


 173:.\DSP\Source\ComplexMathFunctions/arm_cmplx_dot_prod_q31.c **** 
 174:.\DSP\Source\ComplexMathFunctions/arm_cmplx_dot_prod_q31.c **** #if defined (ARM_MATH_LOOPUNROLL)
 175:.\DSP\Source\ComplexMathFunctions/arm_cmplx_dot_prod_q31.c **** 
 176:.\DSP\Source\ComplexMathFunctions/arm_cmplx_dot_prod_q31.c ****   /* Loop unrolling: Compute 4 outputs at a time */
 177:.\DSP\Source\ComplexMathFunctions/arm_cmplx_dot_prod_q31.c ****   blkCnt = numSamples >> 2U;
 178:.\DSP\Source\ComplexMathFunctions/arm_cmplx_dot_prod_q31.c **** 
 179:.\DSP\Source\ComplexMathFunctions/arm_cmplx_dot_prod_q31.c ****   while (blkCnt > 0U)
 180:.\DSP\Source\ComplexMathFunctions/arm_cmplx_dot_prod_q31.c ****   {
 181:.\DSP\Source\ComplexMathFunctions/arm_cmplx_dot_prod_q31.c ****     a0 = *pSrcA++;
 182:.\DSP\Source\ComplexMathFunctions/arm_cmplx_dot_prod_q31.c ****     b0 = *pSrcA++;
 183:.\DSP\Source\ComplexMathFunctions/arm_cmplx_dot_prod_q31.c ****     c0 = *pSrcB++;
 184:.\DSP\Source\ComplexMathFunctions/arm_cmplx_dot_prod_q31.c ****     d0 = *pSrcB++;
 185:.\DSP\Source\ComplexMathFunctions/arm_cmplx_dot_prod_q31.c **** 
 186:.\DSP\Source\ComplexMathFunctions/arm_cmplx_dot_prod_q31.c ****     real_sum += ((q63_t)a0 * c0) >> 14;
 187:.\DSP\Source\ComplexMathFunctions/arm_cmplx_dot_prod_q31.c ****     imag_sum += ((q63_t)a0 * d0) >> 14;
 188:.\DSP\Source\ComplexMathFunctions/arm_cmplx_dot_prod_q31.c ****     real_sum -= ((q63_t)b0 * d0) >> 14;
 189:.\DSP\Source\ComplexMathFunctions/arm_cmplx_dot_prod_q31.c ****     imag_sum += ((q63_t)b0 * c0) >> 14;
 190:.\DSP\Source\ComplexMathFunctions/arm_cmplx_dot_prod_q31.c **** 
 191:.\DSP\Source\ComplexMathFunctions/arm_cmplx_dot_prod_q31.c ****     a0 = *pSrcA++;
 192:.\DSP\Source\ComplexMathFunctions/arm_cmplx_dot_prod_q31.c ****     b0 = *pSrcA++;
 193:.\DSP\Source\ComplexMathFunctions/arm_cmplx_dot_prod_q31.c ****     c0 = *pSrcB++;
 194:.\DSP\Source\ComplexMathFunctions/arm_cmplx_dot_prod_q31.c ****     d0 = *pSrcB++;
 195:.\DSP\Source\ComplexMathFunctions/arm_cmplx_dot_prod_q31.c **** 
 196:.\DSP\Source\ComplexMathFunctions/arm_cmplx_dot_prod_q31.c ****     real_sum += ((q63_t)a0 * c0) >> 14;
 197:.\DSP\Source\ComplexMathFunctions/arm_cmplx_dot_prod_q31.c ****     imag_sum += ((q63_t)a0 * d0) >> 14;
 198:.\DSP\Source\ComplexMathFunctions/arm_cmplx_dot_prod_q31.c ****     real_sum -= ((q63_t)b0 * d0) >> 14;
 199:.\DSP\Source\ComplexMathFunctions/arm_cmplx_dot_prod_q31.c ****     imag_sum += ((q63_t)b0 * c0) >> 14;
 200:.\DSP\Source\ComplexMathFunctions/arm_cmplx_dot_prod_q31.c **** 
 201:.\DSP\Source\ComplexMathFunctions/arm_cmplx_dot_prod_q31.c ****     a0 = *pSrcA++;
 202:.\DSP\Source\ComplexMathFunctions/arm_cmplx_dot_prod_q31.c ****     b0 = *pSrcA++;
 203:.\DSP\Source\ComplexMathFunctions/arm_cmplx_dot_prod_q31.c ****     c0 = *pSrcB++;
 204:.\DSP\Source\ComplexMathFunctions/arm_cmplx_dot_prod_q31.c ****     d0 = *pSrcB++;
 205:.\DSP\Source\ComplexMathFunctions/arm_cmplx_dot_prod_q31.c **** 
 206:.\DSP\Source\ComplexMathFunctions/arm_cmplx_dot_prod_q31.c ****     real_sum += ((q63_t)a0 * c0) >> 14;
 207:.\DSP\Source\ComplexMathFunctions/arm_cmplx_dot_prod_q31.c ****     imag_sum += ((q63_t)a0 * d0) >> 14;
 208:.\DSP\Source\ComplexMathFunctions/arm_cmplx_dot_prod_q31.c ****     real_sum -= ((q63_t)b0 * d0) >> 14;
 209:.\DSP\Source\ComplexMathFunctions/arm_cmplx_dot_prod_q31.c ****     imag_sum += ((q63_t)b0 * c0) >> 14;
 210:.\DSP\Source\ComplexMathFunctions/arm_cmplx_dot_prod_q31.c **** 
 211:.\DSP\Source\ComplexMathFunctions/arm_cmplx_dot_prod_q31.c ****     a0 = *pSrcA++;
 212:.\DSP\Source\ComplexMathFunctions/arm_cmplx_dot_prod_q31.c ****     b0 = *pSrcA++;
 213:.\DSP\Source\ComplexMathFunctions/arm_cmplx_dot_prod_q31.c ****     c0 = *pSrcB++;
 214:.\DSP\Source\ComplexMathFunctions/arm_cmplx_dot_prod_q31.c ****     d0 = *pSrcB++;
 215:.\DSP\Source\ComplexMathFunctions/arm_cmplx_dot_prod_q31.c **** 
 216:.\DSP\Source\ComplexMathFunctions/arm_cmplx_dot_prod_q31.c ****     real_sum += ((q63_t)a0 * c0) >> 14;
 217:.\DSP\Source\ComplexMathFunctions/arm_cmplx_dot_prod_q31.c ****     imag_sum += ((q63_t)a0 * d0) >> 14;
 218:.\DSP\Source\ComplexMathFunctions/arm_cmplx_dot_prod_q31.c ****     real_sum -= ((q63_t)b0 * d0) >> 14;
 219:.\DSP\Source\ComplexMathFunctions/arm_cmplx_dot_prod_q31.c ****     imag_sum += ((q63_t)b0 * c0) >> 14;
 220:.\DSP\Source\ComplexMathFunctions/arm_cmplx_dot_prod_q31.c **** 
 221:.\DSP\Source\ComplexMathFunctions/arm_cmplx_dot_prod_q31.c ****     /* Decrement loop counter */
 222:.\DSP\Source\ComplexMathFunctions/arm_cmplx_dot_prod_q31.c ****     blkCnt--;
 223:.\DSP\Source\ComplexMathFunctions/arm_cmplx_dot_prod_q31.c ****   }
 224:.\DSP\Source\ComplexMathFunctions/arm_cmplx_dot_prod_q31.c **** 
 225:.\DSP\Source\ComplexMathFunctions/arm_cmplx_dot_prod_q31.c ****   /* Loop unrolling: Compute remaining outputs */
 226:.\DSP\Source\ComplexMathFunctions/arm_cmplx_dot_prod_q31.c ****   blkCnt = numSamples % 0x4U;
 227:.\DSP\Source\ComplexMathFunctions/arm_cmplx_dot_prod_q31.c **** 
 228:.\DSP\Source\ComplexMathFunctions/arm_cmplx_dot_prod_q31.c **** #else
 229:.\DSP\Source\ComplexMathFunctions/arm_cmplx_dot_prod_q31.c **** 
ARM GAS  C:\Users\IVYLIU~1\AppData\Local\Temp\ccTa4uBU.s 			page 6


 230:.\DSP\Source\ComplexMathFunctions/arm_cmplx_dot_prod_q31.c ****   /* Initialize blkCnt with number of samples */
 231:.\DSP\Source\ComplexMathFunctions/arm_cmplx_dot_prod_q31.c ****   blkCnt = numSamples;
 232:.\DSP\Source\ComplexMathFunctions/arm_cmplx_dot_prod_q31.c **** 
 233:.\DSP\Source\ComplexMathFunctions/arm_cmplx_dot_prod_q31.c **** #endif /* #if defined (ARM_MATH_LOOPUNROLL) */
 234:.\DSP\Source\ComplexMathFunctions/arm_cmplx_dot_prod_q31.c **** 
 235:.\DSP\Source\ComplexMathFunctions/arm_cmplx_dot_prod_q31.c ****   while (blkCnt > 0U)
  57              		.loc 1 235 0
  58 001c 70E0     		b	.L2
  59              	.LVL4:
  60              	.L3:
 236:.\DSP\Source\ComplexMathFunctions/arm_cmplx_dot_prod_q31.c ****   {
 237:.\DSP\Source\ComplexMathFunctions/arm_cmplx_dot_prod_q31.c ****     a0 = *pSrcA++;
  61              		.loc 1 237 0
  62 001e 9C46     		mov	ip, r3
  63 0020 5CF8080B 		ldr	r0, [ip], #8
  64              	.LVL5:
 238:.\DSP\Source\ComplexMathFunctions/arm_cmplx_dot_prod_q31.c ****     b0 = *pSrcA++;
  65              		.loc 1 238 0
  66 0024 5C68     		ldr	r4, [r3, #4]
  67              	.LVL6:
 239:.\DSP\Source\ComplexMathFunctions/arm_cmplx_dot_prod_q31.c ****     c0 = *pSrcB++;
  68              		.loc 1 239 0
  69 0026 8E46     		mov	lr, r1
  70 0028 5EF8083B 		ldr	r3, [lr], #8
  71              	.LVL7:
 240:.\DSP\Source\ComplexMathFunctions/arm_cmplx_dot_prod_q31.c ****     d0 = *pSrcB++;
  72              		.loc 1 240 0
  73 002c 4A68     		ldr	r2, [r1, #4]
  74              	.LVL8:
 241:.\DSP\Source\ComplexMathFunctions/arm_cmplx_dot_prod_q31.c **** 
 242:.\DSP\Source\ComplexMathFunctions/arm_cmplx_dot_prod_q31.c ****     real_sum += ((q63_t)a0 * c0) >> 14;
  75              		.loc 1 242 0
  76 002e 4FEAE07B 		asr	fp, r0, #31
  77 0032 1E46     		mov	r6, r3
  78 0034 DF17     		asrs	r7, r3, #31
  79 0036 CDE90A67 		strd	r6, [sp, #40]
  80 003a 3946     		mov	r1, r7
  81 003c 00FB01F1 		mul	r1, r0, r1
  82 0040 03FB0B11 		mla	r1, r3, fp, r1
  83 0044 A0FB0367 		umull	r6, r7, r0, r3
  84 0048 0F44     		add	r7, r7, r1
  85 004a 4FEA9638 		lsr	r8, r6, #14
  86 004e 48EA8748 		orr	r8, r8, r7, lsl #18
  87 0052 4FEAA739 		asr	r9, r7, #14
  88 0056 DDE90667 		ldrd	r6, [sp, #24]
  89 005a 16EB0806 		adds	r6, r6, r8
  90 005e 47EB0907 		adc	r7, r7, r9
  91 0062 CDE90667 		strd	r6, [sp, #24]
  92              	.LVL9:
 243:.\DSP\Source\ComplexMathFunctions/arm_cmplx_dot_prod_q31.c ****     imag_sum += ((q63_t)a0 * d0) >> 14;
  93              		.loc 1 243 0
  94 0066 D717     		asrs	r7, r2, #31
  95 0068 00FB07F6 		mul	r6, r0, r7
  96              	.LVL10:
  97 006c 02FB0B66 		mla	r6, r2, fp, r6
  98 0070 A0FB0201 		umull	r0, r1, r0, r2
  99              	.LVL11:
ARM GAS  C:\Users\IVYLIU~1\AppData\Local\Temp\ccTa4uBU.s 			page 7


 100 0074 3144     		add	r1, r1, r6
 101 0076 850B     		lsrs	r5, r0, #14
 102 0078 45EA8145 		orr	r5, r5, r1, lsl #18
 103 007c 0095     		str	r5, [sp]
 104 007e 8913     		asrs	r1, r1, #14
 105 0080 0191     		str	r1, [sp, #4]
 106 0082 DDE900AB 		ldrd	r10, [sp]
 107 0086 DDE90801 		ldrd	r0, [sp, #32]
 108 008a 1AEB000A 		adds	r10, r10, r0
 109 008e 4BEB010B 		adc	fp, fp, r1
 110 0092 CDE908AB 		strd	r10, [sp, #32]
 111              	.LVL12:
 244:.\DSP\Source\ComplexMathFunctions/arm_cmplx_dot_prod_q31.c ****     real_sum -= ((q63_t)b0 * d0) >> 14;
 112              		.loc 1 244 0
 113 0096 E117     		asrs	r1, r4, #31
 114 0098 02FB01F0 		mul	r0, r2, r1
 115 009c 04FB0700 		mla	r0, r4, r7, r0
 116 00a0 A2FB0467 		umull	r6, r7, r2, r4
 117 00a4 0744     		add	r7, r7, r0
 118 00a6 B20B     		lsrs	r2, r6, #14
 119              	.LVL13:
 120 00a8 42EA8742 		orr	r2, r2, r7, lsl #18
 121 00ac 0292     		str	r2, [sp, #8]
 122 00ae BA13     		asrs	r2, r7, #14
 123 00b0 0392     		str	r2, [sp, #12]
 124 00b2 DDE902AB 		ldrd	r10, [sp, #8]
 125              	.LVL14:
 126 00b6 DDE90667 		ldrd	r6, [sp, #24]
 127 00ba B6EB0A0A 		subs	r10, r6, r10
 128 00be 67EB0B0B 		sbc	fp, r7, fp
 129 00c2 CDE906AB 		strd	r10, [sp, #24]
 130              	.LVL15:
 245:.\DSP\Source\ComplexMathFunctions/arm_cmplx_dot_prod_q31.c ****     imag_sum += ((q63_t)b0 * c0) >> 14;
 131              		.loc 1 245 0
 132 00c6 03FB01F1 		mul	r1, r3, r1
 133 00ca 0B9A     		ldr	r2, [sp, #44]
 134 00cc 04FB0211 		mla	r1, r4, r2, r1
 135 00d0 A3FB0423 		umull	r2, r3, r3, r4
 136 00d4 0B44     		add	r3, r3, r1
 137              	.LVL16:
 138 00d6 910B     		lsrs	r1, r2, #14
 139 00d8 41EA8341 		orr	r1, r1, r3, lsl #18
 140 00dc 0491     		str	r1, [sp, #16]
 141 00de 9B13     		asrs	r3, r3, #14
 142 00e0 0593     		str	r3, [sp, #20]
 143 00e2 DDE90423 		ldrd	r2, [sp, #16]
 144 00e6 DDE90801 		ldrd	r0, [sp, #32]
 145 00ea 8018     		adds	r0, r0, r2
 146 00ec 5941     		adcs	r1, r1, r3
 147 00ee 0246     		mov	r2, r0
 148 00f0 0B46     		mov	r3, r1
 149 00f2 CDE90823 		strd	r2, [sp, #32]
 150              	.LVL17:
 246:.\DSP\Source\ComplexMathFunctions/arm_cmplx_dot_prod_q31.c **** 
 247:.\DSP\Source\ComplexMathFunctions/arm_cmplx_dot_prod_q31.c ****     /* Decrement loop counter */
 248:.\DSP\Source\ComplexMathFunctions/arm_cmplx_dot_prod_q31.c ****     blkCnt--;
 151              		.loc 1 248 0
ARM GAS  C:\Users\IVYLIU~1\AppData\Local\Temp\ccTa4uBU.s 			page 8


 152 00f6 0C9B     		ldr	r3, [sp, #48]
 153 00f8 013B     		subs	r3, r3, #1
 154 00fa 0C93     		str	r3, [sp, #48]
 155              	.LVL18:
 240:.\DSP\Source\ComplexMathFunctions/arm_cmplx_dot_prod_q31.c **** 
 156              		.loc 1 240 0
 157 00fc 7146     		mov	r1, lr
 238:.\DSP\Source\ComplexMathFunctions/arm_cmplx_dot_prod_q31.c ****     c0 = *pSrcB++;
 158              		.loc 1 238 0
 159 00fe 6346     		mov	r3, ip
 160              	.LVL19:
 161              	.L2:
 235:.\DSP\Source\ComplexMathFunctions/arm_cmplx_dot_prod_q31.c ****   {
 162              		.loc 1 235 0
 163 0100 0C9A     		ldr	r2, [sp, #48]
 164 0102 002A     		cmp	r2, #0
 165 0104 8BD1     		bne	.L3
 249:.\DSP\Source\ComplexMathFunctions/arm_cmplx_dot_prod_q31.c ****   }
 250:.\DSP\Source\ComplexMathFunctions/arm_cmplx_dot_prod_q31.c **** 
 251:.\DSP\Source\ComplexMathFunctions/arm_cmplx_dot_prod_q31.c ****   /* Store real and imaginary result in 16.48 format  */
 252:.\DSP\Source\ComplexMathFunctions/arm_cmplx_dot_prod_q31.c ****   *realResult = real_sum;
 166              		.loc 1 252 0
 167 0106 0D9B     		ldr	r3, [sp, #52]
 168              	.LVL20:
 169 0108 1946     		mov	r1, r3
 170              	.LVL21:
 171 010a DDE90623 		ldrd	r2, [sp, #24]
 172 010e C1E90023 		strd	r2, [r1]
 253:.\DSP\Source\ComplexMathFunctions/arm_cmplx_dot_prod_q31.c ****   *imagResult = imag_sum;
 173              		.loc 1 253 0
 174 0112 189B     		ldr	r3, [sp, #96]
 175 0114 DDE90801 		ldrd	r0, [sp, #32]
 176 0118 C3E90001 		strd	r0, [r3]
 254:.\DSP\Source\ComplexMathFunctions/arm_cmplx_dot_prod_q31.c **** }
 177              		.loc 1 254 0
 178 011c 0FB0     		add	sp, sp, #60
 179              		.cfi_def_cfa_offset 36
 180              		@ sp needed
 181 011e BDE8F08F 		pop	{r4, r5, r6, r7, r8, r9, r10, fp, pc}
 182              		.cfi_endproc
 183              	.LFE84:
 184              		.size	arm_cmplx_dot_prod_q31, .-arm_cmplx_dot_prod_q31
 185 0122 00BF     		.text
 186              	.Letext0:
 187              		.file 2 "c:\\program files (x86)\\cypress\\psoc creator\\3.3\\psoc creator\\import\\gnu\\arm\\4.9.
 188              		.file 3 "c:\\program files (x86)\\cypress\\psoc creator\\3.3\\psoc creator\\import\\gnu\\arm\\4.9.
 189              		.file 4 ".\\DSP\\Include/arm_math_types.h"
 190              		.file 5 ".\\Core\\Include/cmsis_gcc.h"