ARM GAS  C:\Users\IVYLIU~1\AppData\Local\Temp\cciEmTKc.s 			page 1


   1              		.syntax unified
   2              		.cpu cortex-m3
   3              		.fpu softvfp
   4              		.eabi_attribute 20, 1
   5              		.eabi_attribute 21, 1
   6              		.eabi_attribute 23, 3
   7              		.eabi_attribute 24, 1
   8              		.eabi_attribute 25, 1
   9              		.eabi_attribute 26, 1
  10              		.eabi_attribute 30, 1
  11              		.eabi_attribute 34, 1
  12              		.eabi_attribute 18, 4
  13              		.thumb
  14              		.file	"arm_cfft_radix2_q31.c"
  15              		.text
  16              	.Ltext0:
  17              		.cfi_sections	.debug_frame
  18              		.section	.text.arm_radix2_butterfly_q31,"ax",%progbits
  19              		.align	2
  20              		.global	arm_radix2_butterfly_q31
  21              		.thumb
  22              		.thumb_func
  23              		.type	arm_radix2_butterfly_q31, %function
  24              	arm_radix2_butterfly_q31:
  25              	.LFB85:
  26              		.file 1 ".\\DSP\\Source\\TransformFunctions\\arm_cfft_radix2_q31.c"
   1:.\DSP\Source\TransformFunctions/arm_cfft_radix2_q31.c **** /* ----------------------------------------------------------------------
   2:.\DSP\Source\TransformFunctions/arm_cfft_radix2_q31.c ****  * Project:      CMSIS DSP Library
   3:.\DSP\Source\TransformFunctions/arm_cfft_radix2_q31.c ****  * Title:        arm_cfft_radix2_q31.c
   4:.\DSP\Source\TransformFunctions/arm_cfft_radix2_q31.c ****  * Description:  Radix-2 Decimation in Frequency CFFT & CIFFT Fixed point processing function
   5:.\DSP\Source\TransformFunctions/arm_cfft_radix2_q31.c ****  *
   6:.\DSP\Source\TransformFunctions/arm_cfft_radix2_q31.c ****  * $Date:        23 April 2021
   7:.\DSP\Source\TransformFunctions/arm_cfft_radix2_q31.c ****  * $Revision:    V1.9.0
   8:.\DSP\Source\TransformFunctions/arm_cfft_radix2_q31.c ****  *
   9:.\DSP\Source\TransformFunctions/arm_cfft_radix2_q31.c ****  * Target Processor: Cortex-M and Cortex-A cores
  10:.\DSP\Source\TransformFunctions/arm_cfft_radix2_q31.c ****  * -------------------------------------------------------------------- */
  11:.\DSP\Source\TransformFunctions/arm_cfft_radix2_q31.c **** /*
  12:.\DSP\Source\TransformFunctions/arm_cfft_radix2_q31.c ****  * Copyright (C) 2010-2021 ARM Limited or its affiliates. All rights reserved.
  13:.\DSP\Source\TransformFunctions/arm_cfft_radix2_q31.c ****  *
  14:.\DSP\Source\TransformFunctions/arm_cfft_radix2_q31.c ****  * SPDX-License-Identifier: Apache-2.0
  15:.\DSP\Source\TransformFunctions/arm_cfft_radix2_q31.c ****  *
  16:.\DSP\Source\TransformFunctions/arm_cfft_radix2_q31.c ****  * Licensed under the Apache License, Version 2.0 (the License); you may
  17:.\DSP\Source\TransformFunctions/arm_cfft_radix2_q31.c ****  * not use this file except in compliance with the License.
  18:.\DSP\Source\TransformFunctions/arm_cfft_radix2_q31.c ****  * You may obtain a copy of the License at
  19:.\DSP\Source\TransformFunctions/arm_cfft_radix2_q31.c ****  *
  20:.\DSP\Source\TransformFunctions/arm_cfft_radix2_q31.c ****  * www.apache.org/licenses/LICENSE-2.0
  21:.\DSP\Source\TransformFunctions/arm_cfft_radix2_q31.c ****  *
  22:.\DSP\Source\TransformFunctions/arm_cfft_radix2_q31.c ****  * Unless required by applicable law or agreed to in writing, software
  23:.\DSP\Source\TransformFunctions/arm_cfft_radix2_q31.c ****  * distributed under the License is distributed on an AS IS BASIS, WITHOUT
  24:.\DSP\Source\TransformFunctions/arm_cfft_radix2_q31.c ****  * WARRANTIES OR CONDITIONS OF ANY KIND, either express or implied.
  25:.\DSP\Source\TransformFunctions/arm_cfft_radix2_q31.c ****  * See the License for the specific language governing permissions and
  26:.\DSP\Source\TransformFunctions/arm_cfft_radix2_q31.c ****  * limitations under the License.
  27:.\DSP\Source\TransformFunctions/arm_cfft_radix2_q31.c ****  */
  28:.\DSP\Source\TransformFunctions/arm_cfft_radix2_q31.c **** 
  29:.\DSP\Source\TransformFunctions/arm_cfft_radix2_q31.c **** #include "dsp/transform_functions.h"
  30:.\DSP\Source\TransformFunctions/arm_cfft_radix2_q31.c **** 
  31:.\DSP\Source\TransformFunctions/arm_cfft_radix2_q31.c **** void arm_radix2_butterfly_q31(
ARM GAS  C:\Users\IVYLIU~1\AppData\Local\Temp\cciEmTKc.s 			page 2


  32:.\DSP\Source\TransformFunctions/arm_cfft_radix2_q31.c ****         q31_t * pSrc,
  33:.\DSP\Source\TransformFunctions/arm_cfft_radix2_q31.c ****         uint32_t fftLen,
  34:.\DSP\Source\TransformFunctions/arm_cfft_radix2_q31.c ****   const q31_t * pCoef,
  35:.\DSP\Source\TransformFunctions/arm_cfft_radix2_q31.c ****         uint16_t twidCoefModifier);
  36:.\DSP\Source\TransformFunctions/arm_cfft_radix2_q31.c **** 
  37:.\DSP\Source\TransformFunctions/arm_cfft_radix2_q31.c **** void arm_radix2_butterfly_inverse_q31(
  38:.\DSP\Source\TransformFunctions/arm_cfft_radix2_q31.c ****         q31_t * pSrc,
  39:.\DSP\Source\TransformFunctions/arm_cfft_radix2_q31.c ****         uint32_t fftLen,
  40:.\DSP\Source\TransformFunctions/arm_cfft_radix2_q31.c ****   const q31_t * pCoef,
  41:.\DSP\Source\TransformFunctions/arm_cfft_radix2_q31.c ****         uint16_t twidCoefModifier);
  42:.\DSP\Source\TransformFunctions/arm_cfft_radix2_q31.c **** 
  43:.\DSP\Source\TransformFunctions/arm_cfft_radix2_q31.c **** void arm_bitreversal_q31(
  44:.\DSP\Source\TransformFunctions/arm_cfft_radix2_q31.c ****         q31_t * pSrc,
  45:.\DSP\Source\TransformFunctions/arm_cfft_radix2_q31.c ****         uint32_t fftLen,
  46:.\DSP\Source\TransformFunctions/arm_cfft_radix2_q31.c ****         uint16_t bitRevFactor,
  47:.\DSP\Source\TransformFunctions/arm_cfft_radix2_q31.c ****   const uint16_t * pBitRevTab);
  48:.\DSP\Source\TransformFunctions/arm_cfft_radix2_q31.c **** 
  49:.\DSP\Source\TransformFunctions/arm_cfft_radix2_q31.c **** /**
  50:.\DSP\Source\TransformFunctions/arm_cfft_radix2_q31.c ****   @ingroup groupTransforms
  51:.\DSP\Source\TransformFunctions/arm_cfft_radix2_q31.c ****  */
  52:.\DSP\Source\TransformFunctions/arm_cfft_radix2_q31.c **** 
  53:.\DSP\Source\TransformFunctions/arm_cfft_radix2_q31.c **** /**
  54:.\DSP\Source\TransformFunctions/arm_cfft_radix2_q31.c ****   @addtogroup ComplexFFT
  55:.\DSP\Source\TransformFunctions/arm_cfft_radix2_q31.c ****   @{
  56:.\DSP\Source\TransformFunctions/arm_cfft_radix2_q31.c ****  */
  57:.\DSP\Source\TransformFunctions/arm_cfft_radix2_q31.c **** 
  58:.\DSP\Source\TransformFunctions/arm_cfft_radix2_q31.c **** /**
  59:.\DSP\Source\TransformFunctions/arm_cfft_radix2_q31.c ****   @brief         Processing function for the fixed-point CFFT/CIFFT.
  60:.\DSP\Source\TransformFunctions/arm_cfft_radix2_q31.c ****   @deprecated    Do not use this function. It has been superseded by \ref arm_cfft_q31 and will be 
  61:.\DSP\Source\TransformFunctions/arm_cfft_radix2_q31.c ****   @param[in]     S    points to an instance of the fixed-point CFFT/CIFFT structure
  62:.\DSP\Source\TransformFunctions/arm_cfft_radix2_q31.c ****   @param[in,out] pSrc points to the complex data buffer of size <code>2*fftLen</code>. Processing o
  63:.\DSP\Source\TransformFunctions/arm_cfft_radix2_q31.c ****   @return        none
  64:.\DSP\Source\TransformFunctions/arm_cfft_radix2_q31.c ****  */
  65:.\DSP\Source\TransformFunctions/arm_cfft_radix2_q31.c **** 
  66:.\DSP\Source\TransformFunctions/arm_cfft_radix2_q31.c **** void arm_cfft_radix2_q31(
  67:.\DSP\Source\TransformFunctions/arm_cfft_radix2_q31.c ****   const arm_cfft_radix2_instance_q31 * S,
  68:.\DSP\Source\TransformFunctions/arm_cfft_radix2_q31.c ****         q31_t * pSrc)
  69:.\DSP\Source\TransformFunctions/arm_cfft_radix2_q31.c **** {
  70:.\DSP\Source\TransformFunctions/arm_cfft_radix2_q31.c **** 
  71:.\DSP\Source\TransformFunctions/arm_cfft_radix2_q31.c ****    if (S->ifftFlag == 1U)
  72:.\DSP\Source\TransformFunctions/arm_cfft_radix2_q31.c ****    {
  73:.\DSP\Source\TransformFunctions/arm_cfft_radix2_q31.c ****       arm_radix2_butterfly_inverse_q31(pSrc, S->fftLen,
  74:.\DSP\Source\TransformFunctions/arm_cfft_radix2_q31.c ****       S->pTwiddle, S->twidCoefModifier);
  75:.\DSP\Source\TransformFunctions/arm_cfft_radix2_q31.c ****    }
  76:.\DSP\Source\TransformFunctions/arm_cfft_radix2_q31.c ****    else
  77:.\DSP\Source\TransformFunctions/arm_cfft_radix2_q31.c ****    {
  78:.\DSP\Source\TransformFunctions/arm_cfft_radix2_q31.c ****       arm_radix2_butterfly_q31(pSrc, S->fftLen,
  79:.\DSP\Source\TransformFunctions/arm_cfft_radix2_q31.c ****       S->pTwiddle, S->twidCoefModifier);
  80:.\DSP\Source\TransformFunctions/arm_cfft_radix2_q31.c ****    }
  81:.\DSP\Source\TransformFunctions/arm_cfft_radix2_q31.c **** 
  82:.\DSP\Source\TransformFunctions/arm_cfft_radix2_q31.c ****    arm_bitreversal_q31(pSrc, S->fftLen, S->bitRevFactor, S->pBitRevTable);
  83:.\DSP\Source\TransformFunctions/arm_cfft_radix2_q31.c **** }
  84:.\DSP\Source\TransformFunctions/arm_cfft_radix2_q31.c **** 
  85:.\DSP\Source\TransformFunctions/arm_cfft_radix2_q31.c **** /**
  86:.\DSP\Source\TransformFunctions/arm_cfft_radix2_q31.c ****   @} end of ComplexFFT group
  87:.\DSP\Source\TransformFunctions/arm_cfft_radix2_q31.c ****  */
  88:.\DSP\Source\TransformFunctions/arm_cfft_radix2_q31.c **** 
ARM GAS  C:\Users\IVYLIU~1\AppData\Local\Temp\cciEmTKc.s 			page 3


  89:.\DSP\Source\TransformFunctions/arm_cfft_radix2_q31.c **** void arm_radix2_butterfly_q31(
  90:.\DSP\Source\TransformFunctions/arm_cfft_radix2_q31.c ****         q31_t * pSrc,
  91:.\DSP\Source\TransformFunctions/arm_cfft_radix2_q31.c ****         uint32_t fftLen,
  92:.\DSP\Source\TransformFunctions/arm_cfft_radix2_q31.c ****   const q31_t * pCoef,
  93:.\DSP\Source\TransformFunctions/arm_cfft_radix2_q31.c ****         uint16_t twidCoefModifier)
  94:.\DSP\Source\TransformFunctions/arm_cfft_radix2_q31.c **** {
  27              		.loc 1 94 0
  28              		.cfi_startproc
  29              		@ args = 0, pretend = 0, frame = 88
  30              		@ frame_needed = 0, uses_anonymous_args = 0
  31              	.LVL0:
  32 0000 2DE9F04F 		push	{r4, r5, r6, r7, r8, r9, r10, fp, lr}
  33              		.cfi_def_cfa_offset 36
  34              		.cfi_offset 4, -36
  35              		.cfi_offset 5, -32
  36              		.cfi_offset 6, -28
  37              		.cfi_offset 7, -24
  38              		.cfi_offset 8, -20
  39              		.cfi_offset 9, -16
  40              		.cfi_offset 10, -12
  41              		.cfi_offset 11, -8
  42              		.cfi_offset 14, -4
  43 0004 97B0     		sub	sp, sp, #92
  44              		.cfi_def_cfa_offset 128
  45 0006 8446     		mov	ip, r0
  46 0008 1491     		str	r1, [sp, #80]
  47 000a 1392     		str	r2, [sp, #76]
  48 000c 1093     		str	r3, [sp, #64]
  49              	.LVL1:
  95:.\DSP\Source\TransformFunctions/arm_cfft_radix2_q31.c **** 
  96:.\DSP\Source\TransformFunctions/arm_cfft_radix2_q31.c ****    unsigned i, j, k, l, m;
  97:.\DSP\Source\TransformFunctions/arm_cfft_radix2_q31.c ****    unsigned n1, n2, ia;
  98:.\DSP\Source\TransformFunctions/arm_cfft_radix2_q31.c ****    q31_t xt, yt, cosVal, sinVal;
  99:.\DSP\Source\TransformFunctions/arm_cfft_radix2_q31.c ****    q31_t p0, p1;
 100:.\DSP\Source\TransformFunctions/arm_cfft_radix2_q31.c **** 
 101:.\DSP\Source\TransformFunctions/arm_cfft_radix2_q31.c ****    //N = fftLen;
 102:.\DSP\Source\TransformFunctions/arm_cfft_radix2_q31.c ****    n2 = fftLen;
 103:.\DSP\Source\TransformFunctions/arm_cfft_radix2_q31.c **** 
 104:.\DSP\Source\TransformFunctions/arm_cfft_radix2_q31.c ****    n1 = n2;
 105:.\DSP\Source\TransformFunctions/arm_cfft_radix2_q31.c ****    n2 = n2 >> 1;
  50              		.loc 1 105 0
  51 000e 4B08     		lsrs	r3, r1, #1
  52              	.LVL2:
  53 0010 0D93     		str	r3, [sp, #52]
  54              	.LVL3:
 106:.\DSP\Source\TransformFunctions/arm_cfft_radix2_q31.c ****    ia = 0;
  55              		.loc 1 106 0
  56 0012 4FF0000B 		mov	fp, #0
 107:.\DSP\Source\TransformFunctions/arm_cfft_radix2_q31.c **** 
 108:.\DSP\Source\TransformFunctions/arm_cfft_radix2_q31.c ****    // loop for groups
 109:.\DSP\Source\TransformFunctions/arm_cfft_radix2_q31.c ****    for (i = 0; i < n2; i++)
  57              		.loc 1 109 0
  58 0016 DA46     		mov	r10, fp
  59 0018 80E0     		b	.L2
  60              	.LVL4:
  61              	.L3:
 110:.\DSP\Source\TransformFunctions/arm_cfft_radix2_q31.c ****    {
ARM GAS  C:\Users\IVYLIU~1\AppData\Local\Temp\cciEmTKc.s 			page 4


 111:.\DSP\Source\TransformFunctions/arm_cfft_radix2_q31.c ****       cosVal = pCoef[ia * 2];
  62              		.loc 1 111 0 discriminator 3
  63 001a 139A     		ldr	r2, [sp, #76]
  64 001c 52F83B00 		ldr	r0, [r2, fp, lsl #3]
  65              	.LVL5:
 112:.\DSP\Source\TransformFunctions/arm_cfft_radix2_q31.c ****       sinVal = pCoef[(ia * 2) + 1];
  66              		.loc 1 112 0 discriminator 3
  67 0020 02EBCB03 		add	r3, r2, fp, lsl #3
  68 0024 5C68     		ldr	r4, [r3, #4]
  69              	.LVL6:
 113:.\DSP\Source\TransformFunctions/arm_cfft_radix2_q31.c ****       ia = ia + twidCoefModifier;
  70              		.loc 1 113 0 discriminator 3
  71 0026 109B     		ldr	r3, [sp, #64]
  72 0028 9B44     		add	fp, fp, r3
  73              	.LVL7:
 114:.\DSP\Source\TransformFunctions/arm_cfft_radix2_q31.c **** 
 115:.\DSP\Source\TransformFunctions/arm_cfft_radix2_q31.c ****       l = i + n2;
  74              		.loc 1 115 0 discriminator 3
  75 002a 0D9B     		ldr	r3, [sp, #52]
  76 002c 0AEB0305 		add	r5, r10, r3
  77              	.LVL8:
 116:.\DSP\Source\TransformFunctions/arm_cfft_radix2_q31.c ****       xt = (pSrc[2 * i] >> 1U) - (pSrc[2 * l] >> 1U);
  78              		.loc 1 116 0 discriminator 3
  79 0030 4FEACA01 		lsl	r1, r10, #3
  80 0034 5CF83A30 		ldr	r3, [ip, r10, lsl #3]
  81 0038 5E10     		asrs	r6, r3, #1
  82 003a 4FEAC50E 		lsl	lr, r5, #3
  83 003e 5CF83530 		ldr	r3, [ip, r5, lsl #3]
  84 0042 5A10     		asrs	r2, r3, #1
  85 0044 B31A     		subs	r3, r6, r2
  86              	.LVL9:
 117:.\DSP\Source\TransformFunctions/arm_cfft_radix2_q31.c ****       pSrc[2 * i] = ((pSrc[2 * i] >> 1U) + (pSrc[2 * l] >> 1U)) >> 1U;
  87              		.loc 1 117 0 discriminator 3
  88 0046 3244     		add	r2, r2, r6
  89 0048 5210     		asrs	r2, r2, #1
  90 004a 4CF83A20 		str	r2, [ip, r10, lsl #3]
 118:.\DSP\Source\TransformFunctions/arm_cfft_radix2_q31.c **** 
 119:.\DSP\Source\TransformFunctions/arm_cfft_radix2_q31.c ****       yt = (pSrc[2 * i + 1] >> 1U) - (pSrc[2 * l + 1] >> 1U);
  91              		.loc 1 119 0 discriminator 3
  92 004e 0431     		adds	r1, r1, #4
  93 0050 5CF80120 		ldr	r2, [ip, r1]
  94 0054 5610     		asrs	r6, r2, #1
  95 0056 0EF1040E 		add	lr, lr, #4
  96 005a 5CF80E20 		ldr	r2, [ip, lr]
  97 005e 5710     		asrs	r7, r2, #1
  98 0060 F21B     		subs	r2, r6, r7
  99              	.LVL10:
 120:.\DSP\Source\TransformFunctions/arm_cfft_radix2_q31.c ****       pSrc[2 * i + 1] =
 121:.\DSP\Source\TransformFunctions/arm_cfft_radix2_q31.c ****         ((pSrc[2 * l + 1] >> 1U) + (pSrc[2 * i + 1] >> 1U)) >> 1U;
 100              		.loc 1 121 0 discriminator 3
 101 0062 3E44     		add	r6, r6, r7
 102 0064 7610     		asrs	r6, r6, #1
 120:.\DSP\Source\TransformFunctions/arm_cfft_radix2_q31.c ****       pSrc[2 * i + 1] =
 103              		.loc 1 120 0 discriminator 3
 104 0066 4CF80160 		str	r6, [ip, r1]
 122:.\DSP\Source\TransformFunctions/arm_cfft_radix2_q31.c **** 
 123:.\DSP\Source\TransformFunctions/arm_cfft_radix2_q31.c ****       mult_32x32_keep32_R(p0, xt, cosVal);
ARM GAS  C:\Users\IVYLIU~1\AppData\Local\Temp\cciEmTKc.s 			page 5


 105              		.loc 1 123 0 discriminator 3
 106 006a 1E46     		mov	r6, r3
 107 006c DF17     		asrs	r7, r3, #31
 108 006e 8046     		mov	r8, r0
 109 0070 4FEAE079 		asr	r9, r0, #31
 110 0074 CDE90A89 		strd	r8, [sp, #40]
 111 0078 4946     		mov	r1, r9
 112 007a 03FB01F1 		mul	r1, r3, r1
 113 007e CDE90867 		strd	r6, [sp, #32]
 114 0082 00FB0711 		mla	r1, r0, r7, r1
 115 0086 A3FB0067 		umull	r6, r7, r3, r0
 116 008a 0F44     		add	r7, r7, r1
 117 008c 16F10048 		adds	r8, r6, #-2147483648
 118 0090 47F10009 		adc	r9, r7, #0
 119 0094 CDE90E89 		strd	r8, [sp, #56]
 120              	.LVL11:
 124:.\DSP\Source\TransformFunctions/arm_cfft_radix2_q31.c ****       mult_32x32_keep32_R(p1, yt, cosVal);
 121              		.loc 1 124 0 discriminator 3
 122 0098 D717     		asrs	r7, r2, #31
 123 009a 00FB07F6 		mul	r6, r0, r7
 124 009e 0B99     		ldr	r1, [sp, #44]
 125 00a0 02FB0166 		mla	r6, r2, r1, r6
 126 00a4 A0FB0201 		umull	r0, r1, r0, r2
 127              	.LVL12:
 128 00a8 3144     		add	r1, r1, r6
 129 00aa 10F10048 		adds	r8, r0, #-2147483648
 130 00ae 41F10009 		adc	r9, r1, #0
 131 00b2 CDE90A89 		strd	r8, [sp, #40]
 132              	.LVL13:
 125:.\DSP\Source\TransformFunctions/arm_cfft_radix2_q31.c ****       multAcc_32x32_keep32_R(p0, yt, sinVal);
 133              		.loc 1 125 0 discriminator 3
 134 00b6 0F99     		ldr	r1, [sp, #60]
 135 00b8 0591     		str	r1, [sp, #20]
 136 00ba 0021     		movs	r1, #0
 137 00bc 0491     		str	r1, [sp, #16]
 138 00be E117     		asrs	r1, r4, #31
 139 00c0 02FB01F0 		mul	r0, r2, r1
 140 00c4 04FB0700 		mla	r0, r4, r7, r0
 141 00c8 A2FB0467 		umull	r6, r7, r2, r4
 142 00cc 0744     		add	r7, r7, r0
 143 00ce DDE90489 		ldrd	r8, [sp, #16]
 144 00d2 18EB0608 		adds	r8, r8, r6
 145 00d6 49EB0709 		adc	r9, r9, r7
 146 00da 4646     		mov	r6, r8
 147 00dc 16F10046 		adds	r6, r6, #-2147483648
 148 00e0 49F10007 		adc	r7, r9, #0
 149              	.LVL14:
 126:.\DSP\Source\TransformFunctions/arm_cfft_radix2_q31.c ****       multSub_32x32_keep32_R(p1, xt, sinVal);
 150              		.loc 1 126 0 discriminator 3
 151 00e4 0B9A     		ldr	r2, [sp, #44]
 152              	.LVL15:
 153 00e6 0792     		str	r2, [sp, #28]
 154 00e8 0022     		movs	r2, #0
 155 00ea 0692     		str	r2, [sp, #24]
 156 00ec 03FB01F1 		mul	r1, r3, r1
 157 00f0 099A     		ldr	r2, [sp, #36]
 158 00f2 04FB0211 		mla	r1, r4, r2, r1
ARM GAS  C:\Users\IVYLIU~1\AppData\Local\Temp\cciEmTKc.s 			page 6


 159 00f6 A3FB0423 		umull	r2, r3, r3, r4
 160 00fa 0B44     		add	r3, r3, r1
 161              	.LVL16:
 162 00fc DDE90601 		ldrd	r0, [sp, #24]
 163 0100 801A     		subs	r0, r0, r2
 164 0102 61EB0301 		sbc	r1, r1, r3
 165 0106 0246     		mov	r2, r0
 166 0108 12F10042 		adds	r2, r2, #-2147483648
 167 010c 41F10003 		adc	r3, r1, #0
 168              	.LVL17:
 127:.\DSP\Source\TransformFunctions/arm_cfft_radix2_q31.c **** 
 128:.\DSP\Source\TransformFunctions/arm_cfft_radix2_q31.c ****       pSrc[2U * l] = p0;
 169              		.loc 1 128 0 discriminator 3
 170 0110 4CF83570 		str	r7, [ip, r5, lsl #3]
 129:.\DSP\Source\TransformFunctions/arm_cfft_radix2_q31.c ****       pSrc[2U * l + 1U] = p1;
 171              		.loc 1 129 0 discriminator 3
 172 0114 4CF80E30 		str	r3, [ip, lr]
 109:.\DSP\Source\TransformFunctions/arm_cfft_radix2_q31.c ****    {
 173              		.loc 1 109 0 discriminator 3
 174 0118 0AF1010A 		add	r10, r10, #1
 175              	.LVL18:
 176              	.L2:
 109:.\DSP\Source\TransformFunctions/arm_cfft_radix2_q31.c ****    {
 177              		.loc 1 109 0 is_stmt 0 discriminator 1
 178 011c 0D9B     		ldr	r3, [sp, #52]
 179 011e 9A45     		cmp	r10, r3
 180 0120 FFF47BAF 		bcc	.L3
 130:.\DSP\Source\TransformFunctions/arm_cfft_radix2_q31.c **** 
 131:.\DSP\Source\TransformFunctions/arm_cfft_radix2_q31.c ****    }                             // groups loop end
 132:.\DSP\Source\TransformFunctions/arm_cfft_radix2_q31.c **** 
 133:.\DSP\Source\TransformFunctions/arm_cfft_radix2_q31.c ****    twidCoefModifier <<= 1U;
 181              		.loc 1 133 0 is_stmt 1
 182 0124 109B     		ldr	r3, [sp, #64]
 183 0126 5B00     		lsls	r3, r3, #1
 184 0128 9BB2     		uxth	r3, r3
 185 012a 1293     		str	r3, [sp, #72]
 186              	.LVL19:
 134:.\DSP\Source\TransformFunctions/arm_cfft_radix2_q31.c **** 
 135:.\DSP\Source\TransformFunctions/arm_cfft_radix2_q31.c ****    // loop for stage
 136:.\DSP\Source\TransformFunctions/arm_cfft_radix2_q31.c ****    for (k = fftLen / 2; k > 2; k = k >> 1)
 187              		.loc 1 136 0
 188 012c 149B     		ldr	r3, [sp, #80]
 189              	.LVL20:
 190 012e 5B08     		lsrs	r3, r3, #1
 191 0130 1593     		str	r3, [sp, #84]
 192              	.LVL21:
 193 0132 9FE0     		b	.L4
 194              	.LVL22:
 195              	.L8:
 137:.\DSP\Source\TransformFunctions/arm_cfft_radix2_q31.c ****    {
 138:.\DSP\Source\TransformFunctions/arm_cfft_radix2_q31.c ****       n1 = n2;
 139:.\DSP\Source\TransformFunctions/arm_cfft_radix2_q31.c ****       n2 = n2 >> 1;
 196              		.loc 1 139 0
 197 0134 0D9B     		ldr	r3, [sp, #52]
 198              	.LVL23:
 199 0136 5B08     		lsrs	r3, r3, #1
 200 0138 0E93     		str	r3, [sp, #56]
ARM GAS  C:\Users\IVYLIU~1\AppData\Local\Temp\cciEmTKc.s 			page 7


 201              	.LVL24:
 140:.\DSP\Source\TransformFunctions/arm_cfft_radix2_q31.c ****       ia = 0;
 202              		.loc 1 140 0
 203 013a 0023     		movs	r3, #0
 204              	.LVL25:
 205 013c 1193     		str	r3, [sp, #68]
 141:.\DSP\Source\TransformFunctions/arm_cfft_radix2_q31.c **** 
 142:.\DSP\Source\TransformFunctions/arm_cfft_radix2_q31.c ****       // loop for groups
 143:.\DSP\Source\TransformFunctions/arm_cfft_radix2_q31.c ****       for (j = 0; j < n2; j++)
 206              		.loc 1 143 0
 207 013e 1093     		str	r3, [sp, #64]
 208 0140 8BE0     		b	.L5
 209              	.LVL26:
 210              	.L7:
 144:.\DSP\Source\TransformFunctions/arm_cfft_radix2_q31.c ****       {
 145:.\DSP\Source\TransformFunctions/arm_cfft_radix2_q31.c ****          cosVal = pCoef[ia * 2];
 211              		.loc 1 145 0
 212 0142 1399     		ldr	r1, [sp, #76]
 213 0144 119A     		ldr	r2, [sp, #68]
 214 0146 51F83290 		ldr	r9, [r1, r2, lsl #3]
 215              	.LVL27:
 146:.\DSP\Source\TransformFunctions/arm_cfft_radix2_q31.c ****          sinVal = pCoef[(ia * 2) + 1];
 216              		.loc 1 146 0
 217 014a 0B46     		mov	r3, r1
 218              	.LVL28:
 219 014c 03EBC203 		add	r3, r3, r2, lsl #3
 220 0150 D3F80480 		ldr	r8, [r3, #4]
 221              	.LVL29:
 147:.\DSP\Source\TransformFunctions/arm_cfft_radix2_q31.c ****          ia = ia + twidCoefModifier;
 222              		.loc 1 147 0
 223 0154 129B     		ldr	r3, [sp, #72]
 224 0156 D318     		adds	r3, r2, r3
 225 0158 1193     		str	r3, [sp, #68]
 226              	.LVL30:
 148:.\DSP\Source\TransformFunctions/arm_cfft_radix2_q31.c **** 
 149:.\DSP\Source\TransformFunctions/arm_cfft_radix2_q31.c ****          // loop for butterfly
 150:.\DSP\Source\TransformFunctions/arm_cfft_radix2_q31.c ****          i = j;
 151:.\DSP\Source\TransformFunctions/arm_cfft_radix2_q31.c ****          m = fftLen / n1;
 227              		.loc 1 151 0
 228 015a 149B     		ldr	r3, [sp, #80]
 229              	.LVL31:
 230 015c 0D9A     		ldr	r2, [sp, #52]
 231 015e B3FBF2F3 		udiv	r3, r3, r2
 232 0162 0493     		str	r3, [sp, #16]
 233              	.LVL32:
 150:.\DSP\Source\TransformFunctions/arm_cfft_radix2_q31.c ****          m = fftLen / n1;
 234              		.loc 1 150 0
 235 0164 DDF840E0 		ldr	lr, [sp, #64]
 236              	.LVL33:
 237              	.L6:
 152:.\DSP\Source\TransformFunctions/arm_cfft_radix2_q31.c ****          do
 153:.\DSP\Source\TransformFunctions/arm_cfft_radix2_q31.c ****          {
 154:.\DSP\Source\TransformFunctions/arm_cfft_radix2_q31.c ****             l = i + n2;
 238              		.loc 1 154 0 discriminator 1
 239 0168 0E9B     		ldr	r3, [sp, #56]
 240 016a 0EEB0301 		add	r1, lr, r3
 241              	.LVL34:
ARM GAS  C:\Users\IVYLIU~1\AppData\Local\Temp\cciEmTKc.s 			page 8


 155:.\DSP\Source\TransformFunctions/arm_cfft_radix2_q31.c ****             xt = pSrc[2 * i] - pSrc[2 * l];
 242              		.loc 1 155 0 discriminator 1
 243 016e 4FEACE05 		lsl	r5, lr, #3
 244 0172 5CF83E40 		ldr	r4, [ip, lr, lsl #3]
 245 0176 C800     		lsls	r0, r1, #3
 246 0178 5CF83120 		ldr	r2, [ip, r1, lsl #3]
 247 017c A31A     		subs	r3, r4, r2
 248              	.LVL35:
 156:.\DSP\Source\TransformFunctions/arm_cfft_radix2_q31.c ****             pSrc[2 * i] = (pSrc[2 * i] + pSrc[2 * l]) >> 1U;
 249              		.loc 1 156 0 discriminator 1
 250 017e 2244     		add	r2, r2, r4
 251 0180 5210     		asrs	r2, r2, #1
 252 0182 4CF83E20 		str	r2, [ip, lr, lsl #3]
 157:.\DSP\Source\TransformFunctions/arm_cfft_radix2_q31.c **** 
 158:.\DSP\Source\TransformFunctions/arm_cfft_radix2_q31.c ****             yt = pSrc[2 * i + 1] - pSrc[2 * l + 1];
 253              		.loc 1 158 0 discriminator 1
 254 0186 0435     		adds	r5, r5, #4
 255 0188 5CF80560 		ldr	r6, [ip, r5]
 256 018c 0430     		adds	r0, r0, #4
 257 018e 5CF80040 		ldr	r4, [ip, r0]
 258 0192 321B     		subs	r2, r6, r4
 259              	.LVL36:
 159:.\DSP\Source\TransformFunctions/arm_cfft_radix2_q31.c ****             pSrc[2 * i + 1] = (pSrc[2 * l + 1] + pSrc[2 * i + 1]) >> 1U;
 260              		.loc 1 159 0 discriminator 1
 261 0194 3444     		add	r4, r4, r6
 262 0196 6410     		asrs	r4, r4, #1
 263 0198 4CF80540 		str	r4, [ip, r5]
 160:.\DSP\Source\TransformFunctions/arm_cfft_radix2_q31.c **** 
 161:.\DSP\Source\TransformFunctions/arm_cfft_radix2_q31.c ****             mult_32x32_keep32_R(p0, xt, cosVal);
 264              		.loc 1 161 0 discriminator 1
 265 019c DD17     		asrs	r5, r3, #31
 266 019e 1E46     		mov	r6, r3
 267 01a0 2F46     		mov	r7, r5
 268 01a2 4C46     		mov	r4, r9
 269 01a4 E517     		asrs	r5, r4, #31
 270 01a6 03FB05F4 		mul	r4, r3, r5
 271 01aa CDE90667 		strd	r6, [sp, #24]
 272 01ae 09FB0744 		mla	r4, r9, r7, r4
 273 01b2 A3FB0967 		umull	r6, r7, r3, r9
 274 01b6 2744     		add	r7, r7, r4
 275 01b8 16F1004A 		adds	r10, r6, #-2147483648
 276 01bc 47F1000B 		adc	fp, r7, #0
 277              	.LVL37:
 162:.\DSP\Source\TransformFunctions/arm_cfft_radix2_q31.c ****             mult_32x32_keep32_R(p1, yt, cosVal);
 278              		.loc 1 162 0 discriminator 1
 279 01c0 1646     		mov	r6, r2
 280 01c2 D717     		asrs	r7, r2, #31
 281 01c4 CDE90867 		strd	r6, [sp, #32]
 282 01c8 09FB07F6 		mul	r6, r9, r7
 283 01cc 02FB0566 		mla	r6, r2, r5, r6
 284 01d0 A9FB0245 		umull	r4, r5, r9, r2
 285 01d4 3544     		add	r5, r5, r6
 286 01d6 14F10046 		adds	r6, r4, #-2147483648
 287 01da 45F10007 		adc	r7, r5, #0
 288 01de CDE90A67 		strd	r6, [sp, #40]
 289              	.LVL38:
 163:.\DSP\Source\TransformFunctions/arm_cfft_radix2_q31.c ****             multAcc_32x32_keep32_R(p0, yt, sinVal);
ARM GAS  C:\Users\IVYLIU~1\AppData\Local\Temp\cciEmTKc.s 			page 9


 290              		.loc 1 163 0 discriminator 1
 291 01e2 CDF804B0 		str	fp, [sp, #4]
 292 01e6 0024     		movs	r4, #0
 293 01e8 0094     		str	r4, [sp]
 294 01ea 4446     		mov	r4, r8
 295 01ec E517     		asrs	r5, r4, #31
 296 01ee 02FB05F4 		mul	r4, r2, r5
 297 01f2 099E     		ldr	r6, [sp, #36]
 298 01f4 08FB0644 		mla	r4, r8, r6, r4
 299 01f8 A2FB0867 		umull	r6, r7, r2, r8
 300 01fc 2744     		add	r7, r7, r4
 301 01fe DDE900AB 		ldrd	r10, [sp]
 302 0202 1AEB060A 		adds	r10, r10, r6
 303 0206 4BEB070B 		adc	fp, fp, r7
 304              	.LVL39:
 305 020a 5646     		mov	r6, r10
 306 020c 16F10046 		adds	r6, r6, #-2147483648
 307 0210 4BF10007 		adc	r7, fp, #0
 308              	.LVL40:
 164:.\DSP\Source\TransformFunctions/arm_cfft_radix2_q31.c ****             multSub_32x32_keep32_R(p1, xt, sinVal);
 309              		.loc 1 164 0 discriminator 1
 310 0214 0B9A     		ldr	r2, [sp, #44]
 311              	.LVL41:
 312 0216 0392     		str	r2, [sp, #12]
 313 0218 0022     		movs	r2, #0
 314 021a 0292     		str	r2, [sp, #8]
 315 021c 03FB05F4 		mul	r4, r3, r5
 316 0220 079A     		ldr	r2, [sp, #28]
 317 0222 08FB0244 		mla	r4, r8, r2, r4
 318 0226 A3FB0823 		umull	r2, r3, r3, r8
 319 022a 2344     		add	r3, r3, r4
 320              	.LVL42:
 321 022c DDE90245 		ldrd	r4, [sp, #8]
 322 0230 A41A     		subs	r4, r4, r2
 323 0232 65EB0305 		sbc	r5, r5, r3
 324 0236 2246     		mov	r2, r4
 325 0238 12F10042 		adds	r2, r2, #-2147483648
 326 023c 45F10003 		adc	r3, r5, #0
 327              	.LVL43:
 165:.\DSP\Source\TransformFunctions/arm_cfft_radix2_q31.c **** 
 166:.\DSP\Source\TransformFunctions/arm_cfft_radix2_q31.c ****             pSrc[2U * l] = p0;
 328              		.loc 1 166 0 discriminator 1
 329 0240 4CF83170 		str	r7, [ip, r1, lsl #3]
 167:.\DSP\Source\TransformFunctions/arm_cfft_radix2_q31.c ****             pSrc[2U * l + 1U] = p1;
 330              		.loc 1 167 0 discriminator 1
 331 0244 4CF80030 		str	r3, [ip, r0]
 168:.\DSP\Source\TransformFunctions/arm_cfft_radix2_q31.c ****             i += n1;
 332              		.loc 1 168 0 discriminator 1
 333 0248 0D9B     		ldr	r3, [sp, #52]
 334              	.LVL44:
 335 024a 9E44     		add	lr, lr, r3
 336              	.LVL45:
 169:.\DSP\Source\TransformFunctions/arm_cfft_radix2_q31.c ****             m--;
 170:.\DSP\Source\TransformFunctions/arm_cfft_radix2_q31.c ****          } while ( m > 0);                   // butterfly loop end
 337              		.loc 1 170 0 discriminator 1
 338 024c 049B     		ldr	r3, [sp, #16]
 339 024e 013B     		subs	r3, r3, #1
ARM GAS  C:\Users\IVYLIU~1\AppData\Local\Temp\cciEmTKc.s 			page 10


 340              	.LVL46:
 341 0250 0493     		str	r3, [sp, #16]
 342 0252 89D1     		bne	.L6
 143:.\DSP\Source\TransformFunctions/arm_cfft_radix2_q31.c ****       {
 343              		.loc 1 143 0 discriminator 2
 344 0254 109B     		ldr	r3, [sp, #64]
 345              	.LVL47:
 346 0256 0133     		adds	r3, r3, #1
 347 0258 1093     		str	r3, [sp, #64]
 348              	.LVL48:
 349              	.L5:
 143:.\DSP\Source\TransformFunctions/arm_cfft_radix2_q31.c ****       {
 350              		.loc 1 143 0 is_stmt 0 discriminator 1
 351 025a 109B     		ldr	r3, [sp, #64]
 352 025c 0E9A     		ldr	r2, [sp, #56]
 353 025e 9342     		cmp	r3, r2
 354 0260 FFF46FAF 		bcc	.L7
 171:.\DSP\Source\TransformFunctions/arm_cfft_radix2_q31.c **** 
 172:.\DSP\Source\TransformFunctions/arm_cfft_radix2_q31.c ****       }                           // groups loop end
 173:.\DSP\Source\TransformFunctions/arm_cfft_radix2_q31.c **** 
 174:.\DSP\Source\TransformFunctions/arm_cfft_radix2_q31.c ****       twidCoefModifier <<= 1U;
 355              		.loc 1 174 0 is_stmt 1 discriminator 2
 356 0264 129B     		ldr	r3, [sp, #72]
 357 0266 5B00     		lsls	r3, r3, #1
 358              	.LVL49:
 359 0268 9BB2     		uxth	r3, r3
 360 026a 1293     		str	r3, [sp, #72]
 136:.\DSP\Source\TransformFunctions/arm_cfft_radix2_q31.c ****    {
 361              		.loc 1 136 0 discriminator 2
 362 026c 159B     		ldr	r3, [sp, #84]
 363              	.LVL50:
 364 026e 5B08     		lsrs	r3, r3, #1
 365 0270 1593     		str	r3, [sp, #84]
 366              	.LVL51:
 139:.\DSP\Source\TransformFunctions/arm_cfft_radix2_q31.c ****       ia = 0;
 367              		.loc 1 139 0 discriminator 2
 368 0272 0D92     		str	r2, [sp, #52]
 369              	.LVL52:
 370              	.L4:
 136:.\DSP\Source\TransformFunctions/arm_cfft_radix2_q31.c ****    {
 371              		.loc 1 136 0 discriminator 1
 372 0274 159B     		ldr	r3, [sp, #84]
 373 0276 022B     		cmp	r3, #2
 374 0278 3FF65CAF 		bhi	.L8
 375              	.LVL53:
 175:.\DSP\Source\TransformFunctions/arm_cfft_radix2_q31.c ****    }                             // stages loop end
 176:.\DSP\Source\TransformFunctions/arm_cfft_radix2_q31.c **** 
 177:.\DSP\Source\TransformFunctions/arm_cfft_radix2_q31.c ****    n1 = n2;
 178:.\DSP\Source\TransformFunctions/arm_cfft_radix2_q31.c ****    n2 = n2 >> 1;
 376              		.loc 1 178 0
 377 027c 0D9B     		ldr	r3, [sp, #52]
 378 027e 5908     		lsrs	r1, r3, #1
 379              	.LVL54:
 179:.\DSP\Source\TransformFunctions/arm_cfft_radix2_q31.c ****    ia = 0;
 180:.\DSP\Source\TransformFunctions/arm_cfft_radix2_q31.c **** 
 181:.\DSP\Source\TransformFunctions/arm_cfft_radix2_q31.c ****    cosVal = pCoef[ia * 2];
 182:.\DSP\Source\TransformFunctions/arm_cfft_radix2_q31.c ****    sinVal = pCoef[(ia * 2) + 1];
ARM GAS  C:\Users\IVYLIU~1\AppData\Local\Temp\cciEmTKc.s 			page 11


 183:.\DSP\Source\TransformFunctions/arm_cfft_radix2_q31.c ****    ia = ia + twidCoefModifier;
 184:.\DSP\Source\TransformFunctions/arm_cfft_radix2_q31.c **** 
 185:.\DSP\Source\TransformFunctions/arm_cfft_radix2_q31.c ****    // loop for butterfly
 186:.\DSP\Source\TransformFunctions/arm_cfft_radix2_q31.c ****    for (i = 0; i < fftLen; i += n1)
 380              		.loc 1 186 0
 381 0280 0020     		movs	r0, #0
 382 0282 1E46     		mov	r6, r3
 383 0284 149F     		ldr	r7, [sp, #80]
 384 0286 37E0     		b	.L9
 385              	.LVL55:
 386              	.L10:
 187:.\DSP\Source\TransformFunctions/arm_cfft_radix2_q31.c ****    {
 188:.\DSP\Source\TransformFunctions/arm_cfft_radix2_q31.c ****       l = i + n2;
 387              		.loc 1 188 0 discriminator 3
 388 0288 4518     		adds	r5, r0, r1
 389              	.LVL56:
 189:.\DSP\Source\TransformFunctions/arm_cfft_radix2_q31.c ****       xt = pSrc[2 * i] - pSrc[2 * l];
 390              		.loc 1 189 0 discriminator 3
 391 028a C200     		lsls	r2, r0, #3
 392 028c 5CF83080 		ldr	r8, [ip, r0, lsl #3]
 393 0290 EB00     		lsls	r3, r5, #3
 394 0292 5CF83540 		ldr	r4, [ip, r5, lsl #3]
 395 0296 C4EB080E 		rsb	lr, r4, r8
 396              	.LVL57:
 190:.\DSP\Source\TransformFunctions/arm_cfft_radix2_q31.c ****       pSrc[2 * i] = (pSrc[2 * i] + pSrc[2 * l]);
 397              		.loc 1 190 0 discriminator 3
 398 029a 4444     		add	r4, r4, r8
 399 029c 4CF83040 		str	r4, [ip, r0, lsl #3]
 191:.\DSP\Source\TransformFunctions/arm_cfft_radix2_q31.c **** 
 192:.\DSP\Source\TransformFunctions/arm_cfft_radix2_q31.c ****       yt = pSrc[2 * i + 1] - pSrc[2 * l + 1];
 400              		.loc 1 192 0 discriminator 3
 401 02a0 0432     		adds	r2, r2, #4
 402 02a2 5CF80280 		ldr	r8, [ip, r2]
 403 02a6 0433     		adds	r3, r3, #4
 404 02a8 5CF80340 		ldr	r4, [ip, r3]
 405 02ac C4EB0809 		rsb	r9, r4, r8
 406              	.LVL58:
 193:.\DSP\Source\TransformFunctions/arm_cfft_radix2_q31.c ****       pSrc[2 * i + 1] = (pSrc[2 * l + 1] + pSrc[2 * i + 1]);
 407              		.loc 1 193 0 discriminator 3
 408 02b0 4444     		add	r4, r4, r8
 409 02b2 4CF80240 		str	r4, [ip, r2]
 194:.\DSP\Source\TransformFunctions/arm_cfft_radix2_q31.c **** 
 195:.\DSP\Source\TransformFunctions/arm_cfft_radix2_q31.c ****       pSrc[2U * l] = xt;
 410              		.loc 1 195 0 discriminator 3
 411 02b6 4CF835E0 		str	lr, [ip, r5, lsl #3]
 196:.\DSP\Source\TransformFunctions/arm_cfft_radix2_q31.c **** 
 197:.\DSP\Source\TransformFunctions/arm_cfft_radix2_q31.c ****       pSrc[2U * l + 1U] = yt;
 412              		.loc 1 197 0 discriminator 3
 413 02ba 4CF80390 		str	r9, [ip, r3]
 198:.\DSP\Source\TransformFunctions/arm_cfft_radix2_q31.c **** 
 199:.\DSP\Source\TransformFunctions/arm_cfft_radix2_q31.c ****       i += n1;
 414              		.loc 1 199 0 discriminator 3
 415 02be 3044     		add	r0, r0, r6
 416              	.LVL59:
 200:.\DSP\Source\TransformFunctions/arm_cfft_radix2_q31.c ****       l = i + n2;
 417              		.loc 1 200 0 discriminator 3
 418 02c0 4518     		adds	r5, r0, r1
ARM GAS  C:\Users\IVYLIU~1\AppData\Local\Temp\cciEmTKc.s 			page 12


 419              	.LVL60:
 201:.\DSP\Source\TransformFunctions/arm_cfft_radix2_q31.c **** 
 202:.\DSP\Source\TransformFunctions/arm_cfft_radix2_q31.c ****       xt = pSrc[2 * i] - pSrc[2 * l];
 420              		.loc 1 202 0 discriminator 3
 421 02c2 C200     		lsls	r2, r0, #3
 422 02c4 5CF83080 		ldr	r8, [ip, r0, lsl #3]
 423 02c8 EB00     		lsls	r3, r5, #3
 424 02ca 5CF83540 		ldr	r4, [ip, r5, lsl #3]
 425 02ce C4EB080E 		rsb	lr, r4, r8
 426              	.LVL61:
 203:.\DSP\Source\TransformFunctions/arm_cfft_radix2_q31.c ****       pSrc[2 * i] = (pSrc[2 * i] + pSrc[2 * l]);
 427              		.loc 1 203 0 discriminator 3
 428 02d2 4444     		add	r4, r4, r8
 429 02d4 4CF83040 		str	r4, [ip, r0, lsl #3]
 204:.\DSP\Source\TransformFunctions/arm_cfft_radix2_q31.c **** 
 205:.\DSP\Source\TransformFunctions/arm_cfft_radix2_q31.c ****       yt = pSrc[2 * i + 1] - pSrc[2 * l + 1];
 430              		.loc 1 205 0 discriminator 3
 431 02d8 0432     		adds	r2, r2, #4
 432 02da 5CF80280 		ldr	r8, [ip, r2]
 433 02de 0433     		adds	r3, r3, #4
 434 02e0 5CF80340 		ldr	r4, [ip, r3]
 435 02e4 C4EB0809 		rsb	r9, r4, r8
 436              	.LVL62:
 206:.\DSP\Source\TransformFunctions/arm_cfft_radix2_q31.c ****       pSrc[2 * i + 1] = (pSrc[2 * l + 1] + pSrc[2 * i + 1]);
 437              		.loc 1 206 0 discriminator 3
 438 02e8 4444     		add	r4, r4, r8
 439 02ea 4CF80240 		str	r4, [ip, r2]
 207:.\DSP\Source\TransformFunctions/arm_cfft_radix2_q31.c **** 
 208:.\DSP\Source\TransformFunctions/arm_cfft_radix2_q31.c ****       pSrc[2U * l] = xt;
 440              		.loc 1 208 0 discriminator 3
 441 02ee 4CF835E0 		str	lr, [ip, r5, lsl #3]
 209:.\DSP\Source\TransformFunctions/arm_cfft_radix2_q31.c **** 
 210:.\DSP\Source\TransformFunctions/arm_cfft_radix2_q31.c ****       pSrc[2U * l + 1U] = yt;
 442              		.loc 1 210 0 discriminator 3
 443 02f2 4CF80390 		str	r9, [ip, r3]
 186:.\DSP\Source\TransformFunctions/arm_cfft_radix2_q31.c ****    {
 444              		.loc 1 186 0 discriminator 3
 445 02f6 3044     		add	r0, r0, r6
 446              	.LVL63:
 447              	.L9:
 186:.\DSP\Source\TransformFunctions/arm_cfft_radix2_q31.c ****    {
 448              		.loc 1 186 0 is_stmt 0 discriminator 1
 449 02f8 B842     		cmp	r0, r7
 450 02fa C5D3     		bcc	.L10
 211:.\DSP\Source\TransformFunctions/arm_cfft_radix2_q31.c **** 
 212:.\DSP\Source\TransformFunctions/arm_cfft_radix2_q31.c ****    }                             // butterfly loop end
 213:.\DSP\Source\TransformFunctions/arm_cfft_radix2_q31.c **** 
 214:.\DSP\Source\TransformFunctions/arm_cfft_radix2_q31.c **** }
 451              		.loc 1 214 0 is_stmt 1
 452 02fc 17B0     		add	sp, sp, #92
 453              		.cfi_def_cfa_offset 36
 454              		@ sp needed
 455 02fe BDE8F08F 		pop	{r4, r5, r6, r7, r8, r9, r10, fp, pc}
 456              		.cfi_endproc
 457              	.LFE85:
 458              		.size	arm_radix2_butterfly_q31, .-arm_radix2_butterfly_q31
 459 0302 00BF     		.section	.text.arm_radix2_butterfly_inverse_q31,"ax",%progbits
ARM GAS  C:\Users\IVYLIU~1\AppData\Local\Temp\cciEmTKc.s 			page 13


 460              		.align	2
 461              		.global	arm_radix2_butterfly_inverse_q31
 462              		.thumb
 463              		.thumb_func
 464              		.type	arm_radix2_butterfly_inverse_q31, %function
 465              	arm_radix2_butterfly_inverse_q31:
 466              	.LFB86:
 215:.\DSP\Source\TransformFunctions/arm_cfft_radix2_q31.c **** 
 216:.\DSP\Source\TransformFunctions/arm_cfft_radix2_q31.c **** 
 217:.\DSP\Source\TransformFunctions/arm_cfft_radix2_q31.c **** void arm_radix2_butterfly_inverse_q31(
 218:.\DSP\Source\TransformFunctions/arm_cfft_radix2_q31.c ****         q31_t * pSrc,
 219:.\DSP\Source\TransformFunctions/arm_cfft_radix2_q31.c ****         uint32_t fftLen,
 220:.\DSP\Source\TransformFunctions/arm_cfft_radix2_q31.c ****   const q31_t * pCoef,
 221:.\DSP\Source\TransformFunctions/arm_cfft_radix2_q31.c ****         uint16_t twidCoefModifier)
 222:.\DSP\Source\TransformFunctions/arm_cfft_radix2_q31.c **** {
 467              		.loc 1 222 0
 468              		.cfi_startproc
 469              		@ args = 0, pretend = 0, frame = 80
 470              		@ frame_needed = 0, uses_anonymous_args = 0
 471              	.LVL64:
 472 0000 2DE9F04F 		push	{r4, r5, r6, r7, r8, r9, r10, fp, lr}
 473              		.cfi_def_cfa_offset 36
 474              		.cfi_offset 4, -36
 475              		.cfi_offset 5, -32
 476              		.cfi_offset 6, -28
 477              		.cfi_offset 7, -24
 478              		.cfi_offset 8, -20
 479              		.cfi_offset 9, -16
 480              		.cfi_offset 10, -12
 481              		.cfi_offset 11, -8
 482              		.cfi_offset 14, -4
 483 0004 95B0     		sub	sp, sp, #84
 484              		.cfi_def_cfa_offset 120
 485 0006 8446     		mov	ip, r0
 486 0008 0C91     		str	r1, [sp, #48]
 487 000a 1292     		str	r2, [sp, #72]
 488 000c 1093     		str	r3, [sp, #64]
 489              	.LVL65:
 223:.\DSP\Source\TransformFunctions/arm_cfft_radix2_q31.c **** 
 224:.\DSP\Source\TransformFunctions/arm_cfft_radix2_q31.c ****    unsigned i, j, k, l;
 225:.\DSP\Source\TransformFunctions/arm_cfft_radix2_q31.c ****    unsigned n1, n2, ia;
 226:.\DSP\Source\TransformFunctions/arm_cfft_radix2_q31.c ****    q31_t xt, yt, cosVal, sinVal;
 227:.\DSP\Source\TransformFunctions/arm_cfft_radix2_q31.c ****    q31_t p0, p1;
 228:.\DSP\Source\TransformFunctions/arm_cfft_radix2_q31.c **** 
 229:.\DSP\Source\TransformFunctions/arm_cfft_radix2_q31.c ****    //N = fftLen;
 230:.\DSP\Source\TransformFunctions/arm_cfft_radix2_q31.c ****    n2 = fftLen;
 231:.\DSP\Source\TransformFunctions/arm_cfft_radix2_q31.c **** 
 232:.\DSP\Source\TransformFunctions/arm_cfft_radix2_q31.c ****    n1 = n2;
 233:.\DSP\Source\TransformFunctions/arm_cfft_radix2_q31.c ****    n2 = n2 >> 1;
 490              		.loc 1 233 0
 491 000e 4B08     		lsrs	r3, r1, #1
 492              	.LVL66:
 493 0010 0D93     		str	r3, [sp, #52]
 494              	.LVL67:
 234:.\DSP\Source\TransformFunctions/arm_cfft_radix2_q31.c ****    ia = 0;
 495              		.loc 1 234 0
 496 0012 4FF0000B 		mov	fp, #0
ARM GAS  C:\Users\IVYLIU~1\AppData\Local\Temp\cciEmTKc.s 			page 14


 235:.\DSP\Source\TransformFunctions/arm_cfft_radix2_q31.c **** 
 236:.\DSP\Source\TransformFunctions/arm_cfft_radix2_q31.c ****    // loop for groups
 237:.\DSP\Source\TransformFunctions/arm_cfft_radix2_q31.c ****    for (i = 0; i < n2; i++)
 497              		.loc 1 237 0
 498 0016 DA46     		mov	r10, fp
 499 0018 7FE0     		b	.L13
 500              	.LVL68:
 501              	.L14:
 238:.\DSP\Source\TransformFunctions/arm_cfft_radix2_q31.c ****    {
 239:.\DSP\Source\TransformFunctions/arm_cfft_radix2_q31.c ****       cosVal = pCoef[ia * 2];
 502              		.loc 1 239 0 discriminator 3
 503 001a 129A     		ldr	r2, [sp, #72]
 504 001c 52F83B00 		ldr	r0, [r2, fp, lsl #3]
 505              	.LVL69:
 240:.\DSP\Source\TransformFunctions/arm_cfft_radix2_q31.c ****       sinVal = pCoef[(ia * 2) + 1];
 506              		.loc 1 240 0 discriminator 3
 507 0020 02EBCB03 		add	r3, r2, fp, lsl #3
 508 0024 5C68     		ldr	r4, [r3, #4]
 509              	.LVL70:
 241:.\DSP\Source\TransformFunctions/arm_cfft_radix2_q31.c ****       ia = ia + twidCoefModifier;
 510              		.loc 1 241 0 discriminator 3
 511 0026 109B     		ldr	r3, [sp, #64]
 512 0028 9B44     		add	fp, fp, r3
 513              	.LVL71:
 242:.\DSP\Source\TransformFunctions/arm_cfft_radix2_q31.c **** 
 243:.\DSP\Source\TransformFunctions/arm_cfft_radix2_q31.c ****       l = i + n2;
 514              		.loc 1 243 0 discriminator 3
 515 002a 0D9B     		ldr	r3, [sp, #52]
 516 002c 0AEB0305 		add	r5, r10, r3
 517              	.LVL72:
 244:.\DSP\Source\TransformFunctions/arm_cfft_radix2_q31.c ****       xt = (pSrc[2 * i] >> 1U) - (pSrc[2 * l] >> 1U);
 518              		.loc 1 244 0 discriminator 3
 519 0030 4FEACA01 		lsl	r1, r10, #3
 520 0034 5CF83A30 		ldr	r3, [ip, r10, lsl #3]
 521 0038 5E10     		asrs	r6, r3, #1
 522 003a 4FEAC50E 		lsl	lr, r5, #3
 523 003e 5CF83530 		ldr	r3, [ip, r5, lsl #3]
 524 0042 5A10     		asrs	r2, r3, #1
 525 0044 B31A     		subs	r3, r6, r2
 526              	.LVL73:
 245:.\DSP\Source\TransformFunctions/arm_cfft_radix2_q31.c ****       pSrc[2 * i] = ((pSrc[2 * i] >> 1U) + (pSrc[2 * l] >> 1U)) >> 1U;
 527              		.loc 1 245 0 discriminator 3
 528 0046 3244     		add	r2, r2, r6
 529 0048 5210     		asrs	r2, r2, #1
 530 004a 4CF83A20 		str	r2, [ip, r10, lsl #3]
 246:.\DSP\Source\TransformFunctions/arm_cfft_radix2_q31.c **** 
 247:.\DSP\Source\TransformFunctions/arm_cfft_radix2_q31.c ****       yt = (pSrc[2 * i + 1] >> 1U) - (pSrc[2 * l + 1] >> 1U);
 531              		.loc 1 247 0 discriminator 3
 532 004e 0431     		adds	r1, r1, #4
 533 0050 5CF80120 		ldr	r2, [ip, r1]
 534 0054 5610     		asrs	r6, r2, #1
 535 0056 0EF1040E 		add	lr, lr, #4
 536 005a 5CF80E20 		ldr	r2, [ip, lr]
 537 005e 5710     		asrs	r7, r2, #1
 538 0060 F21B     		subs	r2, r6, r7
 539              	.LVL74:
 248:.\DSP\Source\TransformFunctions/arm_cfft_radix2_q31.c ****       pSrc[2 * i + 1] =
ARM GAS  C:\Users\IVYLIU~1\AppData\Local\Temp\cciEmTKc.s 			page 15


 249:.\DSP\Source\TransformFunctions/arm_cfft_radix2_q31.c ****         ((pSrc[2 * l + 1] >> 1U) + (pSrc[2 * i + 1] >> 1U)) >> 1U;
 540              		.loc 1 249 0 discriminator 3
 541 0062 3E44     		add	r6, r6, r7
 542 0064 7610     		asrs	r6, r6, #1
 248:.\DSP\Source\TransformFunctions/arm_cfft_radix2_q31.c ****       pSrc[2 * i + 1] =
 543              		.loc 1 248 0 discriminator 3
 544 0066 4CF80160 		str	r6, [ip, r1]
 250:.\DSP\Source\TransformFunctions/arm_cfft_radix2_q31.c **** 
 251:.\DSP\Source\TransformFunctions/arm_cfft_radix2_q31.c ****       mult_32x32_keep32_R(p0, xt, cosVal);
 545              		.loc 1 251 0 discriminator 3
 546 006a 1E46     		mov	r6, r3
 547 006c DF17     		asrs	r7, r3, #31
 548 006e 8046     		mov	r8, r0
 549 0070 4FEAE079 		asr	r9, r0, #31
 550 0074 CDE90A89 		strd	r8, [sp, #40]
 551 0078 4946     		mov	r1, r9
 552 007a 03FB01F1 		mul	r1, r3, r1
 553 007e CDE90867 		strd	r6, [sp, #32]
 554 0082 00FB0711 		mla	r1, r0, r7, r1
 555 0086 A3FB0067 		umull	r6, r7, r3, r0
 556 008a 0F44     		add	r7, r7, r1
 557 008c 16F10048 		adds	r8, r6, #-2147483648
 558 0090 47F10009 		adc	r9, r7, #0
 559 0094 CDE90E89 		strd	r8, [sp, #56]
 560              	.LVL75:
 252:.\DSP\Source\TransformFunctions/arm_cfft_radix2_q31.c ****       mult_32x32_keep32_R(p1, yt, cosVal);
 561              		.loc 1 252 0 discriminator 3
 562 0098 D717     		asrs	r7, r2, #31
 563 009a 00FB07F6 		mul	r6, r0, r7
 564 009e 0B99     		ldr	r1, [sp, #44]
 565 00a0 02FB0166 		mla	r6, r2, r1, r6
 566 00a4 A0FB0201 		umull	r0, r1, r0, r2
 567              	.LVL76:
 568 00a8 3144     		add	r1, r1, r6
 569 00aa 10F10048 		adds	r8, r0, #-2147483648
 570 00ae 41F10009 		adc	r9, r1, #0
 571 00b2 CDE90A89 		strd	r8, [sp, #40]
 572              	.LVL77:
 253:.\DSP\Source\TransformFunctions/arm_cfft_radix2_q31.c ****       multSub_32x32_keep32_R(p0, yt, sinVal);
 573              		.loc 1 253 0 discriminator 3
 574 00b6 0F99     		ldr	r1, [sp, #60]
 575 00b8 0591     		str	r1, [sp, #20]
 576 00ba 0021     		movs	r1, #0
 577 00bc 0491     		str	r1, [sp, #16]
 578 00be E117     		asrs	r1, r4, #31
 579 00c0 02FB01F0 		mul	r0, r2, r1
 580 00c4 04FB0700 		mla	r0, r4, r7, r0
 581 00c8 A2FB0467 		umull	r6, r7, r2, r4
 582 00cc 0744     		add	r7, r7, r0
 583 00ce DDE90489 		ldrd	r8, [sp, #16]
 584 00d2 B8EB0608 		subs	r8, r8, r6
 585 00d6 69EB0709 		sbc	r9, r9, r7
 586 00da 4646     		mov	r6, r8
 587 00dc 16F10046 		adds	r6, r6, #-2147483648
 588 00e0 49F10007 		adc	r7, r9, #0
 589              	.LVL78:
 254:.\DSP\Source\TransformFunctions/arm_cfft_radix2_q31.c ****       multAcc_32x32_keep32_R(p1, xt, sinVal);
ARM GAS  C:\Users\IVYLIU~1\AppData\Local\Temp\cciEmTKc.s 			page 16


 590              		.loc 1 254 0 discriminator 3
 591 00e4 0B9A     		ldr	r2, [sp, #44]
 592              	.LVL79:
 593 00e6 0792     		str	r2, [sp, #28]
 594 00e8 0022     		movs	r2, #0
 595 00ea 0692     		str	r2, [sp, #24]
 596 00ec 03FB01F1 		mul	r1, r3, r1
 597 00f0 099A     		ldr	r2, [sp, #36]
 598 00f2 04FB0211 		mla	r1, r4, r2, r1
 599 00f6 A3FB0423 		umull	r2, r3, r3, r4
 600 00fa 0B44     		add	r3, r3, r1
 601              	.LVL80:
 602 00fc DDE90601 		ldrd	r0, [sp, #24]
 603 0100 8018     		adds	r0, r0, r2
 604 0102 5941     		adcs	r1, r1, r3
 605 0104 0246     		mov	r2, r0
 606 0106 12F10042 		adds	r2, r2, #-2147483648
 607 010a 41F10003 		adc	r3, r1, #0
 608              	.LVL81:
 255:.\DSP\Source\TransformFunctions/arm_cfft_radix2_q31.c **** 
 256:.\DSP\Source\TransformFunctions/arm_cfft_radix2_q31.c ****       pSrc[2U * l] = p0;
 609              		.loc 1 256 0 discriminator 3
 610 010e 4CF83570 		str	r7, [ip, r5, lsl #3]
 257:.\DSP\Source\TransformFunctions/arm_cfft_radix2_q31.c ****       pSrc[2U * l + 1U] = p1;
 611              		.loc 1 257 0 discriminator 3
 612 0112 4CF80E30 		str	r3, [ip, lr]
 237:.\DSP\Source\TransformFunctions/arm_cfft_radix2_q31.c ****    {
 613              		.loc 1 237 0 discriminator 3
 614 0116 0AF1010A 		add	r10, r10, #1
 615              	.LVL82:
 616              	.L13:
 237:.\DSP\Source\TransformFunctions/arm_cfft_radix2_q31.c ****    {
 617              		.loc 1 237 0 is_stmt 0 discriminator 1
 618 011a 0D9B     		ldr	r3, [sp, #52]
 619 011c 9A45     		cmp	r10, r3
 620 011e FFF47CAF 		bcc	.L14
 258:.\DSP\Source\TransformFunctions/arm_cfft_radix2_q31.c ****    }                             // groups loop end
 259:.\DSP\Source\TransformFunctions/arm_cfft_radix2_q31.c **** 
 260:.\DSP\Source\TransformFunctions/arm_cfft_radix2_q31.c ****    twidCoefModifier = twidCoefModifier << 1U;
 621              		.loc 1 260 0 is_stmt 1
 622 0122 109B     		ldr	r3, [sp, #64]
 623 0124 5B00     		lsls	r3, r3, #1
 624 0126 9BB2     		uxth	r3, r3
 625 0128 1193     		str	r3, [sp, #68]
 626              	.LVL83:
 261:.\DSP\Source\TransformFunctions/arm_cfft_radix2_q31.c **** 
 262:.\DSP\Source\TransformFunctions/arm_cfft_radix2_q31.c ****    // loop for stage
 263:.\DSP\Source\TransformFunctions/arm_cfft_radix2_q31.c ****    for (k = fftLen / 2; k > 2; k = k >> 1)
 627              		.loc 1 263 0
 628 012a 0C9B     		ldr	r3, [sp, #48]
 629              	.LVL84:
 630 012c 5B08     		lsrs	r3, r3, #1
 631 012e 1393     		str	r3, [sp, #76]
 632              	.LVL85:
 633 0130 99E0     		b	.L15
 634              	.LVL86:
 635              	.L20:
ARM GAS  C:\Users\IVYLIU~1\AppData\Local\Temp\cciEmTKc.s 			page 17


 264:.\DSP\Source\TransformFunctions/arm_cfft_radix2_q31.c ****    {
 265:.\DSP\Source\TransformFunctions/arm_cfft_radix2_q31.c ****       n1 = n2;
 266:.\DSP\Source\TransformFunctions/arm_cfft_radix2_q31.c ****       n2 = n2 >> 1;
 636              		.loc 1 266 0
 637 0132 0D9B     		ldr	r3, [sp, #52]
 638              	.LVL87:
 639 0134 5B08     		lsrs	r3, r3, #1
 640 0136 0A93     		str	r3, [sp, #40]
 641              	.LVL88:
 267:.\DSP\Source\TransformFunctions/arm_cfft_radix2_q31.c ****       ia = 0;
 642              		.loc 1 267 0
 643 0138 0023     		movs	r3, #0
 644              	.LVL89:
 645 013a 1093     		str	r3, [sp, #64]
 268:.\DSP\Source\TransformFunctions/arm_cfft_radix2_q31.c **** 
 269:.\DSP\Source\TransformFunctions/arm_cfft_radix2_q31.c ****       // loop for groups
 270:.\DSP\Source\TransformFunctions/arm_cfft_radix2_q31.c ****       for (j = 0; j < n2; j++)
 646              		.loc 1 270 0
 647 013c 0E93     		str	r3, [sp, #56]
 648 013e 85E0     		b	.L16
 649              	.LVL90:
 650              	.L19:
 271:.\DSP\Source\TransformFunctions/arm_cfft_radix2_q31.c ****       {
 272:.\DSP\Source\TransformFunctions/arm_cfft_radix2_q31.c ****          cosVal = pCoef[ia * 2];
 651              		.loc 1 272 0
 652 0140 1299     		ldr	r1, [sp, #72]
 653 0142 109A     		ldr	r2, [sp, #64]
 654 0144 51F83290 		ldr	r9, [r1, r2, lsl #3]
 655              	.LVL91:
 273:.\DSP\Source\TransformFunctions/arm_cfft_radix2_q31.c ****          sinVal = pCoef[(ia * 2) + 1];
 656              		.loc 1 273 0
 657 0148 0B46     		mov	r3, r1
 658              	.LVL92:
 659 014a 03EBC203 		add	r3, r3, r2, lsl #3
 660 014e D3F80480 		ldr	r8, [r3, #4]
 661              	.LVL93:
 274:.\DSP\Source\TransformFunctions/arm_cfft_radix2_q31.c ****          ia = ia + twidCoefModifier;
 662              		.loc 1 274 0
 663 0152 119B     		ldr	r3, [sp, #68]
 664 0154 D318     		adds	r3, r2, r3
 665 0156 1093     		str	r3, [sp, #64]
 666              	.LVL94:
 275:.\DSP\Source\TransformFunctions/arm_cfft_radix2_q31.c **** 
 276:.\DSP\Source\TransformFunctions/arm_cfft_radix2_q31.c ****          // loop for butterfly
 277:.\DSP\Source\TransformFunctions/arm_cfft_radix2_q31.c ****          for (i = j; i < fftLen; i += n1)
 667              		.loc 1 277 0
 668 0158 DDF838E0 		ldr	lr, [sp, #56]
 669 015c 70E0     		b	.L17
 670              	.LVL95:
 671              	.L18:
 278:.\DSP\Source\TransformFunctions/arm_cfft_radix2_q31.c ****          {
 279:.\DSP\Source\TransformFunctions/arm_cfft_radix2_q31.c ****             l = i + n2;
 672              		.loc 1 279 0 discriminator 3
 673 015e 0A9B     		ldr	r3, [sp, #40]
 674 0160 0EEB0301 		add	r1, lr, r3
 675              	.LVL96:
 280:.\DSP\Source\TransformFunctions/arm_cfft_radix2_q31.c ****             xt = pSrc[2 * i] - pSrc[2 * l];
ARM GAS  C:\Users\IVYLIU~1\AppData\Local\Temp\cciEmTKc.s 			page 18


 676              		.loc 1 280 0 discriminator 3
 677 0164 4FEACE05 		lsl	r5, lr, #3
 678 0168 5CF83E40 		ldr	r4, [ip, lr, lsl #3]
 679 016c C800     		lsls	r0, r1, #3
 680 016e 5CF83120 		ldr	r2, [ip, r1, lsl #3]
 681 0172 A31A     		subs	r3, r4, r2
 682              	.LVL97:
 281:.\DSP\Source\TransformFunctions/arm_cfft_radix2_q31.c ****             pSrc[2 * i] = (pSrc[2 * i] + pSrc[2 * l]) >> 1U;
 683              		.loc 1 281 0 discriminator 3
 684 0174 2244     		add	r2, r2, r4
 685 0176 5210     		asrs	r2, r2, #1
 686 0178 4CF83E20 		str	r2, [ip, lr, lsl #3]
 282:.\DSP\Source\TransformFunctions/arm_cfft_radix2_q31.c **** 
 283:.\DSP\Source\TransformFunctions/arm_cfft_radix2_q31.c ****             yt = pSrc[2 * i + 1] - pSrc[2 * l + 1];
 687              		.loc 1 283 0 discriminator 3
 688 017c 0435     		adds	r5, r5, #4
 689 017e 5CF80560 		ldr	r6, [ip, r5]
 690 0182 0430     		adds	r0, r0, #4
 691 0184 5CF80040 		ldr	r4, [ip, r0]
 692 0188 321B     		subs	r2, r6, r4
 693              	.LVL98:
 284:.\DSP\Source\TransformFunctions/arm_cfft_radix2_q31.c ****             pSrc[2 * i + 1] = (pSrc[2 * l + 1] + pSrc[2 * i + 1]) >> 1U;
 694              		.loc 1 284 0 discriminator 3
 695 018a 3444     		add	r4, r4, r6
 696 018c 6410     		asrs	r4, r4, #1
 697 018e 4CF80540 		str	r4, [ip, r5]
 285:.\DSP\Source\TransformFunctions/arm_cfft_radix2_q31.c **** 
 286:.\DSP\Source\TransformFunctions/arm_cfft_radix2_q31.c ****             mult_32x32_keep32_R(p0, xt, cosVal);
 698              		.loc 1 286 0 discriminator 3
 699 0192 DD17     		asrs	r5, r3, #31
 700 0194 1E46     		mov	r6, r3
 701 0196 2F46     		mov	r7, r5
 702 0198 4C46     		mov	r4, r9
 703 019a E517     		asrs	r5, r4, #31
 704 019c 03FB05F4 		mul	r4, r3, r5
 705 01a0 CDE90467 		strd	r6, [sp, #16]
 706 01a4 09FB0744 		mla	r4, r9, r7, r4
 707 01a8 A3FB0967 		umull	r6, r7, r3, r9
 708 01ac 2744     		add	r7, r7, r4
 709 01ae 16F1004A 		adds	r10, r6, #-2147483648
 710 01b2 47F1000B 		adc	fp, r7, #0
 711              	.LVL99:
 287:.\DSP\Source\TransformFunctions/arm_cfft_radix2_q31.c ****             mult_32x32_keep32_R(p1, yt, cosVal);
 712              		.loc 1 287 0 discriminator 3
 713 01b6 1646     		mov	r6, r2
 714 01b8 D717     		asrs	r7, r2, #31
 715 01ba CDE90667 		strd	r6, [sp, #24]
 716 01be 09FB07F6 		mul	r6, r9, r7
 717 01c2 02FB0566 		mla	r6, r2, r5, r6
 718 01c6 A9FB0245 		umull	r4, r5, r9, r2
 719 01ca 3544     		add	r5, r5, r6
 720 01cc 14F10046 		adds	r6, r4, #-2147483648
 721 01d0 45F10007 		adc	r7, r5, #0
 722 01d4 CDE90867 		strd	r6, [sp, #32]
 723              	.LVL100:
 288:.\DSP\Source\TransformFunctions/arm_cfft_radix2_q31.c ****             multSub_32x32_keep32_R(p0, yt, sinVal);
 724              		.loc 1 288 0 discriminator 3
ARM GAS  C:\Users\IVYLIU~1\AppData\Local\Temp\cciEmTKc.s 			page 19


 725 01d8 CDF804B0 		str	fp, [sp, #4]
 726 01dc 0024     		movs	r4, #0
 727 01de 0094     		str	r4, [sp]
 728 01e0 4446     		mov	r4, r8
 729 01e2 E517     		asrs	r5, r4, #31
 730 01e4 02FB05F4 		mul	r4, r2, r5
 731 01e8 079E     		ldr	r6, [sp, #28]
 732 01ea 08FB0644 		mla	r4, r8, r6, r4
 733 01ee A2FB0867 		umull	r6, r7, r2, r8
 734 01f2 2744     		add	r7, r7, r4
 735 01f4 DDE900AB 		ldrd	r10, [sp]
 736 01f8 BAEB060A 		subs	r10, r10, r6
 737 01fc 6BEB070B 		sbc	fp, fp, r7
 738              	.LVL101:
 739 0200 5646     		mov	r6, r10
 740 0202 16F10046 		adds	r6, r6, #-2147483648
 741 0206 4BF10007 		adc	r7, fp, #0
 742              	.LVL102:
 289:.\DSP\Source\TransformFunctions/arm_cfft_radix2_q31.c ****             multAcc_32x32_keep32_R(p1, xt, sinVal);
 743              		.loc 1 289 0 discriminator 3
 744 020a 099A     		ldr	r2, [sp, #36]
 745              	.LVL103:
 746 020c 0392     		str	r2, [sp, #12]
 747 020e 0022     		movs	r2, #0
 748 0210 0292     		str	r2, [sp, #8]
 749 0212 03FB05F4 		mul	r4, r3, r5
 750 0216 059A     		ldr	r2, [sp, #20]
 751 0218 08FB0244 		mla	r4, r8, r2, r4
 752 021c A3FB0823 		umull	r2, r3, r3, r8
 753 0220 2344     		add	r3, r3, r4
 754              	.LVL104:
 755 0222 DDE90245 		ldrd	r4, [sp, #8]
 756 0226 A418     		adds	r4, r4, r2
 757 0228 5D41     		adcs	r5, r5, r3
 758 022a 2246     		mov	r2, r4
 759 022c 12F10042 		adds	r2, r2, #-2147483648
 760 0230 45F10003 		adc	r3, r5, #0
 761              	.LVL105:
 290:.\DSP\Source\TransformFunctions/arm_cfft_radix2_q31.c **** 
 291:.\DSP\Source\TransformFunctions/arm_cfft_radix2_q31.c ****             pSrc[2U * l] = p0;
 762              		.loc 1 291 0 discriminator 3
 763 0234 4CF83170 		str	r7, [ip, r1, lsl #3]
 292:.\DSP\Source\TransformFunctions/arm_cfft_radix2_q31.c ****             pSrc[2U * l + 1U] = p1;
 764              		.loc 1 292 0 discriminator 3
 765 0238 4CF80030 		str	r3, [ip, r0]
 277:.\DSP\Source\TransformFunctions/arm_cfft_radix2_q31.c ****          {
 766              		.loc 1 277 0 discriminator 3
 767 023c 0D9B     		ldr	r3, [sp, #52]
 768              	.LVL106:
 769 023e 9E44     		add	lr, lr, r3
 770              	.LVL107:
 771              	.L17:
 277:.\DSP\Source\TransformFunctions/arm_cfft_radix2_q31.c ****          {
 772              		.loc 1 277 0 is_stmt 0 discriminator 1
 773 0240 0C9B     		ldr	r3, [sp, #48]
 774 0242 9E45     		cmp	lr, r3
 775 0244 8BD3     		bcc	.L18
ARM GAS  C:\Users\IVYLIU~1\AppData\Local\Temp\cciEmTKc.s 			page 20


 270:.\DSP\Source\TransformFunctions/arm_cfft_radix2_q31.c ****       {
 776              		.loc 1 270 0 is_stmt 1 discriminator 2
 777 0246 0E9B     		ldr	r3, [sp, #56]
 778 0248 0133     		adds	r3, r3, #1
 779 024a 0E93     		str	r3, [sp, #56]
 780              	.LVL108:
 781              	.L16:
 270:.\DSP\Source\TransformFunctions/arm_cfft_radix2_q31.c ****       {
 782              		.loc 1 270 0 is_stmt 0 discriminator 1
 783 024c 0E9B     		ldr	r3, [sp, #56]
 784 024e 0A9A     		ldr	r2, [sp, #40]
 785 0250 9342     		cmp	r3, r2
 786 0252 FFF475AF 		bcc	.L19
 293:.\DSP\Source\TransformFunctions/arm_cfft_radix2_q31.c ****          }                         // butterfly loop end
 294:.\DSP\Source\TransformFunctions/arm_cfft_radix2_q31.c **** 
 295:.\DSP\Source\TransformFunctions/arm_cfft_radix2_q31.c ****       }                           // groups loop end
 296:.\DSP\Source\TransformFunctions/arm_cfft_radix2_q31.c **** 
 297:.\DSP\Source\TransformFunctions/arm_cfft_radix2_q31.c ****       twidCoefModifier = twidCoefModifier << 1U;
 787              		.loc 1 297 0 is_stmt 1 discriminator 2
 788 0256 119B     		ldr	r3, [sp, #68]
 789 0258 5B00     		lsls	r3, r3, #1
 790              	.LVL109:
 791 025a 9BB2     		uxth	r3, r3
 792 025c 1193     		str	r3, [sp, #68]
 263:.\DSP\Source\TransformFunctions/arm_cfft_radix2_q31.c ****    {
 793              		.loc 1 263 0 discriminator 2
 794 025e 139B     		ldr	r3, [sp, #76]
 795              	.LVL110:
 796 0260 5B08     		lsrs	r3, r3, #1
 797 0262 1393     		str	r3, [sp, #76]
 798              	.LVL111:
 266:.\DSP\Source\TransformFunctions/arm_cfft_radix2_q31.c ****       ia = 0;
 799              		.loc 1 266 0 discriminator 2
 800 0264 0D92     		str	r2, [sp, #52]
 801              	.LVL112:
 802              	.L15:
 263:.\DSP\Source\TransformFunctions/arm_cfft_radix2_q31.c ****    {
 803              		.loc 1 263 0 discriminator 1
 804 0266 139B     		ldr	r3, [sp, #76]
 805 0268 022B     		cmp	r3, #2
 806 026a 3FF662AF 		bhi	.L20
 807              	.LVL113:
 298:.\DSP\Source\TransformFunctions/arm_cfft_radix2_q31.c ****    }                             // stages loop end
 299:.\DSP\Source\TransformFunctions/arm_cfft_radix2_q31.c **** 
 300:.\DSP\Source\TransformFunctions/arm_cfft_radix2_q31.c ****    n1 = n2;
 301:.\DSP\Source\TransformFunctions/arm_cfft_radix2_q31.c ****    n2 = n2 >> 1;
 808              		.loc 1 301 0
 809 026e 0D9B     		ldr	r3, [sp, #52]
 810 0270 5908     		lsrs	r1, r3, #1
 811              	.LVL114:
 302:.\DSP\Source\TransformFunctions/arm_cfft_radix2_q31.c ****    ia = 0;
 303:.\DSP\Source\TransformFunctions/arm_cfft_radix2_q31.c **** 
 304:.\DSP\Source\TransformFunctions/arm_cfft_radix2_q31.c ****    cosVal = pCoef[ia * 2];
 305:.\DSP\Source\TransformFunctions/arm_cfft_radix2_q31.c ****    sinVal = pCoef[(ia * 2) + 1];
 306:.\DSP\Source\TransformFunctions/arm_cfft_radix2_q31.c ****    ia = ia + twidCoefModifier;
 307:.\DSP\Source\TransformFunctions/arm_cfft_radix2_q31.c **** 
 308:.\DSP\Source\TransformFunctions/arm_cfft_radix2_q31.c ****    // loop for butterfly
ARM GAS  C:\Users\IVYLIU~1\AppData\Local\Temp\cciEmTKc.s 			page 21


 309:.\DSP\Source\TransformFunctions/arm_cfft_radix2_q31.c ****    for (i = 0; i < fftLen; i += n1)
 812              		.loc 1 309 0
 813 0272 0020     		movs	r0, #0
 814 0274 1E46     		mov	r6, r3
 815 0276 0C9F     		ldr	r7, [sp, #48]
 816 0278 37E0     		b	.L21
 817              	.LVL115:
 818              	.L22:
 310:.\DSP\Source\TransformFunctions/arm_cfft_radix2_q31.c ****    {
 311:.\DSP\Source\TransformFunctions/arm_cfft_radix2_q31.c ****       l = i + n2;
 819              		.loc 1 311 0 discriminator 3
 820 027a 4518     		adds	r5, r0, r1
 821              	.LVL116:
 312:.\DSP\Source\TransformFunctions/arm_cfft_radix2_q31.c ****       xt = pSrc[2 * i] - pSrc[2 * l];
 822              		.loc 1 312 0 discriminator 3
 823 027c C200     		lsls	r2, r0, #3
 824 027e 5CF83080 		ldr	r8, [ip, r0, lsl #3]
 825 0282 EB00     		lsls	r3, r5, #3
 826 0284 5CF83540 		ldr	r4, [ip, r5, lsl #3]
 827 0288 C4EB080E 		rsb	lr, r4, r8
 828              	.LVL117:
 313:.\DSP\Source\TransformFunctions/arm_cfft_radix2_q31.c ****       pSrc[2 * i] = (pSrc[2 * i] + pSrc[2 * l]);
 829              		.loc 1 313 0 discriminator 3
 830 028c 4444     		add	r4, r4, r8
 831 028e 4CF83040 		str	r4, [ip, r0, lsl #3]
 314:.\DSP\Source\TransformFunctions/arm_cfft_radix2_q31.c **** 
 315:.\DSP\Source\TransformFunctions/arm_cfft_radix2_q31.c ****       yt = pSrc[2 * i + 1] - pSrc[2 * l + 1];
 832              		.loc 1 315 0 discriminator 3
 833 0292 0432     		adds	r2, r2, #4
 834 0294 5CF80280 		ldr	r8, [ip, r2]
 835 0298 0433     		adds	r3, r3, #4
 836 029a 5CF80340 		ldr	r4, [ip, r3]
 837 029e C4EB0809 		rsb	r9, r4, r8
 838              	.LVL118:
 316:.\DSP\Source\TransformFunctions/arm_cfft_radix2_q31.c ****       pSrc[2 * i + 1] = (pSrc[2 * l + 1] + pSrc[2 * i + 1]);
 839              		.loc 1 316 0 discriminator 3
 840 02a2 4444     		add	r4, r4, r8
 841 02a4 4CF80240 		str	r4, [ip, r2]
 317:.\DSP\Source\TransformFunctions/arm_cfft_radix2_q31.c **** 
 318:.\DSP\Source\TransformFunctions/arm_cfft_radix2_q31.c ****       pSrc[2U * l] = xt;
 842              		.loc 1 318 0 discriminator 3
 843 02a8 4CF835E0 		str	lr, [ip, r5, lsl #3]
 319:.\DSP\Source\TransformFunctions/arm_cfft_radix2_q31.c **** 
 320:.\DSP\Source\TransformFunctions/arm_cfft_radix2_q31.c ****       pSrc[2U * l + 1U] = yt;
 844              		.loc 1 320 0 discriminator 3
 845 02ac 4CF80390 		str	r9, [ip, r3]
 321:.\DSP\Source\TransformFunctions/arm_cfft_radix2_q31.c **** 
 322:.\DSP\Source\TransformFunctions/arm_cfft_radix2_q31.c ****       i += n1;
 846              		.loc 1 322 0 discriminator 3
 847 02b0 3044     		add	r0, r0, r6
 848              	.LVL119:
 323:.\DSP\Source\TransformFunctions/arm_cfft_radix2_q31.c ****       l = i + n2;
 849              		.loc 1 323 0 discriminator 3
 850 02b2 4518     		adds	r5, r0, r1
 851              	.LVL120:
 324:.\DSP\Source\TransformFunctions/arm_cfft_radix2_q31.c **** 
 325:.\DSP\Source\TransformFunctions/arm_cfft_radix2_q31.c ****       xt = pSrc[2 * i] - pSrc[2 * l];
ARM GAS  C:\Users\IVYLIU~1\AppData\Local\Temp\cciEmTKc.s 			page 22


 852              		.loc 1 325 0 discriminator 3
 853 02b4 C200     		lsls	r2, r0, #3
 854 02b6 5CF83080 		ldr	r8, [ip, r0, lsl #3]
 855 02ba EB00     		lsls	r3, r5, #3
 856 02bc 5CF83540 		ldr	r4, [ip, r5, lsl #3]
 857 02c0 C4EB080E 		rsb	lr, r4, r8
 858              	.LVL121:
 326:.\DSP\Source\TransformFunctions/arm_cfft_radix2_q31.c ****       pSrc[2 * i] = (pSrc[2 * i] + pSrc[2 * l]);
 859              		.loc 1 326 0 discriminator 3
 860 02c4 4444     		add	r4, r4, r8
 861 02c6 4CF83040 		str	r4, [ip, r0, lsl #3]
 327:.\DSP\Source\TransformFunctions/arm_cfft_radix2_q31.c **** 
 328:.\DSP\Source\TransformFunctions/arm_cfft_radix2_q31.c ****       yt = pSrc[2 * i + 1] - pSrc[2 * l + 1];
 862              		.loc 1 328 0 discriminator 3
 863 02ca 0432     		adds	r2, r2, #4
 864 02cc 5CF80280 		ldr	r8, [ip, r2]
 865 02d0 0433     		adds	r3, r3, #4
 866 02d2 5CF80340 		ldr	r4, [ip, r3]
 867 02d6 C4EB0809 		rsb	r9, r4, r8
 868              	.LVL122:
 329:.\DSP\Source\TransformFunctions/arm_cfft_radix2_q31.c ****       pSrc[2 * i + 1] = (pSrc[2 * l + 1] + pSrc[2 * i + 1]);
 869              		.loc 1 329 0 discriminator 3
 870 02da 4444     		add	r4, r4, r8
 871 02dc 4CF80240 		str	r4, [ip, r2]
 330:.\DSP\Source\TransformFunctions/arm_cfft_radix2_q31.c **** 
 331:.\DSP\Source\TransformFunctions/arm_cfft_radix2_q31.c ****       pSrc[2U * l] = xt;
 872              		.loc 1 331 0 discriminator 3
 873 02e0 4CF835E0 		str	lr, [ip, r5, lsl #3]
 332:.\DSP\Source\TransformFunctions/arm_cfft_radix2_q31.c **** 
 333:.\DSP\Source\TransformFunctions/arm_cfft_radix2_q31.c ****       pSrc[2U * l + 1U] = yt;
 874              		.loc 1 333 0 discriminator 3
 875 02e4 4CF80390 		str	r9, [ip, r3]
 309:.\DSP\Source\TransformFunctions/arm_cfft_radix2_q31.c ****    {
 876              		.loc 1 309 0 discriminator 3
 877 02e8 3044     		add	r0, r0, r6
 878              	.LVL123:
 879              	.L21:
 309:.\DSP\Source\TransformFunctions/arm_cfft_radix2_q31.c ****    {
 880              		.loc 1 309 0 is_stmt 0 discriminator 1
 881 02ea B842     		cmp	r0, r7
 882 02ec C5D3     		bcc	.L22
 334:.\DSP\Source\TransformFunctions/arm_cfft_radix2_q31.c **** 
 335:.\DSP\Source\TransformFunctions/arm_cfft_radix2_q31.c ****    }                             // butterfly loop end
 336:.\DSP\Source\TransformFunctions/arm_cfft_radix2_q31.c **** 
 337:.\DSP\Source\TransformFunctions/arm_cfft_radix2_q31.c **** }
 883              		.loc 1 337 0 is_stmt 1
 884 02ee 15B0     		add	sp, sp, #84
 885              		.cfi_def_cfa_offset 36
 886              		@ sp needed
 887 02f0 BDE8F08F 		pop	{r4, r5, r6, r7, r8, r9, r10, fp, pc}
 888              		.cfi_endproc
 889              	.LFE86:
 890              		.size	arm_radix2_butterfly_inverse_q31, .-arm_radix2_butterfly_inverse_q31
 891              		.section	.text.arm_cfft_radix2_q31,"ax",%progbits
 892              		.align	2
 893              		.global	arm_cfft_radix2_q31
 894              		.thumb
ARM GAS  C:\Users\IVYLIU~1\AppData\Local\Temp\cciEmTKc.s 			page 23


 895              		.thumb_func
 896              		.type	arm_cfft_radix2_q31, %function
 897              	arm_cfft_radix2_q31:
 898              	.LFB84:
  69:.\DSP\Source\TransformFunctions/arm_cfft_radix2_q31.c **** 
 899              		.loc 1 69 0
 900              		.cfi_startproc
 901              		@ args = 0, pretend = 0, frame = 0
 902              		@ frame_needed = 0, uses_anonymous_args = 0
 903              	.LVL124:
 904 0000 38B5     		push	{r3, r4, r5, lr}
 905              		.cfi_def_cfa_offset 16
 906              		.cfi_offset 3, -16
 907              		.cfi_offset 4, -12
 908              		.cfi_offset 5, -8
 909              		.cfi_offset 14, -4
 910 0002 0446     		mov	r4, r0
 911 0004 0D46     		mov	r5, r1
  71:.\DSP\Source\TransformFunctions/arm_cfft_radix2_q31.c ****    {
 912              		.loc 1 71 0
 913 0006 8378     		ldrb	r3, [r0, #2]	@ zero_extendqisi2
 914 0008 012B     		cmp	r3, #1
 915 000a 06D1     		bne	.L25
  73:.\DSP\Source\TransformFunctions/arm_cfft_radix2_q31.c ****       S->pTwiddle, S->twidCoefModifier);
 916              		.loc 1 73 0
 917 000c 0846     		mov	r0, r1
 918              	.LVL125:
 919 000e 2188     		ldrh	r1, [r4]
 920              	.LVL126:
 921 0010 6268     		ldr	r2, [r4, #4]
 922 0012 A389     		ldrh	r3, [r4, #12]
 923 0014 FFF7FEFF 		bl	arm_radix2_butterfly_inverse_q31
 924              	.LVL127:
 925 0018 05E0     		b	.L26
 926              	.LVL128:
 927              	.L25:
  78:.\DSP\Source\TransformFunctions/arm_cfft_radix2_q31.c ****       S->pTwiddle, S->twidCoefModifier);
 928              		.loc 1 78 0
 929 001a 0846     		mov	r0, r1
 930              	.LVL129:
 931 001c 2188     		ldrh	r1, [r4]
 932              	.LVL130:
 933 001e 6268     		ldr	r2, [r4, #4]
 934 0020 A389     		ldrh	r3, [r4, #12]
 935 0022 FFF7FEFF 		bl	arm_radix2_butterfly_q31
 936              	.LVL131:
 937              	.L26:
  82:.\DSP\Source\TransformFunctions/arm_cfft_radix2_q31.c **** }
 938              		.loc 1 82 0
 939 0026 2846     		mov	r0, r5
 940 0028 2188     		ldrh	r1, [r4]
 941 002a E289     		ldrh	r2, [r4, #14]
 942 002c A368     		ldr	r3, [r4, #8]
 943 002e FFF7FEFF 		bl	arm_bitreversal_q31
 944              	.LVL132:
 945 0032 38BD     		pop	{r3, r4, r5, pc}
 946              		.cfi_endproc
ARM GAS  C:\Users\IVYLIU~1\AppData\Local\Temp\cciEmTKc.s 			page 24


 947              	.LFE84:
 948              		.size	arm_cfft_radix2_q31, .-arm_cfft_radix2_q31
 949              		.text
 950              	.Letext0:
 951              		.file 2 "c:\\program files (x86)\\cypress\\psoc creator\\3.3\\psoc creator\\import\\gnu\\arm\\4.9.
 952              		.file 3 "c:\\program files (x86)\\cypress\\psoc creator\\3.3\\psoc creator\\import\\gnu\\arm\\4.9.
 953              		.file 4 ".\\DSP\\Include/arm_math_types.h"
 954              		.file 5 ".\\DSP\\Include/dsp/transform_functions.h"
 955              		.file 6 ".\\Core\\Include/cmsis_gcc.h"