ARM GAS  C:\Users\IVYLIU~1\AppData\Local\Temp\cc7OrJGM.s 			page 1


   1              		.syntax unified
   2              		.cpu cortex-m3
   3              		.fpu softvfp
   4              		.eabi_attribute 20, 1
   5              		.eabi_attribute 21, 1
   6              		.eabi_attribute 23, 3
   7              		.eabi_attribute 24, 1
   8              		.eabi_attribute 25, 1
   9              		.eabi_attribute 26, 1
  10              		.eabi_attribute 30, 1
  11              		.eabi_attribute 34, 1
  12              		.eabi_attribute 18, 4
  13              		.thumb
  14              		.file	"arm_cmplx_conj_q31.c"
  15              		.text
  16              	.Ltext0:
  17              		.cfi_sections	.debug_frame
  18              		.section	.text.arm_cmplx_conj_q31,"ax",%progbits
  19              		.align	2
  20              		.global	arm_cmplx_conj_q31
  21              		.thumb
  22              		.thumb_func
  23              		.type	arm_cmplx_conj_q31, %function
  24              	arm_cmplx_conj_q31:
  25              	.LFB84:
  26              		.file 1 ".\\DSP\\Source\\ComplexMathFunctions\\arm_cmplx_conj_q31.c"
   1:.\DSP\Source\ComplexMathFunctions/arm_cmplx_conj_q31.c **** /* ----------------------------------------------------------------------
   2:.\DSP\Source\ComplexMathFunctions/arm_cmplx_conj_q31.c ****  * Project:      CMSIS DSP Library
   3:.\DSP\Source\ComplexMathFunctions/arm_cmplx_conj_q31.c ****  * Title:        arm_cmplx_conj_q31.c
   4:.\DSP\Source\ComplexMathFunctions/arm_cmplx_conj_q31.c ****  * Description:  Q31 complex conjugate
   5:.\DSP\Source\ComplexMathFunctions/arm_cmplx_conj_q31.c ****  *
   6:.\DSP\Source\ComplexMathFunctions/arm_cmplx_conj_q31.c ****  * $Date:        23 April 2021
   7:.\DSP\Source\ComplexMathFunctions/arm_cmplx_conj_q31.c ****  * $Revision:    V1.9.0
   8:.\DSP\Source\ComplexMathFunctions/arm_cmplx_conj_q31.c ****  *
   9:.\DSP\Source\ComplexMathFunctions/arm_cmplx_conj_q31.c ****  * Target Processor: Cortex-M and Cortex-A cores
  10:.\DSP\Source\ComplexMathFunctions/arm_cmplx_conj_q31.c ****  * -------------------------------------------------------------------- */
  11:.\DSP\Source\ComplexMathFunctions/arm_cmplx_conj_q31.c **** /*
  12:.\DSP\Source\ComplexMathFunctions/arm_cmplx_conj_q31.c ****  * Copyright (C) 2010-2021 ARM Limited or its affiliates. All rights reserved.
  13:.\DSP\Source\ComplexMathFunctions/arm_cmplx_conj_q31.c ****  *
  14:.\DSP\Source\ComplexMathFunctions/arm_cmplx_conj_q31.c ****  * SPDX-License-Identifier: Apache-2.0
  15:.\DSP\Source\ComplexMathFunctions/arm_cmplx_conj_q31.c ****  *
  16:.\DSP\Source\ComplexMathFunctions/arm_cmplx_conj_q31.c ****  * Licensed under the Apache License, Version 2.0 (the License); you may
  17:.\DSP\Source\ComplexMathFunctions/arm_cmplx_conj_q31.c ****  * not use this file except in compliance with the License.
  18:.\DSP\Source\ComplexMathFunctions/arm_cmplx_conj_q31.c ****  * You may obtain a copy of the License at
  19:.\DSP\Source\ComplexMathFunctions/arm_cmplx_conj_q31.c ****  *
  20:.\DSP\Source\ComplexMathFunctions/arm_cmplx_conj_q31.c ****  * www.apache.org/licenses/LICENSE-2.0
  21:.\DSP\Source\ComplexMathFunctions/arm_cmplx_conj_q31.c ****  *
  22:.\DSP\Source\ComplexMathFunctions/arm_cmplx_conj_q31.c ****  * Unless required by applicable law or agreed to in writing, software
  23:.\DSP\Source\ComplexMathFunctions/arm_cmplx_conj_q31.c ****  * distributed under the License is distributed on an AS IS BASIS, WITHOUT
  24:.\DSP\Source\ComplexMathFunctions/arm_cmplx_conj_q31.c ****  * WARRANTIES OR CONDITIONS OF ANY KIND, either express or implied.
  25:.\DSP\Source\ComplexMathFunctions/arm_cmplx_conj_q31.c ****  * See the License for the specific language governing permissions and
  26:.\DSP\Source\ComplexMathFunctions/arm_cmplx_conj_q31.c ****  * limitations under the License.
  27:.\DSP\Source\ComplexMathFunctions/arm_cmplx_conj_q31.c ****  */
  28:.\DSP\Source\ComplexMathFunctions/arm_cmplx_conj_q31.c **** 
  29:.\DSP\Source\ComplexMathFunctions/arm_cmplx_conj_q31.c **** #include "dsp/complex_math_functions.h"
  30:.\DSP\Source\ComplexMathFunctions/arm_cmplx_conj_q31.c **** 
  31:.\DSP\Source\ComplexMathFunctions/arm_cmplx_conj_q31.c **** /**
ARM GAS  C:\Users\IVYLIU~1\AppData\Local\Temp\cc7OrJGM.s 			page 2


  32:.\DSP\Source\ComplexMathFunctions/arm_cmplx_conj_q31.c ****   @ingroup groupCmplxMath
  33:.\DSP\Source\ComplexMathFunctions/arm_cmplx_conj_q31.c ****  */
  34:.\DSP\Source\ComplexMathFunctions/arm_cmplx_conj_q31.c **** 
  35:.\DSP\Source\ComplexMathFunctions/arm_cmplx_conj_q31.c **** /**
  36:.\DSP\Source\ComplexMathFunctions/arm_cmplx_conj_q31.c ****   @addtogroup cmplx_conj
  37:.\DSP\Source\ComplexMathFunctions/arm_cmplx_conj_q31.c ****   @{
  38:.\DSP\Source\ComplexMathFunctions/arm_cmplx_conj_q31.c ****  */
  39:.\DSP\Source\ComplexMathFunctions/arm_cmplx_conj_q31.c **** 
  40:.\DSP\Source\ComplexMathFunctions/arm_cmplx_conj_q31.c **** /**
  41:.\DSP\Source\ComplexMathFunctions/arm_cmplx_conj_q31.c ****   @brief         Q31 complex conjugate.
  42:.\DSP\Source\ComplexMathFunctions/arm_cmplx_conj_q31.c ****   @param[in]     pSrc        points to the input vector
  43:.\DSP\Source\ComplexMathFunctions/arm_cmplx_conj_q31.c ****   @param[out]    pDst        points to the output vector
  44:.\DSP\Source\ComplexMathFunctions/arm_cmplx_conj_q31.c ****   @param[in]     numSamples  number of samples in each vector
  45:.\DSP\Source\ComplexMathFunctions/arm_cmplx_conj_q31.c ****   @return        none
  46:.\DSP\Source\ComplexMathFunctions/arm_cmplx_conj_q31.c **** 
  47:.\DSP\Source\ComplexMathFunctions/arm_cmplx_conj_q31.c ****   @par           Scaling and Overflow Behavior
  48:.\DSP\Source\ComplexMathFunctions/arm_cmplx_conj_q31.c ****                    The function uses saturating arithmetic.
  49:.\DSP\Source\ComplexMathFunctions/arm_cmplx_conj_q31.c ****                    The Q31 value -1 (0x80000000) is saturated to the maximum allowable positive val
  50:.\DSP\Source\ComplexMathFunctions/arm_cmplx_conj_q31.c ****  */
  51:.\DSP\Source\ComplexMathFunctions/arm_cmplx_conj_q31.c **** 
  52:.\DSP\Source\ComplexMathFunctions/arm_cmplx_conj_q31.c **** #if defined(ARM_MATH_MVEI) && !defined(ARM_MATH_AUTOVECTORIZE)
  53:.\DSP\Source\ComplexMathFunctions/arm_cmplx_conj_q31.c **** 
  54:.\DSP\Source\ComplexMathFunctions/arm_cmplx_conj_q31.c **** void arm_cmplx_conj_q31(
  55:.\DSP\Source\ComplexMathFunctions/arm_cmplx_conj_q31.c ****   const q31_t * pSrc,
  56:.\DSP\Source\ComplexMathFunctions/arm_cmplx_conj_q31.c ****         q31_t * pDst,
  57:.\DSP\Source\ComplexMathFunctions/arm_cmplx_conj_q31.c ****         uint32_t numSamples)
  58:.\DSP\Source\ComplexMathFunctions/arm_cmplx_conj_q31.c **** {
  59:.\DSP\Source\ComplexMathFunctions/arm_cmplx_conj_q31.c **** 
  60:.\DSP\Source\ComplexMathFunctions/arm_cmplx_conj_q31.c ****     uint32_t blockSize = numSamples * CMPLX_DIM;   /* loop counters */
  61:.\DSP\Source\ComplexMathFunctions/arm_cmplx_conj_q31.c ****     uint32_t blkCnt;
  62:.\DSP\Source\ComplexMathFunctions/arm_cmplx_conj_q31.c ****     q31x4x2_t vecSrc;
  63:.\DSP\Source\ComplexMathFunctions/arm_cmplx_conj_q31.c ****     q31_t in;                                      /* Temporary input variable */
  64:.\DSP\Source\ComplexMathFunctions/arm_cmplx_conj_q31.c ****     q31x4_t zero;
  65:.\DSP\Source\ComplexMathFunctions/arm_cmplx_conj_q31.c **** 
  66:.\DSP\Source\ComplexMathFunctions/arm_cmplx_conj_q31.c ****     zero = vdupq_n_s32(0);
  67:.\DSP\Source\ComplexMathFunctions/arm_cmplx_conj_q31.c **** 
  68:.\DSP\Source\ComplexMathFunctions/arm_cmplx_conj_q31.c ****    
  69:.\DSP\Source\ComplexMathFunctions/arm_cmplx_conj_q31.c ****     /* Compute 4 real samples at a time */
  70:.\DSP\Source\ComplexMathFunctions/arm_cmplx_conj_q31.c ****     blkCnt = blockSize >> 3U;
  71:.\DSP\Source\ComplexMathFunctions/arm_cmplx_conj_q31.c **** 
  72:.\DSP\Source\ComplexMathFunctions/arm_cmplx_conj_q31.c ****     while (blkCnt > 0U)
  73:.\DSP\Source\ComplexMathFunctions/arm_cmplx_conj_q31.c ****     {
  74:.\DSP\Source\ComplexMathFunctions/arm_cmplx_conj_q31.c **** 
  75:.\DSP\Source\ComplexMathFunctions/arm_cmplx_conj_q31.c ****         vecSrc = vld2q(pSrc);
  76:.\DSP\Source\ComplexMathFunctions/arm_cmplx_conj_q31.c ****         vecSrc.val[1] = vqsubq(zero, vecSrc.val[1]);
  77:.\DSP\Source\ComplexMathFunctions/arm_cmplx_conj_q31.c ****         vst2q(pDst,vecSrc);
  78:.\DSP\Source\ComplexMathFunctions/arm_cmplx_conj_q31.c ****         /*
  79:.\DSP\Source\ComplexMathFunctions/arm_cmplx_conj_q31.c ****          * Decrement the blkCnt loop counter
  80:.\DSP\Source\ComplexMathFunctions/arm_cmplx_conj_q31.c ****          * Advance vector source and destination pointers
  81:.\DSP\Source\ComplexMathFunctions/arm_cmplx_conj_q31.c ****          */
  82:.\DSP\Source\ComplexMathFunctions/arm_cmplx_conj_q31.c ****         pSrc += 8;
  83:.\DSP\Source\ComplexMathFunctions/arm_cmplx_conj_q31.c ****         pDst += 8;
  84:.\DSP\Source\ComplexMathFunctions/arm_cmplx_conj_q31.c ****         blkCnt --;
  85:.\DSP\Source\ComplexMathFunctions/arm_cmplx_conj_q31.c ****     }
  86:.\DSP\Source\ComplexMathFunctions/arm_cmplx_conj_q31.c **** 
  87:.\DSP\Source\ComplexMathFunctions/arm_cmplx_conj_q31.c ****      /* Tail */
  88:.\DSP\Source\ComplexMathFunctions/arm_cmplx_conj_q31.c ****     blkCnt = (blockSize & 0x7) >> 1;
ARM GAS  C:\Users\IVYLIU~1\AppData\Local\Temp\cc7OrJGM.s 			page 3


  89:.\DSP\Source\ComplexMathFunctions/arm_cmplx_conj_q31.c **** 
  90:.\DSP\Source\ComplexMathFunctions/arm_cmplx_conj_q31.c ****     while (blkCnt > 0U)
  91:.\DSP\Source\ComplexMathFunctions/arm_cmplx_conj_q31.c ****     {
  92:.\DSP\Source\ComplexMathFunctions/arm_cmplx_conj_q31.c ****       /* C[0] + jC[1] = A[0]+ j(-1)A[1] */
  93:.\DSP\Source\ComplexMathFunctions/arm_cmplx_conj_q31.c ****   
  94:.\DSP\Source\ComplexMathFunctions/arm_cmplx_conj_q31.c ****       /* Calculate Complex Conjugate and store result in destination buffer. */
  95:.\DSP\Source\ComplexMathFunctions/arm_cmplx_conj_q31.c ****       *pDst++ =  *pSrc++;
  96:.\DSP\Source\ComplexMathFunctions/arm_cmplx_conj_q31.c ****       in = *pSrc++;
  97:.\DSP\Source\ComplexMathFunctions/arm_cmplx_conj_q31.c ****       *pDst++ = __QSUB(0, in);
  98:.\DSP\Source\ComplexMathFunctions/arm_cmplx_conj_q31.c ****   
  99:.\DSP\Source\ComplexMathFunctions/arm_cmplx_conj_q31.c ****       /* Decrement loop counter */
 100:.\DSP\Source\ComplexMathFunctions/arm_cmplx_conj_q31.c ****       blkCnt--;
 101:.\DSP\Source\ComplexMathFunctions/arm_cmplx_conj_q31.c ****     }
 102:.\DSP\Source\ComplexMathFunctions/arm_cmplx_conj_q31.c **** 
 103:.\DSP\Source\ComplexMathFunctions/arm_cmplx_conj_q31.c **** 
 104:.\DSP\Source\ComplexMathFunctions/arm_cmplx_conj_q31.c **** }
 105:.\DSP\Source\ComplexMathFunctions/arm_cmplx_conj_q31.c **** #else
 106:.\DSP\Source\ComplexMathFunctions/arm_cmplx_conj_q31.c **** 
 107:.\DSP\Source\ComplexMathFunctions/arm_cmplx_conj_q31.c **** void arm_cmplx_conj_q31(
 108:.\DSP\Source\ComplexMathFunctions/arm_cmplx_conj_q31.c ****   const q31_t * pSrc,
 109:.\DSP\Source\ComplexMathFunctions/arm_cmplx_conj_q31.c ****         q31_t * pDst,
 110:.\DSP\Source\ComplexMathFunctions/arm_cmplx_conj_q31.c ****         uint32_t numSamples)
 111:.\DSP\Source\ComplexMathFunctions/arm_cmplx_conj_q31.c **** {
  27              		.loc 1 111 0
  28              		.cfi_startproc
  29              		@ args = 0, pretend = 0, frame = 0
  30              		@ frame_needed = 0, uses_anonymous_args = 0
  31              		@ link register save eliminated.
  32              	.LVL0:
  33 0000 30B4     		push	{r4, r5}
  34              		.cfi_def_cfa_offset 8
  35              		.cfi_offset 4, -8
  36              		.cfi_offset 5, -4
  37              	.LVL1:
 112:.\DSP\Source\ComplexMathFunctions/arm_cmplx_conj_q31.c ****         uint32_t blkCnt;                               /* Loop counter */
 113:.\DSP\Source\ComplexMathFunctions/arm_cmplx_conj_q31.c ****         q31_t in;                                      /* Temporary input variable */
 114:.\DSP\Source\ComplexMathFunctions/arm_cmplx_conj_q31.c **** 
 115:.\DSP\Source\ComplexMathFunctions/arm_cmplx_conj_q31.c **** #if defined (ARM_MATH_LOOPUNROLL)
 116:.\DSP\Source\ComplexMathFunctions/arm_cmplx_conj_q31.c **** 
 117:.\DSP\Source\ComplexMathFunctions/arm_cmplx_conj_q31.c ****   /* Loop unrolling: Compute 4 outputs at a time */
 118:.\DSP\Source\ComplexMathFunctions/arm_cmplx_conj_q31.c ****   blkCnt = numSamples >> 2U;
 119:.\DSP\Source\ComplexMathFunctions/arm_cmplx_conj_q31.c **** 
 120:.\DSP\Source\ComplexMathFunctions/arm_cmplx_conj_q31.c ****   while (blkCnt > 0U)
 121:.\DSP\Source\ComplexMathFunctions/arm_cmplx_conj_q31.c ****   {
 122:.\DSP\Source\ComplexMathFunctions/arm_cmplx_conj_q31.c ****     /* C[0] + jC[1] = A[0]+ j(-1)A[1] */
 123:.\DSP\Source\ComplexMathFunctions/arm_cmplx_conj_q31.c **** 
 124:.\DSP\Source\ComplexMathFunctions/arm_cmplx_conj_q31.c ****     /* Calculate Complex Conjugate and store result in destination buffer. */
 125:.\DSP\Source\ComplexMathFunctions/arm_cmplx_conj_q31.c ****     *pDst++ =  *pSrc++;
 126:.\DSP\Source\ComplexMathFunctions/arm_cmplx_conj_q31.c ****     in = *pSrc++;
 127:.\DSP\Source\ComplexMathFunctions/arm_cmplx_conj_q31.c **** #if defined (ARM_MATH_DSP)
 128:.\DSP\Source\ComplexMathFunctions/arm_cmplx_conj_q31.c ****     *pDst++ = __QSUB(0, in);
 129:.\DSP\Source\ComplexMathFunctions/arm_cmplx_conj_q31.c **** #else
 130:.\DSP\Source\ComplexMathFunctions/arm_cmplx_conj_q31.c ****     *pDst++ = (in == INT32_MIN) ? INT32_MAX : -in;
 131:.\DSP\Source\ComplexMathFunctions/arm_cmplx_conj_q31.c **** #endif
 132:.\DSP\Source\ComplexMathFunctions/arm_cmplx_conj_q31.c **** 
 133:.\DSP\Source\ComplexMathFunctions/arm_cmplx_conj_q31.c ****     *pDst++ =  *pSrc++;
 134:.\DSP\Source\ComplexMathFunctions/arm_cmplx_conj_q31.c ****     in =  *pSrc++;
ARM GAS  C:\Users\IVYLIU~1\AppData\Local\Temp\cc7OrJGM.s 			page 4


 135:.\DSP\Source\ComplexMathFunctions/arm_cmplx_conj_q31.c **** #if defined (ARM_MATH_DSP)
 136:.\DSP\Source\ComplexMathFunctions/arm_cmplx_conj_q31.c ****     *pDst++ = __QSUB(0, in);
 137:.\DSP\Source\ComplexMathFunctions/arm_cmplx_conj_q31.c **** #else
 138:.\DSP\Source\ComplexMathFunctions/arm_cmplx_conj_q31.c ****     *pDst++ = (in == INT32_MIN) ? INT32_MAX : -in;
 139:.\DSP\Source\ComplexMathFunctions/arm_cmplx_conj_q31.c **** #endif
 140:.\DSP\Source\ComplexMathFunctions/arm_cmplx_conj_q31.c **** 
 141:.\DSP\Source\ComplexMathFunctions/arm_cmplx_conj_q31.c ****     *pDst++ =  *pSrc++;
 142:.\DSP\Source\ComplexMathFunctions/arm_cmplx_conj_q31.c ****     in = *pSrc++;
 143:.\DSP\Source\ComplexMathFunctions/arm_cmplx_conj_q31.c **** #if defined (ARM_MATH_DSP)
 144:.\DSP\Source\ComplexMathFunctions/arm_cmplx_conj_q31.c ****     *pDst++ = __QSUB(0, in);
 145:.\DSP\Source\ComplexMathFunctions/arm_cmplx_conj_q31.c **** #else
 146:.\DSP\Source\ComplexMathFunctions/arm_cmplx_conj_q31.c ****     *pDst++ = (in == INT32_MIN) ? INT32_MAX : -in;
 147:.\DSP\Source\ComplexMathFunctions/arm_cmplx_conj_q31.c **** #endif
 148:.\DSP\Source\ComplexMathFunctions/arm_cmplx_conj_q31.c **** 
 149:.\DSP\Source\ComplexMathFunctions/arm_cmplx_conj_q31.c ****     *pDst++ =  *pSrc++;
 150:.\DSP\Source\ComplexMathFunctions/arm_cmplx_conj_q31.c ****     in = *pSrc++;
 151:.\DSP\Source\ComplexMathFunctions/arm_cmplx_conj_q31.c **** #if defined (ARM_MATH_DSP)
 152:.\DSP\Source\ComplexMathFunctions/arm_cmplx_conj_q31.c ****     *pDst++ = __QSUB(0, in);
 153:.\DSP\Source\ComplexMathFunctions/arm_cmplx_conj_q31.c **** #else
 154:.\DSP\Source\ComplexMathFunctions/arm_cmplx_conj_q31.c ****     *pDst++ = (in == INT32_MIN) ? INT32_MAX : -in;
 155:.\DSP\Source\ComplexMathFunctions/arm_cmplx_conj_q31.c **** #endif
 156:.\DSP\Source\ComplexMathFunctions/arm_cmplx_conj_q31.c **** 
 157:.\DSP\Source\ComplexMathFunctions/arm_cmplx_conj_q31.c ****     /* Decrement loop counter */
 158:.\DSP\Source\ComplexMathFunctions/arm_cmplx_conj_q31.c ****     blkCnt--;
 159:.\DSP\Source\ComplexMathFunctions/arm_cmplx_conj_q31.c ****   }
 160:.\DSP\Source\ComplexMathFunctions/arm_cmplx_conj_q31.c **** 
 161:.\DSP\Source\ComplexMathFunctions/arm_cmplx_conj_q31.c ****   /* Loop unrolling: Compute remaining outputs */
 162:.\DSP\Source\ComplexMathFunctions/arm_cmplx_conj_q31.c ****   blkCnt = numSamples % 0x4U;
 163:.\DSP\Source\ComplexMathFunctions/arm_cmplx_conj_q31.c **** 
 164:.\DSP\Source\ComplexMathFunctions/arm_cmplx_conj_q31.c **** #else
 165:.\DSP\Source\ComplexMathFunctions/arm_cmplx_conj_q31.c **** 
 166:.\DSP\Source\ComplexMathFunctions/arm_cmplx_conj_q31.c ****   /* Initialize blkCnt with number of samples */
 167:.\DSP\Source\ComplexMathFunctions/arm_cmplx_conj_q31.c ****   blkCnt = numSamples;
 168:.\DSP\Source\ComplexMathFunctions/arm_cmplx_conj_q31.c **** 
 169:.\DSP\Source\ComplexMathFunctions/arm_cmplx_conj_q31.c **** #endif /* #if defined (ARM_MATH_LOOPUNROLL) */
 170:.\DSP\Source\ComplexMathFunctions/arm_cmplx_conj_q31.c **** 
 171:.\DSP\Source\ComplexMathFunctions/arm_cmplx_conj_q31.c ****   while (blkCnt > 0U)
  38              		.loc 1 171 0
  39 0002 11E0     		b	.L2
  40              	.LVL2:
  41              	.L4:
 172:.\DSP\Source\ComplexMathFunctions/arm_cmplx_conj_q31.c ****   {
 173:.\DSP\Source\ComplexMathFunctions/arm_cmplx_conj_q31.c ****     /* C[0] + jC[1] = A[0]+ j(-1)A[1] */
 174:.\DSP\Source\ComplexMathFunctions/arm_cmplx_conj_q31.c **** 
 175:.\DSP\Source\ComplexMathFunctions/arm_cmplx_conj_q31.c ****     /* Calculate Complex Conjugate and store result in destination buffer. */
 176:.\DSP\Source\ComplexMathFunctions/arm_cmplx_conj_q31.c ****     *pDst++ =  *pSrc++;
  42              		.loc 1 176 0
  43 0004 0446     		mov	r4, r0
  44 0006 54F8083B 		ldr	r3, [r4], #8
  45 000a 0D46     		mov	r5, r1
  46 000c 45F8083B 		str	r3, [r5], #8
  47              	.LVL3:
 177:.\DSP\Source\ComplexMathFunctions/arm_cmplx_conj_q31.c ****     in = *pSrc++;
  48              		.loc 1 177 0
  49 0010 4368     		ldr	r3, [r0, #4]
  50              	.LVL4:
 178:.\DSP\Source\ComplexMathFunctions/arm_cmplx_conj_q31.c **** #if defined (ARM_MATH_DSP)
ARM GAS  C:\Users\IVYLIU~1\AppData\Local\Temp\cc7OrJGM.s 			page 5


 179:.\DSP\Source\ComplexMathFunctions/arm_cmplx_conj_q31.c ****     *pDst++ = __QSUB(0, in);
 180:.\DSP\Source\ComplexMathFunctions/arm_cmplx_conj_q31.c **** #else
 181:.\DSP\Source\ComplexMathFunctions/arm_cmplx_conj_q31.c ****     *pDst++ = (in == INT32_MIN) ? INT32_MAX : -in;
  51              		.loc 1 181 0
  52 0012 B3F1004F 		cmp	r3, #-2147483648
  53 0016 01D0     		beq	.L5
  54              		.loc 1 181 0 is_stmt 0 discriminator 1
  55 0018 5B42     		negs	r3, r3
  56              	.LVL5:
  57 001a 01E0     		b	.L3
  58              	.LVL6:
  59              	.L5:
  60              		.loc 1 181 0
  61 001c 6FF00043 		mvn	r3, #-2147483648
  62              	.LVL7:
  63              	.L3:
  64              		.loc 1 181 0 discriminator 4
  65 0020 4B60     		str	r3, [r1, #4]
  66              	.LVL8:
 182:.\DSP\Source\ComplexMathFunctions/arm_cmplx_conj_q31.c **** #endif
 183:.\DSP\Source\ComplexMathFunctions/arm_cmplx_conj_q31.c **** 
 184:.\DSP\Source\ComplexMathFunctions/arm_cmplx_conj_q31.c ****     /* Decrement loop counter */
 185:.\DSP\Source\ComplexMathFunctions/arm_cmplx_conj_q31.c ****     blkCnt--;
  67              		.loc 1 185 0 is_stmt 1 discriminator 4
  68 0022 013A     		subs	r2, r2, #1
  69              	.LVL9:
 181:.\DSP\Source\ComplexMathFunctions/arm_cmplx_conj_q31.c **** #endif
  70              		.loc 1 181 0 discriminator 4
  71 0024 2946     		mov	r1, r5
 177:.\DSP\Source\ComplexMathFunctions/arm_cmplx_conj_q31.c **** #if defined (ARM_MATH_DSP)
  72              		.loc 1 177 0 discriminator 4
  73 0026 2046     		mov	r0, r4
  74              	.LVL10:
  75              	.L2:
 171:.\DSP\Source\ComplexMathFunctions/arm_cmplx_conj_q31.c ****   {
  76              		.loc 1 171 0
  77 0028 002A     		cmp	r2, #0
  78 002a EBD1     		bne	.L4
 186:.\DSP\Source\ComplexMathFunctions/arm_cmplx_conj_q31.c ****   }
 187:.\DSP\Source\ComplexMathFunctions/arm_cmplx_conj_q31.c **** 
 188:.\DSP\Source\ComplexMathFunctions/arm_cmplx_conj_q31.c **** }
  79              		.loc 1 188 0
  80 002c 30BC     		pop	{r4, r5}
  81              		.cfi_restore 5
  82              		.cfi_restore 4
  83              		.cfi_def_cfa_offset 0
  84 002e 7047     		bx	lr
  85              		.cfi_endproc
  86              	.LFE84:
  87              		.size	arm_cmplx_conj_q31, .-arm_cmplx_conj_q31
  88              		.text
  89              	.Letext0:
  90              		.file 2 "c:\\program files (x86)\\cypress\\psoc creator\\3.3\\psoc creator\\import\\gnu\\arm\\4.9.
  91              		.file 3 "c:\\program files (x86)\\cypress\\psoc creator\\3.3\\psoc creator\\import\\gnu\\arm\\4.9.
  92              		.file 4 ".\\DSP\\Include/arm_math_types.h"
  93              		.file 5 ".\\Core\\Include/cmsis_gcc.h"