ARM GAS  C:\Users\IVYLIU~1\AppData\Local\Temp\cccWvTFM.s 			page 1


   1              		.syntax unified
   2              		.cpu cortex-m3
   3              		.fpu softvfp
   4              		.eabi_attribute 20, 1
   5              		.eabi_attribute 21, 1
   6              		.eabi_attribute 23, 3
   7              		.eabi_attribute 24, 1
   8              		.eabi_attribute 25, 1
   9              		.eabi_attribute 26, 1
  10              		.eabi_attribute 30, 1
  11              		.eabi_attribute 34, 1
  12              		.eabi_attribute 18, 4
  13              		.thumb
  14              		.file	"arm_xor_u32.c"
  15              		.text
  16              	.Ltext0:
  17              		.cfi_sections	.debug_frame
  18              		.section	.text.arm_xor_u32,"ax",%progbits
  19              		.align	2
  20              		.global	arm_xor_u32
  21              		.thumb
  22              		.thumb_func
  23              		.type	arm_xor_u32, %function
  24              	arm_xor_u32:
  25              	.LFB83:
  26              		.file 1 ".\\DSP\\Source\\BasicMathFunctions\\arm_xor_u32.c"
   1:.\DSP\Source\BasicMathFunctions/arm_xor_u32.c **** /* ----------------------------------------------------------------------
   2:.\DSP\Source\BasicMathFunctions/arm_xor_u32.c ****  * Project:      CMSIS DSP Library
   3:.\DSP\Source\BasicMathFunctions/arm_xor_u32.c ****  * Title:        arm_xor_u32.c
   4:.\DSP\Source\BasicMathFunctions/arm_xor_u32.c ****  * Description:  uint32_t bitwise exclusive OR
   5:.\DSP\Source\BasicMathFunctions/arm_xor_u32.c ****  *
   6:.\DSP\Source\BasicMathFunctions/arm_xor_u32.c ****  * $Date:        23 April 2021
   7:.\DSP\Source\BasicMathFunctions/arm_xor_u32.c ****  * $Revision:    V1.9.0
   8:.\DSP\Source\BasicMathFunctions/arm_xor_u32.c ****  *
   9:.\DSP\Source\BasicMathFunctions/arm_xor_u32.c ****  * Target Processor: Cortex-M and Cortex-A cores
  10:.\DSP\Source\BasicMathFunctions/arm_xor_u32.c ****  * -------------------------------------------------------------------- */
  11:.\DSP\Source\BasicMathFunctions/arm_xor_u32.c **** /*
  12:.\DSP\Source\BasicMathFunctions/arm_xor_u32.c ****  * Copyright (C) 2010-2021 ARM Limited or its affiliates. All rights reserved.
  13:.\DSP\Source\BasicMathFunctions/arm_xor_u32.c ****  *
  14:.\DSP\Source\BasicMathFunctions/arm_xor_u32.c ****  * SPDX-License-Identifier: Apache-2.0
  15:.\DSP\Source\BasicMathFunctions/arm_xor_u32.c ****  *
  16:.\DSP\Source\BasicMathFunctions/arm_xor_u32.c ****  * Licensed under the Apache License, Version 2.0 (the License); you may
  17:.\DSP\Source\BasicMathFunctions/arm_xor_u32.c ****  * not use this file except in compliance with the License.
  18:.\DSP\Source\BasicMathFunctions/arm_xor_u32.c ****  * You may obtain a copy of the License at
  19:.\DSP\Source\BasicMathFunctions/arm_xor_u32.c ****  *
  20:.\DSP\Source\BasicMathFunctions/arm_xor_u32.c ****  * www.apache.org/licenses/LICENSE-2.0
  21:.\DSP\Source\BasicMathFunctions/arm_xor_u32.c ****  *
  22:.\DSP\Source\BasicMathFunctions/arm_xor_u32.c ****  * Unless required by applicable law or agreed to in writing, software
  23:.\DSP\Source\BasicMathFunctions/arm_xor_u32.c ****  * distributed under the License is distributed on an AS IS BASIS, WITHOUT
  24:.\DSP\Source\BasicMathFunctions/arm_xor_u32.c ****  * WARRANTIES OR CONDITIONS OF ANY KIND, either express or implied.
  25:.\DSP\Source\BasicMathFunctions/arm_xor_u32.c ****  * See the License for the specific language governing permissions and
  26:.\DSP\Source\BasicMathFunctions/arm_xor_u32.c ****  * limitations under the License.
  27:.\DSP\Source\BasicMathFunctions/arm_xor_u32.c ****  */
  28:.\DSP\Source\BasicMathFunctions/arm_xor_u32.c **** 
  29:.\DSP\Source\BasicMathFunctions/arm_xor_u32.c **** #include "dsp/basic_math_functions.h"
  30:.\DSP\Source\BasicMathFunctions/arm_xor_u32.c **** 
  31:.\DSP\Source\BasicMathFunctions/arm_xor_u32.c **** /**
ARM GAS  C:\Users\IVYLIU~1\AppData\Local\Temp\cccWvTFM.s 			page 2


  32:.\DSP\Source\BasicMathFunctions/arm_xor_u32.c ****   @ingroup groupMath
  33:.\DSP\Source\BasicMathFunctions/arm_xor_u32.c ****  */
  34:.\DSP\Source\BasicMathFunctions/arm_xor_u32.c **** 
  35:.\DSP\Source\BasicMathFunctions/arm_xor_u32.c **** /**
  36:.\DSP\Source\BasicMathFunctions/arm_xor_u32.c ****   @addtogroup Xor
  37:.\DSP\Source\BasicMathFunctions/arm_xor_u32.c ****   @{
  38:.\DSP\Source\BasicMathFunctions/arm_xor_u32.c ****  */
  39:.\DSP\Source\BasicMathFunctions/arm_xor_u32.c **** 
  40:.\DSP\Source\BasicMathFunctions/arm_xor_u32.c **** /**
  41:.\DSP\Source\BasicMathFunctions/arm_xor_u32.c ****   @brief         Compute the logical bitwise XOR of two fixed-point vectors.
  42:.\DSP\Source\BasicMathFunctions/arm_xor_u32.c ****   @param[in]     pSrcA      points to input vector A
  43:.\DSP\Source\BasicMathFunctions/arm_xor_u32.c ****   @param[in]     pSrcB      points to input vector B
  44:.\DSP\Source\BasicMathFunctions/arm_xor_u32.c ****   @param[out]    pDst       points to output vector
  45:.\DSP\Source\BasicMathFunctions/arm_xor_u32.c ****   @param[in]     blockSize  number of samples in each vector
  46:.\DSP\Source\BasicMathFunctions/arm_xor_u32.c ****   @return        none
  47:.\DSP\Source\BasicMathFunctions/arm_xor_u32.c ****  */
  48:.\DSP\Source\BasicMathFunctions/arm_xor_u32.c **** 
  49:.\DSP\Source\BasicMathFunctions/arm_xor_u32.c **** void arm_xor_u32(
  50:.\DSP\Source\BasicMathFunctions/arm_xor_u32.c ****     const uint32_t * pSrcA,
  51:.\DSP\Source\BasicMathFunctions/arm_xor_u32.c ****     const uint32_t * pSrcB,
  52:.\DSP\Source\BasicMathFunctions/arm_xor_u32.c ****           uint32_t * pDst,
  53:.\DSP\Source\BasicMathFunctions/arm_xor_u32.c ****           uint32_t blockSize)
  54:.\DSP\Source\BasicMathFunctions/arm_xor_u32.c **** {
  27              		.loc 1 54 0
  28              		.cfi_startproc
  29              		@ args = 0, pretend = 0, frame = 0
  30              		@ frame_needed = 0, uses_anonymous_args = 0
  31              		@ link register save eliminated.
  32              	.LVL0:
  33 0000 30B4     		push	{r4, r5}
  34              		.cfi_def_cfa_offset 8
  35              		.cfi_offset 4, -8
  36              		.cfi_offset 5, -4
  37              	.LVL1:
  55:.\DSP\Source\BasicMathFunctions/arm_xor_u32.c ****     uint32_t blkCnt;      /* Loop counter */
  56:.\DSP\Source\BasicMathFunctions/arm_xor_u32.c **** 
  57:.\DSP\Source\BasicMathFunctions/arm_xor_u32.c **** #if defined(ARM_MATH_MVEI) && !defined(ARM_MATH_AUTOVECTORIZE)
  58:.\DSP\Source\BasicMathFunctions/arm_xor_u32.c ****     uint32x4_t vecSrcA, vecSrcB;
  59:.\DSP\Source\BasicMathFunctions/arm_xor_u32.c **** 
  60:.\DSP\Source\BasicMathFunctions/arm_xor_u32.c ****     /* Compute 4 outputs at a time */
  61:.\DSP\Source\BasicMathFunctions/arm_xor_u32.c ****     blkCnt = blockSize >> 2;
  62:.\DSP\Source\BasicMathFunctions/arm_xor_u32.c **** 
  63:.\DSP\Source\BasicMathFunctions/arm_xor_u32.c ****     while (blkCnt > 0U)
  64:.\DSP\Source\BasicMathFunctions/arm_xor_u32.c ****     {
  65:.\DSP\Source\BasicMathFunctions/arm_xor_u32.c ****         vecSrcA = vld1q(pSrcA);
  66:.\DSP\Source\BasicMathFunctions/arm_xor_u32.c ****         vecSrcB = vld1q(pSrcB);
  67:.\DSP\Source\BasicMathFunctions/arm_xor_u32.c **** 
  68:.\DSP\Source\BasicMathFunctions/arm_xor_u32.c ****         vst1q(pDst, veorq_u32(vecSrcA, vecSrcB) );
  69:.\DSP\Source\BasicMathFunctions/arm_xor_u32.c **** 
  70:.\DSP\Source\BasicMathFunctions/arm_xor_u32.c ****         pSrcA += 4;
  71:.\DSP\Source\BasicMathFunctions/arm_xor_u32.c ****         pSrcB += 4;
  72:.\DSP\Source\BasicMathFunctions/arm_xor_u32.c ****         pDst  += 4;
  73:.\DSP\Source\BasicMathFunctions/arm_xor_u32.c **** 
  74:.\DSP\Source\BasicMathFunctions/arm_xor_u32.c ****         /* Decrement the loop counter */
  75:.\DSP\Source\BasicMathFunctions/arm_xor_u32.c ****         blkCnt--;
  76:.\DSP\Source\BasicMathFunctions/arm_xor_u32.c ****     }
  77:.\DSP\Source\BasicMathFunctions/arm_xor_u32.c **** 
ARM GAS  C:\Users\IVYLIU~1\AppData\Local\Temp\cccWvTFM.s 			page 3


  78:.\DSP\Source\BasicMathFunctions/arm_xor_u32.c ****     /* Tail */
  79:.\DSP\Source\BasicMathFunctions/arm_xor_u32.c ****     blkCnt = blockSize & 3;
  80:.\DSP\Source\BasicMathFunctions/arm_xor_u32.c **** 
  81:.\DSP\Source\BasicMathFunctions/arm_xor_u32.c ****     if (blkCnt > 0U)
  82:.\DSP\Source\BasicMathFunctions/arm_xor_u32.c ****     {
  83:.\DSP\Source\BasicMathFunctions/arm_xor_u32.c ****         mve_pred16_t p0 = vctp32q(blkCnt);
  84:.\DSP\Source\BasicMathFunctions/arm_xor_u32.c ****         vecSrcA = vld1q(pSrcA);
  85:.\DSP\Source\BasicMathFunctions/arm_xor_u32.c ****         vecSrcB = vld1q(pSrcB);
  86:.\DSP\Source\BasicMathFunctions/arm_xor_u32.c ****         vstrwq_p(pDst, veorq_u32(vecSrcA, vecSrcB), p0);
  87:.\DSP\Source\BasicMathFunctions/arm_xor_u32.c ****     }
  88:.\DSP\Source\BasicMathFunctions/arm_xor_u32.c **** #else
  89:.\DSP\Source\BasicMathFunctions/arm_xor_u32.c **** #if defined(ARM_MATH_NEON) && !defined(ARM_MATH_AUTOVECTORIZE)
  90:.\DSP\Source\BasicMathFunctions/arm_xor_u32.c ****     uint32x4_t vecA, vecB;
  91:.\DSP\Source\BasicMathFunctions/arm_xor_u32.c **** 
  92:.\DSP\Source\BasicMathFunctions/arm_xor_u32.c ****     /* Compute 4 outputs at a time */
  93:.\DSP\Source\BasicMathFunctions/arm_xor_u32.c ****     blkCnt = blockSize >> 2U;
  94:.\DSP\Source\BasicMathFunctions/arm_xor_u32.c **** 
  95:.\DSP\Source\BasicMathFunctions/arm_xor_u32.c ****     while (blkCnt > 0U)
  96:.\DSP\Source\BasicMathFunctions/arm_xor_u32.c ****     {
  97:.\DSP\Source\BasicMathFunctions/arm_xor_u32.c ****         vecA = vld1q_u32(pSrcA);
  98:.\DSP\Source\BasicMathFunctions/arm_xor_u32.c ****         vecB = vld1q_u32(pSrcB);
  99:.\DSP\Source\BasicMathFunctions/arm_xor_u32.c **** 
 100:.\DSP\Source\BasicMathFunctions/arm_xor_u32.c ****         vst1q_u32(pDst, veorq_u32(vecA, vecB) );
 101:.\DSP\Source\BasicMathFunctions/arm_xor_u32.c **** 
 102:.\DSP\Source\BasicMathFunctions/arm_xor_u32.c ****         pSrcA += 4;
 103:.\DSP\Source\BasicMathFunctions/arm_xor_u32.c ****         pSrcB += 4;
 104:.\DSP\Source\BasicMathFunctions/arm_xor_u32.c ****         pDst  += 4;
 105:.\DSP\Source\BasicMathFunctions/arm_xor_u32.c **** 
 106:.\DSP\Source\BasicMathFunctions/arm_xor_u32.c ****         /* Decrement the loop counter */
 107:.\DSP\Source\BasicMathFunctions/arm_xor_u32.c ****         blkCnt--;
 108:.\DSP\Source\BasicMathFunctions/arm_xor_u32.c ****     }
 109:.\DSP\Source\BasicMathFunctions/arm_xor_u32.c **** 
 110:.\DSP\Source\BasicMathFunctions/arm_xor_u32.c ****     /* Tail */
 111:.\DSP\Source\BasicMathFunctions/arm_xor_u32.c ****     blkCnt = blockSize & 3;
 112:.\DSP\Source\BasicMathFunctions/arm_xor_u32.c **** #else
 113:.\DSP\Source\BasicMathFunctions/arm_xor_u32.c ****     /* Initialize blkCnt with number of samples */
 114:.\DSP\Source\BasicMathFunctions/arm_xor_u32.c ****     blkCnt = blockSize;
 115:.\DSP\Source\BasicMathFunctions/arm_xor_u32.c **** #endif
 116:.\DSP\Source\BasicMathFunctions/arm_xor_u32.c **** 
 117:.\DSP\Source\BasicMathFunctions/arm_xor_u32.c ****     while (blkCnt > 0U)
  38              		.loc 1 117 0
  39 0002 07E0     		b	.L2
  40              	.LVL2:
  41              	.L3:
 118:.\DSP\Source\BasicMathFunctions/arm_xor_u32.c ****     {
 119:.\DSP\Source\BasicMathFunctions/arm_xor_u32.c ****         *pDst++ = (*pSrcA++)^(*pSrcB++);
  42              		.loc 1 119 0
  43 0004 0568     		ldr	r5, [r0]
  44              	.LVL3:
  45 0006 0C68     		ldr	r4, [r1]
  46 0008 6C40     		eors	r4, r4, r5
  47 000a 1460     		str	r4, [r2]
 120:.\DSP\Source\BasicMathFunctions/arm_xor_u32.c **** 
 121:.\DSP\Source\BasicMathFunctions/arm_xor_u32.c ****         /* Decrement the loop counter */
 122:.\DSP\Source\BasicMathFunctions/arm_xor_u32.c ****         blkCnt--;
  48              		.loc 1 122 0
  49 000c 013B     		subs	r3, r3, #1
ARM GAS  C:\Users\IVYLIU~1\AppData\Local\Temp\cccWvTFM.s 			page 4


  50              	.LVL4:
 119:.\DSP\Source\BasicMathFunctions/arm_xor_u32.c **** 
  51              		.loc 1 119 0
  52 000e 0432     		adds	r2, r2, #4
  53              	.LVL5:
  54 0010 0431     		adds	r1, r1, #4
  55              	.LVL6:
  56 0012 0430     		adds	r0, r0, #4
  57              	.LVL7:
  58              	.L2:
 117:.\DSP\Source\BasicMathFunctions/arm_xor_u32.c ****     {
  59              		.loc 1 117 0
  60 0014 002B     		cmp	r3, #0
  61 0016 F5D1     		bne	.L3
 123:.\DSP\Source\BasicMathFunctions/arm_xor_u32.c ****     }
 124:.\DSP\Source\BasicMathFunctions/arm_xor_u32.c **** #endif /* if defined(ARM_MATH_MVEI) */
 125:.\DSP\Source\BasicMathFunctions/arm_xor_u32.c **** }
  62              		.loc 1 125 0
  63 0018 30BC     		pop	{r4, r5}
  64              		.cfi_restore 5
  65              		.cfi_restore 4
  66              		.cfi_def_cfa_offset 0
  67 001a 7047     		bx	lr
  68              		.cfi_endproc
  69              	.LFE83:
  70              		.size	arm_xor_u32, .-arm_xor_u32
  71              		.text
  72              	.Letext0:
  73              		.file 2 "c:\\program files (x86)\\cypress\\psoc creator\\3.3\\psoc creator\\import\\gnu\\arm\\4.9.
  74              		.file 3 "c:\\program files (x86)\\cypress\\psoc creator\\3.3\\psoc creator\\import\\gnu\\arm\\4.9.
  75              		.file 4 ".\\Core\\Include/cmsis_gcc.h"