ARM GAS  C:\Users\IVYLIU~1\AppData\Local\Temp\ccOzniAs.s 			page 1


   1              		.syntax unified
   2              		.cpu cortex-m3
   3              		.fpu softvfp
   4              		.eabi_attribute 20, 1
   5              		.eabi_attribute 21, 1
   6              		.eabi_attribute 23, 3
   7              		.eabi_attribute 24, 1
   8              		.eabi_attribute 25, 1
   9              		.eabi_attribute 26, 1
  10              		.eabi_attribute 30, 1
  11              		.eabi_attribute 34, 1
  12              		.eabi_attribute 18, 4
  13              		.thumb
  14              		.file	"arm_shift_q31.c"
  15              		.text
  16              	.Ltext0:
  17              		.cfi_sections	.debug_frame
  18              		.section	.text.arm_shift_q31,"ax",%progbits
  19              		.align	2
  20              		.global	arm_shift_q31
  21              		.thumb
  22              		.thumb_func
  23              		.type	arm_shift_q31, %function
  24              	arm_shift_q31:
  25              	.LFB83:
  26              		.file 1 ".\\DSP\\Source\\BasicMathFunctions\\arm_shift_q31.c"
   1:.\DSP\Source\BasicMathFunctions/arm_shift_q31.c **** /* ----------------------------------------------------------------------
   2:.\DSP\Source\BasicMathFunctions/arm_shift_q31.c ****  * Project:      CMSIS DSP Library
   3:.\DSP\Source\BasicMathFunctions/arm_shift_q31.c ****  * Title:        arm_shift_q31.c
   4:.\DSP\Source\BasicMathFunctions/arm_shift_q31.c ****  * Description:  Shifts the elements of a Q31 vector by a specified number of bits
   5:.\DSP\Source\BasicMathFunctions/arm_shift_q31.c ****  *
   6:.\DSP\Source\BasicMathFunctions/arm_shift_q31.c ****  * $Date:        23 April 2021
   7:.\DSP\Source\BasicMathFunctions/arm_shift_q31.c ****  * $Revision:    V1.9.0
   8:.\DSP\Source\BasicMathFunctions/arm_shift_q31.c ****  *
   9:.\DSP\Source\BasicMathFunctions/arm_shift_q31.c ****  * Target Processor: Cortex-M and Cortex-A cores
  10:.\DSP\Source\BasicMathFunctions/arm_shift_q31.c ****  * -------------------------------------------------------------------- */
  11:.\DSP\Source\BasicMathFunctions/arm_shift_q31.c **** /*
  12:.\DSP\Source\BasicMathFunctions/arm_shift_q31.c ****  * Copyright (C) 2010-2021 ARM Limited or its affiliates. All rights reserved.
  13:.\DSP\Source\BasicMathFunctions/arm_shift_q31.c ****  *
  14:.\DSP\Source\BasicMathFunctions/arm_shift_q31.c ****  * SPDX-License-Identifier: Apache-2.0
  15:.\DSP\Source\BasicMathFunctions/arm_shift_q31.c ****  *
  16:.\DSP\Source\BasicMathFunctions/arm_shift_q31.c ****  * Licensed under the Apache License, Version 2.0 (the License); you may
  17:.\DSP\Source\BasicMathFunctions/arm_shift_q31.c ****  * not use this file except in compliance with the License.
  18:.\DSP\Source\BasicMathFunctions/arm_shift_q31.c ****  * You may obtain a copy of the License at
  19:.\DSP\Source\BasicMathFunctions/arm_shift_q31.c ****  *
  20:.\DSP\Source\BasicMathFunctions/arm_shift_q31.c ****  * www.apache.org/licenses/LICENSE-2.0
  21:.\DSP\Source\BasicMathFunctions/arm_shift_q31.c ****  *
  22:.\DSP\Source\BasicMathFunctions/arm_shift_q31.c ****  * Unless required by applicable law or agreed to in writing, software
  23:.\DSP\Source\BasicMathFunctions/arm_shift_q31.c ****  * distributed under the License is distributed on an AS IS BASIS, WITHOUT
  24:.\DSP\Source\BasicMathFunctions/arm_shift_q31.c ****  * WARRANTIES OR CONDITIONS OF ANY KIND, either express or implied.
  25:.\DSP\Source\BasicMathFunctions/arm_shift_q31.c ****  * See the License for the specific language governing permissions and
  26:.\DSP\Source\BasicMathFunctions/arm_shift_q31.c ****  * limitations under the License.
  27:.\DSP\Source\BasicMathFunctions/arm_shift_q31.c ****  */
  28:.\DSP\Source\BasicMathFunctions/arm_shift_q31.c **** 
  29:.\DSP\Source\BasicMathFunctions/arm_shift_q31.c **** #include "dsp/basic_math_functions.h"
  30:.\DSP\Source\BasicMathFunctions/arm_shift_q31.c **** 
  31:.\DSP\Source\BasicMathFunctions/arm_shift_q31.c **** /**
ARM GAS  C:\Users\IVYLIU~1\AppData\Local\Temp\ccOzniAs.s 			page 2


  32:.\DSP\Source\BasicMathFunctions/arm_shift_q31.c ****   @ingroup groupMath
  33:.\DSP\Source\BasicMathFunctions/arm_shift_q31.c ****  */
  34:.\DSP\Source\BasicMathFunctions/arm_shift_q31.c **** /**
  35:.\DSP\Source\BasicMathFunctions/arm_shift_q31.c ****   @defgroup BasicShift Vector Shift
  36:.\DSP\Source\BasicMathFunctions/arm_shift_q31.c **** 
  37:.\DSP\Source\BasicMathFunctions/arm_shift_q31.c ****   Shifts the elements of a fixed-point vector by a specified number of bits.
  38:.\DSP\Source\BasicMathFunctions/arm_shift_q31.c ****   There are separate functions for Q7, Q15, and Q31 data types.
  39:.\DSP\Source\BasicMathFunctions/arm_shift_q31.c ****   The underlying algorithm used is:
  40:.\DSP\Source\BasicMathFunctions/arm_shift_q31.c **** 
  41:.\DSP\Source\BasicMathFunctions/arm_shift_q31.c ****   <pre>
  42:.\DSP\Source\BasicMathFunctions/arm_shift_q31.c ****       pDst[n] = pSrc[n] << shift,   0 <= n < blockSize.
  43:.\DSP\Source\BasicMathFunctions/arm_shift_q31.c ****   </pre>
  44:.\DSP\Source\BasicMathFunctions/arm_shift_q31.c **** 
  45:.\DSP\Source\BasicMathFunctions/arm_shift_q31.c ****   If <code>shift</code> is positive then the elements of the vector are shifted to the left.
  46:.\DSP\Source\BasicMathFunctions/arm_shift_q31.c ****   If <code>shift</code> is negative then the elements of the vector are shifted to the right.
  47:.\DSP\Source\BasicMathFunctions/arm_shift_q31.c **** 
  48:.\DSP\Source\BasicMathFunctions/arm_shift_q31.c ****   The functions support in-place computation allowing the source and destination
  49:.\DSP\Source\BasicMathFunctions/arm_shift_q31.c ****   pointers to reference the same memory buffer.
  50:.\DSP\Source\BasicMathFunctions/arm_shift_q31.c ****  */
  51:.\DSP\Source\BasicMathFunctions/arm_shift_q31.c **** 
  52:.\DSP\Source\BasicMathFunctions/arm_shift_q31.c **** /**
  53:.\DSP\Source\BasicMathFunctions/arm_shift_q31.c ****   @addtogroup BasicShift
  54:.\DSP\Source\BasicMathFunctions/arm_shift_q31.c ****   @{
  55:.\DSP\Source\BasicMathFunctions/arm_shift_q31.c ****  */
  56:.\DSP\Source\BasicMathFunctions/arm_shift_q31.c **** 
  57:.\DSP\Source\BasicMathFunctions/arm_shift_q31.c **** /**
  58:.\DSP\Source\BasicMathFunctions/arm_shift_q31.c ****   @brief         Shifts the elements of a Q31 vector a specified number of bits.
  59:.\DSP\Source\BasicMathFunctions/arm_shift_q31.c ****   @param[in]     pSrc       points to the input vector
  60:.\DSP\Source\BasicMathFunctions/arm_shift_q31.c ****   @param[in]     shiftBits  number of bits to shift.  A positive value shifts left; a negative valu
  61:.\DSP\Source\BasicMathFunctions/arm_shift_q31.c ****   @param[out]    pDst       points to the output vector
  62:.\DSP\Source\BasicMathFunctions/arm_shift_q31.c ****   @param[in]     blockSize  number of samples in the vector
  63:.\DSP\Source\BasicMathFunctions/arm_shift_q31.c ****   @return        none
  64:.\DSP\Source\BasicMathFunctions/arm_shift_q31.c **** 
  65:.\DSP\Source\BasicMathFunctions/arm_shift_q31.c ****   @par           Scaling and Overflow Behavior
  66:.\DSP\Source\BasicMathFunctions/arm_shift_q31.c ****                    The function uses saturating arithmetic.
  67:.\DSP\Source\BasicMathFunctions/arm_shift_q31.c ****                    Results outside of the allowable Q31 range [0x80000000 0x7FFFFFFF] are saturated
  68:.\DSP\Source\BasicMathFunctions/arm_shift_q31.c ****  */
  69:.\DSP\Source\BasicMathFunctions/arm_shift_q31.c **** 
  70:.\DSP\Source\BasicMathFunctions/arm_shift_q31.c **** #if defined(ARM_MATH_MVEI) && !defined(ARM_MATH_AUTOVECTORIZE)
  71:.\DSP\Source\BasicMathFunctions/arm_shift_q31.c **** 
  72:.\DSP\Source\BasicMathFunctions/arm_shift_q31.c **** #include "arm_helium_utils.h"
  73:.\DSP\Source\BasicMathFunctions/arm_shift_q31.c **** 
  74:.\DSP\Source\BasicMathFunctions/arm_shift_q31.c **** void arm_shift_q31(
  75:.\DSP\Source\BasicMathFunctions/arm_shift_q31.c ****     const q31_t * pSrc,
  76:.\DSP\Source\BasicMathFunctions/arm_shift_q31.c ****     int8_t shiftBits,
  77:.\DSP\Source\BasicMathFunctions/arm_shift_q31.c ****     q31_t * pDst,
  78:.\DSP\Source\BasicMathFunctions/arm_shift_q31.c ****     uint32_t blockSize)
  79:.\DSP\Source\BasicMathFunctions/arm_shift_q31.c **** {
  80:.\DSP\Source\BasicMathFunctions/arm_shift_q31.c ****     uint32_t  blkCnt;           /* loop counters */
  81:.\DSP\Source\BasicMathFunctions/arm_shift_q31.c ****     q31x4_t vecSrc;
  82:.\DSP\Source\BasicMathFunctions/arm_shift_q31.c ****     q31x4_t vecDst;
  83:.\DSP\Source\BasicMathFunctions/arm_shift_q31.c **** 
  84:.\DSP\Source\BasicMathFunctions/arm_shift_q31.c ****     /* Compute 4 outputs at a time */
  85:.\DSP\Source\BasicMathFunctions/arm_shift_q31.c ****     blkCnt = blockSize >> 2;
  86:.\DSP\Source\BasicMathFunctions/arm_shift_q31.c ****     while (blkCnt > 0U)
  87:.\DSP\Source\BasicMathFunctions/arm_shift_q31.c ****     {
  88:.\DSP\Source\BasicMathFunctions/arm_shift_q31.c ****         /*
ARM GAS  C:\Users\IVYLIU~1\AppData\Local\Temp\ccOzniAs.s 			page 3


  89:.\DSP\Source\BasicMathFunctions/arm_shift_q31.c ****          * C = A (>> or <<) shiftBits
  90:.\DSP\Source\BasicMathFunctions/arm_shift_q31.c ****          * Shift the input and then store the result in the destination buffer.
  91:.\DSP\Source\BasicMathFunctions/arm_shift_q31.c ****          */
  92:.\DSP\Source\BasicMathFunctions/arm_shift_q31.c ****         vecSrc = vld1q((q31_t const *) pSrc);
  93:.\DSP\Source\BasicMathFunctions/arm_shift_q31.c ****         vecDst = vqshlq_r(vecSrc, shiftBits);
  94:.\DSP\Source\BasicMathFunctions/arm_shift_q31.c ****         vst1q(pDst, vecDst);
  95:.\DSP\Source\BasicMathFunctions/arm_shift_q31.c ****         /*
  96:.\DSP\Source\BasicMathFunctions/arm_shift_q31.c ****          * Decrement the blockSize loop counter
  97:.\DSP\Source\BasicMathFunctions/arm_shift_q31.c ****          */
  98:.\DSP\Source\BasicMathFunctions/arm_shift_q31.c ****         blkCnt--;
  99:.\DSP\Source\BasicMathFunctions/arm_shift_q31.c ****         /*
 100:.\DSP\Source\BasicMathFunctions/arm_shift_q31.c ****          * advance vector source and destination pointers
 101:.\DSP\Source\BasicMathFunctions/arm_shift_q31.c ****          */
 102:.\DSP\Source\BasicMathFunctions/arm_shift_q31.c ****         pSrc += 4;
 103:.\DSP\Source\BasicMathFunctions/arm_shift_q31.c ****         pDst += 4;
 104:.\DSP\Source\BasicMathFunctions/arm_shift_q31.c ****     }
 105:.\DSP\Source\BasicMathFunctions/arm_shift_q31.c ****     /*
 106:.\DSP\Source\BasicMathFunctions/arm_shift_q31.c ****      * tail
 107:.\DSP\Source\BasicMathFunctions/arm_shift_q31.c ****      */
 108:.\DSP\Source\BasicMathFunctions/arm_shift_q31.c ****     blkCnt = blockSize & 3;
 109:.\DSP\Source\BasicMathFunctions/arm_shift_q31.c ****     if (blkCnt > 0U)
 110:.\DSP\Source\BasicMathFunctions/arm_shift_q31.c ****     {
 111:.\DSP\Source\BasicMathFunctions/arm_shift_q31.c ****         mve_pred16_t p0 = vctp32q(blkCnt);
 112:.\DSP\Source\BasicMathFunctions/arm_shift_q31.c ****         vecSrc = vld1q((q31_t const *) pSrc);
 113:.\DSP\Source\BasicMathFunctions/arm_shift_q31.c ****         vecDst = vqshlq_r(vecSrc, shiftBits);
 114:.\DSP\Source\BasicMathFunctions/arm_shift_q31.c ****         vstrwq_p(pDst, vecDst, p0);
 115:.\DSP\Source\BasicMathFunctions/arm_shift_q31.c ****     }
 116:.\DSP\Source\BasicMathFunctions/arm_shift_q31.c **** }
 117:.\DSP\Source\BasicMathFunctions/arm_shift_q31.c **** 
 118:.\DSP\Source\BasicMathFunctions/arm_shift_q31.c **** 
 119:.\DSP\Source\BasicMathFunctions/arm_shift_q31.c **** #else
 120:.\DSP\Source\BasicMathFunctions/arm_shift_q31.c **** void arm_shift_q31(
 121:.\DSP\Source\BasicMathFunctions/arm_shift_q31.c ****   const q31_t * pSrc,
 122:.\DSP\Source\BasicMathFunctions/arm_shift_q31.c ****         int8_t shiftBits,
 123:.\DSP\Source\BasicMathFunctions/arm_shift_q31.c ****         q31_t * pDst,
 124:.\DSP\Source\BasicMathFunctions/arm_shift_q31.c ****         uint32_t blockSize)
 125:.\DSP\Source\BasicMathFunctions/arm_shift_q31.c **** {
  27              		.loc 1 125 0
  28              		.cfi_startproc
  29              		@ args = 0, pretend = 0, frame = 0
  30              		@ frame_needed = 0, uses_anonymous_args = 0
  31              	.LVL0:
  32 0000 2DE9F043 		push	{r4, r5, r6, r7, r8, r9, lr}
  33              		.cfi_def_cfa_offset 28
  34              		.cfi_offset 4, -28
  35              		.cfi_offset 5, -24
  36              		.cfi_offset 6, -20
  37              		.cfi_offset 7, -16
  38              		.cfi_offset 8, -12
  39              		.cfi_offset 9, -8
  40              		.cfi_offset 14, -4
  41              	.LVL1:
 126:.\DSP\Source\BasicMathFunctions/arm_shift_q31.c ****         uint32_t blkCnt;                               /* Loop counter */
 127:.\DSP\Source\BasicMathFunctions/arm_shift_q31.c ****         uint8_t sign = (shiftBits & 0x80);             /* Sign of shiftBits */
 128:.\DSP\Source\BasicMathFunctions/arm_shift_q31.c **** 
 129:.\DSP\Source\BasicMathFunctions/arm_shift_q31.c **** #if defined (ARM_MATH_LOOPUNROLL)
 130:.\DSP\Source\BasicMathFunctions/arm_shift_q31.c **** 
ARM GAS  C:\Users\IVYLIU~1\AppData\Local\Temp\ccOzniAs.s 			page 4


 131:.\DSP\Source\BasicMathFunctions/arm_shift_q31.c ****   q31_t in, out;                                 /* Temporary variables */
 132:.\DSP\Source\BasicMathFunctions/arm_shift_q31.c **** 
 133:.\DSP\Source\BasicMathFunctions/arm_shift_q31.c ****   /* Loop unrolling: Compute 4 outputs at a time */
 134:.\DSP\Source\BasicMathFunctions/arm_shift_q31.c ****   blkCnt = blockSize >> 2U;
 135:.\DSP\Source\BasicMathFunctions/arm_shift_q31.c **** 
 136:.\DSP\Source\BasicMathFunctions/arm_shift_q31.c ****   /* If the shift value is positive then do right shift else left shift */
 137:.\DSP\Source\BasicMathFunctions/arm_shift_q31.c ****   if (sign == 0U)
 138:.\DSP\Source\BasicMathFunctions/arm_shift_q31.c ****   {
 139:.\DSP\Source\BasicMathFunctions/arm_shift_q31.c ****     while (blkCnt > 0U)
 140:.\DSP\Source\BasicMathFunctions/arm_shift_q31.c ****     {
 141:.\DSP\Source\BasicMathFunctions/arm_shift_q31.c ****       /* C = A << shiftBits */
 142:.\DSP\Source\BasicMathFunctions/arm_shift_q31.c **** 
 143:.\DSP\Source\BasicMathFunctions/arm_shift_q31.c ****       /* Shift input and store result in destination buffer. */
 144:.\DSP\Source\BasicMathFunctions/arm_shift_q31.c ****       in = *pSrc++;
 145:.\DSP\Source\BasicMathFunctions/arm_shift_q31.c ****       out = in << shiftBits;
 146:.\DSP\Source\BasicMathFunctions/arm_shift_q31.c ****       if (in != (out >> shiftBits))
 147:.\DSP\Source\BasicMathFunctions/arm_shift_q31.c ****         out = 0x7FFFFFFF ^ (in >> 31);
 148:.\DSP\Source\BasicMathFunctions/arm_shift_q31.c ****       *pDst++ = out;
 149:.\DSP\Source\BasicMathFunctions/arm_shift_q31.c **** 
 150:.\DSP\Source\BasicMathFunctions/arm_shift_q31.c ****       in = *pSrc++;
 151:.\DSP\Source\BasicMathFunctions/arm_shift_q31.c ****       out = in << shiftBits;
 152:.\DSP\Source\BasicMathFunctions/arm_shift_q31.c ****       if (in != (out >> shiftBits))
 153:.\DSP\Source\BasicMathFunctions/arm_shift_q31.c ****         out = 0x7FFFFFFF ^ (in >> 31);
 154:.\DSP\Source\BasicMathFunctions/arm_shift_q31.c ****       *pDst++ = out;
 155:.\DSP\Source\BasicMathFunctions/arm_shift_q31.c **** 
 156:.\DSP\Source\BasicMathFunctions/arm_shift_q31.c ****       in = *pSrc++;
 157:.\DSP\Source\BasicMathFunctions/arm_shift_q31.c ****       out = in << shiftBits;
 158:.\DSP\Source\BasicMathFunctions/arm_shift_q31.c ****       if (in != (out >> shiftBits))
 159:.\DSP\Source\BasicMathFunctions/arm_shift_q31.c ****         out = 0x7FFFFFFF ^ (in >> 31);
 160:.\DSP\Source\BasicMathFunctions/arm_shift_q31.c ****       *pDst++ = out;
 161:.\DSP\Source\BasicMathFunctions/arm_shift_q31.c **** 
 162:.\DSP\Source\BasicMathFunctions/arm_shift_q31.c ****       in = *pSrc++;
 163:.\DSP\Source\BasicMathFunctions/arm_shift_q31.c ****       out = in << shiftBits;
 164:.\DSP\Source\BasicMathFunctions/arm_shift_q31.c ****       if (in != (out >> shiftBits))
 165:.\DSP\Source\BasicMathFunctions/arm_shift_q31.c ****         out = 0x7FFFFFFF ^ (in >> 31);
 166:.\DSP\Source\BasicMathFunctions/arm_shift_q31.c ****       *pDst++ = out;
 167:.\DSP\Source\BasicMathFunctions/arm_shift_q31.c **** 
 168:.\DSP\Source\BasicMathFunctions/arm_shift_q31.c ****       /* Decrement loop counter */
 169:.\DSP\Source\BasicMathFunctions/arm_shift_q31.c ****       blkCnt--;
 170:.\DSP\Source\BasicMathFunctions/arm_shift_q31.c ****     }
 171:.\DSP\Source\BasicMathFunctions/arm_shift_q31.c ****   }
 172:.\DSP\Source\BasicMathFunctions/arm_shift_q31.c ****   else
 173:.\DSP\Source\BasicMathFunctions/arm_shift_q31.c ****   {
 174:.\DSP\Source\BasicMathFunctions/arm_shift_q31.c ****     while (blkCnt > 0U)
 175:.\DSP\Source\BasicMathFunctions/arm_shift_q31.c ****     {
 176:.\DSP\Source\BasicMathFunctions/arm_shift_q31.c ****       /* C = A >> shiftBits */
 177:.\DSP\Source\BasicMathFunctions/arm_shift_q31.c **** 
 178:.\DSP\Source\BasicMathFunctions/arm_shift_q31.c ****       /* Shift input and store results in destination buffer. */
 179:.\DSP\Source\BasicMathFunctions/arm_shift_q31.c ****       *pDst++ = (*pSrc++ >> -shiftBits);
 180:.\DSP\Source\BasicMathFunctions/arm_shift_q31.c ****       *pDst++ = (*pSrc++ >> -shiftBits);
 181:.\DSP\Source\BasicMathFunctions/arm_shift_q31.c ****       *pDst++ = (*pSrc++ >> -shiftBits);
 182:.\DSP\Source\BasicMathFunctions/arm_shift_q31.c ****       *pDst++ = (*pSrc++ >> -shiftBits);
 183:.\DSP\Source\BasicMathFunctions/arm_shift_q31.c **** 
 184:.\DSP\Source\BasicMathFunctions/arm_shift_q31.c ****       /* Decrement loop counter */
 185:.\DSP\Source\BasicMathFunctions/arm_shift_q31.c ****       blkCnt--;
 186:.\DSP\Source\BasicMathFunctions/arm_shift_q31.c ****     }
 187:.\DSP\Source\BasicMathFunctions/arm_shift_q31.c ****   }
ARM GAS  C:\Users\IVYLIU~1\AppData\Local\Temp\ccOzniAs.s 			page 5


 188:.\DSP\Source\BasicMathFunctions/arm_shift_q31.c **** 
 189:.\DSP\Source\BasicMathFunctions/arm_shift_q31.c ****   /* Loop unrolling: Compute remaining outputs */
 190:.\DSP\Source\BasicMathFunctions/arm_shift_q31.c ****   blkCnt = blockSize % 0x4U;
 191:.\DSP\Source\BasicMathFunctions/arm_shift_q31.c **** 
 192:.\DSP\Source\BasicMathFunctions/arm_shift_q31.c **** #else
 193:.\DSP\Source\BasicMathFunctions/arm_shift_q31.c **** 
 194:.\DSP\Source\BasicMathFunctions/arm_shift_q31.c ****   /* Initialize blkCnt with number of samples */
 195:.\DSP\Source\BasicMathFunctions/arm_shift_q31.c ****   blkCnt = blockSize;
 196:.\DSP\Source\BasicMathFunctions/arm_shift_q31.c **** 
 197:.\DSP\Source\BasicMathFunctions/arm_shift_q31.c **** #endif /* #if defined (ARM_MATH_LOOPUNROLL) */
 198:.\DSP\Source\BasicMathFunctions/arm_shift_q31.c **** 
 199:.\DSP\Source\BasicMathFunctions/arm_shift_q31.c ****   /* If the shift value is positive then do right shift else left shift */
 200:.\DSP\Source\BasicMathFunctions/arm_shift_q31.c ****   if (sign == 0U)
  42              		.loc 1 200 0
  43 0004 0029     		cmp	r1, #0
  44              	.LVL2:
  45 0006 1EDA     		bge	.L2
  46 0008 28E0     		b	.L3
  47              	.LVL3:
  48              	.L6:
 201:.\DSP\Source\BasicMathFunctions/arm_shift_q31.c ****   {
 202:.\DSP\Source\BasicMathFunctions/arm_shift_q31.c ****     while (blkCnt > 0U)
 203:.\DSP\Source\BasicMathFunctions/arm_shift_q31.c ****     {
 204:.\DSP\Source\BasicMathFunctions/arm_shift_q31.c ****       /* C = A << shiftBits */
 205:.\DSP\Source\BasicMathFunctions/arm_shift_q31.c **** 
 206:.\DSP\Source\BasicMathFunctions/arm_shift_q31.c ****       /* Shift input and store result in destination buffer. */
 207:.\DSP\Source\BasicMathFunctions/arm_shift_q31.c ****       *pDst++ = clip_q63_to_q31((q63_t) *pSrc++ << shiftBits);
  49              		.loc 1 207 0
  50 000a 171D     		adds	r7, r2, #4
  51              	.LVL4:
  52 000c 061D     		adds	r6, r0, #4
  53              	.LVL5:
  54 000e 0068     		ldr	r0, [r0]
  55 0010 4FEAE079 		asr	r9, r0, #31
  56 0014 A1F1200E 		sub	lr, r1, #32
  57 0018 C1F12005 		rsb	r5, r1, #32
  58 001c 09FA01F4 		lsl	r4, r9, r1
  59 0020 00FA0EFE 		lsl	lr, r0, lr
  60 0024 44EA0E04 		orr	r4, r4, lr
  61 0028 20FA05F5 		lsr	r5, r0, r5
  62 002c 2C43     		orrs	r4, r4, r5
  63 002e 8840     		lsls	r0, r0, r1
  64              	.LVL6:
  65              	.LBB4:
  66              	.LBB5:
  67              		.file 2 ".\\DSP\\Include/dsp/none.h"
   1:.\DSP\Include/dsp/none.h **** /******************************************************************************
   2:.\DSP\Include/dsp/none.h ****  * @file     none.h
   3:.\DSP\Include/dsp/none.h ****  * @brief    Intrinsincs when no DSP extension available
   4:.\DSP\Include/dsp/none.h ****  * @version  V1.9.0
   5:.\DSP\Include/dsp/none.h ****  * @date     20. July 2020
   6:.\DSP\Include/dsp/none.h ****  ******************************************************************************/
   7:.\DSP\Include/dsp/none.h **** /*
   8:.\DSP\Include/dsp/none.h ****  * Copyright (c) 2010-2020 Arm Limited or its affiliates. All rights reserved.
   9:.\DSP\Include/dsp/none.h ****  *
  10:.\DSP\Include/dsp/none.h ****  * SPDX-License-Identifier: Apache-2.0
  11:.\DSP\Include/dsp/none.h ****  *
ARM GAS  C:\Users\IVYLIU~1\AppData\Local\Temp\ccOzniAs.s 			page 6


  12:.\DSP\Include/dsp/none.h ****  * Licensed under the Apache License, Version 2.0 (the License); you may
  13:.\DSP\Include/dsp/none.h ****  * not use this file except in compliance with the License.
  14:.\DSP\Include/dsp/none.h ****  * You may obtain a copy of the License at
  15:.\DSP\Include/dsp/none.h ****  *
  16:.\DSP\Include/dsp/none.h ****  * www.apache.org/licenses/LICENSE-2.0
  17:.\DSP\Include/dsp/none.h ****  *
  18:.\DSP\Include/dsp/none.h ****  * Unless required by applicable law or agreed to in writing, software
  19:.\DSP\Include/dsp/none.h ****  * distributed under the License is distributed on an AS IS BASIS, WITHOUT
  20:.\DSP\Include/dsp/none.h ****  * WARRANTIES OR CONDITIONS OF ANY KIND, either express or implied.
  21:.\DSP\Include/dsp/none.h ****  * See the License for the specific language governing permissions and
  22:.\DSP\Include/dsp/none.h ****  * limitations under the License.
  23:.\DSP\Include/dsp/none.h ****  */
  24:.\DSP\Include/dsp/none.h **** 
  25:.\DSP\Include/dsp/none.h **** /*
  26:.\DSP\Include/dsp/none.h **** 
  27:.\DSP\Include/dsp/none.h **** Definitions in this file are allowing to reuse some versions of the
  28:.\DSP\Include/dsp/none.h **** CMSIS-DSP to build on a core (M0 for instance) or a host where
  29:.\DSP\Include/dsp/none.h **** DSP extension are not available.
  30:.\DSP\Include/dsp/none.h **** 
  31:.\DSP\Include/dsp/none.h **** Ideally a pure C version should have been used instead.
  32:.\DSP\Include/dsp/none.h **** But those are not always available or use a restricted set
  33:.\DSP\Include/dsp/none.h **** of intrinsics.
  34:.\DSP\Include/dsp/none.h **** 
  35:.\DSP\Include/dsp/none.h **** */
  36:.\DSP\Include/dsp/none.h ****  
  37:.\DSP\Include/dsp/none.h **** #ifndef _NONE_H_
  38:.\DSP\Include/dsp/none.h **** #define _NONE_H_
  39:.\DSP\Include/dsp/none.h **** 
  40:.\DSP\Include/dsp/none.h **** #include "arm_math_types.h"
  41:.\DSP\Include/dsp/none.h **** 
  42:.\DSP\Include/dsp/none.h **** #ifdef   __cplusplus
  43:.\DSP\Include/dsp/none.h **** extern "C"
  44:.\DSP\Include/dsp/none.h **** {
  45:.\DSP\Include/dsp/none.h **** #endif
  46:.\DSP\Include/dsp/none.h **** 
  47:.\DSP\Include/dsp/none.h ****  
  48:.\DSP\Include/dsp/none.h **** 
  49:.\DSP\Include/dsp/none.h **** /*
  50:.\DSP\Include/dsp/none.h **** 
  51:.\DSP\Include/dsp/none.h **** Normally those kind of definitions are in a compiler file
  52:.\DSP\Include/dsp/none.h **** in Core or Core_A.
  53:.\DSP\Include/dsp/none.h **** 
  54:.\DSP\Include/dsp/none.h **** But for MSVC compiler it is a bit special. The goal is very specific
  55:.\DSP\Include/dsp/none.h **** to CMSIS-DSP and only to allow the use of this library from other
  56:.\DSP\Include/dsp/none.h **** systems like Python or Matlab.
  57:.\DSP\Include/dsp/none.h **** 
  58:.\DSP\Include/dsp/none.h **** MSVC is not going to be used to cross-compile to ARM. So, having a MSVC
  59:.\DSP\Include/dsp/none.h **** compiler file in Core or Core_A would not make sense.
  60:.\DSP\Include/dsp/none.h **** 
  61:.\DSP\Include/dsp/none.h **** */
  62:.\DSP\Include/dsp/none.h **** #if defined ( _MSC_VER ) || defined(__GNUC_PYTHON__) || defined(__APPLE_CC__)
  63:.\DSP\Include/dsp/none.h ****     __STATIC_FORCEINLINE uint8_t __CLZ(uint32_t data)
  64:.\DSP\Include/dsp/none.h ****     {
  65:.\DSP\Include/dsp/none.h ****       if (data == 0U) { return 32U; }
  66:.\DSP\Include/dsp/none.h **** 
  67:.\DSP\Include/dsp/none.h ****       uint32_t count = 0U;
  68:.\DSP\Include/dsp/none.h ****       uint32_t mask = 0x80000000U;
ARM GAS  C:\Users\IVYLIU~1\AppData\Local\Temp\ccOzniAs.s 			page 7


  69:.\DSP\Include/dsp/none.h **** 
  70:.\DSP\Include/dsp/none.h ****       while ((data & mask) == 0U)
  71:.\DSP\Include/dsp/none.h ****       {
  72:.\DSP\Include/dsp/none.h ****         count += 1U;
  73:.\DSP\Include/dsp/none.h ****         mask = mask >> 1U;
  74:.\DSP\Include/dsp/none.h ****       }
  75:.\DSP\Include/dsp/none.h ****       return count;
  76:.\DSP\Include/dsp/none.h ****     }
  77:.\DSP\Include/dsp/none.h **** 
  78:.\DSP\Include/dsp/none.h ****   __STATIC_FORCEINLINE int32_t __SSAT(int32_t val, uint32_t sat)
  79:.\DSP\Include/dsp/none.h ****   {
  80:.\DSP\Include/dsp/none.h ****     if ((sat >= 1U) && (sat <= 32U))
  81:.\DSP\Include/dsp/none.h ****     {
  82:.\DSP\Include/dsp/none.h ****       const int32_t max = (int32_t)((1U << (sat - 1U)) - 1U);
  83:.\DSP\Include/dsp/none.h ****       const int32_t min = -1 - max ;
  84:.\DSP\Include/dsp/none.h ****       if (val > max)
  85:.\DSP\Include/dsp/none.h ****       {
  86:.\DSP\Include/dsp/none.h ****         return max;
  87:.\DSP\Include/dsp/none.h ****       }
  88:.\DSP\Include/dsp/none.h ****       else if (val < min)
  89:.\DSP\Include/dsp/none.h ****       {
  90:.\DSP\Include/dsp/none.h ****         return min;
  91:.\DSP\Include/dsp/none.h ****       }
  92:.\DSP\Include/dsp/none.h ****     }
  93:.\DSP\Include/dsp/none.h ****     return val;
  94:.\DSP\Include/dsp/none.h ****   }
  95:.\DSP\Include/dsp/none.h **** 
  96:.\DSP\Include/dsp/none.h ****   __STATIC_FORCEINLINE uint32_t __USAT(int32_t val, uint32_t sat)
  97:.\DSP\Include/dsp/none.h ****   {
  98:.\DSP\Include/dsp/none.h ****     if (sat <= 31U)
  99:.\DSP\Include/dsp/none.h ****     {
 100:.\DSP\Include/dsp/none.h ****       const uint32_t max = ((1U << sat) - 1U);
 101:.\DSP\Include/dsp/none.h ****       if (val > (int32_t)max)
 102:.\DSP\Include/dsp/none.h ****       {
 103:.\DSP\Include/dsp/none.h ****         return max;
 104:.\DSP\Include/dsp/none.h ****       }
 105:.\DSP\Include/dsp/none.h ****       else if (val < 0)
 106:.\DSP\Include/dsp/none.h ****       {
 107:.\DSP\Include/dsp/none.h ****         return 0U;
 108:.\DSP\Include/dsp/none.h ****       }
 109:.\DSP\Include/dsp/none.h ****     }
 110:.\DSP\Include/dsp/none.h ****     return (uint32_t)val;
 111:.\DSP\Include/dsp/none.h ****   }
 112:.\DSP\Include/dsp/none.h **** 
 113:.\DSP\Include/dsp/none.h ****  /**
 114:.\DSP\Include/dsp/none.h ****   \brief   Rotate Right in unsigned value (32 bit)
 115:.\DSP\Include/dsp/none.h ****   \details Rotate Right (immediate) provides the value of the contents of a register rotated by a v
 116:.\DSP\Include/dsp/none.h ****   \param [in]    op1  Value to rotate
 117:.\DSP\Include/dsp/none.h ****   \param [in]    op2  Number of Bits to rotate
 118:.\DSP\Include/dsp/none.h ****   \return               Rotated value
 119:.\DSP\Include/dsp/none.h ****  */
 120:.\DSP\Include/dsp/none.h **** __STATIC_FORCEINLINE uint32_t __ROR(uint32_t op1, uint32_t op2)
 121:.\DSP\Include/dsp/none.h **** {
 122:.\DSP\Include/dsp/none.h ****   op2 %= 32U;
 123:.\DSP\Include/dsp/none.h ****   if (op2 == 0U)
 124:.\DSP\Include/dsp/none.h ****   {
 125:.\DSP\Include/dsp/none.h ****     return op1;
ARM GAS  C:\Users\IVYLIU~1\AppData\Local\Temp\ccOzniAs.s 			page 8


 126:.\DSP\Include/dsp/none.h ****   }
 127:.\DSP\Include/dsp/none.h ****   return (op1 >> op2) | (op1 << (32U - op2));
 128:.\DSP\Include/dsp/none.h **** }
 129:.\DSP\Include/dsp/none.h **** 
 130:.\DSP\Include/dsp/none.h **** 
 131:.\DSP\Include/dsp/none.h **** #endif
 132:.\DSP\Include/dsp/none.h **** 
 133:.\DSP\Include/dsp/none.h **** /**
 134:.\DSP\Include/dsp/none.h ****    * @brief Clips Q63 to Q31 values.
 135:.\DSP\Include/dsp/none.h ****    */
 136:.\DSP\Include/dsp/none.h ****   __STATIC_FORCEINLINE q31_t clip_q63_to_q31(
 137:.\DSP\Include/dsp/none.h ****   q63_t x)
 138:.\DSP\Include/dsp/none.h ****   {
 139:.\DSP\Include/dsp/none.h ****     return ((q31_t) (x >> 32) != ((q31_t) x >> 31)) ?
 140:.\DSP\Include/dsp/none.h ****       ((0x7FFFFFFF ^ ((q31_t) (x >> 63)))) : (q31_t) x;
  68              		.loc 2 140 0
  69 0030 B4EBE07F 		cmp	r4, r0, asr #31
  70 0034 03D0     		beq	.L9
  71 0036 6FF00040 		mvn	r0, #-2147483648
  72              	.LVL7:
  73 003a 80EAE470 		eor	r0, r0, r4, asr #31
  74              	.L9:
  75              	.LBE5:
  76              	.LBE4:
  77              		.loc 1 207 0
  78 003e 1060     		str	r0, [r2]
  79              	.LVL8:
 208:.\DSP\Source\BasicMathFunctions/arm_shift_q31.c **** 
 209:.\DSP\Source\BasicMathFunctions/arm_shift_q31.c ****       /* Decrement loop counter */
 210:.\DSP\Source\BasicMathFunctions/arm_shift_q31.c ****       blkCnt--;
  80              		.loc 1 210 0
  81 0040 013B     		subs	r3, r3, #1
  82              	.LVL9:
 207:.\DSP\Source\BasicMathFunctions/arm_shift_q31.c **** 
  83              		.loc 1 207 0
  84 0042 3A46     		mov	r2, r7
  85 0044 3046     		mov	r0, r6
  86              	.LVL10:
  87              	.L2:
 202:.\DSP\Source\BasicMathFunctions/arm_shift_q31.c ****     {
  88              		.loc 1 202 0
  89 0046 002B     		cmp	r3, #0
  90 0048 DFD1     		bne	.L6
  91 004a BDE8F083 		pop	{r4, r5, r6, r7, r8, r9, pc}
  92              	.L8:
  93              	.LVL11:
 211:.\DSP\Source\BasicMathFunctions/arm_shift_q31.c ****     }
 212:.\DSP\Source\BasicMathFunctions/arm_shift_q31.c ****   }
 213:.\DSP\Source\BasicMathFunctions/arm_shift_q31.c ****   else
 214:.\DSP\Source\BasicMathFunctions/arm_shift_q31.c ****   {
 215:.\DSP\Source\BasicMathFunctions/arm_shift_q31.c ****     while (blkCnt > 0U)
 216:.\DSP\Source\BasicMathFunctions/arm_shift_q31.c ****     {
 217:.\DSP\Source\BasicMathFunctions/arm_shift_q31.c ****       /* C = A >> shiftBits */
 218:.\DSP\Source\BasicMathFunctions/arm_shift_q31.c **** 
 219:.\DSP\Source\BasicMathFunctions/arm_shift_q31.c ****       /* Shift input and store result in destination buffer. */
 220:.\DSP\Source\BasicMathFunctions/arm_shift_q31.c ****       *pDst++ = (*pSrc++ >> -shiftBits);
  94              		.loc 1 220 0
ARM GAS  C:\Users\IVYLIU~1\AppData\Local\Temp\ccOzniAs.s 			page 9


  95 004e 0468     		ldr	r4, [r0]
  96 0050 4D42     		negs	r5, r1
  97 0052 2C41     		asrs	r4, r4, r5
  98 0054 1460     		str	r4, [r2]
 221:.\DSP\Source\BasicMathFunctions/arm_shift_q31.c **** 
 222:.\DSP\Source\BasicMathFunctions/arm_shift_q31.c ****       /* Decrement loop counter */
 223:.\DSP\Source\BasicMathFunctions/arm_shift_q31.c ****       blkCnt--;
  99              		.loc 1 223 0
 100 0056 013B     		subs	r3, r3, #1
 101              	.LVL12:
 220:.\DSP\Source\BasicMathFunctions/arm_shift_q31.c **** 
 102              		.loc 1 220 0
 103 0058 0432     		adds	r2, r2, #4
 104              	.LVL13:
 105 005a 0430     		adds	r0, r0, #4
 106              	.LVL14:
 107              	.L3:
 215:.\DSP\Source\BasicMathFunctions/arm_shift_q31.c ****     {
 108              		.loc 1 215 0
 109 005c 002B     		cmp	r3, #0
 110 005e F6D1     		bne	.L8
 111 0060 BDE8F083 		pop	{r4, r5, r6, r7, r8, r9, pc}
 112              		.cfi_endproc
 113              	.LFE83:
 114              		.size	arm_shift_q31, .-arm_shift_q31
 115              		.text
 116              	.Letext0:
 117              		.file 3 "c:\\program files (x86)\\cypress\\psoc creator\\3.3\\psoc creator\\import\\gnu\\arm\\4.9.
 118              		.file 4 "c:\\program files (x86)\\cypress\\psoc creator\\3.3\\psoc creator\\import\\gnu\\arm\\4.9.
 119              		.file 5 ".\\DSP\\Include/arm_math_types.h"
 120              		.file 6 ".\\Core\\Include/cmsis_gcc.h"