ARM GAS  C:\Users\IVYLIU~1\AppData\Local\Temp\ccHWxCbk.s 			page 1


   1              		.syntax unified
   2              		.cpu cortex-m3
   3              		.fpu softvfp
   4              		.eabi_attribute 20, 1
   5              		.eabi_attribute 21, 1
   6              		.eabi_attribute 23, 3
   7              		.eabi_attribute 24, 1
   8              		.eabi_attribute 25, 1
   9              		.eabi_attribute 26, 1
  10              		.eabi_attribute 30, 1
  11              		.eabi_attribute 34, 1
  12              		.eabi_attribute 18, 4
  13              		.thumb
  14              		.file	"arm_cfft_radix4_f32.c"
  15              		.text
  16              	.Ltext0:
  17              		.cfi_sections	.debug_frame
  18              		.global	__aeabi_fadd
  19              		.global	__aeabi_fsub
  20              		.global	__aeabi_fmul
  21              		.section	.text.arm_radix4_butterfly_f32,"ax",%progbits
  22              		.align	2
  23              		.global	arm_radix4_butterfly_f32
  24              		.thumb
  25              		.thumb_func
  26              		.type	arm_radix4_butterfly_f32, %function
  27              	arm_radix4_butterfly_f32:
  28              	.LFB85:
  29              		.file 1 ".\\DSP\\Source\\TransformFunctions\\arm_cfft_radix4_f32.c"
   1:.\DSP\Source\TransformFunctions/arm_cfft_radix4_f32.c **** /* ----------------------------------------------------------------------
   2:.\DSP\Source\TransformFunctions/arm_cfft_radix4_f32.c ****  * Project:      CMSIS DSP Library
   3:.\DSP\Source\TransformFunctions/arm_cfft_radix4_f32.c ****  * Title:        arm_cfft_radix4_f32.c
   4:.\DSP\Source\TransformFunctions/arm_cfft_radix4_f32.c ****  * Description:  Radix-4 Decimation in Frequency CFFT & CIFFT Floating point processing function
   5:.\DSP\Source\TransformFunctions/arm_cfft_radix4_f32.c ****  *
   6:.\DSP\Source\TransformFunctions/arm_cfft_radix4_f32.c ****  * $Date:        23 April 2021
   7:.\DSP\Source\TransformFunctions/arm_cfft_radix4_f32.c ****  * $Revision:    V1.9.0
   8:.\DSP\Source\TransformFunctions/arm_cfft_radix4_f32.c ****  *
   9:.\DSP\Source\TransformFunctions/arm_cfft_radix4_f32.c ****  * Target Processor: Cortex-M and Cortex-A cores
  10:.\DSP\Source\TransformFunctions/arm_cfft_radix4_f32.c ****  * -------------------------------------------------------------------- */
  11:.\DSP\Source\TransformFunctions/arm_cfft_radix4_f32.c **** /*
  12:.\DSP\Source\TransformFunctions/arm_cfft_radix4_f32.c ****  * Copyright (C) 2010-2021 ARM Limited or its affiliates. All rights reserved.
  13:.\DSP\Source\TransformFunctions/arm_cfft_radix4_f32.c ****  *
  14:.\DSP\Source\TransformFunctions/arm_cfft_radix4_f32.c ****  * SPDX-License-Identifier: Apache-2.0
  15:.\DSP\Source\TransformFunctions/arm_cfft_radix4_f32.c ****  *
  16:.\DSP\Source\TransformFunctions/arm_cfft_radix4_f32.c ****  * Licensed under the Apache License, Version 2.0 (the License); you may
  17:.\DSP\Source\TransformFunctions/arm_cfft_radix4_f32.c ****  * not use this file except in compliance with the License.
  18:.\DSP\Source\TransformFunctions/arm_cfft_radix4_f32.c ****  * You may obtain a copy of the License at
  19:.\DSP\Source\TransformFunctions/arm_cfft_radix4_f32.c ****  *
  20:.\DSP\Source\TransformFunctions/arm_cfft_radix4_f32.c ****  * www.apache.org/licenses/LICENSE-2.0
  21:.\DSP\Source\TransformFunctions/arm_cfft_radix4_f32.c ****  *
  22:.\DSP\Source\TransformFunctions/arm_cfft_radix4_f32.c ****  * Unless required by applicable law or agreed to in writing, software
  23:.\DSP\Source\TransformFunctions/arm_cfft_radix4_f32.c ****  * distributed under the License is distributed on an AS IS BASIS, WITHOUT
  24:.\DSP\Source\TransformFunctions/arm_cfft_radix4_f32.c ****  * WARRANTIES OR CONDITIONS OF ANY KIND, either express or implied.
  25:.\DSP\Source\TransformFunctions/arm_cfft_radix4_f32.c ****  * See the License for the specific language governing permissions and
  26:.\DSP\Source\TransformFunctions/arm_cfft_radix4_f32.c ****  * limitations under the License.
  27:.\DSP\Source\TransformFunctions/arm_cfft_radix4_f32.c ****  */
  28:.\DSP\Source\TransformFunctions/arm_cfft_radix4_f32.c **** 
ARM GAS  C:\Users\IVYLIU~1\AppData\Local\Temp\ccHWxCbk.s 			page 2


  29:.\DSP\Source\TransformFunctions/arm_cfft_radix4_f32.c **** #include "dsp/transform_functions.h"
  30:.\DSP\Source\TransformFunctions/arm_cfft_radix4_f32.c **** 
  31:.\DSP\Source\TransformFunctions/arm_cfft_radix4_f32.c **** extern void arm_bitreversal_f32(
  32:.\DSP\Source\TransformFunctions/arm_cfft_radix4_f32.c ****         float32_t * pSrc,
  33:.\DSP\Source\TransformFunctions/arm_cfft_radix4_f32.c ****         uint16_t fftSize,
  34:.\DSP\Source\TransformFunctions/arm_cfft_radix4_f32.c ****         uint16_t bitRevFactor,
  35:.\DSP\Source\TransformFunctions/arm_cfft_radix4_f32.c ****   const uint16_t * pBitRevTab);
  36:.\DSP\Source\TransformFunctions/arm_cfft_radix4_f32.c **** 
  37:.\DSP\Source\TransformFunctions/arm_cfft_radix4_f32.c **** void arm_radix4_butterfly_f32(
  38:.\DSP\Source\TransformFunctions/arm_cfft_radix4_f32.c ****         float32_t * pSrc,
  39:.\DSP\Source\TransformFunctions/arm_cfft_radix4_f32.c ****         uint16_t fftLen,
  40:.\DSP\Source\TransformFunctions/arm_cfft_radix4_f32.c ****   const float32_t * pCoef,
  41:.\DSP\Source\TransformFunctions/arm_cfft_radix4_f32.c ****         uint16_t twidCoefModifier);
  42:.\DSP\Source\TransformFunctions/arm_cfft_radix4_f32.c **** 
  43:.\DSP\Source\TransformFunctions/arm_cfft_radix4_f32.c **** void arm_radix4_butterfly_inverse_f32(
  44:.\DSP\Source\TransformFunctions/arm_cfft_radix4_f32.c ****         float32_t * pSrc,
  45:.\DSP\Source\TransformFunctions/arm_cfft_radix4_f32.c ****         uint16_t fftLen,
  46:.\DSP\Source\TransformFunctions/arm_cfft_radix4_f32.c ****   const float32_t * pCoef,
  47:.\DSP\Source\TransformFunctions/arm_cfft_radix4_f32.c ****         uint16_t twidCoefModifier,
  48:.\DSP\Source\TransformFunctions/arm_cfft_radix4_f32.c ****         float32_t onebyfftLen);
  49:.\DSP\Source\TransformFunctions/arm_cfft_radix4_f32.c **** 
  50:.\DSP\Source\TransformFunctions/arm_cfft_radix4_f32.c **** 
  51:.\DSP\Source\TransformFunctions/arm_cfft_radix4_f32.c **** 
  52:.\DSP\Source\TransformFunctions/arm_cfft_radix4_f32.c **** 
  53:.\DSP\Source\TransformFunctions/arm_cfft_radix4_f32.c **** /**
  54:.\DSP\Source\TransformFunctions/arm_cfft_radix4_f32.c ****   @ingroup groupTransforms
  55:.\DSP\Source\TransformFunctions/arm_cfft_radix4_f32.c ****  */
  56:.\DSP\Source\TransformFunctions/arm_cfft_radix4_f32.c **** 
  57:.\DSP\Source\TransformFunctions/arm_cfft_radix4_f32.c **** /**
  58:.\DSP\Source\TransformFunctions/arm_cfft_radix4_f32.c ****   @addtogroup ComplexFFT
  59:.\DSP\Source\TransformFunctions/arm_cfft_radix4_f32.c ****   @{
  60:.\DSP\Source\TransformFunctions/arm_cfft_radix4_f32.c ****  */
  61:.\DSP\Source\TransformFunctions/arm_cfft_radix4_f32.c **** 
  62:.\DSP\Source\TransformFunctions/arm_cfft_radix4_f32.c **** 
  63:.\DSP\Source\TransformFunctions/arm_cfft_radix4_f32.c **** /**
  64:.\DSP\Source\TransformFunctions/arm_cfft_radix4_f32.c ****   @brief         Processing function for the floating-point Radix-4 CFFT/CIFFT.
  65:.\DSP\Source\TransformFunctions/arm_cfft_radix4_f32.c ****   @deprecated    Do not use this function. It has been superseded by \ref arm_cfft_f32 and will be 
  66:.\DSP\Source\TransformFunctions/arm_cfft_radix4_f32.c ****   @param[in]     S    points to an instance of the floating-point Radix-4 CFFT/CIFFT structure
  67:.\DSP\Source\TransformFunctions/arm_cfft_radix4_f32.c ****   @param[in,out] pSrc points to the complex data buffer of size <code>2*fftLen</code>. Processing o
  68:.\DSP\Source\TransformFunctions/arm_cfft_radix4_f32.c ****   @return        none
  69:.\DSP\Source\TransformFunctions/arm_cfft_radix4_f32.c ****  */
  70:.\DSP\Source\TransformFunctions/arm_cfft_radix4_f32.c **** 
  71:.\DSP\Source\TransformFunctions/arm_cfft_radix4_f32.c **** void arm_cfft_radix4_f32(
  72:.\DSP\Source\TransformFunctions/arm_cfft_radix4_f32.c ****   const arm_cfft_radix4_instance_f32 * S,
  73:.\DSP\Source\TransformFunctions/arm_cfft_radix4_f32.c ****         float32_t * pSrc)
  74:.\DSP\Source\TransformFunctions/arm_cfft_radix4_f32.c **** {
  75:.\DSP\Source\TransformFunctions/arm_cfft_radix4_f32.c ****    if (S->ifftFlag == 1U)
  76:.\DSP\Source\TransformFunctions/arm_cfft_radix4_f32.c ****    {
  77:.\DSP\Source\TransformFunctions/arm_cfft_radix4_f32.c ****       /*  Complex IFFT radix-4  */
  78:.\DSP\Source\TransformFunctions/arm_cfft_radix4_f32.c ****       arm_radix4_butterfly_inverse_f32(pSrc, S->fftLen, S->pTwiddle, S->twidCoefModifier, S->onebyf
  79:.\DSP\Source\TransformFunctions/arm_cfft_radix4_f32.c ****    }
  80:.\DSP\Source\TransformFunctions/arm_cfft_radix4_f32.c ****    else
  81:.\DSP\Source\TransformFunctions/arm_cfft_radix4_f32.c ****    {
  82:.\DSP\Source\TransformFunctions/arm_cfft_radix4_f32.c ****       /*  Complex FFT radix-4  */
  83:.\DSP\Source\TransformFunctions/arm_cfft_radix4_f32.c ****       arm_radix4_butterfly_f32(pSrc, S->fftLen, S->pTwiddle, S->twidCoefModifier);
  84:.\DSP\Source\TransformFunctions/arm_cfft_radix4_f32.c ****    }
  85:.\DSP\Source\TransformFunctions/arm_cfft_radix4_f32.c **** 
ARM GAS  C:\Users\IVYLIU~1\AppData\Local\Temp\ccHWxCbk.s 			page 3


  86:.\DSP\Source\TransformFunctions/arm_cfft_radix4_f32.c ****    if (S->bitReverseFlag == 1U)
  87:.\DSP\Source\TransformFunctions/arm_cfft_radix4_f32.c ****    {
  88:.\DSP\Source\TransformFunctions/arm_cfft_radix4_f32.c ****       /*  Bit Reversal */
  89:.\DSP\Source\TransformFunctions/arm_cfft_radix4_f32.c ****       arm_bitreversal_f32(pSrc, S->fftLen, S->bitRevFactor, S->pBitRevTable);
  90:.\DSP\Source\TransformFunctions/arm_cfft_radix4_f32.c ****    }
  91:.\DSP\Source\TransformFunctions/arm_cfft_radix4_f32.c **** 
  92:.\DSP\Source\TransformFunctions/arm_cfft_radix4_f32.c **** }
  93:.\DSP\Source\TransformFunctions/arm_cfft_radix4_f32.c **** 
  94:.\DSP\Source\TransformFunctions/arm_cfft_radix4_f32.c **** /**
  95:.\DSP\Source\TransformFunctions/arm_cfft_radix4_f32.c ****   @} end of ComplexFFT group
  96:.\DSP\Source\TransformFunctions/arm_cfft_radix4_f32.c ****  */
  97:.\DSP\Source\TransformFunctions/arm_cfft_radix4_f32.c **** 
  98:.\DSP\Source\TransformFunctions/arm_cfft_radix4_f32.c **** /* ----------------------------------------------------------------------
  99:.\DSP\Source\TransformFunctions/arm_cfft_radix4_f32.c ****  * Internal helper function used by the FFTs
 100:.\DSP\Source\TransformFunctions/arm_cfft_radix4_f32.c ****  * ---------------------------------------------------------------------- */
 101:.\DSP\Source\TransformFunctions/arm_cfft_radix4_f32.c **** 
 102:.\DSP\Source\TransformFunctions/arm_cfft_radix4_f32.c **** /**
 103:.\DSP\Source\TransformFunctions/arm_cfft_radix4_f32.c ****   brief         Core function for the floating-point CFFT butterfly process.
 104:.\DSP\Source\TransformFunctions/arm_cfft_radix4_f32.c ****   param[in,out] pSrc             points to the in-place buffer of floating-point data type
 105:.\DSP\Source\TransformFunctions/arm_cfft_radix4_f32.c ****   param[in]     fftLen           length of the FFT
 106:.\DSP\Source\TransformFunctions/arm_cfft_radix4_f32.c ****   param[in]     pCoef            points to the twiddle coefficient buffer
 107:.\DSP\Source\TransformFunctions/arm_cfft_radix4_f32.c ****   param[in]     twidCoefModifier twiddle coefficient modifier that supports different size FFTs wit
 108:.\DSP\Source\TransformFunctions/arm_cfft_radix4_f32.c ****   return        none
 109:.\DSP\Source\TransformFunctions/arm_cfft_radix4_f32.c ****  */
 110:.\DSP\Source\TransformFunctions/arm_cfft_radix4_f32.c **** 
 111:.\DSP\Source\TransformFunctions/arm_cfft_radix4_f32.c **** void arm_radix4_butterfly_f32(
 112:.\DSP\Source\TransformFunctions/arm_cfft_radix4_f32.c ****         float32_t * pSrc,
 113:.\DSP\Source\TransformFunctions/arm_cfft_radix4_f32.c ****         uint16_t fftLen,
 114:.\DSP\Source\TransformFunctions/arm_cfft_radix4_f32.c ****   const float32_t * pCoef,
 115:.\DSP\Source\TransformFunctions/arm_cfft_radix4_f32.c ****         uint16_t twidCoefModifier)
 116:.\DSP\Source\TransformFunctions/arm_cfft_radix4_f32.c **** {
  30              		.loc 1 116 0
  31              		.cfi_startproc
  32              		@ args = 0, pretend = 0, frame = 88
  33              		@ frame_needed = 0, uses_anonymous_args = 0
  34              	.LVL0:
  35 0000 2DE9F04F 		push	{r4, r5, r6, r7, r8, r9, r10, fp, lr}
  36              		.cfi_def_cfa_offset 36
  37              		.cfi_offset 4, -36
  38              		.cfi_offset 5, -32
  39              		.cfi_offset 6, -28
  40              		.cfi_offset 7, -24
  41              		.cfi_offset 8, -20
  42              		.cfi_offset 9, -16
  43              		.cfi_offset 10, -12
  44              		.cfi_offset 11, -8
  45              		.cfi_offset 14, -4
  46 0004 97B0     		sub	sp, sp, #92
  47              		.cfi_def_cfa_offset 128
  48 0006 1492     		str	r2, [sp, #80]
  49 0008 1393     		str	r3, [sp, #76]
 117:.\DSP\Source\TransformFunctions/arm_cfft_radix4_f32.c ****         float32_t co1, co2, co3, si1, si2, si3;
 118:.\DSP\Source\TransformFunctions/arm_cfft_radix4_f32.c ****         uint32_t ia1, ia2, ia3;
 119:.\DSP\Source\TransformFunctions/arm_cfft_radix4_f32.c ****         uint32_t i0, i1, i2, i3;
 120:.\DSP\Source\TransformFunctions/arm_cfft_radix4_f32.c ****         uint32_t n1, n2, j, k;
 121:.\DSP\Source\TransformFunctions/arm_cfft_radix4_f32.c **** 
 122:.\DSP\Source\TransformFunctions/arm_cfft_radix4_f32.c **** #if defined (ARM_MATH_LOOPUNROLL)
ARM GAS  C:\Users\IVYLIU~1\AppData\Local\Temp\ccHWxCbk.s 			page 4


 123:.\DSP\Source\TransformFunctions/arm_cfft_radix4_f32.c **** 
 124:.\DSP\Source\TransformFunctions/arm_cfft_radix4_f32.c ****         float32_t xaIn, yaIn, xbIn, ybIn, xcIn, ycIn, xdIn, ydIn;
 125:.\DSP\Source\TransformFunctions/arm_cfft_radix4_f32.c ****         float32_t Xaplusc, Xbplusd, Yaplusc, Ybplusd, Xaminusc, Xbminusd, Yaminusc,
 126:.\DSP\Source\TransformFunctions/arm_cfft_radix4_f32.c ****         Ybminusd;
 127:.\DSP\Source\TransformFunctions/arm_cfft_radix4_f32.c ****         float32_t Xb12C_out, Yb12C_out, Xc12C_out, Yc12C_out, Xd12C_out, Yd12C_out;
 128:.\DSP\Source\TransformFunctions/arm_cfft_radix4_f32.c ****         float32_t Xb12_out, Yb12_out, Xc12_out, Yc12_out, Xd12_out, Yd12_out;
 129:.\DSP\Source\TransformFunctions/arm_cfft_radix4_f32.c ****         float32_t *ptr1;
 130:.\DSP\Source\TransformFunctions/arm_cfft_radix4_f32.c ****         float32_t p0,p1,p2,p3,p4,p5;
 131:.\DSP\Source\TransformFunctions/arm_cfft_radix4_f32.c ****         float32_t a0,a1,a2,a3,a4,a5,a6,a7;
 132:.\DSP\Source\TransformFunctions/arm_cfft_radix4_f32.c **** 
 133:.\DSP\Source\TransformFunctions/arm_cfft_radix4_f32.c ****    /*  Initializations for the first stage */
 134:.\DSP\Source\TransformFunctions/arm_cfft_radix4_f32.c ****    n2 = fftLen;
 135:.\DSP\Source\TransformFunctions/arm_cfft_radix4_f32.c ****    n1 = n2;
 136:.\DSP\Source\TransformFunctions/arm_cfft_radix4_f32.c **** 
 137:.\DSP\Source\TransformFunctions/arm_cfft_radix4_f32.c ****    /* n2 = fftLen/4 */
 138:.\DSP\Source\TransformFunctions/arm_cfft_radix4_f32.c ****    n2 >>= 2U;
 139:.\DSP\Source\TransformFunctions/arm_cfft_radix4_f32.c ****    i0 = 0U;
 140:.\DSP\Source\TransformFunctions/arm_cfft_radix4_f32.c ****    ia1 = 0U;
 141:.\DSP\Source\TransformFunctions/arm_cfft_radix4_f32.c **** 
 142:.\DSP\Source\TransformFunctions/arm_cfft_radix4_f32.c ****    j = n2;
 143:.\DSP\Source\TransformFunctions/arm_cfft_radix4_f32.c **** 
 144:.\DSP\Source\TransformFunctions/arm_cfft_radix4_f32.c ****    /*  Calculation of first stage */
 145:.\DSP\Source\TransformFunctions/arm_cfft_radix4_f32.c ****    do
 146:.\DSP\Source\TransformFunctions/arm_cfft_radix4_f32.c ****    {
 147:.\DSP\Source\TransformFunctions/arm_cfft_radix4_f32.c ****       /*  index calculation for the input as, */
 148:.\DSP\Source\TransformFunctions/arm_cfft_radix4_f32.c ****       /*  pSrc[i0 + 0], pSrc[i0 + fftLen/4], pSrc[i0 + fftLen/2], pSrc[i0 + 3fftLen/4] */
 149:.\DSP\Source\TransformFunctions/arm_cfft_radix4_f32.c ****       i1 = i0 + n2;
 150:.\DSP\Source\TransformFunctions/arm_cfft_radix4_f32.c ****       i2 = i1 + n2;
 151:.\DSP\Source\TransformFunctions/arm_cfft_radix4_f32.c ****       i3 = i2 + n2;
 152:.\DSP\Source\TransformFunctions/arm_cfft_radix4_f32.c **** 
 153:.\DSP\Source\TransformFunctions/arm_cfft_radix4_f32.c ****       xaIn = pSrc[(2U * i0)];
 154:.\DSP\Source\TransformFunctions/arm_cfft_radix4_f32.c ****       yaIn = pSrc[(2U * i0) + 1U];
 155:.\DSP\Source\TransformFunctions/arm_cfft_radix4_f32.c **** 
 156:.\DSP\Source\TransformFunctions/arm_cfft_radix4_f32.c ****       xbIn = pSrc[(2U * i1)];
 157:.\DSP\Source\TransformFunctions/arm_cfft_radix4_f32.c ****       ybIn = pSrc[(2U * i1) + 1U];
 158:.\DSP\Source\TransformFunctions/arm_cfft_radix4_f32.c **** 
 159:.\DSP\Source\TransformFunctions/arm_cfft_radix4_f32.c ****       xcIn = pSrc[(2U * i2)];
 160:.\DSP\Source\TransformFunctions/arm_cfft_radix4_f32.c ****       ycIn = pSrc[(2U * i2) + 1U];
 161:.\DSP\Source\TransformFunctions/arm_cfft_radix4_f32.c **** 
 162:.\DSP\Source\TransformFunctions/arm_cfft_radix4_f32.c ****       xdIn = pSrc[(2U * i3)];
 163:.\DSP\Source\TransformFunctions/arm_cfft_radix4_f32.c ****       ydIn = pSrc[(2U * i3) + 1U];
 164:.\DSP\Source\TransformFunctions/arm_cfft_radix4_f32.c **** 
 165:.\DSP\Source\TransformFunctions/arm_cfft_radix4_f32.c ****       /* xa + xc */
 166:.\DSP\Source\TransformFunctions/arm_cfft_radix4_f32.c ****       Xaplusc = xaIn + xcIn;
 167:.\DSP\Source\TransformFunctions/arm_cfft_radix4_f32.c ****       /* xb + xd */
 168:.\DSP\Source\TransformFunctions/arm_cfft_radix4_f32.c ****       Xbplusd = xbIn + xdIn;
 169:.\DSP\Source\TransformFunctions/arm_cfft_radix4_f32.c ****       /* ya + yc */
 170:.\DSP\Source\TransformFunctions/arm_cfft_radix4_f32.c ****       Yaplusc = yaIn + ycIn;
 171:.\DSP\Source\TransformFunctions/arm_cfft_radix4_f32.c ****       /* yb + yd */
 172:.\DSP\Source\TransformFunctions/arm_cfft_radix4_f32.c ****       Ybplusd = ybIn + ydIn;
 173:.\DSP\Source\TransformFunctions/arm_cfft_radix4_f32.c **** 
 174:.\DSP\Source\TransformFunctions/arm_cfft_radix4_f32.c ****       /*  index calculation for the coefficients */
 175:.\DSP\Source\TransformFunctions/arm_cfft_radix4_f32.c ****       ia2 = ia1 + ia1;
 176:.\DSP\Source\TransformFunctions/arm_cfft_radix4_f32.c ****       co2 = pCoef[ia2 * 2U];
 177:.\DSP\Source\TransformFunctions/arm_cfft_radix4_f32.c ****       si2 = pCoef[(ia2 * 2U) + 1U];
 178:.\DSP\Source\TransformFunctions/arm_cfft_radix4_f32.c **** 
 179:.\DSP\Source\TransformFunctions/arm_cfft_radix4_f32.c ****       /* xa - xc */
ARM GAS  C:\Users\IVYLIU~1\AppData\Local\Temp\ccHWxCbk.s 			page 5


 180:.\DSP\Source\TransformFunctions/arm_cfft_radix4_f32.c ****       Xaminusc = xaIn - xcIn;
 181:.\DSP\Source\TransformFunctions/arm_cfft_radix4_f32.c ****       /* xb - xd */
 182:.\DSP\Source\TransformFunctions/arm_cfft_radix4_f32.c ****       Xbminusd = xbIn - xdIn;
 183:.\DSP\Source\TransformFunctions/arm_cfft_radix4_f32.c ****       /* ya - yc */
 184:.\DSP\Source\TransformFunctions/arm_cfft_radix4_f32.c ****       Yaminusc = yaIn - ycIn;
 185:.\DSP\Source\TransformFunctions/arm_cfft_radix4_f32.c ****       /* yb - yd */
 186:.\DSP\Source\TransformFunctions/arm_cfft_radix4_f32.c ****       Ybminusd = ybIn - ydIn;
 187:.\DSP\Source\TransformFunctions/arm_cfft_radix4_f32.c **** 
 188:.\DSP\Source\TransformFunctions/arm_cfft_radix4_f32.c ****       /* xa' = xa + xb + xc + xd */
 189:.\DSP\Source\TransformFunctions/arm_cfft_radix4_f32.c ****       pSrc[(2U * i0)] = Xaplusc + Xbplusd;
 190:.\DSP\Source\TransformFunctions/arm_cfft_radix4_f32.c ****       /* ya' = ya + yb + yc + yd */
 191:.\DSP\Source\TransformFunctions/arm_cfft_radix4_f32.c ****       pSrc[(2U * i0) + 1U] = Yaplusc + Ybplusd;
 192:.\DSP\Source\TransformFunctions/arm_cfft_radix4_f32.c **** 
 193:.\DSP\Source\TransformFunctions/arm_cfft_radix4_f32.c ****       /* (xa - xc) + (yb - yd) */
 194:.\DSP\Source\TransformFunctions/arm_cfft_radix4_f32.c ****       Xb12C_out = (Xaminusc + Ybminusd);
 195:.\DSP\Source\TransformFunctions/arm_cfft_radix4_f32.c ****       /* (ya - yc) + (xb - xd) */
 196:.\DSP\Source\TransformFunctions/arm_cfft_radix4_f32.c ****       Yb12C_out = (Yaminusc - Xbminusd);
 197:.\DSP\Source\TransformFunctions/arm_cfft_radix4_f32.c ****       /* (xa + xc) - (xb + xd) */
 198:.\DSP\Source\TransformFunctions/arm_cfft_radix4_f32.c ****       Xc12C_out = (Xaplusc - Xbplusd);
 199:.\DSP\Source\TransformFunctions/arm_cfft_radix4_f32.c ****       /* (ya + yc) - (yb + yd) */
 200:.\DSP\Source\TransformFunctions/arm_cfft_radix4_f32.c ****       Yc12C_out = (Yaplusc - Ybplusd);
 201:.\DSP\Source\TransformFunctions/arm_cfft_radix4_f32.c ****       /* (xa - xc) - (yb - yd) */
 202:.\DSP\Source\TransformFunctions/arm_cfft_radix4_f32.c ****       Xd12C_out = (Xaminusc - Ybminusd);
 203:.\DSP\Source\TransformFunctions/arm_cfft_radix4_f32.c ****       /* (ya - yc) + (xb - xd) */
 204:.\DSP\Source\TransformFunctions/arm_cfft_radix4_f32.c ****       Yd12C_out = (Xbminusd + Yaminusc);
 205:.\DSP\Source\TransformFunctions/arm_cfft_radix4_f32.c **** 
 206:.\DSP\Source\TransformFunctions/arm_cfft_radix4_f32.c ****       co1 = pCoef[ia1 * 2U];
 207:.\DSP\Source\TransformFunctions/arm_cfft_radix4_f32.c ****       si1 = pCoef[(ia1 * 2U) + 1U];
 208:.\DSP\Source\TransformFunctions/arm_cfft_radix4_f32.c **** 
 209:.\DSP\Source\TransformFunctions/arm_cfft_radix4_f32.c ****       /*  index calculation for the coefficients */
 210:.\DSP\Source\TransformFunctions/arm_cfft_radix4_f32.c ****       ia3 = ia2 + ia1;
 211:.\DSP\Source\TransformFunctions/arm_cfft_radix4_f32.c ****       co3 = pCoef[ia3 * 2U];
 212:.\DSP\Source\TransformFunctions/arm_cfft_radix4_f32.c ****       si3 = pCoef[(ia3 * 2U) + 1U];
 213:.\DSP\Source\TransformFunctions/arm_cfft_radix4_f32.c **** 
 214:.\DSP\Source\TransformFunctions/arm_cfft_radix4_f32.c ****       Xb12_out = Xb12C_out * co1;
 215:.\DSP\Source\TransformFunctions/arm_cfft_radix4_f32.c ****       Yb12_out = Yb12C_out * co1;
 216:.\DSP\Source\TransformFunctions/arm_cfft_radix4_f32.c ****       Xc12_out = Xc12C_out * co2;
 217:.\DSP\Source\TransformFunctions/arm_cfft_radix4_f32.c ****       Yc12_out = Yc12C_out * co2;
 218:.\DSP\Source\TransformFunctions/arm_cfft_radix4_f32.c ****       Xd12_out = Xd12C_out * co3;
 219:.\DSP\Source\TransformFunctions/arm_cfft_radix4_f32.c ****       Yd12_out = Yd12C_out * co3;
 220:.\DSP\Source\TransformFunctions/arm_cfft_radix4_f32.c **** 
 221:.\DSP\Source\TransformFunctions/arm_cfft_radix4_f32.c ****       /* xb' = (xa+yb-xc-yd)co1 - (ya-xb-yc+xd)(si1) */
 222:.\DSP\Source\TransformFunctions/arm_cfft_radix4_f32.c ****       //Xb12_out -= Yb12C_out * si1;
 223:.\DSP\Source\TransformFunctions/arm_cfft_radix4_f32.c ****       p0 = Yb12C_out * si1;
 224:.\DSP\Source\TransformFunctions/arm_cfft_radix4_f32.c ****       /* yb' = (ya-xb-yc+xd)co1 + (xa+yb-xc-yd)(si1) */
 225:.\DSP\Source\TransformFunctions/arm_cfft_radix4_f32.c ****       //Yb12_out += Xb12C_out * si1;
 226:.\DSP\Source\TransformFunctions/arm_cfft_radix4_f32.c ****       p1 = Xb12C_out * si1;
 227:.\DSP\Source\TransformFunctions/arm_cfft_radix4_f32.c ****       /* xc' = (xa-xb+xc-xd)co2 - (ya-yb+yc-yd)(si2) */
 228:.\DSP\Source\TransformFunctions/arm_cfft_radix4_f32.c ****       //Xc12_out -= Yc12C_out * si2;
 229:.\DSP\Source\TransformFunctions/arm_cfft_radix4_f32.c ****       p2 = Yc12C_out * si2;
 230:.\DSP\Source\TransformFunctions/arm_cfft_radix4_f32.c ****       /* yc' = (ya-yb+yc-yd)co2 + (xa-xb+xc-xd)(si2) */
 231:.\DSP\Source\TransformFunctions/arm_cfft_radix4_f32.c ****       //Yc12_out += Xc12C_out * si2;
 232:.\DSP\Source\TransformFunctions/arm_cfft_radix4_f32.c ****       p3 = Xc12C_out * si2;
 233:.\DSP\Source\TransformFunctions/arm_cfft_radix4_f32.c ****       /* xd' = (xa-yb-xc+yd)co3 - (ya+xb-yc-xd)(si3) */
 234:.\DSP\Source\TransformFunctions/arm_cfft_radix4_f32.c ****       //Xd12_out -= Yd12C_out * si3;
 235:.\DSP\Source\TransformFunctions/arm_cfft_radix4_f32.c ****       p4 = Yd12C_out * si3;
 236:.\DSP\Source\TransformFunctions/arm_cfft_radix4_f32.c ****       /* yd' = (ya+xb-yc-xd)co3 + (xa-yb-xc+yd)(si3) */
ARM GAS  C:\Users\IVYLIU~1\AppData\Local\Temp\ccHWxCbk.s 			page 6


 237:.\DSP\Source\TransformFunctions/arm_cfft_radix4_f32.c ****       //Yd12_out += Xd12C_out * si3;
 238:.\DSP\Source\TransformFunctions/arm_cfft_radix4_f32.c ****       p5 = Xd12C_out * si3;
 239:.\DSP\Source\TransformFunctions/arm_cfft_radix4_f32.c **** 
 240:.\DSP\Source\TransformFunctions/arm_cfft_radix4_f32.c ****       Xb12_out += p0;
 241:.\DSP\Source\TransformFunctions/arm_cfft_radix4_f32.c ****       Yb12_out -= p1;
 242:.\DSP\Source\TransformFunctions/arm_cfft_radix4_f32.c ****       Xc12_out += p2;
 243:.\DSP\Source\TransformFunctions/arm_cfft_radix4_f32.c ****       Yc12_out -= p3;
 244:.\DSP\Source\TransformFunctions/arm_cfft_radix4_f32.c ****       Xd12_out += p4;
 245:.\DSP\Source\TransformFunctions/arm_cfft_radix4_f32.c ****       Yd12_out -= p5;
 246:.\DSP\Source\TransformFunctions/arm_cfft_radix4_f32.c **** 
 247:.\DSP\Source\TransformFunctions/arm_cfft_radix4_f32.c ****       /* xc' = (xa-xb+xc-xd)co2 + (ya-yb+yc-yd)(si2) */
 248:.\DSP\Source\TransformFunctions/arm_cfft_radix4_f32.c ****       pSrc[2U * i1] = Xc12_out;
 249:.\DSP\Source\TransformFunctions/arm_cfft_radix4_f32.c **** 
 250:.\DSP\Source\TransformFunctions/arm_cfft_radix4_f32.c ****       /* yc' = (ya-yb+yc-yd)co2 - (xa-xb+xc-xd)(si2) */
 251:.\DSP\Source\TransformFunctions/arm_cfft_radix4_f32.c ****       pSrc[(2U * i1) + 1U] = Yc12_out;
 252:.\DSP\Source\TransformFunctions/arm_cfft_radix4_f32.c **** 
 253:.\DSP\Source\TransformFunctions/arm_cfft_radix4_f32.c ****       /* xb' = (xa+yb-xc-yd)co1 + (ya-xb-yc+xd)(si1) */
 254:.\DSP\Source\TransformFunctions/arm_cfft_radix4_f32.c ****       pSrc[2U * i2] = Xb12_out;
 255:.\DSP\Source\TransformFunctions/arm_cfft_radix4_f32.c **** 
 256:.\DSP\Source\TransformFunctions/arm_cfft_radix4_f32.c ****       /* yb' = (ya-xb-yc+xd)co1 - (xa+yb-xc-yd)(si1) */
 257:.\DSP\Source\TransformFunctions/arm_cfft_radix4_f32.c ****       pSrc[(2U * i2) + 1U] = Yb12_out;
 258:.\DSP\Source\TransformFunctions/arm_cfft_radix4_f32.c **** 
 259:.\DSP\Source\TransformFunctions/arm_cfft_radix4_f32.c ****       /* xd' = (xa-yb-xc+yd)co3 + (ya+xb-yc-xd)(si3) */
 260:.\DSP\Source\TransformFunctions/arm_cfft_radix4_f32.c ****       pSrc[2U * i3] = Xd12_out;
 261:.\DSP\Source\TransformFunctions/arm_cfft_radix4_f32.c **** 
 262:.\DSP\Source\TransformFunctions/arm_cfft_radix4_f32.c ****       /* yd' = (ya+xb-yc-xd)co3 - (xa-yb-xc+yd)(si3) */
 263:.\DSP\Source\TransformFunctions/arm_cfft_radix4_f32.c ****       pSrc[(2U * i3) + 1U] = Yd12_out;
 264:.\DSP\Source\TransformFunctions/arm_cfft_radix4_f32.c **** 
 265:.\DSP\Source\TransformFunctions/arm_cfft_radix4_f32.c ****       /*  Twiddle coefficients index modifier */
 266:.\DSP\Source\TransformFunctions/arm_cfft_radix4_f32.c ****       ia1 += twidCoefModifier;
 267:.\DSP\Source\TransformFunctions/arm_cfft_radix4_f32.c **** 
 268:.\DSP\Source\TransformFunctions/arm_cfft_radix4_f32.c ****       /*  Updating input index */
 269:.\DSP\Source\TransformFunctions/arm_cfft_radix4_f32.c ****       i0++;
 270:.\DSP\Source\TransformFunctions/arm_cfft_radix4_f32.c **** 
 271:.\DSP\Source\TransformFunctions/arm_cfft_radix4_f32.c ****    }
 272:.\DSP\Source\TransformFunctions/arm_cfft_radix4_f32.c ****    while (--j);
 273:.\DSP\Source\TransformFunctions/arm_cfft_radix4_f32.c **** 
 274:.\DSP\Source\TransformFunctions/arm_cfft_radix4_f32.c ****    twidCoefModifier <<= 2U;
 275:.\DSP\Source\TransformFunctions/arm_cfft_radix4_f32.c **** 
 276:.\DSP\Source\TransformFunctions/arm_cfft_radix4_f32.c ****    /*  Calculation of second stage to excluding last stage */
 277:.\DSP\Source\TransformFunctions/arm_cfft_radix4_f32.c ****    for (k = fftLen >> 2U; k > 4U; k >>= 2U)
 278:.\DSP\Source\TransformFunctions/arm_cfft_radix4_f32.c ****    {
 279:.\DSP\Source\TransformFunctions/arm_cfft_radix4_f32.c ****       /*  Initializations for the first stage */
 280:.\DSP\Source\TransformFunctions/arm_cfft_radix4_f32.c ****       n1 = n2;
 281:.\DSP\Source\TransformFunctions/arm_cfft_radix4_f32.c ****       n2 >>= 2U;
 282:.\DSP\Source\TransformFunctions/arm_cfft_radix4_f32.c ****       ia1 = 0U;
 283:.\DSP\Source\TransformFunctions/arm_cfft_radix4_f32.c **** 
 284:.\DSP\Source\TransformFunctions/arm_cfft_radix4_f32.c ****       /*  Calculation of first stage */
 285:.\DSP\Source\TransformFunctions/arm_cfft_radix4_f32.c ****       j = 0;
 286:.\DSP\Source\TransformFunctions/arm_cfft_radix4_f32.c ****       do
 287:.\DSP\Source\TransformFunctions/arm_cfft_radix4_f32.c ****       {
 288:.\DSP\Source\TransformFunctions/arm_cfft_radix4_f32.c ****          /*  index calculation for the coefficients */
 289:.\DSP\Source\TransformFunctions/arm_cfft_radix4_f32.c ****          ia2 = ia1 + ia1;
 290:.\DSP\Source\TransformFunctions/arm_cfft_radix4_f32.c ****          ia3 = ia2 + ia1;
 291:.\DSP\Source\TransformFunctions/arm_cfft_radix4_f32.c ****          co1 = pCoef[(ia1 * 2U)];
 292:.\DSP\Source\TransformFunctions/arm_cfft_radix4_f32.c ****          si1 = pCoef[(ia1 * 2U) + 1U];
 293:.\DSP\Source\TransformFunctions/arm_cfft_radix4_f32.c ****          co2 = pCoef[(ia2 * 2U)];
ARM GAS  C:\Users\IVYLIU~1\AppData\Local\Temp\ccHWxCbk.s 			page 7


 294:.\DSP\Source\TransformFunctions/arm_cfft_radix4_f32.c ****          si2 = pCoef[(ia2 * 2U) + 1U];
 295:.\DSP\Source\TransformFunctions/arm_cfft_radix4_f32.c ****          co3 = pCoef[(ia3 * 2U)];
 296:.\DSP\Source\TransformFunctions/arm_cfft_radix4_f32.c ****          si3 = pCoef[(ia3 * 2U) + 1U];
 297:.\DSP\Source\TransformFunctions/arm_cfft_radix4_f32.c **** 
 298:.\DSP\Source\TransformFunctions/arm_cfft_radix4_f32.c ****          /*  Twiddle coefficients index modifier */
 299:.\DSP\Source\TransformFunctions/arm_cfft_radix4_f32.c ****          ia1 += twidCoefModifier;
 300:.\DSP\Source\TransformFunctions/arm_cfft_radix4_f32.c **** 
 301:.\DSP\Source\TransformFunctions/arm_cfft_radix4_f32.c ****          i0 = j;
 302:.\DSP\Source\TransformFunctions/arm_cfft_radix4_f32.c ****          do
 303:.\DSP\Source\TransformFunctions/arm_cfft_radix4_f32.c ****          {
 304:.\DSP\Source\TransformFunctions/arm_cfft_radix4_f32.c ****             /*  index calculation for the input as, */
 305:.\DSP\Source\TransformFunctions/arm_cfft_radix4_f32.c ****             /*  pSrc[i0 + 0], pSrc[i0 + fftLen/4], pSrc[i0 + fftLen/2], pSrc[i0 + 3fftLen/4] */
 306:.\DSP\Source\TransformFunctions/arm_cfft_radix4_f32.c ****             i1 = i0 + n2;
 307:.\DSP\Source\TransformFunctions/arm_cfft_radix4_f32.c ****             i2 = i1 + n2;
 308:.\DSP\Source\TransformFunctions/arm_cfft_radix4_f32.c ****             i3 = i2 + n2;
 309:.\DSP\Source\TransformFunctions/arm_cfft_radix4_f32.c **** 
 310:.\DSP\Source\TransformFunctions/arm_cfft_radix4_f32.c ****             xaIn = pSrc[(2U * i0)];
 311:.\DSP\Source\TransformFunctions/arm_cfft_radix4_f32.c ****             yaIn = pSrc[(2U * i0) + 1U];
 312:.\DSP\Source\TransformFunctions/arm_cfft_radix4_f32.c **** 
 313:.\DSP\Source\TransformFunctions/arm_cfft_radix4_f32.c ****             xbIn = pSrc[(2U * i1)];
 314:.\DSP\Source\TransformFunctions/arm_cfft_radix4_f32.c ****             ybIn = pSrc[(2U * i1) + 1U];
 315:.\DSP\Source\TransformFunctions/arm_cfft_radix4_f32.c **** 
 316:.\DSP\Source\TransformFunctions/arm_cfft_radix4_f32.c ****             xcIn = pSrc[(2U * i2)];
 317:.\DSP\Source\TransformFunctions/arm_cfft_radix4_f32.c ****             ycIn = pSrc[(2U * i2) + 1U];
 318:.\DSP\Source\TransformFunctions/arm_cfft_radix4_f32.c **** 
 319:.\DSP\Source\TransformFunctions/arm_cfft_radix4_f32.c ****             xdIn = pSrc[(2U * i3)];
 320:.\DSP\Source\TransformFunctions/arm_cfft_radix4_f32.c ****             ydIn = pSrc[(2U * i3) + 1U];
 321:.\DSP\Source\TransformFunctions/arm_cfft_radix4_f32.c **** 
 322:.\DSP\Source\TransformFunctions/arm_cfft_radix4_f32.c ****             /* xa - xc */
 323:.\DSP\Source\TransformFunctions/arm_cfft_radix4_f32.c ****             Xaminusc = xaIn - xcIn;
 324:.\DSP\Source\TransformFunctions/arm_cfft_radix4_f32.c ****             /* (xb - xd) */
 325:.\DSP\Source\TransformFunctions/arm_cfft_radix4_f32.c ****             Xbminusd = xbIn - xdIn;
 326:.\DSP\Source\TransformFunctions/arm_cfft_radix4_f32.c ****             /* ya - yc */
 327:.\DSP\Source\TransformFunctions/arm_cfft_radix4_f32.c ****             Yaminusc = yaIn - ycIn;
 328:.\DSP\Source\TransformFunctions/arm_cfft_radix4_f32.c ****             /* (yb - yd) */
 329:.\DSP\Source\TransformFunctions/arm_cfft_radix4_f32.c ****             Ybminusd = ybIn - ydIn;
 330:.\DSP\Source\TransformFunctions/arm_cfft_radix4_f32.c **** 
 331:.\DSP\Source\TransformFunctions/arm_cfft_radix4_f32.c ****             /* xa + xc */
 332:.\DSP\Source\TransformFunctions/arm_cfft_radix4_f32.c ****             Xaplusc = xaIn + xcIn;
 333:.\DSP\Source\TransformFunctions/arm_cfft_radix4_f32.c ****             /* xb + xd */
 334:.\DSP\Source\TransformFunctions/arm_cfft_radix4_f32.c ****             Xbplusd = xbIn + xdIn;
 335:.\DSP\Source\TransformFunctions/arm_cfft_radix4_f32.c ****             /* ya + yc */
 336:.\DSP\Source\TransformFunctions/arm_cfft_radix4_f32.c ****             Yaplusc = yaIn + ycIn;
 337:.\DSP\Source\TransformFunctions/arm_cfft_radix4_f32.c ****             /* yb + yd */
 338:.\DSP\Source\TransformFunctions/arm_cfft_radix4_f32.c ****             Ybplusd = ybIn + ydIn;
 339:.\DSP\Source\TransformFunctions/arm_cfft_radix4_f32.c **** 
 340:.\DSP\Source\TransformFunctions/arm_cfft_radix4_f32.c ****             /* (xa - xc) + (yb - yd) */
 341:.\DSP\Source\TransformFunctions/arm_cfft_radix4_f32.c ****             Xb12C_out = (Xaminusc + Ybminusd);
 342:.\DSP\Source\TransformFunctions/arm_cfft_radix4_f32.c ****             /* (ya - yc) -  (xb - xd) */
 343:.\DSP\Source\TransformFunctions/arm_cfft_radix4_f32.c ****             Yb12C_out = (Yaminusc - Xbminusd);
 344:.\DSP\Source\TransformFunctions/arm_cfft_radix4_f32.c ****             /* xa + xc -(xb + xd) */
 345:.\DSP\Source\TransformFunctions/arm_cfft_radix4_f32.c ****             Xc12C_out = (Xaplusc - Xbplusd);
 346:.\DSP\Source\TransformFunctions/arm_cfft_radix4_f32.c ****             /* (ya + yc) - (yb + yd) */
 347:.\DSP\Source\TransformFunctions/arm_cfft_radix4_f32.c ****             Yc12C_out = (Yaplusc - Ybplusd);
 348:.\DSP\Source\TransformFunctions/arm_cfft_radix4_f32.c ****             /* (xa - xc) - (yb - yd) */
 349:.\DSP\Source\TransformFunctions/arm_cfft_radix4_f32.c ****             Xd12C_out = (Xaminusc - Ybminusd);
 350:.\DSP\Source\TransformFunctions/arm_cfft_radix4_f32.c ****             /* (ya - yc) +  (xb - xd) */
ARM GAS  C:\Users\IVYLIU~1\AppData\Local\Temp\ccHWxCbk.s 			page 8


 351:.\DSP\Source\TransformFunctions/arm_cfft_radix4_f32.c ****             Yd12C_out = (Xbminusd + Yaminusc);
 352:.\DSP\Source\TransformFunctions/arm_cfft_radix4_f32.c **** 
 353:.\DSP\Source\TransformFunctions/arm_cfft_radix4_f32.c ****             pSrc[(2U * i0)] = Xaplusc + Xbplusd;
 354:.\DSP\Source\TransformFunctions/arm_cfft_radix4_f32.c ****             pSrc[(2U * i0) + 1U] = Yaplusc + Ybplusd;
 355:.\DSP\Source\TransformFunctions/arm_cfft_radix4_f32.c **** 
 356:.\DSP\Source\TransformFunctions/arm_cfft_radix4_f32.c ****             Xb12_out = Xb12C_out * co1;
 357:.\DSP\Source\TransformFunctions/arm_cfft_radix4_f32.c ****             Yb12_out = Yb12C_out * co1;
 358:.\DSP\Source\TransformFunctions/arm_cfft_radix4_f32.c ****             Xc12_out = Xc12C_out * co2;
 359:.\DSP\Source\TransformFunctions/arm_cfft_radix4_f32.c ****             Yc12_out = Yc12C_out * co2;
 360:.\DSP\Source\TransformFunctions/arm_cfft_radix4_f32.c ****             Xd12_out = Xd12C_out * co3;
 361:.\DSP\Source\TransformFunctions/arm_cfft_radix4_f32.c ****             Yd12_out = Yd12C_out * co3;
 362:.\DSP\Source\TransformFunctions/arm_cfft_radix4_f32.c **** 
 363:.\DSP\Source\TransformFunctions/arm_cfft_radix4_f32.c ****             /* xb' = (xa+yb-xc-yd)co1 - (ya-xb-yc+xd)(si1) */
 364:.\DSP\Source\TransformFunctions/arm_cfft_radix4_f32.c ****             //Xb12_out -= Yb12C_out * si1;
 365:.\DSP\Source\TransformFunctions/arm_cfft_radix4_f32.c ****             p0 = Yb12C_out * si1;
 366:.\DSP\Source\TransformFunctions/arm_cfft_radix4_f32.c ****             /* yb' = (ya-xb-yc+xd)co1 + (xa+yb-xc-yd)(si1) */
 367:.\DSP\Source\TransformFunctions/arm_cfft_radix4_f32.c ****             //Yb12_out += Xb12C_out * si1;
 368:.\DSP\Source\TransformFunctions/arm_cfft_radix4_f32.c ****             p1 = Xb12C_out * si1;
 369:.\DSP\Source\TransformFunctions/arm_cfft_radix4_f32.c ****             /* xc' = (xa-xb+xc-xd)co2 - (ya-yb+yc-yd)(si2) */
 370:.\DSP\Source\TransformFunctions/arm_cfft_radix4_f32.c ****             //Xc12_out -= Yc12C_out * si2;
 371:.\DSP\Source\TransformFunctions/arm_cfft_radix4_f32.c ****             p2 = Yc12C_out * si2;
 372:.\DSP\Source\TransformFunctions/arm_cfft_radix4_f32.c ****             /* yc' = (ya-yb+yc-yd)co2 + (xa-xb+xc-xd)(si2) */
 373:.\DSP\Source\TransformFunctions/arm_cfft_radix4_f32.c ****             //Yc12_out += Xc12C_out * si2;
 374:.\DSP\Source\TransformFunctions/arm_cfft_radix4_f32.c ****             p3 = Xc12C_out * si2;
 375:.\DSP\Source\TransformFunctions/arm_cfft_radix4_f32.c ****             /* xd' = (xa-yb-xc+yd)co3 - (ya+xb-yc-xd)(si3) */
 376:.\DSP\Source\TransformFunctions/arm_cfft_radix4_f32.c ****             //Xd12_out -= Yd12C_out * si3;
 377:.\DSP\Source\TransformFunctions/arm_cfft_radix4_f32.c ****             p4 = Yd12C_out * si3;
 378:.\DSP\Source\TransformFunctions/arm_cfft_radix4_f32.c ****             /* yd' = (ya+xb-yc-xd)co3 + (xa-yb-xc+yd)(si3) */
 379:.\DSP\Source\TransformFunctions/arm_cfft_radix4_f32.c ****             //Yd12_out += Xd12C_out * si3;
 380:.\DSP\Source\TransformFunctions/arm_cfft_radix4_f32.c ****             p5 = Xd12C_out * si3;
 381:.\DSP\Source\TransformFunctions/arm_cfft_radix4_f32.c **** 
 382:.\DSP\Source\TransformFunctions/arm_cfft_radix4_f32.c ****             Xb12_out += p0;
 383:.\DSP\Source\TransformFunctions/arm_cfft_radix4_f32.c ****             Yb12_out -= p1;
 384:.\DSP\Source\TransformFunctions/arm_cfft_radix4_f32.c ****             Xc12_out += p2;
 385:.\DSP\Source\TransformFunctions/arm_cfft_radix4_f32.c ****             Yc12_out -= p3;
 386:.\DSP\Source\TransformFunctions/arm_cfft_radix4_f32.c ****             Xd12_out += p4;
 387:.\DSP\Source\TransformFunctions/arm_cfft_radix4_f32.c ****             Yd12_out -= p5;
 388:.\DSP\Source\TransformFunctions/arm_cfft_radix4_f32.c **** 
 389:.\DSP\Source\TransformFunctions/arm_cfft_radix4_f32.c ****             /* xc' = (xa-xb+xc-xd)co2 + (ya-yb+yc-yd)(si2) */
 390:.\DSP\Source\TransformFunctions/arm_cfft_radix4_f32.c ****             pSrc[2U * i1] = Xc12_out;
 391:.\DSP\Source\TransformFunctions/arm_cfft_radix4_f32.c **** 
 392:.\DSP\Source\TransformFunctions/arm_cfft_radix4_f32.c ****             /* yc' = (ya-yb+yc-yd)co2 - (xa-xb+xc-xd)(si2) */
 393:.\DSP\Source\TransformFunctions/arm_cfft_radix4_f32.c ****             pSrc[(2U * i1) + 1U] = Yc12_out;
 394:.\DSP\Source\TransformFunctions/arm_cfft_radix4_f32.c **** 
 395:.\DSP\Source\TransformFunctions/arm_cfft_radix4_f32.c ****             /* xb' = (xa+yb-xc-yd)co1 + (ya-xb-yc+xd)(si1) */
 396:.\DSP\Source\TransformFunctions/arm_cfft_radix4_f32.c ****             pSrc[2U * i2] = Xb12_out;
 397:.\DSP\Source\TransformFunctions/arm_cfft_radix4_f32.c **** 
 398:.\DSP\Source\TransformFunctions/arm_cfft_radix4_f32.c ****             /* yb' = (ya-xb-yc+xd)co1 - (xa+yb-xc-yd)(si1) */
 399:.\DSP\Source\TransformFunctions/arm_cfft_radix4_f32.c ****             pSrc[(2U * i2) + 1U] = Yb12_out;
 400:.\DSP\Source\TransformFunctions/arm_cfft_radix4_f32.c **** 
 401:.\DSP\Source\TransformFunctions/arm_cfft_radix4_f32.c ****             /* xd' = (xa-yb-xc+yd)co3 + (ya+xb-yc-xd)(si3) */
 402:.\DSP\Source\TransformFunctions/arm_cfft_radix4_f32.c ****             pSrc[2U * i3] = Xd12_out;
 403:.\DSP\Source\TransformFunctions/arm_cfft_radix4_f32.c **** 
 404:.\DSP\Source\TransformFunctions/arm_cfft_radix4_f32.c ****             /* yd' = (ya+xb-yc-xd)co3 - (xa-yb-xc+yd)(si3) */
 405:.\DSP\Source\TransformFunctions/arm_cfft_radix4_f32.c ****             pSrc[(2U * i3) + 1U] = Yd12_out;
 406:.\DSP\Source\TransformFunctions/arm_cfft_radix4_f32.c **** 
 407:.\DSP\Source\TransformFunctions/arm_cfft_radix4_f32.c ****             i0 += n1;
ARM GAS  C:\Users\IVYLIU~1\AppData\Local\Temp\ccHWxCbk.s 			page 9


 408:.\DSP\Source\TransformFunctions/arm_cfft_radix4_f32.c ****          } while (i0 < fftLen);
 409:.\DSP\Source\TransformFunctions/arm_cfft_radix4_f32.c ****          j++;
 410:.\DSP\Source\TransformFunctions/arm_cfft_radix4_f32.c ****       } while (j <= (n2 - 1U));
 411:.\DSP\Source\TransformFunctions/arm_cfft_radix4_f32.c ****       twidCoefModifier <<= 2U;
 412:.\DSP\Source\TransformFunctions/arm_cfft_radix4_f32.c ****    }
 413:.\DSP\Source\TransformFunctions/arm_cfft_radix4_f32.c **** 
 414:.\DSP\Source\TransformFunctions/arm_cfft_radix4_f32.c ****    j = fftLen >> 2;
 415:.\DSP\Source\TransformFunctions/arm_cfft_radix4_f32.c ****    ptr1 = &pSrc[0];
 416:.\DSP\Source\TransformFunctions/arm_cfft_radix4_f32.c **** 
 417:.\DSP\Source\TransformFunctions/arm_cfft_radix4_f32.c ****    /*  Calculations of last stage */
 418:.\DSP\Source\TransformFunctions/arm_cfft_radix4_f32.c ****    do
 419:.\DSP\Source\TransformFunctions/arm_cfft_radix4_f32.c ****    {
 420:.\DSP\Source\TransformFunctions/arm_cfft_radix4_f32.c ****       xaIn = ptr1[0];
 421:.\DSP\Source\TransformFunctions/arm_cfft_radix4_f32.c ****       yaIn = ptr1[1];
 422:.\DSP\Source\TransformFunctions/arm_cfft_radix4_f32.c ****       xbIn = ptr1[2];
 423:.\DSP\Source\TransformFunctions/arm_cfft_radix4_f32.c ****       ybIn = ptr1[3];
 424:.\DSP\Source\TransformFunctions/arm_cfft_radix4_f32.c ****       xcIn = ptr1[4];
 425:.\DSP\Source\TransformFunctions/arm_cfft_radix4_f32.c ****       ycIn = ptr1[5];
 426:.\DSP\Source\TransformFunctions/arm_cfft_radix4_f32.c ****       xdIn = ptr1[6];
 427:.\DSP\Source\TransformFunctions/arm_cfft_radix4_f32.c ****       ydIn = ptr1[7];
 428:.\DSP\Source\TransformFunctions/arm_cfft_radix4_f32.c **** 
 429:.\DSP\Source\TransformFunctions/arm_cfft_radix4_f32.c ****       /* xa + xc */
 430:.\DSP\Source\TransformFunctions/arm_cfft_radix4_f32.c ****       Xaplusc = xaIn + xcIn;
 431:.\DSP\Source\TransformFunctions/arm_cfft_radix4_f32.c **** 
 432:.\DSP\Source\TransformFunctions/arm_cfft_radix4_f32.c ****       /* xa - xc */
 433:.\DSP\Source\TransformFunctions/arm_cfft_radix4_f32.c ****       Xaminusc = xaIn - xcIn;
 434:.\DSP\Source\TransformFunctions/arm_cfft_radix4_f32.c **** 
 435:.\DSP\Source\TransformFunctions/arm_cfft_radix4_f32.c ****       /* ya + yc */
 436:.\DSP\Source\TransformFunctions/arm_cfft_radix4_f32.c ****       Yaplusc = yaIn + ycIn;
 437:.\DSP\Source\TransformFunctions/arm_cfft_radix4_f32.c **** 
 438:.\DSP\Source\TransformFunctions/arm_cfft_radix4_f32.c ****       /* ya - yc */
 439:.\DSP\Source\TransformFunctions/arm_cfft_radix4_f32.c ****       Yaminusc = yaIn - ycIn;
 440:.\DSP\Source\TransformFunctions/arm_cfft_radix4_f32.c **** 
 441:.\DSP\Source\TransformFunctions/arm_cfft_radix4_f32.c ****       /* xb + xd */
 442:.\DSP\Source\TransformFunctions/arm_cfft_radix4_f32.c ****       Xbplusd = xbIn + xdIn;
 443:.\DSP\Source\TransformFunctions/arm_cfft_radix4_f32.c **** 
 444:.\DSP\Source\TransformFunctions/arm_cfft_radix4_f32.c ****       /* yb + yd */
 445:.\DSP\Source\TransformFunctions/arm_cfft_radix4_f32.c ****       Ybplusd = ybIn + ydIn;
 446:.\DSP\Source\TransformFunctions/arm_cfft_radix4_f32.c **** 
 447:.\DSP\Source\TransformFunctions/arm_cfft_radix4_f32.c ****       /* (xb-xd) */
 448:.\DSP\Source\TransformFunctions/arm_cfft_radix4_f32.c ****       Xbminusd = xbIn - xdIn;
 449:.\DSP\Source\TransformFunctions/arm_cfft_radix4_f32.c **** 
 450:.\DSP\Source\TransformFunctions/arm_cfft_radix4_f32.c ****       /* (yb-yd) */
 451:.\DSP\Source\TransformFunctions/arm_cfft_radix4_f32.c ****       Ybminusd = ybIn - ydIn;
 452:.\DSP\Source\TransformFunctions/arm_cfft_radix4_f32.c **** 
 453:.\DSP\Source\TransformFunctions/arm_cfft_radix4_f32.c ****       /* xa' = xa + xb + xc + xd */
 454:.\DSP\Source\TransformFunctions/arm_cfft_radix4_f32.c ****       a0 = (Xaplusc + Xbplusd);
 455:.\DSP\Source\TransformFunctions/arm_cfft_radix4_f32.c ****       /* ya' = ya + yb + yc + yd */
 456:.\DSP\Source\TransformFunctions/arm_cfft_radix4_f32.c ****       a1 = (Yaplusc + Ybplusd);
 457:.\DSP\Source\TransformFunctions/arm_cfft_radix4_f32.c ****       /* xc' = (xa-xb+xc-xd) */
 458:.\DSP\Source\TransformFunctions/arm_cfft_radix4_f32.c ****       a2 = (Xaplusc - Xbplusd);
 459:.\DSP\Source\TransformFunctions/arm_cfft_radix4_f32.c ****       /* yc' = (ya-yb+yc-yd) */
 460:.\DSP\Source\TransformFunctions/arm_cfft_radix4_f32.c ****       a3 = (Yaplusc - Ybplusd);
 461:.\DSP\Source\TransformFunctions/arm_cfft_radix4_f32.c ****       /* xb' = (xa+yb-xc-yd) */
 462:.\DSP\Source\TransformFunctions/arm_cfft_radix4_f32.c ****       a4 = (Xaminusc + Ybminusd);
 463:.\DSP\Source\TransformFunctions/arm_cfft_radix4_f32.c ****       /* yb' = (ya-xb-yc+xd) */
 464:.\DSP\Source\TransformFunctions/arm_cfft_radix4_f32.c ****       a5 = (Yaminusc - Xbminusd);
ARM GAS  C:\Users\IVYLIU~1\AppData\Local\Temp\ccHWxCbk.s 			page 10


 465:.\DSP\Source\TransformFunctions/arm_cfft_radix4_f32.c ****       /* xd' = (xa-yb-xc+yd)) */
 466:.\DSP\Source\TransformFunctions/arm_cfft_radix4_f32.c ****       a6 = (Xaminusc - Ybminusd);
 467:.\DSP\Source\TransformFunctions/arm_cfft_radix4_f32.c ****       /* yd' = (ya+xb-yc-xd) */
 468:.\DSP\Source\TransformFunctions/arm_cfft_radix4_f32.c ****       a7 = (Xbminusd + Yaminusc);
 469:.\DSP\Source\TransformFunctions/arm_cfft_radix4_f32.c **** 
 470:.\DSP\Source\TransformFunctions/arm_cfft_radix4_f32.c ****       ptr1[0] = a0;
 471:.\DSP\Source\TransformFunctions/arm_cfft_radix4_f32.c ****       ptr1[1] = a1;
 472:.\DSP\Source\TransformFunctions/arm_cfft_radix4_f32.c ****       ptr1[2] = a2;
 473:.\DSP\Source\TransformFunctions/arm_cfft_radix4_f32.c ****       ptr1[3] = a3;
 474:.\DSP\Source\TransformFunctions/arm_cfft_radix4_f32.c ****       ptr1[4] = a4;
 475:.\DSP\Source\TransformFunctions/arm_cfft_radix4_f32.c ****       ptr1[5] = a5;
 476:.\DSP\Source\TransformFunctions/arm_cfft_radix4_f32.c ****       ptr1[6] = a6;
 477:.\DSP\Source\TransformFunctions/arm_cfft_radix4_f32.c ****       ptr1[7] = a7;
 478:.\DSP\Source\TransformFunctions/arm_cfft_radix4_f32.c **** 
 479:.\DSP\Source\TransformFunctions/arm_cfft_radix4_f32.c ****       /* increment pointer by 8 */
 480:.\DSP\Source\TransformFunctions/arm_cfft_radix4_f32.c ****       ptr1 += 8U;
 481:.\DSP\Source\TransformFunctions/arm_cfft_radix4_f32.c ****    } while (--j);
 482:.\DSP\Source\TransformFunctions/arm_cfft_radix4_f32.c **** 
 483:.\DSP\Source\TransformFunctions/arm_cfft_radix4_f32.c **** #else
 484:.\DSP\Source\TransformFunctions/arm_cfft_radix4_f32.c **** 
 485:.\DSP\Source\TransformFunctions/arm_cfft_radix4_f32.c ****         float32_t t1, t2, r1, r2, s1, s2;
 486:.\DSP\Source\TransformFunctions/arm_cfft_radix4_f32.c **** 
 487:.\DSP\Source\TransformFunctions/arm_cfft_radix4_f32.c ****    /* Initializations for the fft calculation */
 488:.\DSP\Source\TransformFunctions/arm_cfft_radix4_f32.c ****    n2 = fftLen;
  50              		.loc 1 488 0
  51 000a 1091     		str	r1, [sp, #64]
  52              	.LVL1:
 489:.\DSP\Source\TransformFunctions/arm_cfft_radix4_f32.c ****    n1 = n2;
 490:.\DSP\Source\TransformFunctions/arm_cfft_radix4_f32.c ****    for (k = fftLen; k > 1U; k >>= 2U)
  53              		.loc 1 490 0
  54 000c 1591     		str	r1, [sp, #84]
 488:.\DSP\Source\TransformFunctions/arm_cfft_radix4_f32.c ****    n1 = n2;
  55              		.loc 1 488 0
  56 000e 0F91     		str	r1, [sp, #60]
  57 0010 8046     		mov	r8, r0
  58              		.loc 1 490 0
  59 0012 11E1     		b	.L2
  60              	.LVL2:
  61              	.L5:
 491:.\DSP\Source\TransformFunctions/arm_cfft_radix4_f32.c ****    {
 492:.\DSP\Source\TransformFunctions/arm_cfft_radix4_f32.c ****       /*  Initializations for the fft calculation */
 493:.\DSP\Source\TransformFunctions/arm_cfft_radix4_f32.c ****       n1 = n2;
 494:.\DSP\Source\TransformFunctions/arm_cfft_radix4_f32.c ****       n2 >>= 2U;
  62              		.loc 1 494 0
  63 0014 0F9B     		ldr	r3, [sp, #60]
  64              	.LVL3:
  65 0016 9B08     		lsrs	r3, r3, #2
  66 0018 0D93     		str	r3, [sp, #52]
  67              	.LVL4:
 495:.\DSP\Source\TransformFunctions/arm_cfft_radix4_f32.c ****       ia1 = 0U;
 496:.\DSP\Source\TransformFunctions/arm_cfft_radix4_f32.c **** 
 497:.\DSP\Source\TransformFunctions/arm_cfft_radix4_f32.c ****       /*  FFT Calculation */
 498:.\DSP\Source\TransformFunctions/arm_cfft_radix4_f32.c ****       j = 0;
  68              		.loc 1 498 0
  69 001a 0023     		movs	r3, #0
  70              	.LVL5:
  71 001c 1193     		str	r3, [sp, #68]
ARM GAS  C:\Users\IVYLIU~1\AppData\Local\Temp\ccHWxCbk.s 			page 11


 495:.\DSP\Source\TransformFunctions/arm_cfft_radix4_f32.c ****       ia1 = 0U;
  72              		.loc 1 495 0
  73 001e 1293     		str	r3, [sp, #72]
  74 0020 C346     		mov	fp, r8
  75              	.LVL6:
  76              	.L4:
 499:.\DSP\Source\TransformFunctions/arm_cfft_radix4_f32.c ****       do
 500:.\DSP\Source\TransformFunctions/arm_cfft_radix4_f32.c ****       {
 501:.\DSP\Source\TransformFunctions/arm_cfft_radix4_f32.c ****          /*  index calculation for the coefficients */
 502:.\DSP\Source\TransformFunctions/arm_cfft_radix4_f32.c ****          ia2 = ia1 + ia1;
 503:.\DSP\Source\TransformFunctions/arm_cfft_radix4_f32.c ****          ia3 = ia2 + ia1;
  77              		.loc 1 503 0
  78 0022 129D     		ldr	r5, [sp, #72]
  79 0024 05EB4503 		add	r3, r5, r5, lsl #1
  80              	.LVL7:
 504:.\DSP\Source\TransformFunctions/arm_cfft_radix4_f32.c ****          co1 = pCoef[ia1 * 2U];
  81              		.loc 1 504 0
  82 0028 1499     		ldr	r1, [sp, #80]
  83 002a 51F83520 		ldr	r2, [r1, r5, lsl #3]	@ float
  84 002e 0492     		str	r2, [sp, #16]	@ float
  85              	.LVL8:
 505:.\DSP\Source\TransformFunctions/arm_cfft_radix4_f32.c ****          si1 = pCoef[(ia1 * 2U) + 1U];
  86              		.loc 1 505 0
  87 0030 01EBC502 		add	r2, r1, r5, lsl #3
  88              	.LVL9:
  89 0034 5268     		ldr	r2, [r2, #4]	@ float
  90              	.LVL10:
  91 0036 0592     		str	r2, [sp, #20]	@ float
  92              	.LVL11:
 506:.\DSP\Source\TransformFunctions/arm_cfft_radix4_f32.c ****          co2 = pCoef[ia2 * 2U];
  93              		.loc 1 506 0
  94 0038 2A01     		lsls	r2, r5, #4
  95              	.LVL12:
  96 003a 8858     		ldr	r0, [r1, r2]	@ float
  97 003c 0690     		str	r0, [sp, #24]	@ float
  98              	.LVL13:
 507:.\DSP\Source\TransformFunctions/arm_cfft_radix4_f32.c ****          si2 = pCoef[(ia2 * 2U) + 1U];
  99              		.loc 1 507 0
 100 003e 0432     		adds	r2, r2, #4
 101 0040 8A58     		ldr	r2, [r1, r2]	@ float
 102 0042 0792     		str	r2, [sp, #28]	@ float
 103              	.LVL14:
 508:.\DSP\Source\TransformFunctions/arm_cfft_radix4_f32.c ****          co3 = pCoef[ia3 * 2U];
 104              		.loc 1 508 0
 105 0044 51F83320 		ldr	r2, [r1, r3, lsl #3]	@ float
 106              	.LVL15:
 107 0048 0892     		str	r2, [sp, #32]	@ float
 108              	.LVL16:
 509:.\DSP\Source\TransformFunctions/arm_cfft_radix4_f32.c ****          si3 = pCoef[(ia3 * 2U) + 1U];
 109              		.loc 1 509 0
 110 004a 01EBC303 		add	r3, r1, r3, lsl #3
 111              	.LVL17:
 112 004e 5B68     		ldr	r3, [r3, #4]	@ float
 113 0050 0E93     		str	r3, [sp, #56]	@ float
 114              	.LVL18:
 510:.\DSP\Source\TransformFunctions/arm_cfft_radix4_f32.c **** 
 511:.\DSP\Source\TransformFunctions/arm_cfft_radix4_f32.c ****          /*  Twiddle coefficients index modifier */
ARM GAS  C:\Users\IVYLIU~1\AppData\Local\Temp\ccHWxCbk.s 			page 12


 512:.\DSP\Source\TransformFunctions/arm_cfft_radix4_f32.c ****          ia1 = ia1 + twidCoefModifier;
 115              		.loc 1 512 0
 116 0052 139B     		ldr	r3, [sp, #76]
 117              	.LVL19:
 118 0054 EB18     		adds	r3, r5, r3
 119 0056 1293     		str	r3, [sp, #72]
 120              	.LVL20:
 513:.\DSP\Source\TransformFunctions/arm_cfft_radix4_f32.c **** 
 514:.\DSP\Source\TransformFunctions/arm_cfft_radix4_f32.c ****          i0 = j;
 121              		.loc 1 514 0
 122 0058 119F     		ldr	r7, [sp, #68]
 123              	.LVL21:
 124              	.L3:
 515:.\DSP\Source\TransformFunctions/arm_cfft_radix4_f32.c ****          do
 516:.\DSP\Source\TransformFunctions/arm_cfft_radix4_f32.c ****          {
 517:.\DSP\Source\TransformFunctions/arm_cfft_radix4_f32.c ****             /*  index calculation for the input as, */
 518:.\DSP\Source\TransformFunctions/arm_cfft_radix4_f32.c ****             /*  pSrc[i0 + 0], pSrc[i0 + fftLen/4], pSrc[i0 + fftLen/2], pSrc[i0 + 3fftLen/4] */
 519:.\DSP\Source\TransformFunctions/arm_cfft_radix4_f32.c ****             i1 = i0 + n2;
 125              		.loc 1 519 0 discriminator 1
 126 005a 0D9B     		ldr	r3, [sp, #52]
 127 005c FD18     		adds	r5, r7, r3
 128              	.LVL22:
 520:.\DSP\Source\TransformFunctions/arm_cfft_radix4_f32.c ****             i2 = i1 + n2;
 129              		.loc 1 520 0 discriminator 1
 130 005e 05EB0308 		add	r8, r5, r3
 131              	.LVL23:
 521:.\DSP\Source\TransformFunctions/arm_cfft_radix4_f32.c ****             i3 = i2 + n2;
 132              		.loc 1 521 0 discriminator 1
 133 0062 08EB0309 		add	r9, r8, r3
 134              	.LVL24:
 522:.\DSP\Source\TransformFunctions/arm_cfft_radix4_f32.c **** 
 523:.\DSP\Source\TransformFunctions/arm_cfft_radix4_f32.c ****             /* xa + xc */
 524:.\DSP\Source\TransformFunctions/arm_cfft_radix4_f32.c ****             r1 = pSrc[(2U * i0)] + pSrc[(2U * i2)];
 135              		.loc 1 524 0 discriminator 1
 136 0066 FE00     		lsls	r6, r7, #3
 137 0068 5BF83730 		ldr	r3, [fp, r7, lsl #3]	@ float
 138 006c 4FEAC80A 		lsl	r10, r8, #3
 139 0070 5BF83840 		ldr	r4, [fp, r8, lsl #3]	@ float
 140 0074 0293     		str	r3, [sp, #8]	@ float
 141 0076 1846     		mov	r0, r3
 142 0078 2146     		mov	r1, r4
 143 007a FFF7FEFF 		bl	__aeabi_fadd
 144              	.LVL25:
 145 007e 0190     		str	r0, [sp, #4]	@ float
 146              	.LVL26:
 525:.\DSP\Source\TransformFunctions/arm_cfft_radix4_f32.c **** 
 526:.\DSP\Source\TransformFunctions/arm_cfft_radix4_f32.c ****             /* xa - xc */
 527:.\DSP\Source\TransformFunctions/arm_cfft_radix4_f32.c ****             r2 = pSrc[(2U * i0)] - pSrc[(2U * i2)];
 147              		.loc 1 527 0 discriminator 1
 148 0080 0298     		ldr	r0, [sp, #8]	@ float
 149              	.LVL27:
 150 0082 2146     		mov	r1, r4
 151 0084 FFF7FEFF 		bl	__aeabi_fsub
 152              	.LVL28:
 153 0088 0990     		str	r0, [sp, #36]	@ float
 154              	.LVL29:
 528:.\DSP\Source\TransformFunctions/arm_cfft_radix4_f32.c **** 
ARM GAS  C:\Users\IVYLIU~1\AppData\Local\Temp\ccHWxCbk.s 			page 13


 529:.\DSP\Source\TransformFunctions/arm_cfft_radix4_f32.c ****             /* ya + yc */
 530:.\DSP\Source\TransformFunctions/arm_cfft_radix4_f32.c ****             s1 = pSrc[(2U * i0) + 1U] + pSrc[(2U * i2) + 1U];
 155              		.loc 1 530 0 discriminator 1
 156 008a 0436     		adds	r6, r6, #4
 157 008c 5BF80640 		ldr	r4, [fp, r6]	@ float
 158 0090 0AF10403 		add	r3, r10, #4
 159 0094 0A93     		str	r3, [sp, #40]
 160 0096 5BF803A0 		ldr	r10, [fp, r3]	@ float
 161 009a 2046     		mov	r0, r4
 162              	.LVL30:
 163 009c 5146     		mov	r1, r10
 164 009e FFF7FEFF 		bl	__aeabi_fadd
 165              	.LVL31:
 166 00a2 0290     		str	r0, [sp, #8]	@ float
 167              	.LVL32:
 531:.\DSP\Source\TransformFunctions/arm_cfft_radix4_f32.c **** 
 532:.\DSP\Source\TransformFunctions/arm_cfft_radix4_f32.c ****             /* ya - yc */
 533:.\DSP\Source\TransformFunctions/arm_cfft_radix4_f32.c ****             s2 = pSrc[(2U * i0) + 1U] - pSrc[(2U * i2) + 1U];
 168              		.loc 1 533 0 discriminator 1
 169 00a4 2046     		mov	r0, r4
 170              	.LVL33:
 171 00a6 5146     		mov	r1, r10
 172 00a8 FFF7FEFF 		bl	__aeabi_fsub
 173              	.LVL34:
 174 00ac 0390     		str	r0, [sp, #12]	@ float
 175              	.LVL35:
 534:.\DSP\Source\TransformFunctions/arm_cfft_radix4_f32.c **** 
 535:.\DSP\Source\TransformFunctions/arm_cfft_radix4_f32.c ****             /* xb + xd */
 536:.\DSP\Source\TransformFunctions/arm_cfft_radix4_f32.c ****             t1 = pSrc[2U * i1] + pSrc[2U * i3];
 176              		.loc 1 536 0 discriminator 1
 177 00ae EC00     		lsls	r4, r5, #3
 178 00b0 4FEAC90A 		lsl	r10, r9, #3
 179 00b4 5BF83500 		ldr	r0, [fp, r5, lsl #3]	@ float
 180              	.LVL36:
 181 00b8 5BF83910 		ldr	r1, [fp, r9, lsl #3]	@ float
 182 00bc FFF7FEFF 		bl	__aeabi_fadd
 183              	.LVL37:
 184 00c0 0146     		mov	r1, r0
 185              	.LVL38:
 537:.\DSP\Source\TransformFunctions/arm_cfft_radix4_f32.c **** 
 538:.\DSP\Source\TransformFunctions/arm_cfft_radix4_f32.c ****             /* xa' = xa + xb + xc + xd */
 539:.\DSP\Source\TransformFunctions/arm_cfft_radix4_f32.c ****             pSrc[2U * i0] = r1 + t1;
 186              		.loc 1 539 0 discriminator 1
 187 00c2 0198     		ldr	r0, [sp, #4]	@ float
 188              	.LVL39:
 189 00c4 0B91     		str	r1, [sp, #44]	@ float
 190 00c6 FFF7FEFF 		bl	__aeabi_fadd
 191              	.LVL40:
 192 00ca 4BF83700 		str	r0, [fp, r7, lsl #3]	@ float
 540:.\DSP\Source\TransformFunctions/arm_cfft_radix4_f32.c **** 
 541:.\DSP\Source\TransformFunctions/arm_cfft_radix4_f32.c ****             /* xa + xc -(xb + xd) */
 542:.\DSP\Source\TransformFunctions/arm_cfft_radix4_f32.c ****             r1 = r1 - t1;
 193              		.loc 1 542 0 discriminator 1
 194 00ce 0198     		ldr	r0, [sp, #4]	@ float
 195 00d0 0B99     		ldr	r1, [sp, #44]	@ float
 196 00d2 FFF7FEFF 		bl	__aeabi_fsub
 197              	.LVL41:
ARM GAS  C:\Users\IVYLIU~1\AppData\Local\Temp\ccHWxCbk.s 			page 14


 198 00d6 0190     		str	r0, [sp, #4]	@ float
 199              	.LVL42:
 543:.\DSP\Source\TransformFunctions/arm_cfft_radix4_f32.c **** 
 544:.\DSP\Source\TransformFunctions/arm_cfft_radix4_f32.c ****             /* yb + yd */
 545:.\DSP\Source\TransformFunctions/arm_cfft_radix4_f32.c ****             t2 = pSrc[(2U * i1) + 1U] + pSrc[(2U * i3) + 1U];
 200              		.loc 1 545 0 discriminator 1
 201 00d8 0434     		adds	r4, r4, #4
 202 00da 0AF1040A 		add	r10, r10, #4
 203 00de 5BF80400 		ldr	r0, [fp, r4]	@ float
 204              	.LVL43:
 205 00e2 5BF80A10 		ldr	r1, [fp, r10]	@ float
 206 00e6 FFF7FEFF 		bl	__aeabi_fadd
 207              	.LVL44:
 208 00ea 0146     		mov	r1, r0
 209              	.LVL45:
 546:.\DSP\Source\TransformFunctions/arm_cfft_radix4_f32.c **** 
 547:.\DSP\Source\TransformFunctions/arm_cfft_radix4_f32.c ****             /* ya' = ya + yb + yc + yd */
 548:.\DSP\Source\TransformFunctions/arm_cfft_radix4_f32.c ****             pSrc[(2U * i0) + 1U] = s1 + t2;
 210              		.loc 1 548 0 discriminator 1
 211 00ec 0298     		ldr	r0, [sp, #8]	@ float
 212              	.LVL46:
 213 00ee 0B91     		str	r1, [sp, #44]	@ float
 214              	.LVL47:
 215 00f0 FFF7FEFF 		bl	__aeabi_fadd
 216              	.LVL48:
 217 00f4 4BF80600 		str	r0, [fp, r6]	@ float
 549:.\DSP\Source\TransformFunctions/arm_cfft_radix4_f32.c **** 
 550:.\DSP\Source\TransformFunctions/arm_cfft_radix4_f32.c ****             /* (ya + yc) - (yb + yd) */
 551:.\DSP\Source\TransformFunctions/arm_cfft_radix4_f32.c ****             s1 = s1 - t2;
 218              		.loc 1 551 0 discriminator 1
 219 00f8 0298     		ldr	r0, [sp, #8]	@ float
 220 00fa 0B99     		ldr	r1, [sp, #44]	@ float
 221 00fc FFF7FEFF 		bl	__aeabi_fsub
 222              	.LVL49:
 223 0100 0646     		mov	r6, r0
 224              	.LVL50:
 552:.\DSP\Source\TransformFunctions/arm_cfft_radix4_f32.c **** 
 553:.\DSP\Source\TransformFunctions/arm_cfft_radix4_f32.c ****             /* (yb - yd) */
 554:.\DSP\Source\TransformFunctions/arm_cfft_radix4_f32.c ****             t1 = pSrc[(2U * i1) + 1U] - pSrc[(2U * i3) + 1U];
 225              		.loc 1 554 0 discriminator 1
 226 0102 5BF80400 		ldr	r0, [fp, r4]	@ float
 227              	.LVL51:
 228 0106 5BF80A10 		ldr	r1, [fp, r10]	@ float
 229 010a FFF7FEFF 		bl	__aeabi_fsub
 230              	.LVL52:
 231 010e 0B90     		str	r0, [sp, #44]	@ float
 232              	.LVL53:
 555:.\DSP\Source\TransformFunctions/arm_cfft_radix4_f32.c **** 
 556:.\DSP\Source\TransformFunctions/arm_cfft_radix4_f32.c ****             /* (xb - xd) */
 557:.\DSP\Source\TransformFunctions/arm_cfft_radix4_f32.c ****             t2 = pSrc[2U * i1] - pSrc[2U * i3];
 233              		.loc 1 557 0 discriminator 1
 234 0110 5BF83500 		ldr	r0, [fp, r5, lsl #3]	@ float
 235              	.LVL54:
 236 0114 5BF83910 		ldr	r1, [fp, r9, lsl #3]	@ float
 237 0118 FFF7FEFF 		bl	__aeabi_fsub
 238              	.LVL55:
 239 011c 0290     		str	r0, [sp, #8]	@ float
ARM GAS  C:\Users\IVYLIU~1\AppData\Local\Temp\ccHWxCbk.s 			page 15


 240              	.LVL56:
 558:.\DSP\Source\TransformFunctions/arm_cfft_radix4_f32.c **** 
 559:.\DSP\Source\TransformFunctions/arm_cfft_radix4_f32.c ****             /* xc' = (xa-xb+xc-xd)co2 + (ya-yb+yc-yd)(si2) */
 560:.\DSP\Source\TransformFunctions/arm_cfft_radix4_f32.c ****             pSrc[2U * i1] = (r1 * co2) + (s1 * si2);
 241              		.loc 1 560 0 discriminator 1
 242 011e 0198     		ldr	r0, [sp, #4]	@ float
 243              	.LVL57:
 244 0120 0699     		ldr	r1, [sp, #24]	@ float
 245 0122 FFF7FEFF 		bl	__aeabi_fmul
 246              	.LVL58:
 247 0126 0C90     		str	r0, [sp, #48]	@ float
 248 0128 3046     		mov	r0, r6
 249 012a 0799     		ldr	r1, [sp, #28]	@ float
 250 012c FFF7FEFF 		bl	__aeabi_fmul
 251              	.LVL59:
 252 0130 0146     		mov	r1, r0
 253 0132 0C98     		ldr	r0, [sp, #48]	@ float
 254 0134 FFF7FEFF 		bl	__aeabi_fadd
 255              	.LVL60:
 256 0138 4BF83500 		str	r0, [fp, r5, lsl #3]	@ float
 561:.\DSP\Source\TransformFunctions/arm_cfft_radix4_f32.c **** 
 562:.\DSP\Source\TransformFunctions/arm_cfft_radix4_f32.c ****             /* yc' = (ya-yb+yc-yd)co2 - (xa-xb+xc-xd)(si2) */
 563:.\DSP\Source\TransformFunctions/arm_cfft_radix4_f32.c ****             pSrc[(2U * i1) + 1U] = (s1 * co2) - (r1 * si2);
 257              		.loc 1 563 0 discriminator 1
 258 013c 3046     		mov	r0, r6
 259 013e 0699     		ldr	r1, [sp, #24]	@ float
 260 0140 FFF7FEFF 		bl	__aeabi_fmul
 261              	.LVL61:
 262 0144 0546     		mov	r5, r0
 263              	.LVL62:
 264 0146 0198     		ldr	r0, [sp, #4]	@ float
 265 0148 0799     		ldr	r1, [sp, #28]	@ float
 266 014a FFF7FEFF 		bl	__aeabi_fmul
 267              	.LVL63:
 268 014e 0146     		mov	r1, r0
 269 0150 2846     		mov	r0, r5
 270 0152 FFF7FEFF 		bl	__aeabi_fsub
 271              	.LVL64:
 272 0156 4BF80400 		str	r0, [fp, r4]	@ float
 564:.\DSP\Source\TransformFunctions/arm_cfft_radix4_f32.c **** 
 565:.\DSP\Source\TransformFunctions/arm_cfft_radix4_f32.c ****             /* (xa - xc) + (yb - yd) */
 566:.\DSP\Source\TransformFunctions/arm_cfft_radix4_f32.c ****             r1 = r2 + t1;
 273              		.loc 1 566 0 discriminator 1
 274 015a 099E     		ldr	r6, [sp, #36]	@ float
 275              	.LVL65:
 276 015c 3046     		mov	r0, r6
 277 015e 0B9D     		ldr	r5, [sp, #44]	@ float
 278 0160 2946     		mov	r1, r5
 279 0162 FFF7FEFF 		bl	__aeabi_fadd
 280              	.LVL66:
 281 0166 0446     		mov	r4, r0
 282              	.LVL67:
 567:.\DSP\Source\TransformFunctions/arm_cfft_radix4_f32.c **** 
 568:.\DSP\Source\TransformFunctions/arm_cfft_radix4_f32.c ****             /* (xa - xc) - (yb - yd) */
 569:.\DSP\Source\TransformFunctions/arm_cfft_radix4_f32.c ****             r2 = r2 - t1;
 283              		.loc 1 569 0 discriminator 1
 284 0168 3046     		mov	r0, r6
ARM GAS  C:\Users\IVYLIU~1\AppData\Local\Temp\ccHWxCbk.s 			page 16


 285              	.LVL68:
 286 016a 2946     		mov	r1, r5
 287 016c FFF7FEFF 		bl	__aeabi_fsub
 288              	.LVL69:
 289 0170 0646     		mov	r6, r0
 290              	.LVL70:
 570:.\DSP\Source\TransformFunctions/arm_cfft_radix4_f32.c **** 
 571:.\DSP\Source\TransformFunctions/arm_cfft_radix4_f32.c ****             /* (ya - yc) -  (xb - xd) */
 572:.\DSP\Source\TransformFunctions/arm_cfft_radix4_f32.c ****             s1 = s2 - t2;
 291              		.loc 1 572 0 discriminator 1
 292 0172 0398     		ldr	r0, [sp, #12]	@ float
 293              	.LVL71:
 294 0174 0299     		ldr	r1, [sp, #8]	@ float
 295 0176 FFF7FEFF 		bl	__aeabi_fsub
 296              	.LVL72:
 297 017a 0546     		mov	r5, r0
 298              	.LVL73:
 573:.\DSP\Source\TransformFunctions/arm_cfft_radix4_f32.c **** 
 574:.\DSP\Source\TransformFunctions/arm_cfft_radix4_f32.c ****             /* (ya - yc) +  (xb - xd) */
 575:.\DSP\Source\TransformFunctions/arm_cfft_radix4_f32.c ****             s2 = s2 + t2;
 299              		.loc 1 575 0 discriminator 1
 300 017c 0398     		ldr	r0, [sp, #12]	@ float
 301              	.LVL74:
 302 017e 0299     		ldr	r1, [sp, #8]	@ float
 303 0180 FFF7FEFF 		bl	__aeabi_fadd
 304              	.LVL75:
 305 0184 0190     		str	r0, [sp, #4]	@ float
 306              	.LVL76:
 576:.\DSP\Source\TransformFunctions/arm_cfft_radix4_f32.c **** 
 577:.\DSP\Source\TransformFunctions/arm_cfft_radix4_f32.c ****             /* xb' = (xa+yb-xc-yd)co1 + (ya-xb-yc+xd)(si1) */
 578:.\DSP\Source\TransformFunctions/arm_cfft_radix4_f32.c ****             pSrc[2U * i2] = (r1 * co1) + (s1 * si1);
 307              		.loc 1 578 0 discriminator 1
 308 0186 2046     		mov	r0, r4
 309              	.LVL77:
 310 0188 0499     		ldr	r1, [sp, #16]	@ float
 311 018a FFF7FEFF 		bl	__aeabi_fmul
 312              	.LVL78:
 313 018e 0290     		str	r0, [sp, #8]	@ float
 314              	.LVL79:
 315 0190 2846     		mov	r0, r5
 316 0192 0599     		ldr	r1, [sp, #20]	@ float
 317 0194 FFF7FEFF 		bl	__aeabi_fmul
 318              	.LVL80:
 319 0198 0146     		mov	r1, r0
 320 019a 0298     		ldr	r0, [sp, #8]	@ float
 321 019c FFF7FEFF 		bl	__aeabi_fadd
 322              	.LVL81:
 323 01a0 4BF83800 		str	r0, [fp, r8, lsl #3]	@ float
 579:.\DSP\Source\TransformFunctions/arm_cfft_radix4_f32.c **** 
 580:.\DSP\Source\TransformFunctions/arm_cfft_radix4_f32.c ****             /* yb' = (ya-xb-yc+xd)co1 - (xa+yb-xc-yd)(si1) */
 581:.\DSP\Source\TransformFunctions/arm_cfft_radix4_f32.c ****             pSrc[(2U * i2) + 1U] = (s1 * co1) - (r1 * si1);
 324              		.loc 1 581 0 discriminator 1
 325 01a4 2846     		mov	r0, r5
 326 01a6 0499     		ldr	r1, [sp, #16]	@ float
 327 01a8 FFF7FEFF 		bl	__aeabi_fmul
 328              	.LVL82:
 329 01ac 0546     		mov	r5, r0
ARM GAS  C:\Users\IVYLIU~1\AppData\Local\Temp\ccHWxCbk.s 			page 17


 330              	.LVL83:
 331 01ae 2046     		mov	r0, r4
 332 01b0 0599     		ldr	r1, [sp, #20]	@ float
 333 01b2 FFF7FEFF 		bl	__aeabi_fmul
 334              	.LVL84:
 335 01b6 0146     		mov	r1, r0
 336 01b8 2846     		mov	r0, r5
 337 01ba FFF7FEFF 		bl	__aeabi_fsub
 338              	.LVL85:
 339 01be 0A9A     		ldr	r2, [sp, #40]
 340 01c0 4BF80200 		str	r0, [fp, r2]	@ float
 582:.\DSP\Source\TransformFunctions/arm_cfft_radix4_f32.c **** 
 583:.\DSP\Source\TransformFunctions/arm_cfft_radix4_f32.c ****             /* xd' = (xa-yb-xc+yd)co3 + (ya+xb-yc-xd)(si3) */
 584:.\DSP\Source\TransformFunctions/arm_cfft_radix4_f32.c ****             pSrc[2U * i3] = (r2 * co3) + (s2 * si3);
 341              		.loc 1 584 0 discriminator 1
 342 01c4 3046     		mov	r0, r6
 343 01c6 0899     		ldr	r1, [sp, #32]	@ float
 344 01c8 FFF7FEFF 		bl	__aeabi_fmul
 345              	.LVL86:
 346 01cc 0446     		mov	r4, r0
 347              	.LVL87:
 348 01ce DDF80480 		ldr	r8, [sp, #4]	@ float
 349              	.LVL88:
 350 01d2 4046     		mov	r0, r8
 351 01d4 0E9D     		ldr	r5, [sp, #56]	@ float
 352 01d6 2946     		mov	r1, r5
 353 01d8 FFF7FEFF 		bl	__aeabi_fmul
 354              	.LVL89:
 355 01dc 0146     		mov	r1, r0
 356 01de 2046     		mov	r0, r4
 357 01e0 FFF7FEFF 		bl	__aeabi_fadd
 358              	.LVL90:
 359 01e4 4BF83900 		str	r0, [fp, r9, lsl #3]	@ float
 585:.\DSP\Source\TransformFunctions/arm_cfft_radix4_f32.c **** 
 586:.\DSP\Source\TransformFunctions/arm_cfft_radix4_f32.c ****             /* yd' = (ya+xb-yc-xd)co3 - (xa-yb-xc+yd)(si3) */
 587:.\DSP\Source\TransformFunctions/arm_cfft_radix4_f32.c ****             pSrc[(2U * i3) + 1U] = (s2 * co3) - (r2 * si3);
 360              		.loc 1 587 0 discriminator 1
 361 01e8 4046     		mov	r0, r8
 362 01ea 0899     		ldr	r1, [sp, #32]	@ float
 363 01ec FFF7FEFF 		bl	__aeabi_fmul
 364              	.LVL91:
 365 01f0 0446     		mov	r4, r0
 366 01f2 3046     		mov	r0, r6
 367 01f4 2946     		mov	r1, r5
 368 01f6 FFF7FEFF 		bl	__aeabi_fmul
 369              	.LVL92:
 370 01fa 0146     		mov	r1, r0
 371 01fc 2046     		mov	r0, r4
 372 01fe FFF7FEFF 		bl	__aeabi_fsub
 373              	.LVL93:
 374 0202 4BF80A00 		str	r0, [fp, r10]	@ float
 588:.\DSP\Source\TransformFunctions/arm_cfft_radix4_f32.c **** 
 589:.\DSP\Source\TransformFunctions/arm_cfft_radix4_f32.c ****             i0 += n1;
 375              		.loc 1 589 0 discriminator 1
 376 0206 0F9B     		ldr	r3, [sp, #60]
 377 0208 1F44     		add	r7, r7, r3
 378              	.LVL94:
ARM GAS  C:\Users\IVYLIU~1\AppData\Local\Temp\ccHWxCbk.s 			page 18


 590:.\DSP\Source\TransformFunctions/arm_cfft_radix4_f32.c ****          } while ( i0 < fftLen);
 379              		.loc 1 590 0 discriminator 1
 380 020a 109B     		ldr	r3, [sp, #64]
 381 020c BB42     		cmp	r3, r7
 382 020e 3FF624AF 		bhi	.L3
 591:.\DSP\Source\TransformFunctions/arm_cfft_radix4_f32.c ****          j++;
 383              		.loc 1 591 0
 384 0212 119B     		ldr	r3, [sp, #68]
 385 0214 0133     		adds	r3, r3, #1
 386 0216 1A46     		mov	r2, r3
 387 0218 1193     		str	r3, [sp, #68]
 388              	.LVL95:
 592:.\DSP\Source\TransformFunctions/arm_cfft_radix4_f32.c ****       } while (j <= (n2 - 1U));
 389              		.loc 1 592 0
 390 021a 0D9B     		ldr	r3, [sp, #52]
 391 021c 013B     		subs	r3, r3, #1
 392 021e 9342     		cmp	r3, r2
 393 0220 BFF4FFAE 		bcs	.L4
 394 0224 D846     		mov	r8, fp
 593:.\DSP\Source\TransformFunctions/arm_cfft_radix4_f32.c ****       twidCoefModifier <<= 2U;
 395              		.loc 1 593 0 discriminator 2
 396 0226 139B     		ldr	r3, [sp, #76]
 397 0228 9B00     		lsls	r3, r3, #2
 398 022a 9BB2     		uxth	r3, r3
 399 022c 1393     		str	r3, [sp, #76]
 400              	.LVL96:
 490:.\DSP\Source\TransformFunctions/arm_cfft_radix4_f32.c ****    {
 401              		.loc 1 490 0 discriminator 2
 402 022e 159B     		ldr	r3, [sp, #84]
 403 0230 9B08     		lsrs	r3, r3, #2
 404 0232 1593     		str	r3, [sp, #84]
 405              	.LVL97:
 494:.\DSP\Source\TransformFunctions/arm_cfft_radix4_f32.c ****       ia1 = 0U;
 406              		.loc 1 494 0 discriminator 2
 407 0234 0D9B     		ldr	r3, [sp, #52]
 408              	.LVL98:
 409 0236 0F93     		str	r3, [sp, #60]
 410              	.LVL99:
 411              	.L2:
 490:.\DSP\Source\TransformFunctions/arm_cfft_radix4_f32.c ****    {
 412              		.loc 1 490 0 discriminator 1
 413 0238 159B     		ldr	r3, [sp, #84]
 414 023a 012B     		cmp	r3, #1
 415 023c 3FF6EAAE 		bhi	.L5
 594:.\DSP\Source\TransformFunctions/arm_cfft_radix4_f32.c ****    }
 595:.\DSP\Source\TransformFunctions/arm_cfft_radix4_f32.c **** 
 596:.\DSP\Source\TransformFunctions/arm_cfft_radix4_f32.c **** #endif /* #if defined (ARM_MATH_LOOPUNROLL) */
 597:.\DSP\Source\TransformFunctions/arm_cfft_radix4_f32.c **** 
 598:.\DSP\Source\TransformFunctions/arm_cfft_radix4_f32.c **** }
 416              		.loc 1 598 0
 417 0240 17B0     		add	sp, sp, #92
 418              		.cfi_def_cfa_offset 36
 419              		@ sp needed
 420 0242 BDE8F08F 		pop	{r4, r5, r6, r7, r8, r9, r10, fp, pc}
 421              		.cfi_endproc
 422              	.LFE85:
 423              		.size	arm_radix4_butterfly_f32, .-arm_radix4_butterfly_f32
ARM GAS  C:\Users\IVYLIU~1\AppData\Local\Temp\ccHWxCbk.s 			page 19


 424 0246 00BF     		.section	.text.arm_radix4_butterfly_inverse_f32,"ax",%progbits
 425              		.align	2
 426              		.global	arm_radix4_butterfly_inverse_f32
 427              		.thumb
 428              		.thumb_func
 429              		.type	arm_radix4_butterfly_inverse_f32, %function
 430              	arm_radix4_butterfly_inverse_f32:
 431              	.LFB86:
 599:.\DSP\Source\TransformFunctions/arm_cfft_radix4_f32.c **** 
 600:.\DSP\Source\TransformFunctions/arm_cfft_radix4_f32.c **** /**
 601:.\DSP\Source\TransformFunctions/arm_cfft_radix4_f32.c ****   brief         Core function for the floating-point CIFFT butterfly process.
 602:.\DSP\Source\TransformFunctions/arm_cfft_radix4_f32.c ****   param[in,out] pSrc             points to the in-place buffer of floating-point data type
 603:.\DSP\Source\TransformFunctions/arm_cfft_radix4_f32.c ****   param[in]     fftLen           length of the FFT
 604:.\DSP\Source\TransformFunctions/arm_cfft_radix4_f32.c ****   param[in]     pCoef            points to twiddle coefficient buffer
 605:.\DSP\Source\TransformFunctions/arm_cfft_radix4_f32.c ****   param[in]     twidCoefModifier twiddle coefficient modifier that supports different size FFTs wit
 606:.\DSP\Source\TransformFunctions/arm_cfft_radix4_f32.c ****   param[in]     onebyfftLen      value of 1/fftLen
 607:.\DSP\Source\TransformFunctions/arm_cfft_radix4_f32.c ****   return        none
 608:.\DSP\Source\TransformFunctions/arm_cfft_radix4_f32.c ****  */
 609:.\DSP\Source\TransformFunctions/arm_cfft_radix4_f32.c **** 
 610:.\DSP\Source\TransformFunctions/arm_cfft_radix4_f32.c **** void arm_radix4_butterfly_inverse_f32(
 611:.\DSP\Source\TransformFunctions/arm_cfft_radix4_f32.c ****         float32_t * pSrc,
 612:.\DSP\Source\TransformFunctions/arm_cfft_radix4_f32.c ****         uint16_t fftLen,
 613:.\DSP\Source\TransformFunctions/arm_cfft_radix4_f32.c ****   const float32_t * pCoef,
 614:.\DSP\Source\TransformFunctions/arm_cfft_radix4_f32.c ****         uint16_t twidCoefModifier,
 615:.\DSP\Source\TransformFunctions/arm_cfft_radix4_f32.c ****         float32_t onebyfftLen)
 616:.\DSP\Source\TransformFunctions/arm_cfft_radix4_f32.c **** {
 432              		.loc 1 616 0
 433              		.cfi_startproc
 434              		@ args = 4, pretend = 0, frame = 88
 435              		@ frame_needed = 0, uses_anonymous_args = 0
 436              	.LVL100:
 437 0000 2DE9F04F 		push	{r4, r5, r6, r7, r8, r9, r10, fp, lr}
 438              		.cfi_def_cfa_offset 36
 439              		.cfi_offset 4, -36
 440              		.cfi_offset 5, -32
 441              		.cfi_offset 6, -28
 442              		.cfi_offset 7, -24
 443              		.cfi_offset 8, -20
 444              		.cfi_offset 9, -16
 445              		.cfi_offset 10, -12
 446              		.cfi_offset 11, -8
 447              		.cfi_offset 14, -4
 448 0004 97B0     		sub	sp, sp, #92
 449              		.cfi_def_cfa_offset 128
 450 0006 1492     		str	r2, [sp, #80]
 451 0008 1393     		str	r3, [sp, #76]
 617:.\DSP\Source\TransformFunctions/arm_cfft_radix4_f32.c ****         float32_t co1, co2, co3, si1, si2, si3;
 618:.\DSP\Source\TransformFunctions/arm_cfft_radix4_f32.c ****         uint32_t ia1, ia2, ia3;
 619:.\DSP\Source\TransformFunctions/arm_cfft_radix4_f32.c ****         uint32_t i0, i1, i2, i3;
 620:.\DSP\Source\TransformFunctions/arm_cfft_radix4_f32.c ****         uint32_t n1, n2, j, k;
 621:.\DSP\Source\TransformFunctions/arm_cfft_radix4_f32.c **** 
 622:.\DSP\Source\TransformFunctions/arm_cfft_radix4_f32.c **** #if defined (ARM_MATH_LOOPUNROLL)
 623:.\DSP\Source\TransformFunctions/arm_cfft_radix4_f32.c **** 
 624:.\DSP\Source\TransformFunctions/arm_cfft_radix4_f32.c ****         float32_t xaIn, yaIn, xbIn, ybIn, xcIn, ycIn, xdIn, ydIn;
 625:.\DSP\Source\TransformFunctions/arm_cfft_radix4_f32.c ****         float32_t Xaplusc, Xbplusd, Yaplusc, Ybplusd, Xaminusc, Xbminusd, Yaminusc,
 626:.\DSP\Source\TransformFunctions/arm_cfft_radix4_f32.c ****         Ybminusd;
 627:.\DSP\Source\TransformFunctions/arm_cfft_radix4_f32.c ****         float32_t Xb12C_out, Yb12C_out, Xc12C_out, Yc12C_out, Xd12C_out, Yd12C_out;
ARM GAS  C:\Users\IVYLIU~1\AppData\Local\Temp\ccHWxCbk.s 			page 20


 628:.\DSP\Source\TransformFunctions/arm_cfft_radix4_f32.c ****         float32_t Xb12_out, Yb12_out, Xc12_out, Yc12_out, Xd12_out, Yd12_out;
 629:.\DSP\Source\TransformFunctions/arm_cfft_radix4_f32.c ****         float32_t *ptr1;
 630:.\DSP\Source\TransformFunctions/arm_cfft_radix4_f32.c ****         float32_t p0,p1,p2,p3,p4,p5,p6,p7;
 631:.\DSP\Source\TransformFunctions/arm_cfft_radix4_f32.c ****         float32_t a0,a1,a2,a3,a4,a5,a6,a7;
 632:.\DSP\Source\TransformFunctions/arm_cfft_radix4_f32.c **** 
 633:.\DSP\Source\TransformFunctions/arm_cfft_radix4_f32.c **** 
 634:.\DSP\Source\TransformFunctions/arm_cfft_radix4_f32.c ****    /*  Initializations for the first stage */
 635:.\DSP\Source\TransformFunctions/arm_cfft_radix4_f32.c ****    n2 = fftLen;
 636:.\DSP\Source\TransformFunctions/arm_cfft_radix4_f32.c ****    n1 = n2;
 637:.\DSP\Source\TransformFunctions/arm_cfft_radix4_f32.c **** 
 638:.\DSP\Source\TransformFunctions/arm_cfft_radix4_f32.c ****    /* n2 = fftLen/4 */
 639:.\DSP\Source\TransformFunctions/arm_cfft_radix4_f32.c ****    n2 >>= 2U;
 640:.\DSP\Source\TransformFunctions/arm_cfft_radix4_f32.c ****    i0 = 0U;
 641:.\DSP\Source\TransformFunctions/arm_cfft_radix4_f32.c ****    ia1 = 0U;
 642:.\DSP\Source\TransformFunctions/arm_cfft_radix4_f32.c **** 
 643:.\DSP\Source\TransformFunctions/arm_cfft_radix4_f32.c ****    j = n2;
 644:.\DSP\Source\TransformFunctions/arm_cfft_radix4_f32.c **** 
 645:.\DSP\Source\TransformFunctions/arm_cfft_radix4_f32.c ****    /*  Calculation of first stage */
 646:.\DSP\Source\TransformFunctions/arm_cfft_radix4_f32.c ****    do
 647:.\DSP\Source\TransformFunctions/arm_cfft_radix4_f32.c ****    {
 648:.\DSP\Source\TransformFunctions/arm_cfft_radix4_f32.c ****       /*  index calculation for the input as, */
 649:.\DSP\Source\TransformFunctions/arm_cfft_radix4_f32.c ****       /*  pSrc[i0 + 0], pSrc[i0 + fftLen/4], pSrc[i0 + fftLen/2], pSrc[i0 + 3fftLen/4] */
 650:.\DSP\Source\TransformFunctions/arm_cfft_radix4_f32.c ****       i1 = i0 + n2;
 651:.\DSP\Source\TransformFunctions/arm_cfft_radix4_f32.c ****       i2 = i1 + n2;
 652:.\DSP\Source\TransformFunctions/arm_cfft_radix4_f32.c ****       i3 = i2 + n2;
 653:.\DSP\Source\TransformFunctions/arm_cfft_radix4_f32.c **** 
 654:.\DSP\Source\TransformFunctions/arm_cfft_radix4_f32.c ****       /*  Butterfly implementation */
 655:.\DSP\Source\TransformFunctions/arm_cfft_radix4_f32.c ****       xaIn = pSrc[(2U * i0)];
 656:.\DSP\Source\TransformFunctions/arm_cfft_radix4_f32.c ****       yaIn = pSrc[(2U * i0) + 1U];
 657:.\DSP\Source\TransformFunctions/arm_cfft_radix4_f32.c **** 
 658:.\DSP\Source\TransformFunctions/arm_cfft_radix4_f32.c ****       xcIn = pSrc[(2U * i2)];
 659:.\DSP\Source\TransformFunctions/arm_cfft_radix4_f32.c ****       ycIn = pSrc[(2U * i2) + 1U];
 660:.\DSP\Source\TransformFunctions/arm_cfft_radix4_f32.c **** 
 661:.\DSP\Source\TransformFunctions/arm_cfft_radix4_f32.c ****       xbIn = pSrc[(2U * i1)];
 662:.\DSP\Source\TransformFunctions/arm_cfft_radix4_f32.c ****       ybIn = pSrc[(2U * i1) + 1U];
 663:.\DSP\Source\TransformFunctions/arm_cfft_radix4_f32.c **** 
 664:.\DSP\Source\TransformFunctions/arm_cfft_radix4_f32.c ****       xdIn = pSrc[(2U * i3)];
 665:.\DSP\Source\TransformFunctions/arm_cfft_radix4_f32.c ****       ydIn = pSrc[(2U * i3) + 1U];
 666:.\DSP\Source\TransformFunctions/arm_cfft_radix4_f32.c **** 
 667:.\DSP\Source\TransformFunctions/arm_cfft_radix4_f32.c ****       /* xa + xc */
 668:.\DSP\Source\TransformFunctions/arm_cfft_radix4_f32.c ****       Xaplusc = xaIn + xcIn;
 669:.\DSP\Source\TransformFunctions/arm_cfft_radix4_f32.c ****       /* xb + xd */
 670:.\DSP\Source\TransformFunctions/arm_cfft_radix4_f32.c ****       Xbplusd = xbIn + xdIn;
 671:.\DSP\Source\TransformFunctions/arm_cfft_radix4_f32.c ****       /* ya + yc */
 672:.\DSP\Source\TransformFunctions/arm_cfft_radix4_f32.c ****       Yaplusc = yaIn + ycIn;
 673:.\DSP\Source\TransformFunctions/arm_cfft_radix4_f32.c ****       /* yb + yd */
 674:.\DSP\Source\TransformFunctions/arm_cfft_radix4_f32.c ****       Ybplusd = ybIn + ydIn;
 675:.\DSP\Source\TransformFunctions/arm_cfft_radix4_f32.c **** 
 676:.\DSP\Source\TransformFunctions/arm_cfft_radix4_f32.c ****       /*  index calculation for the coefficients */
 677:.\DSP\Source\TransformFunctions/arm_cfft_radix4_f32.c ****       ia2 = ia1 + ia1;
 678:.\DSP\Source\TransformFunctions/arm_cfft_radix4_f32.c ****       co2 = pCoef[ia2 * 2U];
 679:.\DSP\Source\TransformFunctions/arm_cfft_radix4_f32.c ****       si2 = pCoef[(ia2 * 2U) + 1U];
 680:.\DSP\Source\TransformFunctions/arm_cfft_radix4_f32.c **** 
 681:.\DSP\Source\TransformFunctions/arm_cfft_radix4_f32.c ****       /* xa - xc */
 682:.\DSP\Source\TransformFunctions/arm_cfft_radix4_f32.c ****       Xaminusc = xaIn - xcIn;
 683:.\DSP\Source\TransformFunctions/arm_cfft_radix4_f32.c ****       /* xb - xd */
 684:.\DSP\Source\TransformFunctions/arm_cfft_radix4_f32.c ****       Xbminusd = xbIn - xdIn;
ARM GAS  C:\Users\IVYLIU~1\AppData\Local\Temp\ccHWxCbk.s 			page 21


 685:.\DSP\Source\TransformFunctions/arm_cfft_radix4_f32.c ****       /* ya - yc */
 686:.\DSP\Source\TransformFunctions/arm_cfft_radix4_f32.c ****       Yaminusc = yaIn - ycIn;
 687:.\DSP\Source\TransformFunctions/arm_cfft_radix4_f32.c ****       /* yb - yd */
 688:.\DSP\Source\TransformFunctions/arm_cfft_radix4_f32.c ****       Ybminusd = ybIn - ydIn;
 689:.\DSP\Source\TransformFunctions/arm_cfft_radix4_f32.c **** 
 690:.\DSP\Source\TransformFunctions/arm_cfft_radix4_f32.c ****       /* xa' = xa + xb + xc + xd */
 691:.\DSP\Source\TransformFunctions/arm_cfft_radix4_f32.c ****       pSrc[(2U * i0)] = Xaplusc + Xbplusd;
 692:.\DSP\Source\TransformFunctions/arm_cfft_radix4_f32.c **** 
 693:.\DSP\Source\TransformFunctions/arm_cfft_radix4_f32.c ****       /* ya' = ya + yb + yc + yd */
 694:.\DSP\Source\TransformFunctions/arm_cfft_radix4_f32.c ****       pSrc[(2U * i0) + 1U] = Yaplusc + Ybplusd;
 695:.\DSP\Source\TransformFunctions/arm_cfft_radix4_f32.c **** 
 696:.\DSP\Source\TransformFunctions/arm_cfft_radix4_f32.c ****       /* (xa - xc) - (yb - yd) */
 697:.\DSP\Source\TransformFunctions/arm_cfft_radix4_f32.c ****       Xb12C_out = (Xaminusc - Ybminusd);
 698:.\DSP\Source\TransformFunctions/arm_cfft_radix4_f32.c ****       /* (ya - yc) + (xb - xd) */
 699:.\DSP\Source\TransformFunctions/arm_cfft_radix4_f32.c ****       Yb12C_out = (Yaminusc + Xbminusd);
 700:.\DSP\Source\TransformFunctions/arm_cfft_radix4_f32.c ****       /* (xa + xc) - (xb + xd) */
 701:.\DSP\Source\TransformFunctions/arm_cfft_radix4_f32.c ****       Xc12C_out = (Xaplusc - Xbplusd);
 702:.\DSP\Source\TransformFunctions/arm_cfft_radix4_f32.c ****       /* (ya + yc) - (yb + yd) */
 703:.\DSP\Source\TransformFunctions/arm_cfft_radix4_f32.c ****       Yc12C_out = (Yaplusc - Ybplusd);
 704:.\DSP\Source\TransformFunctions/arm_cfft_radix4_f32.c ****       /* (xa - xc) + (yb - yd) */
 705:.\DSP\Source\TransformFunctions/arm_cfft_radix4_f32.c ****       Xd12C_out = (Xaminusc + Ybminusd);
 706:.\DSP\Source\TransformFunctions/arm_cfft_radix4_f32.c ****       /* (ya - yc) - (xb - xd) */
 707:.\DSP\Source\TransformFunctions/arm_cfft_radix4_f32.c ****       Yd12C_out = (Yaminusc - Xbminusd);
 708:.\DSP\Source\TransformFunctions/arm_cfft_radix4_f32.c **** 
 709:.\DSP\Source\TransformFunctions/arm_cfft_radix4_f32.c ****       co1 = pCoef[ia1 * 2U];
 710:.\DSP\Source\TransformFunctions/arm_cfft_radix4_f32.c ****       si1 = pCoef[(ia1 * 2U) + 1U];
 711:.\DSP\Source\TransformFunctions/arm_cfft_radix4_f32.c **** 
 712:.\DSP\Source\TransformFunctions/arm_cfft_radix4_f32.c ****       /*  index calculation for the coefficients */
 713:.\DSP\Source\TransformFunctions/arm_cfft_radix4_f32.c ****       ia3 = ia2 + ia1;
 714:.\DSP\Source\TransformFunctions/arm_cfft_radix4_f32.c ****       co3 = pCoef[ia3 * 2U];
 715:.\DSP\Source\TransformFunctions/arm_cfft_radix4_f32.c ****       si3 = pCoef[(ia3 * 2U) + 1U];
 716:.\DSP\Source\TransformFunctions/arm_cfft_radix4_f32.c **** 
 717:.\DSP\Source\TransformFunctions/arm_cfft_radix4_f32.c ****       Xb12_out = Xb12C_out * co1;
 718:.\DSP\Source\TransformFunctions/arm_cfft_radix4_f32.c ****       Yb12_out = Yb12C_out * co1;
 719:.\DSP\Source\TransformFunctions/arm_cfft_radix4_f32.c ****       Xc12_out = Xc12C_out * co2;
 720:.\DSP\Source\TransformFunctions/arm_cfft_radix4_f32.c ****       Yc12_out = Yc12C_out * co2;
 721:.\DSP\Source\TransformFunctions/arm_cfft_radix4_f32.c ****       Xd12_out = Xd12C_out * co3;
 722:.\DSP\Source\TransformFunctions/arm_cfft_radix4_f32.c ****       Yd12_out = Yd12C_out * co3;
 723:.\DSP\Source\TransformFunctions/arm_cfft_radix4_f32.c **** 
 724:.\DSP\Source\TransformFunctions/arm_cfft_radix4_f32.c ****       /* xb' = (xa+yb-xc-yd)co1 - (ya-xb-yc+xd)(si1) */
 725:.\DSP\Source\TransformFunctions/arm_cfft_radix4_f32.c ****       //Xb12_out -= Yb12C_out * si1;
 726:.\DSP\Source\TransformFunctions/arm_cfft_radix4_f32.c ****       p0 = Yb12C_out * si1;
 727:.\DSP\Source\TransformFunctions/arm_cfft_radix4_f32.c ****       /* yb' = (ya-xb-yc+xd)co1 + (xa+yb-xc-yd)(si1) */
 728:.\DSP\Source\TransformFunctions/arm_cfft_radix4_f32.c ****       //Yb12_out += Xb12C_out * si1;
 729:.\DSP\Source\TransformFunctions/arm_cfft_radix4_f32.c ****       p1 = Xb12C_out * si1;
 730:.\DSP\Source\TransformFunctions/arm_cfft_radix4_f32.c ****       /* xc' = (xa-xb+xc-xd)co2 - (ya-yb+yc-yd)(si2) */
 731:.\DSP\Source\TransformFunctions/arm_cfft_radix4_f32.c ****       //Xc12_out -= Yc12C_out * si2;
 732:.\DSP\Source\TransformFunctions/arm_cfft_radix4_f32.c ****       p2 = Yc12C_out * si2;
 733:.\DSP\Source\TransformFunctions/arm_cfft_radix4_f32.c ****       /* yc' = (ya-yb+yc-yd)co2 + (xa-xb+xc-xd)(si2) */
 734:.\DSP\Source\TransformFunctions/arm_cfft_radix4_f32.c ****       //Yc12_out += Xc12C_out * si2;
 735:.\DSP\Source\TransformFunctions/arm_cfft_radix4_f32.c ****       p3 = Xc12C_out * si2;
 736:.\DSP\Source\TransformFunctions/arm_cfft_radix4_f32.c ****       /* xd' = (xa-yb-xc+yd)co3 - (ya+xb-yc-xd)(si3) */
 737:.\DSP\Source\TransformFunctions/arm_cfft_radix4_f32.c ****       //Xd12_out -= Yd12C_out * si3;
 738:.\DSP\Source\TransformFunctions/arm_cfft_radix4_f32.c ****       p4 = Yd12C_out * si3;
 739:.\DSP\Source\TransformFunctions/arm_cfft_radix4_f32.c ****       /* yd' = (ya+xb-yc-xd)co3 + (xa-yb-xc+yd)(si3) */
 740:.\DSP\Source\TransformFunctions/arm_cfft_radix4_f32.c ****       //Yd12_out += Xd12C_out * si3;
 741:.\DSP\Source\TransformFunctions/arm_cfft_radix4_f32.c ****       p5 = Xd12C_out * si3;
ARM GAS  C:\Users\IVYLIU~1\AppData\Local\Temp\ccHWxCbk.s 			page 22


 742:.\DSP\Source\TransformFunctions/arm_cfft_radix4_f32.c **** 
 743:.\DSP\Source\TransformFunctions/arm_cfft_radix4_f32.c ****       Xb12_out -= p0;
 744:.\DSP\Source\TransformFunctions/arm_cfft_radix4_f32.c ****       Yb12_out += p1;
 745:.\DSP\Source\TransformFunctions/arm_cfft_radix4_f32.c ****       Xc12_out -= p2;
 746:.\DSP\Source\TransformFunctions/arm_cfft_radix4_f32.c ****       Yc12_out += p3;
 747:.\DSP\Source\TransformFunctions/arm_cfft_radix4_f32.c ****       Xd12_out -= p4;
 748:.\DSP\Source\TransformFunctions/arm_cfft_radix4_f32.c ****       Yd12_out += p5;
 749:.\DSP\Source\TransformFunctions/arm_cfft_radix4_f32.c **** 
 750:.\DSP\Source\TransformFunctions/arm_cfft_radix4_f32.c ****       /* xc' = (xa-xb+xc-xd)co2 - (ya-yb+yc-yd)(si2) */
 751:.\DSP\Source\TransformFunctions/arm_cfft_radix4_f32.c ****       pSrc[2U * i1] = Xc12_out;
 752:.\DSP\Source\TransformFunctions/arm_cfft_radix4_f32.c **** 
 753:.\DSP\Source\TransformFunctions/arm_cfft_radix4_f32.c ****       /* yc' = (ya-yb+yc-yd)co2 + (xa-xb+xc-xd)(si2) */
 754:.\DSP\Source\TransformFunctions/arm_cfft_radix4_f32.c ****       pSrc[(2U * i1) + 1U] = Yc12_out;
 755:.\DSP\Source\TransformFunctions/arm_cfft_radix4_f32.c **** 
 756:.\DSP\Source\TransformFunctions/arm_cfft_radix4_f32.c ****       /* xb' = (xa+yb-xc-yd)co1 - (ya-xb-yc+xd)(si1) */
 757:.\DSP\Source\TransformFunctions/arm_cfft_radix4_f32.c ****       pSrc[2U * i2] = Xb12_out;
 758:.\DSP\Source\TransformFunctions/arm_cfft_radix4_f32.c **** 
 759:.\DSP\Source\TransformFunctions/arm_cfft_radix4_f32.c ****       /* yb' = (ya-xb-yc+xd)co1 + (xa+yb-xc-yd)(si1) */
 760:.\DSP\Source\TransformFunctions/arm_cfft_radix4_f32.c ****       pSrc[(2U * i2) + 1U] = Yb12_out;
 761:.\DSP\Source\TransformFunctions/arm_cfft_radix4_f32.c **** 
 762:.\DSP\Source\TransformFunctions/arm_cfft_radix4_f32.c ****       /* xd' = (xa-yb-xc+yd)co3 - (ya+xb-yc-xd)(si3) */
 763:.\DSP\Source\TransformFunctions/arm_cfft_radix4_f32.c ****       pSrc[2U * i3] = Xd12_out;
 764:.\DSP\Source\TransformFunctions/arm_cfft_radix4_f32.c **** 
 765:.\DSP\Source\TransformFunctions/arm_cfft_radix4_f32.c ****       /* yd' = (ya+xb-yc-xd)co3 + (xa-yb-xc+yd)(si3) */
 766:.\DSP\Source\TransformFunctions/arm_cfft_radix4_f32.c ****       pSrc[(2U * i3) + 1U] = Yd12_out;
 767:.\DSP\Source\TransformFunctions/arm_cfft_radix4_f32.c **** 
 768:.\DSP\Source\TransformFunctions/arm_cfft_radix4_f32.c ****       /*  Twiddle coefficients index modifier */
 769:.\DSP\Source\TransformFunctions/arm_cfft_radix4_f32.c ****       ia1 = ia1 + twidCoefModifier;
 770:.\DSP\Source\TransformFunctions/arm_cfft_radix4_f32.c **** 
 771:.\DSP\Source\TransformFunctions/arm_cfft_radix4_f32.c ****       /*  Updating input index */
 772:.\DSP\Source\TransformFunctions/arm_cfft_radix4_f32.c ****       i0 = i0 + 1U;
 773:.\DSP\Source\TransformFunctions/arm_cfft_radix4_f32.c **** 
 774:.\DSP\Source\TransformFunctions/arm_cfft_radix4_f32.c ****    } while (--j);
 775:.\DSP\Source\TransformFunctions/arm_cfft_radix4_f32.c **** 
 776:.\DSP\Source\TransformFunctions/arm_cfft_radix4_f32.c ****    twidCoefModifier <<= 2U;
 777:.\DSP\Source\TransformFunctions/arm_cfft_radix4_f32.c **** 
 778:.\DSP\Source\TransformFunctions/arm_cfft_radix4_f32.c ****    /*  Calculation of second stage to excluding last stage */
 779:.\DSP\Source\TransformFunctions/arm_cfft_radix4_f32.c ****    for (k = fftLen >> 2U; k > 4U; k >>= 2U)
 780:.\DSP\Source\TransformFunctions/arm_cfft_radix4_f32.c ****    {
 781:.\DSP\Source\TransformFunctions/arm_cfft_radix4_f32.c ****       /*  Initializations for the first stage */
 782:.\DSP\Source\TransformFunctions/arm_cfft_radix4_f32.c ****       n1 = n2;
 783:.\DSP\Source\TransformFunctions/arm_cfft_radix4_f32.c ****       n2 >>= 2U;
 784:.\DSP\Source\TransformFunctions/arm_cfft_radix4_f32.c ****       ia1 = 0U;
 785:.\DSP\Source\TransformFunctions/arm_cfft_radix4_f32.c **** 
 786:.\DSP\Source\TransformFunctions/arm_cfft_radix4_f32.c ****       /*  Calculation of first stage */
 787:.\DSP\Source\TransformFunctions/arm_cfft_radix4_f32.c ****       j = 0;
 788:.\DSP\Source\TransformFunctions/arm_cfft_radix4_f32.c ****       do
 789:.\DSP\Source\TransformFunctions/arm_cfft_radix4_f32.c ****       {
 790:.\DSP\Source\TransformFunctions/arm_cfft_radix4_f32.c ****          /*  index calculation for the coefficients */
 791:.\DSP\Source\TransformFunctions/arm_cfft_radix4_f32.c ****          ia2 = ia1 + ia1;
 792:.\DSP\Source\TransformFunctions/arm_cfft_radix4_f32.c ****          ia3 = ia2 + ia1;
 793:.\DSP\Source\TransformFunctions/arm_cfft_radix4_f32.c ****          co1 = pCoef[ia1 * 2U];
 794:.\DSP\Source\TransformFunctions/arm_cfft_radix4_f32.c ****          si1 = pCoef[(ia1 * 2U) + 1U];
 795:.\DSP\Source\TransformFunctions/arm_cfft_radix4_f32.c ****          co2 = pCoef[ia2 * 2U];
 796:.\DSP\Source\TransformFunctions/arm_cfft_radix4_f32.c ****          si2 = pCoef[(ia2 * 2U) + 1U];
 797:.\DSP\Source\TransformFunctions/arm_cfft_radix4_f32.c ****          co3 = pCoef[ia3 * 2U];
 798:.\DSP\Source\TransformFunctions/arm_cfft_radix4_f32.c ****          si3 = pCoef[(ia3 * 2U) + 1U];
ARM GAS  C:\Users\IVYLIU~1\AppData\Local\Temp\ccHWxCbk.s 			page 23


 799:.\DSP\Source\TransformFunctions/arm_cfft_radix4_f32.c **** 
 800:.\DSP\Source\TransformFunctions/arm_cfft_radix4_f32.c ****          /*  Twiddle coefficients index modifier */
 801:.\DSP\Source\TransformFunctions/arm_cfft_radix4_f32.c ****          ia1 = ia1 + twidCoefModifier;
 802:.\DSP\Source\TransformFunctions/arm_cfft_radix4_f32.c **** 
 803:.\DSP\Source\TransformFunctions/arm_cfft_radix4_f32.c ****          i0 = j;
 804:.\DSP\Source\TransformFunctions/arm_cfft_radix4_f32.c ****          do
 805:.\DSP\Source\TransformFunctions/arm_cfft_radix4_f32.c ****          {
 806:.\DSP\Source\TransformFunctions/arm_cfft_radix4_f32.c ****             /*  index calculation for the input as, */
 807:.\DSP\Source\TransformFunctions/arm_cfft_radix4_f32.c ****             /*  pSrc[i0 + 0], pSrc[i0 + fftLen/4], pSrc[i0 + fftLen/2], pSrc[i0 + 3fftLen/4] */
 808:.\DSP\Source\TransformFunctions/arm_cfft_radix4_f32.c ****             i1 = i0 + n2;
 809:.\DSP\Source\TransformFunctions/arm_cfft_radix4_f32.c ****             i2 = i1 + n2;
 810:.\DSP\Source\TransformFunctions/arm_cfft_radix4_f32.c ****             i3 = i2 + n2;
 811:.\DSP\Source\TransformFunctions/arm_cfft_radix4_f32.c **** 
 812:.\DSP\Source\TransformFunctions/arm_cfft_radix4_f32.c ****             xaIn = pSrc[(2U * i0)];
 813:.\DSP\Source\TransformFunctions/arm_cfft_radix4_f32.c ****             yaIn = pSrc[(2U * i0) + 1U];
 814:.\DSP\Source\TransformFunctions/arm_cfft_radix4_f32.c **** 
 815:.\DSP\Source\TransformFunctions/arm_cfft_radix4_f32.c ****             xbIn = pSrc[(2U * i1)];
 816:.\DSP\Source\TransformFunctions/arm_cfft_radix4_f32.c ****             ybIn = pSrc[(2U * i1) + 1U];
 817:.\DSP\Source\TransformFunctions/arm_cfft_radix4_f32.c **** 
 818:.\DSP\Source\TransformFunctions/arm_cfft_radix4_f32.c ****             xcIn = pSrc[(2U * i2)];
 819:.\DSP\Source\TransformFunctions/arm_cfft_radix4_f32.c ****             ycIn = pSrc[(2U * i2) + 1U];
 820:.\DSP\Source\TransformFunctions/arm_cfft_radix4_f32.c **** 
 821:.\DSP\Source\TransformFunctions/arm_cfft_radix4_f32.c ****             xdIn = pSrc[(2U * i3)];
 822:.\DSP\Source\TransformFunctions/arm_cfft_radix4_f32.c ****             ydIn = pSrc[(2U * i3) + 1U];
 823:.\DSP\Source\TransformFunctions/arm_cfft_radix4_f32.c **** 
 824:.\DSP\Source\TransformFunctions/arm_cfft_radix4_f32.c ****             /* xa - xc */
 825:.\DSP\Source\TransformFunctions/arm_cfft_radix4_f32.c ****             Xaminusc = xaIn - xcIn;
 826:.\DSP\Source\TransformFunctions/arm_cfft_radix4_f32.c ****             /* (xb - xd) */
 827:.\DSP\Source\TransformFunctions/arm_cfft_radix4_f32.c ****             Xbminusd = xbIn - xdIn;
 828:.\DSP\Source\TransformFunctions/arm_cfft_radix4_f32.c ****             /* ya - yc */
 829:.\DSP\Source\TransformFunctions/arm_cfft_radix4_f32.c ****             Yaminusc = yaIn - ycIn;
 830:.\DSP\Source\TransformFunctions/arm_cfft_radix4_f32.c ****             /* (yb - yd) */
 831:.\DSP\Source\TransformFunctions/arm_cfft_radix4_f32.c ****             Ybminusd = ybIn - ydIn;
 832:.\DSP\Source\TransformFunctions/arm_cfft_radix4_f32.c **** 
 833:.\DSP\Source\TransformFunctions/arm_cfft_radix4_f32.c ****             /* xa + xc */
 834:.\DSP\Source\TransformFunctions/arm_cfft_radix4_f32.c ****             Xaplusc = xaIn + xcIn;
 835:.\DSP\Source\TransformFunctions/arm_cfft_radix4_f32.c ****             /* xb + xd */
 836:.\DSP\Source\TransformFunctions/arm_cfft_radix4_f32.c ****             Xbplusd = xbIn + xdIn;
 837:.\DSP\Source\TransformFunctions/arm_cfft_radix4_f32.c ****             /* ya + yc */
 838:.\DSP\Source\TransformFunctions/arm_cfft_radix4_f32.c ****             Yaplusc = yaIn + ycIn;
 839:.\DSP\Source\TransformFunctions/arm_cfft_radix4_f32.c ****             /* yb + yd */
 840:.\DSP\Source\TransformFunctions/arm_cfft_radix4_f32.c ****             Ybplusd = ybIn + ydIn;
 841:.\DSP\Source\TransformFunctions/arm_cfft_radix4_f32.c **** 
 842:.\DSP\Source\TransformFunctions/arm_cfft_radix4_f32.c ****             /* (xa - xc) - (yb - yd) */
 843:.\DSP\Source\TransformFunctions/arm_cfft_radix4_f32.c ****             Xb12C_out = (Xaminusc - Ybminusd);
 844:.\DSP\Source\TransformFunctions/arm_cfft_radix4_f32.c ****             /* (ya - yc) +  (xb - xd) */
 845:.\DSP\Source\TransformFunctions/arm_cfft_radix4_f32.c ****             Yb12C_out = (Yaminusc + Xbminusd);
 846:.\DSP\Source\TransformFunctions/arm_cfft_radix4_f32.c ****             /* xa + xc -(xb + xd) */
 847:.\DSP\Source\TransformFunctions/arm_cfft_radix4_f32.c ****             Xc12C_out = (Xaplusc - Xbplusd);
 848:.\DSP\Source\TransformFunctions/arm_cfft_radix4_f32.c ****             /* (ya + yc) - (yb + yd) */
 849:.\DSP\Source\TransformFunctions/arm_cfft_radix4_f32.c ****             Yc12C_out = (Yaplusc - Ybplusd);
 850:.\DSP\Source\TransformFunctions/arm_cfft_radix4_f32.c ****             /* (xa - xc) + (yb - yd) */
 851:.\DSP\Source\TransformFunctions/arm_cfft_radix4_f32.c ****             Xd12C_out = (Xaminusc + Ybminusd);
 852:.\DSP\Source\TransformFunctions/arm_cfft_radix4_f32.c ****             /* (ya - yc) -  (xb - xd) */
 853:.\DSP\Source\TransformFunctions/arm_cfft_radix4_f32.c ****             Yd12C_out = (Yaminusc - Xbminusd);
 854:.\DSP\Source\TransformFunctions/arm_cfft_radix4_f32.c **** 
 855:.\DSP\Source\TransformFunctions/arm_cfft_radix4_f32.c ****             pSrc[(2U * i0)] = Xaplusc + Xbplusd;
ARM GAS  C:\Users\IVYLIU~1\AppData\Local\Temp\ccHWxCbk.s 			page 24


 856:.\DSP\Source\TransformFunctions/arm_cfft_radix4_f32.c ****             pSrc[(2U * i0) + 1U] = Yaplusc + Ybplusd;
 857:.\DSP\Source\TransformFunctions/arm_cfft_radix4_f32.c **** 
 858:.\DSP\Source\TransformFunctions/arm_cfft_radix4_f32.c ****             Xb12_out = Xb12C_out * co1;
 859:.\DSP\Source\TransformFunctions/arm_cfft_radix4_f32.c ****             Yb12_out = Yb12C_out * co1;
 860:.\DSP\Source\TransformFunctions/arm_cfft_radix4_f32.c ****             Xc12_out = Xc12C_out * co2;
 861:.\DSP\Source\TransformFunctions/arm_cfft_radix4_f32.c ****             Yc12_out = Yc12C_out * co2;
 862:.\DSP\Source\TransformFunctions/arm_cfft_radix4_f32.c ****             Xd12_out = Xd12C_out * co3;
 863:.\DSP\Source\TransformFunctions/arm_cfft_radix4_f32.c ****             Yd12_out = Yd12C_out * co3;
 864:.\DSP\Source\TransformFunctions/arm_cfft_radix4_f32.c **** 
 865:.\DSP\Source\TransformFunctions/arm_cfft_radix4_f32.c ****             /* xb' = (xa+yb-xc-yd)co1 - (ya-xb-yc+xd)(si1) */
 866:.\DSP\Source\TransformFunctions/arm_cfft_radix4_f32.c ****             //Xb12_out -= Yb12C_out * si1;
 867:.\DSP\Source\TransformFunctions/arm_cfft_radix4_f32.c ****             p0 = Yb12C_out * si1;
 868:.\DSP\Source\TransformFunctions/arm_cfft_radix4_f32.c ****             /* yb' = (ya-xb-yc+xd)co1 + (xa+yb-xc-yd)(si1) */
 869:.\DSP\Source\TransformFunctions/arm_cfft_radix4_f32.c ****             //Yb12_out += Xb12C_out * si1;
 870:.\DSP\Source\TransformFunctions/arm_cfft_radix4_f32.c ****             p1 = Xb12C_out * si1;
 871:.\DSP\Source\TransformFunctions/arm_cfft_radix4_f32.c ****             /* xc' = (xa-xb+xc-xd)co2 - (ya-yb+yc-yd)(si2) */
 872:.\DSP\Source\TransformFunctions/arm_cfft_radix4_f32.c ****             //Xc12_out -= Yc12C_out * si2;
 873:.\DSP\Source\TransformFunctions/arm_cfft_radix4_f32.c ****             p2 = Yc12C_out * si2;
 874:.\DSP\Source\TransformFunctions/arm_cfft_radix4_f32.c ****             /* yc' = (ya-yb+yc-yd)co2 + (xa-xb+xc-xd)(si2) */
 875:.\DSP\Source\TransformFunctions/arm_cfft_radix4_f32.c ****             //Yc12_out += Xc12C_out * si2;
 876:.\DSP\Source\TransformFunctions/arm_cfft_radix4_f32.c ****             p3 = Xc12C_out * si2;
 877:.\DSP\Source\TransformFunctions/arm_cfft_radix4_f32.c ****             /* xd' = (xa-yb-xc+yd)co3 - (ya+xb-yc-xd)(si3) */
 878:.\DSP\Source\TransformFunctions/arm_cfft_radix4_f32.c ****             //Xd12_out -= Yd12C_out * si3;
 879:.\DSP\Source\TransformFunctions/arm_cfft_radix4_f32.c ****             p4 = Yd12C_out * si3;
 880:.\DSP\Source\TransformFunctions/arm_cfft_radix4_f32.c ****             /* yd' = (ya+xb-yc-xd)co3 + (xa-yb-xc+yd)(si3) */
 881:.\DSP\Source\TransformFunctions/arm_cfft_radix4_f32.c ****             //Yd12_out += Xd12C_out * si3;
 882:.\DSP\Source\TransformFunctions/arm_cfft_radix4_f32.c ****             p5 = Xd12C_out * si3;
 883:.\DSP\Source\TransformFunctions/arm_cfft_radix4_f32.c **** 
 884:.\DSP\Source\TransformFunctions/arm_cfft_radix4_f32.c ****             Xb12_out -= p0;
 885:.\DSP\Source\TransformFunctions/arm_cfft_radix4_f32.c ****             Yb12_out += p1;
 886:.\DSP\Source\TransformFunctions/arm_cfft_radix4_f32.c ****             Xc12_out -= p2;
 887:.\DSP\Source\TransformFunctions/arm_cfft_radix4_f32.c ****             Yc12_out += p3;
 888:.\DSP\Source\TransformFunctions/arm_cfft_radix4_f32.c ****             Xd12_out -= p4;
 889:.\DSP\Source\TransformFunctions/arm_cfft_radix4_f32.c ****             Yd12_out += p5;
 890:.\DSP\Source\TransformFunctions/arm_cfft_radix4_f32.c **** 
 891:.\DSP\Source\TransformFunctions/arm_cfft_radix4_f32.c ****             /* xc' = (xa-xb+xc-xd)co2 - (ya-yb+yc-yd)(si2) */
 892:.\DSP\Source\TransformFunctions/arm_cfft_radix4_f32.c ****             pSrc[2U * i1] = Xc12_out;
 893:.\DSP\Source\TransformFunctions/arm_cfft_radix4_f32.c **** 
 894:.\DSP\Source\TransformFunctions/arm_cfft_radix4_f32.c ****             /* yc' = (ya-yb+yc-yd)co2 + (xa-xb+xc-xd)(si2) */
 895:.\DSP\Source\TransformFunctions/arm_cfft_radix4_f32.c ****             pSrc[(2U * i1) + 1U] = Yc12_out;
 896:.\DSP\Source\TransformFunctions/arm_cfft_radix4_f32.c **** 
 897:.\DSP\Source\TransformFunctions/arm_cfft_radix4_f32.c ****             /* xb' = (xa+yb-xc-yd)co1 - (ya-xb-yc+xd)(si1) */
 898:.\DSP\Source\TransformFunctions/arm_cfft_radix4_f32.c ****             pSrc[2U * i2] = Xb12_out;
 899:.\DSP\Source\TransformFunctions/arm_cfft_radix4_f32.c **** 
 900:.\DSP\Source\TransformFunctions/arm_cfft_radix4_f32.c ****             /* yb' = (ya-xb-yc+xd)co1 + (xa+yb-xc-yd)(si1) */
 901:.\DSP\Source\TransformFunctions/arm_cfft_radix4_f32.c ****             pSrc[(2U * i2) + 1U] = Yb12_out;
 902:.\DSP\Source\TransformFunctions/arm_cfft_radix4_f32.c **** 
 903:.\DSP\Source\TransformFunctions/arm_cfft_radix4_f32.c ****             /* xd' = (xa-yb-xc+yd)co3 - (ya+xb-yc-xd)(si3) */
 904:.\DSP\Source\TransformFunctions/arm_cfft_radix4_f32.c ****             pSrc[2U * i3] = Xd12_out;
 905:.\DSP\Source\TransformFunctions/arm_cfft_radix4_f32.c **** 
 906:.\DSP\Source\TransformFunctions/arm_cfft_radix4_f32.c ****             /* yd' = (ya+xb-yc-xd)co3 + (xa-yb-xc+yd)(si3) */
 907:.\DSP\Source\TransformFunctions/arm_cfft_radix4_f32.c ****             pSrc[(2U * i3) + 1U] = Yd12_out;
 908:.\DSP\Source\TransformFunctions/arm_cfft_radix4_f32.c **** 
 909:.\DSP\Source\TransformFunctions/arm_cfft_radix4_f32.c ****             i0 += n1;
 910:.\DSP\Source\TransformFunctions/arm_cfft_radix4_f32.c ****          } while (i0 < fftLen);
 911:.\DSP\Source\TransformFunctions/arm_cfft_radix4_f32.c ****          j++;
 912:.\DSP\Source\TransformFunctions/arm_cfft_radix4_f32.c ****       } while (j <= (n2 - 1U));
ARM GAS  C:\Users\IVYLIU~1\AppData\Local\Temp\ccHWxCbk.s 			page 25


 913:.\DSP\Source\TransformFunctions/arm_cfft_radix4_f32.c ****       twidCoefModifier <<= 2U;
 914:.\DSP\Source\TransformFunctions/arm_cfft_radix4_f32.c ****    }
 915:.\DSP\Source\TransformFunctions/arm_cfft_radix4_f32.c ****    /*  Initializations of last stage */
 916:.\DSP\Source\TransformFunctions/arm_cfft_radix4_f32.c **** 
 917:.\DSP\Source\TransformFunctions/arm_cfft_radix4_f32.c ****    j = fftLen >> 2;
 918:.\DSP\Source\TransformFunctions/arm_cfft_radix4_f32.c ****    ptr1 = &pSrc[0];
 919:.\DSP\Source\TransformFunctions/arm_cfft_radix4_f32.c **** 
 920:.\DSP\Source\TransformFunctions/arm_cfft_radix4_f32.c ****    /*  Calculations of last stage */
 921:.\DSP\Source\TransformFunctions/arm_cfft_radix4_f32.c ****    do
 922:.\DSP\Source\TransformFunctions/arm_cfft_radix4_f32.c ****    {
 923:.\DSP\Source\TransformFunctions/arm_cfft_radix4_f32.c ****       xaIn = ptr1[0];
 924:.\DSP\Source\TransformFunctions/arm_cfft_radix4_f32.c ****       yaIn = ptr1[1];
 925:.\DSP\Source\TransformFunctions/arm_cfft_radix4_f32.c ****       xbIn = ptr1[2];
 926:.\DSP\Source\TransformFunctions/arm_cfft_radix4_f32.c ****       ybIn = ptr1[3];
 927:.\DSP\Source\TransformFunctions/arm_cfft_radix4_f32.c ****       xcIn = ptr1[4];
 928:.\DSP\Source\TransformFunctions/arm_cfft_radix4_f32.c ****       ycIn = ptr1[5];
 929:.\DSP\Source\TransformFunctions/arm_cfft_radix4_f32.c ****       xdIn = ptr1[6];
 930:.\DSP\Source\TransformFunctions/arm_cfft_radix4_f32.c ****       ydIn = ptr1[7];
 931:.\DSP\Source\TransformFunctions/arm_cfft_radix4_f32.c **** 
 932:.\DSP\Source\TransformFunctions/arm_cfft_radix4_f32.c ****       /*  Butterfly implementation */
 933:.\DSP\Source\TransformFunctions/arm_cfft_radix4_f32.c ****       /* xa + xc */
 934:.\DSP\Source\TransformFunctions/arm_cfft_radix4_f32.c ****       Xaplusc = xaIn + xcIn;
 935:.\DSP\Source\TransformFunctions/arm_cfft_radix4_f32.c **** 
 936:.\DSP\Source\TransformFunctions/arm_cfft_radix4_f32.c ****       /* xa - xc */
 937:.\DSP\Source\TransformFunctions/arm_cfft_radix4_f32.c ****       Xaminusc = xaIn - xcIn;
 938:.\DSP\Source\TransformFunctions/arm_cfft_radix4_f32.c **** 
 939:.\DSP\Source\TransformFunctions/arm_cfft_radix4_f32.c ****       /* ya + yc */
 940:.\DSP\Source\TransformFunctions/arm_cfft_radix4_f32.c ****       Yaplusc = yaIn + ycIn;
 941:.\DSP\Source\TransformFunctions/arm_cfft_radix4_f32.c **** 
 942:.\DSP\Source\TransformFunctions/arm_cfft_radix4_f32.c ****       /* ya - yc */
 943:.\DSP\Source\TransformFunctions/arm_cfft_radix4_f32.c ****       Yaminusc = yaIn - ycIn;
 944:.\DSP\Source\TransformFunctions/arm_cfft_radix4_f32.c **** 
 945:.\DSP\Source\TransformFunctions/arm_cfft_radix4_f32.c ****       /* xb + xd */
 946:.\DSP\Source\TransformFunctions/arm_cfft_radix4_f32.c ****       Xbplusd = xbIn + xdIn;
 947:.\DSP\Source\TransformFunctions/arm_cfft_radix4_f32.c **** 
 948:.\DSP\Source\TransformFunctions/arm_cfft_radix4_f32.c ****       /* yb + yd */
 949:.\DSP\Source\TransformFunctions/arm_cfft_radix4_f32.c ****       Ybplusd = ybIn + ydIn;
 950:.\DSP\Source\TransformFunctions/arm_cfft_radix4_f32.c **** 
 951:.\DSP\Source\TransformFunctions/arm_cfft_radix4_f32.c ****       /* (xb-xd) */
 952:.\DSP\Source\TransformFunctions/arm_cfft_radix4_f32.c ****       Xbminusd = xbIn - xdIn;
 953:.\DSP\Source\TransformFunctions/arm_cfft_radix4_f32.c **** 
 954:.\DSP\Source\TransformFunctions/arm_cfft_radix4_f32.c ****       /* (yb-yd) */
 955:.\DSP\Source\TransformFunctions/arm_cfft_radix4_f32.c ****       Ybminusd = ybIn - ydIn;
 956:.\DSP\Source\TransformFunctions/arm_cfft_radix4_f32.c **** 
 957:.\DSP\Source\TransformFunctions/arm_cfft_radix4_f32.c ****       /* xa' = (xa+xb+xc+xd) * onebyfftLen */
 958:.\DSP\Source\TransformFunctions/arm_cfft_radix4_f32.c ****       a0 = (Xaplusc + Xbplusd);
 959:.\DSP\Source\TransformFunctions/arm_cfft_radix4_f32.c ****       /* ya' = (ya+yb+yc+yd) * onebyfftLen */
 960:.\DSP\Source\TransformFunctions/arm_cfft_radix4_f32.c ****       a1 = (Yaplusc + Ybplusd);
 961:.\DSP\Source\TransformFunctions/arm_cfft_radix4_f32.c ****       /* xc' = (xa-xb+xc-xd) * onebyfftLen */
 962:.\DSP\Source\TransformFunctions/arm_cfft_radix4_f32.c ****       a2 = (Xaplusc - Xbplusd);
 963:.\DSP\Source\TransformFunctions/arm_cfft_radix4_f32.c ****       /* yc' = (ya-yb+yc-yd) * onebyfftLen  */
 964:.\DSP\Source\TransformFunctions/arm_cfft_radix4_f32.c ****       a3 = (Yaplusc - Ybplusd);
 965:.\DSP\Source\TransformFunctions/arm_cfft_radix4_f32.c ****       /* xb' = (xa-yb-xc+yd) * onebyfftLen */
 966:.\DSP\Source\TransformFunctions/arm_cfft_radix4_f32.c ****       a4 = (Xaminusc - Ybminusd);
 967:.\DSP\Source\TransformFunctions/arm_cfft_radix4_f32.c ****       /* yb' = (ya+xb-yc-xd) * onebyfftLen */
 968:.\DSP\Source\TransformFunctions/arm_cfft_radix4_f32.c ****       a5 = (Yaminusc + Xbminusd);
 969:.\DSP\Source\TransformFunctions/arm_cfft_radix4_f32.c ****       /* xd' = (xa-yb-xc+yd) * onebyfftLen */
ARM GAS  C:\Users\IVYLIU~1\AppData\Local\Temp\ccHWxCbk.s 			page 26


 970:.\DSP\Source\TransformFunctions/arm_cfft_radix4_f32.c ****       a6 = (Xaminusc + Ybminusd);
 971:.\DSP\Source\TransformFunctions/arm_cfft_radix4_f32.c ****       /* yd' = (ya-xb-yc+xd) * onebyfftLen */
 972:.\DSP\Source\TransformFunctions/arm_cfft_radix4_f32.c ****       a7 = (Yaminusc - Xbminusd);
 973:.\DSP\Source\TransformFunctions/arm_cfft_radix4_f32.c **** 
 974:.\DSP\Source\TransformFunctions/arm_cfft_radix4_f32.c ****       p0 = a0 * onebyfftLen;
 975:.\DSP\Source\TransformFunctions/arm_cfft_radix4_f32.c ****       p1 = a1 * onebyfftLen;
 976:.\DSP\Source\TransformFunctions/arm_cfft_radix4_f32.c ****       p2 = a2 * onebyfftLen;
 977:.\DSP\Source\TransformFunctions/arm_cfft_radix4_f32.c ****       p3 = a3 * onebyfftLen;
 978:.\DSP\Source\TransformFunctions/arm_cfft_radix4_f32.c ****       p4 = a4 * onebyfftLen;
 979:.\DSP\Source\TransformFunctions/arm_cfft_radix4_f32.c ****       p5 = a5 * onebyfftLen;
 980:.\DSP\Source\TransformFunctions/arm_cfft_radix4_f32.c ****       p6 = a6 * onebyfftLen;
 981:.\DSP\Source\TransformFunctions/arm_cfft_radix4_f32.c ****       p7 = a7 * onebyfftLen;
 982:.\DSP\Source\TransformFunctions/arm_cfft_radix4_f32.c **** 
 983:.\DSP\Source\TransformFunctions/arm_cfft_radix4_f32.c ****       /* xa' = (xa+xb+xc+xd) * onebyfftLen */
 984:.\DSP\Source\TransformFunctions/arm_cfft_radix4_f32.c ****       ptr1[0] = p0;
 985:.\DSP\Source\TransformFunctions/arm_cfft_radix4_f32.c ****       /* ya' = (ya+yb+yc+yd) * onebyfftLen */
 986:.\DSP\Source\TransformFunctions/arm_cfft_radix4_f32.c ****       ptr1[1] = p1;
 987:.\DSP\Source\TransformFunctions/arm_cfft_radix4_f32.c ****       /* xc' = (xa-xb+xc-xd) * onebyfftLen */
 988:.\DSP\Source\TransformFunctions/arm_cfft_radix4_f32.c ****       ptr1[2] = p2;
 989:.\DSP\Source\TransformFunctions/arm_cfft_radix4_f32.c ****       /* yc' = (ya-yb+yc-yd) * onebyfftLen  */
 990:.\DSP\Source\TransformFunctions/arm_cfft_radix4_f32.c ****       ptr1[3] = p3;
 991:.\DSP\Source\TransformFunctions/arm_cfft_radix4_f32.c ****       /* xb' = (xa-yb-xc+yd) * onebyfftLen */
 992:.\DSP\Source\TransformFunctions/arm_cfft_radix4_f32.c ****       ptr1[4] = p4;
 993:.\DSP\Source\TransformFunctions/arm_cfft_radix4_f32.c ****       /* yb' = (ya+xb-yc-xd) * onebyfftLen */
 994:.\DSP\Source\TransformFunctions/arm_cfft_radix4_f32.c ****       ptr1[5] = p5;
 995:.\DSP\Source\TransformFunctions/arm_cfft_radix4_f32.c ****       /* xd' = (xa-yb-xc+yd) * onebyfftLen */
 996:.\DSP\Source\TransformFunctions/arm_cfft_radix4_f32.c ****       ptr1[6] = p6;
 997:.\DSP\Source\TransformFunctions/arm_cfft_radix4_f32.c ****       /* yd' = (ya-xb-yc+xd) * onebyfftLen */
 998:.\DSP\Source\TransformFunctions/arm_cfft_radix4_f32.c ****       ptr1[7] = p7;
 999:.\DSP\Source\TransformFunctions/arm_cfft_radix4_f32.c **** 
1000:.\DSP\Source\TransformFunctions/arm_cfft_radix4_f32.c ****       /* increment source pointer by 8 for next calculations */
1001:.\DSP\Source\TransformFunctions/arm_cfft_radix4_f32.c ****       ptr1 = ptr1 + 8U;
1002:.\DSP\Source\TransformFunctions/arm_cfft_radix4_f32.c **** 
1003:.\DSP\Source\TransformFunctions/arm_cfft_radix4_f32.c ****    } while (--j);
1004:.\DSP\Source\TransformFunctions/arm_cfft_radix4_f32.c **** 
1005:.\DSP\Source\TransformFunctions/arm_cfft_radix4_f32.c **** #else
1006:.\DSP\Source\TransformFunctions/arm_cfft_radix4_f32.c **** 
1007:.\DSP\Source\TransformFunctions/arm_cfft_radix4_f32.c ****         float32_t t1, t2, r1, r2, s1, s2;
1008:.\DSP\Source\TransformFunctions/arm_cfft_radix4_f32.c **** 
1009:.\DSP\Source\TransformFunctions/arm_cfft_radix4_f32.c ****    /*  Initializations for the first stage */
1010:.\DSP\Source\TransformFunctions/arm_cfft_radix4_f32.c ****    n2 = fftLen;
 452              		.loc 1 1010 0
 453 000a 1091     		str	r1, [sp, #64]
 454              	.LVL101:
1011:.\DSP\Source\TransformFunctions/arm_cfft_radix4_f32.c ****    n1 = n2;
1012:.\DSP\Source\TransformFunctions/arm_cfft_radix4_f32.c **** 
1013:.\DSP\Source\TransformFunctions/arm_cfft_radix4_f32.c ****    /*  Calculation of first stage */
1014:.\DSP\Source\TransformFunctions/arm_cfft_radix4_f32.c ****    for (k = fftLen; k > 4U; k >>= 2U)
 455              		.loc 1 1014 0
 456 000c 1591     		str	r1, [sp, #84]
1010:.\DSP\Source\TransformFunctions/arm_cfft_radix4_f32.c ****    n1 = n2;
 457              		.loc 1 1010 0
 458 000e 0F91     		str	r1, [sp, #60]
 459 0010 8046     		mov	r8, r0
 460              		.loc 1 1014 0
 461 0012 11E1     		b	.L8
 462              	.LVL102:
ARM GAS  C:\Users\IVYLIU~1\AppData\Local\Temp\ccHWxCbk.s 			page 27


 463              	.L11:
1015:.\DSP\Source\TransformFunctions/arm_cfft_radix4_f32.c ****    {
1016:.\DSP\Source\TransformFunctions/arm_cfft_radix4_f32.c ****       /*  Initializations for the first stage */
1017:.\DSP\Source\TransformFunctions/arm_cfft_radix4_f32.c ****       n1 = n2;
1018:.\DSP\Source\TransformFunctions/arm_cfft_radix4_f32.c ****       n2 >>= 2U;
 464              		.loc 1 1018 0
 465 0014 0F9B     		ldr	r3, [sp, #60]
 466              	.LVL103:
 467 0016 9B08     		lsrs	r3, r3, #2
 468 0018 0D93     		str	r3, [sp, #52]
 469              	.LVL104:
1019:.\DSP\Source\TransformFunctions/arm_cfft_radix4_f32.c ****       ia1 = 0U;
1020:.\DSP\Source\TransformFunctions/arm_cfft_radix4_f32.c **** 
1021:.\DSP\Source\TransformFunctions/arm_cfft_radix4_f32.c ****       /*  Calculation of first stage */
1022:.\DSP\Source\TransformFunctions/arm_cfft_radix4_f32.c ****       j = 0;
 470              		.loc 1 1022 0
 471 001a 0023     		movs	r3, #0
 472              	.LVL105:
 473 001c 1193     		str	r3, [sp, #68]
1019:.\DSP\Source\TransformFunctions/arm_cfft_radix4_f32.c ****       ia1 = 0U;
 474              		.loc 1 1019 0
 475 001e 1293     		str	r3, [sp, #72]
 476 0020 C346     		mov	fp, r8
 477              	.LVL106:
 478              	.L10:
1023:.\DSP\Source\TransformFunctions/arm_cfft_radix4_f32.c ****       do
1024:.\DSP\Source\TransformFunctions/arm_cfft_radix4_f32.c ****       {
1025:.\DSP\Source\TransformFunctions/arm_cfft_radix4_f32.c ****          /*  index calculation for the coefficients */
1026:.\DSP\Source\TransformFunctions/arm_cfft_radix4_f32.c ****          ia2 = ia1 + ia1;
1027:.\DSP\Source\TransformFunctions/arm_cfft_radix4_f32.c ****          ia3 = ia2 + ia1;
 479              		.loc 1 1027 0
 480 0022 129D     		ldr	r5, [sp, #72]
 481 0024 05EB4503 		add	r3, r5, r5, lsl #1
 482              	.LVL107:
1028:.\DSP\Source\TransformFunctions/arm_cfft_radix4_f32.c ****          co1 = pCoef[ia1 * 2U];
 483              		.loc 1 1028 0
 484 0028 1499     		ldr	r1, [sp, #80]
 485 002a 51F83520 		ldr	r2, [r1, r5, lsl #3]	@ float
 486 002e 0492     		str	r2, [sp, #16]	@ float
 487              	.LVL108:
1029:.\DSP\Source\TransformFunctions/arm_cfft_radix4_f32.c ****          si1 = pCoef[(ia1 * 2U) + 1U];
 488              		.loc 1 1029 0
 489 0030 01EBC502 		add	r2, r1, r5, lsl #3
 490              	.LVL109:
 491 0034 5268     		ldr	r2, [r2, #4]	@ float
 492              	.LVL110:
 493 0036 0592     		str	r2, [sp, #20]	@ float
 494              	.LVL111:
1030:.\DSP\Source\TransformFunctions/arm_cfft_radix4_f32.c ****          co2 = pCoef[ia2 * 2U];
 495              		.loc 1 1030 0
 496 0038 2A01     		lsls	r2, r5, #4
 497              	.LVL112:
 498 003a 8858     		ldr	r0, [r1, r2]	@ float
 499 003c 0690     		str	r0, [sp, #24]	@ float
 500              	.LVL113:
1031:.\DSP\Source\TransformFunctions/arm_cfft_radix4_f32.c ****          si2 = pCoef[(ia2 * 2U) + 1U];
 501              		.loc 1 1031 0
ARM GAS  C:\Users\IVYLIU~1\AppData\Local\Temp\ccHWxCbk.s 			page 28


 502 003e 0432     		adds	r2, r2, #4
 503 0040 8A58     		ldr	r2, [r1, r2]	@ float
 504 0042 0792     		str	r2, [sp, #28]	@ float
 505              	.LVL114:
1032:.\DSP\Source\TransformFunctions/arm_cfft_radix4_f32.c ****          co3 = pCoef[ia3 * 2U];
 506              		.loc 1 1032 0
 507 0044 51F83320 		ldr	r2, [r1, r3, lsl #3]	@ float
 508              	.LVL115:
 509 0048 0892     		str	r2, [sp, #32]	@ float
 510              	.LVL116:
1033:.\DSP\Source\TransformFunctions/arm_cfft_radix4_f32.c ****          si3 = pCoef[(ia3 * 2U) + 1U];
 511              		.loc 1 1033 0
 512 004a 01EBC303 		add	r3, r1, r3, lsl #3
 513              	.LVL117:
 514 004e 5B68     		ldr	r3, [r3, #4]	@ float
 515 0050 0E93     		str	r3, [sp, #56]	@ float
 516              	.LVL118:
1034:.\DSP\Source\TransformFunctions/arm_cfft_radix4_f32.c **** 
1035:.\DSP\Source\TransformFunctions/arm_cfft_radix4_f32.c ****          /*  Twiddle coefficients index modifier */
1036:.\DSP\Source\TransformFunctions/arm_cfft_radix4_f32.c ****          ia1 = ia1 + twidCoefModifier;
 517              		.loc 1 1036 0
 518 0052 139B     		ldr	r3, [sp, #76]
 519              	.LVL119:
 520 0054 EB18     		adds	r3, r5, r3
 521 0056 1293     		str	r3, [sp, #72]
 522              	.LVL120:
1037:.\DSP\Source\TransformFunctions/arm_cfft_radix4_f32.c **** 
1038:.\DSP\Source\TransformFunctions/arm_cfft_radix4_f32.c ****          i0 = j;
 523              		.loc 1 1038 0
 524 0058 119F     		ldr	r7, [sp, #68]
 525              	.LVL121:
 526              	.L9:
1039:.\DSP\Source\TransformFunctions/arm_cfft_radix4_f32.c ****          do
1040:.\DSP\Source\TransformFunctions/arm_cfft_radix4_f32.c ****          {
1041:.\DSP\Source\TransformFunctions/arm_cfft_radix4_f32.c ****             /*  index calculation for the input as, */
1042:.\DSP\Source\TransformFunctions/arm_cfft_radix4_f32.c ****             /*  pSrc[i0 + 0], pSrc[i0 + fftLen/4], pSrc[i0 + fftLen/2], pSrc[i0 + 3fftLen/4] */
1043:.\DSP\Source\TransformFunctions/arm_cfft_radix4_f32.c ****             i1 = i0 + n2;
 527              		.loc 1 1043 0 discriminator 1
 528 005a 0D9B     		ldr	r3, [sp, #52]
 529 005c FD18     		adds	r5, r7, r3
 530              	.LVL122:
1044:.\DSP\Source\TransformFunctions/arm_cfft_radix4_f32.c ****             i2 = i1 + n2;
 531              		.loc 1 1044 0 discriminator 1
 532 005e 05EB0308 		add	r8, r5, r3
 533              	.LVL123:
1045:.\DSP\Source\TransformFunctions/arm_cfft_radix4_f32.c ****             i3 = i2 + n2;
 534              		.loc 1 1045 0 discriminator 1
 535 0062 08EB0309 		add	r9, r8, r3
 536              	.LVL124:
1046:.\DSP\Source\TransformFunctions/arm_cfft_radix4_f32.c **** 
1047:.\DSP\Source\TransformFunctions/arm_cfft_radix4_f32.c ****             /* xa + xc */
1048:.\DSP\Source\TransformFunctions/arm_cfft_radix4_f32.c ****             r1 = pSrc[(2U * i0)] + pSrc[(2U * i2)];
 537              		.loc 1 1048 0 discriminator 1
 538 0066 FE00     		lsls	r6, r7, #3
 539 0068 5BF83730 		ldr	r3, [fp, r7, lsl #3]	@ float
 540 006c 4FEAC80A 		lsl	r10, r8, #3
 541 0070 5BF83840 		ldr	r4, [fp, r8, lsl #3]	@ float
ARM GAS  C:\Users\IVYLIU~1\AppData\Local\Temp\ccHWxCbk.s 			page 29


 542 0074 0293     		str	r3, [sp, #8]	@ float
 543 0076 1846     		mov	r0, r3
 544 0078 2146     		mov	r1, r4
 545 007a FFF7FEFF 		bl	__aeabi_fadd
 546              	.LVL125:
 547 007e 0190     		str	r0, [sp, #4]	@ float
 548              	.LVL126:
1049:.\DSP\Source\TransformFunctions/arm_cfft_radix4_f32.c **** 
1050:.\DSP\Source\TransformFunctions/arm_cfft_radix4_f32.c ****             /* xa - xc */
1051:.\DSP\Source\TransformFunctions/arm_cfft_radix4_f32.c ****             r2 = pSrc[(2U * i0)] - pSrc[(2U * i2)];
 549              		.loc 1 1051 0 discriminator 1
 550 0080 0298     		ldr	r0, [sp, #8]	@ float
 551              	.LVL127:
 552 0082 2146     		mov	r1, r4
 553 0084 FFF7FEFF 		bl	__aeabi_fsub
 554              	.LVL128:
 555 0088 0990     		str	r0, [sp, #36]	@ float
 556              	.LVL129:
1052:.\DSP\Source\TransformFunctions/arm_cfft_radix4_f32.c **** 
1053:.\DSP\Source\TransformFunctions/arm_cfft_radix4_f32.c ****             /* ya + yc */
1054:.\DSP\Source\TransformFunctions/arm_cfft_radix4_f32.c ****             s1 = pSrc[(2U * i0) + 1U] + pSrc[(2U * i2) + 1U];
 557              		.loc 1 1054 0 discriminator 1
 558 008a 0436     		adds	r6, r6, #4
 559 008c 5BF80640 		ldr	r4, [fp, r6]	@ float
 560 0090 0AF10403 		add	r3, r10, #4
 561 0094 0A93     		str	r3, [sp, #40]
 562 0096 5BF803A0 		ldr	r10, [fp, r3]	@ float
 563 009a 2046     		mov	r0, r4
 564              	.LVL130:
 565 009c 5146     		mov	r1, r10
 566 009e FFF7FEFF 		bl	__aeabi_fadd
 567              	.LVL131:
 568 00a2 0290     		str	r0, [sp, #8]	@ float
 569              	.LVL132:
1055:.\DSP\Source\TransformFunctions/arm_cfft_radix4_f32.c **** 
1056:.\DSP\Source\TransformFunctions/arm_cfft_radix4_f32.c ****             /* ya - yc */
1057:.\DSP\Source\TransformFunctions/arm_cfft_radix4_f32.c ****             s2 = pSrc[(2U * i0) + 1U] - pSrc[(2U * i2) + 1U];
 570              		.loc 1 1057 0 discriminator 1
 571 00a4 2046     		mov	r0, r4
 572              	.LVL133:
 573 00a6 5146     		mov	r1, r10
 574 00a8 FFF7FEFF 		bl	__aeabi_fsub
 575              	.LVL134:
 576 00ac 0390     		str	r0, [sp, #12]	@ float
 577              	.LVL135:
1058:.\DSP\Source\TransformFunctions/arm_cfft_radix4_f32.c **** 
1059:.\DSP\Source\TransformFunctions/arm_cfft_radix4_f32.c ****             /* xb + xd */
1060:.\DSP\Source\TransformFunctions/arm_cfft_radix4_f32.c ****             t1 = pSrc[2U * i1] + pSrc[2U * i3];
 578              		.loc 1 1060 0 discriminator 1
 579 00ae EC00     		lsls	r4, r5, #3
 580 00b0 4FEAC90A 		lsl	r10, r9, #3
 581 00b4 5BF83500 		ldr	r0, [fp, r5, lsl #3]	@ float
 582              	.LVL136:
 583 00b8 5BF83910 		ldr	r1, [fp, r9, lsl #3]	@ float
 584 00bc FFF7FEFF 		bl	__aeabi_fadd
 585              	.LVL137:
 586 00c0 0146     		mov	r1, r0
ARM GAS  C:\Users\IVYLIU~1\AppData\Local\Temp\ccHWxCbk.s 			page 30


 587              	.LVL138:
1061:.\DSP\Source\TransformFunctions/arm_cfft_radix4_f32.c **** 
1062:.\DSP\Source\TransformFunctions/arm_cfft_radix4_f32.c ****             /* xa' = xa + xb + xc + xd */
1063:.\DSP\Source\TransformFunctions/arm_cfft_radix4_f32.c ****             pSrc[2U * i0] = r1 + t1;
 588              		.loc 1 1063 0 discriminator 1
 589 00c2 0198     		ldr	r0, [sp, #4]	@ float
 590              	.LVL139:
 591 00c4 0B91     		str	r1, [sp, #44]	@ float
 592 00c6 FFF7FEFF 		bl	__aeabi_fadd
 593              	.LVL140:
 594 00ca 4BF83700 		str	r0, [fp, r7, lsl #3]	@ float
1064:.\DSP\Source\TransformFunctions/arm_cfft_radix4_f32.c **** 
1065:.\DSP\Source\TransformFunctions/arm_cfft_radix4_f32.c ****             /* xa + xc -(xb + xd) */
1066:.\DSP\Source\TransformFunctions/arm_cfft_radix4_f32.c ****             r1 = r1 - t1;
 595              		.loc 1 1066 0 discriminator 1
 596 00ce 0198     		ldr	r0, [sp, #4]	@ float
 597 00d0 0B99     		ldr	r1, [sp, #44]	@ float
 598 00d2 FFF7FEFF 		bl	__aeabi_fsub
 599              	.LVL141:
 600 00d6 0190     		str	r0, [sp, #4]	@ float
 601              	.LVL142:
1067:.\DSP\Source\TransformFunctions/arm_cfft_radix4_f32.c **** 
1068:.\DSP\Source\TransformFunctions/arm_cfft_radix4_f32.c ****             /* yb + yd */
1069:.\DSP\Source\TransformFunctions/arm_cfft_radix4_f32.c ****             t2 = pSrc[(2U * i1) + 1U] + pSrc[(2U * i3) + 1U];
 602              		.loc 1 1069 0 discriminator 1
 603 00d8 0434     		adds	r4, r4, #4
 604 00da 0AF1040A 		add	r10, r10, #4
 605 00de 5BF80400 		ldr	r0, [fp, r4]	@ float
 606              	.LVL143:
 607 00e2 5BF80A10 		ldr	r1, [fp, r10]	@ float
 608 00e6 FFF7FEFF 		bl	__aeabi_fadd
 609              	.LVL144:
 610 00ea 0146     		mov	r1, r0
 611              	.LVL145:
1070:.\DSP\Source\TransformFunctions/arm_cfft_radix4_f32.c **** 
1071:.\DSP\Source\TransformFunctions/arm_cfft_radix4_f32.c ****             /* ya' = ya + yb + yc + yd */
1072:.\DSP\Source\TransformFunctions/arm_cfft_radix4_f32.c ****             pSrc[(2U * i0) + 1U] = s1 + t2;
 612              		.loc 1 1072 0 discriminator 1
 613 00ec 0298     		ldr	r0, [sp, #8]	@ float
 614              	.LVL146:
 615 00ee 0B91     		str	r1, [sp, #44]	@ float
 616              	.LVL147:
 617 00f0 FFF7FEFF 		bl	__aeabi_fadd
 618              	.LVL148:
 619 00f4 4BF80600 		str	r0, [fp, r6]	@ float
1073:.\DSP\Source\TransformFunctions/arm_cfft_radix4_f32.c **** 
1074:.\DSP\Source\TransformFunctions/arm_cfft_radix4_f32.c ****             /* (ya + yc) - (yb + yd) */
1075:.\DSP\Source\TransformFunctions/arm_cfft_radix4_f32.c ****             s1 = s1 - t2;
 620              		.loc 1 1075 0 discriminator 1
 621 00f8 0298     		ldr	r0, [sp, #8]	@ float
 622 00fa 0B99     		ldr	r1, [sp, #44]	@ float
 623 00fc FFF7FEFF 		bl	__aeabi_fsub
 624              	.LVL149:
 625 0100 0646     		mov	r6, r0
 626              	.LVL150:
1076:.\DSP\Source\TransformFunctions/arm_cfft_radix4_f32.c **** 
1077:.\DSP\Source\TransformFunctions/arm_cfft_radix4_f32.c ****             /* (yb - yd) */
ARM GAS  C:\Users\IVYLIU~1\AppData\Local\Temp\ccHWxCbk.s 			page 31


1078:.\DSP\Source\TransformFunctions/arm_cfft_radix4_f32.c ****             t1 = pSrc[(2U * i1) + 1U] - pSrc[(2U * i3) + 1U];
 627              		.loc 1 1078 0 discriminator 1
 628 0102 5BF80400 		ldr	r0, [fp, r4]	@ float
 629              	.LVL151:
 630 0106 5BF80A10 		ldr	r1, [fp, r10]	@ float
 631 010a FFF7FEFF 		bl	__aeabi_fsub
 632              	.LVL152:
 633 010e 0B90     		str	r0, [sp, #44]	@ float
 634              	.LVL153:
1079:.\DSP\Source\TransformFunctions/arm_cfft_radix4_f32.c **** 
1080:.\DSP\Source\TransformFunctions/arm_cfft_radix4_f32.c ****             /* (xb - xd) */
1081:.\DSP\Source\TransformFunctions/arm_cfft_radix4_f32.c ****             t2 = pSrc[2U * i1] - pSrc[2U * i3];
 635              		.loc 1 1081 0 discriminator 1
 636 0110 5BF83500 		ldr	r0, [fp, r5, lsl #3]	@ float
 637              	.LVL154:
 638 0114 5BF83910 		ldr	r1, [fp, r9, lsl #3]	@ float
 639 0118 FFF7FEFF 		bl	__aeabi_fsub
 640              	.LVL155:
 641 011c 0290     		str	r0, [sp, #8]	@ float
 642              	.LVL156:
1082:.\DSP\Source\TransformFunctions/arm_cfft_radix4_f32.c **** 
1083:.\DSP\Source\TransformFunctions/arm_cfft_radix4_f32.c ****             /* xc' = (xa-xb+xc-xd)co2 - (ya-yb+yc-yd)(si2) */
1084:.\DSP\Source\TransformFunctions/arm_cfft_radix4_f32.c ****             pSrc[2U * i1] = (r1 * co2) - (s1 * si2);
 643              		.loc 1 1084 0 discriminator 1
 644 011e 0198     		ldr	r0, [sp, #4]	@ float
 645              	.LVL157:
 646 0120 0699     		ldr	r1, [sp, #24]	@ float
 647 0122 FFF7FEFF 		bl	__aeabi_fmul
 648              	.LVL158:
 649 0126 0C90     		str	r0, [sp, #48]	@ float
 650 0128 3046     		mov	r0, r6
 651 012a 0799     		ldr	r1, [sp, #28]	@ float
 652 012c FFF7FEFF 		bl	__aeabi_fmul
 653              	.LVL159:
 654 0130 0146     		mov	r1, r0
 655 0132 0C98     		ldr	r0, [sp, #48]	@ float
 656 0134 FFF7FEFF 		bl	__aeabi_fsub
 657              	.LVL160:
 658 0138 4BF83500 		str	r0, [fp, r5, lsl #3]	@ float
1085:.\DSP\Source\TransformFunctions/arm_cfft_radix4_f32.c **** 
1086:.\DSP\Source\TransformFunctions/arm_cfft_radix4_f32.c ****             /* yc' = (ya-yb+yc-yd)co2 + (xa-xb+xc-xd)(si2) */
1087:.\DSP\Source\TransformFunctions/arm_cfft_radix4_f32.c ****             pSrc[(2U * i1) + 1U] = (s1 * co2) + (r1 * si2);
 659              		.loc 1 1087 0 discriminator 1
 660 013c 3046     		mov	r0, r6
 661 013e 0699     		ldr	r1, [sp, #24]	@ float
 662 0140 FFF7FEFF 		bl	__aeabi_fmul
 663              	.LVL161:
 664 0144 0546     		mov	r5, r0
 665              	.LVL162:
 666 0146 0198     		ldr	r0, [sp, #4]	@ float
 667 0148 0799     		ldr	r1, [sp, #28]	@ float
 668 014a FFF7FEFF 		bl	__aeabi_fmul
 669              	.LVL163:
 670 014e 0146     		mov	r1, r0
 671 0150 2846     		mov	r0, r5
 672 0152 FFF7FEFF 		bl	__aeabi_fadd
 673              	.LVL164:
ARM GAS  C:\Users\IVYLIU~1\AppData\Local\Temp\ccHWxCbk.s 			page 32


 674 0156 4BF80400 		str	r0, [fp, r4]	@ float
1088:.\DSP\Source\TransformFunctions/arm_cfft_radix4_f32.c **** 
1089:.\DSP\Source\TransformFunctions/arm_cfft_radix4_f32.c ****             /* (xa - xc) - (yb - yd) */
1090:.\DSP\Source\TransformFunctions/arm_cfft_radix4_f32.c ****             r1 = r2 - t1;
 675              		.loc 1 1090 0 discriminator 1
 676 015a 099E     		ldr	r6, [sp, #36]	@ float
 677              	.LVL165:
 678 015c 3046     		mov	r0, r6
 679 015e 0B9D     		ldr	r5, [sp, #44]	@ float
 680 0160 2946     		mov	r1, r5
 681 0162 FFF7FEFF 		bl	__aeabi_fsub
 682              	.LVL166:
 683 0166 0446     		mov	r4, r0
 684              	.LVL167:
1091:.\DSP\Source\TransformFunctions/arm_cfft_radix4_f32.c **** 
1092:.\DSP\Source\TransformFunctions/arm_cfft_radix4_f32.c ****             /* (xa - xc) + (yb - yd) */
1093:.\DSP\Source\TransformFunctions/arm_cfft_radix4_f32.c ****             r2 = r2 + t1;
 685              		.loc 1 1093 0 discriminator 1
 686 0168 3046     		mov	r0, r6
 687              	.LVL168:
 688 016a 2946     		mov	r1, r5
 689 016c FFF7FEFF 		bl	__aeabi_fadd
 690              	.LVL169:
 691 0170 0646     		mov	r6, r0
 692              	.LVL170:
1094:.\DSP\Source\TransformFunctions/arm_cfft_radix4_f32.c **** 
1095:.\DSP\Source\TransformFunctions/arm_cfft_radix4_f32.c ****             /* (ya - yc) +  (xb - xd) */
1096:.\DSP\Source\TransformFunctions/arm_cfft_radix4_f32.c ****             s1 = s2 + t2;
 693              		.loc 1 1096 0 discriminator 1
 694 0172 0398     		ldr	r0, [sp, #12]	@ float
 695              	.LVL171:
 696 0174 0299     		ldr	r1, [sp, #8]	@ float
 697 0176 FFF7FEFF 		bl	__aeabi_fadd
 698              	.LVL172:
 699 017a 0546     		mov	r5, r0
 700              	.LVL173:
1097:.\DSP\Source\TransformFunctions/arm_cfft_radix4_f32.c **** 
1098:.\DSP\Source\TransformFunctions/arm_cfft_radix4_f32.c ****             /* (ya - yc) -  (xb - xd) */
1099:.\DSP\Source\TransformFunctions/arm_cfft_radix4_f32.c ****             s2 = s2 - t2;
 701              		.loc 1 1099 0 discriminator 1
 702 017c 0398     		ldr	r0, [sp, #12]	@ float
 703              	.LVL174:
 704 017e 0299     		ldr	r1, [sp, #8]	@ float
 705 0180 FFF7FEFF 		bl	__aeabi_fsub
 706              	.LVL175:
 707 0184 0190     		str	r0, [sp, #4]	@ float
 708              	.LVL176:
1100:.\DSP\Source\TransformFunctions/arm_cfft_radix4_f32.c **** 
1101:.\DSP\Source\TransformFunctions/arm_cfft_radix4_f32.c ****             /* xb' = (xa+yb-xc-yd)co1 - (ya-xb-yc+xd)(si1) */
1102:.\DSP\Source\TransformFunctions/arm_cfft_radix4_f32.c ****             pSrc[2U * i2] = (r1 * co1) - (s1 * si1);
 709              		.loc 1 1102 0 discriminator 1
 710 0186 2046     		mov	r0, r4
 711              	.LVL177:
 712 0188 0499     		ldr	r1, [sp, #16]	@ float
 713 018a FFF7FEFF 		bl	__aeabi_fmul
 714              	.LVL178:
 715 018e 0290     		str	r0, [sp, #8]	@ float
ARM GAS  C:\Users\IVYLIU~1\AppData\Local\Temp\ccHWxCbk.s 			page 33


 716              	.LVL179:
 717 0190 2846     		mov	r0, r5
 718 0192 0599     		ldr	r1, [sp, #20]	@ float
 719 0194 FFF7FEFF 		bl	__aeabi_fmul
 720              	.LVL180:
 721 0198 0146     		mov	r1, r0
 722 019a 0298     		ldr	r0, [sp, #8]	@ float
 723 019c FFF7FEFF 		bl	__aeabi_fsub
 724              	.LVL181:
 725 01a0 4BF83800 		str	r0, [fp, r8, lsl #3]	@ float
1103:.\DSP\Source\TransformFunctions/arm_cfft_radix4_f32.c **** 
1104:.\DSP\Source\TransformFunctions/arm_cfft_radix4_f32.c ****             /* yb' = (ya-xb-yc+xd)co1 + (xa+yb-xc-yd)(si1) */
1105:.\DSP\Source\TransformFunctions/arm_cfft_radix4_f32.c ****             pSrc[(2U * i2) + 1U] = (s1 * co1) + (r1 * si1);
 726              		.loc 1 1105 0 discriminator 1
 727 01a4 2846     		mov	r0, r5
 728 01a6 0499     		ldr	r1, [sp, #16]	@ float
 729 01a8 FFF7FEFF 		bl	__aeabi_fmul
 730              	.LVL182:
 731 01ac 0546     		mov	r5, r0
 732              	.LVL183:
 733 01ae 2046     		mov	r0, r4
 734 01b0 0599     		ldr	r1, [sp, #20]	@ float
 735 01b2 FFF7FEFF 		bl	__aeabi_fmul
 736              	.LVL184:
 737 01b6 0146     		mov	r1, r0
 738 01b8 2846     		mov	r0, r5
 739 01ba FFF7FEFF 		bl	__aeabi_fadd
 740              	.LVL185:
 741 01be 0A9A     		ldr	r2, [sp, #40]
 742 01c0 4BF80200 		str	r0, [fp, r2]	@ float
1106:.\DSP\Source\TransformFunctions/arm_cfft_radix4_f32.c **** 
1107:.\DSP\Source\TransformFunctions/arm_cfft_radix4_f32.c ****             /* xd' = (xa-yb-xc+yd)co3 - (ya+xb-yc-xd)(si3) */
1108:.\DSP\Source\TransformFunctions/arm_cfft_radix4_f32.c ****             pSrc[2U * i3] = (r2 * co3) - (s2 * si3);
 743              		.loc 1 1108 0 discriminator 1
 744 01c4 3046     		mov	r0, r6
 745 01c6 0899     		ldr	r1, [sp, #32]	@ float
 746 01c8 FFF7FEFF 		bl	__aeabi_fmul
 747              	.LVL186:
 748 01cc 0446     		mov	r4, r0
 749              	.LVL187:
 750 01ce DDF80480 		ldr	r8, [sp, #4]	@ float
 751              	.LVL188:
 752 01d2 4046     		mov	r0, r8
 753 01d4 0E9D     		ldr	r5, [sp, #56]	@ float
 754 01d6 2946     		mov	r1, r5
 755 01d8 FFF7FEFF 		bl	__aeabi_fmul
 756              	.LVL189:
 757 01dc 0146     		mov	r1, r0
 758 01de 2046     		mov	r0, r4
 759 01e0 FFF7FEFF 		bl	__aeabi_fsub
 760              	.LVL190:
 761 01e4 4BF83900 		str	r0, [fp, r9, lsl #3]	@ float
1109:.\DSP\Source\TransformFunctions/arm_cfft_radix4_f32.c **** 
1110:.\DSP\Source\TransformFunctions/arm_cfft_radix4_f32.c ****             /* yd' = (ya+xb-yc-xd)co3 + (xa-yb-xc+yd)(si3) */
1111:.\DSP\Source\TransformFunctions/arm_cfft_radix4_f32.c ****             pSrc[(2U * i3) + 1U] = (s2 * co3) + (r2 * si3);
 762              		.loc 1 1111 0 discriminator 1
 763 01e8 4046     		mov	r0, r8
ARM GAS  C:\Users\IVYLIU~1\AppData\Local\Temp\ccHWxCbk.s 			page 34


 764 01ea 0899     		ldr	r1, [sp, #32]	@ float
 765 01ec FFF7FEFF 		bl	__aeabi_fmul
 766              	.LVL191:
 767 01f0 0446     		mov	r4, r0
 768 01f2 3046     		mov	r0, r6
 769 01f4 2946     		mov	r1, r5
 770 01f6 FFF7FEFF 		bl	__aeabi_fmul
 771              	.LVL192:
 772 01fa 0146     		mov	r1, r0
 773 01fc 2046     		mov	r0, r4
 774 01fe FFF7FEFF 		bl	__aeabi_fadd
 775              	.LVL193:
 776 0202 4BF80A00 		str	r0, [fp, r10]	@ float
1112:.\DSP\Source\TransformFunctions/arm_cfft_radix4_f32.c **** 
1113:.\DSP\Source\TransformFunctions/arm_cfft_radix4_f32.c ****             i0 += n1;
 777              		.loc 1 1113 0 discriminator 1
 778 0206 0F9B     		ldr	r3, [sp, #60]
 779 0208 1F44     		add	r7, r7, r3
 780              	.LVL194:
1114:.\DSP\Source\TransformFunctions/arm_cfft_radix4_f32.c ****          } while ( i0 < fftLen);
 781              		.loc 1 1114 0 discriminator 1
 782 020a 109B     		ldr	r3, [sp, #64]
 783 020c BB42     		cmp	r3, r7
 784 020e 3FF624AF 		bhi	.L9
1115:.\DSP\Source\TransformFunctions/arm_cfft_radix4_f32.c ****          j++;
 785              		.loc 1 1115 0
 786 0212 119B     		ldr	r3, [sp, #68]
 787 0214 0133     		adds	r3, r3, #1
 788 0216 1A46     		mov	r2, r3
 789 0218 1193     		str	r3, [sp, #68]
 790              	.LVL195:
1116:.\DSP\Source\TransformFunctions/arm_cfft_radix4_f32.c ****       } while (j <= (n2 - 1U));
 791              		.loc 1 1116 0
 792 021a 0D9B     		ldr	r3, [sp, #52]
 793 021c 013B     		subs	r3, r3, #1
 794 021e 9342     		cmp	r3, r2
 795 0220 BFF4FFAE 		bcs	.L10
 796 0224 D846     		mov	r8, fp
1117:.\DSP\Source\TransformFunctions/arm_cfft_radix4_f32.c ****       twidCoefModifier <<= 2U;
 797              		.loc 1 1117 0 discriminator 2
 798 0226 139B     		ldr	r3, [sp, #76]
 799 0228 9B00     		lsls	r3, r3, #2
 800 022a 9BB2     		uxth	r3, r3
 801 022c 1393     		str	r3, [sp, #76]
 802              	.LVL196:
1014:.\DSP\Source\TransformFunctions/arm_cfft_radix4_f32.c ****    {
 803              		.loc 1 1014 0 discriminator 2
 804 022e 159B     		ldr	r3, [sp, #84]
 805 0230 9B08     		lsrs	r3, r3, #2
 806 0232 1593     		str	r3, [sp, #84]
 807              	.LVL197:
1018:.\DSP\Source\TransformFunctions/arm_cfft_radix4_f32.c ****       ia1 = 0U;
 808              		.loc 1 1018 0 discriminator 2
 809 0234 0D9B     		ldr	r3, [sp, #52]
 810              	.LVL198:
 811 0236 0F93     		str	r3, [sp, #60]
 812              	.LVL199:
ARM GAS  C:\Users\IVYLIU~1\AppData\Local\Temp\ccHWxCbk.s 			page 35


 813              	.L8:
1014:.\DSP\Source\TransformFunctions/arm_cfft_radix4_f32.c ****    {
 814              		.loc 1 1014 0 discriminator 1
 815 0238 159B     		ldr	r3, [sp, #84]
 816 023a 042B     		cmp	r3, #4
 817 023c 3FF6EAAE 		bhi	.L11
 818 0240 C346     		mov	fp, r8
 819              	.LVL200:
1118:.\DSP\Source\TransformFunctions/arm_cfft_radix4_f32.c ****    }
1119:.\DSP\Source\TransformFunctions/arm_cfft_radix4_f32.c ****    /*  Initializations of last stage */
1120:.\DSP\Source\TransformFunctions/arm_cfft_radix4_f32.c ****    n1 = n2;
1121:.\DSP\Source\TransformFunctions/arm_cfft_radix4_f32.c ****    n2 >>= 2U;
 820              		.loc 1 1121 0
 821 0242 0F9B     		ldr	r3, [sp, #60]
 822 0244 9B08     		lsrs	r3, r3, #2
 823 0246 0793     		str	r3, [sp, #28]
 824              	.LVL201:
1122:.\DSP\Source\TransformFunctions/arm_cfft_radix4_f32.c **** 
1123:.\DSP\Source\TransformFunctions/arm_cfft_radix4_f32.c ****    /*  Calculations of last stage */
1124:.\DSP\Source\TransformFunctions/arm_cfft_radix4_f32.c ****    for (i0 = 0U; i0 <= (fftLen - n1); i0 += n1)
 825              		.loc 1 1124 0
 826 0248 0023     		movs	r3, #0
 827              	.LVL202:
 828 024a 1C46     		mov	r4, r3
 829 024c A4E0     		b	.L12
 830              	.LVL203:
 831              	.L13:
1125:.\DSP\Source\TransformFunctions/arm_cfft_radix4_f32.c ****    {
1126:.\DSP\Source\TransformFunctions/arm_cfft_radix4_f32.c ****       /*  index calculation for the input as, */
1127:.\DSP\Source\TransformFunctions/arm_cfft_radix4_f32.c ****       /*  pSrc[i0 + 0], pSrc[i0 + fftLen/4], pSrc[i0 + fftLen/2], pSrc[i0 + 3fftLen/4] */
1128:.\DSP\Source\TransformFunctions/arm_cfft_radix4_f32.c ****       i1 = i0 + n2;
 832              		.loc 1 1128 0 discriminator 3
 833 024e 079B     		ldr	r3, [sp, #28]
 834 0250 E718     		adds	r7, r4, r3
 835              	.LVL204:
1129:.\DSP\Source\TransformFunctions/arm_cfft_radix4_f32.c ****       i2 = i1 + n2;
 836              		.loc 1 1129 0 discriminator 3
 837 0252 07EB0308 		add	r8, r7, r3
 838              	.LVL205:
1130:.\DSP\Source\TransformFunctions/arm_cfft_radix4_f32.c ****       i3 = i2 + n2;
 839              		.loc 1 1130 0 discriminator 3
 840 0256 08EB030A 		add	r10, r8, r3
 841              	.LVL206:
1131:.\DSP\Source\TransformFunctions/arm_cfft_radix4_f32.c **** 
1132:.\DSP\Source\TransformFunctions/arm_cfft_radix4_f32.c ****       /*  Butterfly implementation */
1133:.\DSP\Source\TransformFunctions/arm_cfft_radix4_f32.c ****       /* xa + xc */
1134:.\DSP\Source\TransformFunctions/arm_cfft_radix4_f32.c ****       r1 = pSrc[2U * i0] + pSrc[2U * i2];
 842              		.loc 1 1134 0 discriminator 3
 843 025a 4FEAC409 		lsl	r9, r4, #3
 844 025e 5BF83430 		ldr	r3, [fp, r4, lsl #3]	@ float
 845 0262 4FEAC806 		lsl	r6, r8, #3
 846 0266 5BF83850 		ldr	r5, [fp, r8, lsl #3]	@ float
 847 026a 0293     		str	r3, [sp, #8]	@ float
 848 026c 1846     		mov	r0, r3
 849 026e 2946     		mov	r1, r5
 850 0270 FFF7FEFF 		bl	__aeabi_fadd
 851              	.LVL207:
ARM GAS  C:\Users\IVYLIU~1\AppData\Local\Temp\ccHWxCbk.s 			page 36


 852 0274 0190     		str	r0, [sp, #4]	@ float
 853              	.LVL208:
1135:.\DSP\Source\TransformFunctions/arm_cfft_radix4_f32.c **** 
1136:.\DSP\Source\TransformFunctions/arm_cfft_radix4_f32.c ****       /* xa - xc */
1137:.\DSP\Source\TransformFunctions/arm_cfft_radix4_f32.c ****       r2 = pSrc[2U * i0] - pSrc[2U * i2];
 854              		.loc 1 1137 0 discriminator 3
 855 0276 0298     		ldr	r0, [sp, #8]	@ float
 856              	.LVL209:
 857 0278 2946     		mov	r1, r5
 858 027a FFF7FEFF 		bl	__aeabi_fsub
 859              	.LVL210:
 860 027e 0490     		str	r0, [sp, #16]	@ float
 861              	.LVL211:
1138:.\DSP\Source\TransformFunctions/arm_cfft_radix4_f32.c **** 
1139:.\DSP\Source\TransformFunctions/arm_cfft_radix4_f32.c ****       /* ya + yc */
1140:.\DSP\Source\TransformFunctions/arm_cfft_radix4_f32.c ****       s1 = pSrc[(2U * i0) + 1U] + pSrc[(2U * i2) + 1U];
 862              		.loc 1 1140 0 discriminator 3
 863 0280 09F10409 		add	r9, r9, #4
 864 0284 5BF80950 		ldr	r5, [fp, r9]	@ float
 865 0288 331D     		adds	r3, r6, #4
 866 028a 0593     		str	r3, [sp, #20]
 867 028c 5BF80360 		ldr	r6, [fp, r3]	@ float
 868 0290 2846     		mov	r0, r5
 869              	.LVL212:
 870 0292 3146     		mov	r1, r6
 871 0294 FFF7FEFF 		bl	__aeabi_fadd
 872              	.LVL213:
 873 0298 0290     		str	r0, [sp, #8]	@ float
 874              	.LVL214:
1141:.\DSP\Source\TransformFunctions/arm_cfft_radix4_f32.c **** 
1142:.\DSP\Source\TransformFunctions/arm_cfft_radix4_f32.c ****       /* ya - yc */
1143:.\DSP\Source\TransformFunctions/arm_cfft_radix4_f32.c ****       s2 = pSrc[(2U * i0) + 1U] - pSrc[(2U * i2) + 1U];
 875              		.loc 1 1143 0 discriminator 3
 876 029a 2846     		mov	r0, r5
 877              	.LVL215:
 878 029c 3146     		mov	r1, r6
 879 029e FFF7FEFF 		bl	__aeabi_fsub
 880              	.LVL216:
 881 02a2 0390     		str	r0, [sp, #12]	@ float
 882              	.LVL217:
1144:.\DSP\Source\TransformFunctions/arm_cfft_radix4_f32.c **** 
1145:.\DSP\Source\TransformFunctions/arm_cfft_radix4_f32.c ****       /* xc + xd */
1146:.\DSP\Source\TransformFunctions/arm_cfft_radix4_f32.c ****       t1 = pSrc[2U * i1] + pSrc[2U * i3];
 883              		.loc 1 1146 0 discriminator 3
 884 02a4 FE00     		lsls	r6, r7, #3
 885 02a6 4FEACA05 		lsl	r5, r10, #3
 886 02aa 5BF83700 		ldr	r0, [fp, r7, lsl #3]	@ float
 887              	.LVL218:
 888 02ae 5BF83A10 		ldr	r1, [fp, r10, lsl #3]	@ float
 889 02b2 FFF7FEFF 		bl	__aeabi_fadd
 890              	.LVL219:
 891 02b6 0146     		mov	r1, r0
 892              	.LVL220:
1147:.\DSP\Source\TransformFunctions/arm_cfft_radix4_f32.c **** 
1148:.\DSP\Source\TransformFunctions/arm_cfft_radix4_f32.c ****       /* xa' = xa + xb + xc + xd */
1149:.\DSP\Source\TransformFunctions/arm_cfft_radix4_f32.c ****       pSrc[2U * i0] = (r1 + t1) * onebyfftLen;
 893              		.loc 1 1149 0 discriminator 3
ARM GAS  C:\Users\IVYLIU~1\AppData\Local\Temp\ccHWxCbk.s 			page 37


 894 02b8 0198     		ldr	r0, [sp, #4]	@ float
 895              	.LVL221:
 896 02ba 0691     		str	r1, [sp, #24]	@ float
 897 02bc FFF7FEFF 		bl	__aeabi_fadd
 898              	.LVL222:
 899 02c0 2099     		ldr	r1, [sp, #128]	@ float
 900 02c2 FFF7FEFF 		bl	__aeabi_fmul
 901              	.LVL223:
 902 02c6 4BF83400 		str	r0, [fp, r4, lsl #3]	@ float
1150:.\DSP\Source\TransformFunctions/arm_cfft_radix4_f32.c **** 
1151:.\DSP\Source\TransformFunctions/arm_cfft_radix4_f32.c ****       /* (xa + xb) - (xc + xd) */
1152:.\DSP\Source\TransformFunctions/arm_cfft_radix4_f32.c ****       r1 = r1 - t1;
 903              		.loc 1 1152 0 discriminator 3
 904 02ca 0198     		ldr	r0, [sp, #4]	@ float
 905 02cc 0699     		ldr	r1, [sp, #24]	@ float
 906 02ce FFF7FEFF 		bl	__aeabi_fsub
 907              	.LVL224:
 908 02d2 0190     		str	r0, [sp, #4]	@ float
 909              	.LVL225:
1153:.\DSP\Source\TransformFunctions/arm_cfft_radix4_f32.c **** 
1154:.\DSP\Source\TransformFunctions/arm_cfft_radix4_f32.c ****       /* yb + yd */
1155:.\DSP\Source\TransformFunctions/arm_cfft_radix4_f32.c ****       t2 = pSrc[(2U * i1) + 1U] + pSrc[(2U * i3) + 1U];
 910              		.loc 1 1155 0 discriminator 3
 911 02d4 0436     		adds	r6, r6, #4
 912 02d6 0435     		adds	r5, r5, #4
 913 02d8 5BF80600 		ldr	r0, [fp, r6]	@ float
 914              	.LVL226:
 915 02dc 5BF80510 		ldr	r1, [fp, r5]	@ float
 916 02e0 FFF7FEFF 		bl	__aeabi_fadd
 917              	.LVL227:
 918 02e4 0146     		mov	r1, r0
 919              	.LVL228:
1156:.\DSP\Source\TransformFunctions/arm_cfft_radix4_f32.c **** 
1157:.\DSP\Source\TransformFunctions/arm_cfft_radix4_f32.c ****       /* ya' = ya + yb + yc + yd */
1158:.\DSP\Source\TransformFunctions/arm_cfft_radix4_f32.c ****       pSrc[(2U * i0) + 1U] = (s1 + t2) * onebyfftLen;
 920              		.loc 1 1158 0 discriminator 3
 921 02e6 0298     		ldr	r0, [sp, #8]	@ float
 922              	.LVL229:
 923 02e8 0691     		str	r1, [sp, #24]	@ float
 924              	.LVL230:
 925 02ea FFF7FEFF 		bl	__aeabi_fadd
 926              	.LVL231:
 927 02ee 2099     		ldr	r1, [sp, #128]	@ float
 928 02f0 FFF7FEFF 		bl	__aeabi_fmul
 929              	.LVL232:
 930 02f4 4BF80900 		str	r0, [fp, r9]	@ float
1159:.\DSP\Source\TransformFunctions/arm_cfft_radix4_f32.c **** 
1160:.\DSP\Source\TransformFunctions/arm_cfft_radix4_f32.c ****       /* (ya + yc) - (yb + yd) */
1161:.\DSP\Source\TransformFunctions/arm_cfft_radix4_f32.c ****       s1 = s1 - t2;
 931              		.loc 1 1161 0 discriminator 3
 932 02f8 0298     		ldr	r0, [sp, #8]	@ float
 933 02fa 0699     		ldr	r1, [sp, #24]	@ float
 934 02fc FFF7FEFF 		bl	__aeabi_fsub
 935              	.LVL233:
 936 0300 0290     		str	r0, [sp, #8]	@ float
 937              	.LVL234:
1162:.\DSP\Source\TransformFunctions/arm_cfft_radix4_f32.c **** 
ARM GAS  C:\Users\IVYLIU~1\AppData\Local\Temp\ccHWxCbk.s 			page 38


1163:.\DSP\Source\TransformFunctions/arm_cfft_radix4_f32.c ****       /* (yb-yd) */
1164:.\DSP\Source\TransformFunctions/arm_cfft_radix4_f32.c ****       t1 = pSrc[(2U * i1) + 1U] - pSrc[(2U * i3) + 1U];
 938              		.loc 1 1164 0 discriminator 3
 939 0302 5BF80600 		ldr	r0, [fp, r6]	@ float
 940              	.LVL235:
 941 0306 5BF80510 		ldr	r1, [fp, r5]	@ float
 942 030a FFF7FEFF 		bl	__aeabi_fsub
 943              	.LVL236:
 944 030e 8146     		mov	r9, r0
 945              	.LVL237:
1165:.\DSP\Source\TransformFunctions/arm_cfft_radix4_f32.c **** 
1166:.\DSP\Source\TransformFunctions/arm_cfft_radix4_f32.c ****       /* (xb-xd) */
1167:.\DSP\Source\TransformFunctions/arm_cfft_radix4_f32.c ****       t2 = pSrc[2U * i1] - pSrc[2U * i3];
 946              		.loc 1 1167 0 discriminator 3
 947 0310 5BF83700 		ldr	r0, [fp, r7, lsl #3]	@ float
 948              	.LVL238:
 949 0314 5BF83A10 		ldr	r1, [fp, r10, lsl #3]	@ float
 950 0318 FFF7FEFF 		bl	__aeabi_fsub
 951              	.LVL239:
 952 031c 0690     		str	r0, [sp, #24]	@ float
 953              	.LVL240:
1168:.\DSP\Source\TransformFunctions/arm_cfft_radix4_f32.c **** 
1169:.\DSP\Source\TransformFunctions/arm_cfft_radix4_f32.c ****       /* xc' = (xa-xb+xc-xd)co2 - (ya-yb+yc-yd)(si2) */
1170:.\DSP\Source\TransformFunctions/arm_cfft_radix4_f32.c ****       pSrc[2U * i1] = r1 * onebyfftLen;
 954              		.loc 1 1170 0 discriminator 3
 955 031e 0198     		ldr	r0, [sp, #4]	@ float
 956              	.LVL241:
 957 0320 2099     		ldr	r1, [sp, #128]	@ float
 958 0322 FFF7FEFF 		bl	__aeabi_fmul
 959              	.LVL242:
 960 0326 4BF83700 		str	r0, [fp, r7, lsl #3]	@ float
1171:.\DSP\Source\TransformFunctions/arm_cfft_radix4_f32.c **** 
1172:.\DSP\Source\TransformFunctions/arm_cfft_radix4_f32.c ****       /* yc' = (ya-yb+yc-yd)co2 + (xa-xb+xc-xd)(si2) */
1173:.\DSP\Source\TransformFunctions/arm_cfft_radix4_f32.c ****       pSrc[(2U * i1) + 1U] = s1 * onebyfftLen;
 961              		.loc 1 1173 0 discriminator 3
 962 032a 0298     		ldr	r0, [sp, #8]	@ float
 963 032c 2099     		ldr	r1, [sp, #128]	@ float
 964 032e FFF7FEFF 		bl	__aeabi_fmul
 965              	.LVL243:
 966 0332 4BF80600 		str	r0, [fp, r6]	@ float
1174:.\DSP\Source\TransformFunctions/arm_cfft_radix4_f32.c **** 
1175:.\DSP\Source\TransformFunctions/arm_cfft_radix4_f32.c ****       /* (xa - xc) - (yb-yd) */
1176:.\DSP\Source\TransformFunctions/arm_cfft_radix4_f32.c ****       r1 = r2 - t1;
 967              		.loc 1 1176 0 discriminator 3
 968 0336 049F     		ldr	r7, [sp, #16]	@ float
 969              	.LVL244:
 970 0338 3846     		mov	r0, r7
 971 033a 4946     		mov	r1, r9
 972 033c FFF7FEFF 		bl	__aeabi_fsub
 973              	.LVL245:
 974 0340 0190     		str	r0, [sp, #4]	@ float
 975              	.LVL246:
1177:.\DSP\Source\TransformFunctions/arm_cfft_radix4_f32.c **** 
1178:.\DSP\Source\TransformFunctions/arm_cfft_radix4_f32.c ****       /* (xa - xc) + (yb-yd) */
1179:.\DSP\Source\TransformFunctions/arm_cfft_radix4_f32.c ****       r2 = r2 + t1;
 976              		.loc 1 1179 0 discriminator 3
 977 0342 3846     		mov	r0, r7
ARM GAS  C:\Users\IVYLIU~1\AppData\Local\Temp\ccHWxCbk.s 			page 39


 978              	.LVL247:
 979 0344 4946     		mov	r1, r9
 980 0346 FFF7FEFF 		bl	__aeabi_fadd
 981              	.LVL248:
 982 034a 0746     		mov	r7, r0
 983              	.LVL249:
1180:.\DSP\Source\TransformFunctions/arm_cfft_radix4_f32.c **** 
1181:.\DSP\Source\TransformFunctions/arm_cfft_radix4_f32.c ****       /* (ya - yc) + (xb-xd) */
1182:.\DSP\Source\TransformFunctions/arm_cfft_radix4_f32.c ****       s1 = s2 + t2;
 984              		.loc 1 1182 0 discriminator 3
 985 034c 0398     		ldr	r0, [sp, #12]	@ float
 986              	.LVL250:
 987 034e 069E     		ldr	r6, [sp, #24]	@ float
 988 0350 3146     		mov	r1, r6
 989 0352 FFF7FEFF 		bl	__aeabi_fadd
 990              	.LVL251:
 991 0356 8146     		mov	r9, r0
 992              	.LVL252:
1183:.\DSP\Source\TransformFunctions/arm_cfft_radix4_f32.c **** 
1184:.\DSP\Source\TransformFunctions/arm_cfft_radix4_f32.c ****       /* (ya - yc) - (xb-xd) */
1185:.\DSP\Source\TransformFunctions/arm_cfft_radix4_f32.c ****       s2 = s2 - t2;
 993              		.loc 1 1185 0 discriminator 3
 994 0358 0398     		ldr	r0, [sp, #12]	@ float
 995              	.LVL253:
 996 035a 3146     		mov	r1, r6
 997 035c FFF7FEFF 		bl	__aeabi_fsub
 998              	.LVL254:
 999 0360 0646     		mov	r6, r0
 1000              	.LVL255:
1186:.\DSP\Source\TransformFunctions/arm_cfft_radix4_f32.c **** 
1187:.\DSP\Source\TransformFunctions/arm_cfft_radix4_f32.c ****       /* xb' = (xa+yb-xc-yd)co1 - (ya-xb-yc+xd)(si1) */
1188:.\DSP\Source\TransformFunctions/arm_cfft_radix4_f32.c ****       pSrc[2U * i2] = r1 * onebyfftLen;
 1001              		.loc 1 1188 0 discriminator 3
 1002 0362 0198     		ldr	r0, [sp, #4]	@ float
 1003              	.LVL256:
 1004 0364 2099     		ldr	r1, [sp, #128]	@ float
 1005 0366 FFF7FEFF 		bl	__aeabi_fmul
 1006              	.LVL257:
 1007 036a 4BF83800 		str	r0, [fp, r8, lsl #3]	@ float
1189:.\DSP\Source\TransformFunctions/arm_cfft_radix4_f32.c **** 
1190:.\DSP\Source\TransformFunctions/arm_cfft_radix4_f32.c ****       /* yb' = (ya-xb-yc+xd)co1 + (xa+yb-xc-yd)(si1) */
1191:.\DSP\Source\TransformFunctions/arm_cfft_radix4_f32.c ****       pSrc[(2U * i2) + 1U] = s1 * onebyfftLen;
 1008              		.loc 1 1191 0 discriminator 3
 1009 036e 4846     		mov	r0, r9
 1010 0370 2099     		ldr	r1, [sp, #128]	@ float
 1011 0372 FFF7FEFF 		bl	__aeabi_fmul
 1012              	.LVL258:
 1013 0376 059A     		ldr	r2, [sp, #20]
 1014 0378 4BF80200 		str	r0, [fp, r2]	@ float
1192:.\DSP\Source\TransformFunctions/arm_cfft_radix4_f32.c **** 
1193:.\DSP\Source\TransformFunctions/arm_cfft_radix4_f32.c ****       /* xd' = (xa-yb-xc+yd)co3 - (ya+xb-yc-xd)(si3) */
1194:.\DSP\Source\TransformFunctions/arm_cfft_radix4_f32.c ****       pSrc[2U * i3] = r2 * onebyfftLen;
 1015              		.loc 1 1194 0 discriminator 3
 1016 037c 3846     		mov	r0, r7
 1017 037e 2099     		ldr	r1, [sp, #128]	@ float
 1018 0380 FFF7FEFF 		bl	__aeabi_fmul
 1019              	.LVL259:
ARM GAS  C:\Users\IVYLIU~1\AppData\Local\Temp\ccHWxCbk.s 			page 40


 1020 0384 4BF83A00 		str	r0, [fp, r10, lsl #3]	@ float
1195:.\DSP\Source\TransformFunctions/arm_cfft_radix4_f32.c **** 
1196:.\DSP\Source\TransformFunctions/arm_cfft_radix4_f32.c ****       /* yd' = (ya+xb-yc-xd)co3 + (xa-yb-xc+yd)(si3) */
1197:.\DSP\Source\TransformFunctions/arm_cfft_radix4_f32.c ****       pSrc[(2U * i3) + 1U] = s2 * onebyfftLen;
 1021              		.loc 1 1197 0 discriminator 3
 1022 0388 3046     		mov	r0, r6
 1023 038a 2099     		ldr	r1, [sp, #128]	@ float
 1024 038c FFF7FEFF 		bl	__aeabi_fmul
 1025              	.LVL260:
 1026 0390 4BF80500 		str	r0, [fp, r5]	@ float
1124:.\DSP\Source\TransformFunctions/arm_cfft_radix4_f32.c ****    {
 1027              		.loc 1 1124 0 discriminator 3
 1028 0394 0F9B     		ldr	r3, [sp, #60]
 1029 0396 1C44     		add	r4, r4, r3
 1030              	.LVL261:
 1031              	.L12:
1124:.\DSP\Source\TransformFunctions/arm_cfft_radix4_f32.c ****    {
 1032              		.loc 1 1124 0 is_stmt 0 discriminator 1
 1033 0398 109B     		ldr	r3, [sp, #64]
 1034 039a 0F9A     		ldr	r2, [sp, #60]
 1035 039c 9B1A     		subs	r3, r3, r2
 1036 039e A342     		cmp	r3, r4
 1037 03a0 BFF455AF 		bcs	.L13
1198:.\DSP\Source\TransformFunctions/arm_cfft_radix4_f32.c ****    }
1199:.\DSP\Source\TransformFunctions/arm_cfft_radix4_f32.c **** 
1200:.\DSP\Source\TransformFunctions/arm_cfft_radix4_f32.c **** #endif /* #if defined (ARM_MATH_LOOPUNROLL) */
1201:.\DSP\Source\TransformFunctions/arm_cfft_radix4_f32.c **** }
 1038              		.loc 1 1201 0 is_stmt 1
 1039 03a4 17B0     		add	sp, sp, #92
 1040              		.cfi_def_cfa_offset 36
 1041              		@ sp needed
 1042 03a6 BDE8F08F 		pop	{r4, r5, r6, r7, r8, r9, r10, fp, pc}
 1043              		.cfi_endproc
 1044              	.LFE86:
 1045              		.size	arm_radix4_butterfly_inverse_f32, .-arm_radix4_butterfly_inverse_f32
 1046 03aa 00BF     		.section	.text.arm_cfft_radix4_f32,"ax",%progbits
 1047              		.align	2
 1048              		.global	arm_cfft_radix4_f32
 1049              		.thumb
 1050              		.thumb_func
 1051              		.type	arm_cfft_radix4_f32, %function
 1052              	arm_cfft_radix4_f32:
 1053              	.LFB84:
  74:.\DSP\Source\TransformFunctions/arm_cfft_radix4_f32.c ****    if (S->ifftFlag == 1U)
 1054              		.loc 1 74 0
 1055              		.cfi_startproc
 1056              		@ args = 0, pretend = 0, frame = 0
 1057              		@ frame_needed = 0, uses_anonymous_args = 0
 1058              	.LVL262:
 1059 0000 30B5     		push	{r4, r5, lr}
 1060              		.cfi_def_cfa_offset 12
 1061              		.cfi_offset 4, -12
 1062              		.cfi_offset 5, -8
 1063              		.cfi_offset 14, -4
 1064 0002 83B0     		sub	sp, sp, #12
 1065              		.cfi_def_cfa_offset 24
 1066 0004 0446     		mov	r4, r0
ARM GAS  C:\Users\IVYLIU~1\AppData\Local\Temp\ccHWxCbk.s 			page 41


 1067 0006 0D46     		mov	r5, r1
  75:.\DSP\Source\TransformFunctions/arm_cfft_radix4_f32.c ****    {
 1068              		.loc 1 75 0
 1069 0008 8378     		ldrb	r3, [r0, #2]	@ zero_extendqisi2
 1070 000a 012B     		cmp	r3, #1
 1071 000c 08D1     		bne	.L16
  78:.\DSP\Source\TransformFunctions/arm_cfft_radix4_f32.c ****    }
 1072              		.loc 1 78 0
 1073 000e 0188     		ldrh	r1, [r0]
 1074              	.LVL263:
 1075 0010 8389     		ldrh	r3, [r0, #12]
 1076 0012 0269     		ldr	r2, [r0, #16]	@ float
 1077 0014 0092     		str	r2, [sp]	@ float
 1078 0016 2846     		mov	r0, r5
 1079              	.LVL264:
 1080 0018 6268     		ldr	r2, [r4, #4]
 1081 001a FFF7FEFF 		bl	arm_radix4_butterfly_inverse_f32
 1082              	.LVL265:
 1083 001e 05E0     		b	.L17
 1084              	.LVL266:
 1085              	.L16:
  83:.\DSP\Source\TransformFunctions/arm_cfft_radix4_f32.c ****    }
 1086              		.loc 1 83 0
 1087 0020 0846     		mov	r0, r1
 1088              	.LVL267:
 1089 0022 2188     		ldrh	r1, [r4]
 1090              	.LVL268:
 1091 0024 6268     		ldr	r2, [r4, #4]
 1092 0026 A389     		ldrh	r3, [r4, #12]
 1093 0028 FFF7FEFF 		bl	arm_radix4_butterfly_f32
 1094              	.LVL269:
 1095              	.L17:
  86:.\DSP\Source\TransformFunctions/arm_cfft_radix4_f32.c ****    {
 1096              		.loc 1 86 0
 1097 002c E378     		ldrb	r3, [r4, #3]	@ zero_extendqisi2
 1098 002e 012B     		cmp	r3, #1
 1099 0030 05D1     		bne	.L15
  89:.\DSP\Source\TransformFunctions/arm_cfft_radix4_f32.c ****    }
 1100              		.loc 1 89 0
 1101 0032 2846     		mov	r0, r5
 1102 0034 2188     		ldrh	r1, [r4]
 1103 0036 E289     		ldrh	r2, [r4, #14]
 1104 0038 A368     		ldr	r3, [r4, #8]
 1105 003a FFF7FEFF 		bl	arm_bitreversal_f32
 1106              	.LVL270:
 1107              	.L15:
  92:.\DSP\Source\TransformFunctions/arm_cfft_radix4_f32.c **** 
 1108              		.loc 1 92 0
 1109 003e 03B0     		add	sp, sp, #12
 1110              		.cfi_def_cfa_offset 12
 1111              		@ sp needed
 1112 0040 30BD     		pop	{r4, r5, pc}
 1113              		.cfi_endproc
 1114              	.LFE84:
 1115              		.size	arm_cfft_radix4_f32, .-arm_cfft_radix4_f32
 1116 0042 00BF     		.text
 1117              	.Letext0:
ARM GAS  C:\Users\IVYLIU~1\AppData\Local\Temp\ccHWxCbk.s 			page 42


 1118              		.file 2 "c:\\program files (x86)\\cypress\\psoc creator\\3.3\\psoc creator\\import\\gnu\\arm\\4.9.
 1119              		.file 3 "c:\\program files (x86)\\cypress\\psoc creator\\3.3\\psoc creator\\import\\gnu\\arm\\4.9.
 1120              		.file 4 ".\\DSP\\Include/arm_math_types.h"
 1121              		.file 5 ".\\DSP\\Include/dsp/transform_functions.h"
 1122              		.file 6 ".\\Core\\Include/cmsis_gcc.h"