ARM GAS  C:\Users\IVYLIU~1\AppData\Local\Temp\ccYA53cp.s 			page 1


   1              		.syntax unified
   2              		.cpu cortex-m3
   3              		.fpu softvfp
   4              		.eabi_attribute 20, 1
   5              		.eabi_attribute 21, 1
   6              		.eabi_attribute 23, 3
   7              		.eabi_attribute 24, 1
   8              		.eabi_attribute 25, 1
   9              		.eabi_attribute 26, 1
  10              		.eabi_attribute 30, 1
  11              		.eabi_attribute 34, 1
  12              		.eabi_attribute 18, 4
  13              		.thumb
  14              		.file	"arm_mult_q31.c"
  15              		.text
  16              	.Ltext0:
  17              		.cfi_sections	.debug_frame
  18              		.section	.text.arm_mult_q31,"ax",%progbits
  19              		.align	2
  20              		.global	arm_mult_q31
  21              		.thumb
  22              		.thumb_func
  23              		.type	arm_mult_q31, %function
  24              	arm_mult_q31:
  25              	.LFB83:
  26              		.file 1 ".\\DSP\\Source\\BasicMathFunctions\\arm_mult_q31.c"
   1:.\DSP\Source\BasicMathFunctions/arm_mult_q31.c **** /* ----------------------------------------------------------------------
   2:.\DSP\Source\BasicMathFunctions/arm_mult_q31.c ****  * Project:      CMSIS DSP Library
   3:.\DSP\Source\BasicMathFunctions/arm_mult_q31.c ****  * Title:        arm_mult_q31.c
   4:.\DSP\Source\BasicMathFunctions/arm_mult_q31.c ****  * Description:  Q31 vector multiplication
   5:.\DSP\Source\BasicMathFunctions/arm_mult_q31.c ****  *
   6:.\DSP\Source\BasicMathFunctions/arm_mult_q31.c ****  * $Date:        23 April 2021
   7:.\DSP\Source\BasicMathFunctions/arm_mult_q31.c ****  * $Revision:    V1.9.0
   8:.\DSP\Source\BasicMathFunctions/arm_mult_q31.c ****  *
   9:.\DSP\Source\BasicMathFunctions/arm_mult_q31.c ****  * Target Processor: Cortex-M and Cortex-A cores
  10:.\DSP\Source\BasicMathFunctions/arm_mult_q31.c ****  * -------------------------------------------------------------------- */
  11:.\DSP\Source\BasicMathFunctions/arm_mult_q31.c **** /*
  12:.\DSP\Source\BasicMathFunctions/arm_mult_q31.c ****  * Copyright (C) 2010-2021 ARM Limited or its affiliates. All rights reserved.
  13:.\DSP\Source\BasicMathFunctions/arm_mult_q31.c ****  *
  14:.\DSP\Source\BasicMathFunctions/arm_mult_q31.c ****  * SPDX-License-Identifier: Apache-2.0
  15:.\DSP\Source\BasicMathFunctions/arm_mult_q31.c ****  *
  16:.\DSP\Source\BasicMathFunctions/arm_mult_q31.c ****  * Licensed under the Apache License, Version 2.0 (the License); you may
  17:.\DSP\Source\BasicMathFunctions/arm_mult_q31.c ****  * not use this file except in compliance with the License.
  18:.\DSP\Source\BasicMathFunctions/arm_mult_q31.c ****  * You may obtain a copy of the License at
  19:.\DSP\Source\BasicMathFunctions/arm_mult_q31.c ****  *
  20:.\DSP\Source\BasicMathFunctions/arm_mult_q31.c ****  * www.apache.org/licenses/LICENSE-2.0
  21:.\DSP\Source\BasicMathFunctions/arm_mult_q31.c ****  *
  22:.\DSP\Source\BasicMathFunctions/arm_mult_q31.c ****  * Unless required by applicable law or agreed to in writing, software
  23:.\DSP\Source\BasicMathFunctions/arm_mult_q31.c ****  * distributed under the License is distributed on an AS IS BASIS, WITHOUT
  24:.\DSP\Source\BasicMathFunctions/arm_mult_q31.c ****  * WARRANTIES OR CONDITIONS OF ANY KIND, either express or implied.
  25:.\DSP\Source\BasicMathFunctions/arm_mult_q31.c ****  * See the License for the specific language governing permissions and
  26:.\DSP\Source\BasicMathFunctions/arm_mult_q31.c ****  * limitations under the License.
  27:.\DSP\Source\BasicMathFunctions/arm_mult_q31.c ****  */
  28:.\DSP\Source\BasicMathFunctions/arm_mult_q31.c **** 
  29:.\DSP\Source\BasicMathFunctions/arm_mult_q31.c **** #include "dsp/basic_math_functions.h"
  30:.\DSP\Source\BasicMathFunctions/arm_mult_q31.c **** 
  31:.\DSP\Source\BasicMathFunctions/arm_mult_q31.c **** /**
ARM GAS  C:\Users\IVYLIU~1\AppData\Local\Temp\ccYA53cp.s 			page 2


  32:.\DSP\Source\BasicMathFunctions/arm_mult_q31.c ****   @ingroup groupMath
  33:.\DSP\Source\BasicMathFunctions/arm_mult_q31.c ****  */
  34:.\DSP\Source\BasicMathFunctions/arm_mult_q31.c **** 
  35:.\DSP\Source\BasicMathFunctions/arm_mult_q31.c **** /**
  36:.\DSP\Source\BasicMathFunctions/arm_mult_q31.c ****   @addtogroup BasicMult
  37:.\DSP\Source\BasicMathFunctions/arm_mult_q31.c ****   @{
  38:.\DSP\Source\BasicMathFunctions/arm_mult_q31.c ****  */
  39:.\DSP\Source\BasicMathFunctions/arm_mult_q31.c **** 
  40:.\DSP\Source\BasicMathFunctions/arm_mult_q31.c **** /**
  41:.\DSP\Source\BasicMathFunctions/arm_mult_q31.c ****   @brief         Q31 vector multiplication.
  42:.\DSP\Source\BasicMathFunctions/arm_mult_q31.c ****   @param[in]     pSrcA      points to the first input vector.
  43:.\DSP\Source\BasicMathFunctions/arm_mult_q31.c ****   @param[in]     pSrcB      points to the second input vector.
  44:.\DSP\Source\BasicMathFunctions/arm_mult_q31.c ****   @param[out]    pDst       points to the output vector.
  45:.\DSP\Source\BasicMathFunctions/arm_mult_q31.c ****   @param[in]     blockSize  number of samples in each vector.
  46:.\DSP\Source\BasicMathFunctions/arm_mult_q31.c ****   @return        none
  47:.\DSP\Source\BasicMathFunctions/arm_mult_q31.c **** 
  48:.\DSP\Source\BasicMathFunctions/arm_mult_q31.c ****   @par           Scaling and Overflow Behavior
  49:.\DSP\Source\BasicMathFunctions/arm_mult_q31.c ****                    The function uses saturating arithmetic.
  50:.\DSP\Source\BasicMathFunctions/arm_mult_q31.c ****                    Results outside of the allowable Q31 range[0x80000000 0x7FFFFFFF] are saturated.
  51:.\DSP\Source\BasicMathFunctions/arm_mult_q31.c ****  */
  52:.\DSP\Source\BasicMathFunctions/arm_mult_q31.c **** #if defined(ARM_MATH_MVEI) && !defined(ARM_MATH_AUTOVECTORIZE)
  53:.\DSP\Source\BasicMathFunctions/arm_mult_q31.c **** 
  54:.\DSP\Source\BasicMathFunctions/arm_mult_q31.c **** #include "arm_helium_utils.h"
  55:.\DSP\Source\BasicMathFunctions/arm_mult_q31.c **** 
  56:.\DSP\Source\BasicMathFunctions/arm_mult_q31.c **** void arm_mult_q31(
  57:.\DSP\Source\BasicMathFunctions/arm_mult_q31.c ****     const q31_t * pSrcA,
  58:.\DSP\Source\BasicMathFunctions/arm_mult_q31.c ****     const q31_t * pSrcB,
  59:.\DSP\Source\BasicMathFunctions/arm_mult_q31.c ****     q31_t * pDst,
  60:.\DSP\Source\BasicMathFunctions/arm_mult_q31.c ****     uint32_t blockSize)
  61:.\DSP\Source\BasicMathFunctions/arm_mult_q31.c **** {
  62:.\DSP\Source\BasicMathFunctions/arm_mult_q31.c ****     uint32_t  blkCnt;           /* loop counters */
  63:.\DSP\Source\BasicMathFunctions/arm_mult_q31.c ****     q31x4_t vecA, vecB;
  64:.\DSP\Source\BasicMathFunctions/arm_mult_q31.c **** 
  65:.\DSP\Source\BasicMathFunctions/arm_mult_q31.c ****     /* Compute 4 outputs at a time */
  66:.\DSP\Source\BasicMathFunctions/arm_mult_q31.c ****     blkCnt = blockSize >> 2;
  67:.\DSP\Source\BasicMathFunctions/arm_mult_q31.c ****     while (blkCnt > 0U)
  68:.\DSP\Source\BasicMathFunctions/arm_mult_q31.c ****     {
  69:.\DSP\Source\BasicMathFunctions/arm_mult_q31.c ****         /*
  70:.\DSP\Source\BasicMathFunctions/arm_mult_q31.c ****          * C = A * B
  71:.\DSP\Source\BasicMathFunctions/arm_mult_q31.c ****          * Multiply the inputs and then store the results in the destination buffer.
  72:.\DSP\Source\BasicMathFunctions/arm_mult_q31.c ****          */
  73:.\DSP\Source\BasicMathFunctions/arm_mult_q31.c ****         vecA = vld1q(pSrcA);
  74:.\DSP\Source\BasicMathFunctions/arm_mult_q31.c ****         vecB = vld1q(pSrcB);
  75:.\DSP\Source\BasicMathFunctions/arm_mult_q31.c ****         vst1q(pDst, vqdmulhq(vecA, vecB));
  76:.\DSP\Source\BasicMathFunctions/arm_mult_q31.c ****         /*
  77:.\DSP\Source\BasicMathFunctions/arm_mult_q31.c ****          * Decrement the blockSize loop counter
  78:.\DSP\Source\BasicMathFunctions/arm_mult_q31.c ****          */
  79:.\DSP\Source\BasicMathFunctions/arm_mult_q31.c ****         blkCnt--;
  80:.\DSP\Source\BasicMathFunctions/arm_mult_q31.c ****         /*
  81:.\DSP\Source\BasicMathFunctions/arm_mult_q31.c ****          * advance vector source and destination pointers
  82:.\DSP\Source\BasicMathFunctions/arm_mult_q31.c ****          */
  83:.\DSP\Source\BasicMathFunctions/arm_mult_q31.c ****         pSrcA  += 4;
  84:.\DSP\Source\BasicMathFunctions/arm_mult_q31.c ****         pSrcB  += 4;
  85:.\DSP\Source\BasicMathFunctions/arm_mult_q31.c ****         pDst   += 4;
  86:.\DSP\Source\BasicMathFunctions/arm_mult_q31.c ****     }
  87:.\DSP\Source\BasicMathFunctions/arm_mult_q31.c ****     /*
  88:.\DSP\Source\BasicMathFunctions/arm_mult_q31.c ****      * tail
ARM GAS  C:\Users\IVYLIU~1\AppData\Local\Temp\ccYA53cp.s 			page 3


  89:.\DSP\Source\BasicMathFunctions/arm_mult_q31.c ****      */
  90:.\DSP\Source\BasicMathFunctions/arm_mult_q31.c ****     blkCnt = blockSize & 3;
  91:.\DSP\Source\BasicMathFunctions/arm_mult_q31.c ****     if (blkCnt > 0U)
  92:.\DSP\Source\BasicMathFunctions/arm_mult_q31.c ****     {
  93:.\DSP\Source\BasicMathFunctions/arm_mult_q31.c ****         mve_pred16_t p0 = vctp32q(blkCnt);
  94:.\DSP\Source\BasicMathFunctions/arm_mult_q31.c ****         vecA = vld1q(pSrcA);
  95:.\DSP\Source\BasicMathFunctions/arm_mult_q31.c ****         vecB = vld1q(pSrcB);
  96:.\DSP\Source\BasicMathFunctions/arm_mult_q31.c ****         vstrwq_p(pDst, vqdmulhq(vecA, vecB), p0);
  97:.\DSP\Source\BasicMathFunctions/arm_mult_q31.c ****     }
  98:.\DSP\Source\BasicMathFunctions/arm_mult_q31.c **** }
  99:.\DSP\Source\BasicMathFunctions/arm_mult_q31.c **** 
 100:.\DSP\Source\BasicMathFunctions/arm_mult_q31.c **** #else
 101:.\DSP\Source\BasicMathFunctions/arm_mult_q31.c **** void arm_mult_q31(
 102:.\DSP\Source\BasicMathFunctions/arm_mult_q31.c ****   const q31_t * pSrcA,
 103:.\DSP\Source\BasicMathFunctions/arm_mult_q31.c ****   const q31_t * pSrcB,
 104:.\DSP\Source\BasicMathFunctions/arm_mult_q31.c ****         q31_t * pDst,
 105:.\DSP\Source\BasicMathFunctions/arm_mult_q31.c ****         uint32_t blockSize)
 106:.\DSP\Source\BasicMathFunctions/arm_mult_q31.c **** {
  27              		.loc 1 106 0
  28              		.cfi_startproc
  29              		@ args = 0, pretend = 0, frame = 0
  30              		@ frame_needed = 0, uses_anonymous_args = 0
  31              		@ link register save eliminated.
  32              	.LVL0:
  33 0000 2DE9F00F 		push	{r4, r5, r6, r7, r8, r9, r10, fp}
  34              		.cfi_def_cfa_offset 32
  35              		.cfi_offset 4, -32
  36              		.cfi_offset 5, -28
  37              		.cfi_offset 6, -24
  38              		.cfi_offset 7, -20
  39              		.cfi_offset 8, -16
  40              		.cfi_offset 9, -12
  41              		.cfi_offset 10, -8
  42              		.cfi_offset 11, -4
  43              	.LVL1:
 107:.\DSP\Source\BasicMathFunctions/arm_mult_q31.c ****         uint32_t blkCnt;                               /* Loop counter */
 108:.\DSP\Source\BasicMathFunctions/arm_mult_q31.c ****         q31_t out;                                     /* Temporary output variable */
 109:.\DSP\Source\BasicMathFunctions/arm_mult_q31.c **** 
 110:.\DSP\Source\BasicMathFunctions/arm_mult_q31.c **** #if defined (ARM_MATH_LOOPUNROLL)
 111:.\DSP\Source\BasicMathFunctions/arm_mult_q31.c **** 
 112:.\DSP\Source\BasicMathFunctions/arm_mult_q31.c ****   /* Loop unrolling: Compute 4 outputs at a time */
 113:.\DSP\Source\BasicMathFunctions/arm_mult_q31.c ****   blkCnt = blockSize >> 2U;
 114:.\DSP\Source\BasicMathFunctions/arm_mult_q31.c **** 
 115:.\DSP\Source\BasicMathFunctions/arm_mult_q31.c ****   while (blkCnt > 0U)
 116:.\DSP\Source\BasicMathFunctions/arm_mult_q31.c ****   {
 117:.\DSP\Source\BasicMathFunctions/arm_mult_q31.c ****     /* C = A * B */
 118:.\DSP\Source\BasicMathFunctions/arm_mult_q31.c **** 
 119:.\DSP\Source\BasicMathFunctions/arm_mult_q31.c ****     /* Multiply inputs and store result in destination buffer. */
 120:.\DSP\Source\BasicMathFunctions/arm_mult_q31.c ****     out = ((q63_t) *pSrcA++ * *pSrcB++) >> 32;
 121:.\DSP\Source\BasicMathFunctions/arm_mult_q31.c ****     out = __SSAT(out, 31);
 122:.\DSP\Source\BasicMathFunctions/arm_mult_q31.c ****     *pDst++ = out << 1U;
 123:.\DSP\Source\BasicMathFunctions/arm_mult_q31.c **** 
 124:.\DSP\Source\BasicMathFunctions/arm_mult_q31.c ****     out = ((q63_t) *pSrcA++ * *pSrcB++) >> 32;
 125:.\DSP\Source\BasicMathFunctions/arm_mult_q31.c ****     out = __SSAT(out, 31);
 126:.\DSP\Source\BasicMathFunctions/arm_mult_q31.c ****     *pDst++ = out << 1U;
 127:.\DSP\Source\BasicMathFunctions/arm_mult_q31.c **** 
 128:.\DSP\Source\BasicMathFunctions/arm_mult_q31.c ****     out = ((q63_t) *pSrcA++ * *pSrcB++) >> 32;
ARM GAS  C:\Users\IVYLIU~1\AppData\Local\Temp\ccYA53cp.s 			page 4


 129:.\DSP\Source\BasicMathFunctions/arm_mult_q31.c ****     out = __SSAT(out, 31);
 130:.\DSP\Source\BasicMathFunctions/arm_mult_q31.c ****     *pDst++ = out << 1U;
 131:.\DSP\Source\BasicMathFunctions/arm_mult_q31.c **** 
 132:.\DSP\Source\BasicMathFunctions/arm_mult_q31.c ****     out = ((q63_t) *pSrcA++ * *pSrcB++) >> 32;
 133:.\DSP\Source\BasicMathFunctions/arm_mult_q31.c ****     out = __SSAT(out, 31);
 134:.\DSP\Source\BasicMathFunctions/arm_mult_q31.c ****     *pDst++ = out << 1U;
 135:.\DSP\Source\BasicMathFunctions/arm_mult_q31.c **** 
 136:.\DSP\Source\BasicMathFunctions/arm_mult_q31.c ****     /* Decrement loop counter */
 137:.\DSP\Source\BasicMathFunctions/arm_mult_q31.c ****     blkCnt--;
 138:.\DSP\Source\BasicMathFunctions/arm_mult_q31.c ****   }
 139:.\DSP\Source\BasicMathFunctions/arm_mult_q31.c **** 
 140:.\DSP\Source\BasicMathFunctions/arm_mult_q31.c ****   /* Loop unrolling: Compute remaining outputs */
 141:.\DSP\Source\BasicMathFunctions/arm_mult_q31.c ****   blkCnt = blockSize % 0x4U;
 142:.\DSP\Source\BasicMathFunctions/arm_mult_q31.c **** 
 143:.\DSP\Source\BasicMathFunctions/arm_mult_q31.c **** #else
 144:.\DSP\Source\BasicMathFunctions/arm_mult_q31.c **** 
 145:.\DSP\Source\BasicMathFunctions/arm_mult_q31.c ****   /* Initialize blkCnt with number of samples */
 146:.\DSP\Source\BasicMathFunctions/arm_mult_q31.c ****   blkCnt = blockSize;
 147:.\DSP\Source\BasicMathFunctions/arm_mult_q31.c **** 
 148:.\DSP\Source\BasicMathFunctions/arm_mult_q31.c **** #endif /* #if defined (ARM_MATH_LOOPUNROLL) */
 149:.\DSP\Source\BasicMathFunctions/arm_mult_q31.c **** 
 150:.\DSP\Source\BasicMathFunctions/arm_mult_q31.c ****   while (blkCnt > 0U)
  44              		.loc 1 150 0
  45 0004 16E0     		b	.L2
  46              	.LVL2:
  47              	.L3:
 151:.\DSP\Source\BasicMathFunctions/arm_mult_q31.c ****   {
 152:.\DSP\Source\BasicMathFunctions/arm_mult_q31.c ****     /* C = A * B */
 153:.\DSP\Source\BasicMathFunctions/arm_mult_q31.c **** 
 154:.\DSP\Source\BasicMathFunctions/arm_mult_q31.c ****     /* Multiply inputs and store result in destination buffer. */
 155:.\DSP\Source\BasicMathFunctions/arm_mult_q31.c ****     out = ((q63_t) *pSrcA++ * *pSrcB++) >> 32;
  48              		.loc 1 155 0
  49 0006 061D     		adds	r6, r0, #4
  50              	.LVL3:
  51 0008 0468     		ldr	r4, [r0]
  52 000a 4FEAE479 		asr	r9, r4, #31
  53 000e 081D     		adds	r0, r1, #4
  54              	.LVL4:
  55 0010 0968     		ldr	r1, [r1]
  56 0012 4FEAE17B 		asr	fp, r1, #31
  57 0016 04FB0BF7 		mul	r7, r4, fp
  58 001a A4FB0145 		umull	r4, r5, r4, r1
  59 001e 01FB0971 		mla	r1, r1, r9, r7
  60 0022 2944     		add	r1, r1, r5
  61              	.LVL5:
  62              	.LBB2:
 156:.\DSP\Source\BasicMathFunctions/arm_mult_q31.c ****     out = __SSAT(out, 31);
  63              		.loc 1 156 0
  64              	@ 156 ".\DSP\Source\BasicMathFunctions\arm_mult_q31.c" 1
  65 0024 01F31E01 		ssat r1, #31, r1
  66              	@ 0 "" 2
  67              	.LVL6:
  68              		.thumb
  69              	.LBE2:
 157:.\DSP\Source\BasicMathFunctions/arm_mult_q31.c ****     *pDst++ = out << 1U;
  70              		.loc 1 157 0
  71 0028 4900     		lsls	r1, r1, #1
ARM GAS  C:\Users\IVYLIU~1\AppData\Local\Temp\ccYA53cp.s 			page 5


  72              	.LVL7:
  73 002a 1160     		str	r1, [r2]
  74              	.LVL8:
 158:.\DSP\Source\BasicMathFunctions/arm_mult_q31.c **** 
 159:.\DSP\Source\BasicMathFunctions/arm_mult_q31.c ****     /* Decrement loop counter */
 160:.\DSP\Source\BasicMathFunctions/arm_mult_q31.c ****     blkCnt--;
  75              		.loc 1 160 0
  76 002c 013B     		subs	r3, r3, #1
  77              	.LVL9:
 157:.\DSP\Source\BasicMathFunctions/arm_mult_q31.c ****     *pDst++ = out << 1U;
  78              		.loc 1 157 0
  79 002e 0432     		adds	r2, r2, #4
  80              	.LVL10:
 155:.\DSP\Source\BasicMathFunctions/arm_mult_q31.c ****     out = __SSAT(out, 31);
  81              		.loc 1 155 0
  82 0030 0146     		mov	r1, r0
  83 0032 3046     		mov	r0, r6
  84              	.LVL11:
  85              	.L2:
 150:.\DSP\Source\BasicMathFunctions/arm_mult_q31.c ****   {
  86              		.loc 1 150 0
  87 0034 002B     		cmp	r3, #0
  88 0036 E6D1     		bne	.L3
 161:.\DSP\Source\BasicMathFunctions/arm_mult_q31.c ****   }
 162:.\DSP\Source\BasicMathFunctions/arm_mult_q31.c **** 
 163:.\DSP\Source\BasicMathFunctions/arm_mult_q31.c **** }
  89              		.loc 1 163 0
  90 0038 BDE8F00F 		pop	{r4, r5, r6, r7, r8, r9, r10, fp}
  91              		.cfi_restore 11
  92              		.cfi_restore 10
  93              		.cfi_restore 9
  94              		.cfi_restore 8
  95              		.cfi_restore 7
  96              		.cfi_restore 6
  97              		.cfi_restore 5
  98              		.cfi_restore 4
  99              		.cfi_def_cfa_offset 0
 100 003c 7047     		bx	lr
 101              		.cfi_endproc
 102              	.LFE83:
 103              		.size	arm_mult_q31, .-arm_mult_q31
 104 003e 00BF     		.text
 105              	.Letext0:
 106              		.file 2 "c:\\program files (x86)\\cypress\\psoc creator\\3.3\\psoc creator\\import\\gnu\\arm\\4.9.
 107              		.file 3 "c:\\program files (x86)\\cypress\\psoc creator\\3.3\\psoc creator\\import\\gnu\\arm\\4.9.
 108              		.file 4 ".\\DSP\\Include/arm_math_types.h"
 109              		.file 5 ".\\Core\\Include/cmsis_gcc.h"