ARM GAS  C:\Users\IVYLIU~1\AppData\Local\Temp\ccG9oehh.s 			page 1


   1              		.syntax unified
   2              		.cpu cortex-m3
   3              		.fpu softvfp
   4              		.eabi_attribute 20, 1
   5              		.eabi_attribute 21, 1
   6              		.eabi_attribute 23, 3
   7              		.eabi_attribute 24, 1
   8              		.eabi_attribute 25, 1
   9              		.eabi_attribute 26, 1
  10              		.eabi_attribute 30, 1
  11              		.eabi_attribute 34, 1
  12              		.eabi_attribute 18, 4
  13              		.thumb
  14              		.file	"arm_dot_prod_f64.c"
  15              		.text
  16              	.Ltext0:
  17              		.cfi_sections	.debug_frame
  18              		.global	__aeabi_dmul
  19              		.global	__aeabi_dadd
  20              		.section	.text.arm_dot_prod_f64,"ax",%progbits
  21              		.align	2
  22              		.global	arm_dot_prod_f64
  23              		.thumb
  24              		.thumb_func
  25              		.type	arm_dot_prod_f64, %function
  26              	arm_dot_prod_f64:
  27              	.LFB83:
  28              		.file 1 ".\\DSP\\Source\\BasicMathFunctions\\arm_dot_prod_f64.c"
   1:.\DSP\Source\BasicMathFunctions/arm_dot_prod_f64.c **** /* ----------------------------------------------------------------------
   2:.\DSP\Source\BasicMathFunctions/arm_dot_prod_f64.c ****  * Project:      CMSIS DSP Library
   3:.\DSP\Source\BasicMathFunctions/arm_dot_prod_f64.c ****  * Title:        arm_dot_prod_f64.c
   4:.\DSP\Source\BasicMathFunctions/arm_dot_prod_f64.c ****  * Description:  Floating-point dot product
   5:.\DSP\Source\BasicMathFunctions/arm_dot_prod_f64.c ****  *
   6:.\DSP\Source\BasicMathFunctions/arm_dot_prod_f64.c ****  * $Date:        13 September 2021
   7:.\DSP\Source\BasicMathFunctions/arm_dot_prod_f64.c ****  * $Revision:    V1.10.0
   8:.\DSP\Source\BasicMathFunctions/arm_dot_prod_f64.c ****  *
   9:.\DSP\Source\BasicMathFunctions/arm_dot_prod_f64.c ****  * Target Processor: Cortex-M and Cortex-A cores
  10:.\DSP\Source\BasicMathFunctions/arm_dot_prod_f64.c ****  * -------------------------------------------------------------------- */
  11:.\DSP\Source\BasicMathFunctions/arm_dot_prod_f64.c **** /*
  12:.\DSP\Source\BasicMathFunctions/arm_dot_prod_f64.c ****  * Copyright (C) 2010-2021 ARM Limited or its affiliates. All rights reserved.
  13:.\DSP\Source\BasicMathFunctions/arm_dot_prod_f64.c ****  *
  14:.\DSP\Source\BasicMathFunctions/arm_dot_prod_f64.c ****  * SPDX-License-Identifier: Apache-2.0
  15:.\DSP\Source\BasicMathFunctions/arm_dot_prod_f64.c ****  *
  16:.\DSP\Source\BasicMathFunctions/arm_dot_prod_f64.c ****  * Licensed under the Apache License, Version 2.0 (the License); you may
  17:.\DSP\Source\BasicMathFunctions/arm_dot_prod_f64.c ****  * not use this file except in compliance with the License.
  18:.\DSP\Source\BasicMathFunctions/arm_dot_prod_f64.c ****  * You may obtain a copy of the License at
  19:.\DSP\Source\BasicMathFunctions/arm_dot_prod_f64.c ****  *
  20:.\DSP\Source\BasicMathFunctions/arm_dot_prod_f64.c ****  * www.apache.org/licenses/LICENSE-2.0
  21:.\DSP\Source\BasicMathFunctions/arm_dot_prod_f64.c ****  *
  22:.\DSP\Source\BasicMathFunctions/arm_dot_prod_f64.c ****  * Unless required by applicable law or agreed to in writing, software
  23:.\DSP\Source\BasicMathFunctions/arm_dot_prod_f64.c ****  * distributed under the License is distributed on an AS IS BASIS, WITHOUT
  24:.\DSP\Source\BasicMathFunctions/arm_dot_prod_f64.c ****  * WARRANTIES OR CONDITIONS OF ANY KIND, either express or implied.
  25:.\DSP\Source\BasicMathFunctions/arm_dot_prod_f64.c ****  * See the License for the specific language governing permissions and
  26:.\DSP\Source\BasicMathFunctions/arm_dot_prod_f64.c ****  * limitations under the License.
  27:.\DSP\Source\BasicMathFunctions/arm_dot_prod_f64.c ****  */
  28:.\DSP\Source\BasicMathFunctions/arm_dot_prod_f64.c **** 
  29:.\DSP\Source\BasicMathFunctions/arm_dot_prod_f64.c **** #include "dsp/basic_math_functions.h"
ARM GAS  C:\Users\IVYLIU~1\AppData\Local\Temp\ccG9oehh.s 			page 2


  30:.\DSP\Source\BasicMathFunctions/arm_dot_prod_f64.c **** 
  31:.\DSP\Source\BasicMathFunctions/arm_dot_prod_f64.c **** /**
  32:.\DSP\Source\BasicMathFunctions/arm_dot_prod_f64.c ****   @ingroup groupMath
  33:.\DSP\Source\BasicMathFunctions/arm_dot_prod_f64.c ****  */
  34:.\DSP\Source\BasicMathFunctions/arm_dot_prod_f64.c **** 
  35:.\DSP\Source\BasicMathFunctions/arm_dot_prod_f64.c **** /**
  36:.\DSP\Source\BasicMathFunctions/arm_dot_prod_f64.c ****   @addtogroup BasicDotProd
  37:.\DSP\Source\BasicMathFunctions/arm_dot_prod_f64.c ****   @{
  38:.\DSP\Source\BasicMathFunctions/arm_dot_prod_f64.c ****  */
  39:.\DSP\Source\BasicMathFunctions/arm_dot_prod_f64.c **** 
  40:.\DSP\Source\BasicMathFunctions/arm_dot_prod_f64.c **** /**
  41:.\DSP\Source\BasicMathFunctions/arm_dot_prod_f64.c ****   @brief         Dot product of floating-point vectors.
  42:.\DSP\Source\BasicMathFunctions/arm_dot_prod_f64.c ****   @param[in]     pSrcA      points to the first input vector.
  43:.\DSP\Source\BasicMathFunctions/arm_dot_prod_f64.c ****   @param[in]     pSrcB      points to the second input vector.
  44:.\DSP\Source\BasicMathFunctions/arm_dot_prod_f64.c ****   @param[in]     blockSize  number of samples in each vector.
  45:.\DSP\Source\BasicMathFunctions/arm_dot_prod_f64.c ****   @param[out]    result     output result returned here.
  46:.\DSP\Source\BasicMathFunctions/arm_dot_prod_f64.c ****   @return        none
  47:.\DSP\Source\BasicMathFunctions/arm_dot_prod_f64.c ****  */
  48:.\DSP\Source\BasicMathFunctions/arm_dot_prod_f64.c **** 
  49:.\DSP\Source\BasicMathFunctions/arm_dot_prod_f64.c **** void arm_dot_prod_f64(
  50:.\DSP\Source\BasicMathFunctions/arm_dot_prod_f64.c ****   const float64_t * pSrcA,
  51:.\DSP\Source\BasicMathFunctions/arm_dot_prod_f64.c ****   const float64_t * pSrcB,
  52:.\DSP\Source\BasicMathFunctions/arm_dot_prod_f64.c ****         uint32_t blockSize,
  53:.\DSP\Source\BasicMathFunctions/arm_dot_prod_f64.c ****         float64_t * result)
  54:.\DSP\Source\BasicMathFunctions/arm_dot_prod_f64.c **** {
  29              		.loc 1 54 0
  30              		.cfi_startproc
  31              		@ args = 0, pretend = 0, frame = 0
  32              		@ frame_needed = 0, uses_anonymous_args = 0
  33              	.LVL0:
  34 0000 2DE9F047 		push	{r4, r5, r6, r7, r8, r9, r10, lr}
  35              		.cfi_def_cfa_offset 32
  36              		.cfi_offset 4, -32
  37              		.cfi_offset 5, -28
  38              		.cfi_offset 6, -24
  39              		.cfi_offset 7, -20
  40              		.cfi_offset 8, -16
  41              		.cfi_offset 9, -12
  42              		.cfi_offset 10, -8
  43              		.cfi_offset 14, -4
  44 0004 0D46     		mov	r5, r1
  45 0006 1446     		mov	r4, r2
  46 0008 9A46     		mov	r10, r3
  47              	.LVL1:
  55:.\DSP\Source\BasicMathFunctions/arm_dot_prod_f64.c ****   uint32_t blkCnt;                               /* Loop counter */
  56:.\DSP\Source\BasicMathFunctions/arm_dot_prod_f64.c ****   float64_t sum = 0.;                            /* Temporary return variable */
  48              		.loc 1 56 0
  49 000a 0026     		movs	r6, #0
  50 000c 0027     		movs	r7, #0
  57:.\DSP\Source\BasicMathFunctions/arm_dot_prod_f64.c **** 
  58:.\DSP\Source\BasicMathFunctions/arm_dot_prod_f64.c ****   /* Initialize blkCnt with number of samples */
  59:.\DSP\Source\BasicMathFunctions/arm_dot_prod_f64.c ****   blkCnt = blockSize;
  60:.\DSP\Source\BasicMathFunctions/arm_dot_prod_f64.c **** 
  61:.\DSP\Source\BasicMathFunctions/arm_dot_prod_f64.c ****   while (blkCnt > 0U)
  51              		.loc 1 61 0
  52 000e 13E0     		b	.L2
  53              	.LVL2:
ARM GAS  C:\Users\IVYLIU~1\AppData\Local\Temp\ccG9oehh.s 			page 3


  54              	.L3:
  62:.\DSP\Source\BasicMathFunctions/arm_dot_prod_f64.c ****   {
  63:.\DSP\Source\BasicMathFunctions/arm_dot_prod_f64.c ****     /* C = A[0]* B[0] + A[1]* B[1] + A[2]* B[2] + .....+ A[blockSize-1]* B[blockSize-1] */
  64:.\DSP\Source\BasicMathFunctions/arm_dot_prod_f64.c **** 
  65:.\DSP\Source\BasicMathFunctions/arm_dot_prod_f64.c ****     /* Calculate dot product and store result in a temporary buffer. */
  66:.\DSP\Source\BasicMathFunctions/arm_dot_prod_f64.c ****     sum += (*pSrcA++) * (*pSrcB++);
  55              		.loc 1 66 0
  56 0010 00F10808 		add	r8, r0, #8
  57              	.LVL3:
  58 0014 05F10809 		add	r9, r5, #8
  59              	.LVL4:
  60 0018 03C8     		ldmia	r0, {r0-r1}
  61 001a D5E90023 		ldrd	r2, [r5]
  62 001e FFF7FEFF 		bl	__aeabi_dmul
  63              	.LVL5:
  64 0022 0246     		mov	r2, r0
  65 0024 0B46     		mov	r3, r1
  66 0026 3046     		mov	r0, r6
  67 0028 3946     		mov	r1, r7
  68 002a FFF7FEFF 		bl	__aeabi_dadd
  69              	.LVL6:
  70 002e 0646     		mov	r6, r0
  71              	.LVL7:
  72 0030 0F46     		mov	r7, r1
  73              	.LVL8:
  67:.\DSP\Source\BasicMathFunctions/arm_dot_prod_f64.c **** 
  68:.\DSP\Source\BasicMathFunctions/arm_dot_prod_f64.c ****     /* Decrement loop counter */
  69:.\DSP\Source\BasicMathFunctions/arm_dot_prod_f64.c ****     blkCnt--;
  74              		.loc 1 69 0
  75 0032 013C     		subs	r4, r4, #1
  76              	.LVL9:
  66:.\DSP\Source\BasicMathFunctions/arm_dot_prod_f64.c **** 
  77              		.loc 1 66 0
  78 0034 4D46     		mov	r5, r9
  79 0036 4046     		mov	r0, r8
  80              	.LVL10:
  81              	.L2:
  61:.\DSP\Source\BasicMathFunctions/arm_dot_prod_f64.c ****   {
  82              		.loc 1 61 0
  83 0038 002C     		cmp	r4, #0
  84 003a E9D1     		bne	.L3
  70:.\DSP\Source\BasicMathFunctions/arm_dot_prod_f64.c ****   }
  71:.\DSP\Source\BasicMathFunctions/arm_dot_prod_f64.c **** 
  72:.\DSP\Source\BasicMathFunctions/arm_dot_prod_f64.c ****   /* Store result in destination buffer */
  73:.\DSP\Source\BasicMathFunctions/arm_dot_prod_f64.c ****   *result = sum;
  85              		.loc 1 73 0
  86 003c CAE90067 		strd	r6, [r10]
  87 0040 BDE8F087 		pop	{r4, r5, r6, r7, r8, r9, r10, pc}
  88              		.cfi_endproc
  89              	.LFE83:
  90              		.size	arm_dot_prod_f64, .-arm_dot_prod_f64
  91              		.text
  92              	.Letext0:
  93              		.file 2 "c:\\program files (x86)\\cypress\\psoc creator\\3.3\\psoc creator\\import\\gnu\\arm\\4.9.
  94              		.file 3 "c:\\program files (x86)\\cypress\\psoc creator\\3.3\\psoc creator\\import\\gnu\\arm\\4.9.
  95              		.file 4 ".\\DSP\\Include/arm_math_types.h"
  96              		.file 5 ".\\Core\\Include/cmsis_gcc.h"
ARM GAS  C:\Users\IVYLIU~1\AppData\Local\Temp\ccG9oehh.s 			page 4

