ARM GAS  C:\Users\IVYLIU~1\AppData\Local\Temp\cc0k2XY8.s 			page 1


   1              		.syntax unified
   2              		.cpu cortex-m3
   3              		.fpu softvfp
   4              		.eabi_attribute 20, 1
   5              		.eabi_attribute 21, 1
   6              		.eabi_attribute 23, 3
   7              		.eabi_attribute 24, 1
   8              		.eabi_attribute 25, 1
   9              		.eabi_attribute 26, 1
  10              		.eabi_attribute 30, 1
  11              		.eabi_attribute 34, 1
  12              		.eabi_attribute 18, 4
  13              		.thumb
  14              		.file	"arm_scale_q31.c"
  15              		.text
  16              	.Ltext0:
  17              		.cfi_sections	.debug_frame
  18              		.section	.text.arm_scale_q31,"ax",%progbits
  19              		.align	2
  20              		.global	arm_scale_q31
  21              		.thumb
  22              		.thumb_func
  23              		.type	arm_scale_q31, %function
  24              	arm_scale_q31:
  25              	.LFB83:
  26              		.file 1 ".\\DSP\\Source\\BasicMathFunctions\\arm_scale_q31.c"
   1:.\DSP\Source\BasicMathFunctions/arm_scale_q31.c **** /* ----------------------------------------------------------------------
   2:.\DSP\Source\BasicMathFunctions/arm_scale_q31.c ****  * Project:      CMSIS DSP Library
   3:.\DSP\Source\BasicMathFunctions/arm_scale_q31.c ****  * Title:        arm_scale_q31.c
   4:.\DSP\Source\BasicMathFunctions/arm_scale_q31.c ****  * Description:  Multiplies a Q31 vector by a scalar
   5:.\DSP\Source\BasicMathFunctions/arm_scale_q31.c ****  *
   6:.\DSP\Source\BasicMathFunctions/arm_scale_q31.c ****  * $Date:        23 April 2021
   7:.\DSP\Source\BasicMathFunctions/arm_scale_q31.c ****  * $Revision:    V1.9.0
   8:.\DSP\Source\BasicMathFunctions/arm_scale_q31.c ****  *
   9:.\DSP\Source\BasicMathFunctions/arm_scale_q31.c ****  * Target Processor: Cortex-M and Cortex-A cores
  10:.\DSP\Source\BasicMathFunctions/arm_scale_q31.c ****  * -------------------------------------------------------------------- */
  11:.\DSP\Source\BasicMathFunctions/arm_scale_q31.c **** /*
  12:.\DSP\Source\BasicMathFunctions/arm_scale_q31.c ****  * Copyright (C) 2010-2021 ARM Limited or its affiliates. All rights reserved.
  13:.\DSP\Source\BasicMathFunctions/arm_scale_q31.c ****  *
  14:.\DSP\Source\BasicMathFunctions/arm_scale_q31.c ****  * SPDX-License-Identifier: Apache-2.0
  15:.\DSP\Source\BasicMathFunctions/arm_scale_q31.c ****  *
  16:.\DSP\Source\BasicMathFunctions/arm_scale_q31.c ****  * Licensed under the Apache License, Version 2.0 (the License); you may
  17:.\DSP\Source\BasicMathFunctions/arm_scale_q31.c ****  * not use this file except in compliance with the License.
  18:.\DSP\Source\BasicMathFunctions/arm_scale_q31.c ****  * You may obtain a copy of the License at
  19:.\DSP\Source\BasicMathFunctions/arm_scale_q31.c ****  *
  20:.\DSP\Source\BasicMathFunctions/arm_scale_q31.c ****  * www.apache.org/licenses/LICENSE-2.0
  21:.\DSP\Source\BasicMathFunctions/arm_scale_q31.c ****  *
  22:.\DSP\Source\BasicMathFunctions/arm_scale_q31.c ****  * Unless required by applicable law or agreed to in writing, software
  23:.\DSP\Source\BasicMathFunctions/arm_scale_q31.c ****  * distributed under the License is distributed on an AS IS BASIS, WITHOUT
  24:.\DSP\Source\BasicMathFunctions/arm_scale_q31.c ****  * WARRANTIES OR CONDITIONS OF ANY KIND, either express or implied.
  25:.\DSP\Source\BasicMathFunctions/arm_scale_q31.c ****  * See the License for the specific language governing permissions and
  26:.\DSP\Source\BasicMathFunctions/arm_scale_q31.c ****  * limitations under the License.
  27:.\DSP\Source\BasicMathFunctions/arm_scale_q31.c ****  */
  28:.\DSP\Source\BasicMathFunctions/arm_scale_q31.c **** 
  29:.\DSP\Source\BasicMathFunctions/arm_scale_q31.c **** #include "dsp/basic_math_functions.h"
  30:.\DSP\Source\BasicMathFunctions/arm_scale_q31.c **** 
  31:.\DSP\Source\BasicMathFunctions/arm_scale_q31.c **** /**
ARM GAS  C:\Users\IVYLIU~1\AppData\Local\Temp\cc0k2XY8.s 			page 2


  32:.\DSP\Source\BasicMathFunctions/arm_scale_q31.c ****   @ingroup groupMath
  33:.\DSP\Source\BasicMathFunctions/arm_scale_q31.c ****  */
  34:.\DSP\Source\BasicMathFunctions/arm_scale_q31.c **** 
  35:.\DSP\Source\BasicMathFunctions/arm_scale_q31.c **** /**
  36:.\DSP\Source\BasicMathFunctions/arm_scale_q31.c ****   @addtogroup BasicScale
  37:.\DSP\Source\BasicMathFunctions/arm_scale_q31.c ****   @{
  38:.\DSP\Source\BasicMathFunctions/arm_scale_q31.c ****  */
  39:.\DSP\Source\BasicMathFunctions/arm_scale_q31.c **** 
  40:.\DSP\Source\BasicMathFunctions/arm_scale_q31.c **** /**
  41:.\DSP\Source\BasicMathFunctions/arm_scale_q31.c ****   @brief         Multiplies a Q31 vector by a scalar.
  42:.\DSP\Source\BasicMathFunctions/arm_scale_q31.c ****   @param[in]     pSrc       points to the input vector
  43:.\DSP\Source\BasicMathFunctions/arm_scale_q31.c ****   @param[in]     scaleFract fractional portion of the scale value
  44:.\DSP\Source\BasicMathFunctions/arm_scale_q31.c ****   @param[in]     shift      number of bits to shift the result by
  45:.\DSP\Source\BasicMathFunctions/arm_scale_q31.c ****   @param[out]    pDst       points to the output vector
  46:.\DSP\Source\BasicMathFunctions/arm_scale_q31.c ****   @param[in]     blockSize  number of samples in each vector
  47:.\DSP\Source\BasicMathFunctions/arm_scale_q31.c ****   @return        none
  48:.\DSP\Source\BasicMathFunctions/arm_scale_q31.c **** 
  49:.\DSP\Source\BasicMathFunctions/arm_scale_q31.c ****   @par           Scaling and Overflow Behavior
  50:.\DSP\Source\BasicMathFunctions/arm_scale_q31.c ****                    The input data <code>*pSrc</code> and <code>scaleFract</code> are in 1.31 format
  51:.\DSP\Source\BasicMathFunctions/arm_scale_q31.c ****                    These are multiplied to yield a 2.62 intermediate result and this is shifted wit
  52:.\DSP\Source\BasicMathFunctions/arm_scale_q31.c ****  */
  53:.\DSP\Source\BasicMathFunctions/arm_scale_q31.c **** 
  54:.\DSP\Source\BasicMathFunctions/arm_scale_q31.c **** #if defined(ARM_MATH_MVEI) && !defined(ARM_MATH_AUTOVECTORIZE)
  55:.\DSP\Source\BasicMathFunctions/arm_scale_q31.c **** 
  56:.\DSP\Source\BasicMathFunctions/arm_scale_q31.c **** #include "arm_helium_utils.h"
  57:.\DSP\Source\BasicMathFunctions/arm_scale_q31.c **** 
  58:.\DSP\Source\BasicMathFunctions/arm_scale_q31.c **** void arm_scale_q31(
  59:.\DSP\Source\BasicMathFunctions/arm_scale_q31.c ****     const q31_t * pSrc,
  60:.\DSP\Source\BasicMathFunctions/arm_scale_q31.c ****     q31_t   scaleFract,
  61:.\DSP\Source\BasicMathFunctions/arm_scale_q31.c ****     int8_t  shift,
  62:.\DSP\Source\BasicMathFunctions/arm_scale_q31.c ****     q31_t * pDst,
  63:.\DSP\Source\BasicMathFunctions/arm_scale_q31.c ****     uint32_t blockSize)
  64:.\DSP\Source\BasicMathFunctions/arm_scale_q31.c **** {
  65:.\DSP\Source\BasicMathFunctions/arm_scale_q31.c ****     uint32_t  blkCnt;           /* loop counters */
  66:.\DSP\Source\BasicMathFunctions/arm_scale_q31.c ****     q31x4_t vecSrc;
  67:.\DSP\Source\BasicMathFunctions/arm_scale_q31.c ****     q31x4_t vecDst;
  68:.\DSP\Source\BasicMathFunctions/arm_scale_q31.c **** 
  69:.\DSP\Source\BasicMathFunctions/arm_scale_q31.c ****     /* Compute 4 outputs at a time */
  70:.\DSP\Source\BasicMathFunctions/arm_scale_q31.c ****     blkCnt = blockSize >> 2;
  71:.\DSP\Source\BasicMathFunctions/arm_scale_q31.c ****     while (blkCnt > 0U)
  72:.\DSP\Source\BasicMathFunctions/arm_scale_q31.c ****     {
  73:.\DSP\Source\BasicMathFunctions/arm_scale_q31.c ****         /*
  74:.\DSP\Source\BasicMathFunctions/arm_scale_q31.c ****          * C = A * scale
  75:.\DSP\Source\BasicMathFunctions/arm_scale_q31.c ****          * Scale the input and then store the result in the destination buffer.
  76:.\DSP\Source\BasicMathFunctions/arm_scale_q31.c ****          */
  77:.\DSP\Source\BasicMathFunctions/arm_scale_q31.c ****         vecSrc = vld1q(pSrc);
  78:.\DSP\Source\BasicMathFunctions/arm_scale_q31.c ****         vecDst = vmulhq(vecSrc, vdupq_n_s32(scaleFract));
  79:.\DSP\Source\BasicMathFunctions/arm_scale_q31.c ****         vecDst = vqshlq_r(vecDst, shift + 1);
  80:.\DSP\Source\BasicMathFunctions/arm_scale_q31.c ****         vst1q(pDst, vecDst);
  81:.\DSP\Source\BasicMathFunctions/arm_scale_q31.c ****         /*
  82:.\DSP\Source\BasicMathFunctions/arm_scale_q31.c ****          * Decrement the blockSize loop counter
  83:.\DSP\Source\BasicMathFunctions/arm_scale_q31.c ****          */
  84:.\DSP\Source\BasicMathFunctions/arm_scale_q31.c ****         blkCnt--;
  85:.\DSP\Source\BasicMathFunctions/arm_scale_q31.c ****         /*
  86:.\DSP\Source\BasicMathFunctions/arm_scale_q31.c ****          * advance vector source and destination pointers
  87:.\DSP\Source\BasicMathFunctions/arm_scale_q31.c ****          */
  88:.\DSP\Source\BasicMathFunctions/arm_scale_q31.c ****         pSrc += 4;
ARM GAS  C:\Users\IVYLIU~1\AppData\Local\Temp\cc0k2XY8.s 			page 3


  89:.\DSP\Source\BasicMathFunctions/arm_scale_q31.c ****         pDst += 4;
  90:.\DSP\Source\BasicMathFunctions/arm_scale_q31.c ****     }
  91:.\DSP\Source\BasicMathFunctions/arm_scale_q31.c ****     /*
  92:.\DSP\Source\BasicMathFunctions/arm_scale_q31.c ****      * tail
  93:.\DSP\Source\BasicMathFunctions/arm_scale_q31.c ****      */
  94:.\DSP\Source\BasicMathFunctions/arm_scale_q31.c ****     blkCnt = blockSize & 3;
  95:.\DSP\Source\BasicMathFunctions/arm_scale_q31.c ****     if (blkCnt > 0U)
  96:.\DSP\Source\BasicMathFunctions/arm_scale_q31.c ****     {
  97:.\DSP\Source\BasicMathFunctions/arm_scale_q31.c ****         mve_pred16_t p0 = vctp32q(blkCnt);
  98:.\DSP\Source\BasicMathFunctions/arm_scale_q31.c ****         vecSrc = vld1q(pSrc);
  99:.\DSP\Source\BasicMathFunctions/arm_scale_q31.c ****         vecDst = vmulhq(vecSrc, vdupq_n_s32(scaleFract));
 100:.\DSP\Source\BasicMathFunctions/arm_scale_q31.c ****         vecDst = vqshlq_r(vecDst, shift + 1);
 101:.\DSP\Source\BasicMathFunctions/arm_scale_q31.c ****         vstrwq_p(pDst, vecDst, p0);
 102:.\DSP\Source\BasicMathFunctions/arm_scale_q31.c ****     }
 103:.\DSP\Source\BasicMathFunctions/arm_scale_q31.c **** }
 104:.\DSP\Source\BasicMathFunctions/arm_scale_q31.c **** 
 105:.\DSP\Source\BasicMathFunctions/arm_scale_q31.c **** #else
 106:.\DSP\Source\BasicMathFunctions/arm_scale_q31.c **** void arm_scale_q31(
 107:.\DSP\Source\BasicMathFunctions/arm_scale_q31.c ****   const q31_t *pSrc,
 108:.\DSP\Source\BasicMathFunctions/arm_scale_q31.c ****         q31_t scaleFract,
 109:.\DSP\Source\BasicMathFunctions/arm_scale_q31.c ****         int8_t shift,
 110:.\DSP\Source\BasicMathFunctions/arm_scale_q31.c ****         q31_t *pDst,
 111:.\DSP\Source\BasicMathFunctions/arm_scale_q31.c ****         uint32_t blockSize)
 112:.\DSP\Source\BasicMathFunctions/arm_scale_q31.c **** {
  27              		.loc 1 112 0
  28              		.cfi_startproc
  29              		@ args = 4, pretend = 0, frame = 0
  30              		@ frame_needed = 0, uses_anonymous_args = 0
  31              		@ link register save eliminated.
  32              	.LVL0:
  33 0000 2DE9F00F 		push	{r4, r5, r6, r7, r8, r9, r10, fp}
  34              		.cfi_def_cfa_offset 32
  35              		.cfi_offset 4, -32
  36              		.cfi_offset 5, -28
  37              		.cfi_offset 6, -24
  38              		.cfi_offset 7, -20
  39              		.cfi_offset 8, -16
  40              		.cfi_offset 9, -12
  41              		.cfi_offset 10, -8
  42              		.cfi_offset 11, -4
  43 0004 089E     		ldr	r6, [sp, #32]
 113:.\DSP\Source\BasicMathFunctions/arm_scale_q31.c ****         uint32_t blkCnt;                               /* Loop counter */
 114:.\DSP\Source\BasicMathFunctions/arm_scale_q31.c ****         q31_t in, out;                                 /* Temporary variables */
 115:.\DSP\Source\BasicMathFunctions/arm_scale_q31.c ****         int8_t kShift = shift + 1;                     /* Shift to apply after scaling */
  44              		.loc 1 115 0
  45 0006 0132     		adds	r2, r2, #1
  46              	.LVL1:
  47 0008 D2B2     		uxtb	r2, r2
  48              	.LVL2:
 116:.\DSP\Source\BasicMathFunctions/arm_scale_q31.c ****         int8_t sign = (kShift & 0x80);
 117:.\DSP\Source\BasicMathFunctions/arm_scale_q31.c **** 
 118:.\DSP\Source\BasicMathFunctions/arm_scale_q31.c **** #if defined (ARM_MATH_LOOPUNROLL)
 119:.\DSP\Source\BasicMathFunctions/arm_scale_q31.c **** 
 120:.\DSP\Source\BasicMathFunctions/arm_scale_q31.c ****   /* Loop unrolling: Compute 4 outputs at a time */
 121:.\DSP\Source\BasicMathFunctions/arm_scale_q31.c ****   blkCnt = blockSize >> 2U;
 122:.\DSP\Source\BasicMathFunctions/arm_scale_q31.c **** 
 123:.\DSP\Source\BasicMathFunctions/arm_scale_q31.c ****   if (sign == 0U)
ARM GAS  C:\Users\IVYLIU~1\AppData\Local\Temp\cc0k2XY8.s 			page 4


 124:.\DSP\Source\BasicMathFunctions/arm_scale_q31.c ****   {
 125:.\DSP\Source\BasicMathFunctions/arm_scale_q31.c ****     while (blkCnt > 0U)
 126:.\DSP\Source\BasicMathFunctions/arm_scale_q31.c ****     {
 127:.\DSP\Source\BasicMathFunctions/arm_scale_q31.c ****       /* C = A * scale */
 128:.\DSP\Source\BasicMathFunctions/arm_scale_q31.c **** 
 129:.\DSP\Source\BasicMathFunctions/arm_scale_q31.c ****       /* Scale input and store result in destination buffer. */
 130:.\DSP\Source\BasicMathFunctions/arm_scale_q31.c ****       in = *pSrc++;                                /* read input from source */
 131:.\DSP\Source\BasicMathFunctions/arm_scale_q31.c ****       in = ((q63_t) in * scaleFract) >> 32;        /* multiply input with scaler value */
 132:.\DSP\Source\BasicMathFunctions/arm_scale_q31.c ****       out = in << kShift;                          /* apply shifting */
 133:.\DSP\Source\BasicMathFunctions/arm_scale_q31.c ****       if (in != (out >> kShift))                   /* saturate the result */
 134:.\DSP\Source\BasicMathFunctions/arm_scale_q31.c ****         out = 0x7FFFFFFF ^ (in >> 31);
 135:.\DSP\Source\BasicMathFunctions/arm_scale_q31.c ****       *pDst++ = out;                               /* Store result destination */
 136:.\DSP\Source\BasicMathFunctions/arm_scale_q31.c **** 
 137:.\DSP\Source\BasicMathFunctions/arm_scale_q31.c ****       in = *pSrc++;
 138:.\DSP\Source\BasicMathFunctions/arm_scale_q31.c ****       in = ((q63_t) in * scaleFract) >> 32;
 139:.\DSP\Source\BasicMathFunctions/arm_scale_q31.c ****       out = in << kShift;
 140:.\DSP\Source\BasicMathFunctions/arm_scale_q31.c ****       if (in != (out >> kShift))
 141:.\DSP\Source\BasicMathFunctions/arm_scale_q31.c ****         out = 0x7FFFFFFF ^ (in >> 31);
 142:.\DSP\Source\BasicMathFunctions/arm_scale_q31.c ****       *pDst++ = out;
 143:.\DSP\Source\BasicMathFunctions/arm_scale_q31.c **** 
 144:.\DSP\Source\BasicMathFunctions/arm_scale_q31.c ****       in = *pSrc++;
 145:.\DSP\Source\BasicMathFunctions/arm_scale_q31.c ****       in = ((q63_t) in * scaleFract) >> 32;
 146:.\DSP\Source\BasicMathFunctions/arm_scale_q31.c ****       out = in << kShift;
 147:.\DSP\Source\BasicMathFunctions/arm_scale_q31.c ****       if (in != (out >> kShift))
 148:.\DSP\Source\BasicMathFunctions/arm_scale_q31.c ****         out = 0x7FFFFFFF ^ (in >> 31);
 149:.\DSP\Source\BasicMathFunctions/arm_scale_q31.c ****       *pDst++ = out;
 150:.\DSP\Source\BasicMathFunctions/arm_scale_q31.c **** 
 151:.\DSP\Source\BasicMathFunctions/arm_scale_q31.c ****       in = *pSrc++;
 152:.\DSP\Source\BasicMathFunctions/arm_scale_q31.c ****       in = ((q63_t) in * scaleFract) >> 32;
 153:.\DSP\Source\BasicMathFunctions/arm_scale_q31.c ****       out = in << kShift;
 154:.\DSP\Source\BasicMathFunctions/arm_scale_q31.c ****       if (in != (out >> kShift))
 155:.\DSP\Source\BasicMathFunctions/arm_scale_q31.c ****         out = 0x7FFFFFFF ^ (in >> 31);
 156:.\DSP\Source\BasicMathFunctions/arm_scale_q31.c ****       *pDst++ = out;
 157:.\DSP\Source\BasicMathFunctions/arm_scale_q31.c **** 
 158:.\DSP\Source\BasicMathFunctions/arm_scale_q31.c ****       /* Decrement loop counter */
 159:.\DSP\Source\BasicMathFunctions/arm_scale_q31.c ****       blkCnt--;
 160:.\DSP\Source\BasicMathFunctions/arm_scale_q31.c ****     }
 161:.\DSP\Source\BasicMathFunctions/arm_scale_q31.c ****   }
 162:.\DSP\Source\BasicMathFunctions/arm_scale_q31.c ****   else
 163:.\DSP\Source\BasicMathFunctions/arm_scale_q31.c ****   {
 164:.\DSP\Source\BasicMathFunctions/arm_scale_q31.c ****     while (blkCnt > 0U)
 165:.\DSP\Source\BasicMathFunctions/arm_scale_q31.c ****     {
 166:.\DSP\Source\BasicMathFunctions/arm_scale_q31.c ****       /* C = A * scale */
 167:.\DSP\Source\BasicMathFunctions/arm_scale_q31.c **** 
 168:.\DSP\Source\BasicMathFunctions/arm_scale_q31.c ****       /* Scale input and store result in destination buffer. */
 169:.\DSP\Source\BasicMathFunctions/arm_scale_q31.c ****       in = *pSrc++;                                /* read four inputs from source */
 170:.\DSP\Source\BasicMathFunctions/arm_scale_q31.c ****       in = ((q63_t) in * scaleFract) >> 32;        /* multiply input with scaler value */
 171:.\DSP\Source\BasicMathFunctions/arm_scale_q31.c ****       out = in >> -kShift;                         /* apply shifting */
 172:.\DSP\Source\BasicMathFunctions/arm_scale_q31.c ****       *pDst++ = out;                               /* Store result destination */
 173:.\DSP\Source\BasicMathFunctions/arm_scale_q31.c **** 
 174:.\DSP\Source\BasicMathFunctions/arm_scale_q31.c ****       in = *pSrc++;
 175:.\DSP\Source\BasicMathFunctions/arm_scale_q31.c ****       in = ((q63_t) in * scaleFract) >> 32;
 176:.\DSP\Source\BasicMathFunctions/arm_scale_q31.c ****       out = in >> -kShift;
 177:.\DSP\Source\BasicMathFunctions/arm_scale_q31.c ****       *pDst++ = out;
 178:.\DSP\Source\BasicMathFunctions/arm_scale_q31.c **** 
 179:.\DSP\Source\BasicMathFunctions/arm_scale_q31.c ****       in = *pSrc++;
 180:.\DSP\Source\BasicMathFunctions/arm_scale_q31.c ****       in = ((q63_t) in * scaleFract) >> 32;
ARM GAS  C:\Users\IVYLIU~1\AppData\Local\Temp\cc0k2XY8.s 			page 5


 181:.\DSP\Source\BasicMathFunctions/arm_scale_q31.c ****       out = in >> -kShift;
 182:.\DSP\Source\BasicMathFunctions/arm_scale_q31.c ****       *pDst++ = out;
 183:.\DSP\Source\BasicMathFunctions/arm_scale_q31.c **** 
 184:.\DSP\Source\BasicMathFunctions/arm_scale_q31.c ****       in = *pSrc++;
 185:.\DSP\Source\BasicMathFunctions/arm_scale_q31.c ****       in = ((q63_t) in * scaleFract) >> 32;
 186:.\DSP\Source\BasicMathFunctions/arm_scale_q31.c ****       out = in >> -kShift;
 187:.\DSP\Source\BasicMathFunctions/arm_scale_q31.c ****       *pDst++ = out;
 188:.\DSP\Source\BasicMathFunctions/arm_scale_q31.c **** 
 189:.\DSP\Source\BasicMathFunctions/arm_scale_q31.c ****       /* Decrement loop counter */
 190:.\DSP\Source\BasicMathFunctions/arm_scale_q31.c ****       blkCnt--;
 191:.\DSP\Source\BasicMathFunctions/arm_scale_q31.c ****     }
 192:.\DSP\Source\BasicMathFunctions/arm_scale_q31.c ****   }
 193:.\DSP\Source\BasicMathFunctions/arm_scale_q31.c **** 
 194:.\DSP\Source\BasicMathFunctions/arm_scale_q31.c ****   /* Loop unrolling: Compute remaining outputs */
 195:.\DSP\Source\BasicMathFunctions/arm_scale_q31.c ****   blkCnt = blockSize % 0x4U;
 196:.\DSP\Source\BasicMathFunctions/arm_scale_q31.c **** 
 197:.\DSP\Source\BasicMathFunctions/arm_scale_q31.c **** #else
 198:.\DSP\Source\BasicMathFunctions/arm_scale_q31.c **** 
 199:.\DSP\Source\BasicMathFunctions/arm_scale_q31.c ****   /* Initialize blkCnt with number of samples */
 200:.\DSP\Source\BasicMathFunctions/arm_scale_q31.c ****   blkCnt = blockSize;
 201:.\DSP\Source\BasicMathFunctions/arm_scale_q31.c **** 
 202:.\DSP\Source\BasicMathFunctions/arm_scale_q31.c **** #endif /* #if defined (ARM_MATH_LOOPUNROLL) */
 203:.\DSP\Source\BasicMathFunctions/arm_scale_q31.c **** 
 204:.\DSP\Source\BasicMathFunctions/arm_scale_q31.c ****   if (sign == 0U)
  49              		.loc 1 204 0
  50 000a 12F0800F 		tst	r2, #128
  51 000e 1CD0     		beq	.L2
  52 0010 30E0     		b	.L3
  53              	.L5:
 205:.\DSP\Source\BasicMathFunctions/arm_scale_q31.c ****   {
 206:.\DSP\Source\BasicMathFunctions/arm_scale_q31.c ****     while (blkCnt > 0U)
 207:.\DSP\Source\BasicMathFunctions/arm_scale_q31.c ****     {
 208:.\DSP\Source\BasicMathFunctions/arm_scale_q31.c ****       /* C = A * scale */
 209:.\DSP\Source\BasicMathFunctions/arm_scale_q31.c **** 
 210:.\DSP\Source\BasicMathFunctions/arm_scale_q31.c ****       /* Scale input and store result in destination buffer. */
 211:.\DSP\Source\BasicMathFunctions/arm_scale_q31.c ****       in = *pSrc++;
  54              		.loc 1 211 0
  55 0012 071D     		adds	r7, r0, #4
  56              	.LVL3:
  57 0014 0468     		ldr	r4, [r0]
  58              	.LVL4:
 212:.\DSP\Source\BasicMathFunctions/arm_scale_q31.c ****       in = ((q63_t) in * scaleFract) >> 32;
  59              		.loc 1 212 0
  60 0016 4FEAE479 		asr	r9, r4, #31
  61 001a 4FEAE17B 		asr	fp, r1, #31
  62 001e 04FB0BF0 		mul	r0, r4, fp
  63 0022 A4FB0145 		umull	r4, r5, r4, r1
  64              	.LVL5:
  65 0026 01FB0900 		mla	r0, r1, r9, r0
  66 002a 2844     		add	r0, r0, r5
  67              	.LVL6:
 213:.\DSP\Source\BasicMathFunctions/arm_scale_q31.c ****       out = in << kShift;
  68              		.loc 1 213 0
  69 002c 55B2     		sxtb	r5, r2
  70 002e 00FA05F4 		lsl	r4, r0, r5
  71              	.LVL7:
 214:.\DSP\Source\BasicMathFunctions/arm_scale_q31.c ****       if (in != (out >> kShift))
ARM GAS  C:\Users\IVYLIU~1\AppData\Local\Temp\cc0k2XY8.s 			page 6


  72              		.loc 1 214 0
  73 0032 44FA05F5 		asr	r5, r4, r5
  74 0036 8542     		cmp	r5, r0
  75 0038 03D0     		beq	.L4
 215:.\DSP\Source\BasicMathFunctions/arm_scale_q31.c ****           out = 0x7FFFFFFF ^ (in >> 31);
  76              		.loc 1 215 0
  77 003a 6FF00044 		mvn	r4, #-2147483648
  78              	.LVL8:
  79 003e 84EAE074 		eor	r4, r4, r0, asr #31
  80              	.LVL9:
  81              	.L4:
 216:.\DSP\Source\BasicMathFunctions/arm_scale_q31.c ****       *pDst++ = out;
  82              		.loc 1 216 0
  83 0042 1C60     		str	r4, [r3]
 217:.\DSP\Source\BasicMathFunctions/arm_scale_q31.c **** 
 218:.\DSP\Source\BasicMathFunctions/arm_scale_q31.c ****       /* Decrement loop counter */
 219:.\DSP\Source\BasicMathFunctions/arm_scale_q31.c ****       blkCnt--;
  84              		.loc 1 219 0
  85 0044 013E     		subs	r6, r6, #1
  86              	.LVL10:
 216:.\DSP\Source\BasicMathFunctions/arm_scale_q31.c ****       *pDst++ = out;
  87              		.loc 1 216 0
  88 0046 0433     		adds	r3, r3, #4
  89              	.LVL11:
 211:.\DSP\Source\BasicMathFunctions/arm_scale_q31.c ****       in = ((q63_t) in * scaleFract) >> 32;
  90              		.loc 1 211 0
  91 0048 3846     		mov	r0, r7
  92              	.LVL12:
  93              	.L2:
 206:.\DSP\Source\BasicMathFunctions/arm_scale_q31.c ****     {
  94              		.loc 1 206 0
  95 004a 002E     		cmp	r6, #0
  96 004c E1D1     		bne	.L5
  97 004e 13E0     		b	.L1
  98              	.L7:
  99              	.LVL13:
 220:.\DSP\Source\BasicMathFunctions/arm_scale_q31.c ****     }
 221:.\DSP\Source\BasicMathFunctions/arm_scale_q31.c ****   }
 222:.\DSP\Source\BasicMathFunctions/arm_scale_q31.c ****   else
 223:.\DSP\Source\BasicMathFunctions/arm_scale_q31.c ****   {
 224:.\DSP\Source\BasicMathFunctions/arm_scale_q31.c ****     while (blkCnt > 0U)
 225:.\DSP\Source\BasicMathFunctions/arm_scale_q31.c ****     {
 226:.\DSP\Source\BasicMathFunctions/arm_scale_q31.c ****       /* C = A * scale */
 227:.\DSP\Source\BasicMathFunctions/arm_scale_q31.c **** 
 228:.\DSP\Source\BasicMathFunctions/arm_scale_q31.c ****       /* Scale input and store result in destination buffer. */
 229:.\DSP\Source\BasicMathFunctions/arm_scale_q31.c ****       in = *pSrc++;
 100              		.loc 1 229 0
 101 0050 0768     		ldr	r7, [r0]
 102              	.LVL14:
 230:.\DSP\Source\BasicMathFunctions/arm_scale_q31.c ****       in = ((q63_t) in * scaleFract) >> 32;
 103              		.loc 1 230 0
 104 0052 4FEAE77B 		asr	fp, r7, #31
 105 0056 CD17     		asrs	r5, r1, #31
 106 0058 07FB05F4 		mul	r4, r7, r5
 107 005c A7FB0189 		umull	r8, r9, r7, r1
 108 0060 01FB0B44 		mla	r4, r1, fp, r4
 109 0064 4C44     		add	r4, r4, r9
ARM GAS  C:\Users\IVYLIU~1\AppData\Local\Temp\cc0k2XY8.s 			page 7


 110              	.LVL15:
 231:.\DSP\Source\BasicMathFunctions/arm_scale_q31.c ****       out = in >> -kShift;
 111              		.loc 1 231 0
 112 0066 55B2     		sxtb	r5, r2
 113 0068 6D42     		negs	r5, r5
 114 006a 2C41     		asrs	r4, r4, r5
 115              	.LVL16:
 232:.\DSP\Source\BasicMathFunctions/arm_scale_q31.c ****       *pDst++ = out;
 116              		.loc 1 232 0
 117 006c 1C60     		str	r4, [r3]
 233:.\DSP\Source\BasicMathFunctions/arm_scale_q31.c **** 
 234:.\DSP\Source\BasicMathFunctions/arm_scale_q31.c ****       /* Decrement loop counter */
 235:.\DSP\Source\BasicMathFunctions/arm_scale_q31.c ****       blkCnt--;
 118              		.loc 1 235 0
 119 006e 013E     		subs	r6, r6, #1
 120              	.LVL17:
 232:.\DSP\Source\BasicMathFunctions/arm_scale_q31.c ****       *pDst++ = out;
 121              		.loc 1 232 0
 122 0070 0433     		adds	r3, r3, #4
 123              	.LVL18:
 229:.\DSP\Source\BasicMathFunctions/arm_scale_q31.c ****       in = ((q63_t) in * scaleFract) >> 32;
 124              		.loc 1 229 0
 125 0072 0430     		adds	r0, r0, #4
 126              	.LVL19:
 127              	.L3:
 224:.\DSP\Source\BasicMathFunctions/arm_scale_q31.c ****     {
 128              		.loc 1 224 0
 129 0074 002E     		cmp	r6, #0
 130 0076 EBD1     		bne	.L7
 131              	.L1:
 236:.\DSP\Source\BasicMathFunctions/arm_scale_q31.c ****     }
 237:.\DSP\Source\BasicMathFunctions/arm_scale_q31.c ****   }
 238:.\DSP\Source\BasicMathFunctions/arm_scale_q31.c **** 
 239:.\DSP\Source\BasicMathFunctions/arm_scale_q31.c **** }
 132              		.loc 1 239 0
 133 0078 BDE8F00F 		pop	{r4, r5, r6, r7, r8, r9, r10, fp}
 134              		.cfi_restore 11
 135              		.cfi_restore 10
 136              		.cfi_restore 9
 137              		.cfi_restore 8
 138              		.cfi_restore 7
 139              		.cfi_restore 6
 140              		.cfi_restore 5
 141              		.cfi_restore 4
 142              		.cfi_def_cfa_offset 0
 143              	.LVL20:
 144 007c 7047     		bx	lr
 145              		.cfi_endproc
 146              	.LFE83:
 147              		.size	arm_scale_q31, .-arm_scale_q31
 148 007e 00BF     		.text
 149              	.Letext0:
 150              		.file 2 "c:\\program files (x86)\\cypress\\psoc creator\\3.3\\psoc creator\\import\\gnu\\arm\\4.9.
 151              		.file 3 "c:\\program files (x86)\\cypress\\psoc creator\\3.3\\psoc creator\\import\\gnu\\arm\\4.9.
 152              		.file 4 ".\\DSP\\Include/arm_math_types.h"
 153              		.file 5 ".\\Core\\Include/cmsis_gcc.h"