ARM GAS  C:\Users\IVYLIU~1\AppData\Local\Temp\ccnKQgQF.s 			page 1


   1              		.syntax unified
   2              		.cpu cortex-m3
   3              		.fpu softvfp
   4              		.eabi_attribute 20, 1
   5              		.eabi_attribute 21, 1
   6              		.eabi_attribute 23, 3
   7              		.eabi_attribute 24, 1
   8              		.eabi_attribute 25, 1
   9              		.eabi_attribute 26, 1
  10              		.eabi_attribute 30, 1
  11              		.eabi_attribute 34, 1
  12              		.eabi_attribute 18, 4
  13              		.thumb
  14              		.file	"arm_cfft_q31.c"
  15              		.text
  16              	.Ltext0:
  17              		.cfi_sections	.debug_frame
  18              		.section	.text.arm_cfft_radix4by2_q31,"ax",%progbits
  19              		.align	2
  20              		.global	arm_cfft_radix4by2_q31
  21              		.thumb
  22              		.thumb_func
  23              		.type	arm_cfft_radix4by2_q31, %function
  24              	arm_cfft_radix4by2_q31:
  25              	.LFB85:
  26              		.file 1 ".\\DSP\\Source\\TransformFunctions\\arm_cfft_q31.c"
   1:.\DSP\Source\TransformFunctions/arm_cfft_q31.c **** /* ----------------------------------------------------------------------
   2:.\DSP\Source\TransformFunctions/arm_cfft_q31.c ****  * Project:      CMSIS DSP Library
   3:.\DSP\Source\TransformFunctions/arm_cfft_q31.c ****  * Title:        arm_cfft_q31.c
   4:.\DSP\Source\TransformFunctions/arm_cfft_q31.c ****  * Description:  Combined Radix Decimation in Frequency CFFT fixed point processing function
   5:.\DSP\Source\TransformFunctions/arm_cfft_q31.c ****  *
   6:.\DSP\Source\TransformFunctions/arm_cfft_q31.c ****  * $Date:        23 April 2021
   7:.\DSP\Source\TransformFunctions/arm_cfft_q31.c ****  * $Revision:    V1.9.0
   8:.\DSP\Source\TransformFunctions/arm_cfft_q31.c ****  *
   9:.\DSP\Source\TransformFunctions/arm_cfft_q31.c ****  * Target Processor: Cortex-M and Cortex-A cores
  10:.\DSP\Source\TransformFunctions/arm_cfft_q31.c ****  * -------------------------------------------------------------------- */
  11:.\DSP\Source\TransformFunctions/arm_cfft_q31.c **** /*
  12:.\DSP\Source\TransformFunctions/arm_cfft_q31.c ****  * Copyright (C) 2010-2021 ARM Limited or its affiliates. All rights reserved.
  13:.\DSP\Source\TransformFunctions/arm_cfft_q31.c ****  *
  14:.\DSP\Source\TransformFunctions/arm_cfft_q31.c ****  * SPDX-License-Identifier: Apache-2.0
  15:.\DSP\Source\TransformFunctions/arm_cfft_q31.c ****  *
  16:.\DSP\Source\TransformFunctions/arm_cfft_q31.c ****  * Licensed under the Apache License, Version 2.0 (the License); you may
  17:.\DSP\Source\TransformFunctions/arm_cfft_q31.c ****  * not use this file except in compliance with the License.
  18:.\DSP\Source\TransformFunctions/arm_cfft_q31.c ****  * You may obtain a copy of the License at
  19:.\DSP\Source\TransformFunctions/arm_cfft_q31.c ****  *
  20:.\DSP\Source\TransformFunctions/arm_cfft_q31.c ****  * www.apache.org/licenses/LICENSE-2.0
  21:.\DSP\Source\TransformFunctions/arm_cfft_q31.c ****  *
  22:.\DSP\Source\TransformFunctions/arm_cfft_q31.c ****  * Unless required by applicable law or agreed to in writing, software
  23:.\DSP\Source\TransformFunctions/arm_cfft_q31.c ****  * distributed under the License is distributed on an AS IS BASIS, WITHOUT
  24:.\DSP\Source\TransformFunctions/arm_cfft_q31.c ****  * WARRANTIES OR CONDITIONS OF ANY KIND, either express or implied.
  25:.\DSP\Source\TransformFunctions/arm_cfft_q31.c ****  * See the License for the specific language governing permissions and
  26:.\DSP\Source\TransformFunctions/arm_cfft_q31.c ****  * limitations under the License.
  27:.\DSP\Source\TransformFunctions/arm_cfft_q31.c ****  */
  28:.\DSP\Source\TransformFunctions/arm_cfft_q31.c **** 
  29:.\DSP\Source\TransformFunctions/arm_cfft_q31.c **** #include "dsp/transform_functions.h"
  30:.\DSP\Source\TransformFunctions/arm_cfft_q31.c **** 
  31:.\DSP\Source\TransformFunctions/arm_cfft_q31.c **** 
ARM GAS  C:\Users\IVYLIU~1\AppData\Local\Temp\ccnKQgQF.s 			page 2


  32:.\DSP\Source\TransformFunctions/arm_cfft_q31.c **** 
  33:.\DSP\Source\TransformFunctions/arm_cfft_q31.c **** #if defined(ARM_MATH_MVEI) && !defined(ARM_MATH_AUTOVECTORIZE)
  34:.\DSP\Source\TransformFunctions/arm_cfft_q31.c **** 
  35:.\DSP\Source\TransformFunctions/arm_cfft_q31.c **** #include "arm_vec_fft.h"
  36:.\DSP\Source\TransformFunctions/arm_cfft_q31.c **** 
  37:.\DSP\Source\TransformFunctions/arm_cfft_q31.c **** 
  38:.\DSP\Source\TransformFunctions/arm_cfft_q31.c **** static void _arm_radix4_butterfly_q31_mve(
  39:.\DSP\Source\TransformFunctions/arm_cfft_q31.c ****     const arm_cfft_instance_q31 * S,
  40:.\DSP\Source\TransformFunctions/arm_cfft_q31.c ****     q31_t   *pSrc,
  41:.\DSP\Source\TransformFunctions/arm_cfft_q31.c ****     uint32_t fftLen)
  42:.\DSP\Source\TransformFunctions/arm_cfft_q31.c **** {
  43:.\DSP\Source\TransformFunctions/arm_cfft_q31.c ****     q31x4_t vecTmp0, vecTmp1;
  44:.\DSP\Source\TransformFunctions/arm_cfft_q31.c ****     q31x4_t vecSum0, vecDiff0, vecSum1, vecDiff1;
  45:.\DSP\Source\TransformFunctions/arm_cfft_q31.c ****     q31x4_t vecA, vecB, vecC, vecD;
  46:.\DSP\Source\TransformFunctions/arm_cfft_q31.c ****     uint32_t  blkCnt;
  47:.\DSP\Source\TransformFunctions/arm_cfft_q31.c ****     uint32_t  n1, n2;
  48:.\DSP\Source\TransformFunctions/arm_cfft_q31.c ****     uint32_t  stage = 0;
  49:.\DSP\Source\TransformFunctions/arm_cfft_q31.c ****     int32_t  iter = 1;
  50:.\DSP\Source\TransformFunctions/arm_cfft_q31.c ****     static const int32_t strides[4] = {
  51:.\DSP\Source\TransformFunctions/arm_cfft_q31.c ****         (0 - 16) * (int32_t)sizeof(q31_t *), (1 - 16) * (int32_t)sizeof(q31_t *),
  52:.\DSP\Source\TransformFunctions/arm_cfft_q31.c ****         (8 - 16) * (int32_t)sizeof(q31_t *), (9 - 16) * (int32_t)sizeof(q31_t *)
  53:.\DSP\Source\TransformFunctions/arm_cfft_q31.c ****     };
  54:.\DSP\Source\TransformFunctions/arm_cfft_q31.c **** 
  55:.\DSP\Source\TransformFunctions/arm_cfft_q31.c **** 
  56:.\DSP\Source\TransformFunctions/arm_cfft_q31.c ****     /*
  57:.\DSP\Source\TransformFunctions/arm_cfft_q31.c ****      * Process first stages
  58:.\DSP\Source\TransformFunctions/arm_cfft_q31.c ****      * Each stage in middle stages provides two down scaling of the input
  59:.\DSP\Source\TransformFunctions/arm_cfft_q31.c ****      */
  60:.\DSP\Source\TransformFunctions/arm_cfft_q31.c ****     n2 = fftLen;
  61:.\DSP\Source\TransformFunctions/arm_cfft_q31.c ****     n1 = n2;
  62:.\DSP\Source\TransformFunctions/arm_cfft_q31.c ****     n2 >>= 2u;
  63:.\DSP\Source\TransformFunctions/arm_cfft_q31.c **** 
  64:.\DSP\Source\TransformFunctions/arm_cfft_q31.c ****     for (int k = fftLen / 4u; k > 1; k >>= 2u)
  65:.\DSP\Source\TransformFunctions/arm_cfft_q31.c ****     {
  66:.\DSP\Source\TransformFunctions/arm_cfft_q31.c ****         q31_t const *p_rearranged_twiddle_tab_stride2 =
  67:.\DSP\Source\TransformFunctions/arm_cfft_q31.c ****             &S->rearranged_twiddle_stride2[
  68:.\DSP\Source\TransformFunctions/arm_cfft_q31.c ****             S->rearranged_twiddle_tab_stride2_arr[stage]];
  69:.\DSP\Source\TransformFunctions/arm_cfft_q31.c ****         q31_t const *p_rearranged_twiddle_tab_stride3 = &S->rearranged_twiddle_stride3[
  70:.\DSP\Source\TransformFunctions/arm_cfft_q31.c ****             S->rearranged_twiddle_tab_stride3_arr[stage]];
  71:.\DSP\Source\TransformFunctions/arm_cfft_q31.c ****         q31_t const *p_rearranged_twiddle_tab_stride1 =
  72:.\DSP\Source\TransformFunctions/arm_cfft_q31.c ****             &S->rearranged_twiddle_stride1[
  73:.\DSP\Source\TransformFunctions/arm_cfft_q31.c ****             S->rearranged_twiddle_tab_stride1_arr[stage]];
  74:.\DSP\Source\TransformFunctions/arm_cfft_q31.c **** 
  75:.\DSP\Source\TransformFunctions/arm_cfft_q31.c ****         q31_t * pBase = pSrc;
  76:.\DSP\Source\TransformFunctions/arm_cfft_q31.c ****         for (int i = 0; i < iter; i++)
  77:.\DSP\Source\TransformFunctions/arm_cfft_q31.c ****         {
  78:.\DSP\Source\TransformFunctions/arm_cfft_q31.c ****             q31_t    *inA = pBase;
  79:.\DSP\Source\TransformFunctions/arm_cfft_q31.c ****             q31_t    *inB = inA + n2 * CMPLX_DIM;
  80:.\DSP\Source\TransformFunctions/arm_cfft_q31.c ****             q31_t    *inC = inB + n2 * CMPLX_DIM;
  81:.\DSP\Source\TransformFunctions/arm_cfft_q31.c ****             q31_t    *inD = inC + n2 * CMPLX_DIM;
  82:.\DSP\Source\TransformFunctions/arm_cfft_q31.c ****             q31_t const *pW1 = p_rearranged_twiddle_tab_stride1;
  83:.\DSP\Source\TransformFunctions/arm_cfft_q31.c ****             q31_t const *pW2 = p_rearranged_twiddle_tab_stride2;
  84:.\DSP\Source\TransformFunctions/arm_cfft_q31.c ****             q31_t const *pW3 = p_rearranged_twiddle_tab_stride3;
  85:.\DSP\Source\TransformFunctions/arm_cfft_q31.c ****             q31x4_t    vecW;
  86:.\DSP\Source\TransformFunctions/arm_cfft_q31.c **** 
  87:.\DSP\Source\TransformFunctions/arm_cfft_q31.c **** 
  88:.\DSP\Source\TransformFunctions/arm_cfft_q31.c ****             blkCnt = n2 / 2;
ARM GAS  C:\Users\IVYLIU~1\AppData\Local\Temp\ccnKQgQF.s 			page 3


  89:.\DSP\Source\TransformFunctions/arm_cfft_q31.c ****             /*
  90:.\DSP\Source\TransformFunctions/arm_cfft_q31.c ****              * load 2 x q31 complex pair
  91:.\DSP\Source\TransformFunctions/arm_cfft_q31.c ****              */
  92:.\DSP\Source\TransformFunctions/arm_cfft_q31.c ****             vecA = vldrwq_s32(inA);
  93:.\DSP\Source\TransformFunctions/arm_cfft_q31.c ****             vecC = vldrwq_s32(inC);
  94:.\DSP\Source\TransformFunctions/arm_cfft_q31.c ****             while (blkCnt > 0U)
  95:.\DSP\Source\TransformFunctions/arm_cfft_q31.c ****             {
  96:.\DSP\Source\TransformFunctions/arm_cfft_q31.c ****                 vecB = vldrwq_s32(inB);
  97:.\DSP\Source\TransformFunctions/arm_cfft_q31.c ****                 vecD = vldrwq_s32(inD);
  98:.\DSP\Source\TransformFunctions/arm_cfft_q31.c **** 
  99:.\DSP\Source\TransformFunctions/arm_cfft_q31.c ****                 vecSum0 = vhaddq(vecA, vecC);
 100:.\DSP\Source\TransformFunctions/arm_cfft_q31.c ****                 vecDiff0 = vhsubq(vecA, vecC);
 101:.\DSP\Source\TransformFunctions/arm_cfft_q31.c **** 
 102:.\DSP\Source\TransformFunctions/arm_cfft_q31.c ****                 vecSum1 = vhaddq(vecB, vecD);
 103:.\DSP\Source\TransformFunctions/arm_cfft_q31.c ****                 vecDiff1 = vhsubq(vecB, vecD);
 104:.\DSP\Source\TransformFunctions/arm_cfft_q31.c ****                 /*
 105:.\DSP\Source\TransformFunctions/arm_cfft_q31.c ****                  * [ 1 1 1 1 ] * [ A B C D ]' .* 1
 106:.\DSP\Source\TransformFunctions/arm_cfft_q31.c ****                  */
 107:.\DSP\Source\TransformFunctions/arm_cfft_q31.c ****                 vecTmp0 = vhaddq(vecSum0, vecSum1);
 108:.\DSP\Source\TransformFunctions/arm_cfft_q31.c ****                 vst1q(inA, vecTmp0);
 109:.\DSP\Source\TransformFunctions/arm_cfft_q31.c ****                 inA += 4;
 110:.\DSP\Source\TransformFunctions/arm_cfft_q31.c ****                 /*
 111:.\DSP\Source\TransformFunctions/arm_cfft_q31.c ****                  * [ 1 -1 1 -1 ] * [ A B C D ]'
 112:.\DSP\Source\TransformFunctions/arm_cfft_q31.c ****                  */
 113:.\DSP\Source\TransformFunctions/arm_cfft_q31.c ****                 vecTmp0 = vhsubq(vecSum0, vecSum1);
 114:.\DSP\Source\TransformFunctions/arm_cfft_q31.c ****                 /*
 115:.\DSP\Source\TransformFunctions/arm_cfft_q31.c ****                  * [ 1 -1 1 -1 ] * [ A B C D ]'.* W2
 116:.\DSP\Source\TransformFunctions/arm_cfft_q31.c ****                  */
 117:.\DSP\Source\TransformFunctions/arm_cfft_q31.c ****                 vecW = vld1q(pW2);
 118:.\DSP\Source\TransformFunctions/arm_cfft_q31.c ****                 pW2 += 4;
 119:.\DSP\Source\TransformFunctions/arm_cfft_q31.c ****                 vecTmp1 = MVE_CMPLX_MULT_FX_AxB(vecW, vecTmp0, q31x4_t);
 120:.\DSP\Source\TransformFunctions/arm_cfft_q31.c **** 
 121:.\DSP\Source\TransformFunctions/arm_cfft_q31.c ****                 vst1q(inB, vecTmp1);
 122:.\DSP\Source\TransformFunctions/arm_cfft_q31.c ****                 inB += 4;
 123:.\DSP\Source\TransformFunctions/arm_cfft_q31.c ****                 /*
 124:.\DSP\Source\TransformFunctions/arm_cfft_q31.c ****                  * [ 1 -i -1 +i ] * [ A B C D ]'
 125:.\DSP\Source\TransformFunctions/arm_cfft_q31.c ****                  */
 126:.\DSP\Source\TransformFunctions/arm_cfft_q31.c ****                 vecTmp0 = MVE_CMPLX_SUB_FX_A_ixB(vecDiff0, vecDiff1);
 127:.\DSP\Source\TransformFunctions/arm_cfft_q31.c ****                 /*
 128:.\DSP\Source\TransformFunctions/arm_cfft_q31.c ****                  * [ 1 -i -1 +i ] * [ A B C D ]'.* W1
 129:.\DSP\Source\TransformFunctions/arm_cfft_q31.c ****                  */
 130:.\DSP\Source\TransformFunctions/arm_cfft_q31.c ****                 vecW = vld1q(pW1);
 131:.\DSP\Source\TransformFunctions/arm_cfft_q31.c ****                 pW1 += 4;
 132:.\DSP\Source\TransformFunctions/arm_cfft_q31.c ****                 vecTmp1 = MVE_CMPLX_MULT_FX_AxB(vecW, vecTmp0, q31x4_t);
 133:.\DSP\Source\TransformFunctions/arm_cfft_q31.c ****                 vst1q(inC, vecTmp1);
 134:.\DSP\Source\TransformFunctions/arm_cfft_q31.c ****                 inC += 4;
 135:.\DSP\Source\TransformFunctions/arm_cfft_q31.c ****                 /*
 136:.\DSP\Source\TransformFunctions/arm_cfft_q31.c ****                  * [ 1 +i -1 -i ] * [ A B C D ]'
 137:.\DSP\Source\TransformFunctions/arm_cfft_q31.c ****                  */
 138:.\DSP\Source\TransformFunctions/arm_cfft_q31.c ****                 vecTmp0 = MVE_CMPLX_ADD_FX_A_ixB(vecDiff0, vecDiff1);
 139:.\DSP\Source\TransformFunctions/arm_cfft_q31.c ****                 /*
 140:.\DSP\Source\TransformFunctions/arm_cfft_q31.c ****                  * [ 1 +i -1 -i ] * [ A B C D ]'.* W3
 141:.\DSP\Source\TransformFunctions/arm_cfft_q31.c ****                  */
 142:.\DSP\Source\TransformFunctions/arm_cfft_q31.c ****                 vecW = vld1q(pW3);
 143:.\DSP\Source\TransformFunctions/arm_cfft_q31.c ****                 pW3 += 4;
 144:.\DSP\Source\TransformFunctions/arm_cfft_q31.c ****                 vecTmp1 = MVE_CMPLX_MULT_FX_AxB(vecW, vecTmp0, q31x4_t);
 145:.\DSP\Source\TransformFunctions/arm_cfft_q31.c ****                 vst1q(inD, vecTmp1);
ARM GAS  C:\Users\IVYLIU~1\AppData\Local\Temp\ccnKQgQF.s 			page 4


 146:.\DSP\Source\TransformFunctions/arm_cfft_q31.c ****                 inD += 4;
 147:.\DSP\Source\TransformFunctions/arm_cfft_q31.c **** 
 148:.\DSP\Source\TransformFunctions/arm_cfft_q31.c ****                 vecA = vldrwq_s32(inA);
 149:.\DSP\Source\TransformFunctions/arm_cfft_q31.c ****                 vecC = vldrwq_s32(inC);
 150:.\DSP\Source\TransformFunctions/arm_cfft_q31.c **** 
 151:.\DSP\Source\TransformFunctions/arm_cfft_q31.c ****                 blkCnt--;
 152:.\DSP\Source\TransformFunctions/arm_cfft_q31.c ****             }
 153:.\DSP\Source\TransformFunctions/arm_cfft_q31.c ****             pBase +=  CMPLX_DIM * n1;
 154:.\DSP\Source\TransformFunctions/arm_cfft_q31.c ****         }
 155:.\DSP\Source\TransformFunctions/arm_cfft_q31.c ****         n1 = n2;
 156:.\DSP\Source\TransformFunctions/arm_cfft_q31.c ****         n2 >>= 2u;
 157:.\DSP\Source\TransformFunctions/arm_cfft_q31.c ****         iter = iter << 2;
 158:.\DSP\Source\TransformFunctions/arm_cfft_q31.c ****         stage++;
 159:.\DSP\Source\TransformFunctions/arm_cfft_q31.c ****     }
 160:.\DSP\Source\TransformFunctions/arm_cfft_q31.c **** 
 161:.\DSP\Source\TransformFunctions/arm_cfft_q31.c ****     /*
 162:.\DSP\Source\TransformFunctions/arm_cfft_q31.c ****      * End of 1st stages process
 163:.\DSP\Source\TransformFunctions/arm_cfft_q31.c ****      * data is in 11.21(q21) format for the 1024 point as there are 3 middle stages
 164:.\DSP\Source\TransformFunctions/arm_cfft_q31.c ****      * data is in 9.23(q23) format for the 256 point as there are 2 middle stages
 165:.\DSP\Source\TransformFunctions/arm_cfft_q31.c ****      * data is in 7.25(q25) format for the 64 point as there are 1 middle stage
 166:.\DSP\Source\TransformFunctions/arm_cfft_q31.c ****      * data is in 5.27(q27) format for the 16 point as there are no middle stages
 167:.\DSP\Source\TransformFunctions/arm_cfft_q31.c ****      */
 168:.\DSP\Source\TransformFunctions/arm_cfft_q31.c **** 
 169:.\DSP\Source\TransformFunctions/arm_cfft_q31.c ****     /*
 170:.\DSP\Source\TransformFunctions/arm_cfft_q31.c ****      * start of Last stage process
 171:.\DSP\Source\TransformFunctions/arm_cfft_q31.c ****      */
 172:.\DSP\Source\TransformFunctions/arm_cfft_q31.c ****     uint32x4_t vecScGathAddr = vld1q_u32((uint32_t*)strides);
 173:.\DSP\Source\TransformFunctions/arm_cfft_q31.c ****     vecScGathAddr = vecScGathAddr + (uint32_t) pSrc;
 174:.\DSP\Source\TransformFunctions/arm_cfft_q31.c **** 
 175:.\DSP\Source\TransformFunctions/arm_cfft_q31.c ****     /*
 176:.\DSP\Source\TransformFunctions/arm_cfft_q31.c ****      * load scheduling
 177:.\DSP\Source\TransformFunctions/arm_cfft_q31.c ****      */
 178:.\DSP\Source\TransformFunctions/arm_cfft_q31.c ****     vecA = vldrwq_gather_base_wb_s32(&vecScGathAddr, 64);
 179:.\DSP\Source\TransformFunctions/arm_cfft_q31.c ****     vecC = vldrwq_gather_base_s32(vecScGathAddr, 16);
 180:.\DSP\Source\TransformFunctions/arm_cfft_q31.c **** 
 181:.\DSP\Source\TransformFunctions/arm_cfft_q31.c ****     blkCnt = (fftLen >> 3);
 182:.\DSP\Source\TransformFunctions/arm_cfft_q31.c ****     while (blkCnt > 0U)
 183:.\DSP\Source\TransformFunctions/arm_cfft_q31.c ****     {
 184:.\DSP\Source\TransformFunctions/arm_cfft_q31.c ****         vecSum0 = vhaddq(vecA, vecC);
 185:.\DSP\Source\TransformFunctions/arm_cfft_q31.c ****         vecDiff0 = vhsubq(vecA, vecC);
 186:.\DSP\Source\TransformFunctions/arm_cfft_q31.c **** 
 187:.\DSP\Source\TransformFunctions/arm_cfft_q31.c ****         vecB = vldrwq_gather_base_s32(vecScGathAddr, 8);
 188:.\DSP\Source\TransformFunctions/arm_cfft_q31.c ****         vecD = vldrwq_gather_base_s32(vecScGathAddr, 24);
 189:.\DSP\Source\TransformFunctions/arm_cfft_q31.c **** 
 190:.\DSP\Source\TransformFunctions/arm_cfft_q31.c ****         vecSum1 = vhaddq(vecB, vecD);
 191:.\DSP\Source\TransformFunctions/arm_cfft_q31.c ****         vecDiff1 = vhsubq(vecB, vecD);
 192:.\DSP\Source\TransformFunctions/arm_cfft_q31.c ****         /*
 193:.\DSP\Source\TransformFunctions/arm_cfft_q31.c ****          * pre-load for next iteration
 194:.\DSP\Source\TransformFunctions/arm_cfft_q31.c ****          */
 195:.\DSP\Source\TransformFunctions/arm_cfft_q31.c ****         vecA = vldrwq_gather_base_wb_s32(&vecScGathAddr, 64);
 196:.\DSP\Source\TransformFunctions/arm_cfft_q31.c ****         vecC = vldrwq_gather_base_s32(vecScGathAddr, 16);
 197:.\DSP\Source\TransformFunctions/arm_cfft_q31.c **** 
 198:.\DSP\Source\TransformFunctions/arm_cfft_q31.c ****         vecTmp0 = vhaddq(vecSum0, vecSum1);
 199:.\DSP\Source\TransformFunctions/arm_cfft_q31.c ****         vstrwq_scatter_base_s32(vecScGathAddr, -64, vecTmp0);
 200:.\DSP\Source\TransformFunctions/arm_cfft_q31.c **** 
 201:.\DSP\Source\TransformFunctions/arm_cfft_q31.c ****         vecTmp0 = vhsubq(vecSum0, vecSum1);
 202:.\DSP\Source\TransformFunctions/arm_cfft_q31.c ****         vstrwq_scatter_base_s32(vecScGathAddr, -64 + 8, vecTmp0);
ARM GAS  C:\Users\IVYLIU~1\AppData\Local\Temp\ccnKQgQF.s 			page 5


 203:.\DSP\Source\TransformFunctions/arm_cfft_q31.c **** 
 204:.\DSP\Source\TransformFunctions/arm_cfft_q31.c ****         vecTmp0 = MVE_CMPLX_SUB_FX_A_ixB(vecDiff0, vecDiff1);
 205:.\DSP\Source\TransformFunctions/arm_cfft_q31.c ****         vstrwq_scatter_base_s32(vecScGathAddr, -64 + 16, vecTmp0);
 206:.\DSP\Source\TransformFunctions/arm_cfft_q31.c **** 
 207:.\DSP\Source\TransformFunctions/arm_cfft_q31.c ****         vecTmp0 = MVE_CMPLX_ADD_FX_A_ixB(vecDiff0, vecDiff1);
 208:.\DSP\Source\TransformFunctions/arm_cfft_q31.c ****         vstrwq_scatter_base_s32(vecScGathAddr, -64 + 24, vecTmp0);
 209:.\DSP\Source\TransformFunctions/arm_cfft_q31.c **** 
 210:.\DSP\Source\TransformFunctions/arm_cfft_q31.c ****         blkCnt--;
 211:.\DSP\Source\TransformFunctions/arm_cfft_q31.c ****     }
 212:.\DSP\Source\TransformFunctions/arm_cfft_q31.c **** 
 213:.\DSP\Source\TransformFunctions/arm_cfft_q31.c ****     /*
 214:.\DSP\Source\TransformFunctions/arm_cfft_q31.c ****      * output is in 11.21(q21) format for the 1024 point
 215:.\DSP\Source\TransformFunctions/arm_cfft_q31.c ****      * output is in 9.23(q23) format for the 256 point
 216:.\DSP\Source\TransformFunctions/arm_cfft_q31.c ****      * output is in 7.25(q25) format for the 64 point
 217:.\DSP\Source\TransformFunctions/arm_cfft_q31.c ****      * output is in 5.27(q27) format for the 16 point
 218:.\DSP\Source\TransformFunctions/arm_cfft_q31.c ****      */
 219:.\DSP\Source\TransformFunctions/arm_cfft_q31.c **** }
 220:.\DSP\Source\TransformFunctions/arm_cfft_q31.c **** 
 221:.\DSP\Source\TransformFunctions/arm_cfft_q31.c **** 
 222:.\DSP\Source\TransformFunctions/arm_cfft_q31.c **** static void arm_cfft_radix4by2_q31_mve(const arm_cfft_instance_q31 *S, q31_t *pSrc, uint32_t fftLen
 223:.\DSP\Source\TransformFunctions/arm_cfft_q31.c **** {
 224:.\DSP\Source\TransformFunctions/arm_cfft_q31.c ****     uint32_t     n2;
 225:.\DSP\Source\TransformFunctions/arm_cfft_q31.c ****     q31_t       *pIn0;
 226:.\DSP\Source\TransformFunctions/arm_cfft_q31.c ****     q31_t       *pIn1;
 227:.\DSP\Source\TransformFunctions/arm_cfft_q31.c ****     const q31_t *pCoef = S->pTwiddle;
 228:.\DSP\Source\TransformFunctions/arm_cfft_q31.c ****     uint32_t     blkCnt;
 229:.\DSP\Source\TransformFunctions/arm_cfft_q31.c ****     q31x4_t    vecIn0, vecIn1, vecSum, vecDiff;
 230:.\DSP\Source\TransformFunctions/arm_cfft_q31.c ****     q31x4_t    vecCmplxTmp, vecTw;
 231:.\DSP\Source\TransformFunctions/arm_cfft_q31.c **** 
 232:.\DSP\Source\TransformFunctions/arm_cfft_q31.c ****     n2 = fftLen >> 1;
 233:.\DSP\Source\TransformFunctions/arm_cfft_q31.c ****     pIn0 = pSrc;
 234:.\DSP\Source\TransformFunctions/arm_cfft_q31.c ****     pIn1 = pSrc + fftLen;
 235:.\DSP\Source\TransformFunctions/arm_cfft_q31.c **** 
 236:.\DSP\Source\TransformFunctions/arm_cfft_q31.c ****     blkCnt = n2 / 2;
 237:.\DSP\Source\TransformFunctions/arm_cfft_q31.c **** 
 238:.\DSP\Source\TransformFunctions/arm_cfft_q31.c ****     while (blkCnt > 0U)
 239:.\DSP\Source\TransformFunctions/arm_cfft_q31.c ****     {
 240:.\DSP\Source\TransformFunctions/arm_cfft_q31.c ****         vecIn0 = vld1q_s32(pIn0);
 241:.\DSP\Source\TransformFunctions/arm_cfft_q31.c ****         vecIn1 = vld1q_s32(pIn1);
 242:.\DSP\Source\TransformFunctions/arm_cfft_q31.c **** 
 243:.\DSP\Source\TransformFunctions/arm_cfft_q31.c ****         vecIn0 = vecIn0 >> 1;
 244:.\DSP\Source\TransformFunctions/arm_cfft_q31.c ****         vecIn1 = vecIn1 >> 1;
 245:.\DSP\Source\TransformFunctions/arm_cfft_q31.c ****         vecSum = vhaddq(vecIn0, vecIn1);
 246:.\DSP\Source\TransformFunctions/arm_cfft_q31.c ****         vst1q(pIn0, vecSum);
 247:.\DSP\Source\TransformFunctions/arm_cfft_q31.c ****         pIn0 += 4;
 248:.\DSP\Source\TransformFunctions/arm_cfft_q31.c **** 
 249:.\DSP\Source\TransformFunctions/arm_cfft_q31.c ****         vecTw = vld1q_s32(pCoef);
 250:.\DSP\Source\TransformFunctions/arm_cfft_q31.c ****         pCoef += 4;
 251:.\DSP\Source\TransformFunctions/arm_cfft_q31.c ****         vecDiff = vhsubq(vecIn0, vecIn1);
 252:.\DSP\Source\TransformFunctions/arm_cfft_q31.c **** 
 253:.\DSP\Source\TransformFunctions/arm_cfft_q31.c ****         vecCmplxTmp = MVE_CMPLX_MULT_FX_AxConjB(vecDiff, vecTw, q31x4_t);
 254:.\DSP\Source\TransformFunctions/arm_cfft_q31.c ****         vst1q(pIn1, vecCmplxTmp);
 255:.\DSP\Source\TransformFunctions/arm_cfft_q31.c ****         pIn1 += 4;
 256:.\DSP\Source\TransformFunctions/arm_cfft_q31.c **** 
 257:.\DSP\Source\TransformFunctions/arm_cfft_q31.c ****         blkCnt--;
 258:.\DSP\Source\TransformFunctions/arm_cfft_q31.c ****     }
 259:.\DSP\Source\TransformFunctions/arm_cfft_q31.c **** 
ARM GAS  C:\Users\IVYLIU~1\AppData\Local\Temp\ccnKQgQF.s 			page 6


 260:.\DSP\Source\TransformFunctions/arm_cfft_q31.c ****    _arm_radix4_butterfly_q31_mve(S, pSrc, n2);
 261:.\DSP\Source\TransformFunctions/arm_cfft_q31.c **** 
 262:.\DSP\Source\TransformFunctions/arm_cfft_q31.c ****    _arm_radix4_butterfly_q31_mve(S, pSrc + fftLen, n2);
 263:.\DSP\Source\TransformFunctions/arm_cfft_q31.c **** 
 264:.\DSP\Source\TransformFunctions/arm_cfft_q31.c ****     pIn0 = pSrc;
 265:.\DSP\Source\TransformFunctions/arm_cfft_q31.c ****     blkCnt = (fftLen << 1) >> 2;
 266:.\DSP\Source\TransformFunctions/arm_cfft_q31.c ****     while (blkCnt > 0U)
 267:.\DSP\Source\TransformFunctions/arm_cfft_q31.c ****     {
 268:.\DSP\Source\TransformFunctions/arm_cfft_q31.c ****         vecIn0 = vld1q_s32(pIn0);
 269:.\DSP\Source\TransformFunctions/arm_cfft_q31.c ****         vecIn0 = vecIn0 << 1;
 270:.\DSP\Source\TransformFunctions/arm_cfft_q31.c ****         vst1q(pIn0, vecIn0);
 271:.\DSP\Source\TransformFunctions/arm_cfft_q31.c ****         pIn0 += 4;
 272:.\DSP\Source\TransformFunctions/arm_cfft_q31.c ****         blkCnt--;
 273:.\DSP\Source\TransformFunctions/arm_cfft_q31.c ****     }
 274:.\DSP\Source\TransformFunctions/arm_cfft_q31.c ****     /*
 275:.\DSP\Source\TransformFunctions/arm_cfft_q31.c ****      * tail
 276:.\DSP\Source\TransformFunctions/arm_cfft_q31.c ****      * (will be merged thru tail predication)
 277:.\DSP\Source\TransformFunctions/arm_cfft_q31.c ****      */
 278:.\DSP\Source\TransformFunctions/arm_cfft_q31.c ****     blkCnt = (fftLen << 1) & 3;
 279:.\DSP\Source\TransformFunctions/arm_cfft_q31.c ****     if (blkCnt > 0U)
 280:.\DSP\Source\TransformFunctions/arm_cfft_q31.c ****     {
 281:.\DSP\Source\TransformFunctions/arm_cfft_q31.c ****         mve_pred16_t p0 = vctp32q(blkCnt);
 282:.\DSP\Source\TransformFunctions/arm_cfft_q31.c **** 
 283:.\DSP\Source\TransformFunctions/arm_cfft_q31.c ****         vecIn0 = vld1q_s32(pIn0);
 284:.\DSP\Source\TransformFunctions/arm_cfft_q31.c ****         vecIn0 = vecIn0 << 1;
 285:.\DSP\Source\TransformFunctions/arm_cfft_q31.c ****         vstrwq_p(pIn0, vecIn0, p0);
 286:.\DSP\Source\TransformFunctions/arm_cfft_q31.c ****     }
 287:.\DSP\Source\TransformFunctions/arm_cfft_q31.c **** 
 288:.\DSP\Source\TransformFunctions/arm_cfft_q31.c **** }
 289:.\DSP\Source\TransformFunctions/arm_cfft_q31.c **** 
 290:.\DSP\Source\TransformFunctions/arm_cfft_q31.c **** static void _arm_radix4_butterfly_inverse_q31_mve(
 291:.\DSP\Source\TransformFunctions/arm_cfft_q31.c ****     const arm_cfft_instance_q31 *S,
 292:.\DSP\Source\TransformFunctions/arm_cfft_q31.c ****     q31_t   *pSrc,
 293:.\DSP\Source\TransformFunctions/arm_cfft_q31.c ****     uint32_t fftLen)
 294:.\DSP\Source\TransformFunctions/arm_cfft_q31.c **** {
 295:.\DSP\Source\TransformFunctions/arm_cfft_q31.c ****     q31x4_t vecTmp0, vecTmp1;
 296:.\DSP\Source\TransformFunctions/arm_cfft_q31.c ****     q31x4_t vecSum0, vecDiff0, vecSum1, vecDiff1;
 297:.\DSP\Source\TransformFunctions/arm_cfft_q31.c ****     q31x4_t vecA, vecB, vecC, vecD;
 298:.\DSP\Source\TransformFunctions/arm_cfft_q31.c ****     uint32_t  blkCnt;
 299:.\DSP\Source\TransformFunctions/arm_cfft_q31.c ****     uint32_t  n1, n2;
 300:.\DSP\Source\TransformFunctions/arm_cfft_q31.c ****     uint32_t  stage = 0;
 301:.\DSP\Source\TransformFunctions/arm_cfft_q31.c ****     int32_t  iter = 1;
 302:.\DSP\Source\TransformFunctions/arm_cfft_q31.c ****     static const int32_t strides[4] = {
 303:.\DSP\Source\TransformFunctions/arm_cfft_q31.c ****         (0 - 16) * (int32_t)sizeof(q31_t *), (1 - 16) * (int32_t)sizeof(q31_t *),
 304:.\DSP\Source\TransformFunctions/arm_cfft_q31.c ****         (8 - 16) * (int32_t)sizeof(q31_t *), (9 - 16) * (int32_t)sizeof(q31_t *)
 305:.\DSP\Source\TransformFunctions/arm_cfft_q31.c ****     };
 306:.\DSP\Source\TransformFunctions/arm_cfft_q31.c **** 
 307:.\DSP\Source\TransformFunctions/arm_cfft_q31.c ****     /*
 308:.\DSP\Source\TransformFunctions/arm_cfft_q31.c ****      * Process first stages
 309:.\DSP\Source\TransformFunctions/arm_cfft_q31.c ****      * Each stage in middle stages provides two down scaling of the input
 310:.\DSP\Source\TransformFunctions/arm_cfft_q31.c ****      */
 311:.\DSP\Source\TransformFunctions/arm_cfft_q31.c ****     n2 = fftLen;
 312:.\DSP\Source\TransformFunctions/arm_cfft_q31.c ****     n1 = n2;
 313:.\DSP\Source\TransformFunctions/arm_cfft_q31.c ****     n2 >>= 2u;
 314:.\DSP\Source\TransformFunctions/arm_cfft_q31.c **** 
 315:.\DSP\Source\TransformFunctions/arm_cfft_q31.c ****     for (int k = fftLen / 4u; k > 1; k >>= 2u)
 316:.\DSP\Source\TransformFunctions/arm_cfft_q31.c ****     {
ARM GAS  C:\Users\IVYLIU~1\AppData\Local\Temp\ccnKQgQF.s 			page 7


 317:.\DSP\Source\TransformFunctions/arm_cfft_q31.c ****         q31_t const *p_rearranged_twiddle_tab_stride2 =
 318:.\DSP\Source\TransformFunctions/arm_cfft_q31.c ****             &S->rearranged_twiddle_stride2[
 319:.\DSP\Source\TransformFunctions/arm_cfft_q31.c ****             S->rearranged_twiddle_tab_stride2_arr[stage]];
 320:.\DSP\Source\TransformFunctions/arm_cfft_q31.c ****         q31_t const *p_rearranged_twiddle_tab_stride3 = &S->rearranged_twiddle_stride3[
 321:.\DSP\Source\TransformFunctions/arm_cfft_q31.c ****             S->rearranged_twiddle_tab_stride3_arr[stage]];
 322:.\DSP\Source\TransformFunctions/arm_cfft_q31.c ****         q31_t const *p_rearranged_twiddle_tab_stride1 =
 323:.\DSP\Source\TransformFunctions/arm_cfft_q31.c ****             &S->rearranged_twiddle_stride1[
 324:.\DSP\Source\TransformFunctions/arm_cfft_q31.c ****             S->rearranged_twiddle_tab_stride1_arr[stage]];
 325:.\DSP\Source\TransformFunctions/arm_cfft_q31.c **** 
 326:.\DSP\Source\TransformFunctions/arm_cfft_q31.c ****         q31_t * pBase = pSrc;
 327:.\DSP\Source\TransformFunctions/arm_cfft_q31.c ****         for (int i = 0; i < iter; i++)
 328:.\DSP\Source\TransformFunctions/arm_cfft_q31.c ****         {
 329:.\DSP\Source\TransformFunctions/arm_cfft_q31.c ****             q31_t    *inA = pBase;
 330:.\DSP\Source\TransformFunctions/arm_cfft_q31.c ****             q31_t    *inB = inA + n2 * CMPLX_DIM;
 331:.\DSP\Source\TransformFunctions/arm_cfft_q31.c ****             q31_t    *inC = inB + n2 * CMPLX_DIM;
 332:.\DSP\Source\TransformFunctions/arm_cfft_q31.c ****             q31_t    *inD = inC + n2 * CMPLX_DIM;
 333:.\DSP\Source\TransformFunctions/arm_cfft_q31.c ****             q31_t const *pW1 = p_rearranged_twiddle_tab_stride1;
 334:.\DSP\Source\TransformFunctions/arm_cfft_q31.c ****             q31_t const *pW2 = p_rearranged_twiddle_tab_stride2;
 335:.\DSP\Source\TransformFunctions/arm_cfft_q31.c ****             q31_t const *pW3 = p_rearranged_twiddle_tab_stride3;
 336:.\DSP\Source\TransformFunctions/arm_cfft_q31.c ****             q31x4_t    vecW;
 337:.\DSP\Source\TransformFunctions/arm_cfft_q31.c **** 
 338:.\DSP\Source\TransformFunctions/arm_cfft_q31.c ****             blkCnt = n2 / 2;
 339:.\DSP\Source\TransformFunctions/arm_cfft_q31.c ****             /*
 340:.\DSP\Source\TransformFunctions/arm_cfft_q31.c ****              * load 2 x q31 complex pair
 341:.\DSP\Source\TransformFunctions/arm_cfft_q31.c ****              */
 342:.\DSP\Source\TransformFunctions/arm_cfft_q31.c ****             vecA = vldrwq_s32(inA);
 343:.\DSP\Source\TransformFunctions/arm_cfft_q31.c ****             vecC = vldrwq_s32(inC);
 344:.\DSP\Source\TransformFunctions/arm_cfft_q31.c ****             while (blkCnt > 0U)
 345:.\DSP\Source\TransformFunctions/arm_cfft_q31.c ****             {
 346:.\DSP\Source\TransformFunctions/arm_cfft_q31.c ****                 vecB = vldrwq_s32(inB);
 347:.\DSP\Source\TransformFunctions/arm_cfft_q31.c ****                 vecD = vldrwq_s32(inD);
 348:.\DSP\Source\TransformFunctions/arm_cfft_q31.c **** 
 349:.\DSP\Source\TransformFunctions/arm_cfft_q31.c ****                 vecSum0 = vhaddq(vecA, vecC);
 350:.\DSP\Source\TransformFunctions/arm_cfft_q31.c ****                 vecDiff0 = vhsubq(vecA, vecC);
 351:.\DSP\Source\TransformFunctions/arm_cfft_q31.c **** 
 352:.\DSP\Source\TransformFunctions/arm_cfft_q31.c ****                 vecSum1 = vhaddq(vecB, vecD);
 353:.\DSP\Source\TransformFunctions/arm_cfft_q31.c ****                 vecDiff1 = vhsubq(vecB, vecD);
 354:.\DSP\Source\TransformFunctions/arm_cfft_q31.c ****                 /*
 355:.\DSP\Source\TransformFunctions/arm_cfft_q31.c ****                  * [ 1 1 1 1 ] * [ A B C D ]' .* 1
 356:.\DSP\Source\TransformFunctions/arm_cfft_q31.c ****                  */
 357:.\DSP\Source\TransformFunctions/arm_cfft_q31.c ****                 vecTmp0 = vhaddq(vecSum0, vecSum1);
 358:.\DSP\Source\TransformFunctions/arm_cfft_q31.c ****                 vst1q(inA, vecTmp0);
 359:.\DSP\Source\TransformFunctions/arm_cfft_q31.c ****                 inA += 4;
 360:.\DSP\Source\TransformFunctions/arm_cfft_q31.c ****                 /*
 361:.\DSP\Source\TransformFunctions/arm_cfft_q31.c ****                  * [ 1 -1 1 -1 ] * [ A B C D ]'
 362:.\DSP\Source\TransformFunctions/arm_cfft_q31.c ****                  */
 363:.\DSP\Source\TransformFunctions/arm_cfft_q31.c ****                 vecTmp0 = vhsubq(vecSum0, vecSum1);
 364:.\DSP\Source\TransformFunctions/arm_cfft_q31.c ****                 /*
 365:.\DSP\Source\TransformFunctions/arm_cfft_q31.c ****                  * [ 1 -1 1 -1 ] * [ A B C D ]'.* W2
 366:.\DSP\Source\TransformFunctions/arm_cfft_q31.c ****                  */
 367:.\DSP\Source\TransformFunctions/arm_cfft_q31.c ****                 vecW = vld1q(pW2);
 368:.\DSP\Source\TransformFunctions/arm_cfft_q31.c ****                 pW2 += 4;
 369:.\DSP\Source\TransformFunctions/arm_cfft_q31.c ****                 vecTmp1 = MVE_CMPLX_MULT_FX_AxConjB(vecTmp0, vecW, q31x4_t);
 370:.\DSP\Source\TransformFunctions/arm_cfft_q31.c **** 
 371:.\DSP\Source\TransformFunctions/arm_cfft_q31.c ****                 vst1q(inB, vecTmp1);
 372:.\DSP\Source\TransformFunctions/arm_cfft_q31.c ****                 inB += 4;
 373:.\DSP\Source\TransformFunctions/arm_cfft_q31.c ****                 /*
ARM GAS  C:\Users\IVYLIU~1\AppData\Local\Temp\ccnKQgQF.s 			page 8


 374:.\DSP\Source\TransformFunctions/arm_cfft_q31.c ****                  * [ 1 -i -1 +i ] * [ A B C D ]'
 375:.\DSP\Source\TransformFunctions/arm_cfft_q31.c ****                  */
 376:.\DSP\Source\TransformFunctions/arm_cfft_q31.c ****                 vecTmp0 = MVE_CMPLX_ADD_FX_A_ixB(vecDiff0, vecDiff1);
 377:.\DSP\Source\TransformFunctions/arm_cfft_q31.c ****                 /*
 378:.\DSP\Source\TransformFunctions/arm_cfft_q31.c ****                  * [ 1 -i -1 +i ] * [ A B C D ]'.* W1
 379:.\DSP\Source\TransformFunctions/arm_cfft_q31.c ****                  */
 380:.\DSP\Source\TransformFunctions/arm_cfft_q31.c ****                 vecW = vld1q(pW1);
 381:.\DSP\Source\TransformFunctions/arm_cfft_q31.c ****                 pW1 += 4;
 382:.\DSP\Source\TransformFunctions/arm_cfft_q31.c ****                 vecTmp1 = MVE_CMPLX_MULT_FX_AxConjB(vecTmp0, vecW, q31x4_t);
 383:.\DSP\Source\TransformFunctions/arm_cfft_q31.c ****                 vst1q(inC, vecTmp1);
 384:.\DSP\Source\TransformFunctions/arm_cfft_q31.c ****                 inC += 4;
 385:.\DSP\Source\TransformFunctions/arm_cfft_q31.c ****                 /*
 386:.\DSP\Source\TransformFunctions/arm_cfft_q31.c ****                  * [ 1 +i -1 -i ] * [ A B C D ]'
 387:.\DSP\Source\TransformFunctions/arm_cfft_q31.c ****                  */
 388:.\DSP\Source\TransformFunctions/arm_cfft_q31.c ****                 vecTmp0 = MVE_CMPLX_SUB_FX_A_ixB(vecDiff0, vecDiff1);
 389:.\DSP\Source\TransformFunctions/arm_cfft_q31.c ****                 /*
 390:.\DSP\Source\TransformFunctions/arm_cfft_q31.c ****                  * [ 1 +i -1 -i ] * [ A B C D ]'.* W3
 391:.\DSP\Source\TransformFunctions/arm_cfft_q31.c ****                  */
 392:.\DSP\Source\TransformFunctions/arm_cfft_q31.c ****                 vecW = vld1q(pW3);
 393:.\DSP\Source\TransformFunctions/arm_cfft_q31.c ****                 pW3 += 4;
 394:.\DSP\Source\TransformFunctions/arm_cfft_q31.c ****                 vecTmp1 = MVE_CMPLX_MULT_FX_AxConjB(vecTmp0, vecW, q31x4_t);
 395:.\DSP\Source\TransformFunctions/arm_cfft_q31.c ****                 vst1q(inD, vecTmp1);
 396:.\DSP\Source\TransformFunctions/arm_cfft_q31.c ****                 inD += 4;
 397:.\DSP\Source\TransformFunctions/arm_cfft_q31.c **** 
 398:.\DSP\Source\TransformFunctions/arm_cfft_q31.c ****                 vecA = vldrwq_s32(inA);
 399:.\DSP\Source\TransformFunctions/arm_cfft_q31.c ****                 vecC = vldrwq_s32(inC);
 400:.\DSP\Source\TransformFunctions/arm_cfft_q31.c **** 
 401:.\DSP\Source\TransformFunctions/arm_cfft_q31.c ****                 blkCnt--;
 402:.\DSP\Source\TransformFunctions/arm_cfft_q31.c ****             }
 403:.\DSP\Source\TransformFunctions/arm_cfft_q31.c ****             pBase +=  CMPLX_DIM * n1;
 404:.\DSP\Source\TransformFunctions/arm_cfft_q31.c ****         }
 405:.\DSP\Source\TransformFunctions/arm_cfft_q31.c ****         n1 = n2;
 406:.\DSP\Source\TransformFunctions/arm_cfft_q31.c ****         n2 >>= 2u;
 407:.\DSP\Source\TransformFunctions/arm_cfft_q31.c ****         iter = iter << 2;
 408:.\DSP\Source\TransformFunctions/arm_cfft_q31.c ****         stage++;
 409:.\DSP\Source\TransformFunctions/arm_cfft_q31.c ****     }
 410:.\DSP\Source\TransformFunctions/arm_cfft_q31.c **** 
 411:.\DSP\Source\TransformFunctions/arm_cfft_q31.c ****     /*
 412:.\DSP\Source\TransformFunctions/arm_cfft_q31.c ****      * End of 1st stages process
 413:.\DSP\Source\TransformFunctions/arm_cfft_q31.c ****      * data is in 11.21(q21) format for the 1024 point as there are 3 middle stages
 414:.\DSP\Source\TransformFunctions/arm_cfft_q31.c ****      * data is in 9.23(q23) format for the 256 point as there are 2 middle stages
 415:.\DSP\Source\TransformFunctions/arm_cfft_q31.c ****      * data is in 7.25(q25) format for the 64 point as there are 1 middle stage
 416:.\DSP\Source\TransformFunctions/arm_cfft_q31.c ****      * data is in 5.27(q27) format for the 16 point as there are no middle stages
 417:.\DSP\Source\TransformFunctions/arm_cfft_q31.c ****      */
 418:.\DSP\Source\TransformFunctions/arm_cfft_q31.c **** 
 419:.\DSP\Source\TransformFunctions/arm_cfft_q31.c ****     /*
 420:.\DSP\Source\TransformFunctions/arm_cfft_q31.c ****      * start of Last stage process
 421:.\DSP\Source\TransformFunctions/arm_cfft_q31.c ****      */
 422:.\DSP\Source\TransformFunctions/arm_cfft_q31.c ****     uint32x4_t vecScGathAddr = vld1q_u32((uint32_t*)strides);
 423:.\DSP\Source\TransformFunctions/arm_cfft_q31.c ****     vecScGathAddr = vecScGathAddr + (uint32_t) pSrc;
 424:.\DSP\Source\TransformFunctions/arm_cfft_q31.c **** 
 425:.\DSP\Source\TransformFunctions/arm_cfft_q31.c ****     /*
 426:.\DSP\Source\TransformFunctions/arm_cfft_q31.c ****      * load scheduling
 427:.\DSP\Source\TransformFunctions/arm_cfft_q31.c ****      */
 428:.\DSP\Source\TransformFunctions/arm_cfft_q31.c ****     vecA = vldrwq_gather_base_wb_s32(&vecScGathAddr, 64);
 429:.\DSP\Source\TransformFunctions/arm_cfft_q31.c ****     vecC = vldrwq_gather_base_s32(vecScGathAddr, 16);
 430:.\DSP\Source\TransformFunctions/arm_cfft_q31.c **** 
ARM GAS  C:\Users\IVYLIU~1\AppData\Local\Temp\ccnKQgQF.s 			page 9


 431:.\DSP\Source\TransformFunctions/arm_cfft_q31.c ****     blkCnt = (fftLen >> 3);
 432:.\DSP\Source\TransformFunctions/arm_cfft_q31.c ****     while (blkCnt > 0U)
 433:.\DSP\Source\TransformFunctions/arm_cfft_q31.c ****     {
 434:.\DSP\Source\TransformFunctions/arm_cfft_q31.c ****         vecSum0 = vhaddq(vecA, vecC);
 435:.\DSP\Source\TransformFunctions/arm_cfft_q31.c ****         vecDiff0 = vhsubq(vecA, vecC);
 436:.\DSP\Source\TransformFunctions/arm_cfft_q31.c **** 
 437:.\DSP\Source\TransformFunctions/arm_cfft_q31.c ****         vecB = vldrwq_gather_base_s32(vecScGathAddr, 8);
 438:.\DSP\Source\TransformFunctions/arm_cfft_q31.c ****         vecD = vldrwq_gather_base_s32(vecScGathAddr, 24);
 439:.\DSP\Source\TransformFunctions/arm_cfft_q31.c **** 
 440:.\DSP\Source\TransformFunctions/arm_cfft_q31.c ****         vecSum1 = vhaddq(vecB, vecD);
 441:.\DSP\Source\TransformFunctions/arm_cfft_q31.c ****         vecDiff1 = vhsubq(vecB, vecD);
 442:.\DSP\Source\TransformFunctions/arm_cfft_q31.c ****         /*
 443:.\DSP\Source\TransformFunctions/arm_cfft_q31.c ****          * pre-load for next iteration
 444:.\DSP\Source\TransformFunctions/arm_cfft_q31.c ****          */
 445:.\DSP\Source\TransformFunctions/arm_cfft_q31.c ****         vecA = vldrwq_gather_base_wb_s32(&vecScGathAddr, 64);
 446:.\DSP\Source\TransformFunctions/arm_cfft_q31.c ****         vecC = vldrwq_gather_base_s32(vecScGathAddr, 16);
 447:.\DSP\Source\TransformFunctions/arm_cfft_q31.c **** 
 448:.\DSP\Source\TransformFunctions/arm_cfft_q31.c ****         vecTmp0 = vhaddq(vecSum0, vecSum1);
 449:.\DSP\Source\TransformFunctions/arm_cfft_q31.c ****         vstrwq_scatter_base_s32(vecScGathAddr, -64, vecTmp0);
 450:.\DSP\Source\TransformFunctions/arm_cfft_q31.c **** 
 451:.\DSP\Source\TransformFunctions/arm_cfft_q31.c ****         vecTmp0 = vhsubq(vecSum0, vecSum1);
 452:.\DSP\Source\TransformFunctions/arm_cfft_q31.c ****         vstrwq_scatter_base_s32(vecScGathAddr, -64 + 8, vecTmp0);
 453:.\DSP\Source\TransformFunctions/arm_cfft_q31.c **** 
 454:.\DSP\Source\TransformFunctions/arm_cfft_q31.c ****         vecTmp0 = MVE_CMPLX_ADD_FX_A_ixB(vecDiff0, vecDiff1);
 455:.\DSP\Source\TransformFunctions/arm_cfft_q31.c ****         vstrwq_scatter_base_s32(vecScGathAddr, -64 + 16, vecTmp0);
 456:.\DSP\Source\TransformFunctions/arm_cfft_q31.c **** 
 457:.\DSP\Source\TransformFunctions/arm_cfft_q31.c ****         vecTmp0 = MVE_CMPLX_SUB_FX_A_ixB(vecDiff0, vecDiff1);
 458:.\DSP\Source\TransformFunctions/arm_cfft_q31.c ****         vstrwq_scatter_base_s32(vecScGathAddr, -64 + 24, vecTmp0);
 459:.\DSP\Source\TransformFunctions/arm_cfft_q31.c **** 
 460:.\DSP\Source\TransformFunctions/arm_cfft_q31.c ****         blkCnt--;
 461:.\DSP\Source\TransformFunctions/arm_cfft_q31.c ****     }
 462:.\DSP\Source\TransformFunctions/arm_cfft_q31.c ****     /*
 463:.\DSP\Source\TransformFunctions/arm_cfft_q31.c ****      * output is in 11.21(q21) format for the 1024 point
 464:.\DSP\Source\TransformFunctions/arm_cfft_q31.c ****      * output is in 9.23(q23) format for the 256 point
 465:.\DSP\Source\TransformFunctions/arm_cfft_q31.c ****      * output is in 7.25(q25) format for the 64 point
 466:.\DSP\Source\TransformFunctions/arm_cfft_q31.c ****      * output is in 5.27(q27) format for the 16 point
 467:.\DSP\Source\TransformFunctions/arm_cfft_q31.c ****      */
 468:.\DSP\Source\TransformFunctions/arm_cfft_q31.c **** }
 469:.\DSP\Source\TransformFunctions/arm_cfft_q31.c **** 
 470:.\DSP\Source\TransformFunctions/arm_cfft_q31.c **** static void arm_cfft_radix4by2_inverse_q31_mve(const arm_cfft_instance_q31 *S, q31_t *pSrc, uint32_
 471:.\DSP\Source\TransformFunctions/arm_cfft_q31.c **** {
 472:.\DSP\Source\TransformFunctions/arm_cfft_q31.c ****     uint32_t     n2;
 473:.\DSP\Source\TransformFunctions/arm_cfft_q31.c ****     q31_t       *pIn0;
 474:.\DSP\Source\TransformFunctions/arm_cfft_q31.c ****     q31_t       *pIn1;
 475:.\DSP\Source\TransformFunctions/arm_cfft_q31.c ****     const q31_t *pCoef = S->pTwiddle;
 476:.\DSP\Source\TransformFunctions/arm_cfft_q31.c **** 
 477:.\DSP\Source\TransformFunctions/arm_cfft_q31.c ****     //uint16_t     twidCoefModifier = arm_cfft_radix2_twiddle_factor(S->fftLen);
 478:.\DSP\Source\TransformFunctions/arm_cfft_q31.c ****     //q31_t        twidIncr = (2 * twidCoefModifier * sizeof(q31_t));
 479:.\DSP\Source\TransformFunctions/arm_cfft_q31.c ****     uint32_t     blkCnt;
 480:.\DSP\Source\TransformFunctions/arm_cfft_q31.c ****     //uint64x2_t   vecOffs;
 481:.\DSP\Source\TransformFunctions/arm_cfft_q31.c ****     q31x4_t    vecIn0, vecIn1, vecSum, vecDiff;
 482:.\DSP\Source\TransformFunctions/arm_cfft_q31.c ****     q31x4_t    vecCmplxTmp, vecTw;
 483:.\DSP\Source\TransformFunctions/arm_cfft_q31.c **** 
 484:.\DSP\Source\TransformFunctions/arm_cfft_q31.c ****     n2 = fftLen >> 1;
 485:.\DSP\Source\TransformFunctions/arm_cfft_q31.c **** 
 486:.\DSP\Source\TransformFunctions/arm_cfft_q31.c ****     pIn0 = pSrc;
 487:.\DSP\Source\TransformFunctions/arm_cfft_q31.c ****     pIn1 = pSrc + fftLen;
ARM GAS  C:\Users\IVYLIU~1\AppData\Local\Temp\ccnKQgQF.s 			page 10


 488:.\DSP\Source\TransformFunctions/arm_cfft_q31.c ****     //vecOffs[0] = 0;
 489:.\DSP\Source\TransformFunctions/arm_cfft_q31.c ****     //vecOffs[1] = (uint64_t) twidIncr;
 490:.\DSP\Source\TransformFunctions/arm_cfft_q31.c ****     blkCnt = n2 / 2;
 491:.\DSP\Source\TransformFunctions/arm_cfft_q31.c **** 
 492:.\DSP\Source\TransformFunctions/arm_cfft_q31.c ****     while (blkCnt > 0U)
 493:.\DSP\Source\TransformFunctions/arm_cfft_q31.c ****     {
 494:.\DSP\Source\TransformFunctions/arm_cfft_q31.c ****         vecIn0 = vld1q_s32(pIn0);
 495:.\DSP\Source\TransformFunctions/arm_cfft_q31.c ****         vecIn1 = vld1q_s32(pIn1);
 496:.\DSP\Source\TransformFunctions/arm_cfft_q31.c **** 
 497:.\DSP\Source\TransformFunctions/arm_cfft_q31.c ****         vecIn0 = vecIn0 >> 1;
 498:.\DSP\Source\TransformFunctions/arm_cfft_q31.c ****         vecIn1 = vecIn1 >> 1;
 499:.\DSP\Source\TransformFunctions/arm_cfft_q31.c ****         vecSum = vhaddq(vecIn0, vecIn1);
 500:.\DSP\Source\TransformFunctions/arm_cfft_q31.c ****         vst1q(pIn0, vecSum);
 501:.\DSP\Source\TransformFunctions/arm_cfft_q31.c ****         pIn0 += 4;
 502:.\DSP\Source\TransformFunctions/arm_cfft_q31.c **** 
 503:.\DSP\Source\TransformFunctions/arm_cfft_q31.c ****         //vecTw = (q31x4_t) vldrdq_gather_offset_s64(pCoef, vecOffs);
 504:.\DSP\Source\TransformFunctions/arm_cfft_q31.c ****         vecTw = vld1q_s32(pCoef);
 505:.\DSP\Source\TransformFunctions/arm_cfft_q31.c ****         pCoef += 4;
 506:.\DSP\Source\TransformFunctions/arm_cfft_q31.c ****         vecDiff = vhsubq(vecIn0, vecIn1);
 507:.\DSP\Source\TransformFunctions/arm_cfft_q31.c **** 
 508:.\DSP\Source\TransformFunctions/arm_cfft_q31.c ****         vecCmplxTmp = MVE_CMPLX_MULT_FX_AxB(vecDiff, vecTw, q31x4_t);
 509:.\DSP\Source\TransformFunctions/arm_cfft_q31.c ****         vst1q(pIn1, vecCmplxTmp);
 510:.\DSP\Source\TransformFunctions/arm_cfft_q31.c ****         pIn1 += 4;
 511:.\DSP\Source\TransformFunctions/arm_cfft_q31.c **** 
 512:.\DSP\Source\TransformFunctions/arm_cfft_q31.c ****         //vecOffs = vaddq((q31x4_t) vecOffs, 2 * twidIncr);
 513:.\DSP\Source\TransformFunctions/arm_cfft_q31.c ****         blkCnt--;
 514:.\DSP\Source\TransformFunctions/arm_cfft_q31.c ****     }
 515:.\DSP\Source\TransformFunctions/arm_cfft_q31.c **** 
 516:.\DSP\Source\TransformFunctions/arm_cfft_q31.c ****     _arm_radix4_butterfly_inverse_q31_mve(S, pSrc, n2);
 517:.\DSP\Source\TransformFunctions/arm_cfft_q31.c **** 
 518:.\DSP\Source\TransformFunctions/arm_cfft_q31.c ****     _arm_radix4_butterfly_inverse_q31_mve(S, pSrc + fftLen, n2);
 519:.\DSP\Source\TransformFunctions/arm_cfft_q31.c **** 
 520:.\DSP\Source\TransformFunctions/arm_cfft_q31.c ****     pIn0 = pSrc;
 521:.\DSP\Source\TransformFunctions/arm_cfft_q31.c ****     blkCnt = (fftLen << 1) >> 2;
 522:.\DSP\Source\TransformFunctions/arm_cfft_q31.c ****     while (blkCnt > 0U)
 523:.\DSP\Source\TransformFunctions/arm_cfft_q31.c ****     {
 524:.\DSP\Source\TransformFunctions/arm_cfft_q31.c ****         vecIn0 = vld1q_s32(pIn0);
 525:.\DSP\Source\TransformFunctions/arm_cfft_q31.c ****         vecIn0 = vecIn0 << 1;
 526:.\DSP\Source\TransformFunctions/arm_cfft_q31.c ****         vst1q(pIn0, vecIn0);
 527:.\DSP\Source\TransformFunctions/arm_cfft_q31.c ****         pIn0 += 4;
 528:.\DSP\Source\TransformFunctions/arm_cfft_q31.c ****         blkCnt--;
 529:.\DSP\Source\TransformFunctions/arm_cfft_q31.c ****     }
 530:.\DSP\Source\TransformFunctions/arm_cfft_q31.c ****     /*
 531:.\DSP\Source\TransformFunctions/arm_cfft_q31.c ****      * tail
 532:.\DSP\Source\TransformFunctions/arm_cfft_q31.c ****      * (will be merged thru tail predication)
 533:.\DSP\Source\TransformFunctions/arm_cfft_q31.c ****      */
 534:.\DSP\Source\TransformFunctions/arm_cfft_q31.c ****     blkCnt = (fftLen << 1) & 3;
 535:.\DSP\Source\TransformFunctions/arm_cfft_q31.c ****     if (blkCnt > 0U)
 536:.\DSP\Source\TransformFunctions/arm_cfft_q31.c ****     {
 537:.\DSP\Source\TransformFunctions/arm_cfft_q31.c ****         mve_pred16_t p0 = vctp32q(blkCnt);
 538:.\DSP\Source\TransformFunctions/arm_cfft_q31.c **** 
 539:.\DSP\Source\TransformFunctions/arm_cfft_q31.c ****         vecIn0 = vld1q_s32(pIn0);
 540:.\DSP\Source\TransformFunctions/arm_cfft_q31.c ****         vecIn0 = vecIn0 << 1;
 541:.\DSP\Source\TransformFunctions/arm_cfft_q31.c ****         vstrwq_p(pIn0, vecIn0, p0);
 542:.\DSP\Source\TransformFunctions/arm_cfft_q31.c ****     }
 543:.\DSP\Source\TransformFunctions/arm_cfft_q31.c **** 
 544:.\DSP\Source\TransformFunctions/arm_cfft_q31.c **** }
ARM GAS  C:\Users\IVYLIU~1\AppData\Local\Temp\ccnKQgQF.s 			page 11


 545:.\DSP\Source\TransformFunctions/arm_cfft_q31.c **** 
 546:.\DSP\Source\TransformFunctions/arm_cfft_q31.c **** /**
 547:.\DSP\Source\TransformFunctions/arm_cfft_q31.c ****   @ingroup groupTransforms
 548:.\DSP\Source\TransformFunctions/arm_cfft_q31.c ****  */
 549:.\DSP\Source\TransformFunctions/arm_cfft_q31.c **** 
 550:.\DSP\Source\TransformFunctions/arm_cfft_q31.c **** /**
 551:.\DSP\Source\TransformFunctions/arm_cfft_q31.c ****   @addtogroup ComplexFFT
 552:.\DSP\Source\TransformFunctions/arm_cfft_q31.c ****   @{
 553:.\DSP\Source\TransformFunctions/arm_cfft_q31.c ****  */
 554:.\DSP\Source\TransformFunctions/arm_cfft_q31.c **** 
 555:.\DSP\Source\TransformFunctions/arm_cfft_q31.c **** /**
 556:.\DSP\Source\TransformFunctions/arm_cfft_q31.c ****   @brief         Processing function for the Q31 complex FFT.
 557:.\DSP\Source\TransformFunctions/arm_cfft_q31.c ****   @param[in]     S               points to an instance of the fixed-point CFFT structure
 558:.\DSP\Source\TransformFunctions/arm_cfft_q31.c ****   @param[in,out] p1              points to the complex data buffer of size <code>2*fftLen</code>. P
 559:.\DSP\Source\TransformFunctions/arm_cfft_q31.c ****   @param[in]     ifftFlag       flag that selects transform direction
 560:.\DSP\Source\TransformFunctions/arm_cfft_q31.c ****                    - value = 0: forward transform
 561:.\DSP\Source\TransformFunctions/arm_cfft_q31.c ****                    - value = 1: inverse transform
 562:.\DSP\Source\TransformFunctions/arm_cfft_q31.c ****   @param[in]     bitReverseFlag flag that enables / disables bit reversal of output
 563:.\DSP\Source\TransformFunctions/arm_cfft_q31.c ****                    - value = 0: disables bit reversal of output
 564:.\DSP\Source\TransformFunctions/arm_cfft_q31.c ****                    - value = 1: enables bit reversal of output
 565:.\DSP\Source\TransformFunctions/arm_cfft_q31.c ****   @return        none
 566:.\DSP\Source\TransformFunctions/arm_cfft_q31.c ****  */
 567:.\DSP\Source\TransformFunctions/arm_cfft_q31.c **** void arm_cfft_q31(
 568:.\DSP\Source\TransformFunctions/arm_cfft_q31.c ****   const arm_cfft_instance_q31 * S,
 569:.\DSP\Source\TransformFunctions/arm_cfft_q31.c ****         q31_t * pSrc,
 570:.\DSP\Source\TransformFunctions/arm_cfft_q31.c ****         uint8_t ifftFlag,
 571:.\DSP\Source\TransformFunctions/arm_cfft_q31.c ****         uint8_t bitReverseFlag)
 572:.\DSP\Source\TransformFunctions/arm_cfft_q31.c **** {
 573:.\DSP\Source\TransformFunctions/arm_cfft_q31.c ****         uint32_t fftLen = S->fftLen;
 574:.\DSP\Source\TransformFunctions/arm_cfft_q31.c **** 
 575:.\DSP\Source\TransformFunctions/arm_cfft_q31.c ****         if (ifftFlag == 1U) {
 576:.\DSP\Source\TransformFunctions/arm_cfft_q31.c **** 
 577:.\DSP\Source\TransformFunctions/arm_cfft_q31.c ****             switch (fftLen) {
 578:.\DSP\Source\TransformFunctions/arm_cfft_q31.c ****             case 16:
 579:.\DSP\Source\TransformFunctions/arm_cfft_q31.c ****             case 64:
 580:.\DSP\Source\TransformFunctions/arm_cfft_q31.c ****             case 256:
 581:.\DSP\Source\TransformFunctions/arm_cfft_q31.c ****             case 1024:
 582:.\DSP\Source\TransformFunctions/arm_cfft_q31.c ****             case 4096:
 583:.\DSP\Source\TransformFunctions/arm_cfft_q31.c ****                 _arm_radix4_butterfly_inverse_q31_mve(S, pSrc, fftLen);
 584:.\DSP\Source\TransformFunctions/arm_cfft_q31.c ****                 break;
 585:.\DSP\Source\TransformFunctions/arm_cfft_q31.c **** 
 586:.\DSP\Source\TransformFunctions/arm_cfft_q31.c ****             case 32:
 587:.\DSP\Source\TransformFunctions/arm_cfft_q31.c ****             case 128:
 588:.\DSP\Source\TransformFunctions/arm_cfft_q31.c ****             case 512:
 589:.\DSP\Source\TransformFunctions/arm_cfft_q31.c ****             case 2048:
 590:.\DSP\Source\TransformFunctions/arm_cfft_q31.c ****                 arm_cfft_radix4by2_inverse_q31_mve(S, pSrc, fftLen);
 591:.\DSP\Source\TransformFunctions/arm_cfft_q31.c ****                 break;
 592:.\DSP\Source\TransformFunctions/arm_cfft_q31.c ****             }
 593:.\DSP\Source\TransformFunctions/arm_cfft_q31.c ****         } else {
 594:.\DSP\Source\TransformFunctions/arm_cfft_q31.c ****             switch (fftLen) {
 595:.\DSP\Source\TransformFunctions/arm_cfft_q31.c ****             case 16:
 596:.\DSP\Source\TransformFunctions/arm_cfft_q31.c ****             case 64:
 597:.\DSP\Source\TransformFunctions/arm_cfft_q31.c ****             case 256:
 598:.\DSP\Source\TransformFunctions/arm_cfft_q31.c ****             case 1024:
 599:.\DSP\Source\TransformFunctions/arm_cfft_q31.c ****             case 4096:
 600:.\DSP\Source\TransformFunctions/arm_cfft_q31.c ****                 _arm_radix4_butterfly_q31_mve(S, pSrc, fftLen);
 601:.\DSP\Source\TransformFunctions/arm_cfft_q31.c ****                 break;
ARM GAS  C:\Users\IVYLIU~1\AppData\Local\Temp\ccnKQgQF.s 			page 12


 602:.\DSP\Source\TransformFunctions/arm_cfft_q31.c **** 
 603:.\DSP\Source\TransformFunctions/arm_cfft_q31.c ****             case 32:
 604:.\DSP\Source\TransformFunctions/arm_cfft_q31.c ****             case 128:
 605:.\DSP\Source\TransformFunctions/arm_cfft_q31.c ****             case 512:
 606:.\DSP\Source\TransformFunctions/arm_cfft_q31.c ****             case 2048:
 607:.\DSP\Source\TransformFunctions/arm_cfft_q31.c ****                 arm_cfft_radix4by2_q31_mve(S, pSrc, fftLen);
 608:.\DSP\Source\TransformFunctions/arm_cfft_q31.c ****                 break;
 609:.\DSP\Source\TransformFunctions/arm_cfft_q31.c ****             }
 610:.\DSP\Source\TransformFunctions/arm_cfft_q31.c ****         }
 611:.\DSP\Source\TransformFunctions/arm_cfft_q31.c **** 
 612:.\DSP\Source\TransformFunctions/arm_cfft_q31.c **** 
 613:.\DSP\Source\TransformFunctions/arm_cfft_q31.c ****         if (bitReverseFlag)
 614:.\DSP\Source\TransformFunctions/arm_cfft_q31.c ****         {
 615:.\DSP\Source\TransformFunctions/arm_cfft_q31.c **** 
 616:.\DSP\Source\TransformFunctions/arm_cfft_q31.c ****             arm_bitreversal_32_inpl_mve((uint32_t*)pSrc, S->bitRevLength, S->pBitRevTable);
 617:.\DSP\Source\TransformFunctions/arm_cfft_q31.c **** 
 618:.\DSP\Source\TransformFunctions/arm_cfft_q31.c ****         }
 619:.\DSP\Source\TransformFunctions/arm_cfft_q31.c **** }
 620:.\DSP\Source\TransformFunctions/arm_cfft_q31.c **** #else
 621:.\DSP\Source\TransformFunctions/arm_cfft_q31.c **** 
 622:.\DSP\Source\TransformFunctions/arm_cfft_q31.c **** extern void arm_radix4_butterfly_q31(
 623:.\DSP\Source\TransformFunctions/arm_cfft_q31.c ****         q31_t * pSrc,
 624:.\DSP\Source\TransformFunctions/arm_cfft_q31.c ****         uint32_t fftLen,
 625:.\DSP\Source\TransformFunctions/arm_cfft_q31.c ****   const q31_t * pCoef,
 626:.\DSP\Source\TransformFunctions/arm_cfft_q31.c ****         uint32_t twidCoefModifier);
 627:.\DSP\Source\TransformFunctions/arm_cfft_q31.c **** 
 628:.\DSP\Source\TransformFunctions/arm_cfft_q31.c **** extern void arm_radix4_butterfly_inverse_q31(
 629:.\DSP\Source\TransformFunctions/arm_cfft_q31.c ****         q31_t * pSrc,
 630:.\DSP\Source\TransformFunctions/arm_cfft_q31.c ****         uint32_t fftLen,
 631:.\DSP\Source\TransformFunctions/arm_cfft_q31.c ****   const q31_t * pCoef,
 632:.\DSP\Source\TransformFunctions/arm_cfft_q31.c ****         uint32_t twidCoefModifier);
 633:.\DSP\Source\TransformFunctions/arm_cfft_q31.c **** 
 634:.\DSP\Source\TransformFunctions/arm_cfft_q31.c **** extern void arm_bitreversal_32(
 635:.\DSP\Source\TransformFunctions/arm_cfft_q31.c ****         uint32_t * pSrc,
 636:.\DSP\Source\TransformFunctions/arm_cfft_q31.c ****   const uint16_t bitRevLen,
 637:.\DSP\Source\TransformFunctions/arm_cfft_q31.c ****   const uint16_t * pBitRevTable);
 638:.\DSP\Source\TransformFunctions/arm_cfft_q31.c **** 
 639:.\DSP\Source\TransformFunctions/arm_cfft_q31.c **** void arm_cfft_radix4by2_q31(
 640:.\DSP\Source\TransformFunctions/arm_cfft_q31.c ****         q31_t * pSrc,
 641:.\DSP\Source\TransformFunctions/arm_cfft_q31.c ****         uint32_t fftLen,
 642:.\DSP\Source\TransformFunctions/arm_cfft_q31.c ****   const q31_t * pCoef);
 643:.\DSP\Source\TransformFunctions/arm_cfft_q31.c **** 
 644:.\DSP\Source\TransformFunctions/arm_cfft_q31.c **** void arm_cfft_radix4by2_inverse_q31(
 645:.\DSP\Source\TransformFunctions/arm_cfft_q31.c ****         q31_t * pSrc,
 646:.\DSP\Source\TransformFunctions/arm_cfft_q31.c ****         uint32_t fftLen,
 647:.\DSP\Source\TransformFunctions/arm_cfft_q31.c ****   const q31_t * pCoef);
 648:.\DSP\Source\TransformFunctions/arm_cfft_q31.c **** 
 649:.\DSP\Source\TransformFunctions/arm_cfft_q31.c **** 
 650:.\DSP\Source\TransformFunctions/arm_cfft_q31.c **** /**
 651:.\DSP\Source\TransformFunctions/arm_cfft_q31.c ****   @ingroup groupTransforms
 652:.\DSP\Source\TransformFunctions/arm_cfft_q31.c ****  */
 653:.\DSP\Source\TransformFunctions/arm_cfft_q31.c **** 
 654:.\DSP\Source\TransformFunctions/arm_cfft_q31.c **** /**
 655:.\DSP\Source\TransformFunctions/arm_cfft_q31.c ****   @addtogroup ComplexFFT
 656:.\DSP\Source\TransformFunctions/arm_cfft_q31.c ****   @{
 657:.\DSP\Source\TransformFunctions/arm_cfft_q31.c ****  */
 658:.\DSP\Source\TransformFunctions/arm_cfft_q31.c **** 
ARM GAS  C:\Users\IVYLIU~1\AppData\Local\Temp\ccnKQgQF.s 			page 13


 659:.\DSP\Source\TransformFunctions/arm_cfft_q31.c **** /**
 660:.\DSP\Source\TransformFunctions/arm_cfft_q31.c ****   @brief         Processing function for the Q31 complex FFT.
 661:.\DSP\Source\TransformFunctions/arm_cfft_q31.c ****   @param[in]     S               points to an instance of the fixed-point CFFT structure
 662:.\DSP\Source\TransformFunctions/arm_cfft_q31.c ****   @param[in,out] p1              points to the complex data buffer of size <code>2*fftLen</code>. P
 663:.\DSP\Source\TransformFunctions/arm_cfft_q31.c ****   @param[in]     ifftFlag       flag that selects transform direction
 664:.\DSP\Source\TransformFunctions/arm_cfft_q31.c ****                    - value = 0: forward transform
 665:.\DSP\Source\TransformFunctions/arm_cfft_q31.c ****                    - value = 1: inverse transform
 666:.\DSP\Source\TransformFunctions/arm_cfft_q31.c ****   @param[in]     bitReverseFlag flag that enables / disables bit reversal of output
 667:.\DSP\Source\TransformFunctions/arm_cfft_q31.c ****                    - value = 0: disables bit reversal of output
 668:.\DSP\Source\TransformFunctions/arm_cfft_q31.c ****                    - value = 1: enables bit reversal of output
 669:.\DSP\Source\TransformFunctions/arm_cfft_q31.c ****   @return        none
 670:.\DSP\Source\TransformFunctions/arm_cfft_q31.c ****  */
 671:.\DSP\Source\TransformFunctions/arm_cfft_q31.c **** void arm_cfft_q31(
 672:.\DSP\Source\TransformFunctions/arm_cfft_q31.c ****   const arm_cfft_instance_q31 * S,
 673:.\DSP\Source\TransformFunctions/arm_cfft_q31.c ****         q31_t * p1,
 674:.\DSP\Source\TransformFunctions/arm_cfft_q31.c ****         uint8_t ifftFlag,
 675:.\DSP\Source\TransformFunctions/arm_cfft_q31.c ****         uint8_t bitReverseFlag)
 676:.\DSP\Source\TransformFunctions/arm_cfft_q31.c **** {
 677:.\DSP\Source\TransformFunctions/arm_cfft_q31.c ****   uint32_t L = S->fftLen;
 678:.\DSP\Source\TransformFunctions/arm_cfft_q31.c **** 
 679:.\DSP\Source\TransformFunctions/arm_cfft_q31.c ****   if (ifftFlag == 1U)
 680:.\DSP\Source\TransformFunctions/arm_cfft_q31.c ****   {
 681:.\DSP\Source\TransformFunctions/arm_cfft_q31.c ****      switch (L)
 682:.\DSP\Source\TransformFunctions/arm_cfft_q31.c ****      {
 683:.\DSP\Source\TransformFunctions/arm_cfft_q31.c ****      case 16:
 684:.\DSP\Source\TransformFunctions/arm_cfft_q31.c ****      case 64:
 685:.\DSP\Source\TransformFunctions/arm_cfft_q31.c ****      case 256:
 686:.\DSP\Source\TransformFunctions/arm_cfft_q31.c ****      case 1024:
 687:.\DSP\Source\TransformFunctions/arm_cfft_q31.c ****      case 4096:
 688:.\DSP\Source\TransformFunctions/arm_cfft_q31.c ****        arm_radix4_butterfly_inverse_q31 ( p1, L, (q31_t*)S->pTwiddle, 1 );
 689:.\DSP\Source\TransformFunctions/arm_cfft_q31.c ****        break;
 690:.\DSP\Source\TransformFunctions/arm_cfft_q31.c **** 
 691:.\DSP\Source\TransformFunctions/arm_cfft_q31.c ****      case 32:
 692:.\DSP\Source\TransformFunctions/arm_cfft_q31.c ****      case 128:
 693:.\DSP\Source\TransformFunctions/arm_cfft_q31.c ****      case 512:
 694:.\DSP\Source\TransformFunctions/arm_cfft_q31.c ****      case 2048:
 695:.\DSP\Source\TransformFunctions/arm_cfft_q31.c ****        arm_cfft_radix4by2_inverse_q31 ( p1, L, S->pTwiddle );
 696:.\DSP\Source\TransformFunctions/arm_cfft_q31.c ****        break;
 697:.\DSP\Source\TransformFunctions/arm_cfft_q31.c ****      }
 698:.\DSP\Source\TransformFunctions/arm_cfft_q31.c ****   }
 699:.\DSP\Source\TransformFunctions/arm_cfft_q31.c ****   else
 700:.\DSP\Source\TransformFunctions/arm_cfft_q31.c ****   {
 701:.\DSP\Source\TransformFunctions/arm_cfft_q31.c ****      switch (L)
 702:.\DSP\Source\TransformFunctions/arm_cfft_q31.c ****      {
 703:.\DSP\Source\TransformFunctions/arm_cfft_q31.c ****      case 16:
 704:.\DSP\Source\TransformFunctions/arm_cfft_q31.c ****      case 64:
 705:.\DSP\Source\TransformFunctions/arm_cfft_q31.c ****      case 256:
 706:.\DSP\Source\TransformFunctions/arm_cfft_q31.c ****      case 1024:
 707:.\DSP\Source\TransformFunctions/arm_cfft_q31.c ****      case 4096:
 708:.\DSP\Source\TransformFunctions/arm_cfft_q31.c ****        arm_radix4_butterfly_q31 ( p1, L, (q31_t*)S->pTwiddle, 1 );
 709:.\DSP\Source\TransformFunctions/arm_cfft_q31.c ****        break;
 710:.\DSP\Source\TransformFunctions/arm_cfft_q31.c **** 
 711:.\DSP\Source\TransformFunctions/arm_cfft_q31.c ****      case 32:
 712:.\DSP\Source\TransformFunctions/arm_cfft_q31.c ****      case 128:
 713:.\DSP\Source\TransformFunctions/arm_cfft_q31.c ****      case 512:
 714:.\DSP\Source\TransformFunctions/arm_cfft_q31.c ****      case 2048:
 715:.\DSP\Source\TransformFunctions/arm_cfft_q31.c ****        arm_cfft_radix4by2_q31 ( p1, L, S->pTwiddle );
ARM GAS  C:\Users\IVYLIU~1\AppData\Local\Temp\ccnKQgQF.s 			page 14


 716:.\DSP\Source\TransformFunctions/arm_cfft_q31.c ****        break;
 717:.\DSP\Source\TransformFunctions/arm_cfft_q31.c ****      }
 718:.\DSP\Source\TransformFunctions/arm_cfft_q31.c ****   }
 719:.\DSP\Source\TransformFunctions/arm_cfft_q31.c **** 
 720:.\DSP\Source\TransformFunctions/arm_cfft_q31.c ****   if ( bitReverseFlag )
 721:.\DSP\Source\TransformFunctions/arm_cfft_q31.c ****     arm_bitreversal_32 ((uint32_t*) p1, S->bitRevLength, S->pBitRevTable);
 722:.\DSP\Source\TransformFunctions/arm_cfft_q31.c **** }
 723:.\DSP\Source\TransformFunctions/arm_cfft_q31.c **** 
 724:.\DSP\Source\TransformFunctions/arm_cfft_q31.c **** /**
 725:.\DSP\Source\TransformFunctions/arm_cfft_q31.c ****   @} end of ComplexFFT group
 726:.\DSP\Source\TransformFunctions/arm_cfft_q31.c ****  */
 727:.\DSP\Source\TransformFunctions/arm_cfft_q31.c **** 
 728:.\DSP\Source\TransformFunctions/arm_cfft_q31.c **** void arm_cfft_radix4by2_q31(
 729:.\DSP\Source\TransformFunctions/arm_cfft_q31.c ****         q31_t * pSrc,
 730:.\DSP\Source\TransformFunctions/arm_cfft_q31.c ****         uint32_t fftLen,
 731:.\DSP\Source\TransformFunctions/arm_cfft_q31.c ****   const q31_t * pCoef)
 732:.\DSP\Source\TransformFunctions/arm_cfft_q31.c **** {
  27              		.loc 1 732 0
  28              		.cfi_startproc
  29              		@ args = 0, pretend = 0, frame = 56
  30              		@ frame_needed = 0, uses_anonymous_args = 0
  31              	.LVL0:
  32 0000 2DE9F04F 		push	{r4, r5, r6, r7, r8, r9, r10, fp, lr}
  33              		.cfi_def_cfa_offset 36
  34              		.cfi_offset 4, -36
  35              		.cfi_offset 5, -32
  36              		.cfi_offset 6, -28
  37              		.cfi_offset 7, -24
  38              		.cfi_offset 8, -20
  39              		.cfi_offset 9, -16
  40              		.cfi_offset 10, -12
  41              		.cfi_offset 11, -8
  42              		.cfi_offset 14, -4
  43 0004 8FB0     		sub	sp, sp, #60
  44              		.cfi_def_cfa_offset 96
  45 0006 0746     		mov	r7, r0
  46 0008 0D91     		str	r1, [sp, #52]
  47 000a 0C92     		str	r2, [sp, #48]
 733:.\DSP\Source\TransformFunctions/arm_cfft_q31.c ****         uint32_t i, l;
 734:.\DSP\Source\TransformFunctions/arm_cfft_q31.c ****         uint32_t n2;
 735:.\DSP\Source\TransformFunctions/arm_cfft_q31.c ****         q31_t xt, yt, cosVal, sinVal;
 736:.\DSP\Source\TransformFunctions/arm_cfft_q31.c ****         q31_t p0, p1;
 737:.\DSP\Source\TransformFunctions/arm_cfft_q31.c **** 
 738:.\DSP\Source\TransformFunctions/arm_cfft_q31.c ****   n2 = fftLen >> 1U;
  48              		.loc 1 738 0
  49 000c 4B08     		lsrs	r3, r1, #1
  50 000e 0593     		str	r3, [sp, #20]
  51              	.LVL1:
 739:.\DSP\Source\TransformFunctions/arm_cfft_q31.c ****   for (i = 0; i < n2; i++)
  52              		.loc 1 739 0
  53 0010 4FF0000E 		mov	lr, #0
  54 0014 7EE0     		b	.L2
  55              	.LVL2:
  56              	.L3:
 740:.\DSP\Source\TransformFunctions/arm_cfft_q31.c ****   {
 741:.\DSP\Source\TransformFunctions/arm_cfft_q31.c ****      cosVal = pCoef[2 * i];
  57              		.loc 1 741 0 discriminator 3
ARM GAS  C:\Users\IVYLIU~1\AppData\Local\Temp\ccnKQgQF.s 			page 15


  58 0016 4FEACE01 		lsl	r1, lr, #3
  59 001a 0C9A     		ldr	r2, [sp, #48]
  60 001c 52F83E00 		ldr	r0, [r2, lr, lsl #3]
  61              	.LVL3:
 742:.\DSP\Source\TransformFunctions/arm_cfft_q31.c ****      sinVal = pCoef[2 * i + 1];
  62              		.loc 1 742 0 discriminator 3
  63 0020 0431     		adds	r1, r1, #4
  64 0022 5458     		ldr	r4, [r2, r1]
  65              	.LVL4:
 743:.\DSP\Source\TransformFunctions/arm_cfft_q31.c **** 
 744:.\DSP\Source\TransformFunctions/arm_cfft_q31.c ****      l = i + n2;
  66              		.loc 1 744 0 discriminator 3
  67 0024 059B     		ldr	r3, [sp, #20]
  68 0026 0EEB0305 		add	r5, lr, r3
  69              	.LVL5:
 745:.\DSP\Source\TransformFunctions/arm_cfft_q31.c **** 
 746:.\DSP\Source\TransformFunctions/arm_cfft_q31.c ****      xt =          (pSrc[2 * i] >> 2U) - (pSrc[2 * l] >> 2U);
  70              		.loc 1 746 0 discriminator 3
  71 002a 57F83E30 		ldr	r3, [r7, lr, lsl #3]
  72 002e 9A10     		asrs	r2, r3, #2
  73 0030 EE00     		lsls	r6, r5, #3
  74 0032 57F83530 		ldr	r3, [r7, r5, lsl #3]
  75 0036 4FEAA30C 		asr	ip, r3, #2
  76 003a CCEB0203 		rsb	r3, ip, r2
  77              	.LVL6:
 747:.\DSP\Source\TransformFunctions/arm_cfft_q31.c ****      pSrc[2 * i] = (pSrc[2 * i] >> 2U) + (pSrc[2 * l] >> 2U);
  78              		.loc 1 747 0 discriminator 3
  79 003e 6244     		add	r2, r2, ip
  80 0040 47F83E20 		str	r2, [r7, lr, lsl #3]
 748:.\DSP\Source\TransformFunctions/arm_cfft_q31.c **** 
 749:.\DSP\Source\TransformFunctions/arm_cfft_q31.c ****      yt =              (pSrc[2 * i + 1] >> 2U) - (pSrc[2 * l + 1] >> 2U);
  81              		.loc 1 749 0 discriminator 3
  82 0044 7A58     		ldr	r2, [r7, r1]
  83 0046 4FEAA208 		asr	r8, r2, #2
  84 004a 0436     		adds	r6, r6, #4
  85 004c BA59     		ldr	r2, [r7, r6]
  86 004e 4FEAA20C 		asr	ip, r2, #2
  87 0052 CCEB0802 		rsb	r2, ip, r8
  88              	.LVL7:
 750:.\DSP\Source\TransformFunctions/arm_cfft_q31.c ****      pSrc[2 * i + 1] = (pSrc[2 * l + 1] >> 2U) + (pSrc[2 * i + 1] >> 2U);
  89              		.loc 1 750 0 discriminator 3
  90 0056 C444     		add	ip, ip, r8
  91 0058 47F801C0 		str	ip, [r7, r1]
 751:.\DSP\Source\TransformFunctions/arm_cfft_q31.c **** 
 752:.\DSP\Source\TransformFunctions/arm_cfft_q31.c ****      mult_32x32_keep32_R(p0, xt, cosVal);
  92              		.loc 1 752 0 discriminator 3
  93 005c 9846     		mov	r8, r3
  94 005e 4FEAE379 		asr	r9, r3, #31
  95 0062 8246     		mov	r10, r0
  96 0064 4FEAE07B 		asr	fp, r0, #31
  97 0068 CDE908AB 		strd	r10, [sp, #32]
  98 006c 03FB0BFC 		mul	ip, r3, fp
  99 0070 CDE90689 		strd	r8, [sp, #24]
 100 0074 00FB09C1 		mla	r1, r0, r9, ip
 101 0078 A3FB0089 		umull	r8, r9, r3, r0
 102 007c 8944     		add	r9, r9, r1
 103 007e 18F1004A 		adds	r10, r8, #-2147483648
ARM GAS  C:\Users\IVYLIU~1\AppData\Local\Temp\ccnKQgQF.s 			page 16


 104 0082 49F1000B 		adc	fp, r9, #0
 105 0086 CDE90AAB 		strd	r10, [sp, #40]
 106              	.LVL8:
 753:.\DSP\Source\TransformFunctions/arm_cfft_q31.c ****      mult_32x32_keep32_R(p1, yt, cosVal);
 107              		.loc 1 753 0 discriminator 3
 108 008a 4FEAE279 		asr	r9, r2, #31
 109 008e 00FB09FC 		mul	ip, r0, r9
 110 0092 0999     		ldr	r1, [sp, #36]
 111 0094 02FB01CC 		mla	ip, r2, r1, ip
 112 0098 A0FB0201 		umull	r0, r1, r0, r2
 113              	.LVL9:
 114 009c 6144     		add	r1, r1, ip
 115 009e 10F1004A 		adds	r10, r0, #-2147483648
 116 00a2 41F1000B 		adc	fp, r1, #0
 117 00a6 CDE908AB 		strd	r10, [sp, #32]
 118              	.LVL10:
 754:.\DSP\Source\TransformFunctions/arm_cfft_q31.c ****      multAcc_32x32_keep32_R(p0, yt, sinVal);
 119              		.loc 1 754 0 discriminator 3
 120 00aa 0B99     		ldr	r1, [sp, #44]
 121 00ac 0191     		str	r1, [sp, #4]
 122 00ae 0021     		movs	r1, #0
 123 00b0 0091     		str	r1, [sp]
 124 00b2 E117     		asrs	r1, r4, #31
 125 00b4 02FB01F0 		mul	r0, r2, r1
 126 00b8 04FB0900 		mla	r0, r4, r9, r0
 127 00bc A2FB0489 		umull	r8, r9, r2, r4
 128 00c0 8144     		add	r9, r9, r0
 129 00c2 DDE900AB 		ldrd	r10, [sp]
 130 00c6 1AEB080A 		adds	r10, r10, r8
 131 00ca 4BEB090B 		adc	fp, fp, r9
 132 00ce D046     		mov	r8, r10
 133 00d0 18F10048 		adds	r8, r8, #-2147483648
 134 00d4 4BF10009 		adc	r9, fp, #0
 135              	.LVL11:
 755:.\DSP\Source\TransformFunctions/arm_cfft_q31.c ****      multSub_32x32_keep32_R(p1, xt, sinVal);
 136              		.loc 1 755 0 discriminator 3
 137 00d8 099A     		ldr	r2, [sp, #36]
 138              	.LVL12:
 139 00da 0392     		str	r2, [sp, #12]
 140 00dc 0022     		movs	r2, #0
 141 00de 0292     		str	r2, [sp, #8]
 142 00e0 03FB01F1 		mul	r1, r3, r1
 143 00e4 079A     		ldr	r2, [sp, #28]
 144 00e6 04FB0211 		mla	r1, r4, r2, r1
 145 00ea A3FB0423 		umull	r2, r3, r3, r4
 146 00ee 0B44     		add	r3, r3, r1
 147              	.LVL13:
 148 00f0 DDE90201 		ldrd	r0, [sp, #8]
 149 00f4 801A     		subs	r0, r0, r2
 150 00f6 61EB0301 		sbc	r1, r1, r3
 151 00fa 0246     		mov	r2, r0
 152 00fc 12F10042 		adds	r2, r2, #-2147483648
 153 0100 41F10003 		adc	r3, r1, #0
 154              	.LVL14:
 756:.\DSP\Source\TransformFunctions/arm_cfft_q31.c **** 
 757:.\DSP\Source\TransformFunctions/arm_cfft_q31.c ****      pSrc[2 * l]     = p0 << 1;
 155              		.loc 1 757 0 discriminator 3
ARM GAS  C:\Users\IVYLIU~1\AppData\Local\Temp\ccnKQgQF.s 			page 17


 156 0104 4FEA4902 		lsl	r2, r9, #1
 157 0108 47F83520 		str	r2, [r7, r5, lsl #3]
 758:.\DSP\Source\TransformFunctions/arm_cfft_q31.c ****      pSrc[2 * l + 1] = p1 << 1;
 158              		.loc 1 758 0 discriminator 3
 159 010c 5B00     		lsls	r3, r3, #1
 160              	.LVL15:
 161 010e BB51     		str	r3, [r7, r6]
 739:.\DSP\Source\TransformFunctions/arm_cfft_q31.c ****   {
 162              		.loc 1 739 0 discriminator 3
 163 0110 0EF1010E 		add	lr, lr, #1
 164              	.LVL16:
 165              	.L2:
 739:.\DSP\Source\TransformFunctions/arm_cfft_q31.c ****   {
 166              		.loc 1 739 0 is_stmt 0 discriminator 1
 167 0114 059B     		ldr	r3, [sp, #20]
 168 0116 9E45     		cmp	lr, r3
 169 0118 FFF47DAF 		bcc	.L3
 759:.\DSP\Source\TransformFunctions/arm_cfft_q31.c ****   }
 760:.\DSP\Source\TransformFunctions/arm_cfft_q31.c **** 
 761:.\DSP\Source\TransformFunctions/arm_cfft_q31.c **** 
 762:.\DSP\Source\TransformFunctions/arm_cfft_q31.c ****   /* first col */
 763:.\DSP\Source\TransformFunctions/arm_cfft_q31.c ****   arm_radix4_butterfly_q31 (pSrc,          n2, (q31_t*)pCoef, 2U);
 170              		.loc 1 763 0 is_stmt 1
 171 011c 3846     		mov	r0, r7
 172 011e 9846     		mov	r8, r3
 173 0120 1946     		mov	r1, r3
 174 0122 0C9C     		ldr	r4, [sp, #48]
 175 0124 2246     		mov	r2, r4
 176 0126 0223     		movs	r3, #2
 177 0128 FFF7FEFF 		bl	arm_radix4_butterfly_q31
 178              	.LVL17:
 764:.\DSP\Source\TransformFunctions/arm_cfft_q31.c **** 
 765:.\DSP\Source\TransformFunctions/arm_cfft_q31.c ****   /* second col */
 766:.\DSP\Source\TransformFunctions/arm_cfft_q31.c ****   arm_radix4_butterfly_q31 (pSrc + fftLen, n2, (q31_t*)pCoef, 2U);
 179              		.loc 1 766 0
 180 012c 0D9B     		ldr	r3, [sp, #52]
 181 012e 07EB8300 		add	r0, r7, r3, lsl #2
 182 0132 4146     		mov	r1, r8
 183 0134 2246     		mov	r2, r4
 184 0136 0223     		movs	r3, #2
 185 0138 FFF7FEFF 		bl	arm_radix4_butterfly_q31
 186              	.LVL18:
 767:.\DSP\Source\TransformFunctions/arm_cfft_q31.c **** 
 768:.\DSP\Source\TransformFunctions/arm_cfft_q31.c ****   n2 = fftLen >> 1U;
 769:.\DSP\Source\TransformFunctions/arm_cfft_q31.c ****   for (i = 0; i < n2; i++)
 187              		.loc 1 769 0
 188 013c 0022     		movs	r2, #0
 189 013e 17E0     		b	.L4
 190              	.LVL19:
 191              	.L5:
 770:.\DSP\Source\TransformFunctions/arm_cfft_q31.c ****   {
 771:.\DSP\Source\TransformFunctions/arm_cfft_q31.c ****      p0 = pSrc[4 * i + 0];
 192              		.loc 1 771 0 discriminator 3
 193 0140 1301     		lsls	r3, r2, #4
 194 0142 FD58     		ldr	r5, [r7, r3]
 195              	.LVL20:
 772:.\DSP\Source\TransformFunctions/arm_cfft_q31.c ****      p1 = pSrc[4 * i + 1];
ARM GAS  C:\Users\IVYLIU~1\AppData\Local\Temp\ccnKQgQF.s 			page 18


 196              		.loc 1 772 0 discriminator 3
 197 0144 03F1040C 		add	ip, r3, #4
 198 0148 57F80C40 		ldr	r4, [r7, ip]
 199              	.LVL21:
 773:.\DSP\Source\TransformFunctions/arm_cfft_q31.c ****      xt = pSrc[4 * i + 2];
 200              		.loc 1 773 0 discriminator 3
 201 014c 03F1080E 		add	lr, r3, #8
 202 0150 57F80E00 		ldr	r0, [r7, lr]
 203              	.LVL22:
 774:.\DSP\Source\TransformFunctions/arm_cfft_q31.c ****      yt = pSrc[4 * i + 3];
 204              		.loc 1 774 0 discriminator 3
 205 0154 03F10C06 		add	r6, r3, #12
 206 0158 B959     		ldr	r1, [r7, r6]
 207              	.LVL23:
 775:.\DSP\Source\TransformFunctions/arm_cfft_q31.c **** 
 776:.\DSP\Source\TransformFunctions/arm_cfft_q31.c ****      p0 <<= 1U;
 208              		.loc 1 776 0 discriminator 3
 209 015a 6D00     		lsls	r5, r5, #1
 210              	.LVL24:
 777:.\DSP\Source\TransformFunctions/arm_cfft_q31.c ****      p1 <<= 1U;
 211              		.loc 1 777 0 discriminator 3
 212 015c 6400     		lsls	r4, r4, #1
 213              	.LVL25:
 778:.\DSP\Source\TransformFunctions/arm_cfft_q31.c ****      xt <<= 1U;
 214              		.loc 1 778 0 discriminator 3
 215 015e 4000     		lsls	r0, r0, #1
 216              	.LVL26:
 779:.\DSP\Source\TransformFunctions/arm_cfft_q31.c ****      yt <<= 1U;
 217              		.loc 1 779 0 discriminator 3
 218 0160 4900     		lsls	r1, r1, #1
 219              	.LVL27:
 780:.\DSP\Source\TransformFunctions/arm_cfft_q31.c **** 
 781:.\DSP\Source\TransformFunctions/arm_cfft_q31.c ****      pSrc[4 * i + 0] = p0;
 220              		.loc 1 781 0 discriminator 3
 221 0162 FD50     		str	r5, [r7, r3]
 782:.\DSP\Source\TransformFunctions/arm_cfft_q31.c ****      pSrc[4 * i + 1] = p1;
 222              		.loc 1 782 0 discriminator 3
 223 0164 47F80C40 		str	r4, [r7, ip]
 783:.\DSP\Source\TransformFunctions/arm_cfft_q31.c ****      pSrc[4 * i + 2] = xt;
 224              		.loc 1 783 0 discriminator 3
 225 0168 47F80E00 		str	r0, [r7, lr]
 784:.\DSP\Source\TransformFunctions/arm_cfft_q31.c ****      pSrc[4 * i + 3] = yt;
 226              		.loc 1 784 0 discriminator 3
 227 016c B951     		str	r1, [r7, r6]
 769:.\DSP\Source\TransformFunctions/arm_cfft_q31.c ****   {
 228              		.loc 1 769 0 discriminator 3
 229 016e 0132     		adds	r2, r2, #1
 230              	.LVL28:
 231              	.L4:
 769:.\DSP\Source\TransformFunctions/arm_cfft_q31.c ****   {
 232              		.loc 1 769 0 is_stmt 0 discriminator 1
 233 0170 4245     		cmp	r2, r8
 234 0172 E5D3     		bcc	.L5
 785:.\DSP\Source\TransformFunctions/arm_cfft_q31.c ****   }
 786:.\DSP\Source\TransformFunctions/arm_cfft_q31.c **** 
 787:.\DSP\Source\TransformFunctions/arm_cfft_q31.c **** }
 235              		.loc 1 787 0 is_stmt 1
ARM GAS  C:\Users\IVYLIU~1\AppData\Local\Temp\ccnKQgQF.s 			page 19


 236 0174 0FB0     		add	sp, sp, #60
 237              		.cfi_def_cfa_offset 36
 238              		@ sp needed
 239 0176 BDE8F08F 		pop	{r4, r5, r6, r7, r8, r9, r10, fp, pc}
 240              		.cfi_endproc
 241              	.LFE85:
 242              		.size	arm_cfft_radix4by2_q31, .-arm_cfft_radix4by2_q31
 243 017a 00BF     		.section	.text.arm_cfft_radix4by2_inverse_q31,"ax",%progbits
 244              		.align	2
 245              		.global	arm_cfft_radix4by2_inverse_q31
 246              		.thumb
 247              		.thumb_func
 248              		.type	arm_cfft_radix4by2_inverse_q31, %function
 249              	arm_cfft_radix4by2_inverse_q31:
 250              	.LFB86:
 788:.\DSP\Source\TransformFunctions/arm_cfft_q31.c **** 
 789:.\DSP\Source\TransformFunctions/arm_cfft_q31.c **** void arm_cfft_radix4by2_inverse_q31(
 790:.\DSP\Source\TransformFunctions/arm_cfft_q31.c ****         q31_t * pSrc,
 791:.\DSP\Source\TransformFunctions/arm_cfft_q31.c ****         uint32_t fftLen,
 792:.\DSP\Source\TransformFunctions/arm_cfft_q31.c ****   const q31_t * pCoef)
 793:.\DSP\Source\TransformFunctions/arm_cfft_q31.c **** {
 251              		.loc 1 793 0
 252              		.cfi_startproc
 253              		@ args = 0, pretend = 0, frame = 56
 254              		@ frame_needed = 0, uses_anonymous_args = 0
 255              	.LVL29:
 256 0000 2DE9F04F 		push	{r4, r5, r6, r7, r8, r9, r10, fp, lr}
 257              		.cfi_def_cfa_offset 36
 258              		.cfi_offset 4, -36
 259              		.cfi_offset 5, -32
 260              		.cfi_offset 6, -28
 261              		.cfi_offset 7, -24
 262              		.cfi_offset 8, -20
 263              		.cfi_offset 9, -16
 264              		.cfi_offset 10, -12
 265              		.cfi_offset 11, -8
 266              		.cfi_offset 14, -4
 267 0004 8FB0     		sub	sp, sp, #60
 268              		.cfi_def_cfa_offset 96
 269 0006 0746     		mov	r7, r0
 270 0008 0D91     		str	r1, [sp, #52]
 271 000a 0C92     		str	r2, [sp, #48]
 794:.\DSP\Source\TransformFunctions/arm_cfft_q31.c ****   uint32_t i, l;
 795:.\DSP\Source\TransformFunctions/arm_cfft_q31.c ****   uint32_t n2;
 796:.\DSP\Source\TransformFunctions/arm_cfft_q31.c ****   q31_t xt, yt, cosVal, sinVal;
 797:.\DSP\Source\TransformFunctions/arm_cfft_q31.c ****   q31_t p0, p1;
 798:.\DSP\Source\TransformFunctions/arm_cfft_q31.c **** 
 799:.\DSP\Source\TransformFunctions/arm_cfft_q31.c ****   n2 = fftLen >> 1U;
 272              		.loc 1 799 0
 273 000c 4B08     		lsrs	r3, r1, #1
 274 000e 0593     		str	r3, [sp, #20]
 275              	.LVL30:
 800:.\DSP\Source\TransformFunctions/arm_cfft_q31.c ****   for (i = 0; i < n2; i++)
 276              		.loc 1 800 0
 277 0010 4FF0000E 		mov	lr, #0
 278 0014 7DE0     		b	.L8
 279              	.LVL31:
ARM GAS  C:\Users\IVYLIU~1\AppData\Local\Temp\ccnKQgQF.s 			page 20


 280              	.L9:
 801:.\DSP\Source\TransformFunctions/arm_cfft_q31.c ****   {
 802:.\DSP\Source\TransformFunctions/arm_cfft_q31.c ****      cosVal = pCoef[2 * i];
 281              		.loc 1 802 0 discriminator 3
 282 0016 4FEACE01 		lsl	r1, lr, #3
 283 001a 0C9A     		ldr	r2, [sp, #48]
 284 001c 52F83E00 		ldr	r0, [r2, lr, lsl #3]
 285              	.LVL32:
 803:.\DSP\Source\TransformFunctions/arm_cfft_q31.c ****      sinVal = pCoef[2 * i + 1];
 286              		.loc 1 803 0 discriminator 3
 287 0020 0431     		adds	r1, r1, #4
 288 0022 5458     		ldr	r4, [r2, r1]
 289              	.LVL33:
 804:.\DSP\Source\TransformFunctions/arm_cfft_q31.c **** 
 805:.\DSP\Source\TransformFunctions/arm_cfft_q31.c ****      l = i + n2;
 290              		.loc 1 805 0 discriminator 3
 291 0024 059B     		ldr	r3, [sp, #20]
 292 0026 0EEB0305 		add	r5, lr, r3
 293              	.LVL34:
 806:.\DSP\Source\TransformFunctions/arm_cfft_q31.c **** 
 807:.\DSP\Source\TransformFunctions/arm_cfft_q31.c ****      xt =          (pSrc[2 * i] >> 2U) - (pSrc[2 * l] >> 2U);
 294              		.loc 1 807 0 discriminator 3
 295 002a 57F83E30 		ldr	r3, [r7, lr, lsl #3]
 296 002e 9A10     		asrs	r2, r3, #2
 297 0030 EE00     		lsls	r6, r5, #3
 298 0032 57F83530 		ldr	r3, [r7, r5, lsl #3]
 299 0036 4FEAA30C 		asr	ip, r3, #2
 300 003a CCEB0203 		rsb	r3, ip, r2
 301              	.LVL35:
 808:.\DSP\Source\TransformFunctions/arm_cfft_q31.c ****      pSrc[2 * i] = (pSrc[2 * i] >> 2U) + (pSrc[2 * l] >> 2U);
 302              		.loc 1 808 0 discriminator 3
 303 003e 6244     		add	r2, r2, ip
 304 0040 47F83E20 		str	r2, [r7, lr, lsl #3]
 809:.\DSP\Source\TransformFunctions/arm_cfft_q31.c **** 
 810:.\DSP\Source\TransformFunctions/arm_cfft_q31.c ****      yt =              (pSrc[2 * i + 1] >> 2U) - (pSrc[2 * l + 1] >> 2U);
 305              		.loc 1 810 0 discriminator 3
 306 0044 7A58     		ldr	r2, [r7, r1]
 307 0046 4FEAA208 		asr	r8, r2, #2
 308 004a 0436     		adds	r6, r6, #4
 309 004c BA59     		ldr	r2, [r7, r6]
 310 004e 4FEAA20C 		asr	ip, r2, #2
 311 0052 CCEB0802 		rsb	r2, ip, r8
 312              	.LVL36:
 811:.\DSP\Source\TransformFunctions/arm_cfft_q31.c ****      pSrc[2 * i + 1] = (pSrc[2 * l + 1] >> 2U) + (pSrc[2 * i + 1] >> 2U);
 313              		.loc 1 811 0 discriminator 3
 314 0056 C444     		add	ip, ip, r8
 315 0058 47F801C0 		str	ip, [r7, r1]
 812:.\DSP\Source\TransformFunctions/arm_cfft_q31.c **** 
 813:.\DSP\Source\TransformFunctions/arm_cfft_q31.c ****      mult_32x32_keep32_R(p0, xt, cosVal);
 316              		.loc 1 813 0 discriminator 3
 317 005c 9846     		mov	r8, r3
 318 005e 4FEAE379 		asr	r9, r3, #31
 319 0062 8246     		mov	r10, r0
 320 0064 4FEAE07B 		asr	fp, r0, #31
 321 0068 CDE908AB 		strd	r10, [sp, #32]
 322 006c 03FB0BFC 		mul	ip, r3, fp
 323 0070 CDE90689 		strd	r8, [sp, #24]
ARM GAS  C:\Users\IVYLIU~1\AppData\Local\Temp\ccnKQgQF.s 			page 21


 324 0074 00FB09C1 		mla	r1, r0, r9, ip
 325 0078 A3FB0089 		umull	r8, r9, r3, r0
 326 007c 8944     		add	r9, r9, r1
 327 007e 18F1004A 		adds	r10, r8, #-2147483648
 328 0082 49F1000B 		adc	fp, r9, #0
 329 0086 CDE90AAB 		strd	r10, [sp, #40]
 330              	.LVL37:
 814:.\DSP\Source\TransformFunctions/arm_cfft_q31.c ****      mult_32x32_keep32_R(p1, yt, cosVal);
 331              		.loc 1 814 0 discriminator 3
 332 008a 4FEAE279 		asr	r9, r2, #31
 333 008e 00FB09FC 		mul	ip, r0, r9
 334 0092 0999     		ldr	r1, [sp, #36]
 335 0094 02FB01CC 		mla	ip, r2, r1, ip
 336 0098 A0FB0201 		umull	r0, r1, r0, r2
 337              	.LVL38:
 338 009c 6144     		add	r1, r1, ip
 339 009e 10F1004A 		adds	r10, r0, #-2147483648
 340 00a2 41F1000B 		adc	fp, r1, #0
 341 00a6 CDE908AB 		strd	r10, [sp, #32]
 342              	.LVL39:
 815:.\DSP\Source\TransformFunctions/arm_cfft_q31.c ****      multSub_32x32_keep32_R(p0, yt, sinVal);
 343              		.loc 1 815 0 discriminator 3
 344 00aa 0B99     		ldr	r1, [sp, #44]
 345 00ac 0191     		str	r1, [sp, #4]
 346 00ae 0021     		movs	r1, #0
 347 00b0 0091     		str	r1, [sp]
 348 00b2 E117     		asrs	r1, r4, #31
 349 00b4 02FB01F0 		mul	r0, r2, r1
 350 00b8 04FB0900 		mla	r0, r4, r9, r0
 351 00bc A2FB0489 		umull	r8, r9, r2, r4
 352 00c0 8144     		add	r9, r9, r0
 353 00c2 DDE900AB 		ldrd	r10, [sp]
 354 00c6 BAEB080A 		subs	r10, r10, r8
 355 00ca 6BEB090B 		sbc	fp, fp, r9
 356 00ce D046     		mov	r8, r10
 357 00d0 18F10048 		adds	r8, r8, #-2147483648
 358 00d4 4BF10009 		adc	r9, fp, #0
 359              	.LVL40:
 816:.\DSP\Source\TransformFunctions/arm_cfft_q31.c ****      multAcc_32x32_keep32_R(p1, xt, sinVal);
 360              		.loc 1 816 0 discriminator 3
 361 00d8 099A     		ldr	r2, [sp, #36]
 362              	.LVL41:
 363 00da 0392     		str	r2, [sp, #12]
 364 00dc 0022     		movs	r2, #0
 365 00de 0292     		str	r2, [sp, #8]
 366 00e0 03FB01F1 		mul	r1, r3, r1
 367 00e4 079A     		ldr	r2, [sp, #28]
 368 00e6 04FB0211 		mla	r1, r4, r2, r1
 369 00ea A3FB0423 		umull	r2, r3, r3, r4
 370 00ee 0B44     		add	r3, r3, r1
 371              	.LVL42:
 372 00f0 DDE90201 		ldrd	r0, [sp, #8]
 373 00f4 8018     		adds	r0, r0, r2
 374 00f6 5941     		adcs	r1, r1, r3
 375 00f8 0246     		mov	r2, r0
 376 00fa 12F10042 		adds	r2, r2, #-2147483648
 377 00fe 41F10003 		adc	r3, r1, #0
ARM GAS  C:\Users\IVYLIU~1\AppData\Local\Temp\ccnKQgQF.s 			page 22


 378              	.LVL43:
 817:.\DSP\Source\TransformFunctions/arm_cfft_q31.c **** 
 818:.\DSP\Source\TransformFunctions/arm_cfft_q31.c ****      pSrc[2 * l]     = p0 << 1U;
 379              		.loc 1 818 0 discriminator 3
 380 0102 4FEA4902 		lsl	r2, r9, #1
 381 0106 47F83520 		str	r2, [r7, r5, lsl #3]
 819:.\DSP\Source\TransformFunctions/arm_cfft_q31.c ****      pSrc[2 * l + 1] = p1 << 1U;
 382              		.loc 1 819 0 discriminator 3
 383 010a 5B00     		lsls	r3, r3, #1
 384              	.LVL44:
 385 010c BB51     		str	r3, [r7, r6]
 800:.\DSP\Source\TransformFunctions/arm_cfft_q31.c ****   {
 386              		.loc 1 800 0 discriminator 3
 387 010e 0EF1010E 		add	lr, lr, #1
 388              	.LVL45:
 389              	.L8:
 800:.\DSP\Source\TransformFunctions/arm_cfft_q31.c ****   {
 390              		.loc 1 800 0 is_stmt 0 discriminator 1
 391 0112 059B     		ldr	r3, [sp, #20]
 392 0114 9E45     		cmp	lr, r3
 393 0116 FFF47EAF 		bcc	.L9
 820:.\DSP\Source\TransformFunctions/arm_cfft_q31.c ****   }
 821:.\DSP\Source\TransformFunctions/arm_cfft_q31.c **** 
 822:.\DSP\Source\TransformFunctions/arm_cfft_q31.c ****   /* first col */
 823:.\DSP\Source\TransformFunctions/arm_cfft_q31.c ****   arm_radix4_butterfly_inverse_q31( pSrc,          n2, (q31_t*)pCoef, 2U);
 394              		.loc 1 823 0 is_stmt 1
 395 011a 3846     		mov	r0, r7
 396 011c 9846     		mov	r8, r3
 397 011e 1946     		mov	r1, r3
 398 0120 0C9C     		ldr	r4, [sp, #48]
 399 0122 2246     		mov	r2, r4
 400 0124 0223     		movs	r3, #2
 401 0126 FFF7FEFF 		bl	arm_radix4_butterfly_inverse_q31
 402              	.LVL46:
 824:.\DSP\Source\TransformFunctions/arm_cfft_q31.c **** 
 825:.\DSP\Source\TransformFunctions/arm_cfft_q31.c ****   /* second col */
 826:.\DSP\Source\TransformFunctions/arm_cfft_q31.c ****   arm_radix4_butterfly_inverse_q31( pSrc + fftLen, n2, (q31_t*)pCoef, 2U);
 403              		.loc 1 826 0
 404 012a 0D9B     		ldr	r3, [sp, #52]
 405 012c 07EB8300 		add	r0, r7, r3, lsl #2
 406 0130 4146     		mov	r1, r8
 407 0132 2246     		mov	r2, r4
 408 0134 0223     		movs	r3, #2
 409 0136 FFF7FEFF 		bl	arm_radix4_butterfly_inverse_q31
 410              	.LVL47:
 827:.\DSP\Source\TransformFunctions/arm_cfft_q31.c **** 
 828:.\DSP\Source\TransformFunctions/arm_cfft_q31.c ****   n2 = fftLen >> 1U;
 829:.\DSP\Source\TransformFunctions/arm_cfft_q31.c ****   for (i = 0; i < n2; i++)
 411              		.loc 1 829 0
 412 013a 0022     		movs	r2, #0
 413 013c 17E0     		b	.L10
 414              	.LVL48:
 415              	.L11:
 830:.\DSP\Source\TransformFunctions/arm_cfft_q31.c ****   {
 831:.\DSP\Source\TransformFunctions/arm_cfft_q31.c ****      p0 = pSrc[4 * i + 0];
 416              		.loc 1 831 0 discriminator 3
 417 013e 1301     		lsls	r3, r2, #4
ARM GAS  C:\Users\IVYLIU~1\AppData\Local\Temp\ccnKQgQF.s 			page 23


 418 0140 FD58     		ldr	r5, [r7, r3]
 419              	.LVL49:
 832:.\DSP\Source\TransformFunctions/arm_cfft_q31.c ****      p1 = pSrc[4 * i + 1];
 420              		.loc 1 832 0 discriminator 3
 421 0142 03F1040C 		add	ip, r3, #4
 422 0146 57F80C40 		ldr	r4, [r7, ip]
 423              	.LVL50:
 833:.\DSP\Source\TransformFunctions/arm_cfft_q31.c ****      xt = pSrc[4 * i + 2];
 424              		.loc 1 833 0 discriminator 3
 425 014a 03F1080E 		add	lr, r3, #8
 426 014e 57F80E00 		ldr	r0, [r7, lr]
 427              	.LVL51:
 834:.\DSP\Source\TransformFunctions/arm_cfft_q31.c ****      yt = pSrc[4 * i + 3];
 428              		.loc 1 834 0 discriminator 3
 429 0152 03F10C06 		add	r6, r3, #12
 430 0156 B959     		ldr	r1, [r7, r6]
 431              	.LVL52:
 835:.\DSP\Source\TransformFunctions/arm_cfft_q31.c **** 
 836:.\DSP\Source\TransformFunctions/arm_cfft_q31.c ****      p0 <<= 1U;
 432              		.loc 1 836 0 discriminator 3
 433 0158 6D00     		lsls	r5, r5, #1
 434              	.LVL53:
 837:.\DSP\Source\TransformFunctions/arm_cfft_q31.c ****      p1 <<= 1U;
 435              		.loc 1 837 0 discriminator 3
 436 015a 6400     		lsls	r4, r4, #1
 437              	.LVL54:
 838:.\DSP\Source\TransformFunctions/arm_cfft_q31.c ****      xt <<= 1U;
 438              		.loc 1 838 0 discriminator 3
 439 015c 4000     		lsls	r0, r0, #1
 440              	.LVL55:
 839:.\DSP\Source\TransformFunctions/arm_cfft_q31.c ****      yt <<= 1U;
 441              		.loc 1 839 0 discriminator 3
 442 015e 4900     		lsls	r1, r1, #1
 443              	.LVL56:
 840:.\DSP\Source\TransformFunctions/arm_cfft_q31.c **** 
 841:.\DSP\Source\TransformFunctions/arm_cfft_q31.c ****      pSrc[4 * i + 0] = p0;
 444              		.loc 1 841 0 discriminator 3
 445 0160 FD50     		str	r5, [r7, r3]
 842:.\DSP\Source\TransformFunctions/arm_cfft_q31.c ****      pSrc[4 * i + 1] = p1;
 446              		.loc 1 842 0 discriminator 3
 447 0162 47F80C40 		str	r4, [r7, ip]
 843:.\DSP\Source\TransformFunctions/arm_cfft_q31.c ****      pSrc[4 * i + 2] = xt;
 448              		.loc 1 843 0 discriminator 3
 449 0166 47F80E00 		str	r0, [r7, lr]
 844:.\DSP\Source\TransformFunctions/arm_cfft_q31.c ****      pSrc[4 * i + 3] = yt;
 450              		.loc 1 844 0 discriminator 3
 451 016a B951     		str	r1, [r7, r6]
 829:.\DSP\Source\TransformFunctions/arm_cfft_q31.c ****   {
 452              		.loc 1 829 0 discriminator 3
 453 016c 0132     		adds	r2, r2, #1
 454              	.LVL57:
 455              	.L10:
 829:.\DSP\Source\TransformFunctions/arm_cfft_q31.c ****   {
 456              		.loc 1 829 0 is_stmt 0 discriminator 1
 457 016e 4245     		cmp	r2, r8
 458 0170 E5D3     		bcc	.L11
 845:.\DSP\Source\TransformFunctions/arm_cfft_q31.c ****   }
ARM GAS  C:\Users\IVYLIU~1\AppData\Local\Temp\ccnKQgQF.s 			page 24


 846:.\DSP\Source\TransformFunctions/arm_cfft_q31.c **** }
 459              		.loc 1 846 0 is_stmt 1
 460 0172 0FB0     		add	sp, sp, #60
 461              		.cfi_def_cfa_offset 36
 462              		@ sp needed
 463 0174 BDE8F08F 		pop	{r4, r5, r6, r7, r8, r9, r10, fp, pc}
 464              		.cfi_endproc
 465              	.LFE86:
 466              		.size	arm_cfft_radix4by2_inverse_q31, .-arm_cfft_radix4by2_inverse_q31
 467              		.section	.text.arm_cfft_q31,"ax",%progbits
 468              		.align	2
 469              		.global	arm_cfft_q31
 470              		.thumb
 471              		.thumb_func
 472              		.type	arm_cfft_q31, %function
 473              	arm_cfft_q31:
 474              	.LFB84:
 676:.\DSP\Source\TransformFunctions/arm_cfft_q31.c ****   uint32_t L = S->fftLen;
 475              		.loc 1 676 0
 476              		.cfi_startproc
 477              		@ args = 0, pretend = 0, frame = 0
 478              		@ frame_needed = 0, uses_anonymous_args = 0
 479              	.LVL58:
 480 0000 70B5     		push	{r4, r5, r6, lr}
 481              		.cfi_def_cfa_offset 16
 482              		.cfi_offset 4, -16
 483              		.cfi_offset 5, -12
 484              		.cfi_offset 6, -8
 485              		.cfi_offset 14, -4
 486 0002 0446     		mov	r4, r0
 487 0004 0D46     		mov	r5, r1
 488 0006 1E46     		mov	r6, r3
 677:.\DSP\Source\TransformFunctions/arm_cfft_q31.c **** 
 489              		.loc 1 677 0
 490 0008 0188     		ldrh	r1, [r0]
 491              	.LVL59:
 679:.\DSP\Source\TransformFunctions/arm_cfft_q31.c ****   {
 492              		.loc 1 679 0
 493 000a 012A     		cmp	r2, #1
 494 000c 27D1     		bne	.L14
 681:.\DSP\Source\TransformFunctions/arm_cfft_q31.c ****      {
 495              		.loc 1 681 0
 496 000e B1F5807F 		cmp	r1, #256
 497 0012 19D0     		beq	.L16
 498 0014 0AD8     		bhi	.L17
 499 0016 2029     		cmp	r1, #32
 500 0018 1CD0     		beq	.L18
 501 001a 02D8     		bhi	.L19
 502 001c 1029     		cmp	r1, #16
 503 001e 45D1     		bne	.L15
 504 0020 12E0     		b	.L16
 505              	.L19:
 506 0022 4029     		cmp	r1, #64
 507 0024 10D0     		beq	.L16
 508 0026 8029     		cmp	r1, #128
 509 0028 14D0     		beq	.L18
 510 002a 3FE0     		b	.L15
ARM GAS  C:\Users\IVYLIU~1\AppData\Local\Temp\ccnKQgQF.s 			page 25


 511              	.L17:
 512 002c B1F5806F 		cmp	r1, #1024
 513 0030 0AD0     		beq	.L16
 514 0032 03D8     		bhi	.L20
 515 0034 B1F5007F 		cmp	r1, #512
 516 0038 0CD0     		beq	.L18
 517 003a 37E0     		b	.L15
 518              	.L20:
 519 003c B1F5006F 		cmp	r1, #2048
 520 0040 08D0     		beq	.L18
 521 0042 B1F5805F 		cmp	r1, #4096
 522 0046 31D1     		bne	.L15
 523              	.L16:
 688:.\DSP\Source\TransformFunctions/arm_cfft_q31.c ****        break;
 524              		.loc 1 688 0
 525 0048 2846     		mov	r0, r5
 526              	.LVL60:
 527 004a 6268     		ldr	r2, [r4, #4]
 528              	.LVL61:
 529 004c 0123     		movs	r3, #1
 530              	.LVL62:
 531 004e FFF7FEFF 		bl	arm_radix4_butterfly_inverse_q31
 532              	.LVL63:
 689:.\DSP\Source\TransformFunctions/arm_cfft_q31.c **** 
 533              		.loc 1 689 0
 534 0052 2BE0     		b	.L15
 535              	.LVL64:
 536              	.L18:
 695:.\DSP\Source\TransformFunctions/arm_cfft_q31.c ****        break;
 537              		.loc 1 695 0
 538 0054 2846     		mov	r0, r5
 539              	.LVL65:
 540 0056 6268     		ldr	r2, [r4, #4]
 541              	.LVL66:
 542 0058 FFF7FEFF 		bl	arm_cfft_radix4by2_inverse_q31
 543              	.LVL67:
 696:.\DSP\Source\TransformFunctions/arm_cfft_q31.c ****      }
 544              		.loc 1 696 0
 545 005c 26E0     		b	.L15
 546              	.LVL68:
 547              	.L14:
 701:.\DSP\Source\TransformFunctions/arm_cfft_q31.c ****      {
 548              		.loc 1 701 0
 549 005e B1F5807F 		cmp	r1, #256
 550 0062 19D0     		beq	.L21
 551 0064 0AD8     		bhi	.L22
 552 0066 2029     		cmp	r1, #32
 553 0068 1CD0     		beq	.L23
 554 006a 02D8     		bhi	.L24
 555 006c 1029     		cmp	r1, #16
 556 006e 1DD1     		bne	.L15
 557 0070 12E0     		b	.L21
 558              	.L24:
 559 0072 4029     		cmp	r1, #64
 560 0074 10D0     		beq	.L21
 561 0076 8029     		cmp	r1, #128
 562 0078 14D0     		beq	.L23
ARM GAS  C:\Users\IVYLIU~1\AppData\Local\Temp\ccnKQgQF.s 			page 26


 563 007a 17E0     		b	.L15
 564              	.L22:
 565 007c B1F5806F 		cmp	r1, #1024
 566 0080 0AD0     		beq	.L21
 567 0082 03D8     		bhi	.L25
 568 0084 B1F5007F 		cmp	r1, #512
 569 0088 0CD0     		beq	.L23
 570 008a 0FE0     		b	.L15
 571              	.L25:
 572 008c B1F5006F 		cmp	r1, #2048
 573 0090 08D0     		beq	.L23
 574 0092 B1F5805F 		cmp	r1, #4096
 575 0096 09D1     		bne	.L15
 576              	.L21:
 708:.\DSP\Source\TransformFunctions/arm_cfft_q31.c ****        break;
 577              		.loc 1 708 0
 578 0098 2846     		mov	r0, r5
 579              	.LVL69:
 580 009a 6268     		ldr	r2, [r4, #4]
 581              	.LVL70:
 582 009c 0123     		movs	r3, #1
 583              	.LVL71:
 584 009e FFF7FEFF 		bl	arm_radix4_butterfly_q31
 585              	.LVL72:
 709:.\DSP\Source\TransformFunctions/arm_cfft_q31.c **** 
 586              		.loc 1 709 0
 587 00a2 03E0     		b	.L15
 588              	.LVL73:
 589              	.L23:
 715:.\DSP\Source\TransformFunctions/arm_cfft_q31.c ****        break;
 590              		.loc 1 715 0
 591 00a4 2846     		mov	r0, r5
 592              	.LVL74:
 593 00a6 6268     		ldr	r2, [r4, #4]
 594              	.LVL75:
 595 00a8 FFF7FEFF 		bl	arm_cfft_radix4by2_q31
 596              	.LVL76:
 597              	.L15:
 720:.\DSP\Source\TransformFunctions/arm_cfft_q31.c ****     arm_bitreversal_32 ((uint32_t*) p1, S->bitRevLength, S->pBitRevTable);
 598              		.loc 1 720 0
 599 00ac 26B1     		cbz	r6, .L13
 721:.\DSP\Source\TransformFunctions/arm_cfft_q31.c **** }
 600              		.loc 1 721 0
 601 00ae 2846     		mov	r0, r5
 602 00b0 A189     		ldrh	r1, [r4, #12]
 603 00b2 A268     		ldr	r2, [r4, #8]
 604 00b4 FFF7FEFF 		bl	arm_bitreversal_32
 605              	.LVL77:
 606              	.L13:
 607 00b8 70BD     		pop	{r4, r5, r6, pc}
 608              		.cfi_endproc
 609              	.LFE84:
 610              		.size	arm_cfft_q31, .-arm_cfft_q31
 611 00ba 00BF     		.text
 612              	.Letext0:
 613              		.file 2 "c:\\program files (x86)\\cypress\\psoc creator\\3.3\\psoc creator\\import\\gnu\\arm\\4.9.
 614              		.file 3 "c:\\program files (x86)\\cypress\\psoc creator\\3.3\\psoc creator\\import\\gnu\\arm\\4.9.
ARM GAS  C:\Users\IVYLIU~1\AppData\Local\Temp\ccnKQgQF.s 			page 27


 615              		.file 4 ".\\DSP\\Include/arm_math_types.h"
 616              		.file 5 ".\\DSP\\Include/dsp/transform_functions.h"
 617              		.file 6 ".\\Core\\Include/cmsis_gcc.h"