ARM GAS  C:\Users\IVYLIU~1\AppData\Local\Temp\cc83H96d.s 			page 1


   1              		.syntax unified
   2              		.cpu cortex-m3
   3              		.fpu softvfp
   4              		.eabi_attribute 20, 1
   5              		.eabi_attribute 21, 1
   6              		.eabi_attribute 23, 3
   7              		.eabi_attribute 24, 1
   8              		.eabi_attribute 25, 1
   9              		.eabi_attribute 26, 1
  10              		.eabi_attribute 30, 1
  11              		.eabi_attribute 34, 1
  12              		.eabi_attribute 18, 4
  13              		.thumb
  14              		.file	"arm_abs_q7.c"
  15              		.text
  16              	.Ltext0:
  17              		.cfi_sections	.debug_frame
  18              		.section	.text.arm_abs_q7,"ax",%progbits
  19              		.align	2
  20              		.global	arm_abs_q7
  21              		.thumb
  22              		.thumb_func
  23              		.type	arm_abs_q7, %function
  24              	arm_abs_q7:
  25              	.LFB83:
  26              		.file 1 ".\\DSP\\Source\\BasicMathFunctions\\arm_abs_q7.c"
   1:.\DSP\Source\BasicMathFunctions/arm_abs_q7.c **** /* ----------------------------------------------------------------------
   2:.\DSP\Source\BasicMathFunctions/arm_abs_q7.c ****  * Project:      CMSIS DSP Library
   3:.\DSP\Source\BasicMathFunctions/arm_abs_q7.c ****  * Title:        arm_abs_q7.c
   4:.\DSP\Source\BasicMathFunctions/arm_abs_q7.c ****  * Description:  Q7 vector absolute value
   5:.\DSP\Source\BasicMathFunctions/arm_abs_q7.c ****  *
   6:.\DSP\Source\BasicMathFunctions/arm_abs_q7.c ****  * $Date:        23 April 2021
   7:.\DSP\Source\BasicMathFunctions/arm_abs_q7.c ****  * $Revision:    V1.9.0
   8:.\DSP\Source\BasicMathFunctions/arm_abs_q7.c ****  *
   9:.\DSP\Source\BasicMathFunctions/arm_abs_q7.c ****  * Target Processor: Cortex-M and Cortex-A cores
  10:.\DSP\Source\BasicMathFunctions/arm_abs_q7.c ****  * -------------------------------------------------------------------- */
  11:.\DSP\Source\BasicMathFunctions/arm_abs_q7.c **** /*
  12:.\DSP\Source\BasicMathFunctions/arm_abs_q7.c ****  * Copyright (C) 2010-2021 ARM Limited or its affiliates. All rights reserved.
  13:.\DSP\Source\BasicMathFunctions/arm_abs_q7.c ****  *
  14:.\DSP\Source\BasicMathFunctions/arm_abs_q7.c ****  * SPDX-License-Identifier: Apache-2.0
  15:.\DSP\Source\BasicMathFunctions/arm_abs_q7.c ****  *
  16:.\DSP\Source\BasicMathFunctions/arm_abs_q7.c ****  * Licensed under the Apache License, Version 2.0 (the License); you may
  17:.\DSP\Source\BasicMathFunctions/arm_abs_q7.c ****  * not use this file except in compliance with the License.
  18:.\DSP\Source\BasicMathFunctions/arm_abs_q7.c ****  * You may obtain a copy of the License at
  19:.\DSP\Source\BasicMathFunctions/arm_abs_q7.c ****  *
  20:.\DSP\Source\BasicMathFunctions/arm_abs_q7.c ****  * www.apache.org/licenses/LICENSE-2.0
  21:.\DSP\Source\BasicMathFunctions/arm_abs_q7.c ****  *
  22:.\DSP\Source\BasicMathFunctions/arm_abs_q7.c ****  * Unless required by applicable law or agreed to in writing, software
  23:.\DSP\Source\BasicMathFunctions/arm_abs_q7.c ****  * distributed under the License is distributed on an AS IS BASIS, WITHOUT
  24:.\DSP\Source\BasicMathFunctions/arm_abs_q7.c ****  * WARRANTIES OR CONDITIONS OF ANY KIND, either express or implied.
  25:.\DSP\Source\BasicMathFunctions/arm_abs_q7.c ****  * See the License for the specific language governing permissions and
  26:.\DSP\Source\BasicMathFunctions/arm_abs_q7.c ****  * limitations under the License.
  27:.\DSP\Source\BasicMathFunctions/arm_abs_q7.c ****  */
  28:.\DSP\Source\BasicMathFunctions/arm_abs_q7.c **** 
  29:.\DSP\Source\BasicMathFunctions/arm_abs_q7.c **** #include "dsp/basic_math_functions.h"
  30:.\DSP\Source\BasicMathFunctions/arm_abs_q7.c **** 
  31:.\DSP\Source\BasicMathFunctions/arm_abs_q7.c **** /**
ARM GAS  C:\Users\IVYLIU~1\AppData\Local\Temp\cc83H96d.s 			page 2


  32:.\DSP\Source\BasicMathFunctions/arm_abs_q7.c ****   @ingroup groupMath
  33:.\DSP\Source\BasicMathFunctions/arm_abs_q7.c ****  */
  34:.\DSP\Source\BasicMathFunctions/arm_abs_q7.c **** 
  35:.\DSP\Source\BasicMathFunctions/arm_abs_q7.c **** /**
  36:.\DSP\Source\BasicMathFunctions/arm_abs_q7.c ****   @addtogroup BasicAbs
  37:.\DSP\Source\BasicMathFunctions/arm_abs_q7.c ****   @{
  38:.\DSP\Source\BasicMathFunctions/arm_abs_q7.c ****  */
  39:.\DSP\Source\BasicMathFunctions/arm_abs_q7.c **** 
  40:.\DSP\Source\BasicMathFunctions/arm_abs_q7.c **** /**
  41:.\DSP\Source\BasicMathFunctions/arm_abs_q7.c ****   @brief         Q7 vector absolute value.
  42:.\DSP\Source\BasicMathFunctions/arm_abs_q7.c ****   @param[in]     pSrc       points to the input vector
  43:.\DSP\Source\BasicMathFunctions/arm_abs_q7.c ****   @param[out]    pDst       points to the output vector
  44:.\DSP\Source\BasicMathFunctions/arm_abs_q7.c ****   @param[in]     blockSize  number of samples in each vector
  45:.\DSP\Source\BasicMathFunctions/arm_abs_q7.c ****   @return        none
  46:.\DSP\Source\BasicMathFunctions/arm_abs_q7.c **** 
  47:.\DSP\Source\BasicMathFunctions/arm_abs_q7.c ****   @par           Conditions for optimum performance
  48:.\DSP\Source\BasicMathFunctions/arm_abs_q7.c ****                    Input and output buffers should be aligned by 32-bit
  49:.\DSP\Source\BasicMathFunctions/arm_abs_q7.c ****   @par           Scaling and Overflow Behavior
  50:.\DSP\Source\BasicMathFunctions/arm_abs_q7.c ****                    The function uses saturating arithmetic.
  51:.\DSP\Source\BasicMathFunctions/arm_abs_q7.c ****                    The Q7 value -1 (0x80) will be saturated to the maximum allowable positive value
  52:.\DSP\Source\BasicMathFunctions/arm_abs_q7.c ****  */
  53:.\DSP\Source\BasicMathFunctions/arm_abs_q7.c **** 
  54:.\DSP\Source\BasicMathFunctions/arm_abs_q7.c **** #if defined(ARM_MATH_MVEI) && !defined(ARM_MATH_AUTOVECTORIZE)
  55:.\DSP\Source\BasicMathFunctions/arm_abs_q7.c **** 
  56:.\DSP\Source\BasicMathFunctions/arm_abs_q7.c **** #include "arm_helium_utils.h"
  57:.\DSP\Source\BasicMathFunctions/arm_abs_q7.c **** 
  58:.\DSP\Source\BasicMathFunctions/arm_abs_q7.c **** void arm_abs_q7(
  59:.\DSP\Source\BasicMathFunctions/arm_abs_q7.c ****     const q7_t * pSrc,
  60:.\DSP\Source\BasicMathFunctions/arm_abs_q7.c ****     q7_t * pDst,
  61:.\DSP\Source\BasicMathFunctions/arm_abs_q7.c ****     uint32_t blockSize)
  62:.\DSP\Source\BasicMathFunctions/arm_abs_q7.c **** {
  63:.\DSP\Source\BasicMathFunctions/arm_abs_q7.c ****     uint32_t  blkCnt;           /* loop counters */
  64:.\DSP\Source\BasicMathFunctions/arm_abs_q7.c ****     q7x16_t vecSrc;
  65:.\DSP\Source\BasicMathFunctions/arm_abs_q7.c **** 
  66:.\DSP\Source\BasicMathFunctions/arm_abs_q7.c ****     /* Compute 16 outputs at a time */
  67:.\DSP\Source\BasicMathFunctions/arm_abs_q7.c ****     blkCnt = blockSize >> 4;
  68:.\DSP\Source\BasicMathFunctions/arm_abs_q7.c ****     while (blkCnt > 0U)
  69:.\DSP\Source\BasicMathFunctions/arm_abs_q7.c ****     {
  70:.\DSP\Source\BasicMathFunctions/arm_abs_q7.c ****         /*
  71:.\DSP\Source\BasicMathFunctions/arm_abs_q7.c ****          * C = |A|
  72:.\DSP\Source\BasicMathFunctions/arm_abs_q7.c ****          * Calculate absolute and then store the results in the destination buffer.
  73:.\DSP\Source\BasicMathFunctions/arm_abs_q7.c ****          */
  74:.\DSP\Source\BasicMathFunctions/arm_abs_q7.c ****         vecSrc = vld1q(pSrc);
  75:.\DSP\Source\BasicMathFunctions/arm_abs_q7.c ****         vst1q(pDst, vqabsq(vecSrc));
  76:.\DSP\Source\BasicMathFunctions/arm_abs_q7.c ****         /*
  77:.\DSP\Source\BasicMathFunctions/arm_abs_q7.c ****          * Decrement the blockSize loop counter
  78:.\DSP\Source\BasicMathFunctions/arm_abs_q7.c ****          */
  79:.\DSP\Source\BasicMathFunctions/arm_abs_q7.c ****         blkCnt--;
  80:.\DSP\Source\BasicMathFunctions/arm_abs_q7.c ****         /*
  81:.\DSP\Source\BasicMathFunctions/arm_abs_q7.c ****          * advance vector source and destination pointers
  82:.\DSP\Source\BasicMathFunctions/arm_abs_q7.c ****          */
  83:.\DSP\Source\BasicMathFunctions/arm_abs_q7.c ****         pSrc += 16;
  84:.\DSP\Source\BasicMathFunctions/arm_abs_q7.c ****         pDst += 16;
  85:.\DSP\Source\BasicMathFunctions/arm_abs_q7.c ****     }
  86:.\DSP\Source\BasicMathFunctions/arm_abs_q7.c ****     /*
  87:.\DSP\Source\BasicMathFunctions/arm_abs_q7.c ****      * tail
  88:.\DSP\Source\BasicMathFunctions/arm_abs_q7.c ****      */
ARM GAS  C:\Users\IVYLIU~1\AppData\Local\Temp\cc83H96d.s 			page 3


  89:.\DSP\Source\BasicMathFunctions/arm_abs_q7.c ****     blkCnt = blockSize & 0xF;
  90:.\DSP\Source\BasicMathFunctions/arm_abs_q7.c ****     if (blkCnt > 0U)
  91:.\DSP\Source\BasicMathFunctions/arm_abs_q7.c ****     {
  92:.\DSP\Source\BasicMathFunctions/arm_abs_q7.c ****         mve_pred16_t p0 = vctp8q(blkCnt);
  93:.\DSP\Source\BasicMathFunctions/arm_abs_q7.c ****         vecSrc = vld1q(pSrc);
  94:.\DSP\Source\BasicMathFunctions/arm_abs_q7.c ****         vstrbq_p(pDst, vqabsq(vecSrc), p0);
  95:.\DSP\Source\BasicMathFunctions/arm_abs_q7.c ****     }
  96:.\DSP\Source\BasicMathFunctions/arm_abs_q7.c **** }
  97:.\DSP\Source\BasicMathFunctions/arm_abs_q7.c **** 
  98:.\DSP\Source\BasicMathFunctions/arm_abs_q7.c **** #else
  99:.\DSP\Source\BasicMathFunctions/arm_abs_q7.c **** void arm_abs_q7(
 100:.\DSP\Source\BasicMathFunctions/arm_abs_q7.c ****   const q7_t * pSrc,
 101:.\DSP\Source\BasicMathFunctions/arm_abs_q7.c ****         q7_t * pDst,
 102:.\DSP\Source\BasicMathFunctions/arm_abs_q7.c ****         uint32_t blockSize)
 103:.\DSP\Source\BasicMathFunctions/arm_abs_q7.c **** {
  27              		.loc 1 103 0
  28              		.cfi_startproc
  29              		@ args = 0, pretend = 0, frame = 0
  30              		@ frame_needed = 0, uses_anonymous_args = 0
  31              		@ link register save eliminated.
  32              	.LVL0:
  33 0000 30B4     		push	{r4, r5}
  34              		.cfi_def_cfa_offset 8
  35              		.cfi_offset 4, -8
  36              		.cfi_offset 5, -4
  37              	.LVL1:
 104:.\DSP\Source\BasicMathFunctions/arm_abs_q7.c ****         uint32_t blkCnt;                               /* Loop counter */
 105:.\DSP\Source\BasicMathFunctions/arm_abs_q7.c ****         q7_t in;                                       /* Temporary input variable */
 106:.\DSP\Source\BasicMathFunctions/arm_abs_q7.c **** 
 107:.\DSP\Source\BasicMathFunctions/arm_abs_q7.c **** #if defined (ARM_MATH_LOOPUNROLL)
 108:.\DSP\Source\BasicMathFunctions/arm_abs_q7.c **** 
 109:.\DSP\Source\BasicMathFunctions/arm_abs_q7.c ****   /* Loop unrolling: Compute 4 outputs at a time */
 110:.\DSP\Source\BasicMathFunctions/arm_abs_q7.c ****   blkCnt = blockSize >> 2U;
 111:.\DSP\Source\BasicMathFunctions/arm_abs_q7.c **** 
 112:.\DSP\Source\BasicMathFunctions/arm_abs_q7.c ****   while (blkCnt > 0U)
 113:.\DSP\Source\BasicMathFunctions/arm_abs_q7.c ****   {
 114:.\DSP\Source\BasicMathFunctions/arm_abs_q7.c ****     /* C = |A| */
 115:.\DSP\Source\BasicMathFunctions/arm_abs_q7.c **** 
 116:.\DSP\Source\BasicMathFunctions/arm_abs_q7.c ****     /* Calculate absolute of input (if -1 then saturated to 0x7f) and store result in destination b
 117:.\DSP\Source\BasicMathFunctions/arm_abs_q7.c ****     in = *pSrc++;
 118:.\DSP\Source\BasicMathFunctions/arm_abs_q7.c **** #if defined (ARM_MATH_DSP)
 119:.\DSP\Source\BasicMathFunctions/arm_abs_q7.c ****     *pDst++ = (in > 0) ? in : (q7_t)__QSUB8(0, in);
 120:.\DSP\Source\BasicMathFunctions/arm_abs_q7.c **** #else
 121:.\DSP\Source\BasicMathFunctions/arm_abs_q7.c ****     *pDst++ = (in > 0) ? in : ((in == (q7_t) 0x80) ? (q7_t) 0x7f : -in);
 122:.\DSP\Source\BasicMathFunctions/arm_abs_q7.c **** #endif
 123:.\DSP\Source\BasicMathFunctions/arm_abs_q7.c **** 
 124:.\DSP\Source\BasicMathFunctions/arm_abs_q7.c ****     in = *pSrc++;
 125:.\DSP\Source\BasicMathFunctions/arm_abs_q7.c **** #if defined (ARM_MATH_DSP)
 126:.\DSP\Source\BasicMathFunctions/arm_abs_q7.c ****     *pDst++ = (in > 0) ? in : (q7_t)__QSUB8(0, in);
 127:.\DSP\Source\BasicMathFunctions/arm_abs_q7.c **** #else
 128:.\DSP\Source\BasicMathFunctions/arm_abs_q7.c ****     *pDst++ = (in > 0) ? in : ((in == (q7_t) 0x80) ? (q7_t) 0x7f : -in);
 129:.\DSP\Source\BasicMathFunctions/arm_abs_q7.c **** #endif
 130:.\DSP\Source\BasicMathFunctions/arm_abs_q7.c **** 
 131:.\DSP\Source\BasicMathFunctions/arm_abs_q7.c ****     in = *pSrc++;
 132:.\DSP\Source\BasicMathFunctions/arm_abs_q7.c **** #if defined (ARM_MATH_DSP)
 133:.\DSP\Source\BasicMathFunctions/arm_abs_q7.c ****     *pDst++ = (in > 0) ? in : (q7_t)__QSUB8(0, in);
 134:.\DSP\Source\BasicMathFunctions/arm_abs_q7.c **** #else
ARM GAS  C:\Users\IVYLIU~1\AppData\Local\Temp\cc83H96d.s 			page 4


 135:.\DSP\Source\BasicMathFunctions/arm_abs_q7.c ****     *pDst++ = (in > 0) ? in : ((in == (q7_t) 0x80) ? (q7_t) 0x7f : -in);
 136:.\DSP\Source\BasicMathFunctions/arm_abs_q7.c **** #endif
 137:.\DSP\Source\BasicMathFunctions/arm_abs_q7.c **** 
 138:.\DSP\Source\BasicMathFunctions/arm_abs_q7.c ****     in = *pSrc++;
 139:.\DSP\Source\BasicMathFunctions/arm_abs_q7.c **** #if defined (ARM_MATH_DSP)
 140:.\DSP\Source\BasicMathFunctions/arm_abs_q7.c ****     *pDst++ = (in > 0) ? in : (q7_t)__QSUB8(0, in);
 141:.\DSP\Source\BasicMathFunctions/arm_abs_q7.c **** #else
 142:.\DSP\Source\BasicMathFunctions/arm_abs_q7.c ****     *pDst++ = (in > 0) ? in : ((in == (q7_t) 0x80) ? (q7_t) 0x7f : -in);
 143:.\DSP\Source\BasicMathFunctions/arm_abs_q7.c **** #endif
 144:.\DSP\Source\BasicMathFunctions/arm_abs_q7.c **** 
 145:.\DSP\Source\BasicMathFunctions/arm_abs_q7.c ****     /* Decrement loop counter */
 146:.\DSP\Source\BasicMathFunctions/arm_abs_q7.c ****     blkCnt--;
 147:.\DSP\Source\BasicMathFunctions/arm_abs_q7.c ****   }
 148:.\DSP\Source\BasicMathFunctions/arm_abs_q7.c **** 
 149:.\DSP\Source\BasicMathFunctions/arm_abs_q7.c ****   /* Loop unrolling: Compute remaining outputs */
 150:.\DSP\Source\BasicMathFunctions/arm_abs_q7.c ****   blkCnt = blockSize % 0x4U;
 151:.\DSP\Source\BasicMathFunctions/arm_abs_q7.c **** 
 152:.\DSP\Source\BasicMathFunctions/arm_abs_q7.c **** #else
 153:.\DSP\Source\BasicMathFunctions/arm_abs_q7.c **** 
 154:.\DSP\Source\BasicMathFunctions/arm_abs_q7.c ****   /* Initialize blkCnt with number of samples */
 155:.\DSP\Source\BasicMathFunctions/arm_abs_q7.c ****   blkCnt = blockSize;
 156:.\DSP\Source\BasicMathFunctions/arm_abs_q7.c **** 
 157:.\DSP\Source\BasicMathFunctions/arm_abs_q7.c **** #endif /* #if defined (ARM_MATH_LOOPUNROLL) */
 158:.\DSP\Source\BasicMathFunctions/arm_abs_q7.c **** 
 159:.\DSP\Source\BasicMathFunctions/arm_abs_q7.c ****   while (blkCnt > 0U)
  38              		.loc 1 159 0
  39 0002 10E0     		b	.L2
  40              	.LVL2:
  41              	.L5:
 160:.\DSP\Source\BasicMathFunctions/arm_abs_q7.c ****   {
 161:.\DSP\Source\BasicMathFunctions/arm_abs_q7.c ****     /* C = |A| */
 162:.\DSP\Source\BasicMathFunctions/arm_abs_q7.c **** 
 163:.\DSP\Source\BasicMathFunctions/arm_abs_q7.c ****     /* Calculate absolute of input (if -1 then saturated to 0x7f) and store result in destination b
 164:.\DSP\Source\BasicMathFunctions/arm_abs_q7.c ****     in = *pSrc++;
  42              		.loc 1 164 0
  43 0004 441C     		adds	r4, r0, #1
  44              	.LVL3:
  45 0006 0378     		ldrb	r3, [r0]	@ zero_extendqisi2
  46              	.LVL4:
 165:.\DSP\Source\BasicMathFunctions/arm_abs_q7.c **** #if defined (ARM_MATH_DSP)
 166:.\DSP\Source\BasicMathFunctions/arm_abs_q7.c ****     *pDst++ = (in > 0) ? in : (q7_t) __QSUB8(0, in);
 167:.\DSP\Source\BasicMathFunctions/arm_abs_q7.c **** #else
 168:.\DSP\Source\BasicMathFunctions/arm_abs_q7.c ****     *pDst++ = (in > 0) ? in : ((in == (q7_t) 0x80) ? (q7_t) 0x7f : -in);
  47              		.loc 1 168 0
  48 0008 481C     		adds	r0, r1, #1
  49              	.LVL5:
  50 000a 5DB2     		sxtb	r5, r3
  51 000c 002D     		cmp	r5, #0
  52 000e 06DC     		bgt	.L3
  53              		.loc 1 168 0 is_stmt 0 discriminator 1
  54 0010 15F1800F 		cmn	r5, #128
  55 0014 02D0     		beq	.L7
  56              		.loc 1 168 0 discriminator 3
  57 0016 5B42     		negs	r3, r3
  58              	.LVL6:
  59 0018 DBB2     		uxtb	r3, r3
  60 001a 00E0     		b	.L3
ARM GAS  C:\Users\IVYLIU~1\AppData\Local\Temp\cc83H96d.s 			page 5


  61              	.LVL7:
  62              	.L7:
  63              		.loc 1 168 0
  64 001c 7F23     		movs	r3, #127
  65              	.LVL8:
  66              	.L3:
  67              		.loc 1 168 0 discriminator 8
  68 001e 0B70     		strb	r3, [r1]
 169:.\DSP\Source\BasicMathFunctions/arm_abs_q7.c **** #endif
 170:.\DSP\Source\BasicMathFunctions/arm_abs_q7.c **** 
 171:.\DSP\Source\BasicMathFunctions/arm_abs_q7.c ****     /* Decrement loop counter */
 172:.\DSP\Source\BasicMathFunctions/arm_abs_q7.c ****     blkCnt--;
  69              		.loc 1 172 0 is_stmt 1 discriminator 8
  70 0020 013A     		subs	r2, r2, #1
  71              	.LVL9:
 168:.\DSP\Source\BasicMathFunctions/arm_abs_q7.c **** #endif
  72              		.loc 1 168 0 discriminator 8
  73 0022 0146     		mov	r1, r0
 164:.\DSP\Source\BasicMathFunctions/arm_abs_q7.c **** #if defined (ARM_MATH_DSP)
  74              		.loc 1 164 0 discriminator 8
  75 0024 2046     		mov	r0, r4
  76              	.LVL10:
  77              	.L2:
 159:.\DSP\Source\BasicMathFunctions/arm_abs_q7.c ****   {
  78              		.loc 1 159 0
  79 0026 002A     		cmp	r2, #0
  80 0028 ECD1     		bne	.L5
 173:.\DSP\Source\BasicMathFunctions/arm_abs_q7.c ****   }
 174:.\DSP\Source\BasicMathFunctions/arm_abs_q7.c **** 
 175:.\DSP\Source\BasicMathFunctions/arm_abs_q7.c **** }
  81              		.loc 1 175 0
  82 002a 30BC     		pop	{r4, r5}
  83              		.cfi_restore 5
  84              		.cfi_restore 4
  85              		.cfi_def_cfa_offset 0
  86 002c 7047     		bx	lr
  87              		.cfi_endproc
  88              	.LFE83:
  89              		.size	arm_abs_q7, .-arm_abs_q7
  90 002e 00BF     		.text
  91              	.Letext0:
  92              		.file 2 "c:\\program files (x86)\\cypress\\psoc creator\\3.3\\psoc creator\\import\\gnu\\arm\\4.9.
  93              		.file 3 "c:\\program files (x86)\\cypress\\psoc creator\\3.3\\psoc creator\\import\\gnu\\arm\\4.9.
  94              		.file 4 ".\\DSP\\Include/arm_math_types.h"
  95              		.file 5 ".\\Core\\Include/cmsis_gcc.h"