ARM GAS  C:\Users\IVYLIU~1\AppData\Local\Temp\ccdQJDgb.s 			page 1


   1              		.syntax unified
   2              		.cpu cortex-m3
   3              		.fpu softvfp
   4              		.eabi_attribute 20, 1
   5              		.eabi_attribute 21, 1
   6              		.eabi_attribute 23, 3
   7              		.eabi_attribute 24, 1
   8              		.eabi_attribute 25, 1
   9              		.eabi_attribute 26, 1
  10              		.eabi_attribute 30, 1
  11              		.eabi_attribute 34, 1
  12              		.eabi_attribute 18, 4
  13              		.thumb
  14              		.file	"arm_rfft_fast_init_f64.c"
  15              		.text
  16              	.Ltext0:
  17              		.cfi_sections	.debug_frame
  18              		.section	.text.arm_rfft_32_fast_init_f64,"ax",%progbits
  19              		.align	2
  20              		.thumb
  21              		.thumb_func
  22              		.type	arm_rfft_32_fast_init_f64, %function
  23              	arm_rfft_32_fast_init_f64:
  24              	.LFB84:
  25              		.file 1 ".\\DSP\\Source\\TransformFunctions\\arm_rfft_fast_init_f64.c"
   1:.\DSP\Source\TransformFunctions/arm_rfft_fast_init_f64.c **** /* ----------------------------------------------------------------------
   2:.\DSP\Source\TransformFunctions/arm_rfft_fast_init_f64.c ****  * Project:      CMSIS DSP Library
   3:.\DSP\Source\TransformFunctions/arm_rfft_fast_init_f64.c ****  * Title:        arm_rfft_fast_init_f64.c
   4:.\DSP\Source\TransformFunctions/arm_rfft_fast_init_f64.c ****  * Description:  Split Radix Decimation in Frequency CFFT Double Precision Floating point processin
   5:.\DSP\Source\TransformFunctions/arm_rfft_fast_init_f64.c ****  *
   6:.\DSP\Source\TransformFunctions/arm_rfft_fast_init_f64.c ****  * $Date:        23 April 2021
   7:.\DSP\Source\TransformFunctions/arm_rfft_fast_init_f64.c ****  * $Revision:    V1.9.0
   8:.\DSP\Source\TransformFunctions/arm_rfft_fast_init_f64.c ****  *
   9:.\DSP\Source\TransformFunctions/arm_rfft_fast_init_f64.c ****  * Target Processor: Cortex-M and Cortex-A cores
  10:.\DSP\Source\TransformFunctions/arm_rfft_fast_init_f64.c ****  * -------------------------------------------------------------------- */
  11:.\DSP\Source\TransformFunctions/arm_rfft_fast_init_f64.c **** /*
  12:.\DSP\Source\TransformFunctions/arm_rfft_fast_init_f64.c ****  * Copyright (C) 2010-2021 ARM Limited or its affiliates. All rights reserved.
  13:.\DSP\Source\TransformFunctions/arm_rfft_fast_init_f64.c ****  *
  14:.\DSP\Source\TransformFunctions/arm_rfft_fast_init_f64.c ****  * SPDX-License-Identifier: Apache-2.0
  15:.\DSP\Source\TransformFunctions/arm_rfft_fast_init_f64.c ****  *
  16:.\DSP\Source\TransformFunctions/arm_rfft_fast_init_f64.c ****  * Licensed under the Apache License, Version 2.0 (the License); you may
  17:.\DSP\Source\TransformFunctions/arm_rfft_fast_init_f64.c ****  * not use this file except in compliance with the License.
  18:.\DSP\Source\TransformFunctions/arm_rfft_fast_init_f64.c ****  * You may obtain a copy of the License at
  19:.\DSP\Source\TransformFunctions/arm_rfft_fast_init_f64.c ****  *
  20:.\DSP\Source\TransformFunctions/arm_rfft_fast_init_f64.c ****  * www.apache.org/licenses/LICENSE-2.0
  21:.\DSP\Source\TransformFunctions/arm_rfft_fast_init_f64.c ****  *
  22:.\DSP\Source\TransformFunctions/arm_rfft_fast_init_f64.c ****  * Unless required by applicable law or agreed to in writing, software
  23:.\DSP\Source\TransformFunctions/arm_rfft_fast_init_f64.c ****  * distributed under the License is distributed on an AS IS BASIS, WITHOUT
  24:.\DSP\Source\TransformFunctions/arm_rfft_fast_init_f64.c ****  * WARRANTIES OR CONDITIONS OF ANY KIND, either express or implied.
  25:.\DSP\Source\TransformFunctions/arm_rfft_fast_init_f64.c ****  * See the License for the specific language governing permissions and
  26:.\DSP\Source\TransformFunctions/arm_rfft_fast_init_f64.c ****  * limitations under the License.
  27:.\DSP\Source\TransformFunctions/arm_rfft_fast_init_f64.c ****  */
  28:.\DSP\Source\TransformFunctions/arm_rfft_fast_init_f64.c **** 
  29:.\DSP\Source\TransformFunctions/arm_rfft_fast_init_f64.c **** #include "dsp/transform_functions.h"
  30:.\DSP\Source\TransformFunctions/arm_rfft_fast_init_f64.c **** #include "arm_common_tables.h"
  31:.\DSP\Source\TransformFunctions/arm_rfft_fast_init_f64.c **** 
  32:.\DSP\Source\TransformFunctions/arm_rfft_fast_init_f64.c **** /**
ARM GAS  C:\Users\IVYLIU~1\AppData\Local\Temp\ccdQJDgb.s 			page 2


  33:.\DSP\Source\TransformFunctions/arm_rfft_fast_init_f64.c ****   @ingroup groupTransforms
  34:.\DSP\Source\TransformFunctions/arm_rfft_fast_init_f64.c ****  */
  35:.\DSP\Source\TransformFunctions/arm_rfft_fast_init_f64.c **** 
  36:.\DSP\Source\TransformFunctions/arm_rfft_fast_init_f64.c **** /**
  37:.\DSP\Source\TransformFunctions/arm_rfft_fast_init_f64.c ****   @addtogroup RealFFT
  38:.\DSP\Source\TransformFunctions/arm_rfft_fast_init_f64.c ****   @{
  39:.\DSP\Source\TransformFunctions/arm_rfft_fast_init_f64.c ****  */
  40:.\DSP\Source\TransformFunctions/arm_rfft_fast_init_f64.c **** 
  41:.\DSP\Source\TransformFunctions/arm_rfft_fast_init_f64.c **** #if !defined(ARM_DSP_CONFIG_TABLES) || defined(ARM_ALL_FFT_TABLES) || (defined(ARM_TABLE_TWIDDLECOE
  42:.\DSP\Source\TransformFunctions/arm_rfft_fast_init_f64.c **** 
  43:.\DSP\Source\TransformFunctions/arm_rfft_fast_init_f64.c **** /**
  44:.\DSP\Source\TransformFunctions/arm_rfft_fast_init_f64.c ****   @brief         Initialization function for the 32pt double precision floating-point real FFT.
  45:.\DSP\Source\TransformFunctions/arm_rfft_fast_init_f64.c ****   @param[in,out] S  points to an arm_rfft_fast_instance_f64 structure
  46:.\DSP\Source\TransformFunctions/arm_rfft_fast_init_f64.c ****   @return        execution status
  47:.\DSP\Source\TransformFunctions/arm_rfft_fast_init_f64.c ****                    - \ref ARM_MATH_SUCCESS        : Operation successful
  48:.\DSP\Source\TransformFunctions/arm_rfft_fast_init_f64.c ****                    - \ref ARM_MATH_ARGUMENT_ERROR : an error is detected
  49:.\DSP\Source\TransformFunctions/arm_rfft_fast_init_f64.c ****  */
  50:.\DSP\Source\TransformFunctions/arm_rfft_fast_init_f64.c **** 
  51:.\DSP\Source\TransformFunctions/arm_rfft_fast_init_f64.c **** static arm_status arm_rfft_32_fast_init_f64( arm_rfft_fast_instance_f64 * S ) {
  26              		.loc 1 51 0
  27              		.cfi_startproc
  28              		@ args = 0, pretend = 0, frame = 0
  29              		@ frame_needed = 0, uses_anonymous_args = 0
  30              		@ link register save eliminated.
  31              	.LVL0:
  52:.\DSP\Source\TransformFunctions/arm_rfft_fast_init_f64.c **** 
  53:.\DSP\Source\TransformFunctions/arm_rfft_fast_init_f64.c ****   arm_cfft_instance_f64 * Sint;
  54:.\DSP\Source\TransformFunctions/arm_rfft_fast_init_f64.c **** 
  55:.\DSP\Source\TransformFunctions/arm_rfft_fast_init_f64.c ****   if( !S ) return ARM_MATH_ARGUMENT_ERROR;
  32              		.loc 1 55 0
  33 0000 68B1     		cbz	r0, .L3
  34              	.LVL1:
  56:.\DSP\Source\TransformFunctions/arm_rfft_fast_init_f64.c **** 
  57:.\DSP\Source\TransformFunctions/arm_rfft_fast_init_f64.c ****   Sint = &(S->Sint);
  58:.\DSP\Source\TransformFunctions/arm_rfft_fast_init_f64.c ****   Sint->fftLen = 16U;
  35              		.loc 1 58 0
  36 0002 1022     		movs	r2, #16
  37 0004 0280     		strh	r2, [r0]	@ movhi
  59:.\DSP\Source\TransformFunctions/arm_rfft_fast_init_f64.c ****   S->fftLenRFFT = 32U;
  38              		.loc 1 59 0
  39 0006 2022     		movs	r2, #32
  40 0008 0282     		strh	r2, [r0, #16]	@ movhi
  60:.\DSP\Source\TransformFunctions/arm_rfft_fast_init_f64.c **** 
  61:.\DSP\Source\TransformFunctions/arm_rfft_fast_init_f64.c ****   Sint->bitRevLength = ARMBITREVINDEXTABLEF64_16_TABLE_LENGTH;
  41              		.loc 1 61 0
  42 000a 0C22     		movs	r2, #12
  43 000c 8281     		strh	r2, [r0, #12]	@ movhi
  62:.\DSP\Source\TransformFunctions/arm_rfft_fast_init_f64.c ****   Sint->pBitRevTable = (uint16_t *)armBitRevIndexTableF64_16;
  44              		.loc 1 62 0
  45 000e 054A     		ldr	r2, .L4
  46 0010 8260     		str	r2, [r0, #8]
  63:.\DSP\Source\TransformFunctions/arm_rfft_fast_init_f64.c ****   Sint->pTwiddle     = (float64_t *) twiddleCoefF64_16;
  47              		.loc 1 63 0
  48 0012 054A     		ldr	r2, .L4+4
  49 0014 4260     		str	r2, [r0, #4]
  64:.\DSP\Source\TransformFunctions/arm_rfft_fast_init_f64.c ****   S->pTwiddleRFFT    = (float64_t *) twiddleCoefF64_rfft_32;
  50              		.loc 1 64 0
ARM GAS  C:\Users\IVYLIU~1\AppData\Local\Temp\ccdQJDgb.s 			page 3


  51 0016 054A     		ldr	r2, .L4+8
  52 0018 4261     		str	r2, [r0, #20]
  65:.\DSP\Source\TransformFunctions/arm_rfft_fast_init_f64.c **** 
  66:.\DSP\Source\TransformFunctions/arm_rfft_fast_init_f64.c ****   return ARM_MATH_SUCCESS;
  53              		.loc 1 66 0
  54 001a 0020     		movs	r0, #0
  55              	.LVL2:
  56 001c 00E0     		b	.L2
  57              	.LVL3:
  58              	.L3:
  55:.\DSP\Source\TransformFunctions/arm_rfft_fast_init_f64.c **** 
  59              		.loc 1 55 0
  60 001e FF20     		movs	r0, #255
  61              	.LVL4:
  62              	.L2:
  67:.\DSP\Source\TransformFunctions/arm_rfft_fast_init_f64.c **** }
  63              		.loc 1 67 0
  64 0020 40B2     		sxtb	r0, r0
  65 0022 7047     		bx	lr
  66              	.L5:
  67              		.align	2
  68              	.L4:
  69 0024 00000000 		.word	armBitRevIndexTableF64_16
  70 0028 00000000 		.word	twiddleCoefF64_16
  71 002c 00000000 		.word	twiddleCoefF64_rfft_32
  72              		.cfi_endproc
  73              	.LFE84:
  74              		.size	arm_rfft_32_fast_init_f64, .-arm_rfft_32_fast_init_f64
  75              		.section	.text.arm_rfft_64_fast_init_f64,"ax",%progbits
  76              		.align	2
  77              		.thumb
  78              		.thumb_func
  79              		.type	arm_rfft_64_fast_init_f64, %function
  80              	arm_rfft_64_fast_init_f64:
  81              	.LFB85:
  68:.\DSP\Source\TransformFunctions/arm_rfft_fast_init_f64.c **** #endif
  69:.\DSP\Source\TransformFunctions/arm_rfft_fast_init_f64.c **** 
  70:.\DSP\Source\TransformFunctions/arm_rfft_fast_init_f64.c **** #if !defined(ARM_DSP_CONFIG_TABLES) || defined(ARM_ALL_FFT_TABLES) || (defined(ARM_TABLE_TWIDDLECOE
  71:.\DSP\Source\TransformFunctions/arm_rfft_fast_init_f64.c **** 
  72:.\DSP\Source\TransformFunctions/arm_rfft_fast_init_f64.c **** /**
  73:.\DSP\Source\TransformFunctions/arm_rfft_fast_init_f64.c ****   @brief         Initialization function for the 64pt Double Precision floating-point real FFT.
  74:.\DSP\Source\TransformFunctions/arm_rfft_fast_init_f64.c ****   @param[in,out] S  points to an arm_rfft_fast_instance_f64 structure
  75:.\DSP\Source\TransformFunctions/arm_rfft_fast_init_f64.c ****   @return        execution status
  76:.\DSP\Source\TransformFunctions/arm_rfft_fast_init_f64.c ****                    - \ref ARM_MATH_SUCCESS        : Operation successful
  77:.\DSP\Source\TransformFunctions/arm_rfft_fast_init_f64.c ****                    - \ref ARM_MATH_ARGUMENT_ERROR : an error is detected
  78:.\DSP\Source\TransformFunctions/arm_rfft_fast_init_f64.c ****  */
  79:.\DSP\Source\TransformFunctions/arm_rfft_fast_init_f64.c **** 
  80:.\DSP\Source\TransformFunctions/arm_rfft_fast_init_f64.c **** static arm_status arm_rfft_64_fast_init_f64( arm_rfft_fast_instance_f64 * S ) {
  82              		.loc 1 80 0
  83              		.cfi_startproc
  84              		@ args = 0, pretend = 0, frame = 0
  85              		@ frame_needed = 0, uses_anonymous_args = 0
  86              		@ link register save eliminated.
  87              	.LVL5:
  81:.\DSP\Source\TransformFunctions/arm_rfft_fast_init_f64.c **** 
  82:.\DSP\Source\TransformFunctions/arm_rfft_fast_init_f64.c ****   arm_cfft_instance_f64 * Sint;
  83:.\DSP\Source\TransformFunctions/arm_rfft_fast_init_f64.c **** 
ARM GAS  C:\Users\IVYLIU~1\AppData\Local\Temp\ccdQJDgb.s 			page 4


  84:.\DSP\Source\TransformFunctions/arm_rfft_fast_init_f64.c ****   if( !S ) return ARM_MATH_ARGUMENT_ERROR;
  88              		.loc 1 84 0
  89 0000 68B1     		cbz	r0, .L8
  90              	.LVL6:
  85:.\DSP\Source\TransformFunctions/arm_rfft_fast_init_f64.c **** 
  86:.\DSP\Source\TransformFunctions/arm_rfft_fast_init_f64.c ****   Sint = &(S->Sint);
  87:.\DSP\Source\TransformFunctions/arm_rfft_fast_init_f64.c ****   Sint->fftLen = 32U;
  91              		.loc 1 87 0
  92 0002 2022     		movs	r2, #32
  93 0004 0280     		strh	r2, [r0]	@ movhi
  88:.\DSP\Source\TransformFunctions/arm_rfft_fast_init_f64.c ****   S->fftLenRFFT = 64U;
  94              		.loc 1 88 0
  95 0006 4022     		movs	r2, #64
  96 0008 0282     		strh	r2, [r0, #16]	@ movhi
  89:.\DSP\Source\TransformFunctions/arm_rfft_fast_init_f64.c **** 
  90:.\DSP\Source\TransformFunctions/arm_rfft_fast_init_f64.c ****   Sint->bitRevLength = ARMBITREVINDEXTABLEF64_32_TABLE_LENGTH;
  97              		.loc 1 90 0
  98 000a 1822     		movs	r2, #24
  99 000c 8281     		strh	r2, [r0, #12]	@ movhi
  91:.\DSP\Source\TransformFunctions/arm_rfft_fast_init_f64.c ****   Sint->pBitRevTable = (uint16_t *)armBitRevIndexTableF64_32;
 100              		.loc 1 91 0
 101 000e 054A     		ldr	r2, .L9
 102 0010 8260     		str	r2, [r0, #8]
  92:.\DSP\Source\TransformFunctions/arm_rfft_fast_init_f64.c ****   Sint->pTwiddle     = (float64_t *) twiddleCoefF64_32;
 103              		.loc 1 92 0
 104 0012 054A     		ldr	r2, .L9+4
 105 0014 4260     		str	r2, [r0, #4]
  93:.\DSP\Source\TransformFunctions/arm_rfft_fast_init_f64.c ****   S->pTwiddleRFFT    = (float64_t *) twiddleCoefF64_rfft_64;
 106              		.loc 1 93 0
 107 0016 054A     		ldr	r2, .L9+8
 108 0018 4261     		str	r2, [r0, #20]
  94:.\DSP\Source\TransformFunctions/arm_rfft_fast_init_f64.c **** 
  95:.\DSP\Source\TransformFunctions/arm_rfft_fast_init_f64.c ****   return ARM_MATH_SUCCESS;
 109              		.loc 1 95 0
 110 001a 0020     		movs	r0, #0
 111              	.LVL7:
 112 001c 00E0     		b	.L7
 113              	.LVL8:
 114              	.L8:
  84:.\DSP\Source\TransformFunctions/arm_rfft_fast_init_f64.c **** 
 115              		.loc 1 84 0
 116 001e FF20     		movs	r0, #255
 117              	.LVL9:
 118              	.L7:
  96:.\DSP\Source\TransformFunctions/arm_rfft_fast_init_f64.c **** }
 119              		.loc 1 96 0
 120 0020 40B2     		sxtb	r0, r0
 121 0022 7047     		bx	lr
 122              	.L10:
 123              		.align	2
 124              	.L9:
 125 0024 00000000 		.word	armBitRevIndexTableF64_32
 126 0028 00000000 		.word	twiddleCoefF64_32
 127 002c 00000000 		.word	twiddleCoefF64_rfft_64
 128              		.cfi_endproc
 129              	.LFE85:
 130              		.size	arm_rfft_64_fast_init_f64, .-arm_rfft_64_fast_init_f64
ARM GAS  C:\Users\IVYLIU~1\AppData\Local\Temp\ccdQJDgb.s 			page 5


 131              		.section	.text.arm_rfft_128_fast_init_f64,"ax",%progbits
 132              		.align	2
 133              		.thumb
 134              		.thumb_func
 135              		.type	arm_rfft_128_fast_init_f64, %function
 136              	arm_rfft_128_fast_init_f64:
 137              	.LFB86:
  97:.\DSP\Source\TransformFunctions/arm_rfft_fast_init_f64.c **** #endif
  98:.\DSP\Source\TransformFunctions/arm_rfft_fast_init_f64.c **** 
  99:.\DSP\Source\TransformFunctions/arm_rfft_fast_init_f64.c **** #if !defined(ARM_DSP_CONFIG_TABLES) || defined(ARM_ALL_FFT_TABLES) || (defined(ARM_TABLE_TWIDDLECOE
 100:.\DSP\Source\TransformFunctions/arm_rfft_fast_init_f64.c **** 
 101:.\DSP\Source\TransformFunctions/arm_rfft_fast_init_f64.c **** /**
 102:.\DSP\Source\TransformFunctions/arm_rfft_fast_init_f64.c ****   @brief         Initialization function for the 128pt Double Precision floating-point real FFT.
 103:.\DSP\Source\TransformFunctions/arm_rfft_fast_init_f64.c ****   @param[in,out] S  points to an arm_rfft_fast_instance_f64 structure
 104:.\DSP\Source\TransformFunctions/arm_rfft_fast_init_f64.c ****   @return        execution status
 105:.\DSP\Source\TransformFunctions/arm_rfft_fast_init_f64.c ****                    - \ref ARM_MATH_SUCCESS        : Operation successful
 106:.\DSP\Source\TransformFunctions/arm_rfft_fast_init_f64.c ****                    - \ref ARM_MATH_ARGUMENT_ERROR : an error is detected
 107:.\DSP\Source\TransformFunctions/arm_rfft_fast_init_f64.c ****  */
 108:.\DSP\Source\TransformFunctions/arm_rfft_fast_init_f64.c **** 
 109:.\DSP\Source\TransformFunctions/arm_rfft_fast_init_f64.c **** static arm_status arm_rfft_128_fast_init_f64( arm_rfft_fast_instance_f64 * S ) {
 138              		.loc 1 109 0
 139              		.cfi_startproc
 140              		@ args = 0, pretend = 0, frame = 0
 141              		@ frame_needed = 0, uses_anonymous_args = 0
 142              		@ link register save eliminated.
 143              	.LVL10:
 110:.\DSP\Source\TransformFunctions/arm_rfft_fast_init_f64.c **** 
 111:.\DSP\Source\TransformFunctions/arm_rfft_fast_init_f64.c ****   arm_cfft_instance_f64 * Sint;
 112:.\DSP\Source\TransformFunctions/arm_rfft_fast_init_f64.c **** 
 113:.\DSP\Source\TransformFunctions/arm_rfft_fast_init_f64.c ****   if( !S ) return ARM_MATH_ARGUMENT_ERROR;
 144              		.loc 1 113 0
 145 0000 68B1     		cbz	r0, .L13
 146              	.LVL11:
 114:.\DSP\Source\TransformFunctions/arm_rfft_fast_init_f64.c **** 
 115:.\DSP\Source\TransformFunctions/arm_rfft_fast_init_f64.c ****   Sint = &(S->Sint);
 116:.\DSP\Source\TransformFunctions/arm_rfft_fast_init_f64.c ****   Sint->fftLen = 64U;
 147              		.loc 1 116 0
 148 0002 4022     		movs	r2, #64
 149 0004 0280     		strh	r2, [r0]	@ movhi
 117:.\DSP\Source\TransformFunctions/arm_rfft_fast_init_f64.c ****   S->fftLenRFFT = 128U;
 150              		.loc 1 117 0
 151 0006 8022     		movs	r2, #128
 152 0008 0282     		strh	r2, [r0, #16]	@ movhi
 118:.\DSP\Source\TransformFunctions/arm_rfft_fast_init_f64.c **** 
 119:.\DSP\Source\TransformFunctions/arm_rfft_fast_init_f64.c ****   Sint->bitRevLength = ARMBITREVINDEXTABLEF64_64_TABLE_LENGTH;
 153              		.loc 1 119 0
 154 000a 3822     		movs	r2, #56
 155 000c 8281     		strh	r2, [r0, #12]	@ movhi
 120:.\DSP\Source\TransformFunctions/arm_rfft_fast_init_f64.c ****   Sint->pBitRevTable = (uint16_t *)armBitRevIndexTableF64_64;
 156              		.loc 1 120 0
 157 000e 054A     		ldr	r2, .L14
 158 0010 8260     		str	r2, [r0, #8]
 121:.\DSP\Source\TransformFunctions/arm_rfft_fast_init_f64.c ****   Sint->pTwiddle     = (float64_t *) twiddleCoefF64_64;
 159              		.loc 1 121 0
 160 0012 054A     		ldr	r2, .L14+4
 161 0014 4260     		str	r2, [r0, #4]
 122:.\DSP\Source\TransformFunctions/arm_rfft_fast_init_f64.c ****   S->pTwiddleRFFT    = (float64_t *) twiddleCoefF64_rfft_128;
ARM GAS  C:\Users\IVYLIU~1\AppData\Local\Temp\ccdQJDgb.s 			page 6


 162              		.loc 1 122 0
 163 0016 054A     		ldr	r2, .L14+8
 164 0018 4261     		str	r2, [r0, #20]
 123:.\DSP\Source\TransformFunctions/arm_rfft_fast_init_f64.c **** 
 124:.\DSP\Source\TransformFunctions/arm_rfft_fast_init_f64.c ****   return ARM_MATH_SUCCESS;
 165              		.loc 1 124 0
 166 001a 0020     		movs	r0, #0
 167              	.LVL12:
 168 001c 00E0     		b	.L12
 169              	.LVL13:
 170              	.L13:
 113:.\DSP\Source\TransformFunctions/arm_rfft_fast_init_f64.c **** 
 171              		.loc 1 113 0
 172 001e FF20     		movs	r0, #255
 173              	.LVL14:
 174              	.L12:
 125:.\DSP\Source\TransformFunctions/arm_rfft_fast_init_f64.c **** }
 175              		.loc 1 125 0
 176 0020 40B2     		sxtb	r0, r0
 177 0022 7047     		bx	lr
 178              	.L15:
 179              		.align	2
 180              	.L14:
 181 0024 00000000 		.word	armBitRevIndexTableF64_64
 182 0028 00000000 		.word	twiddleCoefF64_64
 183 002c 00000000 		.word	twiddleCoefF64_rfft_128
 184              		.cfi_endproc
 185              	.LFE86:
 186              		.size	arm_rfft_128_fast_init_f64, .-arm_rfft_128_fast_init_f64
 187              		.section	.text.arm_rfft_256_fast_init_f64,"ax",%progbits
 188              		.align	2
 189              		.thumb
 190              		.thumb_func
 191              		.type	arm_rfft_256_fast_init_f64, %function
 192              	arm_rfft_256_fast_init_f64:
 193              	.LFB87:
 126:.\DSP\Source\TransformFunctions/arm_rfft_fast_init_f64.c **** #endif
 127:.\DSP\Source\TransformFunctions/arm_rfft_fast_init_f64.c **** 
 128:.\DSP\Source\TransformFunctions/arm_rfft_fast_init_f64.c **** #if !defined(ARM_DSP_CONFIG_TABLES) || defined(ARM_ALL_FFT_TABLES) || (defined(ARM_TABLE_TWIDDLECOE
 129:.\DSP\Source\TransformFunctions/arm_rfft_fast_init_f64.c **** 
 130:.\DSP\Source\TransformFunctions/arm_rfft_fast_init_f64.c **** /**
 131:.\DSP\Source\TransformFunctions/arm_rfft_fast_init_f64.c ****   @brief         Initialization function for the 256pt Double Precision floating-point real FFT.
 132:.\DSP\Source\TransformFunctions/arm_rfft_fast_init_f64.c ****   @param[in,out] S  points to an arm_rfft_fast_instance_f64 structure
 133:.\DSP\Source\TransformFunctions/arm_rfft_fast_init_f64.c ****   @return        execution status
 134:.\DSP\Source\TransformFunctions/arm_rfft_fast_init_f64.c ****                    - \ref ARM_MATH_SUCCESS        : Operation successful
 135:.\DSP\Source\TransformFunctions/arm_rfft_fast_init_f64.c ****                    - \ref ARM_MATH_ARGUMENT_ERROR : an error is detected
 136:.\DSP\Source\TransformFunctions/arm_rfft_fast_init_f64.c **** */
 137:.\DSP\Source\TransformFunctions/arm_rfft_fast_init_f64.c **** 
 138:.\DSP\Source\TransformFunctions/arm_rfft_fast_init_f64.c **** static arm_status arm_rfft_256_fast_init_f64( arm_rfft_fast_instance_f64 * S ) {
 194              		.loc 1 138 0
 195              		.cfi_startproc
 196              		@ args = 0, pretend = 0, frame = 0
 197              		@ frame_needed = 0, uses_anonymous_args = 0
 198              		@ link register save eliminated.
 199              	.LVL15:
 139:.\DSP\Source\TransformFunctions/arm_rfft_fast_init_f64.c **** 
 140:.\DSP\Source\TransformFunctions/arm_rfft_fast_init_f64.c ****   arm_cfft_instance_f64 * Sint;
ARM GAS  C:\Users\IVYLIU~1\AppData\Local\Temp\ccdQJDgb.s 			page 7


 141:.\DSP\Source\TransformFunctions/arm_rfft_fast_init_f64.c **** 
 142:.\DSP\Source\TransformFunctions/arm_rfft_fast_init_f64.c ****   if( !S ) return ARM_MATH_ARGUMENT_ERROR;
 200              		.loc 1 142 0
 201 0000 70B1     		cbz	r0, .L18
 202              	.LVL16:
 143:.\DSP\Source\TransformFunctions/arm_rfft_fast_init_f64.c **** 
 144:.\DSP\Source\TransformFunctions/arm_rfft_fast_init_f64.c ****   Sint = &(S->Sint);
 145:.\DSP\Source\TransformFunctions/arm_rfft_fast_init_f64.c ****   Sint->fftLen = 128U;
 203              		.loc 1 145 0
 204 0002 8022     		movs	r2, #128
 205 0004 0280     		strh	r2, [r0]	@ movhi
 146:.\DSP\Source\TransformFunctions/arm_rfft_fast_init_f64.c ****   S->fftLenRFFT = 256U;
 206              		.loc 1 146 0
 207 0006 4FF48072 		mov	r2, #256
 208 000a 0282     		strh	r2, [r0, #16]	@ movhi
 147:.\DSP\Source\TransformFunctions/arm_rfft_fast_init_f64.c **** 
 148:.\DSP\Source\TransformFunctions/arm_rfft_fast_init_f64.c ****   Sint->bitRevLength = ARMBITREVINDEXTABLEF64_128_TABLE_LENGTH;
 209              		.loc 1 148 0
 210 000c 7022     		movs	r2, #112
 211 000e 8281     		strh	r2, [r0, #12]	@ movhi
 149:.\DSP\Source\TransformFunctions/arm_rfft_fast_init_f64.c ****   Sint->pBitRevTable = (uint16_t *)armBitRevIndexTableF64_128;
 212              		.loc 1 149 0
 213 0010 054A     		ldr	r2, .L19
 214 0012 8260     		str	r2, [r0, #8]
 150:.\DSP\Source\TransformFunctions/arm_rfft_fast_init_f64.c ****   Sint->pTwiddle     = (float64_t *) twiddleCoefF64_128;
 215              		.loc 1 150 0
 216 0014 054A     		ldr	r2, .L19+4
 217 0016 4260     		str	r2, [r0, #4]
 151:.\DSP\Source\TransformFunctions/arm_rfft_fast_init_f64.c ****   S->pTwiddleRFFT    = (float64_t *) twiddleCoefF64_rfft_256;
 218              		.loc 1 151 0
 219 0018 054A     		ldr	r2, .L19+8
 220 001a 4261     		str	r2, [r0, #20]
 152:.\DSP\Source\TransformFunctions/arm_rfft_fast_init_f64.c **** 
 153:.\DSP\Source\TransformFunctions/arm_rfft_fast_init_f64.c ****   return ARM_MATH_SUCCESS;
 221              		.loc 1 153 0
 222 001c 0020     		movs	r0, #0
 223              	.LVL17:
 224 001e 00E0     		b	.L17
 225              	.LVL18:
 226              	.L18:
 142:.\DSP\Source\TransformFunctions/arm_rfft_fast_init_f64.c **** 
 227              		.loc 1 142 0
 228 0020 FF20     		movs	r0, #255
 229              	.LVL19:
 230              	.L17:
 154:.\DSP\Source\TransformFunctions/arm_rfft_fast_init_f64.c **** }
 231              		.loc 1 154 0
 232 0022 40B2     		sxtb	r0, r0
 233 0024 7047     		bx	lr
 234              	.L20:
 235 0026 00BF     		.align	2
 236              	.L19:
 237 0028 00000000 		.word	armBitRevIndexTableF64_128
 238 002c 00000000 		.word	twiddleCoefF64_128
 239 0030 00000000 		.word	twiddleCoefF64_rfft_256
 240              		.cfi_endproc
 241              	.LFE87:
ARM GAS  C:\Users\IVYLIU~1\AppData\Local\Temp\ccdQJDgb.s 			page 8


 242              		.size	arm_rfft_256_fast_init_f64, .-arm_rfft_256_fast_init_f64
 243              		.section	.text.arm_rfft_512_fast_init_f64,"ax",%progbits
 244              		.align	2
 245              		.thumb
 246              		.thumb_func
 247              		.type	arm_rfft_512_fast_init_f64, %function
 248              	arm_rfft_512_fast_init_f64:
 249              	.LFB88:
 155:.\DSP\Source\TransformFunctions/arm_rfft_fast_init_f64.c **** #endif
 156:.\DSP\Source\TransformFunctions/arm_rfft_fast_init_f64.c **** 
 157:.\DSP\Source\TransformFunctions/arm_rfft_fast_init_f64.c **** #if !defined(ARM_DSP_CONFIG_TABLES) || defined(ARM_ALL_FFT_TABLES) || (defined(ARM_TABLE_TWIDDLECOE
 158:.\DSP\Source\TransformFunctions/arm_rfft_fast_init_f64.c **** 
 159:.\DSP\Source\TransformFunctions/arm_rfft_fast_init_f64.c **** /**
 160:.\DSP\Source\TransformFunctions/arm_rfft_fast_init_f64.c ****   @brief         Initialization function for the 512pt Double Precision floating-point real FFT.
 161:.\DSP\Source\TransformFunctions/arm_rfft_fast_init_f64.c ****   @param[in,out] S  points to an arm_rfft_fast_instance_f64 structure
 162:.\DSP\Source\TransformFunctions/arm_rfft_fast_init_f64.c ****   @return        execution status
 163:.\DSP\Source\TransformFunctions/arm_rfft_fast_init_f64.c ****                    - \ref ARM_MATH_SUCCESS        : Operation successful
 164:.\DSP\Source\TransformFunctions/arm_rfft_fast_init_f64.c ****                    - \ref ARM_MATH_ARGUMENT_ERROR : an error is detected
 165:.\DSP\Source\TransformFunctions/arm_rfft_fast_init_f64.c ****  */
 166:.\DSP\Source\TransformFunctions/arm_rfft_fast_init_f64.c **** 
 167:.\DSP\Source\TransformFunctions/arm_rfft_fast_init_f64.c **** static arm_status arm_rfft_512_fast_init_f64( arm_rfft_fast_instance_f64 * S ) {
 250              		.loc 1 167 0
 251              		.cfi_startproc
 252              		@ args = 0, pretend = 0, frame = 0
 253              		@ frame_needed = 0, uses_anonymous_args = 0
 254              		@ link register save eliminated.
 255              	.LVL20:
 168:.\DSP\Source\TransformFunctions/arm_rfft_fast_init_f64.c **** 
 169:.\DSP\Source\TransformFunctions/arm_rfft_fast_init_f64.c ****   arm_cfft_instance_f64 * Sint;
 170:.\DSP\Source\TransformFunctions/arm_rfft_fast_init_f64.c **** 
 171:.\DSP\Source\TransformFunctions/arm_rfft_fast_init_f64.c ****   if( !S ) return ARM_MATH_ARGUMENT_ERROR;
 256              		.loc 1 171 0
 257 0000 78B1     		cbz	r0, .L23
 258              	.LVL21:
 172:.\DSP\Source\TransformFunctions/arm_rfft_fast_init_f64.c **** 
 173:.\DSP\Source\TransformFunctions/arm_rfft_fast_init_f64.c ****   Sint = &(S->Sint);
 174:.\DSP\Source\TransformFunctions/arm_rfft_fast_init_f64.c ****   Sint->fftLen = 256U;
 259              		.loc 1 174 0
 260 0002 4FF48072 		mov	r2, #256
 261 0006 0280     		strh	r2, [r0]	@ movhi
 175:.\DSP\Source\TransformFunctions/arm_rfft_fast_init_f64.c ****   S->fftLenRFFT = 512U;
 262              		.loc 1 175 0
 263 0008 4FF40072 		mov	r2, #512
 264 000c 0282     		strh	r2, [r0, #16]	@ movhi
 176:.\DSP\Source\TransformFunctions/arm_rfft_fast_init_f64.c **** 
 177:.\DSP\Source\TransformFunctions/arm_rfft_fast_init_f64.c ****   Sint->bitRevLength = ARMBITREVINDEXTABLEF64_256_TABLE_LENGTH;
 265              		.loc 1 177 0
 266 000e F022     		movs	r2, #240
 267 0010 8281     		strh	r2, [r0, #12]	@ movhi
 178:.\DSP\Source\TransformFunctions/arm_rfft_fast_init_f64.c ****   Sint->pBitRevTable = (uint16_t *)armBitRevIndexTableF64_256;
 268              		.loc 1 178 0
 269 0012 054A     		ldr	r2, .L24
 270 0014 8260     		str	r2, [r0, #8]
 179:.\DSP\Source\TransformFunctions/arm_rfft_fast_init_f64.c ****   Sint->pTwiddle     = (float64_t *) twiddleCoefF64_256;
 271              		.loc 1 179 0
 272 0016 054A     		ldr	r2, .L24+4
 273 0018 4260     		str	r2, [r0, #4]
ARM GAS  C:\Users\IVYLIU~1\AppData\Local\Temp\ccdQJDgb.s 			page 9


 180:.\DSP\Source\TransformFunctions/arm_rfft_fast_init_f64.c ****   S->pTwiddleRFFT    = (float64_t *) twiddleCoefF64_rfft_512;
 274              		.loc 1 180 0
 275 001a 054A     		ldr	r2, .L24+8
 276 001c 4261     		str	r2, [r0, #20]
 181:.\DSP\Source\TransformFunctions/arm_rfft_fast_init_f64.c **** 
 182:.\DSP\Source\TransformFunctions/arm_rfft_fast_init_f64.c ****   return ARM_MATH_SUCCESS;
 277              		.loc 1 182 0
 278 001e 0020     		movs	r0, #0
 279              	.LVL22:
 280 0020 00E0     		b	.L22
 281              	.LVL23:
 282              	.L23:
 171:.\DSP\Source\TransformFunctions/arm_rfft_fast_init_f64.c **** 
 283              		.loc 1 171 0
 284 0022 FF20     		movs	r0, #255
 285              	.LVL24:
 286              	.L22:
 183:.\DSP\Source\TransformFunctions/arm_rfft_fast_init_f64.c **** }
 287              		.loc 1 183 0
 288 0024 40B2     		sxtb	r0, r0
 289 0026 7047     		bx	lr
 290              	.L25:
 291              		.align	2
 292              	.L24:
 293 0028 00000000 		.word	armBitRevIndexTableF64_256
 294 002c 00000000 		.word	twiddleCoefF64_256
 295 0030 00000000 		.word	twiddleCoefF64_rfft_512
 296              		.cfi_endproc
 297              	.LFE88:
 298              		.size	arm_rfft_512_fast_init_f64, .-arm_rfft_512_fast_init_f64
 299              		.section	.text.arm_rfft_1024_fast_init_f64,"ax",%progbits
 300              		.align	2
 301              		.thumb
 302              		.thumb_func
 303              		.type	arm_rfft_1024_fast_init_f64, %function
 304              	arm_rfft_1024_fast_init_f64:
 305              	.LFB89:
 184:.\DSP\Source\TransformFunctions/arm_rfft_fast_init_f64.c **** #endif
 185:.\DSP\Source\TransformFunctions/arm_rfft_fast_init_f64.c **** 
 186:.\DSP\Source\TransformFunctions/arm_rfft_fast_init_f64.c **** #if !defined(ARM_DSP_CONFIG_TABLES) || defined(ARM_ALL_FFT_TABLES) || (defined(ARM_TABLE_TWIDDLECOE
 187:.\DSP\Source\TransformFunctions/arm_rfft_fast_init_f64.c **** /**
 188:.\DSP\Source\TransformFunctions/arm_rfft_fast_init_f64.c ****   @brief         Initialization function for the 1024pt Double Precision floating-point real FFT.
 189:.\DSP\Source\TransformFunctions/arm_rfft_fast_init_f64.c ****   @param[in,out] S  points to an arm_rfft_fast_instance_f64 structure
 190:.\DSP\Source\TransformFunctions/arm_rfft_fast_init_f64.c ****   @return        execution status
 191:.\DSP\Source\TransformFunctions/arm_rfft_fast_init_f64.c ****                    - \ref ARM_MATH_SUCCESS        : Operation successful
 192:.\DSP\Source\TransformFunctions/arm_rfft_fast_init_f64.c ****                    - \ref ARM_MATH_ARGUMENT_ERROR : an error is detected
 193:.\DSP\Source\TransformFunctions/arm_rfft_fast_init_f64.c ****  */
 194:.\DSP\Source\TransformFunctions/arm_rfft_fast_init_f64.c **** 
 195:.\DSP\Source\TransformFunctions/arm_rfft_fast_init_f64.c **** static arm_status arm_rfft_1024_fast_init_f64( arm_rfft_fast_instance_f64 * S ) {
 306              		.loc 1 195 0
 307              		.cfi_startproc
 308              		@ args = 0, pretend = 0, frame = 0
 309              		@ frame_needed = 0, uses_anonymous_args = 0
 310              		@ link register save eliminated.
 311              	.LVL25:
 196:.\DSP\Source\TransformFunctions/arm_rfft_fast_init_f64.c **** 
 197:.\DSP\Source\TransformFunctions/arm_rfft_fast_init_f64.c ****   arm_cfft_instance_f64 * Sint;
ARM GAS  C:\Users\IVYLIU~1\AppData\Local\Temp\ccdQJDgb.s 			page 10


 198:.\DSP\Source\TransformFunctions/arm_rfft_fast_init_f64.c **** 
 199:.\DSP\Source\TransformFunctions/arm_rfft_fast_init_f64.c ****   if( !S ) return ARM_MATH_ARGUMENT_ERROR;
 312              		.loc 1 199 0
 313 0000 80B1     		cbz	r0, .L28
 314              	.LVL26:
 200:.\DSP\Source\TransformFunctions/arm_rfft_fast_init_f64.c **** 
 201:.\DSP\Source\TransformFunctions/arm_rfft_fast_init_f64.c ****   Sint = &(S->Sint);
 202:.\DSP\Source\TransformFunctions/arm_rfft_fast_init_f64.c ****   Sint->fftLen = 512U;
 315              		.loc 1 202 0
 316 0002 4FF40072 		mov	r2, #512
 317 0006 0280     		strh	r2, [r0]	@ movhi
 203:.\DSP\Source\TransformFunctions/arm_rfft_fast_init_f64.c ****   S->fftLenRFFT = 1024U;
 318              		.loc 1 203 0
 319 0008 4FF48062 		mov	r2, #1024
 320 000c 0282     		strh	r2, [r0, #16]	@ movhi
 204:.\DSP\Source\TransformFunctions/arm_rfft_fast_init_f64.c **** 
 205:.\DSP\Source\TransformFunctions/arm_rfft_fast_init_f64.c ****   Sint->bitRevLength = ARMBITREVINDEXTABLEF64_512_TABLE_LENGTH;
 321              		.loc 1 205 0
 322 000e 4FF4F072 		mov	r2, #480
 323 0012 8281     		strh	r2, [r0, #12]	@ movhi
 206:.\DSP\Source\TransformFunctions/arm_rfft_fast_init_f64.c ****   Sint->pBitRevTable = (uint16_t *)armBitRevIndexTableF64_512;
 324              		.loc 1 206 0
 325 0014 054A     		ldr	r2, .L29
 326 0016 8260     		str	r2, [r0, #8]
 207:.\DSP\Source\TransformFunctions/arm_rfft_fast_init_f64.c ****   Sint->pTwiddle     = (float64_t *) twiddleCoefF64_512;
 327              		.loc 1 207 0
 328 0018 054A     		ldr	r2, .L29+4
 329 001a 4260     		str	r2, [r0, #4]
 208:.\DSP\Source\TransformFunctions/arm_rfft_fast_init_f64.c ****   S->pTwiddleRFFT    = (float64_t *) twiddleCoefF64_rfft_1024;
 330              		.loc 1 208 0
 331 001c 054A     		ldr	r2, .L29+8
 332 001e 4261     		str	r2, [r0, #20]
 209:.\DSP\Source\TransformFunctions/arm_rfft_fast_init_f64.c **** 
 210:.\DSP\Source\TransformFunctions/arm_rfft_fast_init_f64.c ****   return ARM_MATH_SUCCESS;
 333              		.loc 1 210 0
 334 0020 0020     		movs	r0, #0
 335              	.LVL27:
 336 0022 00E0     		b	.L27
 337              	.LVL28:
 338              	.L28:
 199:.\DSP\Source\TransformFunctions/arm_rfft_fast_init_f64.c **** 
 339              		.loc 1 199 0
 340 0024 FF20     		movs	r0, #255
 341              	.LVL29:
 342              	.L27:
 211:.\DSP\Source\TransformFunctions/arm_rfft_fast_init_f64.c **** }
 343              		.loc 1 211 0
 344 0026 40B2     		sxtb	r0, r0
 345 0028 7047     		bx	lr
 346              	.L30:
 347 002a 00BF     		.align	2
 348              	.L29:
 349 002c 00000000 		.word	armBitRevIndexTableF64_512
 350 0030 00000000 		.word	twiddleCoefF64_512
 351 0034 00000000 		.word	twiddleCoefF64_rfft_1024
 352              		.cfi_endproc
 353              	.LFE89:
ARM GAS  C:\Users\IVYLIU~1\AppData\Local\Temp\ccdQJDgb.s 			page 11


 354              		.size	arm_rfft_1024_fast_init_f64, .-arm_rfft_1024_fast_init_f64
 355              		.section	.text.arm_rfft_2048_fast_init_f64,"ax",%progbits
 356              		.align	2
 357              		.thumb
 358              		.thumb_func
 359              		.type	arm_rfft_2048_fast_init_f64, %function
 360              	arm_rfft_2048_fast_init_f64:
 361              	.LFB90:
 212:.\DSP\Source\TransformFunctions/arm_rfft_fast_init_f64.c **** #endif
 213:.\DSP\Source\TransformFunctions/arm_rfft_fast_init_f64.c **** 
 214:.\DSP\Source\TransformFunctions/arm_rfft_fast_init_f64.c **** #if !defined(ARM_DSP_CONFIG_TABLES) || defined(ARM_ALL_FFT_TABLES) || (defined(ARM_TABLE_TWIDDLECOE
 215:.\DSP\Source\TransformFunctions/arm_rfft_fast_init_f64.c **** /**
 216:.\DSP\Source\TransformFunctions/arm_rfft_fast_init_f64.c ****   @brief         Initialization function for the 2048pt Double Precision floating-point real FFT.
 217:.\DSP\Source\TransformFunctions/arm_rfft_fast_init_f64.c ****   @param[in,out] S  points to an arm_rfft_fast_instance_f64 structure
 218:.\DSP\Source\TransformFunctions/arm_rfft_fast_init_f64.c ****   @return        execution status
 219:.\DSP\Source\TransformFunctions/arm_rfft_fast_init_f64.c ****                    - \ref ARM_MATH_SUCCESS        : Operation successful
 220:.\DSP\Source\TransformFunctions/arm_rfft_fast_init_f64.c ****                    - \ref ARM_MATH_ARGUMENT_ERROR : an error is detected
 221:.\DSP\Source\TransformFunctions/arm_rfft_fast_init_f64.c ****  */
 222:.\DSP\Source\TransformFunctions/arm_rfft_fast_init_f64.c **** static arm_status arm_rfft_2048_fast_init_f64( arm_rfft_fast_instance_f64 * S ) {
 362              		.loc 1 222 0
 363              		.cfi_startproc
 364              		@ args = 0, pretend = 0, frame = 0
 365              		@ frame_needed = 0, uses_anonymous_args = 0
 366              		@ link register save eliminated.
 367              	.LVL30:
 223:.\DSP\Source\TransformFunctions/arm_rfft_fast_init_f64.c **** 
 224:.\DSP\Source\TransformFunctions/arm_rfft_fast_init_f64.c ****   arm_cfft_instance_f64 * Sint;
 225:.\DSP\Source\TransformFunctions/arm_rfft_fast_init_f64.c **** 
 226:.\DSP\Source\TransformFunctions/arm_rfft_fast_init_f64.c ****   if( !S ) return ARM_MATH_ARGUMENT_ERROR;
 368              		.loc 1 226 0
 369 0000 80B1     		cbz	r0, .L33
 370              	.LVL31:
 227:.\DSP\Source\TransformFunctions/arm_rfft_fast_init_f64.c **** 
 228:.\DSP\Source\TransformFunctions/arm_rfft_fast_init_f64.c ****   Sint = &(S->Sint);
 229:.\DSP\Source\TransformFunctions/arm_rfft_fast_init_f64.c ****   Sint->fftLen = 1024U;
 371              		.loc 1 229 0
 372 0002 4FF48062 		mov	r2, #1024
 373 0006 0280     		strh	r2, [r0]	@ movhi
 230:.\DSP\Source\TransformFunctions/arm_rfft_fast_init_f64.c ****   S->fftLenRFFT = 2048U;
 374              		.loc 1 230 0
 375 0008 4FF40062 		mov	r2, #2048
 376 000c 0282     		strh	r2, [r0, #16]	@ movhi
 231:.\DSP\Source\TransformFunctions/arm_rfft_fast_init_f64.c **** 
 232:.\DSP\Source\TransformFunctions/arm_rfft_fast_init_f64.c ****   Sint->bitRevLength = ARMBITREVINDEXTABLEF64_1024_TABLE_LENGTH;
 377              		.loc 1 232 0
 378 000e 4FF47872 		mov	r2, #992
 379 0012 8281     		strh	r2, [r0, #12]	@ movhi
 233:.\DSP\Source\TransformFunctions/arm_rfft_fast_init_f64.c ****   Sint->pBitRevTable = (uint16_t *)armBitRevIndexTableF64_1024;
 380              		.loc 1 233 0
 381 0014 054A     		ldr	r2, .L34
 382 0016 8260     		str	r2, [r0, #8]
 234:.\DSP\Source\TransformFunctions/arm_rfft_fast_init_f64.c ****   Sint->pTwiddle     = (float64_t *) twiddleCoefF64_1024;
 383              		.loc 1 234 0
 384 0018 054A     		ldr	r2, .L34+4
 385 001a 4260     		str	r2, [r0, #4]
 235:.\DSP\Source\TransformFunctions/arm_rfft_fast_init_f64.c ****   S->pTwiddleRFFT    = (float64_t *) twiddleCoefF64_rfft_2048;
 386              		.loc 1 235 0
ARM GAS  C:\Users\IVYLIU~1\AppData\Local\Temp\ccdQJDgb.s 			page 12


 387 001c 054A     		ldr	r2, .L34+8
 388 001e 4261     		str	r2, [r0, #20]
 236:.\DSP\Source\TransformFunctions/arm_rfft_fast_init_f64.c **** 
 237:.\DSP\Source\TransformFunctions/arm_rfft_fast_init_f64.c ****   return ARM_MATH_SUCCESS;
 389              		.loc 1 237 0
 390 0020 0020     		movs	r0, #0
 391              	.LVL32:
 392 0022 00E0     		b	.L32
 393              	.LVL33:
 394              	.L33:
 226:.\DSP\Source\TransformFunctions/arm_rfft_fast_init_f64.c **** 
 395              		.loc 1 226 0
 396 0024 FF20     		movs	r0, #255
 397              	.LVL34:
 398              	.L32:
 238:.\DSP\Source\TransformFunctions/arm_rfft_fast_init_f64.c **** }
 399              		.loc 1 238 0
 400 0026 40B2     		sxtb	r0, r0
 401 0028 7047     		bx	lr
 402              	.L35:
 403 002a 00BF     		.align	2
 404              	.L34:
 405 002c 00000000 		.word	armBitRevIndexTableF64_1024
 406 0030 00000000 		.word	twiddleCoefF64_1024
 407 0034 00000000 		.word	twiddleCoefF64_rfft_2048
 408              		.cfi_endproc
 409              	.LFE90:
 410              		.size	arm_rfft_2048_fast_init_f64, .-arm_rfft_2048_fast_init_f64
 411              		.section	.text.arm_rfft_4096_fast_init_f64,"ax",%progbits
 412              		.align	2
 413              		.thumb
 414              		.thumb_func
 415              		.type	arm_rfft_4096_fast_init_f64, %function
 416              	arm_rfft_4096_fast_init_f64:
 417              	.LFB91:
 239:.\DSP\Source\TransformFunctions/arm_rfft_fast_init_f64.c **** #endif
 240:.\DSP\Source\TransformFunctions/arm_rfft_fast_init_f64.c **** 
 241:.\DSP\Source\TransformFunctions/arm_rfft_fast_init_f64.c **** #if !defined(ARM_DSP_CONFIG_TABLES) || defined(ARM_ALL_FFT_TABLES) || (defined(ARM_TABLE_TWIDDLECOE
 242:.\DSP\Source\TransformFunctions/arm_rfft_fast_init_f64.c **** /**
 243:.\DSP\Source\TransformFunctions/arm_rfft_fast_init_f64.c **** * @brief         Initialization function for the 4096pt Double Precision floating-point real FFT.
 244:.\DSP\Source\TransformFunctions/arm_rfft_fast_init_f64.c **** * @param[in,out] S  points to an arm_rfft_fast_instance_f64 structure
 245:.\DSP\Source\TransformFunctions/arm_rfft_fast_init_f64.c ****   @return        execution status
 246:.\DSP\Source\TransformFunctions/arm_rfft_fast_init_f64.c ****                    - \ref ARM_MATH_SUCCESS        : Operation successful
 247:.\DSP\Source\TransformFunctions/arm_rfft_fast_init_f64.c ****                    - \ref ARM_MATH_ARGUMENT_ERROR : an error is detected
 248:.\DSP\Source\TransformFunctions/arm_rfft_fast_init_f64.c ****  */
 249:.\DSP\Source\TransformFunctions/arm_rfft_fast_init_f64.c **** 
 250:.\DSP\Source\TransformFunctions/arm_rfft_fast_init_f64.c **** static arm_status arm_rfft_4096_fast_init_f64( arm_rfft_fast_instance_f64 * S ) {
 418              		.loc 1 250 0
 419              		.cfi_startproc
 420              		@ args = 0, pretend = 0, frame = 0
 421              		@ frame_needed = 0, uses_anonymous_args = 0
 422              		@ link register save eliminated.
 423              	.LVL35:
 251:.\DSP\Source\TransformFunctions/arm_rfft_fast_init_f64.c **** 
 252:.\DSP\Source\TransformFunctions/arm_rfft_fast_init_f64.c ****   arm_cfft_instance_f64 * Sint;
 253:.\DSP\Source\TransformFunctions/arm_rfft_fast_init_f64.c **** 
 254:.\DSP\Source\TransformFunctions/arm_rfft_fast_init_f64.c ****   if( !S ) return ARM_MATH_ARGUMENT_ERROR;
ARM GAS  C:\Users\IVYLIU~1\AppData\Local\Temp\ccdQJDgb.s 			page 13


 424              		.loc 1 254 0
 425 0000 80B1     		cbz	r0, .L38
 426              	.LVL36:
 255:.\DSP\Source\TransformFunctions/arm_rfft_fast_init_f64.c **** 
 256:.\DSP\Source\TransformFunctions/arm_rfft_fast_init_f64.c ****   Sint = &(S->Sint);
 257:.\DSP\Source\TransformFunctions/arm_rfft_fast_init_f64.c ****   Sint->fftLen = 2048U;
 427              		.loc 1 257 0
 428 0002 4FF40062 		mov	r2, #2048
 429 0006 0280     		strh	r2, [r0]	@ movhi
 258:.\DSP\Source\TransformFunctions/arm_rfft_fast_init_f64.c ****   S->fftLenRFFT = 4096U;
 430              		.loc 1 258 0
 431 0008 4FF48052 		mov	r2, #4096
 432 000c 0282     		strh	r2, [r0, #16]	@ movhi
 259:.\DSP\Source\TransformFunctions/arm_rfft_fast_init_f64.c **** 
 260:.\DSP\Source\TransformFunctions/arm_rfft_fast_init_f64.c ****   Sint->bitRevLength = ARMBITREVINDEXTABLEF64_2048_TABLE_LENGTH;
 433              		.loc 1 260 0
 434 000e 4FF4F862 		mov	r2, #1984
 435 0012 8281     		strh	r2, [r0, #12]	@ movhi
 261:.\DSP\Source\TransformFunctions/arm_rfft_fast_init_f64.c ****   Sint->pBitRevTable = (uint16_t *)armBitRevIndexTableF64_2048;
 436              		.loc 1 261 0
 437 0014 054A     		ldr	r2, .L39
 438 0016 8260     		str	r2, [r0, #8]
 262:.\DSP\Source\TransformFunctions/arm_rfft_fast_init_f64.c ****   Sint->pTwiddle     = (float64_t *) twiddleCoefF64_2048;
 439              		.loc 1 262 0
 440 0018 054A     		ldr	r2, .L39+4
 441 001a 4260     		str	r2, [r0, #4]
 263:.\DSP\Source\TransformFunctions/arm_rfft_fast_init_f64.c ****   S->pTwiddleRFFT    = (float64_t *) twiddleCoefF64_rfft_4096;
 442              		.loc 1 263 0
 443 001c 054A     		ldr	r2, .L39+8
 444 001e 4261     		str	r2, [r0, #20]
 264:.\DSP\Source\TransformFunctions/arm_rfft_fast_init_f64.c **** 
 265:.\DSP\Source\TransformFunctions/arm_rfft_fast_init_f64.c ****   return ARM_MATH_SUCCESS;
 445              		.loc 1 265 0
 446 0020 0020     		movs	r0, #0
 447              	.LVL37:
 448 0022 00E0     		b	.L37
 449              	.LVL38:
 450              	.L38:
 254:.\DSP\Source\TransformFunctions/arm_rfft_fast_init_f64.c **** 
 451              		.loc 1 254 0
 452 0024 FF20     		movs	r0, #255
 453              	.LVL39:
 454              	.L37:
 266:.\DSP\Source\TransformFunctions/arm_rfft_fast_init_f64.c **** }
 455              		.loc 1 266 0
 456 0026 40B2     		sxtb	r0, r0
 457 0028 7047     		bx	lr
 458              	.L40:
 459 002a 00BF     		.align	2
 460              	.L39:
 461 002c 00000000 		.word	armBitRevIndexTableF64_2048
 462 0030 00000000 		.word	twiddleCoefF64_2048
 463 0034 00000000 		.word	twiddleCoefF64_rfft_4096
 464              		.cfi_endproc
 465              	.LFE91:
 466              		.size	arm_rfft_4096_fast_init_f64, .-arm_rfft_4096_fast_init_f64
 467              		.section	.text.arm_rfft_fast_init_f64,"ax",%progbits
ARM GAS  C:\Users\IVYLIU~1\AppData\Local\Temp\ccdQJDgb.s 			page 14


 468              		.align	2
 469              		.global	arm_rfft_fast_init_f64
 470              		.thumb
 471              		.thumb_func
 472              		.type	arm_rfft_fast_init_f64, %function
 473              	arm_rfft_fast_init_f64:
 474              	.LFB92:
 267:.\DSP\Source\TransformFunctions/arm_rfft_fast_init_f64.c **** #endif
 268:.\DSP\Source\TransformFunctions/arm_rfft_fast_init_f64.c **** 
 269:.\DSP\Source\TransformFunctions/arm_rfft_fast_init_f64.c **** /**
 270:.\DSP\Source\TransformFunctions/arm_rfft_fast_init_f64.c ****   @brief         Initialization function for the Double Precision floating-point real FFT.
 271:.\DSP\Source\TransformFunctions/arm_rfft_fast_init_f64.c ****   @param[in,out] S       points to an arm_rfft_fast_instance_f64 structure
 272:.\DSP\Source\TransformFunctions/arm_rfft_fast_init_f64.c ****   @param[in]     fftLen  length of the Real Sequence
 273:.\DSP\Source\TransformFunctions/arm_rfft_fast_init_f64.c ****   @return        execution status
 274:.\DSP\Source\TransformFunctions/arm_rfft_fast_init_f64.c ****                    - \ref ARM_MATH_SUCCESS        : Operation successful
 275:.\DSP\Source\TransformFunctions/arm_rfft_fast_init_f64.c ****                    - \ref ARM_MATH_ARGUMENT_ERROR : <code>fftLen</code> is not a supported length
 276:.\DSP\Source\TransformFunctions/arm_rfft_fast_init_f64.c **** 
 277:.\DSP\Source\TransformFunctions/arm_rfft_fast_init_f64.c ****   @par           Description
 278:.\DSP\Source\TransformFunctions/arm_rfft_fast_init_f64.c ****                    The parameter <code>fftLen</code> specifies the length of RFFT/CIFFT process.
 279:.\DSP\Source\TransformFunctions/arm_rfft_fast_init_f64.c ****                    Supported FFT Lengths are 32, 64, 128, 256, 512, 1024, 2048, 4096.
 280:.\DSP\Source\TransformFunctions/arm_rfft_fast_init_f64.c ****   @par
 281:.\DSP\Source\TransformFunctions/arm_rfft_fast_init_f64.c ****                    This Function also initializes Twiddle factor table pointer and Bit reversal tab
 282:.\DSP\Source\TransformFunctions/arm_rfft_fast_init_f64.c ****  */
 283:.\DSP\Source\TransformFunctions/arm_rfft_fast_init_f64.c **** 
 284:.\DSP\Source\TransformFunctions/arm_rfft_fast_init_f64.c **** arm_status arm_rfft_fast_init_f64(
 285:.\DSP\Source\TransformFunctions/arm_rfft_fast_init_f64.c ****   arm_rfft_fast_instance_f64 * S,
 286:.\DSP\Source\TransformFunctions/arm_rfft_fast_init_f64.c ****   uint16_t fftLen)
 287:.\DSP\Source\TransformFunctions/arm_rfft_fast_init_f64.c **** {
 475              		.loc 1 287 0
 476              		.cfi_startproc
 477              		@ args = 0, pretend = 0, frame = 0
 478              		@ frame_needed = 0, uses_anonymous_args = 0
 479              	.LVL40:
 480 0000 08B5     		push	{r3, lr}
 481              		.cfi_def_cfa_offset 8
 482              		.cfi_offset 3, -8
 483              		.cfi_offset 14, -4
 484              	.LVL41:
 288:.\DSP\Source\TransformFunctions/arm_rfft_fast_init_f64.c ****   typedef arm_status(*fft_init_ptr)( arm_rfft_fast_instance_f64 *);
 289:.\DSP\Source\TransformFunctions/arm_rfft_fast_init_f64.c ****   fft_init_ptr fptr = 0x0;
 290:.\DSP\Source\TransformFunctions/arm_rfft_fast_init_f64.c **** 
 291:.\DSP\Source\TransformFunctions/arm_rfft_fast_init_f64.c ****   switch (fftLen)
 485              		.loc 1 291 0
 486 0002 B1F5807F 		cmp	r1, #256
 487 0006 1DD0     		beq	.L43
 488 0008 06D8     		bhi	.L44
 489 000a 4029     		cmp	r1, #64
 490 000c 1ED0     		beq	.L45
 491 000e 8029     		cmp	r1, #128
 492 0010 1AD0     		beq	.L46
 493 0012 2029     		cmp	r1, #32
 494 0014 0ED1     		bne	.L42
 495 0016 1BE0     		b	.L47
 496              	.L44:
 497 0018 B1F5806F 		cmp	r1, #1024
 498 001c 0ED0     		beq	.L48
 499 001e 03D8     		bhi	.L49
ARM GAS  C:\Users\IVYLIU~1\AppData\Local\Temp\ccdQJDgb.s 			page 15


 500 0020 B1F5007F 		cmp	r1, #512
 501 0024 0CD0     		beq	.L50
 502 0026 05E0     		b	.L42
 503              	.L49:
 504 0028 B1F5006F 		cmp	r1, #2048
 505 002c 04D0     		beq	.L51
 506 002e B1F5805F 		cmp	r1, #4096
 507 0032 0FD0     		beq	.L54
 508              	.L42:
 289:.\DSP\Source\TransformFunctions/arm_rfft_fast_init_f64.c **** 
 509              		.loc 1 289 0
 510 0034 0023     		movs	r3, #0
 511 0036 0EE0     		b	.L52
 512              	.L51:
 513              	.LVL42:
 292:.\DSP\Source\TransformFunctions/arm_rfft_fast_init_f64.c ****   {
 293:.\DSP\Source\TransformFunctions/arm_rfft_fast_init_f64.c **** #if !defined(ARM_DSP_CONFIG_TABLES) || defined(ARM_ALL_FFT_TABLES) || (defined(ARM_TABLE_TWIDDLECOE
 294:.\DSP\Source\TransformFunctions/arm_rfft_fast_init_f64.c ****   case 4096U:
 295:.\DSP\Source\TransformFunctions/arm_rfft_fast_init_f64.c ****     fptr = arm_rfft_4096_fast_init_f64;
 296:.\DSP\Source\TransformFunctions/arm_rfft_fast_init_f64.c ****     break;
 297:.\DSP\Source\TransformFunctions/arm_rfft_fast_init_f64.c **** #endif
 298:.\DSP\Source\TransformFunctions/arm_rfft_fast_init_f64.c **** #if !defined(ARM_DSP_CONFIG_TABLES) || defined(ARM_ALL_FFT_TABLES) || (defined(ARM_TABLE_TWIDDLECOE
 299:.\DSP\Source\TransformFunctions/arm_rfft_fast_init_f64.c ****   case 2048U:
 300:.\DSP\Source\TransformFunctions/arm_rfft_fast_init_f64.c ****     fptr = arm_rfft_2048_fast_init_f64;
 514              		.loc 1 300 0
 515 0038 0A4B     		ldr	r3, .L57
 301:.\DSP\Source\TransformFunctions/arm_rfft_fast_init_f64.c ****     break;
 516              		.loc 1 301 0
 517 003a 0CE0     		b	.L52
 518              	.LVL43:
 519              	.L48:
 302:.\DSP\Source\TransformFunctions/arm_rfft_fast_init_f64.c **** #endif
 303:.\DSP\Source\TransformFunctions/arm_rfft_fast_init_f64.c **** #if !defined(ARM_DSP_CONFIG_TABLES) || defined(ARM_ALL_FFT_TABLES) || (defined(ARM_TABLE_TWIDDLECOE
 304:.\DSP\Source\TransformFunctions/arm_rfft_fast_init_f64.c ****   case 1024U:
 305:.\DSP\Source\TransformFunctions/arm_rfft_fast_init_f64.c ****     fptr = arm_rfft_1024_fast_init_f64;
 520              		.loc 1 305 0
 521 003c 0A4B     		ldr	r3, .L57+4
 306:.\DSP\Source\TransformFunctions/arm_rfft_fast_init_f64.c ****     break;
 522              		.loc 1 306 0
 523 003e 0AE0     		b	.L52
 524              	.LVL44:
 525              	.L50:
 307:.\DSP\Source\TransformFunctions/arm_rfft_fast_init_f64.c **** #endif
 308:.\DSP\Source\TransformFunctions/arm_rfft_fast_init_f64.c **** #if !defined(ARM_DSP_CONFIG_TABLES) || defined(ARM_ALL_FFT_TABLES) || (defined(ARM_TABLE_TWIDDLECOE
 309:.\DSP\Source\TransformFunctions/arm_rfft_fast_init_f64.c ****   case 512U:
 310:.\DSP\Source\TransformFunctions/arm_rfft_fast_init_f64.c ****     fptr = arm_rfft_512_fast_init_f64;
 526              		.loc 1 310 0
 527 0040 0A4B     		ldr	r3, .L57+8
 311:.\DSP\Source\TransformFunctions/arm_rfft_fast_init_f64.c ****     break;
 528              		.loc 1 311 0
 529 0042 08E0     		b	.L52
 530              	.LVL45:
 531              	.L43:
 312:.\DSP\Source\TransformFunctions/arm_rfft_fast_init_f64.c **** #endif
 313:.\DSP\Source\TransformFunctions/arm_rfft_fast_init_f64.c **** #if !defined(ARM_DSP_CONFIG_TABLES) || defined(ARM_ALL_FFT_TABLES) || (defined(ARM_TABLE_TWIDDLECOE
 314:.\DSP\Source\TransformFunctions/arm_rfft_fast_init_f64.c ****   case 256U:
 315:.\DSP\Source\TransformFunctions/arm_rfft_fast_init_f64.c ****     fptr = arm_rfft_256_fast_init_f64;
ARM GAS  C:\Users\IVYLIU~1\AppData\Local\Temp\ccdQJDgb.s 			page 16


 532              		.loc 1 315 0
 533 0044 0A4B     		ldr	r3, .L57+12
 316:.\DSP\Source\TransformFunctions/arm_rfft_fast_init_f64.c ****     break;
 534              		.loc 1 316 0
 535 0046 06E0     		b	.L52
 536              	.LVL46:
 537              	.L46:
 317:.\DSP\Source\TransformFunctions/arm_rfft_fast_init_f64.c **** #endif
 318:.\DSP\Source\TransformFunctions/arm_rfft_fast_init_f64.c **** #if !defined(ARM_DSP_CONFIG_TABLES) || defined(ARM_ALL_FFT_TABLES) || (defined(ARM_TABLE_TWIDDLECOE
 319:.\DSP\Source\TransformFunctions/arm_rfft_fast_init_f64.c ****   case 128U:
 320:.\DSP\Source\TransformFunctions/arm_rfft_fast_init_f64.c ****     fptr = arm_rfft_128_fast_init_f64;
 538              		.loc 1 320 0
 539 0048 0A4B     		ldr	r3, .L57+16
 321:.\DSP\Source\TransformFunctions/arm_rfft_fast_init_f64.c ****     break;
 540              		.loc 1 321 0
 541 004a 04E0     		b	.L52
 542              	.LVL47:
 543              	.L45:
 322:.\DSP\Source\TransformFunctions/arm_rfft_fast_init_f64.c **** #endif
 323:.\DSP\Source\TransformFunctions/arm_rfft_fast_init_f64.c **** #if !defined(ARM_DSP_CONFIG_TABLES) || defined(ARM_ALL_FFT_TABLES) || (defined(ARM_TABLE_TWIDDLECOE
 324:.\DSP\Source\TransformFunctions/arm_rfft_fast_init_f64.c ****   case 64U:
 325:.\DSP\Source\TransformFunctions/arm_rfft_fast_init_f64.c ****     fptr = arm_rfft_64_fast_init_f64;
 544              		.loc 1 325 0
 545 004c 0A4B     		ldr	r3, .L57+20
 326:.\DSP\Source\TransformFunctions/arm_rfft_fast_init_f64.c ****     break;
 546              		.loc 1 326 0
 547 004e 02E0     		b	.L52
 548              	.LVL48:
 549              	.L47:
 327:.\DSP\Source\TransformFunctions/arm_rfft_fast_init_f64.c **** #endif
 328:.\DSP\Source\TransformFunctions/arm_rfft_fast_init_f64.c **** #if !defined(ARM_DSP_CONFIG_TABLES) || defined(ARM_ALL_FFT_TABLES) || (defined(ARM_TABLE_TWIDDLECOE
 329:.\DSP\Source\TransformFunctions/arm_rfft_fast_init_f64.c ****   case 32U:
 330:.\DSP\Source\TransformFunctions/arm_rfft_fast_init_f64.c ****     fptr = arm_rfft_32_fast_init_f64;
 550              		.loc 1 330 0
 551 0050 0A4B     		ldr	r3, .L57+24
 331:.\DSP\Source\TransformFunctions/arm_rfft_fast_init_f64.c ****     break;
 552              		.loc 1 331 0
 553 0052 00E0     		b	.L52
 554              	.LVL49:
 555              	.L54:
 295:.\DSP\Source\TransformFunctions/arm_rfft_fast_init_f64.c ****     break;
 556              		.loc 1 295 0
 557 0054 0A4B     		ldr	r3, .L57+28
 558              	.LVL50:
 559              	.L52:
 332:.\DSP\Source\TransformFunctions/arm_rfft_fast_init_f64.c **** #endif
 333:.\DSP\Source\TransformFunctions/arm_rfft_fast_init_f64.c ****   default:
 334:.\DSP\Source\TransformFunctions/arm_rfft_fast_init_f64.c ****     break;
 335:.\DSP\Source\TransformFunctions/arm_rfft_fast_init_f64.c ****   }
 336:.\DSP\Source\TransformFunctions/arm_rfft_fast_init_f64.c **** 
 337:.\DSP\Source\TransformFunctions/arm_rfft_fast_init_f64.c ****   if( ! fptr ) return ARM_MATH_ARGUMENT_ERROR;
 560              		.loc 1 337 0
 561 0056 0BB1     		cbz	r3, .L55
 338:.\DSP\Source\TransformFunctions/arm_rfft_fast_init_f64.c ****   return fptr( S );
 562              		.loc 1 338 0
 563 0058 9847     		blx	r3
 564              	.LVL51:
ARM GAS  C:\Users\IVYLIU~1\AppData\Local\Temp\ccdQJDgb.s 			page 17


 565 005a 00E0     		b	.L53
 566              	.LVL52:
 567              	.L55:
 337:.\DSP\Source\TransformFunctions/arm_rfft_fast_init_f64.c ****   return fptr( S );
 568              		.loc 1 337 0
 569 005c FF20     		movs	r0, #255
 570              	.LVL53:
 571              	.L53:
 339:.\DSP\Source\TransformFunctions/arm_rfft_fast_init_f64.c **** 
 340:.\DSP\Source\TransformFunctions/arm_rfft_fast_init_f64.c **** }
 572              		.loc 1 340 0
 573 005e 40B2     		sxtb	r0, r0
 574 0060 08BD     		pop	{r3, pc}
 575              	.L58:
 576 0062 00BF     		.align	2
 577              	.L57:
 578 0064 00000000 		.word	arm_rfft_2048_fast_init_f64
 579 0068 00000000 		.word	arm_rfft_1024_fast_init_f64
 580 006c 00000000 		.word	arm_rfft_512_fast_init_f64
 581 0070 00000000 		.word	arm_rfft_256_fast_init_f64
 582 0074 00000000 		.word	arm_rfft_128_fast_init_f64
 583 0078 00000000 		.word	arm_rfft_64_fast_init_f64
 584 007c 00000000 		.word	arm_rfft_32_fast_init_f64
 585 0080 00000000 		.word	arm_rfft_4096_fast_init_f64
 586              		.cfi_endproc
 587              	.LFE92:
 588              		.size	arm_rfft_fast_init_f64, .-arm_rfft_fast_init_f64
 589              		.text
 590              	.Letext0:
 591              		.file 2 "c:\\program files (x86)\\cypress\\psoc creator\\3.3\\psoc creator\\import\\gnu\\arm\\4.9.
 592              		.file 3 "c:\\program files (x86)\\cypress\\psoc creator\\3.3\\psoc creator\\import\\gnu\\arm\\4.9.
 593              		.file 4 ".\\DSP\\Include/arm_math_types.h"
 594              		.file 5 ".\\DSP\\Include/dsp/transform_functions.h"
 595              		.file 6 ".\\Core\\Include/cmsis_gcc.h"
 596              		.file 7 ".\\DSP\\Include/arm_common_tables.h"