ARM GAS  C:\Users\IVYLIU~1\AppData\Local\Temp\ccM9qH38.s 			page 1


   1              		.syntax unified
   2              		.cpu cortex-m3
   3              		.fpu softvfp
   4              		.eabi_attribute 20, 1
   5              		.eabi_attribute 21, 1
   6              		.eabi_attribute 23, 3
   7              		.eabi_attribute 24, 1
   8              		.eabi_attribute 25, 1
   9              		.eabi_attribute 26, 1
  10              		.eabi_attribute 30, 1
  11              		.eabi_attribute 34, 1
  12              		.eabi_attribute 18, 4
  13              		.thumb
  14              		.file	"arm_cfft_f64.c"
  15              		.text
  16              	.Ltext0:
  17              		.cfi_sections	.debug_frame
  18              		.global	__aeabi_dadd
  19              		.global	__aeabi_dsub
  20              		.global	__aeabi_dmul
  21              		.section	.text.arm_radix4_butterfly_f64,"ax",%progbits
  22              		.align	2
  23              		.global	arm_radix4_butterfly_f64
  24              		.thumb
  25              		.thumb_func
  26              		.type	arm_radix4_butterfly_f64, %function
  27              	arm_radix4_butterfly_f64:
  28              	.LFB84:
  29              		.file 1 ".\\DSP\\Source\\TransformFunctions\\arm_cfft_f64.c"
   1:.\DSP\Source\TransformFunctions/arm_cfft_f64.c **** /* ----------------------------------------------------------------------
   2:.\DSP\Source\TransformFunctions/arm_cfft_f64.c ****  * Project:      CMSIS DSP Library
   3:.\DSP\Source\TransformFunctions/arm_cfft_f64.c ****  * Title:        arm_cfft_f64.c
   4:.\DSP\Source\TransformFunctions/arm_cfft_f64.c ****  * Description:  Combined Radix Decimation in Frequency CFFT Double Precision Floating point proces
   5:.\DSP\Source\TransformFunctions/arm_cfft_f64.c ****  *
   6:.\DSP\Source\TransformFunctions/arm_cfft_f64.c ****  * $Date:        23 April 2021
   7:.\DSP\Source\TransformFunctions/arm_cfft_f64.c ****  * $Revision:    V1.9.0
   8:.\DSP\Source\TransformFunctions/arm_cfft_f64.c ****  *
   9:.\DSP\Source\TransformFunctions/arm_cfft_f64.c ****  * Target Processor: Cortex-M and Cortex-A cores
  10:.\DSP\Source\TransformFunctions/arm_cfft_f64.c ****  * -------------------------------------------------------------------- */
  11:.\DSP\Source\TransformFunctions/arm_cfft_f64.c **** /*
  12:.\DSP\Source\TransformFunctions/arm_cfft_f64.c ****  * Copyright (C) 2010-2021 ARM Limited or its affiliates. All rights reserved.
  13:.\DSP\Source\TransformFunctions/arm_cfft_f64.c ****  *
  14:.\DSP\Source\TransformFunctions/arm_cfft_f64.c ****  * SPDX-License-Identifier: Apache-2.0
  15:.\DSP\Source\TransformFunctions/arm_cfft_f64.c ****  *
  16:.\DSP\Source\TransformFunctions/arm_cfft_f64.c ****  * Licensed under the Apache License, Version 2.0 (the License); you may
  17:.\DSP\Source\TransformFunctions/arm_cfft_f64.c ****  * not use this file except in compliance with the License.
  18:.\DSP\Source\TransformFunctions/arm_cfft_f64.c ****  * You may obtain a copy of the License at
  19:.\DSP\Source\TransformFunctions/arm_cfft_f64.c ****  *
  20:.\DSP\Source\TransformFunctions/arm_cfft_f64.c ****  * www.apache.org/licenses/LICENSE-2.0
  21:.\DSP\Source\TransformFunctions/arm_cfft_f64.c ****  *
  22:.\DSP\Source\TransformFunctions/arm_cfft_f64.c ****  * Unless required by applicable law or agreed to in writing, software
  23:.\DSP\Source\TransformFunctions/arm_cfft_f64.c ****  * distributed under the License is distributed on an AS IS BASIS, WITHOUT
  24:.\DSP\Source\TransformFunctions/arm_cfft_f64.c ****  * WARRANTIES OR CONDITIONS OF ANY KIND, either express or implied.
  25:.\DSP\Source\TransformFunctions/arm_cfft_f64.c ****  * See the License for the specific language governing permissions and
  26:.\DSP\Source\TransformFunctions/arm_cfft_f64.c ****  * limitations under the License.
  27:.\DSP\Source\TransformFunctions/arm_cfft_f64.c ****  */
  28:.\DSP\Source\TransformFunctions/arm_cfft_f64.c **** 
ARM GAS  C:\Users\IVYLIU~1\AppData\Local\Temp\ccM9qH38.s 			page 2


  29:.\DSP\Source\TransformFunctions/arm_cfft_f64.c **** #include "dsp/transform_functions.h"
  30:.\DSP\Source\TransformFunctions/arm_cfft_f64.c **** #include "arm_common_tables.h"
  31:.\DSP\Source\TransformFunctions/arm_cfft_f64.c **** 
  32:.\DSP\Source\TransformFunctions/arm_cfft_f64.c **** 
  33:.\DSP\Source\TransformFunctions/arm_cfft_f64.c **** extern void arm_radix4_butterfly_f64(
  34:.\DSP\Source\TransformFunctions/arm_cfft_f64.c ****         float64_t * pSrc,
  35:.\DSP\Source\TransformFunctions/arm_cfft_f64.c ****         uint16_t fftLen,
  36:.\DSP\Source\TransformFunctions/arm_cfft_f64.c ****   const float64_t * pCoef,
  37:.\DSP\Source\TransformFunctions/arm_cfft_f64.c ****         uint16_t twidCoefModifier);
  38:.\DSP\Source\TransformFunctions/arm_cfft_f64.c **** 
  39:.\DSP\Source\TransformFunctions/arm_cfft_f64.c **** extern void arm_bitreversal_64(
  40:.\DSP\Source\TransformFunctions/arm_cfft_f64.c ****         uint64_t * pSrc,
  41:.\DSP\Source\TransformFunctions/arm_cfft_f64.c ****   const uint16_t   bitRevLen,
  42:.\DSP\Source\TransformFunctions/arm_cfft_f64.c ****   const uint16_t * pBitRevTable);
  43:.\DSP\Source\TransformFunctions/arm_cfft_f64.c **** 
  44:.\DSP\Source\TransformFunctions/arm_cfft_f64.c **** /**
  45:.\DSP\Source\TransformFunctions/arm_cfft_f64.c **** * @} end of ComplexFFT group
  46:.\DSP\Source\TransformFunctions/arm_cfft_f64.c **** */
  47:.\DSP\Source\TransformFunctions/arm_cfft_f64.c **** 
  48:.\DSP\Source\TransformFunctions/arm_cfft_f64.c **** /* ----------------------------------------------------------------------
  49:.\DSP\Source\TransformFunctions/arm_cfft_f64.c ****  * Internal helper function used by the FFTs
  50:.\DSP\Source\TransformFunctions/arm_cfft_f64.c ****  * ---------------------------------------------------------------------- */
  51:.\DSP\Source\TransformFunctions/arm_cfft_f64.c **** 
  52:.\DSP\Source\TransformFunctions/arm_cfft_f64.c **** /*
  53:.\DSP\Source\TransformFunctions/arm_cfft_f64.c **** * @brief  Core function for the Double Precision floating-point CFFT butterfly process.
  54:.\DSP\Source\TransformFunctions/arm_cfft_f64.c **** * @param[in, out] *pSrc            points to the in-place buffer of F64 data type.
  55:.\DSP\Source\TransformFunctions/arm_cfft_f64.c **** * @param[in]      fftLen           length of the FFT.
  56:.\DSP\Source\TransformFunctions/arm_cfft_f64.c **** * @param[in]      *pCoef           points to the twiddle coefficient buffer.
  57:.\DSP\Source\TransformFunctions/arm_cfft_f64.c **** * @param[in]      twidCoefModifier twiddle coefficient modifier that supports different size FFTs w
  58:.\DSP\Source\TransformFunctions/arm_cfft_f64.c **** * @return none.
  59:.\DSP\Source\TransformFunctions/arm_cfft_f64.c **** */
  60:.\DSP\Source\TransformFunctions/arm_cfft_f64.c **** 
  61:.\DSP\Source\TransformFunctions/arm_cfft_f64.c **** void arm_radix4_butterfly_f64(
  62:.\DSP\Source\TransformFunctions/arm_cfft_f64.c ****         float64_t * pSrc,
  63:.\DSP\Source\TransformFunctions/arm_cfft_f64.c ****         uint16_t fftLen,
  64:.\DSP\Source\TransformFunctions/arm_cfft_f64.c ****   const float64_t * pCoef,
  65:.\DSP\Source\TransformFunctions/arm_cfft_f64.c ****         uint16_t twidCoefModifier)
  66:.\DSP\Source\TransformFunctions/arm_cfft_f64.c **** {
  30              		.loc 1 66 0
  31              		.cfi_startproc
  32              		@ args = 0, pretend = 0, frame = 144
  33              		@ frame_needed = 0, uses_anonymous_args = 0
  34              	.LVL0:
  35 0000 2DE9F04F 		push	{r4, r5, r6, r7, r8, r9, r10, fp, lr}
  36              		.cfi_def_cfa_offset 36
  37              		.cfi_offset 4, -36
  38              		.cfi_offset 5, -32
  39              		.cfi_offset 6, -28
  40              		.cfi_offset 7, -24
  41              		.cfi_offset 8, -20
  42              		.cfi_offset 9, -16
  43              		.cfi_offset 10, -12
  44              		.cfi_offset 11, -8
  45              		.cfi_offset 14, -4
  46 0004 A5B0     		sub	sp, sp, #148
  47              		.cfi_def_cfa_offset 184
  48 0006 2292     		str	r2, [sp, #136]
ARM GAS  C:\Users\IVYLIU~1\AppData\Local\Temp\ccM9qH38.s 			page 3


  49 0008 2193     		str	r3, [sp, #132]
  67:.\DSP\Source\TransformFunctions/arm_cfft_f64.c **** 
  68:.\DSP\Source\TransformFunctions/arm_cfft_f64.c ****    float64_t co1, co2, co3, si1, si2, si3;
  69:.\DSP\Source\TransformFunctions/arm_cfft_f64.c ****    uint32_t ia1, ia2, ia3;
  70:.\DSP\Source\TransformFunctions/arm_cfft_f64.c ****    uint32_t i0, i1, i2, i3;
  71:.\DSP\Source\TransformFunctions/arm_cfft_f64.c ****    uint32_t n1, n2, j, k;
  72:.\DSP\Source\TransformFunctions/arm_cfft_f64.c **** 
  73:.\DSP\Source\TransformFunctions/arm_cfft_f64.c ****    float64_t t1, t2, r1, r2, s1, s2;
  74:.\DSP\Source\TransformFunctions/arm_cfft_f64.c **** 
  75:.\DSP\Source\TransformFunctions/arm_cfft_f64.c **** 
  76:.\DSP\Source\TransformFunctions/arm_cfft_f64.c ****    /*  Initializations for the fft calculation */
  77:.\DSP\Source\TransformFunctions/arm_cfft_f64.c ****    n2 = fftLen;
  50              		.loc 1 77 0
  51 000a 1E91     		str	r1, [sp, #120]
  52              	.LVL1:
  78:.\DSP\Source\TransformFunctions/arm_cfft_f64.c ****    n1 = n2;
  79:.\DSP\Source\TransformFunctions/arm_cfft_f64.c ****    for (k = fftLen; k > 1U; k >>= 2U)
  53              		.loc 1 79 0
  54 000c 2391     		str	r1, [sp, #140]
  77:.\DSP\Source\TransformFunctions/arm_cfft_f64.c ****    n1 = n2;
  55              		.loc 1 77 0
  56 000e 1D91     		str	r1, [sp, #116]
  57 0010 8246     		mov	r10, r0
  58              		.loc 1 79 0
  59 0012 8CE1     		b	.L2
  60              	.LVL2:
  61              	.L5:
  80:.\DSP\Source\TransformFunctions/arm_cfft_f64.c ****    {
  81:.\DSP\Source\TransformFunctions/arm_cfft_f64.c ****       /*  Initializations for the fft calculation */
  82:.\DSP\Source\TransformFunctions/arm_cfft_f64.c ****       n1 = n2;
  83:.\DSP\Source\TransformFunctions/arm_cfft_f64.c ****       n2 >>= 2U;
  62              		.loc 1 83 0
  63 0014 1D9B     		ldr	r3, [sp, #116]
  64              	.LVL3:
  65 0016 4FEA930B 		lsr	fp, r3, #2
  66              	.LVL4:
  84:.\DSP\Source\TransformFunctions/arm_cfft_f64.c ****       ia1 = 0U;
  85:.\DSP\Source\TransformFunctions/arm_cfft_f64.c **** 
  86:.\DSP\Source\TransformFunctions/arm_cfft_f64.c ****       /*  FFT Calculation */
  87:.\DSP\Source\TransformFunctions/arm_cfft_f64.c ****       j = 0;
  67              		.loc 1 87 0
  68 001a 0023     		movs	r3, #0
  69 001c 1F93     		str	r3, [sp, #124]
  84:.\DSP\Source\TransformFunctions/arm_cfft_f64.c ****       ia1 = 0U;
  70              		.loc 1 84 0
  71 001e 2093     		str	r3, [sp, #128]
  72 0020 CDF870B0 		str	fp, [sp, #112]
  73              	.LVL5:
  74              	.L4:
  88:.\DSP\Source\TransformFunctions/arm_cfft_f64.c ****       do
  89:.\DSP\Source\TransformFunctions/arm_cfft_f64.c ****       {
  90:.\DSP\Source\TransformFunctions/arm_cfft_f64.c ****          /*  index calculation for the coefficients */
  91:.\DSP\Source\TransformFunctions/arm_cfft_f64.c ****          ia2 = ia1 + ia1;
  92:.\DSP\Source\TransformFunctions/arm_cfft_f64.c ****          ia3 = ia2 + ia1;
  75              		.loc 1 92 0
  76 0024 209D     		ldr	r5, [sp, #128]
  77 0026 05EB4503 		add	r3, r5, r5, lsl #1
ARM GAS  C:\Users\IVYLIU~1\AppData\Local\Temp\ccM9qH38.s 			page 4


  78              	.LVL6:
  93:.\DSP\Source\TransformFunctions/arm_cfft_f64.c ****          co1 = pCoef[ia1 * 2U];
  79              		.loc 1 93 0
  80 002a 2A01     		lsls	r2, r5, #4
  81 002c 2298     		ldr	r0, [sp, #136]
  82 002e 0146     		mov	r1, r0
  83 0030 1144     		add	r1, r1, r2
  84 0032 D1E90067 		ldrd	r6, [r1]
  85 0036 CDE90A67 		strd	r6, [sp, #40]
  86              	.LVL7:
  94:.\DSP\Source\TransformFunctions/arm_cfft_f64.c ****          si1 = pCoef[(ia1 * 2U) + 1U];
  87              		.loc 1 94 0
  88 003a 0244     		add	r2, r2, r0
  89 003c D2E90267 		ldrd	r6, [r2, #8]
  90              	.LVL8:
  91 0040 CDE90C67 		strd	r6, [sp, #48]
  92              	.LVL9:
  95:.\DSP\Source\TransformFunctions/arm_cfft_f64.c ****          co2 = pCoef[ia2 * 2U];
  93              		.loc 1 95 0
  94 0044 6A01     		lsls	r2, r5, #5
  95 0046 8118     		adds	r1, r0, r2
  96              	.LVL10:
  97 0048 D1E90067 		ldrd	r6, [r1]
  98              	.LVL11:
  99 004c CDE90E67 		strd	r6, [sp, #56]
 100              	.LVL12:
  96:.\DSP\Source\TransformFunctions/arm_cfft_f64.c ****          si2 = pCoef[(ia2 * 2U) + 1U];
 101              		.loc 1 96 0
 102 0050 D1E90267 		ldrd	r6, [r1, #8]
 103              	.LVL13:
 104 0054 CDE91067 		strd	r6, [sp, #64]
 105              	.LVL14:
  97:.\DSP\Source\TransformFunctions/arm_cfft_f64.c ****          co3 = pCoef[ia3 * 2U];
 106              		.loc 1 97 0
 107 0058 1B01     		lsls	r3, r3, #4
 108              	.LVL15:
 109 005a C218     		adds	r2, r0, r3
 110 005c D2E90001 		ldrd	r0, [r2]
 111              	.LVL16:
 112 0060 CDE91201 		strd	r0, [sp, #72]
 113              	.LVL17:
  98:.\DSP\Source\TransformFunctions/arm_cfft_f64.c ****          si3 = pCoef[(ia3 * 2U) + 1U];
 114              		.loc 1 98 0
 115 0064 02F10803 		add	r3, r2, #8
 116 0068 D3E90023 		ldrd	r2, [r3]
 117 006c CDE91423 		strd	r2, [sp, #80]
 118              	.LVL18:
  99:.\DSP\Source\TransformFunctions/arm_cfft_f64.c **** 
 100:.\DSP\Source\TransformFunctions/arm_cfft_f64.c ****          /*  Twiddle coefficients index modifier */
 101:.\DSP\Source\TransformFunctions/arm_cfft_f64.c ****          ia1 = ia1 + twidCoefModifier;
 119              		.loc 1 101 0
 120 0070 219B     		ldr	r3, [sp, #132]
 121 0072 EB18     		adds	r3, r5, r3
 122 0074 2093     		str	r3, [sp, #128]
 123              	.LVL19:
 102:.\DSP\Source\TransformFunctions/arm_cfft_f64.c **** 
 103:.\DSP\Source\TransformFunctions/arm_cfft_f64.c ****          i0 = j;
ARM GAS  C:\Users\IVYLIU~1\AppData\Local\Temp\ccM9qH38.s 			page 5


 124              		.loc 1 103 0
 125 0076 DDF87CB0 		ldr	fp, [sp, #124]
 126 007a D946     		mov	r9, fp
 127 007c D346     		mov	fp, r10
 128              	.LVL20:
 129              	.L3:
 104:.\DSP\Source\TransformFunctions/arm_cfft_f64.c ****          do
 105:.\DSP\Source\TransformFunctions/arm_cfft_f64.c ****          {
 106:.\DSP\Source\TransformFunctions/arm_cfft_f64.c ****             /*  index calculation for the input as, */
 107:.\DSP\Source\TransformFunctions/arm_cfft_f64.c ****             /*  pSrc[i0 + 0], pSrc[i0 + fftLen/4], pSrc[i0 + fftLen/2], pSrc[i0 + 3fftLen/4] */
 108:.\DSP\Source\TransformFunctions/arm_cfft_f64.c ****             i1 = i0 + n2;
 130              		.loc 1 108 0 discriminator 1
 131 007e 1C9A     		ldr	r2, [sp, #112]
 132 0080 09EB0204 		add	r4, r9, r2
 133              	.LVL21:
 109:.\DSP\Source\TransformFunctions/arm_cfft_f64.c ****             i2 = i1 + n2;
 134              		.loc 1 109 0 discriminator 1
 135 0084 04EB020A 		add	r10, r4, r2
 136              	.LVL22:
 110:.\DSP\Source\TransformFunctions/arm_cfft_f64.c ****             i3 = i2 + n2;
 137              		.loc 1 110 0 discriminator 1
 138 0088 0AEB0208 		add	r8, r10, r2
 139              	.LVL23:
 111:.\DSP\Source\TransformFunctions/arm_cfft_f64.c **** 
 112:.\DSP\Source\TransformFunctions/arm_cfft_f64.c ****             /* xa + xc */
 113:.\DSP\Source\TransformFunctions/arm_cfft_f64.c ****             r1 = pSrc[(2U * i0)] + pSrc[(2U * i2)];
 140              		.loc 1 113 0 discriminator 1
 141 008c 4FEA0915 		lsl	r5, r9, #4
 142 0090 0BEB0503 		add	r3, fp, r5
 143 0094 0893     		str	r3, [sp, #32]
 144 0096 D3E90001 		ldrd	r0, [r3]
 145 009a 0246     		mov	r2, r0
 146 009c 0B46     		mov	r3, r1
 147 009e 4FEA0A1A 		lsl	r10, r10, #4
 148              	.LVL24:
 149 00a2 0BEB0A01 		add	r1, fp, r10
 150 00a6 1791     		str	r1, [sp, #92]
 151 00a8 D1E90067 		ldrd	r6, [r1]
 152 00ac CDE90023 		strd	r2, [sp]
 153 00b0 1046     		mov	r0, r2
 154 00b2 1946     		mov	r1, r3
 155 00b4 3246     		mov	r2, r6
 156 00b6 3B46     		mov	r3, r7
 157 00b8 FFF7FEFF 		bl	__aeabi_dadd
 158              	.LVL25:
 159 00bc CDE90201 		strd	r0, [sp, #8]
 160              	.LVL26:
 114:.\DSP\Source\TransformFunctions/arm_cfft_f64.c **** 
 115:.\DSP\Source\TransformFunctions/arm_cfft_f64.c ****             /* xa - xc */
 116:.\DSP\Source\TransformFunctions/arm_cfft_f64.c ****             r2 = pSrc[(2U * i0)] - pSrc[(2U * i2)];
 161              		.loc 1 116 0 discriminator 1
 162 00c0 DDE90001 		ldrd	r0, [sp]
 163              	.LVL27:
 164 00c4 3246     		mov	r2, r6
 165 00c6 3B46     		mov	r3, r7
 166 00c8 FFF7FEFF 		bl	__aeabi_dsub
 167              	.LVL28:
ARM GAS  C:\Users\IVYLIU~1\AppData\Local\Temp\ccM9qH38.s 			page 6


 168 00cc CDE90401 		strd	r0, [sp, #16]
 169              	.LVL29:
 117:.\DSP\Source\TransformFunctions/arm_cfft_f64.c **** 
 118:.\DSP\Source\TransformFunctions/arm_cfft_f64.c ****             /* ya + yc */
 119:.\DSP\Source\TransformFunctions/arm_cfft_f64.c ****             s1 = pSrc[(2U * i0) + 1U] + pSrc[(2U * i2) + 1U];
 170              		.loc 1 119 0 discriminator 1
 171 00d0 0835     		adds	r5, r5, #8
 172 00d2 5D44     		add	r5, r5, fp
 173 00d4 D5E90067 		ldrd	r6, [r5]
 174 00d8 3246     		mov	r2, r6
 175 00da 3B46     		mov	r3, r7
 176 00dc 0AF1080A 		add	r10, r10, #8
 177 00e0 0BEB0A07 		add	r7, fp, r10
 178 00e4 D7E90001 		ldrd	r0, [r7]
 179              	.LVL30:
 180 00e8 CDE90001 		strd	r0, [sp]
 181 00ec CDE91823 		strd	r2, [sp, #96]
 182 00f0 1046     		mov	r0, r2
 183 00f2 1946     		mov	r1, r3
 184 00f4 DDE90023 		ldrd	r2, [sp]
 185 00f8 FFF7FEFF 		bl	__aeabi_dadd
 186              	.LVL31:
 187 00fc CDE90601 		strd	r0, [sp, #24]
 188              	.LVL32:
 120:.\DSP\Source\TransformFunctions/arm_cfft_f64.c **** 
 121:.\DSP\Source\TransformFunctions/arm_cfft_f64.c ****             /* ya - yc */
 122:.\DSP\Source\TransformFunctions/arm_cfft_f64.c ****             s2 = pSrc[(2U * i0) + 1U] - pSrc[(2U * i2) + 1U];
 189              		.loc 1 122 0 discriminator 1
 190 0100 DDE91801 		ldrd	r0, [sp, #96]
 191              	.LVL33:
 192 0104 DDE90023 		ldrd	r2, [sp]
 193 0108 FFF7FEFF 		bl	__aeabi_dsub
 194              	.LVL34:
 195 010c CDE90001 		strd	r0, [sp]
 196              	.LVL35:
 123:.\DSP\Source\TransformFunctions/arm_cfft_f64.c **** 
 124:.\DSP\Source\TransformFunctions/arm_cfft_f64.c ****             /* xb + xd */
 125:.\DSP\Source\TransformFunctions/arm_cfft_f64.c ****             t1 = pSrc[2U * i1] + pSrc[2U * i3];
 197              		.loc 1 125 0 discriminator 1
 198 0110 2401     		lsls	r4, r4, #4
 199              	.LVL36:
 200 0112 0BEB040A 		add	r10, fp, r4
 201 0116 4FEA0818 		lsl	r8, r8, #4
 202              	.LVL37:
 203 011a 0BEB0806 		add	r6, fp, r8
 204 011e DAE90001 		ldrd	r0, [r10]
 205              	.LVL38:
 206 0122 D6E90023 		ldrd	r2, [r6]
 207 0126 FFF7FEFF 		bl	__aeabi_dadd
 208              	.LVL39:
 209 012a 0246     		mov	r2, r0
 210 012c 0B46     		mov	r3, r1
 211              	.LVL40:
 126:.\DSP\Source\TransformFunctions/arm_cfft_f64.c **** 
 127:.\DSP\Source\TransformFunctions/arm_cfft_f64.c ****             /* xa' = xa + xb + xc + xd */
 128:.\DSP\Source\TransformFunctions/arm_cfft_f64.c ****             pSrc[2U * i0] = r1 + t1;
 212              		.loc 1 128 0 discriminator 1
ARM GAS  C:\Users\IVYLIU~1\AppData\Local\Temp\ccM9qH38.s 			page 7


 213 012e DDE90201 		ldrd	r0, [sp, #8]
 214 0132 CDE91823 		strd	r2, [sp, #96]
 215 0136 FFF7FEFF 		bl	__aeabi_dadd
 216              	.LVL41:
 217 013a 089B     		ldr	r3, [sp, #32]
 218 013c C3E90001 		strd	r0, [r3]
 129:.\DSP\Source\TransformFunctions/arm_cfft_f64.c **** 
 130:.\DSP\Source\TransformFunctions/arm_cfft_f64.c ****             /* xa + xc -(xb + xd) */
 131:.\DSP\Source\TransformFunctions/arm_cfft_f64.c ****             r1 = r1 - t1;
 219              		.loc 1 131 0 discriminator 1
 220 0140 DDE90201 		ldrd	r0, [sp, #8]
 221 0144 DDE91823 		ldrd	r2, [sp, #96]
 222 0148 FFF7FEFF 		bl	__aeabi_dsub
 223              	.LVL42:
 224 014c CDE90201 		strd	r0, [sp, #8]
 225              	.LVL43:
 132:.\DSP\Source\TransformFunctions/arm_cfft_f64.c **** 
 133:.\DSP\Source\TransformFunctions/arm_cfft_f64.c ****             /* yb + yd */
 134:.\DSP\Source\TransformFunctions/arm_cfft_f64.c ****             t2 = pSrc[(2U * i1) + 1U] + pSrc[(2U * i3) + 1U];
 226              		.loc 1 134 0 discriminator 1
 227 0150 0834     		adds	r4, r4, #8
 228 0152 5C44     		add	r4, r4, fp
 229 0154 08F10808 		add	r8, r8, #8
 230 0158 D844     		add	r8, r8, fp
 231 015a D4E90001 		ldrd	r0, [r4]
 232              	.LVL44:
 233 015e D8E90023 		ldrd	r2, [r8]
 234 0162 FFF7FEFF 		bl	__aeabi_dadd
 235              	.LVL45:
 236 0166 0246     		mov	r2, r0
 237 0168 0B46     		mov	r3, r1
 238              	.LVL46:
 135:.\DSP\Source\TransformFunctions/arm_cfft_f64.c **** 
 136:.\DSP\Source\TransformFunctions/arm_cfft_f64.c ****             /* ya' = ya + yb + yc + yd */
 137:.\DSP\Source\TransformFunctions/arm_cfft_f64.c ****             pSrc[(2U * i0) + 1U] = s1 + t2;
 239              		.loc 1 137 0 discriminator 1
 240 016a DDE90601 		ldrd	r0, [sp, #24]
 241 016e CDE90823 		strd	r2, [sp, #32]
 242 0172 FFF7FEFF 		bl	__aeabi_dadd
 243              	.LVL47:
 244 0176 C5E90001 		strd	r0, [r5]
 138:.\DSP\Source\TransformFunctions/arm_cfft_f64.c **** 
 139:.\DSP\Source\TransformFunctions/arm_cfft_f64.c ****             /* (ya + yc) - (yb + yd) */
 140:.\DSP\Source\TransformFunctions/arm_cfft_f64.c ****             s1 = s1 - t2;
 245              		.loc 1 140 0 discriminator 1
 246 017a DDE90601 		ldrd	r0, [sp, #24]
 247 017e DDE90823 		ldrd	r2, [sp, #32]
 248 0182 FFF7FEFF 		bl	__aeabi_dsub
 249              	.LVL48:
 250 0186 CDE90601 		strd	r0, [sp, #24]
 251              	.LVL49:
 141:.\DSP\Source\TransformFunctions/arm_cfft_f64.c **** 
 142:.\DSP\Source\TransformFunctions/arm_cfft_f64.c ****             /* (yb - yd) */
 143:.\DSP\Source\TransformFunctions/arm_cfft_f64.c ****             t1 = pSrc[(2U * i1) + 1U] - pSrc[(2U * i3) + 1U];
 252              		.loc 1 143 0 discriminator 1
 253 018a D4E90001 		ldrd	r0, [r4]
 254              	.LVL50:
ARM GAS  C:\Users\IVYLIU~1\AppData\Local\Temp\ccM9qH38.s 			page 8


 255 018e D8E90023 		ldrd	r2, [r8]
 256 0192 FFF7FEFF 		bl	__aeabi_dsub
 257              	.LVL51:
 258 0196 CDE91801 		strd	r0, [sp, #96]
 259              	.LVL52:
 144:.\DSP\Source\TransformFunctions/arm_cfft_f64.c **** 
 145:.\DSP\Source\TransformFunctions/arm_cfft_f64.c ****             /* (xb - xd) */
 146:.\DSP\Source\TransformFunctions/arm_cfft_f64.c ****             t2 = pSrc[2U * i1] - pSrc[2U * i3];
 260              		.loc 1 146 0 discriminator 1
 261 019a DAE90001 		ldrd	r0, [r10]
 262              	.LVL53:
 263 019e D6E90023 		ldrd	r2, [r6]
 264 01a2 FFF7FEFF 		bl	__aeabi_dsub
 265              	.LVL54:
 266 01a6 CDE90801 		strd	r0, [sp, #32]
 267              	.LVL55:
 147:.\DSP\Source\TransformFunctions/arm_cfft_f64.c **** 
 148:.\DSP\Source\TransformFunctions/arm_cfft_f64.c ****             /* xc' = (xa-xb+xc-xd)co2 + (ya-yb+yc-yd)(si2) */
 149:.\DSP\Source\TransformFunctions/arm_cfft_f64.c ****             pSrc[2U * i1] = (r1 * co2) + (s1 * si2);
 268              		.loc 1 149 0 discriminator 1
 269 01aa DDE90201 		ldrd	r0, [sp, #8]
 270              	.LVL56:
 271 01ae DDE90E23 		ldrd	r2, [sp, #56]
 272 01b2 FFF7FEFF 		bl	__aeabi_dmul
 273              	.LVL57:
 274 01b6 CDE91A01 		strd	r0, [sp, #104]
 275 01ba DDE90601 		ldrd	r0, [sp, #24]
 276 01be DDE91023 		ldrd	r2, [sp, #64]
 277 01c2 FFF7FEFF 		bl	__aeabi_dmul
 278              	.LVL58:
 279 01c6 0246     		mov	r2, r0
 280 01c8 0B46     		mov	r3, r1
 281 01ca DDE91A01 		ldrd	r0, [sp, #104]
 282 01ce FFF7FEFF 		bl	__aeabi_dadd
 283              	.LVL59:
 284 01d2 CAE90001 		strd	r0, [r10]
 150:.\DSP\Source\TransformFunctions/arm_cfft_f64.c **** 
 151:.\DSP\Source\TransformFunctions/arm_cfft_f64.c ****             /* yc' = (ya-yb+yc-yd)co2 - (xa-xb+xc-xd)(si2) */
 152:.\DSP\Source\TransformFunctions/arm_cfft_f64.c ****             pSrc[(2U * i1) + 1U] = (s1 * co2) - (r1 * si2);
 285              		.loc 1 152 0 discriminator 1
 286 01d6 DDE90601 		ldrd	r0, [sp, #24]
 287 01da DDE90E23 		ldrd	r2, [sp, #56]
 288 01de FFF7FEFF 		bl	__aeabi_dmul
 289              	.LVL60:
 290 01e2 CDE90601 		strd	r0, [sp, #24]
 291              	.LVL61:
 292 01e6 DDE90201 		ldrd	r0, [sp, #8]
 293 01ea DDE91023 		ldrd	r2, [sp, #64]
 294 01ee FFF7FEFF 		bl	__aeabi_dmul
 295              	.LVL62:
 296 01f2 0246     		mov	r2, r0
 297 01f4 0B46     		mov	r3, r1
 298 01f6 DDE90601 		ldrd	r0, [sp, #24]
 299 01fa FFF7FEFF 		bl	__aeabi_dsub
 300              	.LVL63:
 301 01fe C4E90001 		strd	r0, [r4]
 153:.\DSP\Source\TransformFunctions/arm_cfft_f64.c **** 
ARM GAS  C:\Users\IVYLIU~1\AppData\Local\Temp\ccM9qH38.s 			page 9


 154:.\DSP\Source\TransformFunctions/arm_cfft_f64.c ****             /* (xa - xc) + (yb - yd) */
 155:.\DSP\Source\TransformFunctions/arm_cfft_f64.c ****             r1 = r2 + t1;
 302              		.loc 1 155 0 discriminator 1
 303 0202 DDE90401 		ldrd	r0, [sp, #16]
 304 0206 DDE91845 		ldrd	r4, [sp, #96]
 305 020a 2246     		mov	r2, r4
 306 020c 2B46     		mov	r3, r5
 307 020e FFF7FEFF 		bl	__aeabi_dadd
 308              	.LVL64:
 309 0212 CDE90201 		strd	r0, [sp, #8]
 310              	.LVL65:
 156:.\DSP\Source\TransformFunctions/arm_cfft_f64.c **** 
 157:.\DSP\Source\TransformFunctions/arm_cfft_f64.c ****             /* (xa - xc) - (yb - yd) */
 158:.\DSP\Source\TransformFunctions/arm_cfft_f64.c ****             r2 = r2 - t1;
 311              		.loc 1 158 0 discriminator 1
 312 0216 DDE90401 		ldrd	r0, [sp, #16]
 313              	.LVL66:
 314 021a 2246     		mov	r2, r4
 315 021c 2B46     		mov	r3, r5
 316 021e FFF7FEFF 		bl	__aeabi_dsub
 317              	.LVL67:
 318 0222 CDE90401 		strd	r0, [sp, #16]
 319              	.LVL68:
 159:.\DSP\Source\TransformFunctions/arm_cfft_f64.c **** 
 160:.\DSP\Source\TransformFunctions/arm_cfft_f64.c ****             /* (ya - yc) -  (xb - xd) */
 161:.\DSP\Source\TransformFunctions/arm_cfft_f64.c ****             s1 = s2 - t2;
 320              		.loc 1 161 0 discriminator 1
 321 0226 DDE90001 		ldrd	r0, [sp]
 322              	.LVL69:
 323 022a DDE90823 		ldrd	r2, [sp, #32]
 324 022e FFF7FEFF 		bl	__aeabi_dsub
 325              	.LVL70:
 326 0232 0446     		mov	r4, r0
 327 0234 0D46     		mov	r5, r1
 328              	.LVL71:
 162:.\DSP\Source\TransformFunctions/arm_cfft_f64.c **** 
 163:.\DSP\Source\TransformFunctions/arm_cfft_f64.c ****             /* (ya - yc) +  (xb - xd) */
 164:.\DSP\Source\TransformFunctions/arm_cfft_f64.c ****             s2 = s2 + t2;
 329              		.loc 1 164 0 discriminator 1
 330 0236 DDE90001 		ldrd	r0, [sp]
 331 023a DDE90823 		ldrd	r2, [sp, #32]
 332 023e FFF7FEFF 		bl	__aeabi_dadd
 333              	.LVL72:
 334 0242 CDE90001 		strd	r0, [sp]
 335              	.LVL73:
 165:.\DSP\Source\TransformFunctions/arm_cfft_f64.c **** 
 166:.\DSP\Source\TransformFunctions/arm_cfft_f64.c ****             /* xb' = (xa+yb-xc-yd)co1 + (ya-xb-yc+xd)(si1) */
 167:.\DSP\Source\TransformFunctions/arm_cfft_f64.c ****             pSrc[2U * i2] = (r1 * co1) + (s1 * si1);
 336              		.loc 1 167 0 discriminator 1
 337 0246 DDE90201 		ldrd	r0, [sp, #8]
 338              	.LVL74:
 339 024a DDE90A23 		ldrd	r2, [sp, #40]
 340 024e FFF7FEFF 		bl	__aeabi_dmul
 341              	.LVL75:
 342 0252 CDE90601 		strd	r0, [sp, #24]
 343 0256 2046     		mov	r0, r4
 344 0258 2946     		mov	r1, r5
ARM GAS  C:\Users\IVYLIU~1\AppData\Local\Temp\ccM9qH38.s 			page 10


 345 025a DDE90C23 		ldrd	r2, [sp, #48]
 346 025e FFF7FEFF 		bl	__aeabi_dmul
 347              	.LVL76:
 348 0262 0246     		mov	r2, r0
 349 0264 0B46     		mov	r3, r1
 350 0266 DDE90601 		ldrd	r0, [sp, #24]
 351 026a FFF7FEFF 		bl	__aeabi_dadd
 352              	.LVL77:
 353 026e 179B     		ldr	r3, [sp, #92]
 354 0270 C3E90001 		strd	r0, [r3]
 168:.\DSP\Source\TransformFunctions/arm_cfft_f64.c **** 
 169:.\DSP\Source\TransformFunctions/arm_cfft_f64.c ****             /* yb' = (ya-xb-yc+xd)co1 - (xa+yb-xc-yd)(si1) */
 170:.\DSP\Source\TransformFunctions/arm_cfft_f64.c ****             pSrc[(2U * i2) + 1U] = (s1 * co1) - (r1 * si1);
 355              		.loc 1 170 0 discriminator 1
 356 0274 2046     		mov	r0, r4
 357 0276 2946     		mov	r1, r5
 358 0278 DDE90A23 		ldrd	r2, [sp, #40]
 359 027c FFF7FEFF 		bl	__aeabi_dmul
 360              	.LVL78:
 361 0280 0446     		mov	r4, r0
 362              	.LVL79:
 363 0282 0D46     		mov	r5, r1
 364 0284 DDE90201 		ldrd	r0, [sp, #8]
 365 0288 DDE90C23 		ldrd	r2, [sp, #48]
 366 028c FFF7FEFF 		bl	__aeabi_dmul
 367              	.LVL80:
 368 0290 0246     		mov	r2, r0
 369 0292 0B46     		mov	r3, r1
 370 0294 2046     		mov	r0, r4
 371 0296 2946     		mov	r1, r5
 372 0298 FFF7FEFF 		bl	__aeabi_dsub
 373              	.LVL81:
 374 029c C7E90001 		strd	r0, [r7]
 171:.\DSP\Source\TransformFunctions/arm_cfft_f64.c **** 
 172:.\DSP\Source\TransformFunctions/arm_cfft_f64.c ****             /* xd' = (xa-yb-xc+yd)co3 + (ya+xb-yc-xd)(si3) */
 173:.\DSP\Source\TransformFunctions/arm_cfft_f64.c ****             pSrc[2U * i3] = (r2 * co3) + (s2 * si3);
 375              		.loc 1 173 0 discriminator 1
 376 02a0 DDE90401 		ldrd	r0, [sp, #16]
 377 02a4 DDE91223 		ldrd	r2, [sp, #72]
 378 02a8 FFF7FEFF 		bl	__aeabi_dmul
 379              	.LVL82:
 380 02ac 0446     		mov	r4, r0
 381 02ae 0D46     		mov	r5, r1
 382 02b0 DDE90001 		ldrd	r0, [sp]
 383 02b4 DDE91423 		ldrd	r2, [sp, #80]
 384 02b8 FFF7FEFF 		bl	__aeabi_dmul
 385              	.LVL83:
 386 02bc 0246     		mov	r2, r0
 387 02be 0B46     		mov	r3, r1
 388 02c0 2046     		mov	r0, r4
 389 02c2 2946     		mov	r1, r5
 390 02c4 FFF7FEFF 		bl	__aeabi_dadd
 391              	.LVL84:
 392 02c8 C6E90001 		strd	r0, [r6]
 174:.\DSP\Source\TransformFunctions/arm_cfft_f64.c **** 
 175:.\DSP\Source\TransformFunctions/arm_cfft_f64.c ****             /* yd' = (ya+xb-yc-xd)co3 - (xa-yb-xc+yd)(si3) */
 176:.\DSP\Source\TransformFunctions/arm_cfft_f64.c ****             pSrc[(2U * i3) + 1U] = (s2 * co3) - (r2 * si3);
ARM GAS  C:\Users\IVYLIU~1\AppData\Local\Temp\ccM9qH38.s 			page 11


 393              		.loc 1 176 0 discriminator 1
 394 02cc DDE90001 		ldrd	r0, [sp]
 395 02d0 DDE91223 		ldrd	r2, [sp, #72]
 396 02d4 FFF7FEFF 		bl	__aeabi_dmul
 397              	.LVL85:
 398 02d8 0446     		mov	r4, r0
 399 02da 0D46     		mov	r5, r1
 400 02dc DDE90401 		ldrd	r0, [sp, #16]
 401 02e0 DDE91423 		ldrd	r2, [sp, #80]
 402 02e4 FFF7FEFF 		bl	__aeabi_dmul
 403              	.LVL86:
 404 02e8 0246     		mov	r2, r0
 405 02ea 0B46     		mov	r3, r1
 406 02ec 2046     		mov	r0, r4
 407 02ee 2946     		mov	r1, r5
 408 02f0 FFF7FEFF 		bl	__aeabi_dsub
 409              	.LVL87:
 410 02f4 C8E90001 		strd	r0, [r8]
 177:.\DSP\Source\TransformFunctions/arm_cfft_f64.c **** 
 178:.\DSP\Source\TransformFunctions/arm_cfft_f64.c ****             i0 += n1;
 411              		.loc 1 178 0 discriminator 1
 412 02f8 1D9B     		ldr	r3, [sp, #116]
 413 02fa 9944     		add	r9, r9, r3
 414              	.LVL88:
 179:.\DSP\Source\TransformFunctions/arm_cfft_f64.c ****          } while ( i0 < fftLen);
 415              		.loc 1 179 0 discriminator 1
 416 02fc 1E9B     		ldr	r3, [sp, #120]
 417 02fe 4B45     		cmp	r3, r9
 418 0300 3FF6BDAE 		bhi	.L3
 419 0304 DA46     		mov	r10, fp
 180:.\DSP\Source\TransformFunctions/arm_cfft_f64.c ****          j++;
 420              		.loc 1 180 0
 421 0306 1F9B     		ldr	r3, [sp, #124]
 422 0308 0133     		adds	r3, r3, #1
 423 030a 1A46     		mov	r2, r3
 424 030c 1F93     		str	r3, [sp, #124]
 425              	.LVL89:
 181:.\DSP\Source\TransformFunctions/arm_cfft_f64.c ****       } while (j <= (n2 - 1U));
 426              		.loc 1 181 0
 427 030e 1C9B     		ldr	r3, [sp, #112]
 428 0310 013B     		subs	r3, r3, #1
 429 0312 9342     		cmp	r3, r2
 430 0314 BFF486AE 		bcs	.L4
 431              	.LVL90:
 432 0318 DDF870B0 		ldr	fp, [sp, #112]
 182:.\DSP\Source\TransformFunctions/arm_cfft_f64.c ****       twidCoefModifier <<= 2U;
 433              		.loc 1 182 0 discriminator 2
 434 031c 219B     		ldr	r3, [sp, #132]
 435 031e 9B00     		lsls	r3, r3, #2
 436 0320 9BB2     		uxth	r3, r3
 437 0322 2193     		str	r3, [sp, #132]
 438              	.LVL91:
  79:.\DSP\Source\TransformFunctions/arm_cfft_f64.c ****    {
 439              		.loc 1 79 0 discriminator 2
 440 0324 239B     		ldr	r3, [sp, #140]
 441 0326 9B08     		lsrs	r3, r3, #2
 442 0328 2393     		str	r3, [sp, #140]
ARM GAS  C:\Users\IVYLIU~1\AppData\Local\Temp\ccM9qH38.s 			page 12


 443              	.LVL92:
  83:.\DSP\Source\TransformFunctions/arm_cfft_f64.c ****       ia1 = 0U;
 444              		.loc 1 83 0 discriminator 2
 445 032a CDF874B0 		str	fp, [sp, #116]
 446              	.LVL93:
 447              	.L2:
  79:.\DSP\Source\TransformFunctions/arm_cfft_f64.c ****    {
 448              		.loc 1 79 0 discriminator 1
 449 032e 239B     		ldr	r3, [sp, #140]
 450 0330 012B     		cmp	r3, #1
 451 0332 3FF66FAE 		bhi	.L5
 183:.\DSP\Source\TransformFunctions/arm_cfft_f64.c ****    }
 184:.\DSP\Source\TransformFunctions/arm_cfft_f64.c **** }
 452              		.loc 1 184 0
 453 0336 25B0     		add	sp, sp, #148
 454              		.cfi_def_cfa_offset 36
 455              		@ sp needed
 456 0338 BDE8F08F 		pop	{r4, r5, r6, r7, r8, r9, r10, fp, pc}
 457              		.cfi_endproc
 458              	.LFE84:
 459              		.size	arm_radix4_butterfly_f64, .-arm_radix4_butterfly_f64
 460              		.section	.text.arm_cfft_radix4by2_f64,"ax",%progbits
 461              		.align	2
 462              		.global	arm_cfft_radix4by2_f64
 463              		.thumb
 464              		.thumb_func
 465              		.type	arm_cfft_radix4by2_f64, %function
 466              	arm_cfft_radix4by2_f64:
 467              	.LFB85:
 185:.\DSP\Source\TransformFunctions/arm_cfft_f64.c **** 
 186:.\DSP\Source\TransformFunctions/arm_cfft_f64.c **** /*
 187:.\DSP\Source\TransformFunctions/arm_cfft_f64.c **** * @brief  Core function for the Double Precision floating-point CFFT butterfly process.
 188:.\DSP\Source\TransformFunctions/arm_cfft_f64.c **** * @param[in, out] *pSrc            points to the in-place buffer of F64 data type.
 189:.\DSP\Source\TransformFunctions/arm_cfft_f64.c **** * @param[in]      fftLen           length of the FFT.
 190:.\DSP\Source\TransformFunctions/arm_cfft_f64.c **** * @param[in]      *pCoef           points to the twiddle coefficient buffer.
 191:.\DSP\Source\TransformFunctions/arm_cfft_f64.c **** * @param[in]      twidCoefModifier twiddle coefficient modifier that supports different size FFTs w
 192:.\DSP\Source\TransformFunctions/arm_cfft_f64.c **** * @return none.
 193:.\DSP\Source\TransformFunctions/arm_cfft_f64.c **** */
 194:.\DSP\Source\TransformFunctions/arm_cfft_f64.c **** 
 195:.\DSP\Source\TransformFunctions/arm_cfft_f64.c **** void arm_cfft_radix4by2_f64(
 196:.\DSP\Source\TransformFunctions/arm_cfft_f64.c ****     float64_t * pSrc,
 197:.\DSP\Source\TransformFunctions/arm_cfft_f64.c ****     uint32_t fftLen,
 198:.\DSP\Source\TransformFunctions/arm_cfft_f64.c ****     const float64_t * pCoef)
 199:.\DSP\Source\TransformFunctions/arm_cfft_f64.c **** {
 468              		.loc 1 199 0
 469              		.cfi_startproc
 470              		@ args = 0, pretend = 0, frame = 80
 471              		@ frame_needed = 0, uses_anonymous_args = 0
 472              	.LVL94:
 473 0000 2DE9F04F 		push	{r4, r5, r6, r7, r8, r9, r10, fp, lr}
 474              		.cfi_def_cfa_offset 36
 475              		.cfi_offset 4, -36
 476              		.cfi_offset 5, -32
 477              		.cfi_offset 6, -28
 478              		.cfi_offset 7, -24
 479              		.cfi_offset 8, -20
 480              		.cfi_offset 9, -16
ARM GAS  C:\Users\IVYLIU~1\AppData\Local\Temp\ccM9qH38.s 			page 13


 481              		.cfi_offset 10, -12
 482              		.cfi_offset 11, -8
 483              		.cfi_offset 14, -4
 484 0004 95B0     		sub	sp, sp, #84
 485              		.cfi_def_cfa_offset 120
 486 0006 8046     		mov	r8, r0
 487 0008 1391     		str	r1, [sp, #76]
 488 000a 1292     		str	r2, [sp, #72]
 200:.\DSP\Source\TransformFunctions/arm_cfft_f64.c ****     uint32_t i, l;
 201:.\DSP\Source\TransformFunctions/arm_cfft_f64.c ****     uint32_t n2, ia;
 202:.\DSP\Source\TransformFunctions/arm_cfft_f64.c ****     float64_t xt, yt, cosVal, sinVal;
 203:.\DSP\Source\TransformFunctions/arm_cfft_f64.c ****     float64_t p0, p1,p2,p3,a0,a1;
 204:.\DSP\Source\TransformFunctions/arm_cfft_f64.c **** 
 205:.\DSP\Source\TransformFunctions/arm_cfft_f64.c ****     n2 = fftLen >> 1;
 489              		.loc 1 205 0
 490 000c 4B08     		lsrs	r3, r1, #1
 491 000e 0B93     		str	r3, [sp, #44]
 492              	.LVL95:
 206:.\DSP\Source\TransformFunctions/arm_cfft_f64.c ****     ia = 0;
 493              		.loc 1 206 0
 494 0010 0025     		movs	r5, #0
 207:.\DSP\Source\TransformFunctions/arm_cfft_f64.c ****     for (i = 0; i < n2; i++)
 495              		.loc 1 207 0
 496 0012 A946     		mov	r9, r5
 497 0014 2E46     		mov	r6, r5
 498 0016 84E0     		b	.L8
 499              	.LVL96:
 500              	.L9:
 208:.\DSP\Source\TransformFunctions/arm_cfft_f64.c ****     {
 209:.\DSP\Source\TransformFunctions/arm_cfft_f64.c ****         cosVal = pCoef[2*ia];
 501              		.loc 1 209 0 discriminator 3
 502 0018 3301     		lsls	r3, r6, #4
 503 001a 1299     		ldr	r1, [sp, #72]
 504 001c 0A46     		mov	r2, r1
 505 001e 1A44     		add	r2, r2, r3
 506 0020 D2E90045 		ldrd	r4, [r2]
 507 0024 CDE90045 		strd	r4, [sp]
 508              	.LVL97:
 210:.\DSP\Source\TransformFunctions/arm_cfft_f64.c ****         sinVal = pCoef[2*ia + 1];
 509              		.loc 1 210 0 discriminator 3
 510 0028 0B44     		add	r3, r3, r1
 511 002a D3E90223 		ldrd	r2, [r3, #8]
 512 002e CDE90223 		strd	r2, [sp, #8]
 513              	.LVL98:
 211:.\DSP\Source\TransformFunctions/arm_cfft_f64.c ****         ia++;
 514              		.loc 1 211 0 discriminator 3
 515 0032 0136     		adds	r6, r6, #1
 516              	.LVL99:
 212:.\DSP\Source\TransformFunctions/arm_cfft_f64.c **** 
 213:.\DSP\Source\TransformFunctions/arm_cfft_f64.c ****         l = i + n2;
 517              		.loc 1 213 0 discriminator 3
 518 0034 0B9B     		ldr	r3, [sp, #44]
 519 0036 09EB030A 		add	r10, r9, r3
 520              	.LVL100:
 214:.\DSP\Source\TransformFunctions/arm_cfft_f64.c **** 
 215:.\DSP\Source\TransformFunctions/arm_cfft_f64.c ****         /*  Butterfly implementation */
 216:.\DSP\Source\TransformFunctions/arm_cfft_f64.c ****         a0 = pSrc[2 * i] + pSrc[2 * l];
ARM GAS  C:\Users\IVYLIU~1\AppData\Local\Temp\ccM9qH38.s 			page 14


 521              		.loc 1 216 0 discriminator 3
 522 003a 4FEA091B 		lsl	fp, r9, #4
 523 003e 08EB0B07 		add	r7, r8, fp
 524 0042 D7E90001 		ldrd	r0, [r7]
 525 0046 4FEA0A1A 		lsl	r10, r10, #4
 526              	.LVL101:
 527 004a 08EB0A04 		add	r4, r8, r10
 528              	.LVL102:
 529 004e D4E90023 		ldrd	r2, [r4]
 530              	.LVL103:
 531 0052 CDE90401 		strd	r0, [sp, #16]
 532 0056 CDE90623 		strd	r2, [sp, #24]
 533 005a FFF7FEFF 		bl	__aeabi_dadd
 534              	.LVL104:
 535 005e CDE90E01 		strd	r0, [sp, #56]
 536              	.LVL105:
 217:.\DSP\Source\TransformFunctions/arm_cfft_f64.c ****         xt = pSrc[2 * i] - pSrc[2 * l];
 537              		.loc 1 217 0 discriminator 3
 538 0062 DDE90401 		ldrd	r0, [sp, #16]
 539              	.LVL106:
 540 0066 DDE90623 		ldrd	r2, [sp, #24]
 541 006a FFF7FEFF 		bl	__aeabi_dsub
 542              	.LVL107:
 543 006e CDE90601 		strd	r0, [sp, #24]
 544              	.LVL108:
 218:.\DSP\Source\TransformFunctions/arm_cfft_f64.c **** 
 219:.\DSP\Source\TransformFunctions/arm_cfft_f64.c ****         yt = pSrc[2 * i + 1] - pSrc[2 * l + 1];
 545              		.loc 1 219 0 discriminator 3
 546 0072 0BF1080B 		add	fp, fp, #8
 547 0076 C344     		add	fp, fp, r8
 548 0078 DBE90023 		ldrd	r2, [fp]
 549 007c 0AF1080A 		add	r10, r10, #8
 550 0080 C244     		add	r10, r10, r8
 551 0082 DAE90001 		ldrd	r0, [r10]
 552              	.LVL109:
 553 0086 CDE90401 		strd	r0, [sp, #16]
 554 008a CDE90C23 		strd	r2, [sp, #48]
 555 008e 1046     		mov	r0, r2
 556 0090 1946     		mov	r1, r3
 557 0092 DDE90423 		ldrd	r2, [sp, #16]
 558 0096 FFF7FEFF 		bl	__aeabi_dsub
 559              	.LVL110:
 560 009a CDE90801 		strd	r0, [sp, #32]
 561              	.LVL111:
 220:.\DSP\Source\TransformFunctions/arm_cfft_f64.c ****         a1 = pSrc[2 * l + 1] + pSrc[2 * i + 1];
 562              		.loc 1 220 0 discriminator 3
 563 009e DDE90C01 		ldrd	r0, [sp, #48]
 564              	.LVL112:
 565 00a2 DDE90423 		ldrd	r2, [sp, #16]
 566 00a6 FFF7FEFF 		bl	__aeabi_dadd
 567              	.LVL113:
 568 00aa CDE90401 		strd	r0, [sp, #16]
 569              	.LVL114:
 221:.\DSP\Source\TransformFunctions/arm_cfft_f64.c **** 
 222:.\DSP\Source\TransformFunctions/arm_cfft_f64.c ****         p0 = xt * cosVal;
 570              		.loc 1 222 0 discriminator 3
 571 00ae DDE90601 		ldrd	r0, [sp, #24]
ARM GAS  C:\Users\IVYLIU~1\AppData\Local\Temp\ccM9qH38.s 			page 15


 572              	.LVL115:
 573 00b2 DDE90023 		ldrd	r2, [sp]
 574 00b6 FFF7FEFF 		bl	__aeabi_dmul
 575              	.LVL116:
 576 00ba CDE90C01 		strd	r0, [sp, #48]
 577              	.LVL117:
 223:.\DSP\Source\TransformFunctions/arm_cfft_f64.c ****         p1 = yt * sinVal;
 578              		.loc 1 223 0 discriminator 3
 579 00be DDE90801 		ldrd	r0, [sp, #32]
 580              	.LVL118:
 581 00c2 DDE90223 		ldrd	r2, [sp, #8]
 582 00c6 FFF7FEFF 		bl	__aeabi_dmul
 583              	.LVL119:
 584 00ca CDE91001 		strd	r0, [sp, #64]
 585              	.LVL120:
 224:.\DSP\Source\TransformFunctions/arm_cfft_f64.c ****         p2 = yt * cosVal;
 586              		.loc 1 224 0 discriminator 3
 587 00ce DDE90801 		ldrd	r0, [sp, #32]
 588              	.LVL121:
 589 00d2 DDE90023 		ldrd	r2, [sp]
 590 00d6 FFF7FEFF 		bl	__aeabi_dmul
 591              	.LVL122:
 592 00da CDE90001 		strd	r0, [sp]
 593              	.LVL123:
 225:.\DSP\Source\TransformFunctions/arm_cfft_f64.c ****         p3 = xt * sinVal;
 594              		.loc 1 225 0 discriminator 3
 595 00de DDE90601 		ldrd	r0, [sp, #24]
 596              	.LVL124:
 597 00e2 DDE90223 		ldrd	r2, [sp, #8]
 598 00e6 FFF7FEFF 		bl	__aeabi_dmul
 599              	.LVL125:
 600 00ea CDE90201 		strd	r0, [sp, #8]
 601              	.LVL126:
 226:.\DSP\Source\TransformFunctions/arm_cfft_f64.c **** 
 227:.\DSP\Source\TransformFunctions/arm_cfft_f64.c ****         pSrc[2 * i]     = a0;
 602              		.loc 1 227 0 discriminator 3
 603 00ee DDE90E23 		ldrd	r2, [sp, #56]
 604 00f2 C7E90023 		strd	r2, [r7]
 228:.\DSP\Source\TransformFunctions/arm_cfft_f64.c ****         pSrc[2 * i + 1] = a1;
 605              		.loc 1 228 0 discriminator 3
 606 00f6 DDE90423 		ldrd	r2, [sp, #16]
 607 00fa CBE90023 		strd	r2, [fp]
 229:.\DSP\Source\TransformFunctions/arm_cfft_f64.c **** 
 230:.\DSP\Source\TransformFunctions/arm_cfft_f64.c ****         pSrc[2 * l]     = p0 + p1;
 608              		.loc 1 230 0 discriminator 3
 609 00fe DDE90C01 		ldrd	r0, [sp, #48]
 610              	.LVL127:
 611 0102 DDE91023 		ldrd	r2, [sp, #64]
 612 0106 FFF7FEFF 		bl	__aeabi_dadd
 613              	.LVL128:
 614 010a C4E90001 		strd	r0, [r4]
 231:.\DSP\Source\TransformFunctions/arm_cfft_f64.c ****         pSrc[2 * l + 1] = p2 - p3;
 615              		.loc 1 231 0 discriminator 3
 616 010e DDE90001 		ldrd	r0, [sp]
 617 0112 DDE90223 		ldrd	r2, [sp, #8]
 618 0116 FFF7FEFF 		bl	__aeabi_dsub
 619              	.LVL129:
ARM GAS  C:\Users\IVYLIU~1\AppData\Local\Temp\ccM9qH38.s 			page 16


 620 011a CAE90001 		strd	r0, [r10]
 207:.\DSP\Source\TransformFunctions/arm_cfft_f64.c ****     {
 621              		.loc 1 207 0 discriminator 3
 622 011e 09F10109 		add	r9, r9, #1
 623              	.LVL130:
 624              	.L8:
 207:.\DSP\Source\TransformFunctions/arm_cfft_f64.c ****     {
 625              		.loc 1 207 0 is_stmt 0 discriminator 1
 626 0122 0B9B     		ldr	r3, [sp, #44]
 627 0124 9945     		cmp	r9, r3
 628 0126 FFF477AF 		bcc	.L9
 232:.\DSP\Source\TransformFunctions/arm_cfft_f64.c **** 
 233:.\DSP\Source\TransformFunctions/arm_cfft_f64.c ****     }
 234:.\DSP\Source\TransformFunctions/arm_cfft_f64.c **** 
 235:.\DSP\Source\TransformFunctions/arm_cfft_f64.c ****     // first col
 236:.\DSP\Source\TransformFunctions/arm_cfft_f64.c ****     arm_radix4_butterfly_f64( pSrc, n2, (float64_t*)pCoef, 2U);
 629              		.loc 1 236 0 is_stmt 1
 630 012a BDF82C40 		ldrh	r4, [sp, #44]
 631 012e 4046     		mov	r0, r8
 632 0130 2146     		mov	r1, r4
 633 0132 129D     		ldr	r5, [sp, #72]
 634 0134 2A46     		mov	r2, r5
 635 0136 0223     		movs	r3, #2
 636 0138 FFF7FEFF 		bl	arm_radix4_butterfly_f64
 637              	.LVL131:
 237:.\DSP\Source\TransformFunctions/arm_cfft_f64.c ****     // second col
 238:.\DSP\Source\TransformFunctions/arm_cfft_f64.c ****     arm_radix4_butterfly_f64( pSrc + fftLen, n2, (float64_t*)pCoef, 2U);
 638              		.loc 1 238 0
 639 013c 139B     		ldr	r3, [sp, #76]
 640 013e 08EBC300 		add	r0, r8, r3, lsl #3
 641 0142 2146     		mov	r1, r4
 642 0144 2A46     		mov	r2, r5
 643 0146 0223     		movs	r3, #2
 644 0148 FFF7FEFF 		bl	arm_radix4_butterfly_f64
 645              	.LVL132:
 239:.\DSP\Source\TransformFunctions/arm_cfft_f64.c **** 
 240:.\DSP\Source\TransformFunctions/arm_cfft_f64.c **** }
 646              		.loc 1 240 0
 647 014c 15B0     		add	sp, sp, #84
 648              		.cfi_def_cfa_offset 36
 649              		@ sp needed
 650 014e BDE8F08F 		pop	{r4, r5, r6, r7, r8, r9, r10, fp, pc}
 651              		.cfi_endproc
 652              	.LFE85:
 653              		.size	arm_cfft_radix4by2_f64, .-arm_cfft_radix4by2_f64
 654              		.global	__aeabi_ui2d
 655              		.global	__aeabi_ddiv
 656 0152 00BF     		.section	.text.arm_cfft_f64,"ax",%progbits
 657              		.align	2
 658              		.global	arm_cfft_f64
 659              		.thumb
 660              		.thumb_func
 661              		.type	arm_cfft_f64, %function
 662              	arm_cfft_f64:
 663              	.LFB86:
 241:.\DSP\Source\TransformFunctions/arm_cfft_f64.c **** 
 242:.\DSP\Source\TransformFunctions/arm_cfft_f64.c **** /**
ARM GAS  C:\Users\IVYLIU~1\AppData\Local\Temp\ccM9qH38.s 			page 17


 243:.\DSP\Source\TransformFunctions/arm_cfft_f64.c ****   @addtogroup ComplexFFT
 244:.\DSP\Source\TransformFunctions/arm_cfft_f64.c ****   @{
 245:.\DSP\Source\TransformFunctions/arm_cfft_f64.c ****  */
 246:.\DSP\Source\TransformFunctions/arm_cfft_f64.c **** 
 247:.\DSP\Source\TransformFunctions/arm_cfft_f64.c **** /**
 248:.\DSP\Source\TransformFunctions/arm_cfft_f64.c ****   @brief         Processing function for the Double Precision floating-point complex FFT.
 249:.\DSP\Source\TransformFunctions/arm_cfft_f64.c ****   @param[in]     S              points to an instance of the Double Precision floating-point CFFT s
 250:.\DSP\Source\TransformFunctions/arm_cfft_f64.c ****   @param[in,out] p1             points to the complex data buffer of size <code>2*fftLen</code>. Pr
 251:.\DSP\Source\TransformFunctions/arm_cfft_f64.c ****   @param[in]     ifftFlag       flag that selects transform direction
 252:.\DSP\Source\TransformFunctions/arm_cfft_f64.c ****                    - value = 0: forward transform
 253:.\DSP\Source\TransformFunctions/arm_cfft_f64.c ****                    - value = 1: inverse transform
 254:.\DSP\Source\TransformFunctions/arm_cfft_f64.c ****   @param[in]     bitReverseFlag flag that enables / disables bit reversal of output
 255:.\DSP\Source\TransformFunctions/arm_cfft_f64.c ****                    - value = 0: disables bit reversal of output
 256:.\DSP\Source\TransformFunctions/arm_cfft_f64.c ****                    - value = 1: enables bit reversal of output
 257:.\DSP\Source\TransformFunctions/arm_cfft_f64.c ****   @return        none
 258:.\DSP\Source\TransformFunctions/arm_cfft_f64.c ****  */
 259:.\DSP\Source\TransformFunctions/arm_cfft_f64.c **** 
 260:.\DSP\Source\TransformFunctions/arm_cfft_f64.c **** void arm_cfft_f64(
 261:.\DSP\Source\TransformFunctions/arm_cfft_f64.c ****   const arm_cfft_instance_f64 * S,
 262:.\DSP\Source\TransformFunctions/arm_cfft_f64.c ****         float64_t * p1,
 263:.\DSP\Source\TransformFunctions/arm_cfft_f64.c ****         uint8_t ifftFlag,
 264:.\DSP\Source\TransformFunctions/arm_cfft_f64.c ****         uint8_t bitReverseFlag)
 265:.\DSP\Source\TransformFunctions/arm_cfft_f64.c **** {
 664              		.loc 1 265 0
 665              		.cfi_startproc
 666              		@ args = 0, pretend = 0, frame = 0
 667              		@ frame_needed = 0, uses_anonymous_args = 0
 668              	.LVL133:
 669 0000 2DE9F843 		push	{r3, r4, r5, r6, r7, r8, r9, lr}
 670              		.cfi_def_cfa_offset 32
 671              		.cfi_offset 3, -32
 672              		.cfi_offset 4, -28
 673              		.cfi_offset 5, -24
 674              		.cfi_offset 6, -20
 675              		.cfi_offset 7, -16
 676              		.cfi_offset 8, -12
 677              		.cfi_offset 9, -8
 678              		.cfi_offset 14, -4
 679 0004 0746     		mov	r7, r0
 680 0006 0C46     		mov	r4, r1
 681 0008 9046     		mov	r8, r2
 682 000a 9946     		mov	r9, r3
 266:.\DSP\Source\TransformFunctions/arm_cfft_f64.c ****     uint32_t  L = S->fftLen, l;
 683              		.loc 1 266 0
 684 000c 0688     		ldrh	r6, [r0]
 685 000e 3546     		mov	r5, r6
 686              	.LVL134:
 267:.\DSP\Source\TransformFunctions/arm_cfft_f64.c ****     float64_t invL, * pSrc;
 268:.\DSP\Source\TransformFunctions/arm_cfft_f64.c **** 
 269:.\DSP\Source\TransformFunctions/arm_cfft_f64.c ****     if (ifftFlag == 1U)
 687              		.loc 1 269 0
 688 0010 012A     		cmp	r2, #1
 689 0012 0DD1     		bne	.L12
 270:.\DSP\Source\TransformFunctions/arm_cfft_f64.c ****     {
 271:.\DSP\Source\TransformFunctions/arm_cfft_f64.c ****         /*  Conjugate input data  */
 272:.\DSP\Source\TransformFunctions/arm_cfft_f64.c ****         pSrc = p1 + 1;
 690              		.loc 1 272 0
ARM GAS  C:\Users\IVYLIU~1\AppData\Local\Temp\ccM9qH38.s 			page 18


 691 0014 0831     		adds	r1, r1, #8
 692              	.LVL135:
 273:.\DSP\Source\TransformFunctions/arm_cfft_f64.c ****         for(l=0; l<L; l++)
 693              		.loc 1 273 0
 694 0016 4FF0000E 		mov	lr, #0
 695 001a 07E0     		b	.L13
 696              	.LVL136:
 697              	.L14:
 274:.\DSP\Source\TransformFunctions/arm_cfft_f64.c ****         {
 275:.\DSP\Source\TransformFunctions/arm_cfft_f64.c ****             *pSrc = -*pSrc;
 698              		.loc 1 275 0 discriminator 3
 699 001c 4868     		ldr	r0, [r1, #4]
 700 001e 0A68     		ldr	r2, [r1]
 701 0020 00F10043 		add	r3, r0, #-2147483648
 702 0024 E1E80423 		strd	r2, [r1], #16
 703              	.LVL137:
 273:.\DSP\Source\TransformFunctions/arm_cfft_f64.c ****         for(l=0; l<L; l++)
 704              		.loc 1 273 0 discriminator 3
 705 0028 0EF1010E 		add	lr, lr, #1
 706              	.LVL138:
 707              	.L13:
 273:.\DSP\Source\TransformFunctions/arm_cfft_f64.c ****         for(l=0; l<L; l++)
 708              		.loc 1 273 0 is_stmt 0 discriminator 1
 709 002c AE45     		cmp	lr, r5
 710 002e F5D3     		bcc	.L14
 711              	.LVL139:
 712              	.L12:
 276:.\DSP\Source\TransformFunctions/arm_cfft_f64.c ****             pSrc += 2;
 277:.\DSP\Source\TransformFunctions/arm_cfft_f64.c ****         }
 278:.\DSP\Source\TransformFunctions/arm_cfft_f64.c ****     }
 279:.\DSP\Source\TransformFunctions/arm_cfft_f64.c **** 
 280:.\DSP\Source\TransformFunctions/arm_cfft_f64.c ****     switch (L)
 713              		.loc 1 280 0 is_stmt 1
 714 0030 B6F5807F 		cmp	r6, #256
 715 0034 19D0     		beq	.L16
 716 0036 0AD8     		bhi	.L17
 717 0038 202E     		cmp	r6, #32
 718 003a 1DD0     		beq	.L18
 719 003c 02D8     		bhi	.L19
 720 003e 102E     		cmp	r6, #16
 721 0040 1FD1     		bne	.L15
 722 0042 12E0     		b	.L16
 723              	.L19:
 724 0044 402E     		cmp	r6, #64
 725 0046 10D0     		beq	.L16
 726 0048 802E     		cmp	r6, #128
 727 004a 15D0     		beq	.L18
 728 004c 19E0     		b	.L15
 729              	.L17:
 730 004e B6F5806F 		cmp	r6, #1024
 731 0052 0AD0     		beq	.L16
 732 0054 03D8     		bhi	.L20
 733 0056 B6F5007F 		cmp	r6, #512
 734 005a 0DD0     		beq	.L18
 735 005c 11E0     		b	.L15
 736              	.L20:
 737 005e B6F5006F 		cmp	r6, #2048
ARM GAS  C:\Users\IVYLIU~1\AppData\Local\Temp\ccM9qH38.s 			page 19


 738 0062 09D0     		beq	.L18
 739 0064 B6F5805F 		cmp	r6, #4096
 740 0068 0BD1     		bne	.L15
 741              	.L16:
 281:.\DSP\Source\TransformFunctions/arm_cfft_f64.c ****     {
 282:.\DSP\Source\TransformFunctions/arm_cfft_f64.c ****         case 16:
 283:.\DSP\Source\TransformFunctions/arm_cfft_f64.c ****         case 64:
 284:.\DSP\Source\TransformFunctions/arm_cfft_f64.c ****         case 256:
 285:.\DSP\Source\TransformFunctions/arm_cfft_f64.c ****         case 1024:
 286:.\DSP\Source\TransformFunctions/arm_cfft_f64.c ****         case 4096:
 287:.\DSP\Source\TransformFunctions/arm_cfft_f64.c ****         arm_radix4_butterfly_f64  (p1, L, (float64_t*)S->pTwiddle, 1U);
 742              		.loc 1 287 0
 743 006a 2046     		mov	r0, r4
 744 006c 3146     		mov	r1, r6
 745 006e 7A68     		ldr	r2, [r7, #4]
 746 0070 0123     		movs	r3, #1
 747 0072 FFF7FEFF 		bl	arm_radix4_butterfly_f64
 748              	.LVL140:
 288:.\DSP\Source\TransformFunctions/arm_cfft_f64.c ****         break;
 749              		.loc 1 288 0
 750 0076 04E0     		b	.L15
 751              	.L18:
 289:.\DSP\Source\TransformFunctions/arm_cfft_f64.c **** 
 290:.\DSP\Source\TransformFunctions/arm_cfft_f64.c ****         case 32:
 291:.\DSP\Source\TransformFunctions/arm_cfft_f64.c ****         case 128:
 292:.\DSP\Source\TransformFunctions/arm_cfft_f64.c ****         case 512:
 293:.\DSP\Source\TransformFunctions/arm_cfft_f64.c ****         case 2048:
 294:.\DSP\Source\TransformFunctions/arm_cfft_f64.c ****         arm_cfft_radix4by2_f64  ( p1, L, (float64_t*)S->pTwiddle);
 752              		.loc 1 294 0
 753 0078 2046     		mov	r0, r4
 754 007a 3146     		mov	r1, r6
 755 007c 7A68     		ldr	r2, [r7, #4]
 756 007e FFF7FEFF 		bl	arm_cfft_radix4by2_f64
 757              	.LVL141:
 758              	.L15:
 295:.\DSP\Source\TransformFunctions/arm_cfft_f64.c ****         break;
 296:.\DSP\Source\TransformFunctions/arm_cfft_f64.c **** 
 297:.\DSP\Source\TransformFunctions/arm_cfft_f64.c ****     }
 298:.\DSP\Source\TransformFunctions/arm_cfft_f64.c **** 
 299:.\DSP\Source\TransformFunctions/arm_cfft_f64.c ****     if ( bitReverseFlag )
 759              		.loc 1 299 0
 760 0082 B9F1000F 		cmp	r9, #0
 761 0086 04D0     		beq	.L21
 300:.\DSP\Source\TransformFunctions/arm_cfft_f64.c ****         arm_bitreversal_64((uint64_t*)p1, S->bitRevLength,S->pBitRevTable);
 762              		.loc 1 300 0
 763 0088 2046     		mov	r0, r4
 764 008a B989     		ldrh	r1, [r7, #12]
 765 008c BA68     		ldr	r2, [r7, #8]
 766 008e FFF7FEFF 		bl	arm_bitreversal_64
 767              	.LVL142:
 768              	.L21:
 301:.\DSP\Source\TransformFunctions/arm_cfft_f64.c **** 
 302:.\DSP\Source\TransformFunctions/arm_cfft_f64.c ****     if (ifftFlag == 1U)
 769              		.loc 1 302 0
 770 0092 B8F1010F 		cmp	r8, #1
 771 0096 24D1     		bne	.L11
 303:.\DSP\Source\TransformFunctions/arm_cfft_f64.c ****     {
ARM GAS  C:\Users\IVYLIU~1\AppData\Local\Temp\ccM9qH38.s 			page 20


 304:.\DSP\Source\TransformFunctions/arm_cfft_f64.c ****         invL = 1.0 / (float64_t)L;
 772              		.loc 1 304 0
 773 0098 3046     		mov	r0, r6
 774 009a FFF7FEFF 		bl	__aeabi_ui2d
 775              	.LVL143:
 776 009e 0246     		mov	r2, r0
 777 00a0 0B46     		mov	r3, r1
 778 00a2 0020     		movs	r0, #0
 779 00a4 1049     		ldr	r1, .L26
 780 00a6 FFF7FEFF 		bl	__aeabi_ddiv
 781              	.LVL144:
 782 00aa 0646     		mov	r6, r0
 783 00ac 0F46     		mov	r7, r1
 784              	.LVL145:
 305:.\DSP\Source\TransformFunctions/arm_cfft_f64.c ****         /*  Conjugate and scale output data */
 306:.\DSP\Source\TransformFunctions/arm_cfft_f64.c ****         pSrc = p1;
 307:.\DSP\Source\TransformFunctions/arm_cfft_f64.c ****         for(l=0; l<L; l++)
 785              		.loc 1 307 0
 786 00ae 4FF00008 		mov	r8, #0
 787 00b2 14E0     		b	.L23
 788              	.LVL146:
 789              	.L24:
 308:.\DSP\Source\TransformFunctions/arm_cfft_f64.c ****         {
 309:.\DSP\Source\TransformFunctions/arm_cfft_f64.c ****             *pSrc++ *=   invL ;
 790              		.loc 1 309 0 discriminator 3
 791 00b4 D4E90001 		ldrd	r0, [r4]
 792 00b8 3246     		mov	r2, r6
 793 00ba 3B46     		mov	r3, r7
 794 00bc FFF7FEFF 		bl	__aeabi_dmul
 795              	.LVL147:
 796 00c0 C4E90001 		strd	r0, [r4]
 310:.\DSP\Source\TransformFunctions/arm_cfft_f64.c ****             *pSrc  = -(*pSrc) * invL;
 797              		.loc 1 310 0 discriminator 3
 798 00c4 E368     		ldr	r3, [r4, #12]
 799 00c6 A068     		ldr	r0, [r4, #8]
 800 00c8 03F10041 		add	r1, r3, #-2147483648
 801 00cc 3246     		mov	r2, r6
 802 00ce 3B46     		mov	r3, r7
 803 00d0 FFF7FEFF 		bl	__aeabi_dmul
 804              	.LVL148:
 805 00d4 C4E90201 		strd	r0, [r4, #8]
 311:.\DSP\Source\TransformFunctions/arm_cfft_f64.c ****             pSrc++;
 806              		.loc 1 311 0 discriminator 3
 807 00d8 1034     		adds	r4, r4, #16
 808              	.LVL149:
 307:.\DSP\Source\TransformFunctions/arm_cfft_f64.c ****         {
 809              		.loc 1 307 0 discriminator 3
 810 00da 08F10108 		add	r8, r8, #1
 811              	.LVL150:
 812              	.L23:
 307:.\DSP\Source\TransformFunctions/arm_cfft_f64.c ****         {
 813              		.loc 1 307 0 is_stmt 0 discriminator 1
 814 00de A845     		cmp	r8, r5
 815 00e0 E8D3     		bcc	.L24
 816              	.LVL151:
 817              	.L11:
 818 00e2 BDE8F883 		pop	{r3, r4, r5, r6, r7, r8, r9, pc}
ARM GAS  C:\Users\IVYLIU~1\AppData\Local\Temp\ccM9qH38.s 			page 21


 819              	.LVL152:
 820              	.L27:
 821 00e6 00BF     		.align	2
 822              	.L26:
 823 00e8 0000F03F 		.word	1072693248
 824              		.cfi_endproc
 825              	.LFE86:
 826              		.size	arm_cfft_f64, .-arm_cfft_f64
 827              		.text
 828              	.Letext0:
 829              		.file 2 "c:\\program files (x86)\\cypress\\psoc creator\\3.3\\psoc creator\\import\\gnu\\arm\\4.9.
 830              		.file 3 "c:\\program files (x86)\\cypress\\psoc creator\\3.3\\psoc creator\\import\\gnu\\arm\\4.9.
 831              		.file 4 ".\\DSP\\Include/arm_math_types.h"
 832              		.file 5 ".\\DSP\\Include/dsp/transform_functions.h"
 833              		.file 6 ".\\Core\\Include/cmsis_gcc.h"