ARM GAS  C:\Users\IVYLIU~1\AppData\Local\Temp\ccltE1I3.s 			page 1


   1              		.syntax unified
   2              		.cpu cortex-m3
   3              		.fpu softvfp
   4              		.eabi_attribute 20, 1
   5              		.eabi_attribute 21, 1
   6              		.eabi_attribute 23, 3
   7              		.eabi_attribute 24, 1
   8              		.eabi_attribute 25, 1
   9              		.eabi_attribute 26, 1
  10              		.eabi_attribute 30, 1
  11              		.eabi_attribute 34, 1
  12              		.eabi_attribute 18, 4
  13              		.thumb
  14              		.file	"arm_cmplx_mag_q15.c"
  15              		.text
  16              	.Ltext0:
  17              		.cfi_sections	.debug_frame
  18              		.section	.text.arm_cmplx_mag_q15,"ax",%progbits
  19              		.align	2
  20              		.global	arm_cmplx_mag_q15
  21              		.thumb
  22              		.thumb_func
  23              		.type	arm_cmplx_mag_q15, %function
  24              	arm_cmplx_mag_q15:
  25              	.LFB84:
  26              		.file 1 ".\\DSP\\Source\\ComplexMathFunctions\\arm_cmplx_mag_q15.c"
   1:.\DSP\Source\ComplexMathFunctions/arm_cmplx_mag_q15.c **** /* ----------------------------------------------------------------------
   2:.\DSP\Source\ComplexMathFunctions/arm_cmplx_mag_q15.c ****  * Project:      CMSIS DSP Library
   3:.\DSP\Source\ComplexMathFunctions/arm_cmplx_mag_q15.c ****  * Title:        arm_cmplx_mag_q15.c
   4:.\DSP\Source\ComplexMathFunctions/arm_cmplx_mag_q15.c ****  * Description:  Q15 complex magnitude
   5:.\DSP\Source\ComplexMathFunctions/arm_cmplx_mag_q15.c ****  *
   6:.\DSP\Source\ComplexMathFunctions/arm_cmplx_mag_q15.c ****  * $Date:        23 April 2021
   7:.\DSP\Source\ComplexMathFunctions/arm_cmplx_mag_q15.c ****  * $Revision:    V1.9.0
   8:.\DSP\Source\ComplexMathFunctions/arm_cmplx_mag_q15.c ****  *
   9:.\DSP\Source\ComplexMathFunctions/arm_cmplx_mag_q15.c ****  * Target Processor: Cortex-M and Cortex-A cores
  10:.\DSP\Source\ComplexMathFunctions/arm_cmplx_mag_q15.c ****  * -------------------------------------------------------------------- */
  11:.\DSP\Source\ComplexMathFunctions/arm_cmplx_mag_q15.c **** /*
  12:.\DSP\Source\ComplexMathFunctions/arm_cmplx_mag_q15.c ****  * Copyright (C) 2010-2021 ARM Limited or its affiliates. All rights reserved.
  13:.\DSP\Source\ComplexMathFunctions/arm_cmplx_mag_q15.c ****  *
  14:.\DSP\Source\ComplexMathFunctions/arm_cmplx_mag_q15.c ****  * SPDX-License-Identifier: Apache-2.0
  15:.\DSP\Source\ComplexMathFunctions/arm_cmplx_mag_q15.c ****  *
  16:.\DSP\Source\ComplexMathFunctions/arm_cmplx_mag_q15.c ****  * Licensed under the Apache License, Version 2.0 (the License); you may
  17:.\DSP\Source\ComplexMathFunctions/arm_cmplx_mag_q15.c ****  * not use this file except in compliance with the License.
  18:.\DSP\Source\ComplexMathFunctions/arm_cmplx_mag_q15.c ****  * You may obtain a copy of the License at
  19:.\DSP\Source\ComplexMathFunctions/arm_cmplx_mag_q15.c ****  *
  20:.\DSP\Source\ComplexMathFunctions/arm_cmplx_mag_q15.c ****  * www.apache.org/licenses/LICENSE-2.0
  21:.\DSP\Source\ComplexMathFunctions/arm_cmplx_mag_q15.c ****  *
  22:.\DSP\Source\ComplexMathFunctions/arm_cmplx_mag_q15.c ****  * Unless required by applicable law or agreed to in writing, software
  23:.\DSP\Source\ComplexMathFunctions/arm_cmplx_mag_q15.c ****  * distributed under the License is distributed on an AS IS BASIS, WITHOUT
  24:.\DSP\Source\ComplexMathFunctions/arm_cmplx_mag_q15.c ****  * WARRANTIES OR CONDITIONS OF ANY KIND, either express or implied.
  25:.\DSP\Source\ComplexMathFunctions/arm_cmplx_mag_q15.c ****  * See the License for the specific language governing permissions and
  26:.\DSP\Source\ComplexMathFunctions/arm_cmplx_mag_q15.c ****  * limitations under the License.
  27:.\DSP\Source\ComplexMathFunctions/arm_cmplx_mag_q15.c ****  */
  28:.\DSP\Source\ComplexMathFunctions/arm_cmplx_mag_q15.c **** 
  29:.\DSP\Source\ComplexMathFunctions/arm_cmplx_mag_q15.c **** #include "dsp/complex_math_functions.h"
  30:.\DSP\Source\ComplexMathFunctions/arm_cmplx_mag_q15.c **** 
  31:.\DSP\Source\ComplexMathFunctions/arm_cmplx_mag_q15.c **** /**
ARM GAS  C:\Users\IVYLIU~1\AppData\Local\Temp\ccltE1I3.s 			page 2


  32:.\DSP\Source\ComplexMathFunctions/arm_cmplx_mag_q15.c ****   @ingroup groupCmplxMath
  33:.\DSP\Source\ComplexMathFunctions/arm_cmplx_mag_q15.c ****  */
  34:.\DSP\Source\ComplexMathFunctions/arm_cmplx_mag_q15.c **** 
  35:.\DSP\Source\ComplexMathFunctions/arm_cmplx_mag_q15.c **** /**
  36:.\DSP\Source\ComplexMathFunctions/arm_cmplx_mag_q15.c ****   @addtogroup cmplx_mag
  37:.\DSP\Source\ComplexMathFunctions/arm_cmplx_mag_q15.c ****   @{
  38:.\DSP\Source\ComplexMathFunctions/arm_cmplx_mag_q15.c ****  */
  39:.\DSP\Source\ComplexMathFunctions/arm_cmplx_mag_q15.c **** 
  40:.\DSP\Source\ComplexMathFunctions/arm_cmplx_mag_q15.c **** /**
  41:.\DSP\Source\ComplexMathFunctions/arm_cmplx_mag_q15.c ****   @brief         Q15 complex magnitude.
  42:.\DSP\Source\ComplexMathFunctions/arm_cmplx_mag_q15.c ****   @param[in]     pSrc        points to input vector
  43:.\DSP\Source\ComplexMathFunctions/arm_cmplx_mag_q15.c ****   @param[out]    pDst        points to output vector
  44:.\DSP\Source\ComplexMathFunctions/arm_cmplx_mag_q15.c ****   @param[in]     numSamples  number of samples in each vector
  45:.\DSP\Source\ComplexMathFunctions/arm_cmplx_mag_q15.c ****   @return        none
  46:.\DSP\Source\ComplexMathFunctions/arm_cmplx_mag_q15.c **** 
  47:.\DSP\Source\ComplexMathFunctions/arm_cmplx_mag_q15.c ****   @par           Scaling and Overflow Behavior
  48:.\DSP\Source\ComplexMathFunctions/arm_cmplx_mag_q15.c ****                    The function implements 1.15 by 1.15 multiplications and finally output is conve
  49:.\DSP\Source\ComplexMathFunctions/arm_cmplx_mag_q15.c ****  */
  50:.\DSP\Source\ComplexMathFunctions/arm_cmplx_mag_q15.c **** 
  51:.\DSP\Source\ComplexMathFunctions/arm_cmplx_mag_q15.c **** /* Sqrt q31 is used otherwise accuracy is not good enough
  52:.\DSP\Source\ComplexMathFunctions/arm_cmplx_mag_q15.c ****            for small values and for some applications it is
  53:.\DSP\Source\ComplexMathFunctions/arm_cmplx_mag_q15.c ****            an issue.
  54:.\DSP\Source\ComplexMathFunctions/arm_cmplx_mag_q15.c ****         */
  55:.\DSP\Source\ComplexMathFunctions/arm_cmplx_mag_q15.c **** #if defined(ARM_MATH_MVEI) && !defined(ARM_MATH_AUTOVECTORIZE)
  56:.\DSP\Source\ComplexMathFunctions/arm_cmplx_mag_q15.c **** 
  57:.\DSP\Source\ComplexMathFunctions/arm_cmplx_mag_q15.c **** #include "arm_helium_utils.h"
  58:.\DSP\Source\ComplexMathFunctions/arm_cmplx_mag_q15.c **** 
  59:.\DSP\Source\ComplexMathFunctions/arm_cmplx_mag_q15.c **** void arm_cmplx_mag_q15(
  60:.\DSP\Source\ComplexMathFunctions/arm_cmplx_mag_q15.c ****   const q15_t * pSrc,
  61:.\DSP\Source\ComplexMathFunctions/arm_cmplx_mag_q15.c ****         q15_t * pDst,
  62:.\DSP\Source\ComplexMathFunctions/arm_cmplx_mag_q15.c ****         uint32_t numSamples)
  63:.\DSP\Source\ComplexMathFunctions/arm_cmplx_mag_q15.c **** {
  64:.\DSP\Source\ComplexMathFunctions/arm_cmplx_mag_q15.c **** 
  65:.\DSP\Source\ComplexMathFunctions/arm_cmplx_mag_q15.c ****     int32_t blockSize = numSamples;  /* loop counters */
  66:.\DSP\Source\ComplexMathFunctions/arm_cmplx_mag_q15.c ****     uint32_t  blkCnt;           /* loop counters */
  67:.\DSP\Source\ComplexMathFunctions/arm_cmplx_mag_q15.c ****     q15x8x2_t vecSrc;
  68:.\DSP\Source\ComplexMathFunctions/arm_cmplx_mag_q15.c ****     q31x4_t prod0;
  69:.\DSP\Source\ComplexMathFunctions/arm_cmplx_mag_q15.c ****     q31x4_t prod1;
  70:.\DSP\Source\ComplexMathFunctions/arm_cmplx_mag_q15.c **** 
  71:.\DSP\Source\ComplexMathFunctions/arm_cmplx_mag_q15.c ****     q31_t in;
  72:.\DSP\Source\ComplexMathFunctions/arm_cmplx_mag_q15.c ****     q31_t acc0;
  73:.\DSP\Source\ComplexMathFunctions/arm_cmplx_mag_q15.c ****     q31x4_t acc0V;
  74:.\DSP\Source\ComplexMathFunctions/arm_cmplx_mag_q15.c ****     q31x4_t acc1V;
  75:.\DSP\Source\ComplexMathFunctions/arm_cmplx_mag_q15.c **** 
  76:.\DSP\Source\ComplexMathFunctions/arm_cmplx_mag_q15.c ****     q31_t res;
  77:.\DSP\Source\ComplexMathFunctions/arm_cmplx_mag_q15.c ****     q15x8_t resV;
  78:.\DSP\Source\ComplexMathFunctions/arm_cmplx_mag_q15.c **** 
  79:.\DSP\Source\ComplexMathFunctions/arm_cmplx_mag_q15.c ****     blkCnt = blockSize >> 3;
  80:.\DSP\Source\ComplexMathFunctions/arm_cmplx_mag_q15.c ****     while (blkCnt > 0U)
  81:.\DSP\Source\ComplexMathFunctions/arm_cmplx_mag_q15.c ****     {
  82:.\DSP\Source\ComplexMathFunctions/arm_cmplx_mag_q15.c ****         vecSrc = vld2q(pSrc);  
  83:.\DSP\Source\ComplexMathFunctions/arm_cmplx_mag_q15.c ****         pSrc += 16;
  84:.\DSP\Source\ComplexMathFunctions/arm_cmplx_mag_q15.c **** 
  85:.\DSP\Source\ComplexMathFunctions/arm_cmplx_mag_q15.c ****         acc0V = vdupq_n_s32(0);
  86:.\DSP\Source\ComplexMathFunctions/arm_cmplx_mag_q15.c ****         acc1V = vdupq_n_s32(0);
  87:.\DSP\Source\ComplexMathFunctions/arm_cmplx_mag_q15.c **** 
  88:.\DSP\Source\ComplexMathFunctions/arm_cmplx_mag_q15.c ****         prod0 = vmullbq_int_s16(vecSrc.val[0], vecSrc.val[0]);
ARM GAS  C:\Users\IVYLIU~1\AppData\Local\Temp\ccltE1I3.s 			page 3


  89:.\DSP\Source\ComplexMathFunctions/arm_cmplx_mag_q15.c ****         acc0V = vqaddq_s32(acc0V,prod0);
  90:.\DSP\Source\ComplexMathFunctions/arm_cmplx_mag_q15.c **** 
  91:.\DSP\Source\ComplexMathFunctions/arm_cmplx_mag_q15.c ****         prod0 = vmullbq_int_s16(vecSrc.val[1], vecSrc.val[1]);
  92:.\DSP\Source\ComplexMathFunctions/arm_cmplx_mag_q15.c ****         acc0V = vqaddq_s32(acc0V,prod0);
  93:.\DSP\Source\ComplexMathFunctions/arm_cmplx_mag_q15.c **** 
  94:.\DSP\Source\ComplexMathFunctions/arm_cmplx_mag_q15.c **** 
  95:.\DSP\Source\ComplexMathFunctions/arm_cmplx_mag_q15.c ****         prod1 = vmulltq_int_s16(vecSrc.val[0], vecSrc.val[0]);
  96:.\DSP\Source\ComplexMathFunctions/arm_cmplx_mag_q15.c ****         acc1V = vqaddq_s32(acc1V,prod1);
  97:.\DSP\Source\ComplexMathFunctions/arm_cmplx_mag_q15.c **** 
  98:.\DSP\Source\ComplexMathFunctions/arm_cmplx_mag_q15.c ****         prod1 = vmulltq_int_s16(vecSrc.val[1], vecSrc.val[1]);
  99:.\DSP\Source\ComplexMathFunctions/arm_cmplx_mag_q15.c ****         acc1V = vqaddq_s32(acc1V,prod1);
 100:.\DSP\Source\ComplexMathFunctions/arm_cmplx_mag_q15.c **** 
 101:.\DSP\Source\ComplexMathFunctions/arm_cmplx_mag_q15.c ****        
 102:.\DSP\Source\ComplexMathFunctions/arm_cmplx_mag_q15.c **** 
 103:.\DSP\Source\ComplexMathFunctions/arm_cmplx_mag_q15.c ****         acc0V = vshrq(acc0V, 1);
 104:.\DSP\Source\ComplexMathFunctions/arm_cmplx_mag_q15.c ****         acc1V = vshrq(acc1V, 1);
 105:.\DSP\Source\ComplexMathFunctions/arm_cmplx_mag_q15.c **** 
 106:.\DSP\Source\ComplexMathFunctions/arm_cmplx_mag_q15.c ****         acc0V = FAST_VSQRT_Q31(acc0V);
 107:.\DSP\Source\ComplexMathFunctions/arm_cmplx_mag_q15.c ****         acc1V = FAST_VSQRT_Q31(acc1V);
 108:.\DSP\Source\ComplexMathFunctions/arm_cmplx_mag_q15.c **** 
 109:.\DSP\Source\ComplexMathFunctions/arm_cmplx_mag_q15.c ****         resV = vdupq_n_s16(0);
 110:.\DSP\Source\ComplexMathFunctions/arm_cmplx_mag_q15.c ****         resV = vqshrnbq_n_s32(resV,acc0V,16);
 111:.\DSP\Source\ComplexMathFunctions/arm_cmplx_mag_q15.c ****         resV = vqshrntq_n_s32(resV,acc1V,16);
 112:.\DSP\Source\ComplexMathFunctions/arm_cmplx_mag_q15.c **** 
 113:.\DSP\Source\ComplexMathFunctions/arm_cmplx_mag_q15.c ****         vst1q(pDst, resV); 
 114:.\DSP\Source\ComplexMathFunctions/arm_cmplx_mag_q15.c ****         pDst += 8;
 115:.\DSP\Source\ComplexMathFunctions/arm_cmplx_mag_q15.c ****         /*
 116:.\DSP\Source\ComplexMathFunctions/arm_cmplx_mag_q15.c ****          * Decrement the blockSize loop counter
 117:.\DSP\Source\ComplexMathFunctions/arm_cmplx_mag_q15.c ****          */
 118:.\DSP\Source\ComplexMathFunctions/arm_cmplx_mag_q15.c ****         blkCnt--;
 119:.\DSP\Source\ComplexMathFunctions/arm_cmplx_mag_q15.c ****     }
 120:.\DSP\Source\ComplexMathFunctions/arm_cmplx_mag_q15.c **** 
 121:.\DSP\Source\ComplexMathFunctions/arm_cmplx_mag_q15.c ****     /*
 122:.\DSP\Source\ComplexMathFunctions/arm_cmplx_mag_q15.c ****      * tail
 123:.\DSP\Source\ComplexMathFunctions/arm_cmplx_mag_q15.c ****      */
 124:.\DSP\Source\ComplexMathFunctions/arm_cmplx_mag_q15.c ****     blkCnt = blockSize & 7;
 125:.\DSP\Source\ComplexMathFunctions/arm_cmplx_mag_q15.c **** 
 126:.\DSP\Source\ComplexMathFunctions/arm_cmplx_mag_q15.c ****     while (blkCnt > 0U)
 127:.\DSP\Source\ComplexMathFunctions/arm_cmplx_mag_q15.c ****     {
 128:.\DSP\Source\ComplexMathFunctions/arm_cmplx_mag_q15.c ****       /* C[0] = sqrt(A[0] * A[0] + A[1] * A[1]) */
 129:.\DSP\Source\ComplexMathFunctions/arm_cmplx_mag_q15.c ****   
 130:.\DSP\Source\ComplexMathFunctions/arm_cmplx_mag_q15.c ****       in = read_q15x2_ia ((q15_t **) &pSrc);
 131:.\DSP\Source\ComplexMathFunctions/arm_cmplx_mag_q15.c ****       acc0 = __SMUAD(in, in);
 132:.\DSP\Source\ComplexMathFunctions/arm_cmplx_mag_q15.c ****   
 133:.\DSP\Source\ComplexMathFunctions/arm_cmplx_mag_q15.c ****       /* store result in 2.14 format in destination buffer. */
 134:.\DSP\Source\ComplexMathFunctions/arm_cmplx_mag_q15.c ****       arm_sqrt_q31(acc0  >> 1 , &res);
 135:.\DSP\Source\ComplexMathFunctions/arm_cmplx_mag_q15.c ****       *pDst++ = res >> 16;
 136:.\DSP\Source\ComplexMathFunctions/arm_cmplx_mag_q15.c ****   
 137:.\DSP\Source\ComplexMathFunctions/arm_cmplx_mag_q15.c ****   
 138:.\DSP\Source\ComplexMathFunctions/arm_cmplx_mag_q15.c ****       /* Decrement loop counter */
 139:.\DSP\Source\ComplexMathFunctions/arm_cmplx_mag_q15.c ****       blkCnt--;
 140:.\DSP\Source\ComplexMathFunctions/arm_cmplx_mag_q15.c ****     }
 141:.\DSP\Source\ComplexMathFunctions/arm_cmplx_mag_q15.c **** }
 142:.\DSP\Source\ComplexMathFunctions/arm_cmplx_mag_q15.c **** 
 143:.\DSP\Source\ComplexMathFunctions/arm_cmplx_mag_q15.c **** #else
 144:.\DSP\Source\ComplexMathFunctions/arm_cmplx_mag_q15.c **** void arm_cmplx_mag_q15(
 145:.\DSP\Source\ComplexMathFunctions/arm_cmplx_mag_q15.c ****   const q15_t * pSrc,
ARM GAS  C:\Users\IVYLIU~1\AppData\Local\Temp\ccltE1I3.s 			page 4


 146:.\DSP\Source\ComplexMathFunctions/arm_cmplx_mag_q15.c ****         q15_t * pDst,
 147:.\DSP\Source\ComplexMathFunctions/arm_cmplx_mag_q15.c ****         uint32_t numSamples)
 148:.\DSP\Source\ComplexMathFunctions/arm_cmplx_mag_q15.c **** {
  27              		.loc 1 148 0
  28              		.cfi_startproc
  29              		@ args = 0, pretend = 0, frame = 8
  30              		@ frame_needed = 0, uses_anonymous_args = 0
  31              	.LVL0:
  32 0000 70B5     		push	{r4, r5, r6, lr}
  33              		.cfi_def_cfa_offset 16
  34              		.cfi_offset 4, -16
  35              		.cfi_offset 5, -12
  36              		.cfi_offset 6, -8
  37              		.cfi_offset 14, -4
  38 0002 82B0     		sub	sp, sp, #8
  39              		.cfi_def_cfa_offset 24
  40 0004 0E46     		mov	r6, r1
  41 0006 1546     		mov	r5, r2
  42              	.LVL1:
 149:.\DSP\Source\ComplexMathFunctions/arm_cmplx_mag_q15.c ****         q31_t res; /* temporary result */
 150:.\DSP\Source\ComplexMathFunctions/arm_cmplx_mag_q15.c ****         uint32_t blkCnt;                               /* Loop counter */
 151:.\DSP\Source\ComplexMathFunctions/arm_cmplx_mag_q15.c **** 
 152:.\DSP\Source\ComplexMathFunctions/arm_cmplx_mag_q15.c **** #if defined (ARM_MATH_DSP)
 153:.\DSP\Source\ComplexMathFunctions/arm_cmplx_mag_q15.c ****         q31_t in;
 154:.\DSP\Source\ComplexMathFunctions/arm_cmplx_mag_q15.c ****         q31_t acc0;                                    /* Accumulators */
 155:.\DSP\Source\ComplexMathFunctions/arm_cmplx_mag_q15.c **** #else
 156:.\DSP\Source\ComplexMathFunctions/arm_cmplx_mag_q15.c ****        q15_t real, imag;                              /* Temporary input variables */
 157:.\DSP\Source\ComplexMathFunctions/arm_cmplx_mag_q15.c ****        q31_t acc0, acc1;                              /* Accumulators */
 158:.\DSP\Source\ComplexMathFunctions/arm_cmplx_mag_q15.c **** #endif
 159:.\DSP\Source\ComplexMathFunctions/arm_cmplx_mag_q15.c **** 
 160:.\DSP\Source\ComplexMathFunctions/arm_cmplx_mag_q15.c **** #if defined (ARM_MATH_LOOPUNROLL)
 161:.\DSP\Source\ComplexMathFunctions/arm_cmplx_mag_q15.c **** 
 162:.\DSP\Source\ComplexMathFunctions/arm_cmplx_mag_q15.c ****   /* Loop unrolling: Compute 4 outputs at a time */
 163:.\DSP\Source\ComplexMathFunctions/arm_cmplx_mag_q15.c ****   blkCnt = numSamples >> 2U;
 164:.\DSP\Source\ComplexMathFunctions/arm_cmplx_mag_q15.c **** 
 165:.\DSP\Source\ComplexMathFunctions/arm_cmplx_mag_q15.c ****   while (blkCnt > 0U)
 166:.\DSP\Source\ComplexMathFunctions/arm_cmplx_mag_q15.c ****   {
 167:.\DSP\Source\ComplexMathFunctions/arm_cmplx_mag_q15.c ****     /* C[0] = sqrt(A[0] * A[0] + A[1] * A[1]) */
 168:.\DSP\Source\ComplexMathFunctions/arm_cmplx_mag_q15.c **** 
 169:.\DSP\Source\ComplexMathFunctions/arm_cmplx_mag_q15.c **** #if defined (ARM_MATH_DSP)
 170:.\DSP\Source\ComplexMathFunctions/arm_cmplx_mag_q15.c ****     in = read_q15x2_ia (&pSrc);
 171:.\DSP\Source\ComplexMathFunctions/arm_cmplx_mag_q15.c ****     acc0 = __SMUAD(in, in);
 172:.\DSP\Source\ComplexMathFunctions/arm_cmplx_mag_q15.c ****     /* store result in 2.14 format in destination buffer. */
 173:.\DSP\Source\ComplexMathFunctions/arm_cmplx_mag_q15.c ****     arm_sqrt_q31(acc0  >> 1 , &res);
 174:.\DSP\Source\ComplexMathFunctions/arm_cmplx_mag_q15.c ****     *pDst++ = res >> 16;
 175:.\DSP\Source\ComplexMathFunctions/arm_cmplx_mag_q15.c **** 
 176:.\DSP\Source\ComplexMathFunctions/arm_cmplx_mag_q15.c ****     in = read_q15x2_ia (&pSrc);
 177:.\DSP\Source\ComplexMathFunctions/arm_cmplx_mag_q15.c ****     acc0 = __SMUAD(in, in);
 178:.\DSP\Source\ComplexMathFunctions/arm_cmplx_mag_q15.c ****     arm_sqrt_q31(acc0  >> 1 , &res);
 179:.\DSP\Source\ComplexMathFunctions/arm_cmplx_mag_q15.c ****     *pDst++ = res >> 16;
 180:.\DSP\Source\ComplexMathFunctions/arm_cmplx_mag_q15.c **** 
 181:.\DSP\Source\ComplexMathFunctions/arm_cmplx_mag_q15.c ****     in = read_q15x2_ia (&pSrc);
 182:.\DSP\Source\ComplexMathFunctions/arm_cmplx_mag_q15.c ****     acc0 = __SMUAD(in, in);
 183:.\DSP\Source\ComplexMathFunctions/arm_cmplx_mag_q15.c ****     arm_sqrt_q31(acc0  >> 1 , &res);
 184:.\DSP\Source\ComplexMathFunctions/arm_cmplx_mag_q15.c ****     *pDst++ = res >> 16;
 185:.\DSP\Source\ComplexMathFunctions/arm_cmplx_mag_q15.c **** 
 186:.\DSP\Source\ComplexMathFunctions/arm_cmplx_mag_q15.c ****     in = read_q15x2_ia (&pSrc);
ARM GAS  C:\Users\IVYLIU~1\AppData\Local\Temp\ccltE1I3.s 			page 5


 187:.\DSP\Source\ComplexMathFunctions/arm_cmplx_mag_q15.c ****     acc0 = __SMUAD(in, in);
 188:.\DSP\Source\ComplexMathFunctions/arm_cmplx_mag_q15.c ****     arm_sqrt_q31(acc0  >> 1 , &res);
 189:.\DSP\Source\ComplexMathFunctions/arm_cmplx_mag_q15.c ****     *pDst++ = res >> 16;
 190:.\DSP\Source\ComplexMathFunctions/arm_cmplx_mag_q15.c **** #else
 191:.\DSP\Source\ComplexMathFunctions/arm_cmplx_mag_q15.c ****     real = *pSrc++;
 192:.\DSP\Source\ComplexMathFunctions/arm_cmplx_mag_q15.c ****     imag = *pSrc++;
 193:.\DSP\Source\ComplexMathFunctions/arm_cmplx_mag_q15.c ****     acc0 = ((q31_t) real * real);
 194:.\DSP\Source\ComplexMathFunctions/arm_cmplx_mag_q15.c ****     acc1 = ((q31_t) imag * imag);
 195:.\DSP\Source\ComplexMathFunctions/arm_cmplx_mag_q15.c **** 
 196:.\DSP\Source\ComplexMathFunctions/arm_cmplx_mag_q15.c ****     /* store result in 2.14 format in destination buffer. */
 197:.\DSP\Source\ComplexMathFunctions/arm_cmplx_mag_q15.c ****     arm_sqrt_q31((acc0 + acc1) >> 1 , &res);
 198:.\DSP\Source\ComplexMathFunctions/arm_cmplx_mag_q15.c ****     *pDst++ = res >> 16;
 199:.\DSP\Source\ComplexMathFunctions/arm_cmplx_mag_q15.c **** 
 200:.\DSP\Source\ComplexMathFunctions/arm_cmplx_mag_q15.c ****     real = *pSrc++;
 201:.\DSP\Source\ComplexMathFunctions/arm_cmplx_mag_q15.c ****     imag = *pSrc++;
 202:.\DSP\Source\ComplexMathFunctions/arm_cmplx_mag_q15.c ****     acc0 = ((q31_t) real * real);
 203:.\DSP\Source\ComplexMathFunctions/arm_cmplx_mag_q15.c ****     acc1 = ((q31_t) imag * imag);
 204:.\DSP\Source\ComplexMathFunctions/arm_cmplx_mag_q15.c ****     arm_sqrt_q31((acc0 + acc1) >> 1 , &res);
 205:.\DSP\Source\ComplexMathFunctions/arm_cmplx_mag_q15.c ****     *pDst++ = res >> 16;
 206:.\DSP\Source\ComplexMathFunctions/arm_cmplx_mag_q15.c **** 
 207:.\DSP\Source\ComplexMathFunctions/arm_cmplx_mag_q15.c ****     real = *pSrc++;
 208:.\DSP\Source\ComplexMathFunctions/arm_cmplx_mag_q15.c ****     imag = *pSrc++;
 209:.\DSP\Source\ComplexMathFunctions/arm_cmplx_mag_q15.c ****     acc0 = ((q31_t) real * real);
 210:.\DSP\Source\ComplexMathFunctions/arm_cmplx_mag_q15.c ****     acc1 = ((q31_t) imag * imag);
 211:.\DSP\Source\ComplexMathFunctions/arm_cmplx_mag_q15.c ****     arm_sqrt_q31((acc0 + acc1) >> 1 , &res);
 212:.\DSP\Source\ComplexMathFunctions/arm_cmplx_mag_q15.c ****     *pDst++ = res >> 16;
 213:.\DSP\Source\ComplexMathFunctions/arm_cmplx_mag_q15.c **** 
 214:.\DSP\Source\ComplexMathFunctions/arm_cmplx_mag_q15.c ****     real = *pSrc++;
 215:.\DSP\Source\ComplexMathFunctions/arm_cmplx_mag_q15.c ****     imag = *pSrc++;
 216:.\DSP\Source\ComplexMathFunctions/arm_cmplx_mag_q15.c ****     acc0 = ((q31_t) real * real);
 217:.\DSP\Source\ComplexMathFunctions/arm_cmplx_mag_q15.c ****     acc1 = ((q31_t) imag * imag);
 218:.\DSP\Source\ComplexMathFunctions/arm_cmplx_mag_q15.c ****     arm_sqrt_q31((acc0 + acc1) >> 1 , &res);
 219:.\DSP\Source\ComplexMathFunctions/arm_cmplx_mag_q15.c ****     *pDst++ = res >> 16;
 220:.\DSP\Source\ComplexMathFunctions/arm_cmplx_mag_q15.c **** #endif /* #if defined (ARM_MATH_DSP) */
 221:.\DSP\Source\ComplexMathFunctions/arm_cmplx_mag_q15.c **** 
 222:.\DSP\Source\ComplexMathFunctions/arm_cmplx_mag_q15.c ****     /* Decrement loop counter */
 223:.\DSP\Source\ComplexMathFunctions/arm_cmplx_mag_q15.c ****     blkCnt--;
 224:.\DSP\Source\ComplexMathFunctions/arm_cmplx_mag_q15.c ****   }
 225:.\DSP\Source\ComplexMathFunctions/arm_cmplx_mag_q15.c **** 
 226:.\DSP\Source\ComplexMathFunctions/arm_cmplx_mag_q15.c ****   /* Loop unrolling: Compute remaining outputs */
 227:.\DSP\Source\ComplexMathFunctions/arm_cmplx_mag_q15.c ****   blkCnt = numSamples % 0x4U;
 228:.\DSP\Source\ComplexMathFunctions/arm_cmplx_mag_q15.c **** 
 229:.\DSP\Source\ComplexMathFunctions/arm_cmplx_mag_q15.c **** #else
 230:.\DSP\Source\ComplexMathFunctions/arm_cmplx_mag_q15.c **** 
 231:.\DSP\Source\ComplexMathFunctions/arm_cmplx_mag_q15.c ****   /* Initialize blkCnt with number of samples */
 232:.\DSP\Source\ComplexMathFunctions/arm_cmplx_mag_q15.c ****   blkCnt = numSamples;
 233:.\DSP\Source\ComplexMathFunctions/arm_cmplx_mag_q15.c **** 
 234:.\DSP\Source\ComplexMathFunctions/arm_cmplx_mag_q15.c **** #endif /* #if defined (ARM_MATH_LOOPUNROLL) */
 235:.\DSP\Source\ComplexMathFunctions/arm_cmplx_mag_q15.c **** 
 236:.\DSP\Source\ComplexMathFunctions/arm_cmplx_mag_q15.c ****   while (blkCnt > 0U)
  43              		.loc 1 236 0
  44 0008 12E0     		b	.L2
  45              	.LVL2:
  46              	.L3:
 237:.\DSP\Source\ComplexMathFunctions/arm_cmplx_mag_q15.c ****   {
 238:.\DSP\Source\ComplexMathFunctions/arm_cmplx_mag_q15.c ****     /* C[0] = sqrt(A[0] * A[0] + A[1] * A[1]) */
 239:.\DSP\Source\ComplexMathFunctions/arm_cmplx_mag_q15.c **** 
ARM GAS  C:\Users\IVYLIU~1\AppData\Local\Temp\ccltE1I3.s 			page 6


 240:.\DSP\Source\ComplexMathFunctions/arm_cmplx_mag_q15.c **** #if defined (ARM_MATH_DSP)
 241:.\DSP\Source\ComplexMathFunctions/arm_cmplx_mag_q15.c ****     in = read_q15x2_ia (&pSrc);
 242:.\DSP\Source\ComplexMathFunctions/arm_cmplx_mag_q15.c ****     acc0 = __SMUAD(in, in);
 243:.\DSP\Source\ComplexMathFunctions/arm_cmplx_mag_q15.c **** 
 244:.\DSP\Source\ComplexMathFunctions/arm_cmplx_mag_q15.c ****     /* store result in 2.14 format in destination buffer. */
 245:.\DSP\Source\ComplexMathFunctions/arm_cmplx_mag_q15.c ****     arm_sqrt_q31(acc0  >> 1 , &res);
 246:.\DSP\Source\ComplexMathFunctions/arm_cmplx_mag_q15.c ****     *pDst++ = res >> 16;
 247:.\DSP\Source\ComplexMathFunctions/arm_cmplx_mag_q15.c **** #else
 248:.\DSP\Source\ComplexMathFunctions/arm_cmplx_mag_q15.c ****     real = *pSrc++;
  47              		.loc 1 248 0
  48 000a 0446     		mov	r4, r0
  49              	.LVL3:
 249:.\DSP\Source\ComplexMathFunctions/arm_cmplx_mag_q15.c ****     imag = *pSrc++;
 250:.\DSP\Source\ComplexMathFunctions/arm_cmplx_mag_q15.c ****     acc0 = ((q31_t) real * real);
  50              		.loc 1 250 0
  51 000c 34F9043B 		ldrsh	r3, [r4], #4
  52              	.LVL4:
 251:.\DSP\Source\ComplexMathFunctions/arm_cmplx_mag_q15.c ****     acc1 = ((q31_t) imag * imag);
  53              		.loc 1 251 0
  54 0010 B0F90200 		ldrsh	r0, [r0, #2]
  55              	.LVL5:
  56 0014 00FB00F0 		mul	r0, r0, r0
  57              	.LVL6:
 252:.\DSP\Source\ComplexMathFunctions/arm_cmplx_mag_q15.c **** 
 253:.\DSP\Source\ComplexMathFunctions/arm_cmplx_mag_q15.c ****     /* store result in 2.14 format in destination buffer. */
 254:.\DSP\Source\ComplexMathFunctions/arm_cmplx_mag_q15.c ****     arm_sqrt_q31((acc0 + acc1) >> 1 , &res);
  58              		.loc 1 254 0
  59 0018 03FB0300 		mla	r0, r3, r3, r0
  60              	.LVL7:
  61 001c 4010     		asrs	r0, r0, #1
  62 001e 01A9     		add	r1, sp, #4
  63 0020 FFF7FEFF 		bl	arm_sqrt_q31
  64              	.LVL8:
 255:.\DSP\Source\ComplexMathFunctions/arm_cmplx_mag_q15.c ****     *pDst++ = res >> 16;
  65              		.loc 1 255 0
  66 0024 BDF90630 		ldrsh	r3, [sp, #6]
  67 0028 3380     		strh	r3, [r6]	@ movhi
 256:.\DSP\Source\ComplexMathFunctions/arm_cmplx_mag_q15.c ****  
 257:.\DSP\Source\ComplexMathFunctions/arm_cmplx_mag_q15.c **** #endif
 258:.\DSP\Source\ComplexMathFunctions/arm_cmplx_mag_q15.c **** 
 259:.\DSP\Source\ComplexMathFunctions/arm_cmplx_mag_q15.c ****     /* Decrement loop counter */
 260:.\DSP\Source\ComplexMathFunctions/arm_cmplx_mag_q15.c ****     blkCnt--;
  68              		.loc 1 260 0
  69 002a 013D     		subs	r5, r5, #1
  70              	.LVL9:
 255:.\DSP\Source\ComplexMathFunctions/arm_cmplx_mag_q15.c ****     *pDst++ = res >> 16;
  71              		.loc 1 255 0
  72 002c 0236     		adds	r6, r6, #2
  73              	.LVL10:
 249:.\DSP\Source\ComplexMathFunctions/arm_cmplx_mag_q15.c ****     acc0 = ((q31_t) real * real);
  74              		.loc 1 249 0
  75 002e 2046     		mov	r0, r4
  76              	.LVL11:
  77              	.L2:
 236:.\DSP\Source\ComplexMathFunctions/arm_cmplx_mag_q15.c ****   {
  78              		.loc 1 236 0
  79 0030 002D     		cmp	r5, #0
ARM GAS  C:\Users\IVYLIU~1\AppData\Local\Temp\ccltE1I3.s 			page 7


  80 0032 EAD1     		bne	.L3
 261:.\DSP\Source\ComplexMathFunctions/arm_cmplx_mag_q15.c ****   }
 262:.\DSP\Source\ComplexMathFunctions/arm_cmplx_mag_q15.c **** 
 263:.\DSP\Source\ComplexMathFunctions/arm_cmplx_mag_q15.c **** }
  81              		.loc 1 263 0
  82 0034 02B0     		add	sp, sp, #8
  83              		.cfi_def_cfa_offset 16
  84              		@ sp needed
  85 0036 70BD     		pop	{r4, r5, r6, pc}
  86              		.cfi_endproc
  87              	.LFE84:
  88              		.size	arm_cmplx_mag_q15, .-arm_cmplx_mag_q15
  89              		.text
  90              	.Letext0:
  91              		.file 2 "c:\\program files (x86)\\cypress\\psoc creator\\3.3\\psoc creator\\import\\gnu\\arm\\4.9.
  92              		.file 3 "c:\\program files (x86)\\cypress\\psoc creator\\3.3\\psoc creator\\import\\gnu\\arm\\4.9.
  93              		.file 4 ".\\DSP\\Include/arm_math_types.h"
  94              		.file 5 ".\\Core\\Include/cmsis_gcc.h"
  95              		.file 6 ".\\DSP\\Include/dsp/fast_math_functions.h"