ARM GAS  C:\Users\IVYLIU~1\AppData\Local\Temp\ccvELiNl.s 			page 1


   1              		.syntax unified
   2              		.cpu cortex-m3
   3              		.fpu softvfp
   4              		.eabi_attribute 20, 1
   5              		.eabi_attribute 21, 1
   6              		.eabi_attribute 23, 3
   7              		.eabi_attribute 24, 1
   8              		.eabi_attribute 25, 1
   9              		.eabi_attribute 26, 1
  10              		.eabi_attribute 30, 1
  11              		.eabi_attribute 34, 1
  12              		.eabi_attribute 18, 4
  13              		.thumb
  14              		.file	"arm_cmplx_dot_prod_q15.c"
  15              		.text
  16              	.Ltext0:
  17              		.cfi_sections	.debug_frame
  18              		.section	.text.arm_cmplx_dot_prod_q15,"ax",%progbits
  19              		.align	2
  20              		.global	arm_cmplx_dot_prod_q15
  21              		.thumb
  22              		.thumb_func
  23              		.type	arm_cmplx_dot_prod_q15, %function
  24              	arm_cmplx_dot_prod_q15:
  25              	.LFB84:
  26              		.file 1 ".\\DSP\\Source\\ComplexMathFunctions\\arm_cmplx_dot_prod_q15.c"
   1:.\DSP\Source\ComplexMathFunctions/arm_cmplx_dot_prod_q15.c **** /* ----------------------------------------------------------------------
   2:.\DSP\Source\ComplexMathFunctions/arm_cmplx_dot_prod_q15.c ****  * Project:      CMSIS DSP Library
   3:.\DSP\Source\ComplexMathFunctions/arm_cmplx_dot_prod_q15.c ****  * Title:        arm_cmplx_dot_prod_q15.c
   4:.\DSP\Source\ComplexMathFunctions/arm_cmplx_dot_prod_q15.c ****  * Description:  Processing function for the Q15 Complex Dot product
   5:.\DSP\Source\ComplexMathFunctions/arm_cmplx_dot_prod_q15.c ****  *
   6:.\DSP\Source\ComplexMathFunctions/arm_cmplx_dot_prod_q15.c ****  * $Date:        23 April 2021
   7:.\DSP\Source\ComplexMathFunctions/arm_cmplx_dot_prod_q15.c ****  * $Revision:    V1.9.0
   8:.\DSP\Source\ComplexMathFunctions/arm_cmplx_dot_prod_q15.c ****  *
   9:.\DSP\Source\ComplexMathFunctions/arm_cmplx_dot_prod_q15.c ****  * Target Processor: Cortex-M and Cortex-A cores
  10:.\DSP\Source\ComplexMathFunctions/arm_cmplx_dot_prod_q15.c ****  * -------------------------------------------------------------------- */
  11:.\DSP\Source\ComplexMathFunctions/arm_cmplx_dot_prod_q15.c **** /*
  12:.\DSP\Source\ComplexMathFunctions/arm_cmplx_dot_prod_q15.c ****  * Copyright (C) 2010-2021 ARM Limited or its affiliates. All rights reserved.
  13:.\DSP\Source\ComplexMathFunctions/arm_cmplx_dot_prod_q15.c ****  *
  14:.\DSP\Source\ComplexMathFunctions/arm_cmplx_dot_prod_q15.c ****  * SPDX-License-Identifier: Apache-2.0
  15:.\DSP\Source\ComplexMathFunctions/arm_cmplx_dot_prod_q15.c ****  *
  16:.\DSP\Source\ComplexMathFunctions/arm_cmplx_dot_prod_q15.c ****  * Licensed under the Apache License, Version 2.0 (the License); you may
  17:.\DSP\Source\ComplexMathFunctions/arm_cmplx_dot_prod_q15.c ****  * not use this file except in compliance with the License.
  18:.\DSP\Source\ComplexMathFunctions/arm_cmplx_dot_prod_q15.c ****  * You may obtain a copy of the License at
  19:.\DSP\Source\ComplexMathFunctions/arm_cmplx_dot_prod_q15.c ****  *
  20:.\DSP\Source\ComplexMathFunctions/arm_cmplx_dot_prod_q15.c ****  * www.apache.org/licenses/LICENSE-2.0
  21:.\DSP\Source\ComplexMathFunctions/arm_cmplx_dot_prod_q15.c ****  *
  22:.\DSP\Source\ComplexMathFunctions/arm_cmplx_dot_prod_q15.c ****  * Unless required by applicable law or agreed to in writing, software
  23:.\DSP\Source\ComplexMathFunctions/arm_cmplx_dot_prod_q15.c ****  * distributed under the License is distributed on an AS IS BASIS, WITHOUT
  24:.\DSP\Source\ComplexMathFunctions/arm_cmplx_dot_prod_q15.c ****  * WARRANTIES OR CONDITIONS OF ANY KIND, either express or implied.
  25:.\DSP\Source\ComplexMathFunctions/arm_cmplx_dot_prod_q15.c ****  * See the License for the specific language governing permissions and
  26:.\DSP\Source\ComplexMathFunctions/arm_cmplx_dot_prod_q15.c ****  * limitations under the License.
  27:.\DSP\Source\ComplexMathFunctions/arm_cmplx_dot_prod_q15.c ****  */
  28:.\DSP\Source\ComplexMathFunctions/arm_cmplx_dot_prod_q15.c **** 
  29:.\DSP\Source\ComplexMathFunctions/arm_cmplx_dot_prod_q15.c **** #include "dsp/complex_math_functions.h"
  30:.\DSP\Source\ComplexMathFunctions/arm_cmplx_dot_prod_q15.c **** 
  31:.\DSP\Source\ComplexMathFunctions/arm_cmplx_dot_prod_q15.c **** /**
ARM GAS  C:\Users\IVYLIU~1\AppData\Local\Temp\ccvELiNl.s 			page 2


  32:.\DSP\Source\ComplexMathFunctions/arm_cmplx_dot_prod_q15.c ****   @ingroup groupCmplxMath
  33:.\DSP\Source\ComplexMathFunctions/arm_cmplx_dot_prod_q15.c ****  */
  34:.\DSP\Source\ComplexMathFunctions/arm_cmplx_dot_prod_q15.c **** 
  35:.\DSP\Source\ComplexMathFunctions/arm_cmplx_dot_prod_q15.c **** /**
  36:.\DSP\Source\ComplexMathFunctions/arm_cmplx_dot_prod_q15.c ****   @addtogroup cmplx_dot_prod
  37:.\DSP\Source\ComplexMathFunctions/arm_cmplx_dot_prod_q15.c ****   @{
  38:.\DSP\Source\ComplexMathFunctions/arm_cmplx_dot_prod_q15.c ****  */
  39:.\DSP\Source\ComplexMathFunctions/arm_cmplx_dot_prod_q15.c **** 
  40:.\DSP\Source\ComplexMathFunctions/arm_cmplx_dot_prod_q15.c **** /**
  41:.\DSP\Source\ComplexMathFunctions/arm_cmplx_dot_prod_q15.c ****   @brief         Q15 complex dot product.
  42:.\DSP\Source\ComplexMathFunctions/arm_cmplx_dot_prod_q15.c ****   @param[in]     pSrcA       points to the first input vector
  43:.\DSP\Source\ComplexMathFunctions/arm_cmplx_dot_prod_q15.c ****   @param[in]     pSrcB       points to the second input vector
  44:.\DSP\Source\ComplexMathFunctions/arm_cmplx_dot_prod_q15.c ****   @param[in]     numSamples  number of samples in each vector
  45:.\DSP\Source\ComplexMathFunctions/arm_cmplx_dot_prod_q15.c ****   @param[out]    realResult  real part of the result returned here
  46:.\DSP\Source\ComplexMathFunctions/arm_cmplx_dot_prod_q15.c ****   @param[out]    imagResult  imaginary part of the result returned her
  47:.\DSP\Source\ComplexMathFunctions/arm_cmplx_dot_prod_q15.c ****   @return        none
  48:.\DSP\Source\ComplexMathFunctions/arm_cmplx_dot_prod_q15.c **** 
  49:.\DSP\Source\ComplexMathFunctions/arm_cmplx_dot_prod_q15.c ****   @par           Scaling and Overflow Behavior
  50:.\DSP\Source\ComplexMathFunctions/arm_cmplx_dot_prod_q15.c ****                    The function is implemented using an internal 64-bit accumulator.
  51:.\DSP\Source\ComplexMathFunctions/arm_cmplx_dot_prod_q15.c ****                    The intermediate 1.15 by 1.15 multiplications are performed with full precision 
  52:.\DSP\Source\ComplexMathFunctions/arm_cmplx_dot_prod_q15.c ****                    These are accumulated in a 64-bit accumulator with 34.30 precision.
  53:.\DSP\Source\ComplexMathFunctions/arm_cmplx_dot_prod_q15.c ****                    As a final step, the accumulators are converted to 8.24 format.
  54:.\DSP\Source\ComplexMathFunctions/arm_cmplx_dot_prod_q15.c ****                    The return results <code>realResult</code> and <code>imagResult</code> are in 8.
  55:.\DSP\Source\ComplexMathFunctions/arm_cmplx_dot_prod_q15.c ****  */
  56:.\DSP\Source\ComplexMathFunctions/arm_cmplx_dot_prod_q15.c **** 
  57:.\DSP\Source\ComplexMathFunctions/arm_cmplx_dot_prod_q15.c **** #if defined(ARM_MATH_MVEI) && !defined(ARM_MATH_AUTOVECTORIZE)
  58:.\DSP\Source\ComplexMathFunctions/arm_cmplx_dot_prod_q15.c **** void arm_cmplx_dot_prod_q15(
  59:.\DSP\Source\ComplexMathFunctions/arm_cmplx_dot_prod_q15.c ****   const q15_t * pSrcA,
  60:.\DSP\Source\ComplexMathFunctions/arm_cmplx_dot_prod_q15.c ****   const q15_t * pSrcB,
  61:.\DSP\Source\ComplexMathFunctions/arm_cmplx_dot_prod_q15.c ****         uint32_t numSamples,
  62:.\DSP\Source\ComplexMathFunctions/arm_cmplx_dot_prod_q15.c ****         q31_t * realResult,
  63:.\DSP\Source\ComplexMathFunctions/arm_cmplx_dot_prod_q15.c ****         q31_t * imagResult)
  64:.\DSP\Source\ComplexMathFunctions/arm_cmplx_dot_prod_q15.c **** {
  65:.\DSP\Source\ComplexMathFunctions/arm_cmplx_dot_prod_q15.c ****     int32_t         blkCnt;
  66:.\DSP\Source\ComplexMathFunctions/arm_cmplx_dot_prod_q15.c ****     q63_t           accReal = 0LL;
  67:.\DSP\Source\ComplexMathFunctions/arm_cmplx_dot_prod_q15.c ****     q63_t           accImag = 0LL;
  68:.\DSP\Source\ComplexMathFunctions/arm_cmplx_dot_prod_q15.c ****     q15x8_t         vecSrcA, vecSrcB;
  69:.\DSP\Source\ComplexMathFunctions/arm_cmplx_dot_prod_q15.c ****     q15x8_t         vecSrcC, vecSrcD;
  70:.\DSP\Source\ComplexMathFunctions/arm_cmplx_dot_prod_q15.c **** 
  71:.\DSP\Source\ComplexMathFunctions/arm_cmplx_dot_prod_q15.c ****     blkCnt = (numSamples >> 3);
  72:.\DSP\Source\ComplexMathFunctions/arm_cmplx_dot_prod_q15.c ****     blkCnt -= 1;
  73:.\DSP\Source\ComplexMathFunctions/arm_cmplx_dot_prod_q15.c ****     if (blkCnt > 0) {
  74:.\DSP\Source\ComplexMathFunctions/arm_cmplx_dot_prod_q15.c ****         /* should give more freedom to generate stall free code */
  75:.\DSP\Source\ComplexMathFunctions/arm_cmplx_dot_prod_q15.c ****         vecSrcA = vld1q(pSrcA);
  76:.\DSP\Source\ComplexMathFunctions/arm_cmplx_dot_prod_q15.c ****         vecSrcB = vld1q(pSrcB);
  77:.\DSP\Source\ComplexMathFunctions/arm_cmplx_dot_prod_q15.c ****         pSrcA += 8;
  78:.\DSP\Source\ComplexMathFunctions/arm_cmplx_dot_prod_q15.c ****         pSrcB += 8;
  79:.\DSP\Source\ComplexMathFunctions/arm_cmplx_dot_prod_q15.c **** 
  80:.\DSP\Source\ComplexMathFunctions/arm_cmplx_dot_prod_q15.c ****         while (blkCnt > 0) {
  81:.\DSP\Source\ComplexMathFunctions/arm_cmplx_dot_prod_q15.c **** 
  82:.\DSP\Source\ComplexMathFunctions/arm_cmplx_dot_prod_q15.c ****             accReal = vmlsldavaq(accReal, vecSrcA, vecSrcB);
  83:.\DSP\Source\ComplexMathFunctions/arm_cmplx_dot_prod_q15.c ****             vecSrcC = vld1q(pSrcA);
  84:.\DSP\Source\ComplexMathFunctions/arm_cmplx_dot_prod_q15.c ****             pSrcA += 8;
  85:.\DSP\Source\ComplexMathFunctions/arm_cmplx_dot_prod_q15.c **** 
  86:.\DSP\Source\ComplexMathFunctions/arm_cmplx_dot_prod_q15.c ****             accImag = vmlaldavaxq(accImag, vecSrcA, vecSrcB);
  87:.\DSP\Source\ComplexMathFunctions/arm_cmplx_dot_prod_q15.c ****             vecSrcD = vld1q(pSrcB);
  88:.\DSP\Source\ComplexMathFunctions/arm_cmplx_dot_prod_q15.c ****             pSrcB += 8;
ARM GAS  C:\Users\IVYLIU~1\AppData\Local\Temp\ccvELiNl.s 			page 3


  89:.\DSP\Source\ComplexMathFunctions/arm_cmplx_dot_prod_q15.c **** 
  90:.\DSP\Source\ComplexMathFunctions/arm_cmplx_dot_prod_q15.c ****             accReal = vmlsldavaq(accReal, vecSrcC, vecSrcD);
  91:.\DSP\Source\ComplexMathFunctions/arm_cmplx_dot_prod_q15.c ****             vecSrcA = vld1q(pSrcA);
  92:.\DSP\Source\ComplexMathFunctions/arm_cmplx_dot_prod_q15.c ****             pSrcA += 8;
  93:.\DSP\Source\ComplexMathFunctions/arm_cmplx_dot_prod_q15.c **** 
  94:.\DSP\Source\ComplexMathFunctions/arm_cmplx_dot_prod_q15.c ****             accImag = vmlaldavaxq(accImag, vecSrcC, vecSrcD);
  95:.\DSP\Source\ComplexMathFunctions/arm_cmplx_dot_prod_q15.c ****             vecSrcB = vld1q(pSrcB);
  96:.\DSP\Source\ComplexMathFunctions/arm_cmplx_dot_prod_q15.c ****             pSrcB += 8;
  97:.\DSP\Source\ComplexMathFunctions/arm_cmplx_dot_prod_q15.c ****             /*
  98:.\DSP\Source\ComplexMathFunctions/arm_cmplx_dot_prod_q15.c ****              * Decrement the blockSize loop counter
  99:.\DSP\Source\ComplexMathFunctions/arm_cmplx_dot_prod_q15.c ****              */
 100:.\DSP\Source\ComplexMathFunctions/arm_cmplx_dot_prod_q15.c ****             blkCnt--;
 101:.\DSP\Source\ComplexMathFunctions/arm_cmplx_dot_prod_q15.c ****         }
 102:.\DSP\Source\ComplexMathFunctions/arm_cmplx_dot_prod_q15.c **** 
 103:.\DSP\Source\ComplexMathFunctions/arm_cmplx_dot_prod_q15.c ****         /* process last elements out of the loop avoid the armclang breaking the SW pipeline */
 104:.\DSP\Source\ComplexMathFunctions/arm_cmplx_dot_prod_q15.c ****         accReal = vmlsldavaq(accReal, vecSrcA, vecSrcB);
 105:.\DSP\Source\ComplexMathFunctions/arm_cmplx_dot_prod_q15.c ****         vecSrcC = vld1q(pSrcA);
 106:.\DSP\Source\ComplexMathFunctions/arm_cmplx_dot_prod_q15.c **** 
 107:.\DSP\Source\ComplexMathFunctions/arm_cmplx_dot_prod_q15.c ****         accImag = vmlaldavaxq(accImag, vecSrcA, vecSrcB);
 108:.\DSP\Source\ComplexMathFunctions/arm_cmplx_dot_prod_q15.c ****         vecSrcD = vld1q(pSrcB);
 109:.\DSP\Source\ComplexMathFunctions/arm_cmplx_dot_prod_q15.c **** 
 110:.\DSP\Source\ComplexMathFunctions/arm_cmplx_dot_prod_q15.c ****         accReal = vmlsldavaq(accReal, vecSrcC, vecSrcD);
 111:.\DSP\Source\ComplexMathFunctions/arm_cmplx_dot_prod_q15.c ****         vecSrcA = vld1q(pSrcA);
 112:.\DSP\Source\ComplexMathFunctions/arm_cmplx_dot_prod_q15.c **** 
 113:.\DSP\Source\ComplexMathFunctions/arm_cmplx_dot_prod_q15.c ****         accImag = vmlaldavaxq(accImag, vecSrcC, vecSrcD);
 114:.\DSP\Source\ComplexMathFunctions/arm_cmplx_dot_prod_q15.c ****         vecSrcB = vld1q(pSrcB);
 115:.\DSP\Source\ComplexMathFunctions/arm_cmplx_dot_prod_q15.c **** 
 116:.\DSP\Source\ComplexMathFunctions/arm_cmplx_dot_prod_q15.c ****         /*
 117:.\DSP\Source\ComplexMathFunctions/arm_cmplx_dot_prod_q15.c ****          * tail
 118:.\DSP\Source\ComplexMathFunctions/arm_cmplx_dot_prod_q15.c ****          */
 119:.\DSP\Source\ComplexMathFunctions/arm_cmplx_dot_prod_q15.c ****         blkCnt = CMPLX_DIM * (numSamples & 7);
 120:.\DSP\Source\ComplexMathFunctions/arm_cmplx_dot_prod_q15.c ****         do {
 121:.\DSP\Source\ComplexMathFunctions/arm_cmplx_dot_prod_q15.c ****             mve_pred16_t    p = vctp16q(blkCnt);
 122:.\DSP\Source\ComplexMathFunctions/arm_cmplx_dot_prod_q15.c **** 
 123:.\DSP\Source\ComplexMathFunctions/arm_cmplx_dot_prod_q15.c ****             pSrcA += 8;
 124:.\DSP\Source\ComplexMathFunctions/arm_cmplx_dot_prod_q15.c ****             pSrcB += 8;
 125:.\DSP\Source\ComplexMathFunctions/arm_cmplx_dot_prod_q15.c **** 
 126:.\DSP\Source\ComplexMathFunctions/arm_cmplx_dot_prod_q15.c ****             vecSrcA = vldrhq_z_s16(pSrcA, p);
 127:.\DSP\Source\ComplexMathFunctions/arm_cmplx_dot_prod_q15.c ****             vecSrcB = vldrhq_z_s16(pSrcB, p);
 128:.\DSP\Source\ComplexMathFunctions/arm_cmplx_dot_prod_q15.c **** 
 129:.\DSP\Source\ComplexMathFunctions/arm_cmplx_dot_prod_q15.c ****             accReal = vmlsldavaq_p(accReal, vecSrcA, vecSrcB, p);
 130:.\DSP\Source\ComplexMathFunctions/arm_cmplx_dot_prod_q15.c ****             accImag = vmlaldavaxq_p(accImag, vecSrcA, vecSrcB, p);
 131:.\DSP\Source\ComplexMathFunctions/arm_cmplx_dot_prod_q15.c **** 
 132:.\DSP\Source\ComplexMathFunctions/arm_cmplx_dot_prod_q15.c ****             blkCnt -= 8;
 133:.\DSP\Source\ComplexMathFunctions/arm_cmplx_dot_prod_q15.c ****         }
 134:.\DSP\Source\ComplexMathFunctions/arm_cmplx_dot_prod_q15.c ****         while ((int32_t) blkCnt > 0);
 135:.\DSP\Source\ComplexMathFunctions/arm_cmplx_dot_prod_q15.c ****     } else {
 136:.\DSP\Source\ComplexMathFunctions/arm_cmplx_dot_prod_q15.c ****         blkCnt = numSamples * CMPLX_DIM;
 137:.\DSP\Source\ComplexMathFunctions/arm_cmplx_dot_prod_q15.c ****         while (blkCnt > 0) {
 138:.\DSP\Source\ComplexMathFunctions/arm_cmplx_dot_prod_q15.c ****             mve_pred16_t    p = vctp16q(blkCnt);
 139:.\DSP\Source\ComplexMathFunctions/arm_cmplx_dot_prod_q15.c **** 
 140:.\DSP\Source\ComplexMathFunctions/arm_cmplx_dot_prod_q15.c ****             vecSrcA = vldrhq_z_s16(pSrcA, p);
 141:.\DSP\Source\ComplexMathFunctions/arm_cmplx_dot_prod_q15.c ****             vecSrcB = vldrhq_z_s16(pSrcB, p);
 142:.\DSP\Source\ComplexMathFunctions/arm_cmplx_dot_prod_q15.c **** 
 143:.\DSP\Source\ComplexMathFunctions/arm_cmplx_dot_prod_q15.c ****             accReal = vmlsldavaq_p(accReal, vecSrcA, vecSrcB, p);
 144:.\DSP\Source\ComplexMathFunctions/arm_cmplx_dot_prod_q15.c ****             accImag = vmlaldavaxq_p(accImag, vecSrcA, vecSrcB, p);
 145:.\DSP\Source\ComplexMathFunctions/arm_cmplx_dot_prod_q15.c **** 
ARM GAS  C:\Users\IVYLIU~1\AppData\Local\Temp\ccvELiNl.s 			page 4


 146:.\DSP\Source\ComplexMathFunctions/arm_cmplx_dot_prod_q15.c ****             /*
 147:.\DSP\Source\ComplexMathFunctions/arm_cmplx_dot_prod_q15.c ****              * Decrement the blkCnt loop counter
 148:.\DSP\Source\ComplexMathFunctions/arm_cmplx_dot_prod_q15.c ****              * Advance vector source and destination pointers
 149:.\DSP\Source\ComplexMathFunctions/arm_cmplx_dot_prod_q15.c ****              */
 150:.\DSP\Source\ComplexMathFunctions/arm_cmplx_dot_prod_q15.c ****             pSrcA += 8;
 151:.\DSP\Source\ComplexMathFunctions/arm_cmplx_dot_prod_q15.c ****             pSrcB += 8;
 152:.\DSP\Source\ComplexMathFunctions/arm_cmplx_dot_prod_q15.c ****             blkCnt -= 8;
 153:.\DSP\Source\ComplexMathFunctions/arm_cmplx_dot_prod_q15.c ****         }
 154:.\DSP\Source\ComplexMathFunctions/arm_cmplx_dot_prod_q15.c ****     }
 155:.\DSP\Source\ComplexMathFunctions/arm_cmplx_dot_prod_q15.c ****     *realResult = asrl(accReal, (14 - 8));
 156:.\DSP\Source\ComplexMathFunctions/arm_cmplx_dot_prod_q15.c ****     *imagResult = asrl(accImag, (14 - 8));
 157:.\DSP\Source\ComplexMathFunctions/arm_cmplx_dot_prod_q15.c **** }
 158:.\DSP\Source\ComplexMathFunctions/arm_cmplx_dot_prod_q15.c **** #else
 159:.\DSP\Source\ComplexMathFunctions/arm_cmplx_dot_prod_q15.c **** void arm_cmplx_dot_prod_q15(
 160:.\DSP\Source\ComplexMathFunctions/arm_cmplx_dot_prod_q15.c ****   const q15_t * pSrcA,
 161:.\DSP\Source\ComplexMathFunctions/arm_cmplx_dot_prod_q15.c ****   const q15_t * pSrcB,
 162:.\DSP\Source\ComplexMathFunctions/arm_cmplx_dot_prod_q15.c ****         uint32_t numSamples,
 163:.\DSP\Source\ComplexMathFunctions/arm_cmplx_dot_prod_q15.c ****         q31_t * realResult,
 164:.\DSP\Source\ComplexMathFunctions/arm_cmplx_dot_prod_q15.c ****         q31_t * imagResult)
 165:.\DSP\Source\ComplexMathFunctions/arm_cmplx_dot_prod_q15.c **** {
  27              		.loc 1 165 0
  28              		.cfi_startproc
  29              		@ args = 4, pretend = 0, frame = 0
  30              		@ frame_needed = 0, uses_anonymous_args = 0
  31              	.LVL0:
  32 0000 2DE9F047 		push	{r4, r5, r6, r7, r8, r9, r10, lr}
  33              		.cfi_def_cfa_offset 32
  34              		.cfi_offset 4, -32
  35              		.cfi_offset 5, -28
  36              		.cfi_offset 6, -24
  37              		.cfi_offset 7, -20
  38              		.cfi_offset 8, -16
  39              		.cfi_offset 9, -12
  40              		.cfi_offset 10, -8
  41              		.cfi_offset 14, -4
  42 0004 9A46     		mov	r10, r3
  43              	.LVL1:
 166:.\DSP\Source\ComplexMathFunctions/arm_cmplx_dot_prod_q15.c ****         uint32_t blkCnt;                               /* Loop counter */
 167:.\DSP\Source\ComplexMathFunctions/arm_cmplx_dot_prod_q15.c ****         q63_t real_sum = 0, imag_sum = 0;              /* Temporary result variables */
  44              		.loc 1 167 0
  45 0006 0026     		movs	r6, #0
  46 0008 0027     		movs	r7, #0
  47 000a B046     		mov	r8, r6
  48 000c B946     		mov	r9, r7
 168:.\DSP\Source\ComplexMathFunctions/arm_cmplx_dot_prod_q15.c ****         q15_t a0,b0,c0,d0;
 169:.\DSP\Source\ComplexMathFunctions/arm_cmplx_dot_prod_q15.c **** 
 170:.\DSP\Source\ComplexMathFunctions/arm_cmplx_dot_prod_q15.c **** #if defined (ARM_MATH_LOOPUNROLL)
 171:.\DSP\Source\ComplexMathFunctions/arm_cmplx_dot_prod_q15.c ****   /* Loop unrolling: Compute 4 outputs at a time */
 172:.\DSP\Source\ComplexMathFunctions/arm_cmplx_dot_prod_q15.c ****   blkCnt = numSamples >> 2U;
 173:.\DSP\Source\ComplexMathFunctions/arm_cmplx_dot_prod_q15.c **** 
 174:.\DSP\Source\ComplexMathFunctions/arm_cmplx_dot_prod_q15.c ****   while (blkCnt > 0U)
 175:.\DSP\Source\ComplexMathFunctions/arm_cmplx_dot_prod_q15.c ****   {
 176:.\DSP\Source\ComplexMathFunctions/arm_cmplx_dot_prod_q15.c ****     a0 = *pSrcA++;
 177:.\DSP\Source\ComplexMathFunctions/arm_cmplx_dot_prod_q15.c ****     b0 = *pSrcA++;
 178:.\DSP\Source\ComplexMathFunctions/arm_cmplx_dot_prod_q15.c ****     c0 = *pSrcB++;
 179:.\DSP\Source\ComplexMathFunctions/arm_cmplx_dot_prod_q15.c ****     d0 = *pSrcB++;
 180:.\DSP\Source\ComplexMathFunctions/arm_cmplx_dot_prod_q15.c **** 
ARM GAS  C:\Users\IVYLIU~1\AppData\Local\Temp\ccvELiNl.s 			page 5


 181:.\DSP\Source\ComplexMathFunctions/arm_cmplx_dot_prod_q15.c ****     real_sum += (q31_t)a0 * c0;
 182:.\DSP\Source\ComplexMathFunctions/arm_cmplx_dot_prod_q15.c ****     imag_sum += (q31_t)a0 * d0;
 183:.\DSP\Source\ComplexMathFunctions/arm_cmplx_dot_prod_q15.c ****     real_sum -= (q31_t)b0 * d0;
 184:.\DSP\Source\ComplexMathFunctions/arm_cmplx_dot_prod_q15.c ****     imag_sum += (q31_t)b0 * c0;
 185:.\DSP\Source\ComplexMathFunctions/arm_cmplx_dot_prod_q15.c **** 
 186:.\DSP\Source\ComplexMathFunctions/arm_cmplx_dot_prod_q15.c ****     a0 = *pSrcA++;
 187:.\DSP\Source\ComplexMathFunctions/arm_cmplx_dot_prod_q15.c ****     b0 = *pSrcA++;
 188:.\DSP\Source\ComplexMathFunctions/arm_cmplx_dot_prod_q15.c ****     c0 = *pSrcB++;
 189:.\DSP\Source\ComplexMathFunctions/arm_cmplx_dot_prod_q15.c ****     d0 = *pSrcB++;
 190:.\DSP\Source\ComplexMathFunctions/arm_cmplx_dot_prod_q15.c **** 
 191:.\DSP\Source\ComplexMathFunctions/arm_cmplx_dot_prod_q15.c ****     real_sum += (q31_t)a0 * c0;
 192:.\DSP\Source\ComplexMathFunctions/arm_cmplx_dot_prod_q15.c ****     imag_sum += (q31_t)a0 * d0;
 193:.\DSP\Source\ComplexMathFunctions/arm_cmplx_dot_prod_q15.c ****     real_sum -= (q31_t)b0 * d0;
 194:.\DSP\Source\ComplexMathFunctions/arm_cmplx_dot_prod_q15.c ****     imag_sum += (q31_t)b0 * c0;
 195:.\DSP\Source\ComplexMathFunctions/arm_cmplx_dot_prod_q15.c **** 
 196:.\DSP\Source\ComplexMathFunctions/arm_cmplx_dot_prod_q15.c ****     a0 = *pSrcA++;
 197:.\DSP\Source\ComplexMathFunctions/arm_cmplx_dot_prod_q15.c ****     b0 = *pSrcA++;
 198:.\DSP\Source\ComplexMathFunctions/arm_cmplx_dot_prod_q15.c ****     c0 = *pSrcB++;
 199:.\DSP\Source\ComplexMathFunctions/arm_cmplx_dot_prod_q15.c ****     d0 = *pSrcB++;
 200:.\DSP\Source\ComplexMathFunctions/arm_cmplx_dot_prod_q15.c **** 
 201:.\DSP\Source\ComplexMathFunctions/arm_cmplx_dot_prod_q15.c ****     real_sum += (q31_t)a0 * c0;
 202:.\DSP\Source\ComplexMathFunctions/arm_cmplx_dot_prod_q15.c ****     imag_sum += (q31_t)a0 * d0;
 203:.\DSP\Source\ComplexMathFunctions/arm_cmplx_dot_prod_q15.c ****     real_sum -= (q31_t)b0 * d0;
 204:.\DSP\Source\ComplexMathFunctions/arm_cmplx_dot_prod_q15.c ****     imag_sum += (q31_t)b0 * c0;
 205:.\DSP\Source\ComplexMathFunctions/arm_cmplx_dot_prod_q15.c **** 
 206:.\DSP\Source\ComplexMathFunctions/arm_cmplx_dot_prod_q15.c ****     a0 = *pSrcA++;
 207:.\DSP\Source\ComplexMathFunctions/arm_cmplx_dot_prod_q15.c ****     b0 = *pSrcA++;
 208:.\DSP\Source\ComplexMathFunctions/arm_cmplx_dot_prod_q15.c ****     c0 = *pSrcB++;
 209:.\DSP\Source\ComplexMathFunctions/arm_cmplx_dot_prod_q15.c ****     d0 = *pSrcB++;
 210:.\DSP\Source\ComplexMathFunctions/arm_cmplx_dot_prod_q15.c **** 
 211:.\DSP\Source\ComplexMathFunctions/arm_cmplx_dot_prod_q15.c ****     real_sum += (q31_t)a0 * c0;
 212:.\DSP\Source\ComplexMathFunctions/arm_cmplx_dot_prod_q15.c ****     imag_sum += (q31_t)a0 * d0;
 213:.\DSP\Source\ComplexMathFunctions/arm_cmplx_dot_prod_q15.c ****     real_sum -= (q31_t)b0 * d0;
 214:.\DSP\Source\ComplexMathFunctions/arm_cmplx_dot_prod_q15.c ****     imag_sum += (q31_t)b0 * c0;
 215:.\DSP\Source\ComplexMathFunctions/arm_cmplx_dot_prod_q15.c **** 
 216:.\DSP\Source\ComplexMathFunctions/arm_cmplx_dot_prod_q15.c ****     /* Decrement loop counter */
 217:.\DSP\Source\ComplexMathFunctions/arm_cmplx_dot_prod_q15.c ****     blkCnt--;
 218:.\DSP\Source\ComplexMathFunctions/arm_cmplx_dot_prod_q15.c ****   }
 219:.\DSP\Source\ComplexMathFunctions/arm_cmplx_dot_prod_q15.c **** 
 220:.\DSP\Source\ComplexMathFunctions/arm_cmplx_dot_prod_q15.c ****   /* Loop unrolling: Compute remaining outputs */
 221:.\DSP\Source\ComplexMathFunctions/arm_cmplx_dot_prod_q15.c ****   blkCnt = numSamples % 0x4U;
 222:.\DSP\Source\ComplexMathFunctions/arm_cmplx_dot_prod_q15.c **** 
 223:.\DSP\Source\ComplexMathFunctions/arm_cmplx_dot_prod_q15.c **** #else
 224:.\DSP\Source\ComplexMathFunctions/arm_cmplx_dot_prod_q15.c **** 
 225:.\DSP\Source\ComplexMathFunctions/arm_cmplx_dot_prod_q15.c ****   /* Initialize blkCnt with number of samples */
 226:.\DSP\Source\ComplexMathFunctions/arm_cmplx_dot_prod_q15.c ****   blkCnt = numSamples;
 227:.\DSP\Source\ComplexMathFunctions/arm_cmplx_dot_prod_q15.c **** 
 228:.\DSP\Source\ComplexMathFunctions/arm_cmplx_dot_prod_q15.c **** #endif /* #if defined (ARM_MATH_LOOPUNROLL) */
 229:.\DSP\Source\ComplexMathFunctions/arm_cmplx_dot_prod_q15.c **** 
 230:.\DSP\Source\ComplexMathFunctions/arm_cmplx_dot_prod_q15.c ****   while (blkCnt > 0U)
  49              		.loc 1 230 0
  50 000e 23E0     		b	.L2
  51              	.LVL2:
  52              	.L3:
 231:.\DSP\Source\ComplexMathFunctions/arm_cmplx_dot_prod_q15.c ****   {
 232:.\DSP\Source\ComplexMathFunctions/arm_cmplx_dot_prod_q15.c ****     a0 = *pSrcA++;
  53              		.loc 1 232 0
ARM GAS  C:\Users\IVYLIU~1\AppData\Local\Temp\ccvELiNl.s 			page 6


  54 0010 0346     		mov	r3, r0
  55              	.LVL3:
 233:.\DSP\Source\ComplexMathFunctions/arm_cmplx_dot_prod_q15.c ****     b0 = *pSrcA++;
 234:.\DSP\Source\ComplexMathFunctions/arm_cmplx_dot_prod_q15.c ****     c0 = *pSrcB++;
  56              		.loc 1 234 0
  57 0012 0C46     		mov	r4, r1
  58              	.LVL4:
 235:.\DSP\Source\ComplexMathFunctions/arm_cmplx_dot_prod_q15.c ****     d0 = *pSrcB++;
 236:.\DSP\Source\ComplexMathFunctions/arm_cmplx_dot_prod_q15.c **** 
 237:.\DSP\Source\ComplexMathFunctions/arm_cmplx_dot_prod_q15.c ****     real_sum += (q31_t)a0 * c0;
  59              		.loc 1 237 0
  60 0014 33F904EB 		ldrsh	lr, [r3], #4
  61 0018 34F9045B 		ldrsh	r5, [r4], #4
  62 001c 05FB0EFC 		mul	ip, r5, lr
  63 0020 18EB0C08 		adds	r8, r8, ip
  64              	.LVL5:
  65 0024 49EBEC79 		adc	r9, r9, ip, asr #31
  66              	.LVL6:
 238:.\DSP\Source\ComplexMathFunctions/arm_cmplx_dot_prod_q15.c ****     imag_sum += (q31_t)a0 * d0;
  67              		.loc 1 238 0
  68 0028 B1F90210 		ldrsh	r1, [r1, #2]
  69              	.LVL7:
  70 002c 01FB0EFE 		mul	lr, r1, lr
  71 0030 16EB0E06 		adds	r6, r6, lr
  72              	.LVL8:
  73 0034 47EBEE77 		adc	r7, r7, lr, asr #31
  74              	.LVL9:
 239:.\DSP\Source\ComplexMathFunctions/arm_cmplx_dot_prod_q15.c ****     real_sum -= (q31_t)b0 * d0;
  75              		.loc 1 239 0
  76 0038 B0F90200 		ldrsh	r0, [r0, #2]
  77              	.LVL10:
  78 003c 00FB01F1 		mul	r1, r0, r1
  79 0040 B8EB0108 		subs	r8, r8, r1
  80              	.LVL11:
  81 0044 69EBE179 		sbc	r9, r9, r1, asr #31
  82              	.LVL12:
 240:.\DSP\Source\ComplexMathFunctions/arm_cmplx_dot_prod_q15.c ****     imag_sum += (q31_t)b0 * c0;
  83              		.loc 1 240 0
  84 0048 00FB05F5 		mul	r5, r0, r5
  85 004c 7619     		adds	r6, r6, r5
  86              	.LVL13:
  87 004e 47EBE577 		adc	r7, r7, r5, asr #31
  88              	.LVL14:
 241:.\DSP\Source\ComplexMathFunctions/arm_cmplx_dot_prod_q15.c **** 
 242:.\DSP\Source\ComplexMathFunctions/arm_cmplx_dot_prod_q15.c ****     /* Decrement loop counter */
 243:.\DSP\Source\ComplexMathFunctions/arm_cmplx_dot_prod_q15.c ****     blkCnt--;
  89              		.loc 1 243 0
  90 0052 013A     		subs	r2, r2, #1
  91              	.LVL15:
 235:.\DSP\Source\ComplexMathFunctions/arm_cmplx_dot_prod_q15.c **** 
  92              		.loc 1 235 0
  93 0054 2146     		mov	r1, r4
 233:.\DSP\Source\ComplexMathFunctions/arm_cmplx_dot_prod_q15.c ****     c0 = *pSrcB++;
  94              		.loc 1 233 0
  95 0056 1846     		mov	r0, r3
  96              	.LVL16:
  97              	.L2:
ARM GAS  C:\Users\IVYLIU~1\AppData\Local\Temp\ccvELiNl.s 			page 7


 230:.\DSP\Source\ComplexMathFunctions/arm_cmplx_dot_prod_q15.c ****   {
  98              		.loc 1 230 0
  99 0058 002A     		cmp	r2, #0
 100 005a D9D1     		bne	.L3
 244:.\DSP\Source\ComplexMathFunctions/arm_cmplx_dot_prod_q15.c ****   }
 245:.\DSP\Source\ComplexMathFunctions/arm_cmplx_dot_prod_q15.c **** 
 246:.\DSP\Source\ComplexMathFunctions/arm_cmplx_dot_prod_q15.c ****   /* Store real and imaginary result in 8.24 format  */
 247:.\DSP\Source\ComplexMathFunctions/arm_cmplx_dot_prod_q15.c ****   /* Convert real data in 34.30 to 8.24 by 6 right shifts */
 248:.\DSP\Source\ComplexMathFunctions/arm_cmplx_dot_prod_q15.c ****   *realResult = (q31_t) (real_sum >> 6);
 101              		.loc 1 248 0
 102 005c 4FEA9813 		lsr	r3, r8, #6
 103 0060 43EA8963 		orr	r3, r3, r9, lsl #26
 104 0064 CAF80030 		str	r3, [r10]
 249:.\DSP\Source\ComplexMathFunctions/arm_cmplx_dot_prod_q15.c ****   /* Convert imaginary data in 34.30 to 8.24 by 6 right shifts */
 250:.\DSP\Source\ComplexMathFunctions/arm_cmplx_dot_prod_q15.c ****   *imagResult = (q31_t) (imag_sum >> 6);
 105              		.loc 1 250 0
 106 0068 B309     		lsrs	r3, r6, #6
 107 006a 43EA8763 		orr	r3, r3, r7, lsl #26
 108 006e 089A     		ldr	r2, [sp, #32]
 109              	.LVL17:
 110 0070 1360     		str	r3, [r2]
 111 0072 BDE8F087 		pop	{r4, r5, r6, r7, r8, r9, r10, pc}
 112              		.cfi_endproc
 113              	.LFE84:
 114              		.size	arm_cmplx_dot_prod_q15, .-arm_cmplx_dot_prod_q15
 115 0076 00BF     		.text
 116              	.Letext0:
 117              		.file 2 "c:\\program files (x86)\\cypress\\psoc creator\\3.3\\psoc creator\\import\\gnu\\arm\\4.9.
 118              		.file 3 "c:\\program files (x86)\\cypress\\psoc creator\\3.3\\psoc creator\\import\\gnu\\arm\\4.9.
 119              		.file 4 ".\\DSP\\Include/arm_math_types.h"
 120              		.file 5 ".\\Core\\Include/cmsis_gcc.h"