ARM GAS  C:\Users\IVYLIU~1\AppData\Local\Temp\ccID1TPF.s 			page 1


   1              		.syntax unified
   2              		.cpu cortex-m3
   3              		.fpu softvfp
   4              		.eabi_attribute 20, 1
   5              		.eabi_attribute 21, 1
   6              		.eabi_attribute 23, 3
   7              		.eabi_attribute 24, 1
   8              		.eabi_attribute 25, 1
   9              		.eabi_attribute 26, 1
  10              		.eabi_attribute 30, 1
  11              		.eabi_attribute 34, 1
  12              		.eabi_attribute 18, 4
  13              		.thumb
  14              		.file	"arm_clip_q15.c"
  15              		.text
  16              	.Ltext0:
  17              		.cfi_sections	.debug_frame
  18              		.section	.text.arm_clip_q15,"ax",%progbits
  19              		.align	2
  20              		.global	arm_clip_q15
  21              		.thumb
  22              		.thumb_func
  23              		.type	arm_clip_q15, %function
  24              	arm_clip_q15:
  25              	.LFB83:
  26              		.file 1 ".\\DSP\\Source\\BasicMathFunctions\\arm_clip_q15.c"
   1:.\DSP\Source\BasicMathFunctions/arm_clip_q15.c **** /* ----------------------------------------------------------------------
   2:.\DSP\Source\BasicMathFunctions/arm_clip_q15.c ****  * Project:      CMSIS DSP Library
   3:.\DSP\Source\BasicMathFunctions/arm_clip_q15.c ****  * Title:        arm_clip_q15.c
   4:.\DSP\Source\BasicMathFunctions/arm_clip_q15.c ****  * Description:  Floating-point vector addition
   5:.\DSP\Source\BasicMathFunctions/arm_clip_q15.c ****  *
   6:.\DSP\Source\BasicMathFunctions/arm_clip_q15.c ****  * $Date:        23 April 2021
   7:.\DSP\Source\BasicMathFunctions/arm_clip_q15.c ****  * $Revision:    V1.9.0
   8:.\DSP\Source\BasicMathFunctions/arm_clip_q15.c ****  *
   9:.\DSP\Source\BasicMathFunctions/arm_clip_q15.c ****  * Target Processor: Cortex-M and Cortex-A cores
  10:.\DSP\Source\BasicMathFunctions/arm_clip_q15.c ****  * -------------------------------------------------------------------- */
  11:.\DSP\Source\BasicMathFunctions/arm_clip_q15.c **** /*
  12:.\DSP\Source\BasicMathFunctions/arm_clip_q15.c ****  * Copyright (C) 2010-2021 ARM Limited or its affiliates. All rights reserved.
  13:.\DSP\Source\BasicMathFunctions/arm_clip_q15.c ****  *
  14:.\DSP\Source\BasicMathFunctions/arm_clip_q15.c ****  * SPDX-License-Identifier: Apache-2.0
  15:.\DSP\Source\BasicMathFunctions/arm_clip_q15.c ****  *
  16:.\DSP\Source\BasicMathFunctions/arm_clip_q15.c ****  * Licensed under the Apache License, Version 2.0 (the License); you may
  17:.\DSP\Source\BasicMathFunctions/arm_clip_q15.c ****  * not use this file except in compliance with the License.
  18:.\DSP\Source\BasicMathFunctions/arm_clip_q15.c ****  * You may obtain a copy of the License at
  19:.\DSP\Source\BasicMathFunctions/arm_clip_q15.c ****  *
  20:.\DSP\Source\BasicMathFunctions/arm_clip_q15.c ****  * www.apache.org/licenses/LICENSE-2.0
  21:.\DSP\Source\BasicMathFunctions/arm_clip_q15.c ****  *
  22:.\DSP\Source\BasicMathFunctions/arm_clip_q15.c ****  * Unless required by applicable law or agreed to in writing, software
  23:.\DSP\Source\BasicMathFunctions/arm_clip_q15.c ****  * distributed under the License is distributed on an AS IS BASIS, WITHOUT
  24:.\DSP\Source\BasicMathFunctions/arm_clip_q15.c ****  * WARRANTIES OR CONDITIONS OF ANY KIND, either express or implied.
  25:.\DSP\Source\BasicMathFunctions/arm_clip_q15.c ****  * See the License for the specific language governing permissions and
  26:.\DSP\Source\BasicMathFunctions/arm_clip_q15.c ****  * limitations under the License.
  27:.\DSP\Source\BasicMathFunctions/arm_clip_q15.c ****  */
  28:.\DSP\Source\BasicMathFunctions/arm_clip_q15.c **** 
  29:.\DSP\Source\BasicMathFunctions/arm_clip_q15.c **** #include "dsp/basic_math_functions.h"
  30:.\DSP\Source\BasicMathFunctions/arm_clip_q15.c **** 
  31:.\DSP\Source\BasicMathFunctions/arm_clip_q15.c **** /**
ARM GAS  C:\Users\IVYLIU~1\AppData\Local\Temp\ccID1TPF.s 			page 2


  32:.\DSP\Source\BasicMathFunctions/arm_clip_q15.c ****   @ingroup groupMath
  33:.\DSP\Source\BasicMathFunctions/arm_clip_q15.c ****  */
  34:.\DSP\Source\BasicMathFunctions/arm_clip_q15.c **** 
  35:.\DSP\Source\BasicMathFunctions/arm_clip_q15.c **** 
  36:.\DSP\Source\BasicMathFunctions/arm_clip_q15.c **** /**
  37:.\DSP\Source\BasicMathFunctions/arm_clip_q15.c ****   @addtogroup BasicClip
  38:.\DSP\Source\BasicMathFunctions/arm_clip_q15.c ****   @{
  39:.\DSP\Source\BasicMathFunctions/arm_clip_q15.c ****  */
  40:.\DSP\Source\BasicMathFunctions/arm_clip_q15.c **** 
  41:.\DSP\Source\BasicMathFunctions/arm_clip_q15.c **** /**
  42:.\DSP\Source\BasicMathFunctions/arm_clip_q15.c ****   @brief         Elementwise fixed-point clipping
  43:.\DSP\Source\BasicMathFunctions/arm_clip_q15.c ****   @param[in]     pSrc          points to input values
  44:.\DSP\Source\BasicMathFunctions/arm_clip_q15.c ****   @param[out]    pDst          points to output clipped values
  45:.\DSP\Source\BasicMathFunctions/arm_clip_q15.c ****   @param[in]     low           lower bound
  46:.\DSP\Source\BasicMathFunctions/arm_clip_q15.c ****   @param[in]     high          higher bound
  47:.\DSP\Source\BasicMathFunctions/arm_clip_q15.c ****   @param[in]     numSamples    number of samples to clip
  48:.\DSP\Source\BasicMathFunctions/arm_clip_q15.c ****   @return        none
  49:.\DSP\Source\BasicMathFunctions/arm_clip_q15.c ****  */
  50:.\DSP\Source\BasicMathFunctions/arm_clip_q15.c **** #if defined(ARM_MATH_MVEI) && !defined(ARM_MATH_AUTOVECTORIZE)
  51:.\DSP\Source\BasicMathFunctions/arm_clip_q15.c **** 
  52:.\DSP\Source\BasicMathFunctions/arm_clip_q15.c **** #include "arm_helium_utils.h"
  53:.\DSP\Source\BasicMathFunctions/arm_clip_q15.c **** void arm_clip_q15(const q15_t * pSrc, 
  54:.\DSP\Source\BasicMathFunctions/arm_clip_q15.c ****   q15_t * pDst, 
  55:.\DSP\Source\BasicMathFunctions/arm_clip_q15.c ****   q15_t low, 
  56:.\DSP\Source\BasicMathFunctions/arm_clip_q15.c ****   q15_t high, 
  57:.\DSP\Source\BasicMathFunctions/arm_clip_q15.c ****   uint32_t numSamples)
  58:.\DSP\Source\BasicMathFunctions/arm_clip_q15.c **** {
  59:.\DSP\Source\BasicMathFunctions/arm_clip_q15.c ****     uint32_t  blkCnt;
  60:.\DSP\Source\BasicMathFunctions/arm_clip_q15.c ****     q15x8_t curVec0, curVec1;
  61:.\DSP\Source\BasicMathFunctions/arm_clip_q15.c ****     q15x8_t vecLow, vecHigh;
  62:.\DSP\Source\BasicMathFunctions/arm_clip_q15.c **** 
  63:.\DSP\Source\BasicMathFunctions/arm_clip_q15.c ****     vecLow = vdupq_n_s16(low);
  64:.\DSP\Source\BasicMathFunctions/arm_clip_q15.c ****     vecHigh = vdupq_n_s16(high);
  65:.\DSP\Source\BasicMathFunctions/arm_clip_q15.c **** 
  66:.\DSP\Source\BasicMathFunctions/arm_clip_q15.c ****     curVec0 = vld1q(pSrc);
  67:.\DSP\Source\BasicMathFunctions/arm_clip_q15.c ****     pSrc += 8;
  68:.\DSP\Source\BasicMathFunctions/arm_clip_q15.c ****     /*
  69:.\DSP\Source\BasicMathFunctions/arm_clip_q15.c ****      * unrolled x 2 to allow
  70:.\DSP\Source\BasicMathFunctions/arm_clip_q15.c ****      * vldr/vstr/vmin/vmax
  71:.\DSP\Source\BasicMathFunctions/arm_clip_q15.c ****      * stall free interleaving
  72:.\DSP\Source\BasicMathFunctions/arm_clip_q15.c ****      */
  73:.\DSP\Source\BasicMathFunctions/arm_clip_q15.c ****     blkCnt = numSamples >> 4;
  74:.\DSP\Source\BasicMathFunctions/arm_clip_q15.c ****     while (blkCnt--)
  75:.\DSP\Source\BasicMathFunctions/arm_clip_q15.c ****     {
  76:.\DSP\Source\BasicMathFunctions/arm_clip_q15.c ****         curVec0 = vmaxq(curVec0, vecLow);
  77:.\DSP\Source\BasicMathFunctions/arm_clip_q15.c ****         curVec1 = vld1q(pSrc);
  78:.\DSP\Source\BasicMathFunctions/arm_clip_q15.c ****         pSrc += 8;
  79:.\DSP\Source\BasicMathFunctions/arm_clip_q15.c ****         curVec0 = vminq(curVec0, vecHigh);
  80:.\DSP\Source\BasicMathFunctions/arm_clip_q15.c ****         vst1q(pDst, curVec0);
  81:.\DSP\Source\BasicMathFunctions/arm_clip_q15.c ****         pDst += 8;
  82:.\DSP\Source\BasicMathFunctions/arm_clip_q15.c ****         curVec1 = vmaxq(curVec1, vecLow);
  83:.\DSP\Source\BasicMathFunctions/arm_clip_q15.c ****         curVec0 = vld1q(pSrc);
  84:.\DSP\Source\BasicMathFunctions/arm_clip_q15.c ****         pSrc += 8;
  85:.\DSP\Source\BasicMathFunctions/arm_clip_q15.c ****         curVec1 = vminq(curVec1, vecHigh);
  86:.\DSP\Source\BasicMathFunctions/arm_clip_q15.c ****         vst1q(pDst, curVec1);
  87:.\DSP\Source\BasicMathFunctions/arm_clip_q15.c ****         pDst += 8;
  88:.\DSP\Source\BasicMathFunctions/arm_clip_q15.c ****     }
ARM GAS  C:\Users\IVYLIU~1\AppData\Local\Temp\ccID1TPF.s 			page 3


  89:.\DSP\Source\BasicMathFunctions/arm_clip_q15.c ****     /*
  90:.\DSP\Source\BasicMathFunctions/arm_clip_q15.c ****      * Tail handling
  91:.\DSP\Source\BasicMathFunctions/arm_clip_q15.c ****      */
  92:.\DSP\Source\BasicMathFunctions/arm_clip_q15.c ****     blkCnt = numSamples - ((numSamples >> 4) << 4);
  93:.\DSP\Source\BasicMathFunctions/arm_clip_q15.c ****     if (blkCnt >= 8)
  94:.\DSP\Source\BasicMathFunctions/arm_clip_q15.c ****     {
  95:.\DSP\Source\BasicMathFunctions/arm_clip_q15.c ****         curVec0 = vmaxq(curVec0, vecLow);
  96:.\DSP\Source\BasicMathFunctions/arm_clip_q15.c ****         curVec0 = vminq(curVec0, vecHigh);
  97:.\DSP\Source\BasicMathFunctions/arm_clip_q15.c ****         vst1q(pDst, curVec0);
  98:.\DSP\Source\BasicMathFunctions/arm_clip_q15.c ****         pDst += 8;
  99:.\DSP\Source\BasicMathFunctions/arm_clip_q15.c ****         curVec0 = vld1q(pSrc);
 100:.\DSP\Source\BasicMathFunctions/arm_clip_q15.c ****         pSrc += 8;
 101:.\DSP\Source\BasicMathFunctions/arm_clip_q15.c ****     }
 102:.\DSP\Source\BasicMathFunctions/arm_clip_q15.c **** 
 103:.\DSP\Source\BasicMathFunctions/arm_clip_q15.c ****     if (blkCnt > 0)
 104:.\DSP\Source\BasicMathFunctions/arm_clip_q15.c ****     {
 105:.\DSP\Source\BasicMathFunctions/arm_clip_q15.c ****         mve_pred16_t p0 = vctp16q(blkCnt & 7);
 106:.\DSP\Source\BasicMathFunctions/arm_clip_q15.c ****         curVec0 = vmaxq(curVec0, vecLow);
 107:.\DSP\Source\BasicMathFunctions/arm_clip_q15.c ****         curVec0 = vminq(curVec0, vecHigh);
 108:.\DSP\Source\BasicMathFunctions/arm_clip_q15.c ****         vstrhq_p(pDst, curVec0, p0);
 109:.\DSP\Source\BasicMathFunctions/arm_clip_q15.c ****     }
 110:.\DSP\Source\BasicMathFunctions/arm_clip_q15.c **** }
 111:.\DSP\Source\BasicMathFunctions/arm_clip_q15.c **** 
 112:.\DSP\Source\BasicMathFunctions/arm_clip_q15.c **** #else
 113:.\DSP\Source\BasicMathFunctions/arm_clip_q15.c **** void arm_clip_q15(const q15_t * pSrc, 
 114:.\DSP\Source\BasicMathFunctions/arm_clip_q15.c ****   q15_t * pDst, 
 115:.\DSP\Source\BasicMathFunctions/arm_clip_q15.c ****   q15_t low, 
 116:.\DSP\Source\BasicMathFunctions/arm_clip_q15.c ****   q15_t high, 
 117:.\DSP\Source\BasicMathFunctions/arm_clip_q15.c ****   uint32_t numSamples)
 118:.\DSP\Source\BasicMathFunctions/arm_clip_q15.c **** {
  27              		.loc 1 118 0
  28              		.cfi_startproc
  29              		@ args = 4, pretend = 0, frame = 0
  30              		@ frame_needed = 0, uses_anonymous_args = 0
  31              	.LVL0:
  32 0000 F0B5     		push	{r4, r5, r6, r7, lr}
  33              		.cfi_def_cfa_offset 20
  34              		.cfi_offset 4, -20
  35              		.cfi_offset 5, -16
  36              		.cfi_offset 6, -12
  37              		.cfi_offset 7, -8
  38              		.cfi_offset 14, -4
  39 0002 DDF814E0 		ldr	lr, [sp, #20]
  40              	.LVL1:
 119:.\DSP\Source\BasicMathFunctions/arm_clip_q15.c ****     uint32_t i;
 120:.\DSP\Source\BasicMathFunctions/arm_clip_q15.c ****     for (i = 0; i < numSamples; i++)
  41              		.loc 1 120 0
  42 0006 0024     		movs	r4, #0
  43 0008 0FE0     		b	.L2
  44              	.LVL2:
  45              	.L6:
 121:.\DSP\Source\BasicMathFunctions/arm_clip_q15.c ****     {                                        
 122:.\DSP\Source\BasicMathFunctions/arm_clip_q15.c ****         if (pSrc[i] > high)                  
  46              		.loc 1 122 0
  47 000a 6700     		lsls	r7, r4, #1
  48 000c 30F81450 		ldrh	r5, [r0, r4, lsl #1]
  49 0010 2EB2     		sxth	r6, r5
ARM GAS  C:\Users\IVYLIU~1\AppData\Local\Temp\ccID1TPF.s 			page 4


  50 0012 9E42     		cmp	r6, r3
  51 0014 02DD     		ble	.L3
 123:.\DSP\Source\BasicMathFunctions/arm_clip_q15.c ****             pDst[i] = high;                  
  52              		.loc 1 123 0
  53 0016 21F81430 		strh	r3, [r1, r4, lsl #1]	@ movhi
  54 001a 05E0     		b	.L4
  55              	.L3:
 124:.\DSP\Source\BasicMathFunctions/arm_clip_q15.c ****         else if (pSrc[i] < low)              
  56              		.loc 1 124 0
  57 001c 2EB2     		sxth	r6, r5
  58 001e 9642     		cmp	r6, r2
  59 0020 01DA     		bge	.L5
 125:.\DSP\Source\BasicMathFunctions/arm_clip_q15.c ****             pDst[i] = low;                   
  60              		.loc 1 125 0
  61 0022 CA53     		strh	r2, [r1, r7]	@ movhi
  62 0024 00E0     		b	.L4
  63              	.L5:
 126:.\DSP\Source\BasicMathFunctions/arm_clip_q15.c ****         else                                 
 127:.\DSP\Source\BasicMathFunctions/arm_clip_q15.c ****             pDst[i] = pSrc[i];               
  64              		.loc 1 127 0
  65 0026 CD53     		strh	r5, [r1, r7]	@ movhi
  66              	.L4:
 120:.\DSP\Source\BasicMathFunctions/arm_clip_q15.c ****     {                                        
  67              		.loc 1 120 0 discriminator 2
  68 0028 0134     		adds	r4, r4, #1
  69              	.LVL3:
  70              	.L2:
 120:.\DSP\Source\BasicMathFunctions/arm_clip_q15.c ****     {                                        
  71              		.loc 1 120 0 is_stmt 0 discriminator 1
  72 002a 7445     		cmp	r4, lr
  73 002c EDD3     		bcc	.L6
 128:.\DSP\Source\BasicMathFunctions/arm_clip_q15.c ****     }
 129:.\DSP\Source\BasicMathFunctions/arm_clip_q15.c **** }
  74              		.loc 1 129 0 is_stmt 1
  75 002e F0BD     		pop	{r4, r5, r6, r7, pc}
  76              		.cfi_endproc
  77              	.LFE83:
  78              		.size	arm_clip_q15, .-arm_clip_q15
  79              		.text
  80              	.Letext0:
  81              		.file 2 "c:\\program files (x86)\\cypress\\psoc creator\\3.3\\psoc creator\\import\\gnu\\arm\\4.9.
  82              		.file 3 "c:\\program files (x86)\\cypress\\psoc creator\\3.3\\psoc creator\\import\\gnu\\arm\\4.9.
  83              		.file 4 ".\\DSP\\Include/arm_math_types.h"
  84              		.file 5 ".\\Core\\Include/cmsis_gcc.h"