ARM GAS  C:\Users\IVYLIU~1\AppData\Local\Temp\ccJ1NMXZ.s 			page 1


   1              		.syntax unified
   2              		.cpu cortex-m3
   3              		.fpu softvfp
   4              		.eabi_attribute 20, 1
   5              		.eabi_attribute 21, 1
   6              		.eabi_attribute 23, 3
   7              		.eabi_attribute 24, 1
   8              		.eabi_attribute 25, 1
   9              		.eabi_attribute 26, 1
  10              		.eabi_attribute 30, 1
  11              		.eabi_attribute 34, 1
  12              		.eabi_attribute 18, 4
  13              		.thumb
  14              		.file	"arm_shift_q15.c"
  15              		.text
  16              	.Ltext0:
  17              		.cfi_sections	.debug_frame
  18              		.section	.text.arm_shift_q15,"ax",%progbits
  19              		.align	2
  20              		.global	arm_shift_q15
  21              		.thumb
  22              		.thumb_func
  23              		.type	arm_shift_q15, %function
  24              	arm_shift_q15:
  25              	.LFB83:
  26              		.file 1 ".\\DSP\\Source\\BasicMathFunctions\\arm_shift_q15.c"
   1:.\DSP\Source\BasicMathFunctions/arm_shift_q15.c **** /* ----------------------------------------------------------------------
   2:.\DSP\Source\BasicMathFunctions/arm_shift_q15.c ****  * Project:      CMSIS DSP Library
   3:.\DSP\Source\BasicMathFunctions/arm_shift_q15.c ****  * Title:        arm_shift_q15.c
   4:.\DSP\Source\BasicMathFunctions/arm_shift_q15.c ****  * Description:  Shifts the elements of a Q15 vector by a specified number of bits
   5:.\DSP\Source\BasicMathFunctions/arm_shift_q15.c ****  *
   6:.\DSP\Source\BasicMathFunctions/arm_shift_q15.c ****  * $Date:        23 April 2021
   7:.\DSP\Source\BasicMathFunctions/arm_shift_q15.c ****  * $Revision:    V1.9.0
   8:.\DSP\Source\BasicMathFunctions/arm_shift_q15.c ****  *
   9:.\DSP\Source\BasicMathFunctions/arm_shift_q15.c ****  * Target Processor: Cortex-M and Cortex-A cores
  10:.\DSP\Source\BasicMathFunctions/arm_shift_q15.c ****  * -------------------------------------------------------------------- */
  11:.\DSP\Source\BasicMathFunctions/arm_shift_q15.c **** /*
  12:.\DSP\Source\BasicMathFunctions/arm_shift_q15.c ****  * Copyright (C) 2010-2021 ARM Limited or its affiliates. All rights reserved.
  13:.\DSP\Source\BasicMathFunctions/arm_shift_q15.c ****  *
  14:.\DSP\Source\BasicMathFunctions/arm_shift_q15.c ****  * SPDX-License-Identifier: Apache-2.0
  15:.\DSP\Source\BasicMathFunctions/arm_shift_q15.c ****  *
  16:.\DSP\Source\BasicMathFunctions/arm_shift_q15.c ****  * Licensed under the Apache License, Version 2.0 (the License); you may
  17:.\DSP\Source\BasicMathFunctions/arm_shift_q15.c ****  * not use this file except in compliance with the License.
  18:.\DSP\Source\BasicMathFunctions/arm_shift_q15.c ****  * You may obtain a copy of the License at
  19:.\DSP\Source\BasicMathFunctions/arm_shift_q15.c ****  *
  20:.\DSP\Source\BasicMathFunctions/arm_shift_q15.c ****  * www.apache.org/licenses/LICENSE-2.0
  21:.\DSP\Source\BasicMathFunctions/arm_shift_q15.c ****  *
  22:.\DSP\Source\BasicMathFunctions/arm_shift_q15.c ****  * Unless required by applicable law or agreed to in writing, software
  23:.\DSP\Source\BasicMathFunctions/arm_shift_q15.c ****  * distributed under the License is distributed on an AS IS BASIS, WITHOUT
  24:.\DSP\Source\BasicMathFunctions/arm_shift_q15.c ****  * WARRANTIES OR CONDITIONS OF ANY KIND, either express or implied.
  25:.\DSP\Source\BasicMathFunctions/arm_shift_q15.c ****  * See the License for the specific language governing permissions and
  26:.\DSP\Source\BasicMathFunctions/arm_shift_q15.c ****  * limitations under the License.
  27:.\DSP\Source\BasicMathFunctions/arm_shift_q15.c ****  */
  28:.\DSP\Source\BasicMathFunctions/arm_shift_q15.c **** 
  29:.\DSP\Source\BasicMathFunctions/arm_shift_q15.c **** #include "dsp/basic_math_functions.h"
  30:.\DSP\Source\BasicMathFunctions/arm_shift_q15.c **** 
  31:.\DSP\Source\BasicMathFunctions/arm_shift_q15.c **** /**
ARM GAS  C:\Users\IVYLIU~1\AppData\Local\Temp\ccJ1NMXZ.s 			page 2


  32:.\DSP\Source\BasicMathFunctions/arm_shift_q15.c ****   @ingroup groupMath
  33:.\DSP\Source\BasicMathFunctions/arm_shift_q15.c ****  */
  34:.\DSP\Source\BasicMathFunctions/arm_shift_q15.c **** 
  35:.\DSP\Source\BasicMathFunctions/arm_shift_q15.c **** /**
  36:.\DSP\Source\BasicMathFunctions/arm_shift_q15.c ****   @addtogroup BasicShift
  37:.\DSP\Source\BasicMathFunctions/arm_shift_q15.c ****   @{
  38:.\DSP\Source\BasicMathFunctions/arm_shift_q15.c ****  */
  39:.\DSP\Source\BasicMathFunctions/arm_shift_q15.c **** 
  40:.\DSP\Source\BasicMathFunctions/arm_shift_q15.c **** /**
  41:.\DSP\Source\BasicMathFunctions/arm_shift_q15.c ****   @brief         Shifts the elements of a Q15 vector a specified number of bits
  42:.\DSP\Source\BasicMathFunctions/arm_shift_q15.c ****   @param[in]     pSrc       points to the input vector
  43:.\DSP\Source\BasicMathFunctions/arm_shift_q15.c ****   @param[in]     shiftBits  number of bits to shift.  A positive value shifts left; a negative valu
  44:.\DSP\Source\BasicMathFunctions/arm_shift_q15.c ****   @param[out]    pDst       points to the output vector
  45:.\DSP\Source\BasicMathFunctions/arm_shift_q15.c ****   @param[in]     blockSize  number of samples in each vector
  46:.\DSP\Source\BasicMathFunctions/arm_shift_q15.c ****   @return        none
  47:.\DSP\Source\BasicMathFunctions/arm_shift_q15.c **** 
  48:.\DSP\Source\BasicMathFunctions/arm_shift_q15.c ****   @par           Scaling and Overflow Behavior
  49:.\DSP\Source\BasicMathFunctions/arm_shift_q15.c ****                    The function uses saturating arithmetic.
  50:.\DSP\Source\BasicMathFunctions/arm_shift_q15.c ****                    Results outside of the allowable Q15 range [0x8000 0x7FFF] are saturated.
  51:.\DSP\Source\BasicMathFunctions/arm_shift_q15.c ****  */
  52:.\DSP\Source\BasicMathFunctions/arm_shift_q15.c **** 
  53:.\DSP\Source\BasicMathFunctions/arm_shift_q15.c **** #if defined(ARM_MATH_MVEI) && !defined(ARM_MATH_AUTOVECTORIZE)
  54:.\DSP\Source\BasicMathFunctions/arm_shift_q15.c **** 
  55:.\DSP\Source\BasicMathFunctions/arm_shift_q15.c **** #include "arm_helium_utils.h"
  56:.\DSP\Source\BasicMathFunctions/arm_shift_q15.c **** 
  57:.\DSP\Source\BasicMathFunctions/arm_shift_q15.c **** void arm_shift_q15(
  58:.\DSP\Source\BasicMathFunctions/arm_shift_q15.c ****     const q15_t * pSrc,
  59:.\DSP\Source\BasicMathFunctions/arm_shift_q15.c ****     int8_t shiftBits,
  60:.\DSP\Source\BasicMathFunctions/arm_shift_q15.c ****     q15_t * pDst,
  61:.\DSP\Source\BasicMathFunctions/arm_shift_q15.c ****     uint32_t blockSize)
  62:.\DSP\Source\BasicMathFunctions/arm_shift_q15.c **** {
  63:.\DSP\Source\BasicMathFunctions/arm_shift_q15.c ****     uint32_t  blkCnt;           /* loop counters */
  64:.\DSP\Source\BasicMathFunctions/arm_shift_q15.c ****     q15x8_t vecSrc;
  65:.\DSP\Source\BasicMathFunctions/arm_shift_q15.c ****     q15x8_t vecDst;
  66:.\DSP\Source\BasicMathFunctions/arm_shift_q15.c **** 
  67:.\DSP\Source\BasicMathFunctions/arm_shift_q15.c ****     /* Compute 8 outputs at a time */
  68:.\DSP\Source\BasicMathFunctions/arm_shift_q15.c ****     blkCnt = blockSize >> 3;
  69:.\DSP\Source\BasicMathFunctions/arm_shift_q15.c ****     while (blkCnt > 0U)
  70:.\DSP\Source\BasicMathFunctions/arm_shift_q15.c ****     {
  71:.\DSP\Source\BasicMathFunctions/arm_shift_q15.c ****         /*
  72:.\DSP\Source\BasicMathFunctions/arm_shift_q15.c ****          * C = A (>> or <<) shiftBits
  73:.\DSP\Source\BasicMathFunctions/arm_shift_q15.c ****          * Shift the input and then store the result in the destination buffer.
  74:.\DSP\Source\BasicMathFunctions/arm_shift_q15.c ****          */
  75:.\DSP\Source\BasicMathFunctions/arm_shift_q15.c ****         vecSrc = vld1q(pSrc);
  76:.\DSP\Source\BasicMathFunctions/arm_shift_q15.c ****         vecDst = vqshlq_r(vecSrc, shiftBits);
  77:.\DSP\Source\BasicMathFunctions/arm_shift_q15.c ****         vst1q(pDst, vecDst);
  78:.\DSP\Source\BasicMathFunctions/arm_shift_q15.c ****         /*
  79:.\DSP\Source\BasicMathFunctions/arm_shift_q15.c ****          * Decrement the blockSize loop counter
  80:.\DSP\Source\BasicMathFunctions/arm_shift_q15.c ****          */
  81:.\DSP\Source\BasicMathFunctions/arm_shift_q15.c ****         blkCnt--;
  82:.\DSP\Source\BasicMathFunctions/arm_shift_q15.c ****         /*
  83:.\DSP\Source\BasicMathFunctions/arm_shift_q15.c ****          * advance vector source and destination pointers
  84:.\DSP\Source\BasicMathFunctions/arm_shift_q15.c ****          */
  85:.\DSP\Source\BasicMathFunctions/arm_shift_q15.c ****         pSrc += 8;
  86:.\DSP\Source\BasicMathFunctions/arm_shift_q15.c ****         pDst += 8;
  87:.\DSP\Source\BasicMathFunctions/arm_shift_q15.c ****     }
  88:.\DSP\Source\BasicMathFunctions/arm_shift_q15.c ****     /*
ARM GAS  C:\Users\IVYLIU~1\AppData\Local\Temp\ccJ1NMXZ.s 			page 3


  89:.\DSP\Source\BasicMathFunctions/arm_shift_q15.c ****      * tail
  90:.\DSP\Source\BasicMathFunctions/arm_shift_q15.c ****      */
  91:.\DSP\Source\BasicMathFunctions/arm_shift_q15.c ****     blkCnt = blockSize & 7;
  92:.\DSP\Source\BasicMathFunctions/arm_shift_q15.c ****     if (blkCnt > 0U)
  93:.\DSP\Source\BasicMathFunctions/arm_shift_q15.c ****     {
  94:.\DSP\Source\BasicMathFunctions/arm_shift_q15.c ****         mve_pred16_t p0 = vctp16q(blkCnt);
  95:.\DSP\Source\BasicMathFunctions/arm_shift_q15.c ****         vecSrc = vld1q(pSrc);
  96:.\DSP\Source\BasicMathFunctions/arm_shift_q15.c ****         vecDst = vqshlq_r(vecSrc, shiftBits);
  97:.\DSP\Source\BasicMathFunctions/arm_shift_q15.c ****         vstrhq_p(pDst, vecDst, p0);
  98:.\DSP\Source\BasicMathFunctions/arm_shift_q15.c ****     }
  99:.\DSP\Source\BasicMathFunctions/arm_shift_q15.c **** }
 100:.\DSP\Source\BasicMathFunctions/arm_shift_q15.c **** 
 101:.\DSP\Source\BasicMathFunctions/arm_shift_q15.c **** #else
 102:.\DSP\Source\BasicMathFunctions/arm_shift_q15.c **** void arm_shift_q15(
 103:.\DSP\Source\BasicMathFunctions/arm_shift_q15.c ****   const q15_t * pSrc,
 104:.\DSP\Source\BasicMathFunctions/arm_shift_q15.c ****         int8_t shiftBits,
 105:.\DSP\Source\BasicMathFunctions/arm_shift_q15.c ****         q15_t * pDst,
 106:.\DSP\Source\BasicMathFunctions/arm_shift_q15.c ****         uint32_t blockSize)
 107:.\DSP\Source\BasicMathFunctions/arm_shift_q15.c **** {
  27              		.loc 1 107 0
  28              		.cfi_startproc
  29              		@ args = 0, pretend = 0, frame = 0
  30              		@ frame_needed = 0, uses_anonymous_args = 0
  31              		@ link register save eliminated.
  32              	.LVL0:
  33 0000 30B4     		push	{r4, r5}
  34              		.cfi_def_cfa_offset 8
  35              		.cfi_offset 4, -8
  36              		.cfi_offset 5, -4
  37              	.LVL1:
 108:.\DSP\Source\BasicMathFunctions/arm_shift_q15.c ****         uint32_t blkCnt;                               /* Loop counter */
 109:.\DSP\Source\BasicMathFunctions/arm_shift_q15.c ****         uint8_t sign = (shiftBits & 0x80);             /* Sign of shiftBits */
 110:.\DSP\Source\BasicMathFunctions/arm_shift_q15.c **** 
 111:.\DSP\Source\BasicMathFunctions/arm_shift_q15.c **** #if defined (ARM_MATH_LOOPUNROLL)
 112:.\DSP\Source\BasicMathFunctions/arm_shift_q15.c **** 
 113:.\DSP\Source\BasicMathFunctions/arm_shift_q15.c **** #if defined (ARM_MATH_DSP)
 114:.\DSP\Source\BasicMathFunctions/arm_shift_q15.c ****   q15_t in1, in2;                                /* Temporary input variables */
 115:.\DSP\Source\BasicMathFunctions/arm_shift_q15.c **** #endif
 116:.\DSP\Source\BasicMathFunctions/arm_shift_q15.c **** 
 117:.\DSP\Source\BasicMathFunctions/arm_shift_q15.c ****   /* Loop unrolling: Compute 4 outputs at a time */
 118:.\DSP\Source\BasicMathFunctions/arm_shift_q15.c ****   blkCnt = blockSize >> 2U;
 119:.\DSP\Source\BasicMathFunctions/arm_shift_q15.c **** 
 120:.\DSP\Source\BasicMathFunctions/arm_shift_q15.c ****   /* If the shift value is positive then do right shift else left shift */
 121:.\DSP\Source\BasicMathFunctions/arm_shift_q15.c ****   if (sign == 0U)
 122:.\DSP\Source\BasicMathFunctions/arm_shift_q15.c ****   {
 123:.\DSP\Source\BasicMathFunctions/arm_shift_q15.c ****     while (blkCnt > 0U)
 124:.\DSP\Source\BasicMathFunctions/arm_shift_q15.c ****     {
 125:.\DSP\Source\BasicMathFunctions/arm_shift_q15.c ****       /* C = A << shiftBits */
 126:.\DSP\Source\BasicMathFunctions/arm_shift_q15.c **** 
 127:.\DSP\Source\BasicMathFunctions/arm_shift_q15.c **** #if defined (ARM_MATH_DSP)
 128:.\DSP\Source\BasicMathFunctions/arm_shift_q15.c ****       /* read 2 samples from source */
 129:.\DSP\Source\BasicMathFunctions/arm_shift_q15.c ****       in1 = *pSrc++;
 130:.\DSP\Source\BasicMathFunctions/arm_shift_q15.c ****       in2 = *pSrc++;
 131:.\DSP\Source\BasicMathFunctions/arm_shift_q15.c **** 
 132:.\DSP\Source\BasicMathFunctions/arm_shift_q15.c ****       /* Shift the inputs and then store the results in the destination buffer. */
 133:.\DSP\Source\BasicMathFunctions/arm_shift_q15.c **** #ifndef ARM_MATH_BIG_ENDIAN
 134:.\DSP\Source\BasicMathFunctions/arm_shift_q15.c ****       write_q15x2_ia (&pDst, __PKHBT(__SSAT(((q31_t) in1 << shiftBits), 16),
ARM GAS  C:\Users\IVYLIU~1\AppData\Local\Temp\ccJ1NMXZ.s 			page 4


 135:.\DSP\Source\BasicMathFunctions/arm_shift_q15.c ****                                      __SSAT(((q31_t) in2 << shiftBits), 16), 16));
 136:.\DSP\Source\BasicMathFunctions/arm_shift_q15.c **** #else
 137:.\DSP\Source\BasicMathFunctions/arm_shift_q15.c ****       write_q15x2_ia (&pDst, __PKHBT(__SSAT(((q31_t) in2 << shiftBits), 16),
 138:.\DSP\Source\BasicMathFunctions/arm_shift_q15.c ****                                       __SSAT(((q31_t) in1 << shiftBits), 16), 16));
 139:.\DSP\Source\BasicMathFunctions/arm_shift_q15.c **** #endif /* #ifndef ARM_MATH_BIG_ENDIAN */
 140:.\DSP\Source\BasicMathFunctions/arm_shift_q15.c **** 
 141:.\DSP\Source\BasicMathFunctions/arm_shift_q15.c ****       /* read 2 samples from source */
 142:.\DSP\Source\BasicMathFunctions/arm_shift_q15.c ****       in1 = *pSrc++;
 143:.\DSP\Source\BasicMathFunctions/arm_shift_q15.c ****       in2 = *pSrc++;
 144:.\DSP\Source\BasicMathFunctions/arm_shift_q15.c **** 
 145:.\DSP\Source\BasicMathFunctions/arm_shift_q15.c **** #ifndef ARM_MATH_BIG_ENDIAN
 146:.\DSP\Source\BasicMathFunctions/arm_shift_q15.c ****       write_q15x2_ia (&pDst, __PKHBT(__SSAT(((q31_t) in1 << shiftBits), 16),
 147:.\DSP\Source\BasicMathFunctions/arm_shift_q15.c ****                                      __SSAT(((q31_t) in2 << shiftBits), 16), 16));
 148:.\DSP\Source\BasicMathFunctions/arm_shift_q15.c **** #else
 149:.\DSP\Source\BasicMathFunctions/arm_shift_q15.c ****       write_q15x2_ia (&pDst, __PKHBT(__SSAT(((q31_t) in2 << shiftBits), 16),
 150:.\DSP\Source\BasicMathFunctions/arm_shift_q15.c ****                                      __SSAT(((q31_t) in1 << shiftBits), 16), 16));
 151:.\DSP\Source\BasicMathFunctions/arm_shift_q15.c **** #endif /* #ifndef ARM_MATH_BIG_ENDIAN */
 152:.\DSP\Source\BasicMathFunctions/arm_shift_q15.c **** 
 153:.\DSP\Source\BasicMathFunctions/arm_shift_q15.c **** #else
 154:.\DSP\Source\BasicMathFunctions/arm_shift_q15.c ****       *pDst++ = __SSAT(((q31_t) *pSrc++ << shiftBits), 16);
 155:.\DSP\Source\BasicMathFunctions/arm_shift_q15.c ****       *pDst++ = __SSAT(((q31_t) *pSrc++ << shiftBits), 16);
 156:.\DSP\Source\BasicMathFunctions/arm_shift_q15.c ****       *pDst++ = __SSAT(((q31_t) *pSrc++ << shiftBits), 16);
 157:.\DSP\Source\BasicMathFunctions/arm_shift_q15.c ****       *pDst++ = __SSAT(((q31_t) *pSrc++ << shiftBits), 16);
 158:.\DSP\Source\BasicMathFunctions/arm_shift_q15.c **** #endif
 159:.\DSP\Source\BasicMathFunctions/arm_shift_q15.c **** 
 160:.\DSP\Source\BasicMathFunctions/arm_shift_q15.c ****       /* Decrement loop counter */
 161:.\DSP\Source\BasicMathFunctions/arm_shift_q15.c ****       blkCnt--;
 162:.\DSP\Source\BasicMathFunctions/arm_shift_q15.c ****     }
 163:.\DSP\Source\BasicMathFunctions/arm_shift_q15.c ****   }
 164:.\DSP\Source\BasicMathFunctions/arm_shift_q15.c ****   else
 165:.\DSP\Source\BasicMathFunctions/arm_shift_q15.c ****   {
 166:.\DSP\Source\BasicMathFunctions/arm_shift_q15.c ****     while (blkCnt > 0U)
 167:.\DSP\Source\BasicMathFunctions/arm_shift_q15.c ****     {
 168:.\DSP\Source\BasicMathFunctions/arm_shift_q15.c ****       /* C = A >> shiftBits */
 169:.\DSP\Source\BasicMathFunctions/arm_shift_q15.c **** 
 170:.\DSP\Source\BasicMathFunctions/arm_shift_q15.c **** #if defined (ARM_MATH_DSP)
 171:.\DSP\Source\BasicMathFunctions/arm_shift_q15.c ****       /* read 2 samples from source */
 172:.\DSP\Source\BasicMathFunctions/arm_shift_q15.c ****       in1 = *pSrc++;
 173:.\DSP\Source\BasicMathFunctions/arm_shift_q15.c ****       in2 = *pSrc++;
 174:.\DSP\Source\BasicMathFunctions/arm_shift_q15.c **** 
 175:.\DSP\Source\BasicMathFunctions/arm_shift_q15.c ****       /* Shift the inputs and then store the results in the destination buffer. */
 176:.\DSP\Source\BasicMathFunctions/arm_shift_q15.c **** #ifndef ARM_MATH_BIG_ENDIAN
 177:.\DSP\Source\BasicMathFunctions/arm_shift_q15.c ****       write_q15x2_ia (&pDst, __PKHBT((in1 >> -shiftBits),
 178:.\DSP\Source\BasicMathFunctions/arm_shift_q15.c ****                                      (in2 >> -shiftBits), 16));
 179:.\DSP\Source\BasicMathFunctions/arm_shift_q15.c **** #else
 180:.\DSP\Source\BasicMathFunctions/arm_shift_q15.c ****       write_q15x2_ia (&pDst, __PKHBT((in2 >> -shiftBits),
 181:.\DSP\Source\BasicMathFunctions/arm_shift_q15.c ****                                      (in1 >> -shiftBits), 16));
 182:.\DSP\Source\BasicMathFunctions/arm_shift_q15.c **** #endif /* #ifndef ARM_MATH_BIG_ENDIAN */
 183:.\DSP\Source\BasicMathFunctions/arm_shift_q15.c **** 
 184:.\DSP\Source\BasicMathFunctions/arm_shift_q15.c ****       /* read 2 samples from source */
 185:.\DSP\Source\BasicMathFunctions/arm_shift_q15.c ****       in1 = *pSrc++;
 186:.\DSP\Source\BasicMathFunctions/arm_shift_q15.c ****       in2 = *pSrc++;
 187:.\DSP\Source\BasicMathFunctions/arm_shift_q15.c **** 
 188:.\DSP\Source\BasicMathFunctions/arm_shift_q15.c **** #ifndef ARM_MATH_BIG_ENDIAN
 189:.\DSP\Source\BasicMathFunctions/arm_shift_q15.c ****       write_q15x2_ia (&pDst, __PKHBT((in1 >> -shiftBits),
 190:.\DSP\Source\BasicMathFunctions/arm_shift_q15.c ****                                      (in2 >> -shiftBits), 16));
 191:.\DSP\Source\BasicMathFunctions/arm_shift_q15.c **** #else
ARM GAS  C:\Users\IVYLIU~1\AppData\Local\Temp\ccJ1NMXZ.s 			page 5


 192:.\DSP\Source\BasicMathFunctions/arm_shift_q15.c ****       write_q15x2_ia (&pDst, __PKHBT((in2 >> -shiftBits),
 193:.\DSP\Source\BasicMathFunctions/arm_shift_q15.c ****                                      (in1 >> -shiftBits), 16));
 194:.\DSP\Source\BasicMathFunctions/arm_shift_q15.c **** #endif /* #ifndef ARM_MATH_BIG_ENDIAN */
 195:.\DSP\Source\BasicMathFunctions/arm_shift_q15.c **** 
 196:.\DSP\Source\BasicMathFunctions/arm_shift_q15.c **** #else
 197:.\DSP\Source\BasicMathFunctions/arm_shift_q15.c ****       *pDst++ = (*pSrc++ >> -shiftBits);
 198:.\DSP\Source\BasicMathFunctions/arm_shift_q15.c ****       *pDst++ = (*pSrc++ >> -shiftBits);
 199:.\DSP\Source\BasicMathFunctions/arm_shift_q15.c ****       *pDst++ = (*pSrc++ >> -shiftBits);
 200:.\DSP\Source\BasicMathFunctions/arm_shift_q15.c ****       *pDst++ = (*pSrc++ >> -shiftBits);
 201:.\DSP\Source\BasicMathFunctions/arm_shift_q15.c **** #endif
 202:.\DSP\Source\BasicMathFunctions/arm_shift_q15.c **** 
 203:.\DSP\Source\BasicMathFunctions/arm_shift_q15.c ****       /* Decrement loop counter */
 204:.\DSP\Source\BasicMathFunctions/arm_shift_q15.c ****       blkCnt--;
 205:.\DSP\Source\BasicMathFunctions/arm_shift_q15.c ****     }
 206:.\DSP\Source\BasicMathFunctions/arm_shift_q15.c ****   }
 207:.\DSP\Source\BasicMathFunctions/arm_shift_q15.c **** 
 208:.\DSP\Source\BasicMathFunctions/arm_shift_q15.c ****   /* Loop unrolling: Compute remaining outputs */
 209:.\DSP\Source\BasicMathFunctions/arm_shift_q15.c ****   blkCnt = blockSize % 0x4U;
 210:.\DSP\Source\BasicMathFunctions/arm_shift_q15.c **** 
 211:.\DSP\Source\BasicMathFunctions/arm_shift_q15.c **** #else
 212:.\DSP\Source\BasicMathFunctions/arm_shift_q15.c **** 
 213:.\DSP\Source\BasicMathFunctions/arm_shift_q15.c ****   /* Initialize blkCnt with number of samples */
 214:.\DSP\Source\BasicMathFunctions/arm_shift_q15.c ****   blkCnt = blockSize;
 215:.\DSP\Source\BasicMathFunctions/arm_shift_q15.c **** 
 216:.\DSP\Source\BasicMathFunctions/arm_shift_q15.c **** #endif /* #if defined (ARM_MATH_LOOPUNROLL) */
 217:.\DSP\Source\BasicMathFunctions/arm_shift_q15.c **** 
 218:.\DSP\Source\BasicMathFunctions/arm_shift_q15.c ****   /* If the shift value is positive then do right shift else left shift */
 219:.\DSP\Source\BasicMathFunctions/arm_shift_q15.c ****   if (sign == 0U)
  38              		.loc 1 219 0
  39 0002 0029     		cmp	r1, #0
  40              	.LVL2:
  41 0004 0BDA     		bge	.L2
  42 0006 15E0     		b	.L3
  43              	.LVL3:
  44              	.L4:
 220:.\DSP\Source\BasicMathFunctions/arm_shift_q15.c ****   {
 221:.\DSP\Source\BasicMathFunctions/arm_shift_q15.c ****     while (blkCnt > 0U)
 222:.\DSP\Source\BasicMathFunctions/arm_shift_q15.c ****     {
 223:.\DSP\Source\BasicMathFunctions/arm_shift_q15.c ****       /* C = A << shiftBits */
 224:.\DSP\Source\BasicMathFunctions/arm_shift_q15.c **** 
 225:.\DSP\Source\BasicMathFunctions/arm_shift_q15.c ****       /* Shift input and store result in destination buffer. */
 226:.\DSP\Source\BasicMathFunctions/arm_shift_q15.c ****       *pDst++ = __SSAT(((q31_t) *pSrc++ << shiftBits), 16);
  45              		.loc 1 226 0
  46 0008 951C     		adds	r5, r2, #2
  47              	.LVL4:
  48              	.LBB2:
  49 000a 841C     		adds	r4, r0, #2
  50              	.LVL5:
  51 000c B0F90000 		ldrsh	r0, [r0]
  52 0010 8840     		lsls	r0, r0, r1
  53              	.LVL6:
  54              	@ 226 ".\DSP\Source\BasicMathFunctions\arm_shift_q15.c" 1
  55 0012 00F30F00 		ssat r0, #16, r0
  56              	@ 0 "" 2
  57              	.LVL7:
  58              		.thumb
  59              	.LBE2:
ARM GAS  C:\Users\IVYLIU~1\AppData\Local\Temp\ccJ1NMXZ.s 			page 6


  60 0016 1080     		strh	r0, [r2]	@ movhi
  61              	.LVL8:
 227:.\DSP\Source\BasicMathFunctions/arm_shift_q15.c **** 
 228:.\DSP\Source\BasicMathFunctions/arm_shift_q15.c ****       /* Decrement loop counter */
 229:.\DSP\Source\BasicMathFunctions/arm_shift_q15.c ****       blkCnt--;
  62              		.loc 1 229 0
  63 0018 013B     		subs	r3, r3, #1
  64              	.LVL9:
 226:.\DSP\Source\BasicMathFunctions/arm_shift_q15.c **** 
  65              		.loc 1 226 0
  66 001a 2A46     		mov	r2, r5
  67              	.LBB3:
  68 001c 2046     		mov	r0, r4
  69              	.LVL10:
  70              	.L2:
  71              	.LBE3:
 221:.\DSP\Source\BasicMathFunctions/arm_shift_q15.c ****     {
  72              		.loc 1 221 0
  73 001e 002B     		cmp	r3, #0
  74 0020 F2D1     		bne	.L4
  75 0022 09E0     		b	.L1
  76              	.L6:
  77              	.LVL11:
 230:.\DSP\Source\BasicMathFunctions/arm_shift_q15.c ****     }
 231:.\DSP\Source\BasicMathFunctions/arm_shift_q15.c ****   }
 232:.\DSP\Source\BasicMathFunctions/arm_shift_q15.c ****   else
 233:.\DSP\Source\BasicMathFunctions/arm_shift_q15.c ****   {
 234:.\DSP\Source\BasicMathFunctions/arm_shift_q15.c ****     while (blkCnt > 0U)
 235:.\DSP\Source\BasicMathFunctions/arm_shift_q15.c ****     {
 236:.\DSP\Source\BasicMathFunctions/arm_shift_q15.c ****       /* C = A >> shiftBits */
 237:.\DSP\Source\BasicMathFunctions/arm_shift_q15.c **** 
 238:.\DSP\Source\BasicMathFunctions/arm_shift_q15.c ****       /* Shift input and store result in destination buffer. */
 239:.\DSP\Source\BasicMathFunctions/arm_shift_q15.c ****       *pDst++ = (*pSrc++ >> -shiftBits);
  78              		.loc 1 239 0
  79 0024 4D42     		negs	r5, r1
  80 0026 B0F90040 		ldrsh	r4, [r0]
  81 002a 2C41     		asrs	r4, r4, r5
  82 002c 1480     		strh	r4, [r2]	@ movhi
 240:.\DSP\Source\BasicMathFunctions/arm_shift_q15.c **** 
 241:.\DSP\Source\BasicMathFunctions/arm_shift_q15.c ****       /* Decrement loop counter */
 242:.\DSP\Source\BasicMathFunctions/arm_shift_q15.c ****       blkCnt--;
  83              		.loc 1 242 0
  84 002e 013B     		subs	r3, r3, #1
  85              	.LVL12:
 239:.\DSP\Source\BasicMathFunctions/arm_shift_q15.c **** 
  86              		.loc 1 239 0
  87 0030 0232     		adds	r2, r2, #2
  88              	.LVL13:
  89 0032 0230     		adds	r0, r0, #2
  90              	.LVL14:
  91              	.L3:
 234:.\DSP\Source\BasicMathFunctions/arm_shift_q15.c ****     {
  92              		.loc 1 234 0
  93 0034 002B     		cmp	r3, #0
  94 0036 F5D1     		bne	.L6
  95              	.L1:
 243:.\DSP\Source\BasicMathFunctions/arm_shift_q15.c ****     }
ARM GAS  C:\Users\IVYLIU~1\AppData\Local\Temp\ccJ1NMXZ.s 			page 7


 244:.\DSP\Source\BasicMathFunctions/arm_shift_q15.c ****   }
 245:.\DSP\Source\BasicMathFunctions/arm_shift_q15.c **** 
 246:.\DSP\Source\BasicMathFunctions/arm_shift_q15.c **** }
  96              		.loc 1 246 0
  97 0038 30BC     		pop	{r4, r5}
  98              		.cfi_restore 5
  99              		.cfi_restore 4
 100              		.cfi_def_cfa_offset 0
 101 003a 7047     		bx	lr
 102              		.cfi_endproc
 103              	.LFE83:
 104              		.size	arm_shift_q15, .-arm_shift_q15
 105              		.text
 106              	.Letext0:
 107              		.file 2 "c:\\program files (x86)\\cypress\\psoc creator\\3.3\\psoc creator\\import\\gnu\\arm\\4.9.
 108              		.file 3 "c:\\program files (x86)\\cypress\\psoc creator\\3.3\\psoc creator\\import\\gnu\\arm\\4.9.
 109              		.file 4 ".\\DSP\\Include/arm_math_types.h"
 110              		.file 5 ".\\Core\\Include/cmsis_gcc.h"