ARM GAS  C:\Users\IVYLIU~1\AppData\Local\Temp\ccN0XDEM.s 			page 1


   1              		.syntax unified
   2              		.cpu cortex-m3
   3              		.fpu softvfp
   4              		.eabi_attribute 20, 1
   5              		.eabi_attribute 21, 1
   6              		.eabi_attribute 23, 3
   7              		.eabi_attribute 24, 1
   8              		.eabi_attribute 25, 1
   9              		.eabi_attribute 26, 1
  10              		.eabi_attribute 30, 1
  11              		.eabi_attribute 34, 1
  12              		.eabi_attribute 18, 4
  13              		.thumb
  14              		.file	"arm_clip_f32.c"
  15              		.text
  16              	.Ltext0:
  17              		.cfi_sections	.debug_frame
  18              		.global	__aeabi_fcmpgt
  19              		.global	__aeabi_fcmplt
  20              		.section	.text.arm_clip_f32,"ax",%progbits
  21              		.align	2
  22              		.global	arm_clip_f32
  23              		.thumb
  24              		.thumb_func
  25              		.type	arm_clip_f32, %function
  26              	arm_clip_f32:
  27              	.LFB83:
  28              		.file 1 ".\\DSP\\Source\\BasicMathFunctions\\arm_clip_f32.c"
   1:.\DSP\Source\BasicMathFunctions/arm_clip_f32.c **** /* ----------------------------------------------------------------------
   2:.\DSP\Source\BasicMathFunctions/arm_clip_f32.c ****  * Project:      CMSIS DSP Library
   3:.\DSP\Source\BasicMathFunctions/arm_clip_f32.c ****  * Title:        arm_clip_f32.c
   4:.\DSP\Source\BasicMathFunctions/arm_clip_f32.c ****  * Description:  Floating-point vector addition
   5:.\DSP\Source\BasicMathFunctions/arm_clip_f32.c ****  *
   6:.\DSP\Source\BasicMathFunctions/arm_clip_f32.c ****  * $Date:        23 April 2021
   7:.\DSP\Source\BasicMathFunctions/arm_clip_f32.c ****  * $Revision:    V1.9.0
   8:.\DSP\Source\BasicMathFunctions/arm_clip_f32.c ****  *
   9:.\DSP\Source\BasicMathFunctions/arm_clip_f32.c ****  * Target Processor: Cortex-M and Cortex-A cores
  10:.\DSP\Source\BasicMathFunctions/arm_clip_f32.c ****  * -------------------------------------------------------------------- */
  11:.\DSP\Source\BasicMathFunctions/arm_clip_f32.c **** /*
  12:.\DSP\Source\BasicMathFunctions/arm_clip_f32.c ****  * Copyright (C) 2010-2021 ARM Limited or its affiliates. All rights reserved.
  13:.\DSP\Source\BasicMathFunctions/arm_clip_f32.c ****  *
  14:.\DSP\Source\BasicMathFunctions/arm_clip_f32.c ****  * SPDX-License-Identifier: Apache-2.0
  15:.\DSP\Source\BasicMathFunctions/arm_clip_f32.c ****  *
  16:.\DSP\Source\BasicMathFunctions/arm_clip_f32.c ****  * Licensed under the Apache License, Version 2.0 (the License); you may
  17:.\DSP\Source\BasicMathFunctions/arm_clip_f32.c ****  * not use this file except in compliance with the License.
  18:.\DSP\Source\BasicMathFunctions/arm_clip_f32.c ****  * You may obtain a copy of the License at
  19:.\DSP\Source\BasicMathFunctions/arm_clip_f32.c ****  *
  20:.\DSP\Source\BasicMathFunctions/arm_clip_f32.c ****  * www.apache.org/licenses/LICENSE-2.0
  21:.\DSP\Source\BasicMathFunctions/arm_clip_f32.c ****  *
  22:.\DSP\Source\BasicMathFunctions/arm_clip_f32.c ****  * Unless required by applicable law or agreed to in writing, software
  23:.\DSP\Source\BasicMathFunctions/arm_clip_f32.c ****  * distributed under the License is distributed on an AS IS BASIS, WITHOUT
  24:.\DSP\Source\BasicMathFunctions/arm_clip_f32.c ****  * WARRANTIES OR CONDITIONS OF ANY KIND, either express or implied.
  25:.\DSP\Source\BasicMathFunctions/arm_clip_f32.c ****  * See the License for the specific language governing permissions and
  26:.\DSP\Source\BasicMathFunctions/arm_clip_f32.c ****  * limitations under the License.
  27:.\DSP\Source\BasicMathFunctions/arm_clip_f32.c ****  */
  28:.\DSP\Source\BasicMathFunctions/arm_clip_f32.c **** 
  29:.\DSP\Source\BasicMathFunctions/arm_clip_f32.c **** #include "dsp/basic_math_functions.h"
ARM GAS  C:\Users\IVYLIU~1\AppData\Local\Temp\ccN0XDEM.s 			page 2


  30:.\DSP\Source\BasicMathFunctions/arm_clip_f32.c **** 
  31:.\DSP\Source\BasicMathFunctions/arm_clip_f32.c **** /**
  32:.\DSP\Source\BasicMathFunctions/arm_clip_f32.c ****   @ingroup groupMath
  33:.\DSP\Source\BasicMathFunctions/arm_clip_f32.c ****  */
  34:.\DSP\Source\BasicMathFunctions/arm_clip_f32.c **** 
  35:.\DSP\Source\BasicMathFunctions/arm_clip_f32.c **** /**
  36:.\DSP\Source\BasicMathFunctions/arm_clip_f32.c ****   @defgroup BasicClip Elementwise clipping
  37:.\DSP\Source\BasicMathFunctions/arm_clip_f32.c **** 
  38:.\DSP\Source\BasicMathFunctions/arm_clip_f32.c ****   Element-by-element clipping of a value.
  39:.\DSP\Source\BasicMathFunctions/arm_clip_f32.c **** 
  40:.\DSP\Source\BasicMathFunctions/arm_clip_f32.c ****   The value is constrained between 2 bounds.
  41:.\DSP\Source\BasicMathFunctions/arm_clip_f32.c **** 
  42:.\DSP\Source\BasicMathFunctions/arm_clip_f32.c ****   There are separate functions for floating-point, Q7, Q15, and Q31 data types.
  43:.\DSP\Source\BasicMathFunctions/arm_clip_f32.c ****  */
  44:.\DSP\Source\BasicMathFunctions/arm_clip_f32.c **** 
  45:.\DSP\Source\BasicMathFunctions/arm_clip_f32.c **** /**
  46:.\DSP\Source\BasicMathFunctions/arm_clip_f32.c ****   @addtogroup BasicClip
  47:.\DSP\Source\BasicMathFunctions/arm_clip_f32.c ****   @{
  48:.\DSP\Source\BasicMathFunctions/arm_clip_f32.c ****  */
  49:.\DSP\Source\BasicMathFunctions/arm_clip_f32.c **** 
  50:.\DSP\Source\BasicMathFunctions/arm_clip_f32.c **** /**
  51:.\DSP\Source\BasicMathFunctions/arm_clip_f32.c ****   @brief         Elementwise floating-point clipping
  52:.\DSP\Source\BasicMathFunctions/arm_clip_f32.c ****   @param[in]     pSrc          points to input values
  53:.\DSP\Source\BasicMathFunctions/arm_clip_f32.c ****   @param[out]    pDst          points to output clipped values
  54:.\DSP\Source\BasicMathFunctions/arm_clip_f32.c ****   @param[in]     low           lower bound
  55:.\DSP\Source\BasicMathFunctions/arm_clip_f32.c ****   @param[in]     high          higher bound
  56:.\DSP\Source\BasicMathFunctions/arm_clip_f32.c ****   @param[in]     numSamples    number of samples to clip
  57:.\DSP\Source\BasicMathFunctions/arm_clip_f32.c ****   @return        none
  58:.\DSP\Source\BasicMathFunctions/arm_clip_f32.c ****  */
  59:.\DSP\Source\BasicMathFunctions/arm_clip_f32.c **** #if defined(ARM_MATH_MVEF) && !defined(ARM_MATH_AUTOVECTORIZE)
  60:.\DSP\Source\BasicMathFunctions/arm_clip_f32.c **** 
  61:.\DSP\Source\BasicMathFunctions/arm_clip_f32.c **** #include "arm_helium_utils.h"
  62:.\DSP\Source\BasicMathFunctions/arm_clip_f32.c **** 
  63:.\DSP\Source\BasicMathFunctions/arm_clip_f32.c **** void arm_clip_f32(const float32_t * pSrc, 
  64:.\DSP\Source\BasicMathFunctions/arm_clip_f32.c ****   float32_t * pDst, 
  65:.\DSP\Source\BasicMathFunctions/arm_clip_f32.c ****   float32_t low, 
  66:.\DSP\Source\BasicMathFunctions/arm_clip_f32.c ****   float32_t high, 
  67:.\DSP\Source\BasicMathFunctions/arm_clip_f32.c ****   uint32_t numSamples)
  68:.\DSP\Source\BasicMathFunctions/arm_clip_f32.c **** {
  69:.\DSP\Source\BasicMathFunctions/arm_clip_f32.c ****     uint32_t  blkCnt;
  70:.\DSP\Source\BasicMathFunctions/arm_clip_f32.c ****     f32x4_t curVec0, curVec1;
  71:.\DSP\Source\BasicMathFunctions/arm_clip_f32.c ****     f32x4_t vecLow, vecHigh;
  72:.\DSP\Source\BasicMathFunctions/arm_clip_f32.c **** 
  73:.\DSP\Source\BasicMathFunctions/arm_clip_f32.c ****     vecLow = vdupq_n_f32(low);
  74:.\DSP\Source\BasicMathFunctions/arm_clip_f32.c ****     vecHigh = vdupq_n_f32(high);
  75:.\DSP\Source\BasicMathFunctions/arm_clip_f32.c **** 
  76:.\DSP\Source\BasicMathFunctions/arm_clip_f32.c ****     curVec0 = vld1q(pSrc);
  77:.\DSP\Source\BasicMathFunctions/arm_clip_f32.c ****     pSrc += 4;
  78:.\DSP\Source\BasicMathFunctions/arm_clip_f32.c ****     /*
  79:.\DSP\Source\BasicMathFunctions/arm_clip_f32.c ****      * unrolled x 2 to allow
  80:.\DSP\Source\BasicMathFunctions/arm_clip_f32.c ****      * vldr/vstr/vmin/vmax
  81:.\DSP\Source\BasicMathFunctions/arm_clip_f32.c ****      * stall free interleaving
  82:.\DSP\Source\BasicMathFunctions/arm_clip_f32.c ****      */
  83:.\DSP\Source\BasicMathFunctions/arm_clip_f32.c ****     blkCnt = numSamples >> 3;
  84:.\DSP\Source\BasicMathFunctions/arm_clip_f32.c ****     while (blkCnt--)
  85:.\DSP\Source\BasicMathFunctions/arm_clip_f32.c ****     {
  86:.\DSP\Source\BasicMathFunctions/arm_clip_f32.c ****         curVec0 = vmaxnmq(curVec0, vecLow);
ARM GAS  C:\Users\IVYLIU~1\AppData\Local\Temp\ccN0XDEM.s 			page 3


  87:.\DSP\Source\BasicMathFunctions/arm_clip_f32.c ****         curVec1 = vld1q(pSrc);
  88:.\DSP\Source\BasicMathFunctions/arm_clip_f32.c ****         pSrc += 4;
  89:.\DSP\Source\BasicMathFunctions/arm_clip_f32.c ****         curVec0 = vminnmq(curVec0, vecHigh);
  90:.\DSP\Source\BasicMathFunctions/arm_clip_f32.c ****         vst1q(pDst, curVec0);
  91:.\DSP\Source\BasicMathFunctions/arm_clip_f32.c ****         pDst += 4;
  92:.\DSP\Source\BasicMathFunctions/arm_clip_f32.c ****         curVec1 = vmaxnmq(curVec1, vecLow);
  93:.\DSP\Source\BasicMathFunctions/arm_clip_f32.c ****         curVec0 = vld1q(pSrc);
  94:.\DSP\Source\BasicMathFunctions/arm_clip_f32.c ****         pSrc += 4;
  95:.\DSP\Source\BasicMathFunctions/arm_clip_f32.c ****         curVec1 = vminnmq(curVec1, vecHigh);
  96:.\DSP\Source\BasicMathFunctions/arm_clip_f32.c ****         vst1q(pDst, curVec1);
  97:.\DSP\Source\BasicMathFunctions/arm_clip_f32.c ****         pDst += 4;
  98:.\DSP\Source\BasicMathFunctions/arm_clip_f32.c ****     }
  99:.\DSP\Source\BasicMathFunctions/arm_clip_f32.c ****     /*
 100:.\DSP\Source\BasicMathFunctions/arm_clip_f32.c ****      * Tail handling
 101:.\DSP\Source\BasicMathFunctions/arm_clip_f32.c ****      */
 102:.\DSP\Source\BasicMathFunctions/arm_clip_f32.c ****     blkCnt = numSamples - ((numSamples >> 3) << 3);
 103:.\DSP\Source\BasicMathFunctions/arm_clip_f32.c ****     if (blkCnt >= 4)
 104:.\DSP\Source\BasicMathFunctions/arm_clip_f32.c ****     {
 105:.\DSP\Source\BasicMathFunctions/arm_clip_f32.c ****         curVec0 = vmaxnmq(curVec0, vecLow);
 106:.\DSP\Source\BasicMathFunctions/arm_clip_f32.c ****         curVec0 = vminnmq(curVec0, vecHigh);
 107:.\DSP\Source\BasicMathFunctions/arm_clip_f32.c ****         vst1q(pDst, curVec0);
 108:.\DSP\Source\BasicMathFunctions/arm_clip_f32.c ****         pDst += 4;
 109:.\DSP\Source\BasicMathFunctions/arm_clip_f32.c ****         curVec0 = vld1q(pSrc);
 110:.\DSP\Source\BasicMathFunctions/arm_clip_f32.c ****         pSrc += 4;
 111:.\DSP\Source\BasicMathFunctions/arm_clip_f32.c ****     }
 112:.\DSP\Source\BasicMathFunctions/arm_clip_f32.c **** 
 113:.\DSP\Source\BasicMathFunctions/arm_clip_f32.c ****     if (blkCnt > 0)
 114:.\DSP\Source\BasicMathFunctions/arm_clip_f32.c ****     {
 115:.\DSP\Source\BasicMathFunctions/arm_clip_f32.c ****         mve_pred16_t p0 = vctp32q(blkCnt & 3);
 116:.\DSP\Source\BasicMathFunctions/arm_clip_f32.c ****         curVec0 = vmaxnmq(curVec0, vecLow);
 117:.\DSP\Source\BasicMathFunctions/arm_clip_f32.c ****         curVec0 = vminnmq(curVec0, vecHigh);
 118:.\DSP\Source\BasicMathFunctions/arm_clip_f32.c ****         vstrwq_p(pDst, curVec0, p0);
 119:.\DSP\Source\BasicMathFunctions/arm_clip_f32.c ****     }
 120:.\DSP\Source\BasicMathFunctions/arm_clip_f32.c **** }
 121:.\DSP\Source\BasicMathFunctions/arm_clip_f32.c **** 
 122:.\DSP\Source\BasicMathFunctions/arm_clip_f32.c **** #else
 123:.\DSP\Source\BasicMathFunctions/arm_clip_f32.c **** void arm_clip_f32(const float32_t * pSrc, 
 124:.\DSP\Source\BasicMathFunctions/arm_clip_f32.c ****   float32_t * pDst, 
 125:.\DSP\Source\BasicMathFunctions/arm_clip_f32.c ****   float32_t low, 
 126:.\DSP\Source\BasicMathFunctions/arm_clip_f32.c ****   float32_t high, 
 127:.\DSP\Source\BasicMathFunctions/arm_clip_f32.c ****   uint32_t numSamples)
 128:.\DSP\Source\BasicMathFunctions/arm_clip_f32.c **** {
  29              		.loc 1 128 0
  30              		.cfi_startproc
  31              		@ args = 4, pretend = 0, frame = 0
  32              		@ frame_needed = 0, uses_anonymous_args = 0
  33              	.LVL0:
  34 0000 2DE9F84F 		push	{r3, r4, r5, r6, r7, r8, r9, r10, fp, lr}
  35              		.cfi_def_cfa_offset 40
  36              		.cfi_offset 3, -40
  37              		.cfi_offset 4, -36
  38              		.cfi_offset 5, -32
  39              		.cfi_offset 6, -28
  40              		.cfi_offset 7, -24
  41              		.cfi_offset 8, -20
  42              		.cfi_offset 9, -16
  43              		.cfi_offset 10, -12
ARM GAS  C:\Users\IVYLIU~1\AppData\Local\Temp\ccN0XDEM.s 			page 4


  44              		.cfi_offset 11, -8
  45              		.cfi_offset 14, -4
  46 0004 8146     		mov	r9, r0
  47 0006 8A46     		mov	r10, r1
  48 0008 9346     		mov	fp, r2
  49 000a 1E46     		mov	r6, r3
  50 000c DDF82880 		ldr	r8, [sp, #40]
  51              	.LVL1:
 129:.\DSP\Source\BasicMathFunctions/arm_clip_f32.c ****     uint32_t i;
 130:.\DSP\Source\BasicMathFunctions/arm_clip_f32.c ****     for (i = 0; i < numSamples; i++)
  52              		.loc 1 130 0
  53 0010 0024     		movs	r4, #0
  54 0012 15E0     		b	.L2
  55              	.LVL2:
  56              	.L8:
 131:.\DSP\Source\BasicMathFunctions/arm_clip_f32.c ****     {                                        
 132:.\DSP\Source\BasicMathFunctions/arm_clip_f32.c ****         if (pSrc[i] > high)                  
  57              		.loc 1 132 0
  58 0014 A700     		lsls	r7, r4, #2
  59 0016 59F82450 		ldr	r5, [r9, r4, lsl #2]	@ float
  60 001a 2846     		mov	r0, r5
  61 001c 3146     		mov	r1, r6
  62 001e FFF7FEFF 		bl	__aeabi_fcmpgt
  63              	.LVL3:
  64 0022 10B1     		cbz	r0, .L11
 133:.\DSP\Source\BasicMathFunctions/arm_clip_f32.c ****             pDst[i] = high;                  
  65              		.loc 1 133 0
  66 0024 4AF82460 		str	r6, [r10, r4, lsl #2]	@ float
  67 0028 09E0     		b	.L5
  68              	.L11:
 134:.\DSP\Source\BasicMathFunctions/arm_clip_f32.c ****         else if (pSrc[i] < low)              
  69              		.loc 1 134 0
  70 002a 2846     		mov	r0, r5
  71 002c 5946     		mov	r1, fp
  72 002e FFF7FEFF 		bl	__aeabi_fcmplt
  73              	.LVL4:
  74 0032 10B1     		cbz	r0, .L12
 135:.\DSP\Source\BasicMathFunctions/arm_clip_f32.c ****             pDst[i] = low;                   
  75              		.loc 1 135 0
  76 0034 4AF807B0 		str	fp, [r10, r7]	@ float
  77 0038 01E0     		b	.L5
  78              	.L12:
 136:.\DSP\Source\BasicMathFunctions/arm_clip_f32.c ****         else                                 
 137:.\DSP\Source\BasicMathFunctions/arm_clip_f32.c ****             pDst[i] = pSrc[i];               
  79              		.loc 1 137 0
  80 003a 4AF80750 		str	r5, [r10, r7]	@ float
  81              	.L5:
 130:.\DSP\Source\BasicMathFunctions/arm_clip_f32.c ****     {                                        
  82              		.loc 1 130 0 discriminator 2
  83 003e 0134     		adds	r4, r4, #1
  84              	.LVL5:
  85              	.L2:
 130:.\DSP\Source\BasicMathFunctions/arm_clip_f32.c ****     {                                        
  86              		.loc 1 130 0 is_stmt 0 discriminator 1
  87 0040 4445     		cmp	r4, r8
  88 0042 E7D3     		bcc	.L8
 138:.\DSP\Source\BasicMathFunctions/arm_clip_f32.c ****     }
ARM GAS  C:\Users\IVYLIU~1\AppData\Local\Temp\ccN0XDEM.s 			page 5


 139:.\DSP\Source\BasicMathFunctions/arm_clip_f32.c **** }
  89              		.loc 1 139 0 is_stmt 1
  90 0044 BDE8F88F 		pop	{r3, r4, r5, r6, r7, r8, r9, r10, fp, pc}
  91              		.cfi_endproc
  92              	.LFE83:
  93              		.size	arm_clip_f32, .-arm_clip_f32
  94              		.text
  95              	.Letext0:
  96              		.file 2 "c:\\program files (x86)\\cypress\\psoc creator\\3.3\\psoc creator\\import\\gnu\\arm\\4.9.
  97              		.file 3 "c:\\program files (x86)\\cypress\\psoc creator\\3.3\\psoc creator\\import\\gnu\\arm\\4.9.
  98              		.file 4 ".\\DSP\\Include/arm_math_types.h"
  99              		.file 5 ".\\Core\\Include/cmsis_gcc.h"