ARM GAS  C:\Users\IVYLIU~1\AppData\Local\Temp\ccMeLXre.s 			page 1


   1              		.syntax unified
   2              		.cpu cortex-m3
   3              		.fpu softvfp
   4              		.eabi_attribute 20, 1
   5              		.eabi_attribute 21, 1
   6              		.eabi_attribute 23, 3
   7              		.eabi_attribute 24, 1
   8              		.eabi_attribute 25, 1
   9              		.eabi_attribute 26, 1
  10              		.eabi_attribute 30, 1
  11              		.eabi_attribute 34, 1
  12              		.eabi_attribute 18, 4
  13              		.thumb
  14              		.file	"arm_cmplx_mult_cmplx_f32.c"
  15              		.text
  16              	.Ltext0:
  17              		.cfi_sections	.debug_frame
  18              		.global	__aeabi_fmul
  19              		.global	__aeabi_fsub
  20              		.global	__aeabi_fadd
  21              		.section	.text.arm_cmplx_mult_cmplx_f32,"ax",%progbits
  22              		.align	2
  23              		.global	arm_cmplx_mult_cmplx_f32
  24              		.thumb
  25              		.thumb_func
  26              		.type	arm_cmplx_mult_cmplx_f32, %function
  27              	arm_cmplx_mult_cmplx_f32:
  28              	.LFB84:
  29              		.file 1 ".\\DSP\\Source\\ComplexMathFunctions\\arm_cmplx_mult_cmplx_f32.c"
   1:.\DSP\Source\ComplexMathFunctions/arm_cmplx_mult_cmplx_f32.c **** /* ----------------------------------------------------------------------
   2:.\DSP\Source\ComplexMathFunctions/arm_cmplx_mult_cmplx_f32.c ****  * Project:      CMSIS DSP Library
   3:.\DSP\Source\ComplexMathFunctions/arm_cmplx_mult_cmplx_f32.c ****  * Title:        arm_cmplx_mult_cmplx_f32.c
   4:.\DSP\Source\ComplexMathFunctions/arm_cmplx_mult_cmplx_f32.c ****  * Description:  Floating-point complex-by-complex multiplication
   5:.\DSP\Source\ComplexMathFunctions/arm_cmplx_mult_cmplx_f32.c ****  *
   6:.\DSP\Source\ComplexMathFunctions/arm_cmplx_mult_cmplx_f32.c ****  * $Date:        23 April 2021
   7:.\DSP\Source\ComplexMathFunctions/arm_cmplx_mult_cmplx_f32.c ****  * $Revision:    V1.9.0
   8:.\DSP\Source\ComplexMathFunctions/arm_cmplx_mult_cmplx_f32.c ****  *
   9:.\DSP\Source\ComplexMathFunctions/arm_cmplx_mult_cmplx_f32.c ****  * Target Processor: Cortex-M and Cortex-A cores
  10:.\DSP\Source\ComplexMathFunctions/arm_cmplx_mult_cmplx_f32.c ****  * -------------------------------------------------------------------- */
  11:.\DSP\Source\ComplexMathFunctions/arm_cmplx_mult_cmplx_f32.c **** /*
  12:.\DSP\Source\ComplexMathFunctions/arm_cmplx_mult_cmplx_f32.c ****  * Copyright (C) 2010-2021 ARM Limited or its affiliates. All rights reserved.
  13:.\DSP\Source\ComplexMathFunctions/arm_cmplx_mult_cmplx_f32.c ****  *
  14:.\DSP\Source\ComplexMathFunctions/arm_cmplx_mult_cmplx_f32.c ****  * SPDX-License-Identifier: Apache-2.0
  15:.\DSP\Source\ComplexMathFunctions/arm_cmplx_mult_cmplx_f32.c ****  *
  16:.\DSP\Source\ComplexMathFunctions/arm_cmplx_mult_cmplx_f32.c ****  * Licensed under the Apache License, Version 2.0 (the License); you may
  17:.\DSP\Source\ComplexMathFunctions/arm_cmplx_mult_cmplx_f32.c ****  * not use this file except in compliance with the License.
  18:.\DSP\Source\ComplexMathFunctions/arm_cmplx_mult_cmplx_f32.c ****  * You may obtain a copy of the License at
  19:.\DSP\Source\ComplexMathFunctions/arm_cmplx_mult_cmplx_f32.c ****  *
  20:.\DSP\Source\ComplexMathFunctions/arm_cmplx_mult_cmplx_f32.c ****  * www.apache.org/licenses/LICENSE-2.0
  21:.\DSP\Source\ComplexMathFunctions/arm_cmplx_mult_cmplx_f32.c ****  *
  22:.\DSP\Source\ComplexMathFunctions/arm_cmplx_mult_cmplx_f32.c ****  * Unless required by applicable law or agreed to in writing, software
  23:.\DSP\Source\ComplexMathFunctions/arm_cmplx_mult_cmplx_f32.c ****  * distributed under the License is distributed on an AS IS BASIS, WITHOUT
  24:.\DSP\Source\ComplexMathFunctions/arm_cmplx_mult_cmplx_f32.c ****  * WARRANTIES OR CONDITIONS OF ANY KIND, either express or implied.
  25:.\DSP\Source\ComplexMathFunctions/arm_cmplx_mult_cmplx_f32.c ****  * See the License for the specific language governing permissions and
  26:.\DSP\Source\ComplexMathFunctions/arm_cmplx_mult_cmplx_f32.c ****  * limitations under the License.
  27:.\DSP\Source\ComplexMathFunctions/arm_cmplx_mult_cmplx_f32.c ****  */
  28:.\DSP\Source\ComplexMathFunctions/arm_cmplx_mult_cmplx_f32.c **** 
ARM GAS  C:\Users\IVYLIU~1\AppData\Local\Temp\ccMeLXre.s 			page 2


  29:.\DSP\Source\ComplexMathFunctions/arm_cmplx_mult_cmplx_f32.c **** #include "dsp/complex_math_functions.h"
  30:.\DSP\Source\ComplexMathFunctions/arm_cmplx_mult_cmplx_f32.c **** 
  31:.\DSP\Source\ComplexMathFunctions/arm_cmplx_mult_cmplx_f32.c **** /**
  32:.\DSP\Source\ComplexMathFunctions/arm_cmplx_mult_cmplx_f32.c ****   @ingroup groupCmplxMath
  33:.\DSP\Source\ComplexMathFunctions/arm_cmplx_mult_cmplx_f32.c ****  */
  34:.\DSP\Source\ComplexMathFunctions/arm_cmplx_mult_cmplx_f32.c **** 
  35:.\DSP\Source\ComplexMathFunctions/arm_cmplx_mult_cmplx_f32.c **** /**
  36:.\DSP\Source\ComplexMathFunctions/arm_cmplx_mult_cmplx_f32.c ****   @defgroup CmplxByCmplxMult Complex-by-Complex Multiplication
  37:.\DSP\Source\ComplexMathFunctions/arm_cmplx_mult_cmplx_f32.c **** 
  38:.\DSP\Source\ComplexMathFunctions/arm_cmplx_mult_cmplx_f32.c ****   Multiplies a complex vector by another complex vector and generates a complex result.
  39:.\DSP\Source\ComplexMathFunctions/arm_cmplx_mult_cmplx_f32.c ****   The data in the complex arrays is stored in an interleaved fashion
  40:.\DSP\Source\ComplexMathFunctions/arm_cmplx_mult_cmplx_f32.c ****   (real, imag, real, imag, ...).
  41:.\DSP\Source\ComplexMathFunctions/arm_cmplx_mult_cmplx_f32.c ****   The parameter <code>numSamples</code> represents the number of complex
  42:.\DSP\Source\ComplexMathFunctions/arm_cmplx_mult_cmplx_f32.c ****   samples processed.  The complex arrays have a total of <code>2*numSamples</code>
  43:.\DSP\Source\ComplexMathFunctions/arm_cmplx_mult_cmplx_f32.c ****   real values.
  44:.\DSP\Source\ComplexMathFunctions/arm_cmplx_mult_cmplx_f32.c **** 
  45:.\DSP\Source\ComplexMathFunctions/arm_cmplx_mult_cmplx_f32.c ****   The underlying algorithm is used:
  46:.\DSP\Source\ComplexMathFunctions/arm_cmplx_mult_cmplx_f32.c **** 
  47:.\DSP\Source\ComplexMathFunctions/arm_cmplx_mult_cmplx_f32.c ****   <pre>
  48:.\DSP\Source\ComplexMathFunctions/arm_cmplx_mult_cmplx_f32.c ****   for (n = 0; n < numSamples; n++) {
  49:.\DSP\Source\ComplexMathFunctions/arm_cmplx_mult_cmplx_f32.c ****       pDst[(2*n)+0] = pSrcA[(2*n)+0] * pSrcB[(2*n)+0] - pSrcA[(2*n)+1] * pSrcB[(2*n)+1];
  50:.\DSP\Source\ComplexMathFunctions/arm_cmplx_mult_cmplx_f32.c ****       pDst[(2*n)+1] = pSrcA[(2*n)+0] * pSrcB[(2*n)+1] + pSrcA[(2*n)+1] * pSrcB[(2*n)+0];
  51:.\DSP\Source\ComplexMathFunctions/arm_cmplx_mult_cmplx_f32.c ****   }
  52:.\DSP\Source\ComplexMathFunctions/arm_cmplx_mult_cmplx_f32.c ****   </pre>
  53:.\DSP\Source\ComplexMathFunctions/arm_cmplx_mult_cmplx_f32.c **** 
  54:.\DSP\Source\ComplexMathFunctions/arm_cmplx_mult_cmplx_f32.c ****   There are separate functions for floating-point, Q15, and Q31 data types.
  55:.\DSP\Source\ComplexMathFunctions/arm_cmplx_mult_cmplx_f32.c ****  */
  56:.\DSP\Source\ComplexMathFunctions/arm_cmplx_mult_cmplx_f32.c **** 
  57:.\DSP\Source\ComplexMathFunctions/arm_cmplx_mult_cmplx_f32.c **** /**
  58:.\DSP\Source\ComplexMathFunctions/arm_cmplx_mult_cmplx_f32.c ****   @addtogroup CmplxByCmplxMult
  59:.\DSP\Source\ComplexMathFunctions/arm_cmplx_mult_cmplx_f32.c ****   @{
  60:.\DSP\Source\ComplexMathFunctions/arm_cmplx_mult_cmplx_f32.c ****  */
  61:.\DSP\Source\ComplexMathFunctions/arm_cmplx_mult_cmplx_f32.c **** 
  62:.\DSP\Source\ComplexMathFunctions/arm_cmplx_mult_cmplx_f32.c **** /**
  63:.\DSP\Source\ComplexMathFunctions/arm_cmplx_mult_cmplx_f32.c ****   @brief         Floating-point complex-by-complex multiplication.
  64:.\DSP\Source\ComplexMathFunctions/arm_cmplx_mult_cmplx_f32.c ****   @param[in]     pSrcA       points to first input vector
  65:.\DSP\Source\ComplexMathFunctions/arm_cmplx_mult_cmplx_f32.c ****   @param[in]     pSrcB       points to second input vector
  66:.\DSP\Source\ComplexMathFunctions/arm_cmplx_mult_cmplx_f32.c ****   @param[out]    pDst        points to output vector
  67:.\DSP\Source\ComplexMathFunctions/arm_cmplx_mult_cmplx_f32.c ****   @param[in]     numSamples  number of samples in each vector
  68:.\DSP\Source\ComplexMathFunctions/arm_cmplx_mult_cmplx_f32.c ****   @return        none
  69:.\DSP\Source\ComplexMathFunctions/arm_cmplx_mult_cmplx_f32.c ****  */
  70:.\DSP\Source\ComplexMathFunctions/arm_cmplx_mult_cmplx_f32.c **** 
  71:.\DSP\Source\ComplexMathFunctions/arm_cmplx_mult_cmplx_f32.c **** #if defined(ARM_MATH_MVEF) && !defined(ARM_MATH_AUTOVECTORIZE)
  72:.\DSP\Source\ComplexMathFunctions/arm_cmplx_mult_cmplx_f32.c **** 
  73:.\DSP\Source\ComplexMathFunctions/arm_cmplx_mult_cmplx_f32.c **** void arm_cmplx_mult_cmplx_f32(
  74:.\DSP\Source\ComplexMathFunctions/arm_cmplx_mult_cmplx_f32.c ****   const float32_t * pSrcA,
  75:.\DSP\Source\ComplexMathFunctions/arm_cmplx_mult_cmplx_f32.c ****   const float32_t * pSrcB,
  76:.\DSP\Source\ComplexMathFunctions/arm_cmplx_mult_cmplx_f32.c ****         float32_t * pDst,
  77:.\DSP\Source\ComplexMathFunctions/arm_cmplx_mult_cmplx_f32.c ****         uint32_t numSamples)
  78:.\DSP\Source\ComplexMathFunctions/arm_cmplx_mult_cmplx_f32.c **** {
  79:.\DSP\Source\ComplexMathFunctions/arm_cmplx_mult_cmplx_f32.c ****      int32_t         blkCnt;
  80:.\DSP\Source\ComplexMathFunctions/arm_cmplx_mult_cmplx_f32.c ****     f32x4_t         vecSrcA, vecSrcB;
  81:.\DSP\Source\ComplexMathFunctions/arm_cmplx_mult_cmplx_f32.c ****     f32x4_t         vecSrcC, vecSrcD;
  82:.\DSP\Source\ComplexMathFunctions/arm_cmplx_mult_cmplx_f32.c ****     f32x4_t         vec_acc;
  83:.\DSP\Source\ComplexMathFunctions/arm_cmplx_mult_cmplx_f32.c **** 
  84:.\DSP\Source\ComplexMathFunctions/arm_cmplx_mult_cmplx_f32.c ****     blkCnt = numSamples >> 2;
  85:.\DSP\Source\ComplexMathFunctions/arm_cmplx_mult_cmplx_f32.c ****     blkCnt -= 1;
ARM GAS  C:\Users\IVYLIU~1\AppData\Local\Temp\ccMeLXre.s 			page 3


  86:.\DSP\Source\ComplexMathFunctions/arm_cmplx_mult_cmplx_f32.c ****     if (blkCnt > 0) {
  87:.\DSP\Source\ComplexMathFunctions/arm_cmplx_mult_cmplx_f32.c ****         /* should give more freedom to generate stall free code */
  88:.\DSP\Source\ComplexMathFunctions/arm_cmplx_mult_cmplx_f32.c ****         vecSrcA = vld1q(pSrcA);
  89:.\DSP\Source\ComplexMathFunctions/arm_cmplx_mult_cmplx_f32.c ****         vecSrcB = vld1q(pSrcB);
  90:.\DSP\Source\ComplexMathFunctions/arm_cmplx_mult_cmplx_f32.c ****         pSrcA += 4;
  91:.\DSP\Source\ComplexMathFunctions/arm_cmplx_mult_cmplx_f32.c ****         pSrcB += 4;
  92:.\DSP\Source\ComplexMathFunctions/arm_cmplx_mult_cmplx_f32.c **** 
  93:.\DSP\Source\ComplexMathFunctions/arm_cmplx_mult_cmplx_f32.c ****         while (blkCnt > 0) {
  94:.\DSP\Source\ComplexMathFunctions/arm_cmplx_mult_cmplx_f32.c ****             vec_acc = vcmulq(vecSrcA, vecSrcB);
  95:.\DSP\Source\ComplexMathFunctions/arm_cmplx_mult_cmplx_f32.c ****             vecSrcC = vld1q(pSrcA);
  96:.\DSP\Source\ComplexMathFunctions/arm_cmplx_mult_cmplx_f32.c ****             pSrcA += 4;
  97:.\DSP\Source\ComplexMathFunctions/arm_cmplx_mult_cmplx_f32.c **** 
  98:.\DSP\Source\ComplexMathFunctions/arm_cmplx_mult_cmplx_f32.c ****             vec_acc = vcmlaq_rot90(vec_acc, vecSrcA, vecSrcB);
  99:.\DSP\Source\ComplexMathFunctions/arm_cmplx_mult_cmplx_f32.c ****             vecSrcD = vld1q(pSrcB);
 100:.\DSP\Source\ComplexMathFunctions/arm_cmplx_mult_cmplx_f32.c ****             pSrcB += 4;
 101:.\DSP\Source\ComplexMathFunctions/arm_cmplx_mult_cmplx_f32.c ****             vst1q(pDst, vec_acc);
 102:.\DSP\Source\ComplexMathFunctions/arm_cmplx_mult_cmplx_f32.c ****             pDst += 4;
 103:.\DSP\Source\ComplexMathFunctions/arm_cmplx_mult_cmplx_f32.c **** 
 104:.\DSP\Source\ComplexMathFunctions/arm_cmplx_mult_cmplx_f32.c ****             vec_acc = vcmulq(vecSrcC, vecSrcD);
 105:.\DSP\Source\ComplexMathFunctions/arm_cmplx_mult_cmplx_f32.c ****             vecSrcA = vld1q(pSrcA);
 106:.\DSP\Source\ComplexMathFunctions/arm_cmplx_mult_cmplx_f32.c ****             pSrcA += 4;
 107:.\DSP\Source\ComplexMathFunctions/arm_cmplx_mult_cmplx_f32.c **** 
 108:.\DSP\Source\ComplexMathFunctions/arm_cmplx_mult_cmplx_f32.c ****             vec_acc = vcmlaq_rot90(vec_acc, vecSrcC, vecSrcD);
 109:.\DSP\Source\ComplexMathFunctions/arm_cmplx_mult_cmplx_f32.c ****             vecSrcB = vld1q(pSrcB);
 110:.\DSP\Source\ComplexMathFunctions/arm_cmplx_mult_cmplx_f32.c ****             pSrcB += 4;
 111:.\DSP\Source\ComplexMathFunctions/arm_cmplx_mult_cmplx_f32.c ****             vst1q(pDst, vec_acc);
 112:.\DSP\Source\ComplexMathFunctions/arm_cmplx_mult_cmplx_f32.c ****             pDst += 4;
 113:.\DSP\Source\ComplexMathFunctions/arm_cmplx_mult_cmplx_f32.c ****             /*
 114:.\DSP\Source\ComplexMathFunctions/arm_cmplx_mult_cmplx_f32.c ****              * Decrement the blockSize loop counter
 115:.\DSP\Source\ComplexMathFunctions/arm_cmplx_mult_cmplx_f32.c ****              */
 116:.\DSP\Source\ComplexMathFunctions/arm_cmplx_mult_cmplx_f32.c ****             blkCnt--;
 117:.\DSP\Source\ComplexMathFunctions/arm_cmplx_mult_cmplx_f32.c ****         }
 118:.\DSP\Source\ComplexMathFunctions/arm_cmplx_mult_cmplx_f32.c **** 
 119:.\DSP\Source\ComplexMathFunctions/arm_cmplx_mult_cmplx_f32.c ****         /* process last elements out of the loop avoid the armclang breaking the SW pipeline */
 120:.\DSP\Source\ComplexMathFunctions/arm_cmplx_mult_cmplx_f32.c ****         vec_acc = vcmulq(vecSrcA, vecSrcB);
 121:.\DSP\Source\ComplexMathFunctions/arm_cmplx_mult_cmplx_f32.c ****         vecSrcC = vld1q(pSrcA);
 122:.\DSP\Source\ComplexMathFunctions/arm_cmplx_mult_cmplx_f32.c **** 
 123:.\DSP\Source\ComplexMathFunctions/arm_cmplx_mult_cmplx_f32.c ****         vec_acc = vcmlaq_rot90(vec_acc, vecSrcA, vecSrcB);
 124:.\DSP\Source\ComplexMathFunctions/arm_cmplx_mult_cmplx_f32.c ****         vecSrcD = vld1q(pSrcB);
 125:.\DSP\Source\ComplexMathFunctions/arm_cmplx_mult_cmplx_f32.c ****         vst1q(pDst, vec_acc);
 126:.\DSP\Source\ComplexMathFunctions/arm_cmplx_mult_cmplx_f32.c ****         pDst += 4;
 127:.\DSP\Source\ComplexMathFunctions/arm_cmplx_mult_cmplx_f32.c **** 
 128:.\DSP\Source\ComplexMathFunctions/arm_cmplx_mult_cmplx_f32.c ****         vec_acc = vcmulq(vecSrcC, vecSrcD);
 129:.\DSP\Source\ComplexMathFunctions/arm_cmplx_mult_cmplx_f32.c ****         vec_acc = vcmlaq_rot90(vec_acc, vecSrcC, vecSrcD);
 130:.\DSP\Source\ComplexMathFunctions/arm_cmplx_mult_cmplx_f32.c ****         vst1q(pDst, vec_acc);
 131:.\DSP\Source\ComplexMathFunctions/arm_cmplx_mult_cmplx_f32.c ****         pDst += 4;
 132:.\DSP\Source\ComplexMathFunctions/arm_cmplx_mult_cmplx_f32.c **** 
 133:.\DSP\Source\ComplexMathFunctions/arm_cmplx_mult_cmplx_f32.c ****         /*
 134:.\DSP\Source\ComplexMathFunctions/arm_cmplx_mult_cmplx_f32.c ****          * tail
 135:.\DSP\Source\ComplexMathFunctions/arm_cmplx_mult_cmplx_f32.c ****          */
 136:.\DSP\Source\ComplexMathFunctions/arm_cmplx_mult_cmplx_f32.c ****         blkCnt = CMPLX_DIM * (numSamples & 3);
 137:.\DSP\Source\ComplexMathFunctions/arm_cmplx_mult_cmplx_f32.c ****         while (blkCnt > 0) {
 138:.\DSP\Source\ComplexMathFunctions/arm_cmplx_mult_cmplx_f32.c ****             mve_pred16_t    p = vctp32q(blkCnt);
 139:.\DSP\Source\ComplexMathFunctions/arm_cmplx_mult_cmplx_f32.c ****             pSrcA += 4;
 140:.\DSP\Source\ComplexMathFunctions/arm_cmplx_mult_cmplx_f32.c ****             pSrcB += 4;
 141:.\DSP\Source\ComplexMathFunctions/arm_cmplx_mult_cmplx_f32.c **** 
 142:.\DSP\Source\ComplexMathFunctions/arm_cmplx_mult_cmplx_f32.c ****             vecSrcA = vldrwq_z_f32(pSrcA, p);
ARM GAS  C:\Users\IVYLIU~1\AppData\Local\Temp\ccMeLXre.s 			page 4


 143:.\DSP\Source\ComplexMathFunctions/arm_cmplx_mult_cmplx_f32.c ****             vecSrcB = vldrwq_z_f32(pSrcB, p);
 144:.\DSP\Source\ComplexMathFunctions/arm_cmplx_mult_cmplx_f32.c ****             vec_acc = vcmulq_m(vuninitializedq_f32(),vecSrcA, vecSrcB, p);
 145:.\DSP\Source\ComplexMathFunctions/arm_cmplx_mult_cmplx_f32.c ****             vec_acc = vcmlaq_rot90_m(vec_acc, vecSrcA, vecSrcB, p);
 146:.\DSP\Source\ComplexMathFunctions/arm_cmplx_mult_cmplx_f32.c **** 
 147:.\DSP\Source\ComplexMathFunctions/arm_cmplx_mult_cmplx_f32.c ****             vstrwq_p_f32(pDst, vec_acc, p);
 148:.\DSP\Source\ComplexMathFunctions/arm_cmplx_mult_cmplx_f32.c ****             pDst += 4;
 149:.\DSP\Source\ComplexMathFunctions/arm_cmplx_mult_cmplx_f32.c **** 
 150:.\DSP\Source\ComplexMathFunctions/arm_cmplx_mult_cmplx_f32.c ****             blkCnt -= 4;
 151:.\DSP\Source\ComplexMathFunctions/arm_cmplx_mult_cmplx_f32.c ****         }
 152:.\DSP\Source\ComplexMathFunctions/arm_cmplx_mult_cmplx_f32.c ****     } else {
 153:.\DSP\Source\ComplexMathFunctions/arm_cmplx_mult_cmplx_f32.c ****         /* small vector */
 154:.\DSP\Source\ComplexMathFunctions/arm_cmplx_mult_cmplx_f32.c ****         blkCnt = numSamples * CMPLX_DIM;
 155:.\DSP\Source\ComplexMathFunctions/arm_cmplx_mult_cmplx_f32.c ****         vec_acc = vdupq_n_f32(0.0f);
 156:.\DSP\Source\ComplexMathFunctions/arm_cmplx_mult_cmplx_f32.c **** 
 157:.\DSP\Source\ComplexMathFunctions/arm_cmplx_mult_cmplx_f32.c ****         do {
 158:.\DSP\Source\ComplexMathFunctions/arm_cmplx_mult_cmplx_f32.c ****             mve_pred16_t    p = vctp32q(blkCnt);
 159:.\DSP\Source\ComplexMathFunctions/arm_cmplx_mult_cmplx_f32.c **** 
 160:.\DSP\Source\ComplexMathFunctions/arm_cmplx_mult_cmplx_f32.c ****             vecSrcA = vldrwq_z_f32(pSrcA, p);
 161:.\DSP\Source\ComplexMathFunctions/arm_cmplx_mult_cmplx_f32.c ****             vecSrcB = vldrwq_z_f32(pSrcB, p);
 162:.\DSP\Source\ComplexMathFunctions/arm_cmplx_mult_cmplx_f32.c **** 
 163:.\DSP\Source\ComplexMathFunctions/arm_cmplx_mult_cmplx_f32.c ****             vec_acc = vcmulq_m(vuninitializedq_f32(),vecSrcA, vecSrcB, p);
 164:.\DSP\Source\ComplexMathFunctions/arm_cmplx_mult_cmplx_f32.c ****             vec_acc = vcmlaq_rot90_m(vec_acc, vecSrcA, vecSrcB, p);
 165:.\DSP\Source\ComplexMathFunctions/arm_cmplx_mult_cmplx_f32.c ****             vstrwq_p_f32(pDst, vec_acc, p);
 166:.\DSP\Source\ComplexMathFunctions/arm_cmplx_mult_cmplx_f32.c ****             pDst += 4;
 167:.\DSP\Source\ComplexMathFunctions/arm_cmplx_mult_cmplx_f32.c **** 
 168:.\DSP\Source\ComplexMathFunctions/arm_cmplx_mult_cmplx_f32.c ****             /*
 169:.\DSP\Source\ComplexMathFunctions/arm_cmplx_mult_cmplx_f32.c ****              * Decrement the blkCnt loop counter
 170:.\DSP\Source\ComplexMathFunctions/arm_cmplx_mult_cmplx_f32.c ****              * Advance vector source and destination pointers
 171:.\DSP\Source\ComplexMathFunctions/arm_cmplx_mult_cmplx_f32.c ****              */
 172:.\DSP\Source\ComplexMathFunctions/arm_cmplx_mult_cmplx_f32.c ****             pSrcA += 4;
 173:.\DSP\Source\ComplexMathFunctions/arm_cmplx_mult_cmplx_f32.c ****             pSrcB += 4;
 174:.\DSP\Source\ComplexMathFunctions/arm_cmplx_mult_cmplx_f32.c ****             blkCnt -= 4;
 175:.\DSP\Source\ComplexMathFunctions/arm_cmplx_mult_cmplx_f32.c ****         }
 176:.\DSP\Source\ComplexMathFunctions/arm_cmplx_mult_cmplx_f32.c ****         while (blkCnt > 0);
 177:.\DSP\Source\ComplexMathFunctions/arm_cmplx_mult_cmplx_f32.c ****     }
 178:.\DSP\Source\ComplexMathFunctions/arm_cmplx_mult_cmplx_f32.c **** 
 179:.\DSP\Source\ComplexMathFunctions/arm_cmplx_mult_cmplx_f32.c **** }
 180:.\DSP\Source\ComplexMathFunctions/arm_cmplx_mult_cmplx_f32.c **** 
 181:.\DSP\Source\ComplexMathFunctions/arm_cmplx_mult_cmplx_f32.c **** #else
 182:.\DSP\Source\ComplexMathFunctions/arm_cmplx_mult_cmplx_f32.c **** void arm_cmplx_mult_cmplx_f32(
 183:.\DSP\Source\ComplexMathFunctions/arm_cmplx_mult_cmplx_f32.c ****   const float32_t * pSrcA,
 184:.\DSP\Source\ComplexMathFunctions/arm_cmplx_mult_cmplx_f32.c ****   const float32_t * pSrcB,
 185:.\DSP\Source\ComplexMathFunctions/arm_cmplx_mult_cmplx_f32.c ****         float32_t * pDst,
 186:.\DSP\Source\ComplexMathFunctions/arm_cmplx_mult_cmplx_f32.c ****         uint32_t numSamples)
 187:.\DSP\Source\ComplexMathFunctions/arm_cmplx_mult_cmplx_f32.c **** {
  30              		.loc 1 187 0
  31              		.cfi_startproc
  32              		@ args = 0, pretend = 0, frame = 8
  33              		@ frame_needed = 0, uses_anonymous_args = 0
  34              	.LVL0:
  35 0000 2DE9F04F 		push	{r4, r5, r6, r7, r8, r9, r10, fp, lr}
  36              		.cfi_def_cfa_offset 36
  37              		.cfi_offset 4, -36
  38              		.cfi_offset 5, -32
  39              		.cfi_offset 6, -28
  40              		.cfi_offset 7, -24
  41              		.cfi_offset 8, -20
ARM GAS  C:\Users\IVYLIU~1\AppData\Local\Temp\ccMeLXre.s 			page 5


  42              		.cfi_offset 9, -16
  43              		.cfi_offset 10, -12
  44              		.cfi_offset 11, -8
  45              		.cfi_offset 14, -4
  46 0004 83B0     		sub	sp, sp, #12
  47              		.cfi_def_cfa_offset 48
  48 0006 9046     		mov	r8, r2
  49 0008 1F46     		mov	r7, r3
  50              	.LVL1:
 188:.\DSP\Source\ComplexMathFunctions/arm_cmplx_mult_cmplx_f32.c ****     uint32_t blkCnt;                               /* Loop counter */
 189:.\DSP\Source\ComplexMathFunctions/arm_cmplx_mult_cmplx_f32.c ****     float32_t a, b, c, d;  /* Temporary variables to store real and imaginary values */
 190:.\DSP\Source\ComplexMathFunctions/arm_cmplx_mult_cmplx_f32.c **** 
 191:.\DSP\Source\ComplexMathFunctions/arm_cmplx_mult_cmplx_f32.c **** #if defined(ARM_MATH_NEON) && !defined(ARM_MATH_AUTOVECTORIZE)
 192:.\DSP\Source\ComplexMathFunctions/arm_cmplx_mult_cmplx_f32.c ****     float32x4x2_t va, vb;
 193:.\DSP\Source\ComplexMathFunctions/arm_cmplx_mult_cmplx_f32.c ****     float32x4x2_t outCplx;
 194:.\DSP\Source\ComplexMathFunctions/arm_cmplx_mult_cmplx_f32.c **** 
 195:.\DSP\Source\ComplexMathFunctions/arm_cmplx_mult_cmplx_f32.c ****     /* Compute 4 outputs at a time */
 196:.\DSP\Source\ComplexMathFunctions/arm_cmplx_mult_cmplx_f32.c ****     blkCnt = numSamples >> 2U;
 197:.\DSP\Source\ComplexMathFunctions/arm_cmplx_mult_cmplx_f32.c **** 
 198:.\DSP\Source\ComplexMathFunctions/arm_cmplx_mult_cmplx_f32.c ****     while (blkCnt > 0U)
 199:.\DSP\Source\ComplexMathFunctions/arm_cmplx_mult_cmplx_f32.c ****     {
 200:.\DSP\Source\ComplexMathFunctions/arm_cmplx_mult_cmplx_f32.c ****         va = vld2q_f32(pSrcA);  // load & separate real/imag pSrcA (de-interleave 2)
 201:.\DSP\Source\ComplexMathFunctions/arm_cmplx_mult_cmplx_f32.c ****         vb = vld2q_f32(pSrcB);  // load & separate real/imag pSrcB
 202:.\DSP\Source\ComplexMathFunctions/arm_cmplx_mult_cmplx_f32.c **** 
 203:.\DSP\Source\ComplexMathFunctions/arm_cmplx_mult_cmplx_f32.c **** 	/* Increment pointers */
 204:.\DSP\Source\ComplexMathFunctions/arm_cmplx_mult_cmplx_f32.c ****         pSrcA += 8;
 205:.\DSP\Source\ComplexMathFunctions/arm_cmplx_mult_cmplx_f32.c ****         pSrcB += 8;
 206:.\DSP\Source\ComplexMathFunctions/arm_cmplx_mult_cmplx_f32.c **** 	
 207:.\DSP\Source\ComplexMathFunctions/arm_cmplx_mult_cmplx_f32.c **** 	/* Re{C} = Re{A}*Re{B} - Im{A}*Im{B} */
 208:.\DSP\Source\ComplexMathFunctions/arm_cmplx_mult_cmplx_f32.c ****         outCplx.val[0] = vmulq_f32(va.val[0], vb.val[0]);
 209:.\DSP\Source\ComplexMathFunctions/arm_cmplx_mult_cmplx_f32.c ****         outCplx.val[0] = vmlsq_f32(outCplx.val[0], va.val[1], vb.val[1]);
 210:.\DSP\Source\ComplexMathFunctions/arm_cmplx_mult_cmplx_f32.c **** 
 211:.\DSP\Source\ComplexMathFunctions/arm_cmplx_mult_cmplx_f32.c **** 	/* Im{C} = Re{A}*Im{B} + Im{A}*Re{B} */
 212:.\DSP\Source\ComplexMathFunctions/arm_cmplx_mult_cmplx_f32.c ****         outCplx.val[1] = vmulq_f32(va.val[0], vb.val[1]);
 213:.\DSP\Source\ComplexMathFunctions/arm_cmplx_mult_cmplx_f32.c ****         outCplx.val[1] = vmlaq_f32(outCplx.val[1], va.val[1], vb.val[0]);
 214:.\DSP\Source\ComplexMathFunctions/arm_cmplx_mult_cmplx_f32.c **** 
 215:.\DSP\Source\ComplexMathFunctions/arm_cmplx_mult_cmplx_f32.c ****         vst2q_f32(pDst, outCplx);
 216:.\DSP\Source\ComplexMathFunctions/arm_cmplx_mult_cmplx_f32.c **** 
 217:.\DSP\Source\ComplexMathFunctions/arm_cmplx_mult_cmplx_f32.c **** 	/* Increment pointer */
 218:.\DSP\Source\ComplexMathFunctions/arm_cmplx_mult_cmplx_f32.c ****         pDst += 8;
 219:.\DSP\Source\ComplexMathFunctions/arm_cmplx_mult_cmplx_f32.c **** 
 220:.\DSP\Source\ComplexMathFunctions/arm_cmplx_mult_cmplx_f32.c **** 	/* Decrement the loop counter */
 221:.\DSP\Source\ComplexMathFunctions/arm_cmplx_mult_cmplx_f32.c ****         blkCnt--;
 222:.\DSP\Source\ComplexMathFunctions/arm_cmplx_mult_cmplx_f32.c ****     }
 223:.\DSP\Source\ComplexMathFunctions/arm_cmplx_mult_cmplx_f32.c **** 
 224:.\DSP\Source\ComplexMathFunctions/arm_cmplx_mult_cmplx_f32.c ****     /* Tail */
 225:.\DSP\Source\ComplexMathFunctions/arm_cmplx_mult_cmplx_f32.c ****     blkCnt = numSamples & 3;
 226:.\DSP\Source\ComplexMathFunctions/arm_cmplx_mult_cmplx_f32.c **** 
 227:.\DSP\Source\ComplexMathFunctions/arm_cmplx_mult_cmplx_f32.c **** #else
 228:.\DSP\Source\ComplexMathFunctions/arm_cmplx_mult_cmplx_f32.c **** #if defined (ARM_MATH_LOOPUNROLL) && !defined(ARM_MATH_AUTOVECTORIZE)
 229:.\DSP\Source\ComplexMathFunctions/arm_cmplx_mult_cmplx_f32.c **** 
 230:.\DSP\Source\ComplexMathFunctions/arm_cmplx_mult_cmplx_f32.c ****   /* Loop unrolling: Compute 4 outputs at a time */
 231:.\DSP\Source\ComplexMathFunctions/arm_cmplx_mult_cmplx_f32.c ****   blkCnt = numSamples >> 2U;
 232:.\DSP\Source\ComplexMathFunctions/arm_cmplx_mult_cmplx_f32.c **** 
 233:.\DSP\Source\ComplexMathFunctions/arm_cmplx_mult_cmplx_f32.c ****   while (blkCnt > 0U)
 234:.\DSP\Source\ComplexMathFunctions/arm_cmplx_mult_cmplx_f32.c ****   {
 235:.\DSP\Source\ComplexMathFunctions/arm_cmplx_mult_cmplx_f32.c ****     /* C[2 * i    ] = A[2 * i] * B[2 * i    ] - A[2 * i + 1] * B[2 * i + 1]. */
ARM GAS  C:\Users\IVYLIU~1\AppData\Local\Temp\ccMeLXre.s 			page 6


 236:.\DSP\Source\ComplexMathFunctions/arm_cmplx_mult_cmplx_f32.c ****     /* C[2 * i + 1] = A[2 * i] * B[2 * i + 1] + A[2 * i + 1] * B[2 * i    ]. */
 237:.\DSP\Source\ComplexMathFunctions/arm_cmplx_mult_cmplx_f32.c **** 
 238:.\DSP\Source\ComplexMathFunctions/arm_cmplx_mult_cmplx_f32.c ****     a = *pSrcA++;
 239:.\DSP\Source\ComplexMathFunctions/arm_cmplx_mult_cmplx_f32.c ****     b = *pSrcA++;
 240:.\DSP\Source\ComplexMathFunctions/arm_cmplx_mult_cmplx_f32.c ****     c = *pSrcB++;
 241:.\DSP\Source\ComplexMathFunctions/arm_cmplx_mult_cmplx_f32.c ****     d = *pSrcB++;
 242:.\DSP\Source\ComplexMathFunctions/arm_cmplx_mult_cmplx_f32.c ****     /* store result in destination buffer. */
 243:.\DSP\Source\ComplexMathFunctions/arm_cmplx_mult_cmplx_f32.c ****     *pDst++ = (a * c) - (b * d);
 244:.\DSP\Source\ComplexMathFunctions/arm_cmplx_mult_cmplx_f32.c ****     *pDst++ = (a * d) + (b * c);
 245:.\DSP\Source\ComplexMathFunctions/arm_cmplx_mult_cmplx_f32.c **** 
 246:.\DSP\Source\ComplexMathFunctions/arm_cmplx_mult_cmplx_f32.c ****     a = *pSrcA++;
 247:.\DSP\Source\ComplexMathFunctions/arm_cmplx_mult_cmplx_f32.c ****     b = *pSrcA++;
 248:.\DSP\Source\ComplexMathFunctions/arm_cmplx_mult_cmplx_f32.c ****     c = *pSrcB++;
 249:.\DSP\Source\ComplexMathFunctions/arm_cmplx_mult_cmplx_f32.c ****     d = *pSrcB++;
 250:.\DSP\Source\ComplexMathFunctions/arm_cmplx_mult_cmplx_f32.c ****     *pDst++ = (a * c) - (b * d);
 251:.\DSP\Source\ComplexMathFunctions/arm_cmplx_mult_cmplx_f32.c ****     *pDst++ = (a * d) + (b * c);
 252:.\DSP\Source\ComplexMathFunctions/arm_cmplx_mult_cmplx_f32.c **** 
 253:.\DSP\Source\ComplexMathFunctions/arm_cmplx_mult_cmplx_f32.c ****     a = *pSrcA++;
 254:.\DSP\Source\ComplexMathFunctions/arm_cmplx_mult_cmplx_f32.c ****     b = *pSrcA++;
 255:.\DSP\Source\ComplexMathFunctions/arm_cmplx_mult_cmplx_f32.c ****     c = *pSrcB++;
 256:.\DSP\Source\ComplexMathFunctions/arm_cmplx_mult_cmplx_f32.c ****     d = *pSrcB++;
 257:.\DSP\Source\ComplexMathFunctions/arm_cmplx_mult_cmplx_f32.c ****     *pDst++ = (a * c) - (b * d);
 258:.\DSP\Source\ComplexMathFunctions/arm_cmplx_mult_cmplx_f32.c ****     *pDst++ = (a * d) + (b * c);
 259:.\DSP\Source\ComplexMathFunctions/arm_cmplx_mult_cmplx_f32.c **** 
 260:.\DSP\Source\ComplexMathFunctions/arm_cmplx_mult_cmplx_f32.c ****     a = *pSrcA++;
 261:.\DSP\Source\ComplexMathFunctions/arm_cmplx_mult_cmplx_f32.c ****     b = *pSrcA++;
 262:.\DSP\Source\ComplexMathFunctions/arm_cmplx_mult_cmplx_f32.c ****     c = *pSrcB++;
 263:.\DSP\Source\ComplexMathFunctions/arm_cmplx_mult_cmplx_f32.c ****     d = *pSrcB++;
 264:.\DSP\Source\ComplexMathFunctions/arm_cmplx_mult_cmplx_f32.c ****     *pDst++ = (a * c) - (b * d);
 265:.\DSP\Source\ComplexMathFunctions/arm_cmplx_mult_cmplx_f32.c ****     *pDst++ = (a * d) + (b * c);
 266:.\DSP\Source\ComplexMathFunctions/arm_cmplx_mult_cmplx_f32.c **** 
 267:.\DSP\Source\ComplexMathFunctions/arm_cmplx_mult_cmplx_f32.c ****     /* Decrement loop counter */
 268:.\DSP\Source\ComplexMathFunctions/arm_cmplx_mult_cmplx_f32.c ****     blkCnt--;
 269:.\DSP\Source\ComplexMathFunctions/arm_cmplx_mult_cmplx_f32.c ****   }
 270:.\DSP\Source\ComplexMathFunctions/arm_cmplx_mult_cmplx_f32.c **** 
 271:.\DSP\Source\ComplexMathFunctions/arm_cmplx_mult_cmplx_f32.c ****   /* Loop unrolling: Compute remaining outputs */
 272:.\DSP\Source\ComplexMathFunctions/arm_cmplx_mult_cmplx_f32.c ****   blkCnt = numSamples % 0x4U;
 273:.\DSP\Source\ComplexMathFunctions/arm_cmplx_mult_cmplx_f32.c **** 
 274:.\DSP\Source\ComplexMathFunctions/arm_cmplx_mult_cmplx_f32.c **** #else
 275:.\DSP\Source\ComplexMathFunctions/arm_cmplx_mult_cmplx_f32.c **** 
 276:.\DSP\Source\ComplexMathFunctions/arm_cmplx_mult_cmplx_f32.c ****   /* Initialize blkCnt with number of samples */
 277:.\DSP\Source\ComplexMathFunctions/arm_cmplx_mult_cmplx_f32.c ****   blkCnt = numSamples;
 278:.\DSP\Source\ComplexMathFunctions/arm_cmplx_mult_cmplx_f32.c **** 
 279:.\DSP\Source\ComplexMathFunctions/arm_cmplx_mult_cmplx_f32.c **** #endif /* #if defined (ARM_MATH_LOOPUNROLL) */
 280:.\DSP\Source\ComplexMathFunctions/arm_cmplx_mult_cmplx_f32.c **** #endif /* #if defined(ARM_MATH_NEON) */
 281:.\DSP\Source\ComplexMathFunctions/arm_cmplx_mult_cmplx_f32.c **** 
 282:.\DSP\Source\ComplexMathFunctions/arm_cmplx_mult_cmplx_f32.c ****   while (blkCnt > 0U)
  51              		.loc 1 282 0
  52 000a 2DE0     		b	.L2
  53              	.LVL2:
  54              	.L3:
 283:.\DSP\Source\ComplexMathFunctions/arm_cmplx_mult_cmplx_f32.c ****   {
 284:.\DSP\Source\ComplexMathFunctions/arm_cmplx_mult_cmplx_f32.c ****     /* C[2 * i    ] = A[2 * i] * B[2 * i    ] - A[2 * i + 1] * B[2 * i + 1]. */
 285:.\DSP\Source\ComplexMathFunctions/arm_cmplx_mult_cmplx_f32.c ****     /* C[2 * i + 1] = A[2 * i] * B[2 * i + 1] + A[2 * i + 1] * B[2 * i    ]. */
 286:.\DSP\Source\ComplexMathFunctions/arm_cmplx_mult_cmplx_f32.c **** 
 287:.\DSP\Source\ComplexMathFunctions/arm_cmplx_mult_cmplx_f32.c ****     a = *pSrcA++;
  55              		.loc 1 287 0
ARM GAS  C:\Users\IVYLIU~1\AppData\Local\Temp\ccMeLXre.s 			page 7


  56 000c 0446     		mov	r4, r0
  57 000e 54F808BB 		ldr	fp, [r4], #8	@ float
  58              	.LVL3:
 288:.\DSP\Source\ComplexMathFunctions/arm_cmplx_mult_cmplx_f32.c ****     b = *pSrcA++;
  59              		.loc 1 288 0
  60 0012 D0F80490 		ldr	r9, [r0, #4]	@ float
  61              	.LVL4:
 289:.\DSP\Source\ComplexMathFunctions/arm_cmplx_mult_cmplx_f32.c ****     c = *pSrcB++;
  62              		.loc 1 289 0
  63 0016 0D46     		mov	r5, r1
  64 0018 55F8083B 		ldr	r3, [r5], #8	@ float
  65              	.LVL5:
 290:.\DSP\Source\ComplexMathFunctions/arm_cmplx_mult_cmplx_f32.c ****     d = *pSrcB++;
  66              		.loc 1 290 0
  67 001c D1F804A0 		ldr	r10, [r1, #4]	@ float
  68              	.LVL6:
 291:.\DSP\Source\ComplexMathFunctions/arm_cmplx_mult_cmplx_f32.c **** 
 292:.\DSP\Source\ComplexMathFunctions/arm_cmplx_mult_cmplx_f32.c ****     /* store result in destination buffer. */
 293:.\DSP\Source\ComplexMathFunctions/arm_cmplx_mult_cmplx_f32.c ****     *pDst++ = (a * c) - (b * d);
  69              		.loc 1 293 0
  70 0020 5846     		mov	r0, fp
  71 0022 0193     		str	r3, [sp, #4]	@ float
  72 0024 1946     		mov	r1, r3
  73 0026 FFF7FEFF 		bl	__aeabi_fmul
  74              	.LVL7:
  75 002a 0646     		mov	r6, r0
  76 002c 4846     		mov	r0, r9
  77 002e 5146     		mov	r1, r10
  78 0030 FFF7FEFF 		bl	__aeabi_fmul
  79              	.LVL8:
  80 0034 0146     		mov	r1, r0
  81 0036 3046     		mov	r0, r6
  82 0038 FFF7FEFF 		bl	__aeabi_fsub
  83              	.LVL9:
  84 003c 4646     		mov	r6, r8
  85 003e 46F8080B 		str	r0, [r6], #8	@ float
  86              	.LVL10:
 294:.\DSP\Source\ComplexMathFunctions/arm_cmplx_mult_cmplx_f32.c ****     *pDst++ = (a * d) + (b * c);
  87              		.loc 1 294 0
  88 0042 5846     		mov	r0, fp
  89 0044 5146     		mov	r1, r10
  90 0046 FFF7FEFF 		bl	__aeabi_fmul
  91              	.LVL11:
  92 004a 8246     		mov	r10, r0
  93              	.LVL12:
  94 004c 4846     		mov	r0, r9
  95 004e 0199     		ldr	r1, [sp, #4]	@ float
  96 0050 FFF7FEFF 		bl	__aeabi_fmul
  97              	.LVL13:
  98 0054 0146     		mov	r1, r0
  99 0056 5046     		mov	r0, r10
 100 0058 FFF7FEFF 		bl	__aeabi_fadd
 101              	.LVL14:
 102 005c C8F80400 		str	r0, [r8, #4]	@ float
 295:.\DSP\Source\ComplexMathFunctions/arm_cmplx_mult_cmplx_f32.c **** 
 296:.\DSP\Source\ComplexMathFunctions/arm_cmplx_mult_cmplx_f32.c ****     /* Decrement loop counter */
 297:.\DSP\Source\ComplexMathFunctions/arm_cmplx_mult_cmplx_f32.c ****     blkCnt--;
ARM GAS  C:\Users\IVYLIU~1\AppData\Local\Temp\ccMeLXre.s 			page 8


 103              		.loc 1 297 0
 104 0060 013F     		subs	r7, r7, #1
 105              	.LVL15:
 294:.\DSP\Source\ComplexMathFunctions/arm_cmplx_mult_cmplx_f32.c ****     *pDst++ = (a * d) + (b * c);
 106              		.loc 1 294 0
 107 0062 B046     		mov	r8, r6
 290:.\DSP\Source\ComplexMathFunctions/arm_cmplx_mult_cmplx_f32.c **** 
 108              		.loc 1 290 0
 109 0064 2946     		mov	r1, r5
 288:.\DSP\Source\ComplexMathFunctions/arm_cmplx_mult_cmplx_f32.c ****     c = *pSrcB++;
 110              		.loc 1 288 0
 111 0066 2046     		mov	r0, r4
 112              	.LVL16:
 113              	.L2:
 282:.\DSP\Source\ComplexMathFunctions/arm_cmplx_mult_cmplx_f32.c ****   {
 114              		.loc 1 282 0
 115 0068 002F     		cmp	r7, #0
 116 006a CFD1     		bne	.L3
 298:.\DSP\Source\ComplexMathFunctions/arm_cmplx_mult_cmplx_f32.c ****   }
 299:.\DSP\Source\ComplexMathFunctions/arm_cmplx_mult_cmplx_f32.c **** 
 300:.\DSP\Source\ComplexMathFunctions/arm_cmplx_mult_cmplx_f32.c **** }
 117              		.loc 1 300 0
 118 006c 03B0     		add	sp, sp, #12
 119              		.cfi_def_cfa_offset 36
 120              		@ sp needed
 121 006e BDE8F08F 		pop	{r4, r5, r6, r7, r8, r9, r10, fp, pc}
 122              		.cfi_endproc
 123              	.LFE84:
 124              		.size	arm_cmplx_mult_cmplx_f32, .-arm_cmplx_mult_cmplx_f32
 125 0072 00BF     		.text
 126              	.Letext0:
 127              		.file 2 "c:\\program files (x86)\\cypress\\psoc creator\\3.3\\psoc creator\\import\\gnu\\arm\\4.9.
 128              		.file 3 "c:\\program files (x86)\\cypress\\psoc creator\\3.3\\psoc creator\\import\\gnu\\arm\\4.9.
 129              		.file 4 ".\\DSP\\Include/arm_math_types.h"
 130              		.file 5 ".\\Core\\Include/cmsis_gcc.h"