ARM GAS  C:\Users\IVYLIU~1\AppData\Local\Temp\ccUX4Sqi.s 			page 1


   1              		.syntax unified
   2              		.cpu cortex-m3
   3              		.fpu softvfp
   4              		.eabi_attribute 20, 1
   5              		.eabi_attribute 21, 1
   6              		.eabi_attribute 23, 3
   7              		.eabi_attribute 24, 1
   8              		.eabi_attribute 25, 1
   9              		.eabi_attribute 26, 1
  10              		.eabi_attribute 30, 1
  11              		.eabi_attribute 34, 1
  12              		.eabi_attribute 18, 4
  13              		.thumb
  14              		.file	"arm_add_f64.c"
  15              		.text
  16              	.Ltext0:
  17              		.cfi_sections	.debug_frame
  18              		.global	__aeabi_dadd
  19              		.section	.text.arm_add_f64,"ax",%progbits
  20              		.align	2
  21              		.global	arm_add_f64
  22              		.thumb
  23              		.thumb_func
  24              		.type	arm_add_f64, %function
  25              	arm_add_f64:
  26              	.LFB83:
  27              		.file 1 ".\\DSP\\Source\\BasicMathFunctions\\arm_add_f64.c"
   1:.\DSP\Source\BasicMathFunctions/arm_add_f64.c **** /* ----------------------------------------------------------------------
   2:.\DSP\Source\BasicMathFunctions/arm_add_f64.c ****  * Project:      CMSIS DSP Library
   3:.\DSP\Source\BasicMathFunctions/arm_add_f64.c ****  * Title:        arm_add_f64.c
   4:.\DSP\Source\BasicMathFunctions/arm_add_f64.c ****  * Description:  Floating-point vector addition
   5:.\DSP\Source\BasicMathFunctions/arm_add_f64.c ****  *
   6:.\DSP\Source\BasicMathFunctions/arm_add_f64.c ****  * $Date:        13 September 2021
   7:.\DSP\Source\BasicMathFunctions/arm_add_f64.c ****  * $Revision:    V1.10.0
   8:.\DSP\Source\BasicMathFunctions/arm_add_f64.c ****  *
   9:.\DSP\Source\BasicMathFunctions/arm_add_f64.c ****  * Target Processor: Cortex-M and Cortex-A cores
  10:.\DSP\Source\BasicMathFunctions/arm_add_f64.c ****  * -------------------------------------------------------------------- */
  11:.\DSP\Source\BasicMathFunctions/arm_add_f64.c **** /*
  12:.\DSP\Source\BasicMathFunctions/arm_add_f64.c ****  * Copyright (C) 2010-2021 ARM Limited or its affiliates. All rights reserved.
  13:.\DSP\Source\BasicMathFunctions/arm_add_f64.c ****  *
  14:.\DSP\Source\BasicMathFunctions/arm_add_f64.c ****  * SPDX-License-Identifier: Apache-2.0
  15:.\DSP\Source\BasicMathFunctions/arm_add_f64.c ****  *
  16:.\DSP\Source\BasicMathFunctions/arm_add_f64.c ****  * Licensed under the Apache License, Version 2.0 (the License); you may
  17:.\DSP\Source\BasicMathFunctions/arm_add_f64.c ****  * not use this file except in compliance with the License.
  18:.\DSP\Source\BasicMathFunctions/arm_add_f64.c ****  * You may obtain a copy of the License at
  19:.\DSP\Source\BasicMathFunctions/arm_add_f64.c ****  *
  20:.\DSP\Source\BasicMathFunctions/arm_add_f64.c ****  * www.apache.org/licenses/LICENSE-2.0
  21:.\DSP\Source\BasicMathFunctions/arm_add_f64.c ****  *
  22:.\DSP\Source\BasicMathFunctions/arm_add_f64.c ****  * Unless required by applicable law or agreed to in writing, software
  23:.\DSP\Source\BasicMathFunctions/arm_add_f64.c ****  * distributed under the License is distributed on an AS IS BASIS, WITHOUT
  24:.\DSP\Source\BasicMathFunctions/arm_add_f64.c ****  * WARRANTIES OR CONDITIONS OF ANY KIND, either express or implied.
  25:.\DSP\Source\BasicMathFunctions/arm_add_f64.c ****  * See the License for the specific language governing permissions and
  26:.\DSP\Source\BasicMathFunctions/arm_add_f64.c ****  * limitations under the License.
  27:.\DSP\Source\BasicMathFunctions/arm_add_f64.c ****  */
  28:.\DSP\Source\BasicMathFunctions/arm_add_f64.c **** 
  29:.\DSP\Source\BasicMathFunctions/arm_add_f64.c **** #include "dsp/basic_math_functions.h"
  30:.\DSP\Source\BasicMathFunctions/arm_add_f64.c **** 
ARM GAS  C:\Users\IVYLIU~1\AppData\Local\Temp\ccUX4Sqi.s 			page 2


  31:.\DSP\Source\BasicMathFunctions/arm_add_f64.c **** /**
  32:.\DSP\Source\BasicMathFunctions/arm_add_f64.c ****   @ingroup groupMath
  33:.\DSP\Source\BasicMathFunctions/arm_add_f64.c ****  */
  34:.\DSP\Source\BasicMathFunctions/arm_add_f64.c **** 
  35:.\DSP\Source\BasicMathFunctions/arm_add_f64.c **** /**
  36:.\DSP\Source\BasicMathFunctions/arm_add_f64.c ****   @addtogroup BasicAdd
  37:.\DSP\Source\BasicMathFunctions/arm_add_f64.c ****   @{
  38:.\DSP\Source\BasicMathFunctions/arm_add_f64.c ****  */
  39:.\DSP\Source\BasicMathFunctions/arm_add_f64.c **** 
  40:.\DSP\Source\BasicMathFunctions/arm_add_f64.c **** /**
  41:.\DSP\Source\BasicMathFunctions/arm_add_f64.c ****   @brief         Floating-point vector addition.
  42:.\DSP\Source\BasicMathFunctions/arm_add_f64.c ****   @param[in]     pSrcA      points to first input vector
  43:.\DSP\Source\BasicMathFunctions/arm_add_f64.c ****   @param[in]     pSrcB      points to second input vector
  44:.\DSP\Source\BasicMathFunctions/arm_add_f64.c ****   @param[out]    pDst       points to output vector
  45:.\DSP\Source\BasicMathFunctions/arm_add_f64.c ****   @param[in]     blockSize  number of samples in each vector
  46:.\DSP\Source\BasicMathFunctions/arm_add_f64.c ****   @return        none
  47:.\DSP\Source\BasicMathFunctions/arm_add_f64.c ****  */
  48:.\DSP\Source\BasicMathFunctions/arm_add_f64.c **** 
  49:.\DSP\Source\BasicMathFunctions/arm_add_f64.c **** void arm_add_f64(
  50:.\DSP\Source\BasicMathFunctions/arm_add_f64.c ****   const float64_t * pSrcA,
  51:.\DSP\Source\BasicMathFunctions/arm_add_f64.c ****   const float64_t * pSrcB,
  52:.\DSP\Source\BasicMathFunctions/arm_add_f64.c ****         float64_t * pDst,
  53:.\DSP\Source\BasicMathFunctions/arm_add_f64.c ****         uint32_t blockSize)
  54:.\DSP\Source\BasicMathFunctions/arm_add_f64.c **** {
  28              		.loc 1 54 0
  29              		.cfi_startproc
  30              		@ args = 0, pretend = 0, frame = 0
  31              		@ frame_needed = 0, uses_anonymous_args = 0
  32              	.LVL0:
  33 0000 2DE9F843 		push	{r3, r4, r5, r6, r7, r8, r9, lr}
  34              		.cfi_def_cfa_offset 32
  35              		.cfi_offset 3, -32
  36              		.cfi_offset 4, -28
  37              		.cfi_offset 5, -24
  38              		.cfi_offset 6, -20
  39              		.cfi_offset 7, -16
  40              		.cfi_offset 8, -12
  41              		.cfi_offset 9, -8
  42              		.cfi_offset 14, -4
  43 0004 0E46     		mov	r6, r1
  44 0006 1546     		mov	r5, r2
  45 0008 1C46     		mov	r4, r3
  46              	.LVL1:
  55:.\DSP\Source\BasicMathFunctions/arm_add_f64.c ****   uint32_t blkCnt;                               /* Loop counter */
  56:.\DSP\Source\BasicMathFunctions/arm_add_f64.c **** 
  57:.\DSP\Source\BasicMathFunctions/arm_add_f64.c ****   /* Initialize blkCnt with number of samples */
  58:.\DSP\Source\BasicMathFunctions/arm_add_f64.c ****   blkCnt = blockSize;
  59:.\DSP\Source\BasicMathFunctions/arm_add_f64.c **** 
  60:.\DSP\Source\BasicMathFunctions/arm_add_f64.c ****   while (blkCnt > 0U)
  47              		.loc 1 60 0
  48 000a 10E0     		b	.L2
  49              	.LVL2:
  50              	.L3:
  61:.\DSP\Source\BasicMathFunctions/arm_add_f64.c ****   {
  62:.\DSP\Source\BasicMathFunctions/arm_add_f64.c ****     /* C = A + B */
  63:.\DSP\Source\BasicMathFunctions/arm_add_f64.c **** 
  64:.\DSP\Source\BasicMathFunctions/arm_add_f64.c ****     /* Add and store result in destination buffer. */
ARM GAS  C:\Users\IVYLIU~1\AppData\Local\Temp\ccUX4Sqi.s 			page 3


  65:.\DSP\Source\BasicMathFunctions/arm_add_f64.c ****     *pDst++ = (*pSrcA++) + (*pSrcB++);
  51              		.loc 1 65 0
  52 000c 05F10809 		add	r9, r5, #8
  53              	.LVL3:
  54 0010 00F10807 		add	r7, r0, #8
  55              	.LVL4:
  56 0014 06F10808 		add	r8, r6, #8
  57              	.LVL5:
  58 0018 03C8     		ldmia	r0, {r0-r1}
  59 001a D6E90023 		ldrd	r2, [r6]
  60 001e FFF7FEFF 		bl	__aeabi_dadd
  61              	.LVL6:
  62 0022 C5E90001 		strd	r0, [r5]
  66:.\DSP\Source\BasicMathFunctions/arm_add_f64.c **** 
  67:.\DSP\Source\BasicMathFunctions/arm_add_f64.c ****     /* Decrement loop counter */
  68:.\DSP\Source\BasicMathFunctions/arm_add_f64.c ****     blkCnt--;
  63              		.loc 1 68 0
  64 0026 013C     		subs	r4, r4, #1
  65              	.LVL7:
  65:.\DSP\Source\BasicMathFunctions/arm_add_f64.c **** 
  66              		.loc 1 65 0
  67 0028 4D46     		mov	r5, r9
  68 002a 4646     		mov	r6, r8
  69 002c 3846     		mov	r0, r7
  70              	.LVL8:
  71              	.L2:
  60:.\DSP\Source\BasicMathFunctions/arm_add_f64.c ****   {
  72              		.loc 1 60 0
  73 002e 002C     		cmp	r4, #0
  74 0030 ECD1     		bne	.L3
  69:.\DSP\Source\BasicMathFunctions/arm_add_f64.c ****   }
  70:.\DSP\Source\BasicMathFunctions/arm_add_f64.c **** 
  71:.\DSP\Source\BasicMathFunctions/arm_add_f64.c **** }
  75              		.loc 1 71 0
  76 0032 BDE8F883 		pop	{r3, r4, r5, r6, r7, r8, r9, pc}
  77              		.cfi_endproc
  78              	.LFE83:
  79              		.size	arm_add_f64, .-arm_add_f64
  80 0036 00BF     		.text
  81              	.Letext0:
  82              		.file 2 "c:\\program files (x86)\\cypress\\psoc creator\\3.3\\psoc creator\\import\\gnu\\arm\\4.9.
  83              		.file 3 "c:\\program files (x86)\\cypress\\psoc creator\\3.3\\psoc creator\\import\\gnu\\arm\\4.9.
  84              		.file 4 ".\\DSP\\Include/arm_math_types.h"
  85              		.file 5 ".\\Core\\Include/cmsis_gcc.h"