ARM GAS  C:\Users\IVYLIU~1\AppData\Local\Temp\cc0G5AE5.s 			page 1


   1              		.syntax unified
   2              		.cpu cortex-m3
   3              		.fpu softvfp
   4              		.eabi_attribute 20, 1
   5              		.eabi_attribute 21, 1
   6              		.eabi_attribute 23, 3
   7              		.eabi_attribute 24, 1
   8              		.eabi_attribute 25, 1
   9              		.eabi_attribute 26, 1
  10              		.eabi_attribute 30, 1
  11              		.eabi_attribute 34, 1
  12              		.eabi_attribute 18, 4
  13              		.thumb
  14              		.file	"arm_offset_q31.c"
  15              		.text
  16              	.Ltext0:
  17              		.cfi_sections	.debug_frame
  18              		.section	.text.arm_offset_q31,"ax",%progbits
  19              		.align	2
  20              		.global	arm_offset_q31
  21              		.thumb
  22              		.thumb_func
  23              		.type	arm_offset_q31, %function
  24              	arm_offset_q31:
  25              	.LFB83:
  26              		.file 1 ".\\DSP\\Source\\BasicMathFunctions\\arm_offset_q31.c"
   1:.\DSP\Source\BasicMathFunctions/arm_offset_q31.c **** /* ----------------------------------------------------------------------
   2:.\DSP\Source\BasicMathFunctions/arm_offset_q31.c ****  * Project:      CMSIS DSP Library
   3:.\DSP\Source\BasicMathFunctions/arm_offset_q31.c ****  * Title:        arm_offset_q31.c
   4:.\DSP\Source\BasicMathFunctions/arm_offset_q31.c ****  * Description:  Q31 vector offset
   5:.\DSP\Source\BasicMathFunctions/arm_offset_q31.c ****  *
   6:.\DSP\Source\BasicMathFunctions/arm_offset_q31.c ****  * $Date:        23 April 2021
   7:.\DSP\Source\BasicMathFunctions/arm_offset_q31.c ****  * $Revision:    V1.9.0
   8:.\DSP\Source\BasicMathFunctions/arm_offset_q31.c ****  *
   9:.\DSP\Source\BasicMathFunctions/arm_offset_q31.c ****  * Target Processor: Cortex-M and Cortex-A cores
  10:.\DSP\Source\BasicMathFunctions/arm_offset_q31.c ****  * -------------------------------------------------------------------- */
  11:.\DSP\Source\BasicMathFunctions/arm_offset_q31.c **** /*
  12:.\DSP\Source\BasicMathFunctions/arm_offset_q31.c ****  * Copyright (C) 2010-2021 ARM Limited or its affiliates. All rights reserved.
  13:.\DSP\Source\BasicMathFunctions/arm_offset_q31.c ****  *
  14:.\DSP\Source\BasicMathFunctions/arm_offset_q31.c ****  * SPDX-License-Identifier: Apache-2.0
  15:.\DSP\Source\BasicMathFunctions/arm_offset_q31.c ****  *
  16:.\DSP\Source\BasicMathFunctions/arm_offset_q31.c ****  * Licensed under the Apache License, Version 2.0 (the License); you may
  17:.\DSP\Source\BasicMathFunctions/arm_offset_q31.c ****  * not use this file except in compliance with the License.
  18:.\DSP\Source\BasicMathFunctions/arm_offset_q31.c ****  * You may obtain a copy of the License at
  19:.\DSP\Source\BasicMathFunctions/arm_offset_q31.c ****  *
  20:.\DSP\Source\BasicMathFunctions/arm_offset_q31.c ****  * www.apache.org/licenses/LICENSE-2.0
  21:.\DSP\Source\BasicMathFunctions/arm_offset_q31.c ****  *
  22:.\DSP\Source\BasicMathFunctions/arm_offset_q31.c ****  * Unless required by applicable law or agreed to in writing, software
  23:.\DSP\Source\BasicMathFunctions/arm_offset_q31.c ****  * distributed under the License is distributed on an AS IS BASIS, WITHOUT
  24:.\DSP\Source\BasicMathFunctions/arm_offset_q31.c ****  * WARRANTIES OR CONDITIONS OF ANY KIND, either express or implied.
  25:.\DSP\Source\BasicMathFunctions/arm_offset_q31.c ****  * See the License for the specific language governing permissions and
  26:.\DSP\Source\BasicMathFunctions/arm_offset_q31.c ****  * limitations under the License.
  27:.\DSP\Source\BasicMathFunctions/arm_offset_q31.c ****  */
  28:.\DSP\Source\BasicMathFunctions/arm_offset_q31.c **** 
  29:.\DSP\Source\BasicMathFunctions/arm_offset_q31.c **** #include "dsp/basic_math_functions.h"
  30:.\DSP\Source\BasicMathFunctions/arm_offset_q31.c **** 
  31:.\DSP\Source\BasicMathFunctions/arm_offset_q31.c **** /**
ARM GAS  C:\Users\IVYLIU~1\AppData\Local\Temp\cc0G5AE5.s 			page 2


  32:.\DSP\Source\BasicMathFunctions/arm_offset_q31.c ****   @ingroup groupMath
  33:.\DSP\Source\BasicMathFunctions/arm_offset_q31.c ****  */
  34:.\DSP\Source\BasicMathFunctions/arm_offset_q31.c **** 
  35:.\DSP\Source\BasicMathFunctions/arm_offset_q31.c **** /**
  36:.\DSP\Source\BasicMathFunctions/arm_offset_q31.c ****   @addtogroup BasicOffset
  37:.\DSP\Source\BasicMathFunctions/arm_offset_q31.c ****   @{
  38:.\DSP\Source\BasicMathFunctions/arm_offset_q31.c ****  */
  39:.\DSP\Source\BasicMathFunctions/arm_offset_q31.c **** 
  40:.\DSP\Source\BasicMathFunctions/arm_offset_q31.c **** /**
  41:.\DSP\Source\BasicMathFunctions/arm_offset_q31.c ****   @brief         Adds a constant offset to a Q31 vector.
  42:.\DSP\Source\BasicMathFunctions/arm_offset_q31.c ****   @param[in]     pSrc       points to the input vector
  43:.\DSP\Source\BasicMathFunctions/arm_offset_q31.c ****   @param[in]     offset     is the offset to be added
  44:.\DSP\Source\BasicMathFunctions/arm_offset_q31.c ****   @param[out]    pDst       points to the output vector
  45:.\DSP\Source\BasicMathFunctions/arm_offset_q31.c ****   @param[in]     blockSize  number of samples in each vector
  46:.\DSP\Source\BasicMathFunctions/arm_offset_q31.c ****   @return        none
  47:.\DSP\Source\BasicMathFunctions/arm_offset_q31.c **** 
  48:.\DSP\Source\BasicMathFunctions/arm_offset_q31.c ****   @par           Scaling and Overflow Behavior
  49:.\DSP\Source\BasicMathFunctions/arm_offset_q31.c ****                    The function uses saturating arithmetic.
  50:.\DSP\Source\BasicMathFunctions/arm_offset_q31.c ****                    Results outside of the allowable Q31 range [0x80000000 0x7FFFFFFF] are saturated
  51:.\DSP\Source\BasicMathFunctions/arm_offset_q31.c ****  */
  52:.\DSP\Source\BasicMathFunctions/arm_offset_q31.c **** 
  53:.\DSP\Source\BasicMathFunctions/arm_offset_q31.c **** #if defined(ARM_MATH_MVEI) && !defined(ARM_MATH_AUTOVECTORIZE)
  54:.\DSP\Source\BasicMathFunctions/arm_offset_q31.c **** 
  55:.\DSP\Source\BasicMathFunctions/arm_offset_q31.c **** #include "arm_helium_utils.h"
  56:.\DSP\Source\BasicMathFunctions/arm_offset_q31.c **** 
  57:.\DSP\Source\BasicMathFunctions/arm_offset_q31.c **** void arm_offset_q31(
  58:.\DSP\Source\BasicMathFunctions/arm_offset_q31.c ****     const q31_t * pSrc,
  59:.\DSP\Source\BasicMathFunctions/arm_offset_q31.c ****     q31_t   offset,
  60:.\DSP\Source\BasicMathFunctions/arm_offset_q31.c ****     q31_t * pDst,
  61:.\DSP\Source\BasicMathFunctions/arm_offset_q31.c ****     uint32_t blockSize)
  62:.\DSP\Source\BasicMathFunctions/arm_offset_q31.c **** {
  63:.\DSP\Source\BasicMathFunctions/arm_offset_q31.c ****     uint32_t  blkCnt;           /* loop counters */
  64:.\DSP\Source\BasicMathFunctions/arm_offset_q31.c ****     q31x4_t vecSrc;
  65:.\DSP\Source\BasicMathFunctions/arm_offset_q31.c **** 
  66:.\DSP\Source\BasicMathFunctions/arm_offset_q31.c ****     /* Compute 4 outputs at a time */
  67:.\DSP\Source\BasicMathFunctions/arm_offset_q31.c ****     blkCnt = blockSize >> 2;
  68:.\DSP\Source\BasicMathFunctions/arm_offset_q31.c ****     while (blkCnt > 0U)
  69:.\DSP\Source\BasicMathFunctions/arm_offset_q31.c ****     {
  70:.\DSP\Source\BasicMathFunctions/arm_offset_q31.c ****         /*
  71:.\DSP\Source\BasicMathFunctions/arm_offset_q31.c ****          * C = A + offset
  72:.\DSP\Source\BasicMathFunctions/arm_offset_q31.c ****          * Add offset and then store the result in the destination buffer.
  73:.\DSP\Source\BasicMathFunctions/arm_offset_q31.c ****          */
  74:.\DSP\Source\BasicMathFunctions/arm_offset_q31.c ****         vecSrc = vld1q(pSrc);
  75:.\DSP\Source\BasicMathFunctions/arm_offset_q31.c ****         vst1q(pDst, vqaddq(vecSrc, offset));
  76:.\DSP\Source\BasicMathFunctions/arm_offset_q31.c ****         /*
  77:.\DSP\Source\BasicMathFunctions/arm_offset_q31.c ****          * Decrement the blockSize loop counter
  78:.\DSP\Source\BasicMathFunctions/arm_offset_q31.c ****          */
  79:.\DSP\Source\BasicMathFunctions/arm_offset_q31.c ****         blkCnt--;
  80:.\DSP\Source\BasicMathFunctions/arm_offset_q31.c ****         /*
  81:.\DSP\Source\BasicMathFunctions/arm_offset_q31.c ****          * advance vector source and destination pointers
  82:.\DSP\Source\BasicMathFunctions/arm_offset_q31.c ****          */
  83:.\DSP\Source\BasicMathFunctions/arm_offset_q31.c ****         pSrc += 4;
  84:.\DSP\Source\BasicMathFunctions/arm_offset_q31.c ****         pDst += 4;
  85:.\DSP\Source\BasicMathFunctions/arm_offset_q31.c ****     }
  86:.\DSP\Source\BasicMathFunctions/arm_offset_q31.c ****     /*
  87:.\DSP\Source\BasicMathFunctions/arm_offset_q31.c ****      * tail
  88:.\DSP\Source\BasicMathFunctions/arm_offset_q31.c ****      */
ARM GAS  C:\Users\IVYLIU~1\AppData\Local\Temp\cc0G5AE5.s 			page 3


  89:.\DSP\Source\BasicMathFunctions/arm_offset_q31.c ****     blkCnt = blockSize & 3;
  90:.\DSP\Source\BasicMathFunctions/arm_offset_q31.c ****     if (blkCnt > 0U)
  91:.\DSP\Source\BasicMathFunctions/arm_offset_q31.c ****     {
  92:.\DSP\Source\BasicMathFunctions/arm_offset_q31.c ****         mve_pred16_t p0 = vctp32q(blkCnt);
  93:.\DSP\Source\BasicMathFunctions/arm_offset_q31.c ****         vecSrc = vld1q(pSrc);
  94:.\DSP\Source\BasicMathFunctions/arm_offset_q31.c ****         vstrwq_p(pDst, vqaddq(vecSrc, offset), p0);
  95:.\DSP\Source\BasicMathFunctions/arm_offset_q31.c ****     }
  96:.\DSP\Source\BasicMathFunctions/arm_offset_q31.c **** }
  97:.\DSP\Source\BasicMathFunctions/arm_offset_q31.c **** 
  98:.\DSP\Source\BasicMathFunctions/arm_offset_q31.c **** #else
  99:.\DSP\Source\BasicMathFunctions/arm_offset_q31.c **** void arm_offset_q31(
 100:.\DSP\Source\BasicMathFunctions/arm_offset_q31.c ****   const q31_t * pSrc,
 101:.\DSP\Source\BasicMathFunctions/arm_offset_q31.c ****         q31_t offset,
 102:.\DSP\Source\BasicMathFunctions/arm_offset_q31.c ****         q31_t * pDst,
 103:.\DSP\Source\BasicMathFunctions/arm_offset_q31.c ****         uint32_t blockSize)
 104:.\DSP\Source\BasicMathFunctions/arm_offset_q31.c **** {
  27              		.loc 1 104 0
  28              		.cfi_startproc
  29              		@ args = 0, pretend = 0, frame = 0
  30              		@ frame_needed = 0, uses_anonymous_args = 0
  31              		@ link register save eliminated.
  32              	.LVL0:
  33 0000 F0B4     		push	{r4, r5, r6, r7}
  34              		.cfi_def_cfa_offset 16
  35              		.cfi_offset 4, -16
  36              		.cfi_offset 5, -12
  37              		.cfi_offset 6, -8
  38              		.cfi_offset 7, -4
  39 0002 0F46     		mov	r7, r1
  40              	.LVL1:
 105:.\DSP\Source\BasicMathFunctions/arm_offset_q31.c ****         uint32_t blkCnt;                               /* Loop counter */
 106:.\DSP\Source\BasicMathFunctions/arm_offset_q31.c **** 
 107:.\DSP\Source\BasicMathFunctions/arm_offset_q31.c **** #if defined (ARM_MATH_LOOPUNROLL)
 108:.\DSP\Source\BasicMathFunctions/arm_offset_q31.c **** 
 109:.\DSP\Source\BasicMathFunctions/arm_offset_q31.c ****   /* Loop unrolling: Compute 4 outputs at a time */
 110:.\DSP\Source\BasicMathFunctions/arm_offset_q31.c ****   blkCnt = blockSize >> 2U;
 111:.\DSP\Source\BasicMathFunctions/arm_offset_q31.c **** 
 112:.\DSP\Source\BasicMathFunctions/arm_offset_q31.c ****   while (blkCnt > 0U)
 113:.\DSP\Source\BasicMathFunctions/arm_offset_q31.c ****   {
 114:.\DSP\Source\BasicMathFunctions/arm_offset_q31.c ****     /* C = A + offset */
 115:.\DSP\Source\BasicMathFunctions/arm_offset_q31.c **** 
 116:.\DSP\Source\BasicMathFunctions/arm_offset_q31.c ****     /* Add offset and store result in destination buffer. */
 117:.\DSP\Source\BasicMathFunctions/arm_offset_q31.c ****     *pDst++ = __QADD(*pSrc++, offset);
 118:.\DSP\Source\BasicMathFunctions/arm_offset_q31.c ****     
 119:.\DSP\Source\BasicMathFunctions/arm_offset_q31.c ****     *pDst++ = __QADD(*pSrc++, offset);
 120:.\DSP\Source\BasicMathFunctions/arm_offset_q31.c ****     
 121:.\DSP\Source\BasicMathFunctions/arm_offset_q31.c ****     *pDst++ = __QADD(*pSrc++, offset);
 122:.\DSP\Source\BasicMathFunctions/arm_offset_q31.c ****     
 123:.\DSP\Source\BasicMathFunctions/arm_offset_q31.c ****     *pDst++ = __QADD(*pSrc++, offset);
 124:.\DSP\Source\BasicMathFunctions/arm_offset_q31.c **** 
 125:.\DSP\Source\BasicMathFunctions/arm_offset_q31.c ****     /* Decrement loop counter */
 126:.\DSP\Source\BasicMathFunctions/arm_offset_q31.c ****     blkCnt--;
 127:.\DSP\Source\BasicMathFunctions/arm_offset_q31.c ****   }
 128:.\DSP\Source\BasicMathFunctions/arm_offset_q31.c **** 
 129:.\DSP\Source\BasicMathFunctions/arm_offset_q31.c ****   /* Loop unrolling: Compute remaining outputs */
 130:.\DSP\Source\BasicMathFunctions/arm_offset_q31.c ****   blkCnt = blockSize % 0x4U;
 131:.\DSP\Source\BasicMathFunctions/arm_offset_q31.c **** 
ARM GAS  C:\Users\IVYLIU~1\AppData\Local\Temp\cc0G5AE5.s 			page 4


 132:.\DSP\Source\BasicMathFunctions/arm_offset_q31.c **** #else
 133:.\DSP\Source\BasicMathFunctions/arm_offset_q31.c **** 
 134:.\DSP\Source\BasicMathFunctions/arm_offset_q31.c ****   /* Initialize blkCnt with number of samples */
 135:.\DSP\Source\BasicMathFunctions/arm_offset_q31.c ****   blkCnt = blockSize;
 136:.\DSP\Source\BasicMathFunctions/arm_offset_q31.c **** 
 137:.\DSP\Source\BasicMathFunctions/arm_offset_q31.c **** #endif /* #if defined (ARM_MATH_LOOPUNROLL) */
 138:.\DSP\Source\BasicMathFunctions/arm_offset_q31.c **** 
 139:.\DSP\Source\BasicMathFunctions/arm_offset_q31.c ****   while (blkCnt > 0U)
  41              		.loc 1 139 0
  42 0004 11E0     		b	.L2
  43              	.LVL2:
  44              	.L5:
 140:.\DSP\Source\BasicMathFunctions/arm_offset_q31.c ****   {
 141:.\DSP\Source\BasicMathFunctions/arm_offset_q31.c ****     /* C = A + offset */
 142:.\DSP\Source\BasicMathFunctions/arm_offset_q31.c **** 
 143:.\DSP\Source\BasicMathFunctions/arm_offset_q31.c ****     /* Add offset and store result in destination buffer. */
 144:.\DSP\Source\BasicMathFunctions/arm_offset_q31.c **** #if defined (ARM_MATH_DSP)
 145:.\DSP\Source\BasicMathFunctions/arm_offset_q31.c ****     *pDst++ = __QADD(*pSrc++, offset);
 146:.\DSP\Source\BasicMathFunctions/arm_offset_q31.c **** #else
 147:.\DSP\Source\BasicMathFunctions/arm_offset_q31.c ****     *pDst++ = (q31_t) clip_q63_to_q31((q63_t) * pSrc++ + offset);
  45              		.loc 1 147 0
  46 0006 151D     		adds	r5, r2, #4
  47              	.LVL3:
  48 0008 041D     		adds	r4, r0, #4
  49              	.LVL4:
  50 000a 0668     		ldr	r6, [r0]
  51 000c F917     		asrs	r1, r7, #31
  52 000e B819     		adds	r0, r7, r6
  53 0010 41EBE671 		adc	r1, r1, r6, asr #31
  54              	.LVL5:
  55              	.LBB4:
  56              	.LBB5:
  57              		.file 2 ".\\DSP\\Include/dsp/none.h"
   1:.\DSP\Include/dsp/none.h **** /******************************************************************************
   2:.\DSP\Include/dsp/none.h ****  * @file     none.h
   3:.\DSP\Include/dsp/none.h ****  * @brief    Intrinsincs when no DSP extension available
   4:.\DSP\Include/dsp/none.h ****  * @version  V1.9.0
   5:.\DSP\Include/dsp/none.h ****  * @date     20. July 2020
   6:.\DSP\Include/dsp/none.h ****  ******************************************************************************/
   7:.\DSP\Include/dsp/none.h **** /*
   8:.\DSP\Include/dsp/none.h ****  * Copyright (c) 2010-2020 Arm Limited or its affiliates. All rights reserved.
   9:.\DSP\Include/dsp/none.h ****  *
  10:.\DSP\Include/dsp/none.h ****  * SPDX-License-Identifier: Apache-2.0
  11:.\DSP\Include/dsp/none.h ****  *
  12:.\DSP\Include/dsp/none.h ****  * Licensed under the Apache License, Version 2.0 (the License); you may
  13:.\DSP\Include/dsp/none.h ****  * not use this file except in compliance with the License.
  14:.\DSP\Include/dsp/none.h ****  * You may obtain a copy of the License at
  15:.\DSP\Include/dsp/none.h ****  *
  16:.\DSP\Include/dsp/none.h ****  * www.apache.org/licenses/LICENSE-2.0
  17:.\DSP\Include/dsp/none.h ****  *
  18:.\DSP\Include/dsp/none.h ****  * Unless required by applicable law or agreed to in writing, software
  19:.\DSP\Include/dsp/none.h ****  * distributed under the License is distributed on an AS IS BASIS, WITHOUT
  20:.\DSP\Include/dsp/none.h ****  * WARRANTIES OR CONDITIONS OF ANY KIND, either express or implied.
  21:.\DSP\Include/dsp/none.h ****  * See the License for the specific language governing permissions and
  22:.\DSP\Include/dsp/none.h ****  * limitations under the License.
  23:.\DSP\Include/dsp/none.h ****  */
  24:.\DSP\Include/dsp/none.h **** 
ARM GAS  C:\Users\IVYLIU~1\AppData\Local\Temp\cc0G5AE5.s 			page 5


  25:.\DSP\Include/dsp/none.h **** /*
  26:.\DSP\Include/dsp/none.h **** 
  27:.\DSP\Include/dsp/none.h **** Definitions in this file are allowing to reuse some versions of the
  28:.\DSP\Include/dsp/none.h **** CMSIS-DSP to build on a core (M0 for instance) or a host where
  29:.\DSP\Include/dsp/none.h **** DSP extension are not available.
  30:.\DSP\Include/dsp/none.h **** 
  31:.\DSP\Include/dsp/none.h **** Ideally a pure C version should have been used instead.
  32:.\DSP\Include/dsp/none.h **** But those are not always available or use a restricted set
  33:.\DSP\Include/dsp/none.h **** of intrinsics.
  34:.\DSP\Include/dsp/none.h **** 
  35:.\DSP\Include/dsp/none.h **** */
  36:.\DSP\Include/dsp/none.h ****  
  37:.\DSP\Include/dsp/none.h **** #ifndef _NONE_H_
  38:.\DSP\Include/dsp/none.h **** #define _NONE_H_
  39:.\DSP\Include/dsp/none.h **** 
  40:.\DSP\Include/dsp/none.h **** #include "arm_math_types.h"
  41:.\DSP\Include/dsp/none.h **** 
  42:.\DSP\Include/dsp/none.h **** #ifdef   __cplusplus
  43:.\DSP\Include/dsp/none.h **** extern "C"
  44:.\DSP\Include/dsp/none.h **** {
  45:.\DSP\Include/dsp/none.h **** #endif
  46:.\DSP\Include/dsp/none.h **** 
  47:.\DSP\Include/dsp/none.h ****  
  48:.\DSP\Include/dsp/none.h **** 
  49:.\DSP\Include/dsp/none.h **** /*
  50:.\DSP\Include/dsp/none.h **** 
  51:.\DSP\Include/dsp/none.h **** Normally those kind of definitions are in a compiler file
  52:.\DSP\Include/dsp/none.h **** in Core or Core_A.
  53:.\DSP\Include/dsp/none.h **** 
  54:.\DSP\Include/dsp/none.h **** But for MSVC compiler it is a bit special. The goal is very specific
  55:.\DSP\Include/dsp/none.h **** to CMSIS-DSP and only to allow the use of this library from other
  56:.\DSP\Include/dsp/none.h **** systems like Python or Matlab.
  57:.\DSP\Include/dsp/none.h **** 
  58:.\DSP\Include/dsp/none.h **** MSVC is not going to be used to cross-compile to ARM. So, having a MSVC
  59:.\DSP\Include/dsp/none.h **** compiler file in Core or Core_A would not make sense.
  60:.\DSP\Include/dsp/none.h **** 
  61:.\DSP\Include/dsp/none.h **** */
  62:.\DSP\Include/dsp/none.h **** #if defined ( _MSC_VER ) || defined(__GNUC_PYTHON__) || defined(__APPLE_CC__)
  63:.\DSP\Include/dsp/none.h ****     __STATIC_FORCEINLINE uint8_t __CLZ(uint32_t data)
  64:.\DSP\Include/dsp/none.h ****     {
  65:.\DSP\Include/dsp/none.h ****       if (data == 0U) { return 32U; }
  66:.\DSP\Include/dsp/none.h **** 
  67:.\DSP\Include/dsp/none.h ****       uint32_t count = 0U;
  68:.\DSP\Include/dsp/none.h ****       uint32_t mask = 0x80000000U;
  69:.\DSP\Include/dsp/none.h **** 
  70:.\DSP\Include/dsp/none.h ****       while ((data & mask) == 0U)
  71:.\DSP\Include/dsp/none.h ****       {
  72:.\DSP\Include/dsp/none.h ****         count += 1U;
  73:.\DSP\Include/dsp/none.h ****         mask = mask >> 1U;
  74:.\DSP\Include/dsp/none.h ****       }
  75:.\DSP\Include/dsp/none.h ****       return count;
  76:.\DSP\Include/dsp/none.h ****     }
  77:.\DSP\Include/dsp/none.h **** 
  78:.\DSP\Include/dsp/none.h ****   __STATIC_FORCEINLINE int32_t __SSAT(int32_t val, uint32_t sat)
  79:.\DSP\Include/dsp/none.h ****   {
  80:.\DSP\Include/dsp/none.h ****     if ((sat >= 1U) && (sat <= 32U))
  81:.\DSP\Include/dsp/none.h ****     {
ARM GAS  C:\Users\IVYLIU~1\AppData\Local\Temp\cc0G5AE5.s 			page 6


  82:.\DSP\Include/dsp/none.h ****       const int32_t max = (int32_t)((1U << (sat - 1U)) - 1U);
  83:.\DSP\Include/dsp/none.h ****       const int32_t min = -1 - max ;
  84:.\DSP\Include/dsp/none.h ****       if (val > max)
  85:.\DSP\Include/dsp/none.h ****       {
  86:.\DSP\Include/dsp/none.h ****         return max;
  87:.\DSP\Include/dsp/none.h ****       }
  88:.\DSP\Include/dsp/none.h ****       else if (val < min)
  89:.\DSP\Include/dsp/none.h ****       {
  90:.\DSP\Include/dsp/none.h ****         return min;
  91:.\DSP\Include/dsp/none.h ****       }
  92:.\DSP\Include/dsp/none.h ****     }
  93:.\DSP\Include/dsp/none.h ****     return val;
  94:.\DSP\Include/dsp/none.h ****   }
  95:.\DSP\Include/dsp/none.h **** 
  96:.\DSP\Include/dsp/none.h ****   __STATIC_FORCEINLINE uint32_t __USAT(int32_t val, uint32_t sat)
  97:.\DSP\Include/dsp/none.h ****   {
  98:.\DSP\Include/dsp/none.h ****     if (sat <= 31U)
  99:.\DSP\Include/dsp/none.h ****     {
 100:.\DSP\Include/dsp/none.h ****       const uint32_t max = ((1U << sat) - 1U);
 101:.\DSP\Include/dsp/none.h ****       if (val > (int32_t)max)
 102:.\DSP\Include/dsp/none.h ****       {
 103:.\DSP\Include/dsp/none.h ****         return max;
 104:.\DSP\Include/dsp/none.h ****       }
 105:.\DSP\Include/dsp/none.h ****       else if (val < 0)
 106:.\DSP\Include/dsp/none.h ****       {
 107:.\DSP\Include/dsp/none.h ****         return 0U;
 108:.\DSP\Include/dsp/none.h ****       }
 109:.\DSP\Include/dsp/none.h ****     }
 110:.\DSP\Include/dsp/none.h ****     return (uint32_t)val;
 111:.\DSP\Include/dsp/none.h ****   }
 112:.\DSP\Include/dsp/none.h **** 
 113:.\DSP\Include/dsp/none.h ****  /**
 114:.\DSP\Include/dsp/none.h ****   \brief   Rotate Right in unsigned value (32 bit)
 115:.\DSP\Include/dsp/none.h ****   \details Rotate Right (immediate) provides the value of the contents of a register rotated by a v
 116:.\DSP\Include/dsp/none.h ****   \param [in]    op1  Value to rotate
 117:.\DSP\Include/dsp/none.h ****   \param [in]    op2  Number of Bits to rotate
 118:.\DSP\Include/dsp/none.h ****   \return               Rotated value
 119:.\DSP\Include/dsp/none.h ****  */
 120:.\DSP\Include/dsp/none.h **** __STATIC_FORCEINLINE uint32_t __ROR(uint32_t op1, uint32_t op2)
 121:.\DSP\Include/dsp/none.h **** {
 122:.\DSP\Include/dsp/none.h ****   op2 %= 32U;
 123:.\DSP\Include/dsp/none.h ****   if (op2 == 0U)
 124:.\DSP\Include/dsp/none.h ****   {
 125:.\DSP\Include/dsp/none.h ****     return op1;
 126:.\DSP\Include/dsp/none.h ****   }
 127:.\DSP\Include/dsp/none.h ****   return (op1 >> op2) | (op1 << (32U - op2));
 128:.\DSP\Include/dsp/none.h **** }
 129:.\DSP\Include/dsp/none.h **** 
 130:.\DSP\Include/dsp/none.h **** 
 131:.\DSP\Include/dsp/none.h **** #endif
 132:.\DSP\Include/dsp/none.h **** 
 133:.\DSP\Include/dsp/none.h **** /**
 134:.\DSP\Include/dsp/none.h ****    * @brief Clips Q63 to Q31 values.
 135:.\DSP\Include/dsp/none.h ****    */
 136:.\DSP\Include/dsp/none.h ****   __STATIC_FORCEINLINE q31_t clip_q63_to_q31(
 137:.\DSP\Include/dsp/none.h ****   q63_t x)
 138:.\DSP\Include/dsp/none.h ****   {
ARM GAS  C:\Users\IVYLIU~1\AppData\Local\Temp\cc0G5AE5.s 			page 7


 139:.\DSP\Include/dsp/none.h ****     return ((q31_t) (x >> 32) != ((q31_t) x >> 31)) ?
 140:.\DSP\Include/dsp/none.h ****       ((0x7FFFFFFF ^ ((q31_t) (x >> 63)))) : (q31_t) x;
  58              		.loc 2 140 0
  59 0014 B1EBE07F 		cmp	r1, r0, asr #31
  60 0018 03D0     		beq	.L6
  61 001a 6FF00040 		mvn	r0, #-2147483648
  62              	.LVL6:
  63 001e 80EAE170 		eor	r0, r0, r1, asr #31
  64              	.L6:
  65              	.LBE5:
  66              	.LBE4:
  67              		.loc 1 147 0
  68 0022 1060     		str	r0, [r2]
 148:.\DSP\Source\BasicMathFunctions/arm_offset_q31.c **** #endif
 149:.\DSP\Source\BasicMathFunctions/arm_offset_q31.c **** 
 150:.\DSP\Source\BasicMathFunctions/arm_offset_q31.c ****     /* Decrement loop counter */
 151:.\DSP\Source\BasicMathFunctions/arm_offset_q31.c ****     blkCnt--;
  69              		.loc 1 151 0
  70 0024 013B     		subs	r3, r3, #1
  71              	.LVL7:
 147:.\DSP\Source\BasicMathFunctions/arm_offset_q31.c **** #endif
  72              		.loc 1 147 0
  73 0026 2A46     		mov	r2, r5
  74 0028 2046     		mov	r0, r4
  75              	.LVL8:
  76              	.L2:
 139:.\DSP\Source\BasicMathFunctions/arm_offset_q31.c ****   {
  77              		.loc 1 139 0
  78 002a 002B     		cmp	r3, #0
  79 002c EBD1     		bne	.L5
 152:.\DSP\Source\BasicMathFunctions/arm_offset_q31.c ****   }
 153:.\DSP\Source\BasicMathFunctions/arm_offset_q31.c **** 
 154:.\DSP\Source\BasicMathFunctions/arm_offset_q31.c **** }
  80              		.loc 1 154 0
  81 002e F0BC     		pop	{r4, r5, r6, r7}
  82              		.cfi_restore 7
  83              		.cfi_restore 6
  84              		.cfi_restore 5
  85              		.cfi_restore 4
  86              		.cfi_def_cfa_offset 0
  87              	.LVL9:
  88 0030 7047     		bx	lr
  89              		.cfi_endproc
  90              	.LFE83:
  91              		.size	arm_offset_q31, .-arm_offset_q31
  92 0032 00BF     		.text
  93              	.Letext0:
  94              		.file 3 "c:\\program files (x86)\\cypress\\psoc creator\\3.3\\psoc creator\\import\\gnu\\arm\\4.9.
  95              		.file 4 "c:\\program files (x86)\\cypress\\psoc creator\\3.3\\psoc creator\\import\\gnu\\arm\\4.9.
  96              		.file 5 ".\\DSP\\Include/arm_math_types.h"
  97              		.file 6 ".\\Core\\Include/cmsis_gcc.h"