ARM GAS  C:\Users\IVYLIU~1\AppData\Local\Temp\ccc8rF90.s 			page 1


   1              		.syntax unified
   2              		.cpu cortex-m3
   3              		.fpu softvfp
   4              		.eabi_attribute 20, 1
   5              		.eabi_attribute 21, 1
   6              		.eabi_attribute 23, 3
   7              		.eabi_attribute 24, 1
   8              		.eabi_attribute 25, 1
   9              		.eabi_attribute 26, 1
  10              		.eabi_attribute 30, 1
  11              		.eabi_attribute 34, 1
  12              		.eabi_attribute 18, 4
  13              		.thumb
  14              		.file	"arm_mfcc_f32.c"
  15              		.text
  16              	.Ltext0:
  17              		.cfi_sections	.debug_frame
  18              		.global	__aeabi_fdiv
  19              		.section	.text.arm_mfcc_f32,"ax",%progbits
  20              		.align	2
  21              		.global	arm_mfcc_f32
  22              		.thumb
  23              		.thumb_func
  24              		.type	arm_mfcc_f32, %function
  25              	arm_mfcc_f32:
  26              	.LFB84:
  27              		.file 1 ".\\DSP\\Source\\TransformFunctions\\arm_mfcc_f32.c"
   1:.\DSP\Source\TransformFunctions/arm_mfcc_f32.c **** /* ----------------------------------------------------------------------
   2:.\DSP\Source\TransformFunctions/arm_mfcc_f32.c ****  * Project:      CMSIS DSP Library
   3:.\DSP\Source\TransformFunctions/arm_mfcc_f32.c ****  * Title:        arm_mfcc_f32.c
   4:.\DSP\Source\TransformFunctions/arm_mfcc_f32.c ****  * Description:  MFCC function for the f32 version
   5:.\DSP\Source\TransformFunctions/arm_mfcc_f32.c ****  *
   6:.\DSP\Source\TransformFunctions/arm_mfcc_f32.c ****  * $Date:        07 September 2021
   7:.\DSP\Source\TransformFunctions/arm_mfcc_f32.c ****  * $Revision:    V1.10.0
   8:.\DSP\Source\TransformFunctions/arm_mfcc_f32.c ****  *
   9:.\DSP\Source\TransformFunctions/arm_mfcc_f32.c ****  * Target Processor: Cortex-M and Cortex-A cores
  10:.\DSP\Source\TransformFunctions/arm_mfcc_f32.c ****  * -------------------------------------------------------------------- */
  11:.\DSP\Source\TransformFunctions/arm_mfcc_f32.c **** /*
  12:.\DSP\Source\TransformFunctions/arm_mfcc_f32.c ****  * Copyright (C) 2010-2021 ARM Limited or its affiliates. All rights reserved.
  13:.\DSP\Source\TransformFunctions/arm_mfcc_f32.c ****  *
  14:.\DSP\Source\TransformFunctions/arm_mfcc_f32.c ****  * SPDX-License-Identifier: Apache-2.0
  15:.\DSP\Source\TransformFunctions/arm_mfcc_f32.c ****  *
  16:.\DSP\Source\TransformFunctions/arm_mfcc_f32.c ****  * Licensed under the Apache License, Version 2.0 (the License); you may
  17:.\DSP\Source\TransformFunctions/arm_mfcc_f32.c ****  * not use this file except in compliance with the License.
  18:.\DSP\Source\TransformFunctions/arm_mfcc_f32.c ****  * You may obtain a copy of the License at
  19:.\DSP\Source\TransformFunctions/arm_mfcc_f32.c ****  *
  20:.\DSP\Source\TransformFunctions/arm_mfcc_f32.c ****  * www.apache.org/licenses/LICENSE-2.0
  21:.\DSP\Source\TransformFunctions/arm_mfcc_f32.c ****  *
  22:.\DSP\Source\TransformFunctions/arm_mfcc_f32.c ****  * Unless required by applicable law or agreed to in writing, software
  23:.\DSP\Source\TransformFunctions/arm_mfcc_f32.c ****  * distributed under the License is distributed on an AS IS BASIS, WITHOUT
  24:.\DSP\Source\TransformFunctions/arm_mfcc_f32.c ****  * WARRANTIES OR CONDITIONS OF ANY KIND, either express or implied.
  25:.\DSP\Source\TransformFunctions/arm_mfcc_f32.c ****  * See the License for the specific language governing permissions and
  26:.\DSP\Source\TransformFunctions/arm_mfcc_f32.c ****  * limitations under the License.
  27:.\DSP\Source\TransformFunctions/arm_mfcc_f32.c ****  */
  28:.\DSP\Source\TransformFunctions/arm_mfcc_f32.c **** 
  29:.\DSP\Source\TransformFunctions/arm_mfcc_f32.c **** 
  30:.\DSP\Source\TransformFunctions/arm_mfcc_f32.c **** 
ARM GAS  C:\Users\IVYLIU~1\AppData\Local\Temp\ccc8rF90.s 			page 2


  31:.\DSP\Source\TransformFunctions/arm_mfcc_f32.c **** #include "dsp/transform_functions.h"
  32:.\DSP\Source\TransformFunctions/arm_mfcc_f32.c **** #include "dsp/statistics_functions.h"
  33:.\DSP\Source\TransformFunctions/arm_mfcc_f32.c **** #include "dsp/basic_math_functions.h"
  34:.\DSP\Source\TransformFunctions/arm_mfcc_f32.c **** #include "dsp/complex_math_functions.h"
  35:.\DSP\Source\TransformFunctions/arm_mfcc_f32.c **** #include "dsp/fast_math_functions.h"
  36:.\DSP\Source\TransformFunctions/arm_mfcc_f32.c **** #include "dsp/matrix_functions.h"
  37:.\DSP\Source\TransformFunctions/arm_mfcc_f32.c **** 
  38:.\DSP\Source\TransformFunctions/arm_mfcc_f32.c **** /**
  39:.\DSP\Source\TransformFunctions/arm_mfcc_f32.c ****   @ingroup groupTransforms
  40:.\DSP\Source\TransformFunctions/arm_mfcc_f32.c ****  */
  41:.\DSP\Source\TransformFunctions/arm_mfcc_f32.c **** 
  42:.\DSP\Source\TransformFunctions/arm_mfcc_f32.c **** 
  43:.\DSP\Source\TransformFunctions/arm_mfcc_f32.c **** /**
  44:.\DSP\Source\TransformFunctions/arm_mfcc_f32.c ****   @defgroup MFCC MFCC
  45:.\DSP\Source\TransformFunctions/arm_mfcc_f32.c **** 
  46:.\DSP\Source\TransformFunctions/arm_mfcc_f32.c ****   MFCC Transform
  47:.\DSP\Source\TransformFunctions/arm_mfcc_f32.c **** 
  48:.\DSP\Source\TransformFunctions/arm_mfcc_f32.c ****   There are separate functions for floating-point, Q15, and Q31 data types.
  49:.\DSP\Source\TransformFunctions/arm_mfcc_f32.c ****  */
  50:.\DSP\Source\TransformFunctions/arm_mfcc_f32.c **** 
  51:.\DSP\Source\TransformFunctions/arm_mfcc_f32.c **** 
  52:.\DSP\Source\TransformFunctions/arm_mfcc_f32.c **** 
  53:.\DSP\Source\TransformFunctions/arm_mfcc_f32.c **** /**
  54:.\DSP\Source\TransformFunctions/arm_mfcc_f32.c ****   @addtogroup MFCC
  55:.\DSP\Source\TransformFunctions/arm_mfcc_f32.c ****   @{
  56:.\DSP\Source\TransformFunctions/arm_mfcc_f32.c ****  */
  57:.\DSP\Source\TransformFunctions/arm_mfcc_f32.c **** 
  58:.\DSP\Source\TransformFunctions/arm_mfcc_f32.c **** /**
  59:.\DSP\Source\TransformFunctions/arm_mfcc_f32.c ****   @brief         MFCC F32
  60:.\DSP\Source\TransformFunctions/arm_mfcc_f32.c ****   @param[in]    S       points to the mfcc instance structure
  61:.\DSP\Source\TransformFunctions/arm_mfcc_f32.c ****   @param[in]     pSrc points to the input samples
  62:.\DSP\Source\TransformFunctions/arm_mfcc_f32.c ****   @param[out]     pDst  points to the output MFCC values
  63:.\DSP\Source\TransformFunctions/arm_mfcc_f32.c ****   @param[inout]     pTmp  points to a temporary buffer of complex
  64:.\DSP\Source\TransformFunctions/arm_mfcc_f32.c **** 
  65:.\DSP\Source\TransformFunctions/arm_mfcc_f32.c ****   @return        none
  66:.\DSP\Source\TransformFunctions/arm_mfcc_f32.c **** 
  67:.\DSP\Source\TransformFunctions/arm_mfcc_f32.c ****   @par           Description
  68:.\DSP\Source\TransformFunctions/arm_mfcc_f32.c ****                    The number of input samples if the FFT length used
  69:.\DSP\Source\TransformFunctions/arm_mfcc_f32.c ****                    when initializing the instance data structure.
  70:.\DSP\Source\TransformFunctions/arm_mfcc_f32.c **** 
  71:.\DSP\Source\TransformFunctions/arm_mfcc_f32.c ****                    The temporary buffer has a 2*fft length size when MFCC
  72:.\DSP\Source\TransformFunctions/arm_mfcc_f32.c ****                    is implemented with CFFT.
  73:.\DSP\Source\TransformFunctions/arm_mfcc_f32.c ****                    It has length FFT Length + 2 when implemented with RFFT
  74:.\DSP\Source\TransformFunctions/arm_mfcc_f32.c ****                    (default implementation).
  75:.\DSP\Source\TransformFunctions/arm_mfcc_f32.c **** 
  76:.\DSP\Source\TransformFunctions/arm_mfcc_f32.c ****                    The source buffer is modified by this function.
  77:.\DSP\Source\TransformFunctions/arm_mfcc_f32.c **** 
  78:.\DSP\Source\TransformFunctions/arm_mfcc_f32.c ****  */
  79:.\DSP\Source\TransformFunctions/arm_mfcc_f32.c **** void arm_mfcc_f32(
  80:.\DSP\Source\TransformFunctions/arm_mfcc_f32.c ****   const arm_mfcc_instance_f32 * S,
  81:.\DSP\Source\TransformFunctions/arm_mfcc_f32.c ****   float32_t *pSrc,
  82:.\DSP\Source\TransformFunctions/arm_mfcc_f32.c ****   float32_t *pDst,
  83:.\DSP\Source\TransformFunctions/arm_mfcc_f32.c ****   float32_t *pTmp
  84:.\DSP\Source\TransformFunctions/arm_mfcc_f32.c ****   )
  85:.\DSP\Source\TransformFunctions/arm_mfcc_f32.c **** {
  28              		.loc 1 85 0
  29              		.cfi_startproc
ARM GAS  C:\Users\IVYLIU~1\AppData\Local\Temp\ccc8rF90.s 			page 3


  30              		@ args = 0, pretend = 0, frame = 24
  31              		@ frame_needed = 0, uses_anonymous_args = 0
  32              	.LVL0:
  33 0000 2DE9F043 		push	{r4, r5, r6, r7, r8, r9, lr}
  34              		.cfi_def_cfa_offset 28
  35              		.cfi_offset 4, -28
  36              		.cfi_offset 5, -24
  37              		.cfi_offset 6, -20
  38              		.cfi_offset 7, -16
  39              		.cfi_offset 8, -12
  40              		.cfi_offset 9, -8
  41              		.cfi_offset 14, -4
  42 0004 87B0     		sub	sp, sp, #28
  43              		.cfi_def_cfa_offset 56
  44 0006 0546     		mov	r5, r0
  45 0008 8846     		mov	r8, r1
  46 000a 9146     		mov	r9, r2
  47 000c 1F46     		mov	r7, r3
  86:.\DSP\Source\TransformFunctions/arm_mfcc_f32.c ****   float32_t maxValue;
  87:.\DSP\Source\TransformFunctions/arm_mfcc_f32.c ****   uint32_t  index; 
  88:.\DSP\Source\TransformFunctions/arm_mfcc_f32.c ****   uint32_t i;
  89:.\DSP\Source\TransformFunctions/arm_mfcc_f32.c ****   float32_t result;
  90:.\DSP\Source\TransformFunctions/arm_mfcc_f32.c ****   const float32_t *coefs=S->filterCoefs;
  48              		.loc 1 90 0
  49 000e 4668     		ldr	r6, [r0, #4]
  50              	.LVL1:
  91:.\DSP\Source\TransformFunctions/arm_mfcc_f32.c ****   arm_matrix_instance_f32 pDctMat;
  92:.\DSP\Source\TransformFunctions/arm_mfcc_f32.c **** 
  93:.\DSP\Source\TransformFunctions/arm_mfcc_f32.c ****   /* Normalize */
  94:.\DSP\Source\TransformFunctions/arm_mfcc_f32.c ****   arm_absmax_f32(pSrc,S->fftLen,&maxValue,&index);
  51              		.loc 1 94 0
  52 0010 0846     		mov	r0, r1
  53              	.LVL2:
  54 0012 6969     		ldr	r1, [r5, #20]
  55              	.LVL3:
  56 0014 05AA     		add	r2, sp, #20
  57              	.LVL4:
  58 0016 04AB     		add	r3, sp, #16
  59              	.LVL5:
  60 0018 FFF7FEFF 		bl	arm_absmax_f32
  61              	.LVL6:
  95:.\DSP\Source\TransformFunctions/arm_mfcc_f32.c **** 
  96:.\DSP\Source\TransformFunctions/arm_mfcc_f32.c ****   arm_scale_f32(pSrc,1.0f/maxValue,pSrc,S->fftLen);
  62              		.loc 1 96 0
  63 001c 4FF07E50 		mov	r0, #1065353216
  64 0020 0599     		ldr	r1, [sp, #20]	@ float
  65 0022 FFF7FEFF 		bl	__aeabi_fdiv
  66              	.LVL7:
  67 0026 0146     		mov	r1, r0
  68 0028 4046     		mov	r0, r8
  69 002a 4246     		mov	r2, r8
  70 002c 6B69     		ldr	r3, [r5, #20]
  71 002e FFF7FEFF 		bl	arm_scale_f32
  72              	.LVL8:
  97:.\DSP\Source\TransformFunctions/arm_mfcc_f32.c **** 
  98:.\DSP\Source\TransformFunctions/arm_mfcc_f32.c ****   /* Multiply by window */
  99:.\DSP\Source\TransformFunctions/arm_mfcc_f32.c ****   arm_mult_f32(pSrc,S->windowCoefs,pSrc,S->fftLen);
ARM GAS  C:\Users\IVYLIU~1\AppData\Local\Temp\ccc8rF90.s 			page 4


  73              		.loc 1 99 0
  74 0032 4046     		mov	r0, r8
  75 0034 A968     		ldr	r1, [r5, #8]
  76 0036 4246     		mov	r2, r8
  77 0038 6B69     		ldr	r3, [r5, #20]
  78 003a FFF7FEFF 		bl	arm_mult_f32
  79              	.LVL9:
 100:.\DSP\Source\TransformFunctions/arm_mfcc_f32.c **** 
 101:.\DSP\Source\TransformFunctions/arm_mfcc_f32.c ****   /* Compute spectrum magnitude 
 102:.\DSP\Source\TransformFunctions/arm_mfcc_f32.c ****   */
 103:.\DSP\Source\TransformFunctions/arm_mfcc_f32.c **** #if defined(ARM_MFCC_CFFT_BASED)
 104:.\DSP\Source\TransformFunctions/arm_mfcc_f32.c ****   /* some HW accelerator for CMSIS-DSP used in some boards
 105:.\DSP\Source\TransformFunctions/arm_mfcc_f32.c ****      are only providing acceleration for CFFT.
 106:.\DSP\Source\TransformFunctions/arm_mfcc_f32.c ****      With ARM_MFCC_CFFT_BASED enabled, CFFT is used and the MFCC
 107:.\DSP\Source\TransformFunctions/arm_mfcc_f32.c ****      will be accelerated on those boards.
 108:.\DSP\Source\TransformFunctions/arm_mfcc_f32.c ****  
 109:.\DSP\Source\TransformFunctions/arm_mfcc_f32.c ****      The default is to use RFFT
 110:.\DSP\Source\TransformFunctions/arm_mfcc_f32.c ****   */
 111:.\DSP\Source\TransformFunctions/arm_mfcc_f32.c ****   /* Convert from real to complex */
 112:.\DSP\Source\TransformFunctions/arm_mfcc_f32.c ****   for(i=0; i < S->fftLen ; i++)
 113:.\DSP\Source\TransformFunctions/arm_mfcc_f32.c ****   {
 114:.\DSP\Source\TransformFunctions/arm_mfcc_f32.c ****     pTmp[2*i] = pSrc[i];
 115:.\DSP\Source\TransformFunctions/arm_mfcc_f32.c ****     pTmp[2*i+1] = 0.0f;
 116:.\DSP\Source\TransformFunctions/arm_mfcc_f32.c ****   }
 117:.\DSP\Source\TransformFunctions/arm_mfcc_f32.c ****   arm_cfft_f32(&(S->cfft),pTmp,0,1);
 118:.\DSP\Source\TransformFunctions/arm_mfcc_f32.c **** #else
 119:.\DSP\Source\TransformFunctions/arm_mfcc_f32.c ****   /* Default RFFT based implementation */
 120:.\DSP\Source\TransformFunctions/arm_mfcc_f32.c ****   arm_rfft_fast_f32(&(S->rfft),pSrc,pTmp,0);
  80              		.loc 1 120 0
  81 003e 05F12000 		add	r0, r5, #32
  82 0042 4146     		mov	r1, r8
  83 0044 3A46     		mov	r2, r7
  84 0046 0023     		movs	r3, #0
  85 0048 FFF7FEFF 		bl	arm_rfft_fast_f32
  86              	.LVL10:
 121:.\DSP\Source\TransformFunctions/arm_mfcc_f32.c ****   /* Unpack real values */
 122:.\DSP\Source\TransformFunctions/arm_mfcc_f32.c ****   pTmp[S->fftLen]=pTmp[1];
  87              		.loc 1 122 0
  88 004c 6B69     		ldr	r3, [r5, #20]
  89 004e 7A68     		ldr	r2, [r7, #4]	@ float
  90 0050 47F82320 		str	r2, [r7, r3, lsl #2]	@ float
 123:.\DSP\Source\TransformFunctions/arm_mfcc_f32.c ****   pTmp[S->fftLen+1]=0.0f;
  91              		.loc 1 123 0
  92 0054 6B69     		ldr	r3, [r5, #20]
  93 0056 0133     		adds	r3, r3, #1
  94 0058 0022     		movs	r2, #0
  95 005a 47F82320 		str	r2, [r7, r3, lsl #2]	@ float
 124:.\DSP\Source\TransformFunctions/arm_mfcc_f32.c ****   pTmp[1]=0.0f;
  96              		.loc 1 124 0
  97 005e 7A60     		str	r2, [r7, #4]	@ float
 125:.\DSP\Source\TransformFunctions/arm_mfcc_f32.c **** #endif
 126:.\DSP\Source\TransformFunctions/arm_mfcc_f32.c ****   arm_cmplx_mag_f32(pTmp,pSrc,S->fftLen);
  98              		.loc 1 126 0
  99 0060 3846     		mov	r0, r7
 100 0062 4146     		mov	r1, r8
 101 0064 6A69     		ldr	r2, [r5, #20]
 102 0066 FFF7FEFF 		bl	arm_cmplx_mag_f32
ARM GAS  C:\Users\IVYLIU~1\AppData\Local\Temp\ccc8rF90.s 			page 5


 103              	.LVL11:
 127:.\DSP\Source\TransformFunctions/arm_mfcc_f32.c **** 
 128:.\DSP\Source\TransformFunctions/arm_mfcc_f32.c ****   /* Apply MEL filters */
 129:.\DSP\Source\TransformFunctions/arm_mfcc_f32.c ****   for(i=0; i<S->nbMelFilters; i++)
 104              		.loc 1 129 0
 105 006a 0024     		movs	r4, #0
 106 006c 14E0     		b	.L2
 107              	.LVL12:
 108              	.L3:
 130:.\DSP\Source\TransformFunctions/arm_mfcc_f32.c ****   {
 131:.\DSP\Source\TransformFunctions/arm_mfcc_f32.c ****       arm_dot_prod_f32(pSrc+S->filterPos[i],
 109              		.loc 1 131 0 discriminator 3
 110 006e EB68     		ldr	r3, [r5, #12]
 111 0070 53F82400 		ldr	r0, [r3, r4, lsl #2]
 132:.\DSP\Source\TransformFunctions/arm_mfcc_f32.c ****         coefs,
 133:.\DSP\Source\TransformFunctions/arm_mfcc_f32.c ****         S->filterLengths[i],
 112              		.loc 1 133 0 discriminator 3
 113 0074 2B69     		ldr	r3, [r5, #16]
 131:.\DSP\Source\TransformFunctions/arm_mfcc_f32.c ****         coefs,
 114              		.loc 1 131 0 discriminator 3
 115 0076 08EB8000 		add	r0, r8, r0, lsl #2
 116 007a 3146     		mov	r1, r6
 117 007c 53F82420 		ldr	r2, [r3, r4, lsl #2]
 118 0080 03AB     		add	r3, sp, #12
 119 0082 FFF7FEFF 		bl	arm_dot_prod_f32
 120              	.LVL13:
 134:.\DSP\Source\TransformFunctions/arm_mfcc_f32.c ****         &result);
 135:.\DSP\Source\TransformFunctions/arm_mfcc_f32.c **** 
 136:.\DSP\Source\TransformFunctions/arm_mfcc_f32.c ****       coefs += S->filterLengths[i];
 121              		.loc 1 136 0 discriminator 3
 122 0086 2B69     		ldr	r3, [r5, #16]
 123 0088 53F82430 		ldr	r3, [r3, r4, lsl #2]
 124 008c 06EB8306 		add	r6, r6, r3, lsl #2
 125              	.LVL14:
 137:.\DSP\Source\TransformFunctions/arm_mfcc_f32.c **** 
 138:.\DSP\Source\TransformFunctions/arm_mfcc_f32.c ****       pTmp[i] = result;
 126              		.loc 1 138 0 discriminator 3
 127 0090 039B     		ldr	r3, [sp, #12]	@ float
 128 0092 47F82430 		str	r3, [r7, r4, lsl #2]	@ float
 129:.\DSP\Source\TransformFunctions/arm_mfcc_f32.c ****   {
 129              		.loc 1 129 0 discriminator 3
 130 0096 0134     		adds	r4, r4, #1
 131              	.LVL15:
 132              	.L2:
 129:.\DSP\Source\TransformFunctions/arm_mfcc_f32.c ****   {
 133              		.loc 1 129 0 is_stmt 0 discriminator 1
 134 0098 AB69     		ldr	r3, [r5, #24]
 135 009a A342     		cmp	r3, r4
 136 009c E7D8     		bhi	.L3
 139:.\DSP\Source\TransformFunctions/arm_mfcc_f32.c **** 
 140:.\DSP\Source\TransformFunctions/arm_mfcc_f32.c ****   }
 141:.\DSP\Source\TransformFunctions/arm_mfcc_f32.c **** 
 142:.\DSP\Source\TransformFunctions/arm_mfcc_f32.c ****   /* Compute the log */
 143:.\DSP\Source\TransformFunctions/arm_mfcc_f32.c ****   arm_offset_f32(pTmp,1.0e-6f,pTmp,S->nbMelFilters);
 137              		.loc 1 143 0 is_stmt 1
 138 009e 3846     		mov	r0, r7
 139 00a0 0C49     		ldr	r1, .L5
ARM GAS  C:\Users\IVYLIU~1\AppData\Local\Temp\ccc8rF90.s 			page 6


 140 00a2 3A46     		mov	r2, r7
 141 00a4 FFF7FEFF 		bl	arm_offset_f32
 142              	.LVL16:
 144:.\DSP\Source\TransformFunctions/arm_mfcc_f32.c ****   arm_vlog_f32(pTmp,pTmp,S->nbMelFilters);
 143              		.loc 1 144 0
 144 00a8 3846     		mov	r0, r7
 145 00aa 3946     		mov	r1, r7
 146 00ac AA69     		ldr	r2, [r5, #24]
 147 00ae FFF7FEFF 		bl	arm_vlog_f32
 148              	.LVL17:
 145:.\DSP\Source\TransformFunctions/arm_mfcc_f32.c **** 
 146:.\DSP\Source\TransformFunctions/arm_mfcc_f32.c ****   /* Multiply with the DCT matrix */
 147:.\DSP\Source\TransformFunctions/arm_mfcc_f32.c **** 
 148:.\DSP\Source\TransformFunctions/arm_mfcc_f32.c ****   pDctMat.numRows=S->nbDctOutputs;
 149              		.loc 1 148 0
 150 00b2 EB69     		ldr	r3, [r5, #28]
 151 00b4 ADF80430 		strh	r3, [sp, #4]	@ movhi
 149:.\DSP\Source\TransformFunctions/arm_mfcc_f32.c ****   pDctMat.numCols=S->nbMelFilters;
 152              		.loc 1 149 0
 153 00b8 AB69     		ldr	r3, [r5, #24]
 154 00ba ADF80630 		strh	r3, [sp, #6]	@ movhi
 150:.\DSP\Source\TransformFunctions/arm_mfcc_f32.c ****   pDctMat.pData=(float32_t*)S->dctCoefs;
 155              		.loc 1 150 0
 156 00be 2B68     		ldr	r3, [r5]
 157 00c0 0293     		str	r3, [sp, #8]
 151:.\DSP\Source\TransformFunctions/arm_mfcc_f32.c **** 
 152:.\DSP\Source\TransformFunctions/arm_mfcc_f32.c ****   arm_mat_vec_mult_f32(&pDctMat, pTmp, pDst);
 158              		.loc 1 152 0
 159 00c2 01A8     		add	r0, sp, #4
 160 00c4 3946     		mov	r1, r7
 161 00c6 4A46     		mov	r2, r9
 162 00c8 FFF7FEFF 		bl	arm_mat_vec_mult_f32
 163              	.LVL18:
 153:.\DSP\Source\TransformFunctions/arm_mfcc_f32.c ****       
 154:.\DSP\Source\TransformFunctions/arm_mfcc_f32.c **** 
 155:.\DSP\Source\TransformFunctions/arm_mfcc_f32.c **** }
 164              		.loc 1 155 0
 165 00cc 07B0     		add	sp, sp, #28
 166              		.cfi_def_cfa_offset 28
 167              		@ sp needed
 168 00ce BDE8F083 		pop	{r4, r5, r6, r7, r8, r9, pc}
 169              	.LVL19:
 170              	.L6:
 171 00d2 00BF     		.align	2
 172              	.L5:
 173 00d4 BD378635 		.word	897988541
 174              		.cfi_endproc
 175              	.LFE84:
 176              		.size	arm_mfcc_f32, .-arm_mfcc_f32
 177              		.text
 178              	.Letext0:
 179              		.file 2 "c:\\program files (x86)\\cypress\\psoc creator\\3.3\\psoc creator\\import\\gnu\\arm\\4.9.
 180              		.file 3 "c:\\program files (x86)\\cypress\\psoc creator\\3.3\\psoc creator\\import\\gnu\\arm\\4.9.
 181              		.file 4 ".\\DSP\\Include/arm_math_types.h"
 182              		.file 5 ".\\DSP\\Include/dsp/transform_functions.h"
 183              		.file 6 ".\\DSP\\Include/dsp/matrix_functions.h"
 184              		.file 7 ".\\Core\\Include/cmsis_gcc.h"
ARM GAS  C:\Users\IVYLIU~1\AppData\Local\Temp\ccc8rF90.s 			page 7


 185              		.file 8 ".\\DSP\\Include/dsp/statistics_functions.h"
 186              		.file 9 ".\\DSP\\Include/dsp/basic_math_functions.h"
 187              		.file 10 ".\\DSP\\Include/dsp/complex_math_functions.h"
 188              		.file 11 ".\\DSP\\Include/dsp/fast_math_functions.h"