ARM GAS  C:\Users\IVYLIU~1\AppData\Local\Temp\ccQBrppV.s 			page 1


   1              		.syntax unified
   2              		.cpu cortex-m3
   3              		.fpu softvfp
   4              		.eabi_attribute 20, 1
   5              		.eabi_attribute 21, 1
   6              		.eabi_attribute 23, 3
   7              		.eabi_attribute 24, 1
   8              		.eabi_attribute 25, 1
   9              		.eabi_attribute 26, 1
  10              		.eabi_attribute 30, 1
  11              		.eabi_attribute 34, 1
  12              		.eabi_attribute 18, 4
  13              		.thumb
  14              		.file	"arm_dct4_q15.c"
  15              		.text
  16              	.Ltext0:
  17              		.cfi_sections	.debug_frame
  18              		.section	.text.arm_dct4_q15,"ax",%progbits
  19              		.align	2
  20              		.global	arm_dct4_q15
  21              		.thumb
  22              		.thumb_func
  23              		.type	arm_dct4_q15, %function
  24              	arm_dct4_q15:
  25              	.LFB84:
  26              		.file 1 ".\\DSP\\Source\\TransformFunctions\\arm_dct4_q15.c"
   1:.\DSP\Source\TransformFunctions/arm_dct4_q15.c **** /* ----------------------------------------------------------------------
   2:.\DSP\Source\TransformFunctions/arm_dct4_q15.c ****  * Project:      CMSIS DSP Library
   3:.\DSP\Source\TransformFunctions/arm_dct4_q15.c ****  * Title:        arm_dct4_q15.c
   4:.\DSP\Source\TransformFunctions/arm_dct4_q15.c ****  * Description:  Processing function of DCT4 & IDCT4 Q15
   5:.\DSP\Source\TransformFunctions/arm_dct4_q15.c ****  *
   6:.\DSP\Source\TransformFunctions/arm_dct4_q15.c ****  * $Date:        23 April 2021
   7:.\DSP\Source\TransformFunctions/arm_dct4_q15.c ****  * $Revision:    V1.9.0
   8:.\DSP\Source\TransformFunctions/arm_dct4_q15.c ****  *
   9:.\DSP\Source\TransformFunctions/arm_dct4_q15.c ****  * Target Processor: Cortex-M and Cortex-A cores
  10:.\DSP\Source\TransformFunctions/arm_dct4_q15.c ****  * -------------------------------------------------------------------- */
  11:.\DSP\Source\TransformFunctions/arm_dct4_q15.c **** /*
  12:.\DSP\Source\TransformFunctions/arm_dct4_q15.c ****  * Copyright (C) 2010-2021 ARM Limited or its affiliates. All rights reserved.
  13:.\DSP\Source\TransformFunctions/arm_dct4_q15.c ****  *
  14:.\DSP\Source\TransformFunctions/arm_dct4_q15.c ****  * SPDX-License-Identifier: Apache-2.0
  15:.\DSP\Source\TransformFunctions/arm_dct4_q15.c ****  *
  16:.\DSP\Source\TransformFunctions/arm_dct4_q15.c ****  * Licensed under the Apache License, Version 2.0 (the License); you may
  17:.\DSP\Source\TransformFunctions/arm_dct4_q15.c ****  * not use this file except in compliance with the License.
  18:.\DSP\Source\TransformFunctions/arm_dct4_q15.c ****  * You may obtain a copy of the License at
  19:.\DSP\Source\TransformFunctions/arm_dct4_q15.c ****  *
  20:.\DSP\Source\TransformFunctions/arm_dct4_q15.c ****  * www.apache.org/licenses/LICENSE-2.0
  21:.\DSP\Source\TransformFunctions/arm_dct4_q15.c ****  *
  22:.\DSP\Source\TransformFunctions/arm_dct4_q15.c ****  * Unless required by applicable law or agreed to in writing, software
  23:.\DSP\Source\TransformFunctions/arm_dct4_q15.c ****  * distributed under the License is distributed on an AS IS BASIS, WITHOUT
  24:.\DSP\Source\TransformFunctions/arm_dct4_q15.c ****  * WARRANTIES OR CONDITIONS OF ANY KIND, either express or implied.
  25:.\DSP\Source\TransformFunctions/arm_dct4_q15.c ****  * See the License for the specific language governing permissions and
  26:.\DSP\Source\TransformFunctions/arm_dct4_q15.c ****  * limitations under the License.
  27:.\DSP\Source\TransformFunctions/arm_dct4_q15.c ****  */
  28:.\DSP\Source\TransformFunctions/arm_dct4_q15.c **** 
  29:.\DSP\Source\TransformFunctions/arm_dct4_q15.c **** #include "dsp/transform_functions.h"
  30:.\DSP\Source\TransformFunctions/arm_dct4_q15.c **** 
  31:.\DSP\Source\TransformFunctions/arm_dct4_q15.c **** /**
ARM GAS  C:\Users\IVYLIU~1\AppData\Local\Temp\ccQBrppV.s 			page 2


  32:.\DSP\Source\TransformFunctions/arm_dct4_q15.c ****   @addtogroup DCT4_IDCT4
  33:.\DSP\Source\TransformFunctions/arm_dct4_q15.c ****   @{
  34:.\DSP\Source\TransformFunctions/arm_dct4_q15.c ****  */
  35:.\DSP\Source\TransformFunctions/arm_dct4_q15.c **** 
  36:.\DSP\Source\TransformFunctions/arm_dct4_q15.c **** /**
  37:.\DSP\Source\TransformFunctions/arm_dct4_q15.c ****   @brief         Processing function for the Q15 DCT4/IDCT4.
  38:.\DSP\Source\TransformFunctions/arm_dct4_q15.c ****   @param[in]     S             points to an instance of the Q15 DCT4 structure.
  39:.\DSP\Source\TransformFunctions/arm_dct4_q15.c ****   @param[in]     pState        points to state buffer.
  40:.\DSP\Source\TransformFunctions/arm_dct4_q15.c ****   @param[in,out] pInlineBuffer points to the in-place input and output buffer.
  41:.\DSP\Source\TransformFunctions/arm_dct4_q15.c ****   @return        none
  42:.\DSP\Source\TransformFunctions/arm_dct4_q15.c ****  
  43:.\DSP\Source\TransformFunctions/arm_dct4_q15.c ****   @par           Input an output formats
  44:.\DSP\Source\TransformFunctions/arm_dct4_q15.c ****                    Internally inputs are downscaled in the RFFT process function to avoid overflows
  45:.\DSP\Source\TransformFunctions/arm_dct4_q15.c ****                    Number of bits downscaled, depends on the size of the transform. The input and o
  46:.\DSP\Source\TransformFunctions/arm_dct4_q15.c ****                    formats for different DCT sizes and number of bits to upscale are mentioned in t
  47:.\DSP\Source\TransformFunctions/arm_dct4_q15.c **** 
  48:.\DSP\Source\TransformFunctions/arm_dct4_q15.c ****                    \image html dct4FormatsQ15Table.gif
  49:.\DSP\Source\TransformFunctions/arm_dct4_q15.c ****  */
  50:.\DSP\Source\TransformFunctions/arm_dct4_q15.c **** 
  51:.\DSP\Source\TransformFunctions/arm_dct4_q15.c **** void arm_dct4_q15(
  52:.\DSP\Source\TransformFunctions/arm_dct4_q15.c ****   const arm_dct4_instance_q15 * S,
  53:.\DSP\Source\TransformFunctions/arm_dct4_q15.c ****         q15_t * pState,
  54:.\DSP\Source\TransformFunctions/arm_dct4_q15.c ****         q15_t * pInlineBuffer)
  55:.\DSP\Source\TransformFunctions/arm_dct4_q15.c **** {
  27              		.loc 1 55 0
  28              		.cfi_startproc
  29              		@ args = 0, pretend = 0, frame = 0
  30              		@ frame_needed = 0, uses_anonymous_args = 0
  31              	.LVL0:
  32 0000 F8B5     		push	{r3, r4, r5, r6, r7, lr}
  33              		.cfi_def_cfa_offset 24
  34              		.cfi_offset 3, -24
  35              		.cfi_offset 4, -20
  36              		.cfi_offset 5, -16
  37              		.cfi_offset 6, -12
  38              		.cfi_offset 7, -8
  39              		.cfi_offset 14, -4
  40 0002 0546     		mov	r5, r0
  41 0004 0E46     		mov	r6, r1
  42 0006 1446     		mov	r4, r2
  56:.\DSP\Source\TransformFunctions/arm_dct4_q15.c ****   const q15_t *weights = S->pTwiddle;                  /* Pointer to the Weights table */
  43              		.loc 1 56 0
  44 0008 8768     		ldr	r7, [r0, #8]
  45              	.LVL1:
  57:.\DSP\Source\TransformFunctions/arm_dct4_q15.c ****   const q15_t *cosFact = S->pCosFactor;                /* Pointer to the cos factors table */
  58:.\DSP\Source\TransformFunctions/arm_dct4_q15.c ****         q15_t *pS1, *pS2, *pbuff;                      /* Temporary pointers for input buffer and p
  59:.\DSP\Source\TransformFunctions/arm_dct4_q15.c ****         q15_t in;                                      /* Temporary variable */
  60:.\DSP\Source\TransformFunctions/arm_dct4_q15.c ****         uint32_t i;                                    /* Loop counter */
  61:.\DSP\Source\TransformFunctions/arm_dct4_q15.c **** 
  62:.\DSP\Source\TransformFunctions/arm_dct4_q15.c **** 
  63:.\DSP\Source\TransformFunctions/arm_dct4_q15.c ****   /* DCT4 computation involves DCT2 (which is calculated using RFFT)
  64:.\DSP\Source\TransformFunctions/arm_dct4_q15.c ****    * along with some pre-processing and post-processing.
  65:.\DSP\Source\TransformFunctions/arm_dct4_q15.c ****    * Computational procedure is explained as follows:
  66:.\DSP\Source\TransformFunctions/arm_dct4_q15.c ****    * (a) Pre-processing involves multiplying input with cos factor,
  67:.\DSP\Source\TransformFunctions/arm_dct4_q15.c ****    *     r(n) = 2 * u(n) * cos(pi*(2*n+1)/(4*n))
  68:.\DSP\Source\TransformFunctions/arm_dct4_q15.c ****    *              where,
  69:.\DSP\Source\TransformFunctions/arm_dct4_q15.c ****    *                 r(n) -- output of preprocessing
ARM GAS  C:\Users\IVYLIU~1\AppData\Local\Temp\ccQBrppV.s 			page 3


  70:.\DSP\Source\TransformFunctions/arm_dct4_q15.c ****    *                 u(n) -- input to preprocessing(actual Source buffer)
  71:.\DSP\Source\TransformFunctions/arm_dct4_q15.c ****    * (b) Calculation of DCT2 using FFT is divided into three steps:
  72:.\DSP\Source\TransformFunctions/arm_dct4_q15.c ****    *                  Step1: Re-ordering of even and odd elements of input.
  73:.\DSP\Source\TransformFunctions/arm_dct4_q15.c ****    *                  Step2: Calculating FFT of the re-ordered input.
  74:.\DSP\Source\TransformFunctions/arm_dct4_q15.c ****    *                  Step3: Taking the real part of the product of FFT output and weights.
  75:.\DSP\Source\TransformFunctions/arm_dct4_q15.c ****    * (c) Post-processing - DCT4 can be obtained from DCT2 output using the following equation:
  76:.\DSP\Source\TransformFunctions/arm_dct4_q15.c ****    *                   Y4(k) = Y2(k) - Y4(k-1) and Y4(-1) = Y4(0)
  77:.\DSP\Source\TransformFunctions/arm_dct4_q15.c ****    *                        where,
  78:.\DSP\Source\TransformFunctions/arm_dct4_q15.c ****    *                           Y4 -- DCT4 output,   Y2 -- DCT2 output
  79:.\DSP\Source\TransformFunctions/arm_dct4_q15.c ****    * (d) Multiplying the output with the normalizing factor sqrt(2/N).
  80:.\DSP\Source\TransformFunctions/arm_dct4_q15.c ****    */
  81:.\DSP\Source\TransformFunctions/arm_dct4_q15.c **** 
  82:.\DSP\Source\TransformFunctions/arm_dct4_q15.c ****   /*-------- Pre-processing ------------*/
  83:.\DSP\Source\TransformFunctions/arm_dct4_q15.c ****   /* Multiplying input with cos factor i.e. r(n) = 2 * x(n) * cos(pi*(2*n+1)/(4*n)) */
  84:.\DSP\Source\TransformFunctions/arm_dct4_q15.c ****   arm_mult_q15 (pInlineBuffer, cosFact, pInlineBuffer, S->N);
  46              		.loc 1 84 0
  47 000a 1046     		mov	r0, r2
  48              	.LVL2:
  49 000c E968     		ldr	r1, [r5, #12]
  50              	.LVL3:
  51 000e 2B88     		ldrh	r3, [r5]
  52 0010 FFF7FEFF 		bl	arm_mult_q15
  53              	.LVL4:
  85:.\DSP\Source\TransformFunctions/arm_dct4_q15.c ****   arm_shift_q15 (pInlineBuffer, 1, pInlineBuffer, S->N);
  54              		.loc 1 85 0
  55 0014 2046     		mov	r0, r4
  56 0016 0121     		movs	r1, #1
  57 0018 2246     		mov	r2, r4
  58 001a 2B88     		ldrh	r3, [r5]
  59 001c FFF7FEFF 		bl	arm_shift_q15
  60              	.LVL5:
  86:.\DSP\Source\TransformFunctions/arm_dct4_q15.c **** 
  87:.\DSP\Source\TransformFunctions/arm_dct4_q15.c ****   /* ----------------------------------------------------------------
  88:.\DSP\Source\TransformFunctions/arm_dct4_q15.c ****    * Step1: Re-ordering of even and odd elements as
  89:.\DSP\Source\TransformFunctions/arm_dct4_q15.c ****    *             pState[i] =  pInlineBuffer[2*i] and
  90:.\DSP\Source\TransformFunctions/arm_dct4_q15.c ****    *             pState[N-i-1] = pInlineBuffer[2*i+1] where i = 0 to N/2
  91:.\DSP\Source\TransformFunctions/arm_dct4_q15.c ****    ---------------------------------------------------------------------*/
  92:.\DSP\Source\TransformFunctions/arm_dct4_q15.c **** 
  93:.\DSP\Source\TransformFunctions/arm_dct4_q15.c ****   /* pS1 initialized to pState */
  94:.\DSP\Source\TransformFunctions/arm_dct4_q15.c ****   pS1 = pState;
  95:.\DSP\Source\TransformFunctions/arm_dct4_q15.c **** 
  96:.\DSP\Source\TransformFunctions/arm_dct4_q15.c ****   /* pS2 initialized to pState+N-1, so that it points to the end of the state buffer */
  97:.\DSP\Source\TransformFunctions/arm_dct4_q15.c ****   pS2 = pState + (S->N - 1U);
  61              		.loc 1 97 0
  62 0020 2A88     		ldrh	r2, [r5]
  63 0022 02F10042 		add	r2, r2, #-2147483648
  64 0026 013A     		subs	r2, r2, #1
  65 0028 06EB4202 		add	r2, r6, r2, lsl #1
  66              	.LVL6:
  98:.\DSP\Source\TransformFunctions/arm_dct4_q15.c **** 
  99:.\DSP\Source\TransformFunctions/arm_dct4_q15.c ****   /* pbuff initialized to input buffer */
 100:.\DSP\Source\TransformFunctions/arm_dct4_q15.c ****   pbuff = pInlineBuffer;
 101:.\DSP\Source\TransformFunctions/arm_dct4_q15.c **** 
 102:.\DSP\Source\TransformFunctions/arm_dct4_q15.c **** 
 103:.\DSP\Source\TransformFunctions/arm_dct4_q15.c **** #if defined (ARM_MATH_LOOPUNROLL)
 104:.\DSP\Source\TransformFunctions/arm_dct4_q15.c **** 
 105:.\DSP\Source\TransformFunctions/arm_dct4_q15.c ****   /* Initializing the loop counter to N/2 >> 2 for loop unrolling by 4 */
ARM GAS  C:\Users\IVYLIU~1\AppData\Local\Temp\ccQBrppV.s 			page 4


 106:.\DSP\Source\TransformFunctions/arm_dct4_q15.c ****   i = S->Nby2 >> 2U;
 107:.\DSP\Source\TransformFunctions/arm_dct4_q15.c **** 
 108:.\DSP\Source\TransformFunctions/arm_dct4_q15.c ****   /* First part of the processing with loop unrolling.  Compute 4 outputs at a time.
 109:.\DSP\Source\TransformFunctions/arm_dct4_q15.c ****    ** a second loop below computes the remaining 1 to 3 samples. */
 110:.\DSP\Source\TransformFunctions/arm_dct4_q15.c ****   do
 111:.\DSP\Source\TransformFunctions/arm_dct4_q15.c ****   {
 112:.\DSP\Source\TransformFunctions/arm_dct4_q15.c ****     /* Re-ordering of even and odd elements */
 113:.\DSP\Source\TransformFunctions/arm_dct4_q15.c ****     /* pState[i] =  pInlineBuffer[2*i] */
 114:.\DSP\Source\TransformFunctions/arm_dct4_q15.c ****     *pS1++ = *pbuff++;
 115:.\DSP\Source\TransformFunctions/arm_dct4_q15.c ****     /* pState[N-i-1] = pInlineBuffer[2*i+1] */
 116:.\DSP\Source\TransformFunctions/arm_dct4_q15.c ****     *pS2-- = *pbuff++;
 117:.\DSP\Source\TransformFunctions/arm_dct4_q15.c **** 
 118:.\DSP\Source\TransformFunctions/arm_dct4_q15.c ****     *pS1++ = *pbuff++;
 119:.\DSP\Source\TransformFunctions/arm_dct4_q15.c ****     *pS2-- = *pbuff++;
 120:.\DSP\Source\TransformFunctions/arm_dct4_q15.c **** 
 121:.\DSP\Source\TransformFunctions/arm_dct4_q15.c ****     *pS1++ = *pbuff++;
 122:.\DSP\Source\TransformFunctions/arm_dct4_q15.c ****     *pS2-- = *pbuff++;
 123:.\DSP\Source\TransformFunctions/arm_dct4_q15.c **** 
 124:.\DSP\Source\TransformFunctions/arm_dct4_q15.c ****     *pS1++ = *pbuff++;
 125:.\DSP\Source\TransformFunctions/arm_dct4_q15.c ****     *pS2-- = *pbuff++;
 126:.\DSP\Source\TransformFunctions/arm_dct4_q15.c **** 
 127:.\DSP\Source\TransformFunctions/arm_dct4_q15.c ****     /* Decrement loop counter */
 128:.\DSP\Source\TransformFunctions/arm_dct4_q15.c ****     i--;
 129:.\DSP\Source\TransformFunctions/arm_dct4_q15.c ****   } while (i > 0U);
 130:.\DSP\Source\TransformFunctions/arm_dct4_q15.c **** 
 131:.\DSP\Source\TransformFunctions/arm_dct4_q15.c ****   /* pbuff initialized to input buffer */
 132:.\DSP\Source\TransformFunctions/arm_dct4_q15.c ****   pbuff = pInlineBuffer;
 133:.\DSP\Source\TransformFunctions/arm_dct4_q15.c **** 
 134:.\DSP\Source\TransformFunctions/arm_dct4_q15.c ****   /* pS1 initialized to pState */
 135:.\DSP\Source\TransformFunctions/arm_dct4_q15.c ****   pS1 = pState;
 136:.\DSP\Source\TransformFunctions/arm_dct4_q15.c **** 
 137:.\DSP\Source\TransformFunctions/arm_dct4_q15.c ****   /* Initializing the loop counter to N/4 instead of N for loop unrolling */
 138:.\DSP\Source\TransformFunctions/arm_dct4_q15.c ****   i = S->N >> 2U;
 139:.\DSP\Source\TransformFunctions/arm_dct4_q15.c **** 
 140:.\DSP\Source\TransformFunctions/arm_dct4_q15.c ****   /* Processing with loop unrolling 4 times as N is always multiple of 4.
 141:.\DSP\Source\TransformFunctions/arm_dct4_q15.c ****    * Compute 4 outputs at a time */
 142:.\DSP\Source\TransformFunctions/arm_dct4_q15.c ****   do
 143:.\DSP\Source\TransformFunctions/arm_dct4_q15.c ****   {
 144:.\DSP\Source\TransformFunctions/arm_dct4_q15.c ****     /* Writing the re-ordered output back to inplace input buffer */
 145:.\DSP\Source\TransformFunctions/arm_dct4_q15.c ****     *pbuff++ = *pS1++;
 146:.\DSP\Source\TransformFunctions/arm_dct4_q15.c ****     *pbuff++ = *pS1++;
 147:.\DSP\Source\TransformFunctions/arm_dct4_q15.c ****     *pbuff++ = *pS1++;
 148:.\DSP\Source\TransformFunctions/arm_dct4_q15.c ****     *pbuff++ = *pS1++;
 149:.\DSP\Source\TransformFunctions/arm_dct4_q15.c **** 
 150:.\DSP\Source\TransformFunctions/arm_dct4_q15.c ****     /* Decrement the loop counter */
 151:.\DSP\Source\TransformFunctions/arm_dct4_q15.c ****     i--;
 152:.\DSP\Source\TransformFunctions/arm_dct4_q15.c ****   } while (i > 0U);
 153:.\DSP\Source\TransformFunctions/arm_dct4_q15.c **** 
 154:.\DSP\Source\TransformFunctions/arm_dct4_q15.c **** 
 155:.\DSP\Source\TransformFunctions/arm_dct4_q15.c ****   /* ---------------------------------------------------------
 156:.\DSP\Source\TransformFunctions/arm_dct4_q15.c ****    *     Step2: Calculate RFFT for N-point input
 157:.\DSP\Source\TransformFunctions/arm_dct4_q15.c ****    * ---------------------------------------------------------- */
 158:.\DSP\Source\TransformFunctions/arm_dct4_q15.c ****   /* pInlineBuffer is real input of length N , pState is the complex output of length 2N */
 159:.\DSP\Source\TransformFunctions/arm_dct4_q15.c ****   arm_rfft_q15 (S->pRfft, pInlineBuffer, pState);
 160:.\DSP\Source\TransformFunctions/arm_dct4_q15.c **** 
 161:.\DSP\Source\TransformFunctions/arm_dct4_q15.c ****   /*----------------------------------------------------------------------
 162:.\DSP\Source\TransformFunctions/arm_dct4_q15.c ****    *  Step3: Multiply the FFT output with the weights.
ARM GAS  C:\Users\IVYLIU~1\AppData\Local\Temp\ccQBrppV.s 			page 5


 163:.\DSP\Source\TransformFunctions/arm_dct4_q15.c ****    *----------------------------------------------------------------------*/
 164:.\DSP\Source\TransformFunctions/arm_dct4_q15.c ****   arm_cmplx_mult_cmplx_q15 (pState, weights, pState, S->N);
 165:.\DSP\Source\TransformFunctions/arm_dct4_q15.c **** 
 166:.\DSP\Source\TransformFunctions/arm_dct4_q15.c ****   /* The output of complex multiplication is in 3.13 format.
 167:.\DSP\Source\TransformFunctions/arm_dct4_q15.c ****    * Hence changing the format of N (i.e. 2*N elements) complex numbers to 1.15 format by shifting 
 168:.\DSP\Source\TransformFunctions/arm_dct4_q15.c ****   arm_shift_q15 (pState, 2, pState, S->N * 2);
 169:.\DSP\Source\TransformFunctions/arm_dct4_q15.c **** 
 170:.\DSP\Source\TransformFunctions/arm_dct4_q15.c ****   /* ----------- Post-processing ---------- */
 171:.\DSP\Source\TransformFunctions/arm_dct4_q15.c ****   /* DCT-IV can be obtained from DCT-II by the equation,
 172:.\DSP\Source\TransformFunctions/arm_dct4_q15.c ****    *       Y4(k) = Y2(k) - Y4(k-1) and Y4(-1) = Y4(0)
 173:.\DSP\Source\TransformFunctions/arm_dct4_q15.c ****    *       Hence, Y4(0) = Y2(0)/2  */
 174:.\DSP\Source\TransformFunctions/arm_dct4_q15.c ****   /* Getting only real part from the output and Converting to DCT-IV */
 175:.\DSP\Source\TransformFunctions/arm_dct4_q15.c **** 
 176:.\DSP\Source\TransformFunctions/arm_dct4_q15.c ****   /* Initializing the loop counter to N >> 2 for loop unrolling by 4 */
 177:.\DSP\Source\TransformFunctions/arm_dct4_q15.c ****   i = (S->N - 1U) >> 2U;
 178:.\DSP\Source\TransformFunctions/arm_dct4_q15.c **** 
 179:.\DSP\Source\TransformFunctions/arm_dct4_q15.c ****   /* pbuff initialized to input buffer. */
 180:.\DSP\Source\TransformFunctions/arm_dct4_q15.c ****   pbuff = pInlineBuffer;
 181:.\DSP\Source\TransformFunctions/arm_dct4_q15.c **** 
 182:.\DSP\Source\TransformFunctions/arm_dct4_q15.c ****   /* pS1 initialized to pState */
 183:.\DSP\Source\TransformFunctions/arm_dct4_q15.c ****   pS1 = pState;
 184:.\DSP\Source\TransformFunctions/arm_dct4_q15.c **** 
 185:.\DSP\Source\TransformFunctions/arm_dct4_q15.c ****   /* Calculating Y4(0) from Y2(0) using Y4(0) = Y2(0)/2 */
 186:.\DSP\Source\TransformFunctions/arm_dct4_q15.c ****   in = *pS1++ >> 1U;
 187:.\DSP\Source\TransformFunctions/arm_dct4_q15.c ****   /* input buffer acts as inplace, so output values are stored in the input itself. */
 188:.\DSP\Source\TransformFunctions/arm_dct4_q15.c ****   *pbuff++ = in;
 189:.\DSP\Source\TransformFunctions/arm_dct4_q15.c **** 
 190:.\DSP\Source\TransformFunctions/arm_dct4_q15.c ****   /* pState pointer is incremented twice as the real values are located alternatively in the array 
 191:.\DSP\Source\TransformFunctions/arm_dct4_q15.c ****   pS1++;
 192:.\DSP\Source\TransformFunctions/arm_dct4_q15.c **** 
 193:.\DSP\Source\TransformFunctions/arm_dct4_q15.c ****   /* First part of the processing with loop unrolling.  Compute 4 outputs at a time.
 194:.\DSP\Source\TransformFunctions/arm_dct4_q15.c ****    ** a second loop below computes the remaining 1 to 3 samples. */
 195:.\DSP\Source\TransformFunctions/arm_dct4_q15.c ****   do
 196:.\DSP\Source\TransformFunctions/arm_dct4_q15.c ****   {
 197:.\DSP\Source\TransformFunctions/arm_dct4_q15.c ****     /* Calculating Y4(1) to Y4(N-1) from Y2 using equation Y4(k) = Y2(k) - Y4(k-1) */
 198:.\DSP\Source\TransformFunctions/arm_dct4_q15.c ****     /* pState pointer (pS1) is incremented twice as the real values are located alternatively in th
 199:.\DSP\Source\TransformFunctions/arm_dct4_q15.c ****     in = *pS1++ - in;
 200:.\DSP\Source\TransformFunctions/arm_dct4_q15.c ****     *pbuff++ = in;
 201:.\DSP\Source\TransformFunctions/arm_dct4_q15.c ****     /* points to the next real value */
 202:.\DSP\Source\TransformFunctions/arm_dct4_q15.c ****     pS1++;
 203:.\DSP\Source\TransformFunctions/arm_dct4_q15.c **** 
 204:.\DSP\Source\TransformFunctions/arm_dct4_q15.c ****     in = *pS1++ - in;
 205:.\DSP\Source\TransformFunctions/arm_dct4_q15.c ****     *pbuff++ = in;
 206:.\DSP\Source\TransformFunctions/arm_dct4_q15.c ****     pS1++;
 207:.\DSP\Source\TransformFunctions/arm_dct4_q15.c **** 
 208:.\DSP\Source\TransformFunctions/arm_dct4_q15.c ****     in = *pS1++ - in;
 209:.\DSP\Source\TransformFunctions/arm_dct4_q15.c ****     *pbuff++ = in;
 210:.\DSP\Source\TransformFunctions/arm_dct4_q15.c ****     pS1++;
 211:.\DSP\Source\TransformFunctions/arm_dct4_q15.c **** 
 212:.\DSP\Source\TransformFunctions/arm_dct4_q15.c ****     in = *pS1++ - in;
 213:.\DSP\Source\TransformFunctions/arm_dct4_q15.c ****     *pbuff++ = in;
 214:.\DSP\Source\TransformFunctions/arm_dct4_q15.c ****     pS1++;
 215:.\DSP\Source\TransformFunctions/arm_dct4_q15.c **** 
 216:.\DSP\Source\TransformFunctions/arm_dct4_q15.c ****     /* Decrement the loop counter */
 217:.\DSP\Source\TransformFunctions/arm_dct4_q15.c ****     i--;
 218:.\DSP\Source\TransformFunctions/arm_dct4_q15.c ****   } while (i > 0U);
 219:.\DSP\Source\TransformFunctions/arm_dct4_q15.c **** 
ARM GAS  C:\Users\IVYLIU~1\AppData\Local\Temp\ccQBrppV.s 			page 6


 220:.\DSP\Source\TransformFunctions/arm_dct4_q15.c ****   /* If the blockSize is not a multiple of 4, compute any remaining output samples here.
 221:.\DSP\Source\TransformFunctions/arm_dct4_q15.c ****    ** No loop unrolling is used. */
 222:.\DSP\Source\TransformFunctions/arm_dct4_q15.c ****   i = (S->N - 1U) % 0x4U;
 223:.\DSP\Source\TransformFunctions/arm_dct4_q15.c **** 
 224:.\DSP\Source\TransformFunctions/arm_dct4_q15.c ****   while (i > 0U)
 225:.\DSP\Source\TransformFunctions/arm_dct4_q15.c ****   {
 226:.\DSP\Source\TransformFunctions/arm_dct4_q15.c ****     /* Calculating Y4(1) to Y4(N-1) from Y2 using equation Y4(k) = Y2(k) - Y4(k-1) */
 227:.\DSP\Source\TransformFunctions/arm_dct4_q15.c ****     /* pState pointer (pS1) is incremented twice as the real values are located alternatively in th
 228:.\DSP\Source\TransformFunctions/arm_dct4_q15.c ****     in = *pS1++ - in;
 229:.\DSP\Source\TransformFunctions/arm_dct4_q15.c ****     *pbuff++ = in;
 230:.\DSP\Source\TransformFunctions/arm_dct4_q15.c **** 
 231:.\DSP\Source\TransformFunctions/arm_dct4_q15.c ****     /* points to the next real value */
 232:.\DSP\Source\TransformFunctions/arm_dct4_q15.c ****     pS1++;
 233:.\DSP\Source\TransformFunctions/arm_dct4_q15.c **** 
 234:.\DSP\Source\TransformFunctions/arm_dct4_q15.c ****     /* Decrement loop counter */
 235:.\DSP\Source\TransformFunctions/arm_dct4_q15.c ****     i--;
 236:.\DSP\Source\TransformFunctions/arm_dct4_q15.c ****   }
 237:.\DSP\Source\TransformFunctions/arm_dct4_q15.c **** 
 238:.\DSP\Source\TransformFunctions/arm_dct4_q15.c **** 
 239:.\DSP\Source\TransformFunctions/arm_dct4_q15.c ****   /*------------ Normalizing the output by multiplying with the normalizing factor ----------*/
 240:.\DSP\Source\TransformFunctions/arm_dct4_q15.c **** 
 241:.\DSP\Source\TransformFunctions/arm_dct4_q15.c ****   /* Initializing the loop counter to N/4 instead of N for loop unrolling */
 242:.\DSP\Source\TransformFunctions/arm_dct4_q15.c ****   i = S->N >> 2U;
 243:.\DSP\Source\TransformFunctions/arm_dct4_q15.c **** 
 244:.\DSP\Source\TransformFunctions/arm_dct4_q15.c ****   /* pbuff initialized to the pInlineBuffer(now contains the output values) */
 245:.\DSP\Source\TransformFunctions/arm_dct4_q15.c ****   pbuff = pInlineBuffer;
 246:.\DSP\Source\TransformFunctions/arm_dct4_q15.c **** 
 247:.\DSP\Source\TransformFunctions/arm_dct4_q15.c ****   /* Processing with loop unrolling 4 times as N is always multiple of 4.  Compute 4 outputs at a t
 248:.\DSP\Source\TransformFunctions/arm_dct4_q15.c ****   do
 249:.\DSP\Source\TransformFunctions/arm_dct4_q15.c ****   {
 250:.\DSP\Source\TransformFunctions/arm_dct4_q15.c ****     /* Multiplying pInlineBuffer with the normalizing factor sqrt(2/N) */
 251:.\DSP\Source\TransformFunctions/arm_dct4_q15.c ****     in = *pbuff;
 252:.\DSP\Source\TransformFunctions/arm_dct4_q15.c ****     *pbuff++ = ((q15_t) (((q31_t) in * S->normalize) >> 15));
 253:.\DSP\Source\TransformFunctions/arm_dct4_q15.c **** 
 254:.\DSP\Source\TransformFunctions/arm_dct4_q15.c ****     in = *pbuff;
 255:.\DSP\Source\TransformFunctions/arm_dct4_q15.c ****     *pbuff++ = ((q15_t) (((q31_t) in * S->normalize) >> 15));
 256:.\DSP\Source\TransformFunctions/arm_dct4_q15.c **** 
 257:.\DSP\Source\TransformFunctions/arm_dct4_q15.c ****     in = *pbuff;
 258:.\DSP\Source\TransformFunctions/arm_dct4_q15.c ****     *pbuff++ = ((q15_t) (((q31_t) in * S->normalize) >> 15));
 259:.\DSP\Source\TransformFunctions/arm_dct4_q15.c **** 
 260:.\DSP\Source\TransformFunctions/arm_dct4_q15.c ****     in = *pbuff;
 261:.\DSP\Source\TransformFunctions/arm_dct4_q15.c ****     *pbuff++ = ((q15_t) (((q31_t) in * S->normalize) >> 15));
 262:.\DSP\Source\TransformFunctions/arm_dct4_q15.c **** 
 263:.\DSP\Source\TransformFunctions/arm_dct4_q15.c ****     /* Decrement loop counter */
 264:.\DSP\Source\TransformFunctions/arm_dct4_q15.c ****     i--;
 265:.\DSP\Source\TransformFunctions/arm_dct4_q15.c ****   } while (i > 0U);
 266:.\DSP\Source\TransformFunctions/arm_dct4_q15.c **** 
 267:.\DSP\Source\TransformFunctions/arm_dct4_q15.c **** 
 268:.\DSP\Source\TransformFunctions/arm_dct4_q15.c **** #else
 269:.\DSP\Source\TransformFunctions/arm_dct4_q15.c **** 
 270:.\DSP\Source\TransformFunctions/arm_dct4_q15.c ****   /* Initializing the loop counter to N/2 */
 271:.\DSP\Source\TransformFunctions/arm_dct4_q15.c ****   i = S->Nby2;
  67              		.loc 1 271 0
  68 002c B5F802E0 		ldrh	lr, [r5, #2]
  69              	.LVL7:
 100:.\DSP\Source\TransformFunctions/arm_dct4_q15.c **** 
  70              		.loc 1 100 0
ARM GAS  C:\Users\IVYLIU~1\AppData\Local\Temp\ccQBrppV.s 			page 7


  71 0030 2046     		mov	r0, r4
  94:.\DSP\Source\TransformFunctions/arm_dct4_q15.c **** 
  72              		.loc 1 94 0
  73 0032 3146     		mov	r1, r6
  74              	.LVL8:
  75              	.L2:
 272:.\DSP\Source\TransformFunctions/arm_dct4_q15.c **** 
 273:.\DSP\Source\TransformFunctions/arm_dct4_q15.c ****   do
 274:.\DSP\Source\TransformFunctions/arm_dct4_q15.c ****   {
 275:.\DSP\Source\TransformFunctions/arm_dct4_q15.c ****     /* Re-ordering of even and odd elements */
 276:.\DSP\Source\TransformFunctions/arm_dct4_q15.c ****     /* pState[i] =  pInlineBuffer[2*i] */
 277:.\DSP\Source\TransformFunctions/arm_dct4_q15.c ****     *pS1++ = *pbuff++;
  76              		.loc 1 277 0 discriminator 1
  77 0034 0346     		mov	r3, r0
  78 0036 33F804CB 		ldrh	ip, [r3], #4
  79 003a A1F800C0 		strh	ip, [r1]	@ movhi
  80              	.LVL9:
 278:.\DSP\Source\TransformFunctions/arm_dct4_q15.c ****     /* pState[N-i-1] = pInlineBuffer[2*i+1] */
 279:.\DSP\Source\TransformFunctions/arm_dct4_q15.c ****     *pS2-- = *pbuff++;
  81              		.loc 1 279 0 discriminator 1
  82 003e 4088     		ldrh	r0, [r0, #2]
  83 0040 1080     		strh	r0, [r2]	@ movhi
  84              	.LVL10:
 277:.\DSP\Source\TransformFunctions/arm_dct4_q15.c ****     /* pState[N-i-1] = pInlineBuffer[2*i+1] */
  85              		.loc 1 277 0 discriminator 1
  86 0042 0231     		adds	r1, r1, #2
  87              	.LVL11:
  88              		.loc 1 279 0 discriminator 1
  89 0044 023A     		subs	r2, r2, #2
  90              	.LVL12:
  91 0046 1846     		mov	r0, r3
 280:.\DSP\Source\TransformFunctions/arm_dct4_q15.c **** 
 281:.\DSP\Source\TransformFunctions/arm_dct4_q15.c ****     /* Decrement the loop counter */
 282:.\DSP\Source\TransformFunctions/arm_dct4_q15.c ****     i--;
 283:.\DSP\Source\TransformFunctions/arm_dct4_q15.c ****   } while (i > 0U);
  92              		.loc 1 283 0 discriminator 1
  93 0048 BEF1010E 		subs	lr, lr, #1
  94              	.LVL13:
  95 004c F2D1     		bne	.L2
  96              	.LVL14:
 284:.\DSP\Source\TransformFunctions/arm_dct4_q15.c **** 
 285:.\DSP\Source\TransformFunctions/arm_dct4_q15.c ****   /* pbuff initialized to input buffer */
 286:.\DSP\Source\TransformFunctions/arm_dct4_q15.c ****   pbuff = pInlineBuffer;
 287:.\DSP\Source\TransformFunctions/arm_dct4_q15.c **** 
 288:.\DSP\Source\TransformFunctions/arm_dct4_q15.c ****   /* pS1 initialized to pState */
 289:.\DSP\Source\TransformFunctions/arm_dct4_q15.c ****   pS1 = pState;
 290:.\DSP\Source\TransformFunctions/arm_dct4_q15.c **** 
 291:.\DSP\Source\TransformFunctions/arm_dct4_q15.c ****   /* Initializing the loop counter */
 292:.\DSP\Source\TransformFunctions/arm_dct4_q15.c ****   i = S->N;
  97              		.loc 1 292 0
  98 004e 2988     		ldrh	r1, [r5]
  99              	.LVL15:
 286:.\DSP\Source\TransformFunctions/arm_dct4_q15.c **** 
 100              		.loc 1 286 0
 101 0050 2246     		mov	r2, r4
 102              	.LVL16:
 289:.\DSP\Source\TransformFunctions/arm_dct4_q15.c **** 
ARM GAS  C:\Users\IVYLIU~1\AppData\Local\Temp\ccQBrppV.s 			page 8


 103              		.loc 1 289 0
 104 0052 3346     		mov	r3, r6
 105              	.LVL17:
 106              	.L3:
 293:.\DSP\Source\TransformFunctions/arm_dct4_q15.c **** 
 294:.\DSP\Source\TransformFunctions/arm_dct4_q15.c ****   do
 295:.\DSP\Source\TransformFunctions/arm_dct4_q15.c ****   {
 296:.\DSP\Source\TransformFunctions/arm_dct4_q15.c ****     /* Writing the re-ordered output back to inplace input buffer */
 297:.\DSP\Source\TransformFunctions/arm_dct4_q15.c ****     *pbuff++ = *pS1++;
 107              		.loc 1 297 0 discriminator 1
 108 0054 1888     		ldrh	r0, [r3]
 109 0056 1080     		strh	r0, [r2]	@ movhi
 110              	.LVL18:
 111 0058 0233     		adds	r3, r3, #2
 112              	.LVL19:
 113 005a 0232     		adds	r2, r2, #2
 114              	.LVL20:
 298:.\DSP\Source\TransformFunctions/arm_dct4_q15.c **** 
 299:.\DSP\Source\TransformFunctions/arm_dct4_q15.c ****     /* Decrement the loop counter */
 300:.\DSP\Source\TransformFunctions/arm_dct4_q15.c ****     i--;
 301:.\DSP\Source\TransformFunctions/arm_dct4_q15.c ****   } while (i > 0U);
 115              		.loc 1 301 0 discriminator 1
 116 005c 0139     		subs	r1, r1, #1
 117              	.LVL21:
 118 005e F9D1     		bne	.L3
 302:.\DSP\Source\TransformFunctions/arm_dct4_q15.c **** 
 303:.\DSP\Source\TransformFunctions/arm_dct4_q15.c **** 
 304:.\DSP\Source\TransformFunctions/arm_dct4_q15.c ****   /* ---------------------------------------------------------
 305:.\DSP\Source\TransformFunctions/arm_dct4_q15.c ****    *     Step2: Calculate RFFT for N-point input
 306:.\DSP\Source\TransformFunctions/arm_dct4_q15.c ****    * ---------------------------------------------------------- */
 307:.\DSP\Source\TransformFunctions/arm_dct4_q15.c ****   /* pInlineBuffer is real input of length N , pState is the complex output of length 2N */
 308:.\DSP\Source\TransformFunctions/arm_dct4_q15.c ****   arm_rfft_q15 (S->pRfft, pInlineBuffer, pState);
 119              		.loc 1 308 0
 120 0060 2869     		ldr	r0, [r5, #16]
 121 0062 2146     		mov	r1, r4
 122              	.LVL22:
 123 0064 3246     		mov	r2, r6
 124              	.LVL23:
 125 0066 FFF7FEFF 		bl	arm_rfft_q15
 126              	.LVL24:
 309:.\DSP\Source\TransformFunctions/arm_dct4_q15.c **** 
 310:.\DSP\Source\TransformFunctions/arm_dct4_q15.c ****   /*----------------------------------------------------------------------
 311:.\DSP\Source\TransformFunctions/arm_dct4_q15.c ****    *  Step3: Multiply the FFT output with the weights.
 312:.\DSP\Source\TransformFunctions/arm_dct4_q15.c ****    *----------------------------------------------------------------------*/
 313:.\DSP\Source\TransformFunctions/arm_dct4_q15.c ****   arm_cmplx_mult_cmplx_q15 (pState, weights, pState, S->N);
 127              		.loc 1 313 0
 128 006a 3046     		mov	r0, r6
 129 006c 3946     		mov	r1, r7
 130 006e 3246     		mov	r2, r6
 131 0070 2B88     		ldrh	r3, [r5]
 132 0072 FFF7FEFF 		bl	arm_cmplx_mult_cmplx_q15
 133              	.LVL25:
 314:.\DSP\Source\TransformFunctions/arm_dct4_q15.c **** 
 315:.\DSP\Source\TransformFunctions/arm_dct4_q15.c ****   /* The output of complex multiplication is in 3.13 format.
 316:.\DSP\Source\TransformFunctions/arm_dct4_q15.c ****    * Hence changing the format of N (i.e. 2*N elements) complex numbers to 1.15 format by shifting 
 317:.\DSP\Source\TransformFunctions/arm_dct4_q15.c ****   arm_shift_q15 (pState, 2, pState, S->N * 2);
 134              		.loc 1 317 0
ARM GAS  C:\Users\IVYLIU~1\AppData\Local\Temp\ccQBrppV.s 			page 9


 135 0076 2B88     		ldrh	r3, [r5]
 136 0078 3046     		mov	r0, r6
 137 007a 0221     		movs	r1, #2
 138 007c 3246     		mov	r2, r6
 139 007e 5B00     		lsls	r3, r3, #1
 140 0080 FFF7FEFF 		bl	arm_shift_q15
 141              	.LVL26:
 318:.\DSP\Source\TransformFunctions/arm_dct4_q15.c **** 
 319:.\DSP\Source\TransformFunctions/arm_dct4_q15.c ****   /* ----------- Post-processing ---------- */
 320:.\DSP\Source\TransformFunctions/arm_dct4_q15.c ****   /* DCT-IV can be obtained from DCT-II by the equation,
 321:.\DSP\Source\TransformFunctions/arm_dct4_q15.c ****    *       Y4(k) = Y2(k) - Y4(k-1) and Y4(-1) = Y4(0)
 322:.\DSP\Source\TransformFunctions/arm_dct4_q15.c ****    *       Hence, Y4(0) = Y2(0)/2  */
 323:.\DSP\Source\TransformFunctions/arm_dct4_q15.c ****   /* Getting only real part from the output and Converting to DCT-IV */
 324:.\DSP\Source\TransformFunctions/arm_dct4_q15.c **** 
 325:.\DSP\Source\TransformFunctions/arm_dct4_q15.c ****   /* pbuff initialized to input buffer. */
 326:.\DSP\Source\TransformFunctions/arm_dct4_q15.c ****   pbuff = pInlineBuffer;
 327:.\DSP\Source\TransformFunctions/arm_dct4_q15.c **** 
 328:.\DSP\Source\TransformFunctions/arm_dct4_q15.c ****   /* pS1 initialized to pState */
 329:.\DSP\Source\TransformFunctions/arm_dct4_q15.c ****   pS1 = pState;
 330:.\DSP\Source\TransformFunctions/arm_dct4_q15.c **** 
 331:.\DSP\Source\TransformFunctions/arm_dct4_q15.c ****   /* Calculating Y4(0) from Y2(0) using Y4(0) = Y2(0)/2 */
 332:.\DSP\Source\TransformFunctions/arm_dct4_q15.c ****   in = *pS1++ >> 1U;
 142              		.loc 1 332 0
 143 0084 3246     		mov	r2, r6
 144 0086 32F9043B 		ldrsh	r3, [r2], #4
 145 008a C3F34F03 		ubfx	r3, r3, #1, #16
 146              	.LVL27:
 333:.\DSP\Source\TransformFunctions/arm_dct4_q15.c ****   /* input buffer acts as inplace, so output values are stored in the input itself. */
 334:.\DSP\Source\TransformFunctions/arm_dct4_q15.c ****   *pbuff++ = in;
 147              		.loc 1 334 0
 148 008e A11C     		adds	r1, r4, #2
 149              	.LVL28:
 150 0090 2380     		strh	r3, [r4]	@ movhi
 151              	.LVL29:
 335:.\DSP\Source\TransformFunctions/arm_dct4_q15.c **** 
 336:.\DSP\Source\TransformFunctions/arm_dct4_q15.c ****   /* pState pointer is incremented twice as the real values are located alternatively in the array 
 337:.\DSP\Source\TransformFunctions/arm_dct4_q15.c ****   pS1++;
 338:.\DSP\Source\TransformFunctions/arm_dct4_q15.c **** 
 339:.\DSP\Source\TransformFunctions/arm_dct4_q15.c ****   /* Initializing the loop counter */
 340:.\DSP\Source\TransformFunctions/arm_dct4_q15.c ****   i = (S->N - 1U);
 152              		.loc 1 340 0
 153 0092 2E88     		ldrh	r6, [r5]
 154              	.LVL30:
 155 0094 013E     		subs	r6, r6, #1
 156              	.LVL31:
 157              	.L4:
 341:.\DSP\Source\TransformFunctions/arm_dct4_q15.c **** 
 342:.\DSP\Source\TransformFunctions/arm_dct4_q15.c ****   do
 343:.\DSP\Source\TransformFunctions/arm_dct4_q15.c ****   {
 344:.\DSP\Source\TransformFunctions/arm_dct4_q15.c ****     /* Calculating Y4(1) to Y4(N-1) from Y2 using equation Y4(k) = Y2(k) - Y4(k-1) */
 345:.\DSP\Source\TransformFunctions/arm_dct4_q15.c ****     /* pState pointer (pS1) is incremented twice as the real values are located alternatively in th
 346:.\DSP\Source\TransformFunctions/arm_dct4_q15.c ****     in = *pS1++ - in;
 158              		.loc 1 346 0 discriminator 1
 159 0096 32F8040B 		ldrh	r0, [r2], #4
 160              	.LVL32:
 161 009a C31A     		subs	r3, r0, r3
 162              	.LVL33:
ARM GAS  C:\Users\IVYLIU~1\AppData\Local\Temp\ccQBrppV.s 			page 10


 163 009c 9BB2     		uxth	r3, r3
 164              	.LVL34:
 347:.\DSP\Source\TransformFunctions/arm_dct4_q15.c ****     *pbuff++ = in;
 165              		.loc 1 347 0 discriminator 1
 166 009e 0B80     		strh	r3, [r1]	@ movhi
 167              	.LVL35:
 168 00a0 0231     		adds	r1, r1, #2
 169              	.LVL36:
 348:.\DSP\Source\TransformFunctions/arm_dct4_q15.c **** 
 349:.\DSP\Source\TransformFunctions/arm_dct4_q15.c ****     /* points to the next real value */
 350:.\DSP\Source\TransformFunctions/arm_dct4_q15.c ****     pS1++;
 351:.\DSP\Source\TransformFunctions/arm_dct4_q15.c **** 
 352:.\DSP\Source\TransformFunctions/arm_dct4_q15.c ****     /* Decrement loop counter */
 353:.\DSP\Source\TransformFunctions/arm_dct4_q15.c ****     i--;
 354:.\DSP\Source\TransformFunctions/arm_dct4_q15.c ****   } while (i > 0U);
 170              		.loc 1 354 0 discriminator 1
 171 00a2 013E     		subs	r6, r6, #1
 172              	.LVL37:
 173 00a4 F7D1     		bne	.L4
 355:.\DSP\Source\TransformFunctions/arm_dct4_q15.c **** 
 356:.\DSP\Source\TransformFunctions/arm_dct4_q15.c ****   /*------------ Normalizing the output by multiplying with the normalizing factor ----------*/
 357:.\DSP\Source\TransformFunctions/arm_dct4_q15.c **** 
 358:.\DSP\Source\TransformFunctions/arm_dct4_q15.c ****   /* Initializing loop counter */
 359:.\DSP\Source\TransformFunctions/arm_dct4_q15.c ****   i = S->N;
 174              		.loc 1 359 0
 175 00a6 2988     		ldrh	r1, [r5]
 176              	.LVL38:
 177              	.L5:
 360:.\DSP\Source\TransformFunctions/arm_dct4_q15.c **** 
 361:.\DSP\Source\TransformFunctions/arm_dct4_q15.c ****   /* pbuff initialized to the pInlineBuffer (now contains the output values) */
 362:.\DSP\Source\TransformFunctions/arm_dct4_q15.c ****   pbuff = pInlineBuffer;
 363:.\DSP\Source\TransformFunctions/arm_dct4_q15.c **** 
 364:.\DSP\Source\TransformFunctions/arm_dct4_q15.c ****   do
 365:.\DSP\Source\TransformFunctions/arm_dct4_q15.c ****   {
 366:.\DSP\Source\TransformFunctions/arm_dct4_q15.c ****     /* Multiplying pInlineBuffer with the normalizing factor sqrt(2/N) */
 367:.\DSP\Source\TransformFunctions/arm_dct4_q15.c ****     in = *pbuff;
 178              		.loc 1 367 0 discriminator 1
 179 00a8 2246     		mov	r2, r4
 180              	.LVL39:
 368:.\DSP\Source\TransformFunctions/arm_dct4_q15.c ****     *pbuff++ = ((q15_t) (((q31_t) in * S->normalize) >> 15));
 181              		.loc 1 368 0 discriminator 1
 182 00aa 32F9020B 		ldrsh	r0, [r2], #2
 183 00ae B5F90430 		ldrsh	r3, [r5, #4]
 184 00b2 03FB00F3 		mul	r3, r3, r0
 185 00b6 C3F3CF33 		ubfx	r3, r3, #15, #16
 186 00ba 2380     		strh	r3, [r4]	@ movhi
 187              	.LVL40:
 188 00bc 1446     		mov	r4, r2
 189              	.LVL41:
 369:.\DSP\Source\TransformFunctions/arm_dct4_q15.c **** 
 370:.\DSP\Source\TransformFunctions/arm_dct4_q15.c ****     /* Decrement loop counter */
 371:.\DSP\Source\TransformFunctions/arm_dct4_q15.c ****     i--;
 372:.\DSP\Source\TransformFunctions/arm_dct4_q15.c **** 
 373:.\DSP\Source\TransformFunctions/arm_dct4_q15.c ****   } while (i > 0U);
 190              		.loc 1 373 0 discriminator 1
 191 00be 0139     		subs	r1, r1, #1
 192              	.LVL42:
ARM GAS  C:\Users\IVYLIU~1\AppData\Local\Temp\ccQBrppV.s 			page 11


 193 00c0 F2D1     		bne	.L5
 374:.\DSP\Source\TransformFunctions/arm_dct4_q15.c **** 
 375:.\DSP\Source\TransformFunctions/arm_dct4_q15.c **** #endif /* #if defined (ARM_MATH_LOOPUNROLL) */
 376:.\DSP\Source\TransformFunctions/arm_dct4_q15.c **** 
 377:.\DSP\Source\TransformFunctions/arm_dct4_q15.c **** }
 194              		.loc 1 377 0
 195 00c2 F8BD     		pop	{r3, r4, r5, r6, r7, pc}
 196              		.cfi_endproc
 197              	.LFE84:
 198              		.size	arm_dct4_q15, .-arm_dct4_q15
 199              		.text
 200              	.Letext0:
 201              		.file 2 "c:\\program files (x86)\\cypress\\psoc creator\\3.3\\psoc creator\\import\\gnu\\arm\\4.9.
 202              		.file 3 "c:\\program files (x86)\\cypress\\psoc creator\\3.3\\psoc creator\\import\\gnu\\arm\\4.9.
 203              		.file 4 ".\\DSP\\Include/arm_math_types.h"
 204              		.file 5 ".\\DSP\\Include/dsp/transform_functions.h"
 205              		.file 6 ".\\Core\\Include/cmsis_gcc.h"
 206              		.file 7 ".\\DSP\\Include/dsp/basic_math_functions.h"
 207              		.file 8 ".\\DSP\\Include/dsp/complex_math_functions.h"