ARM GAS  C:\Users\IVYLIU~1\AppData\Local\Temp\cckhYFXx.s 			page 1


   1              		.syntax unified
   2              		.cpu cortex-m3
   3              		.fpu softvfp
   4              		.eabi_attribute 20, 1
   5              		.eabi_attribute 21, 1
   6              		.eabi_attribute 23, 3
   7              		.eabi_attribute 24, 1
   8              		.eabi_attribute 25, 1
   9              		.eabi_attribute 26, 1
  10              		.eabi_attribute 30, 1
  11              		.eabi_attribute 34, 1
  12              		.eabi_attribute 18, 4
  13              		.thumb
  14              		.file	"arm_scale_q15.c"
  15              		.text
  16              	.Ltext0:
  17              		.cfi_sections	.debug_frame
  18              		.section	.text.arm_scale_q15,"ax",%progbits
  19              		.align	2
  20              		.global	arm_scale_q15
  21              		.thumb
  22              		.thumb_func
  23              		.type	arm_scale_q15, %function
  24              	arm_scale_q15:
  25              	.LFB83:
  26              		.file 1 ".\\DSP\\Source\\BasicMathFunctions\\arm_scale_q15.c"
   1:.\DSP\Source\BasicMathFunctions/arm_scale_q15.c **** /* ----------------------------------------------------------------------
   2:.\DSP\Source\BasicMathFunctions/arm_scale_q15.c ****  * Project:      CMSIS DSP Library
   3:.\DSP\Source\BasicMathFunctions/arm_scale_q15.c ****  * Title:        arm_scale_q15.c
   4:.\DSP\Source\BasicMathFunctions/arm_scale_q15.c ****  * Description:  Multiplies a Q15 vector by a scalar
   5:.\DSP\Source\BasicMathFunctions/arm_scale_q15.c ****  *
   6:.\DSP\Source\BasicMathFunctions/arm_scale_q15.c ****  * $Date:        23 April 2021
   7:.\DSP\Source\BasicMathFunctions/arm_scale_q15.c ****  * $Revision:    V1.9.0
   8:.\DSP\Source\BasicMathFunctions/arm_scale_q15.c ****  *
   9:.\DSP\Source\BasicMathFunctions/arm_scale_q15.c ****  * Target Processor: Cortex-M and Cortex-A cores
  10:.\DSP\Source\BasicMathFunctions/arm_scale_q15.c ****  * -------------------------------------------------------------------- */
  11:.\DSP\Source\BasicMathFunctions/arm_scale_q15.c **** /*
  12:.\DSP\Source\BasicMathFunctions/arm_scale_q15.c ****  * Copyright (C) 2010-2021 ARM Limited or its affiliates. All rights reserved.
  13:.\DSP\Source\BasicMathFunctions/arm_scale_q15.c ****  *
  14:.\DSP\Source\BasicMathFunctions/arm_scale_q15.c ****  * SPDX-License-Identifier: Apache-2.0
  15:.\DSP\Source\BasicMathFunctions/arm_scale_q15.c ****  *
  16:.\DSP\Source\BasicMathFunctions/arm_scale_q15.c ****  * Licensed under the Apache License, Version 2.0 (the License); you may
  17:.\DSP\Source\BasicMathFunctions/arm_scale_q15.c ****  * not use this file except in compliance with the License.
  18:.\DSP\Source\BasicMathFunctions/arm_scale_q15.c ****  * You may obtain a copy of the License at
  19:.\DSP\Source\BasicMathFunctions/arm_scale_q15.c ****  *
  20:.\DSP\Source\BasicMathFunctions/arm_scale_q15.c ****  * www.apache.org/licenses/LICENSE-2.0
  21:.\DSP\Source\BasicMathFunctions/arm_scale_q15.c ****  *
  22:.\DSP\Source\BasicMathFunctions/arm_scale_q15.c ****  * Unless required by applicable law or agreed to in writing, software
  23:.\DSP\Source\BasicMathFunctions/arm_scale_q15.c ****  * distributed under the License is distributed on an AS IS BASIS, WITHOUT
  24:.\DSP\Source\BasicMathFunctions/arm_scale_q15.c ****  * WARRANTIES OR CONDITIONS OF ANY KIND, either express or implied.
  25:.\DSP\Source\BasicMathFunctions/arm_scale_q15.c ****  * See the License for the specific language governing permissions and
  26:.\DSP\Source\BasicMathFunctions/arm_scale_q15.c ****  * limitations under the License.
  27:.\DSP\Source\BasicMathFunctions/arm_scale_q15.c ****  */
  28:.\DSP\Source\BasicMathFunctions/arm_scale_q15.c **** 
  29:.\DSP\Source\BasicMathFunctions/arm_scale_q15.c **** #include "dsp/basic_math_functions.h"
  30:.\DSP\Source\BasicMathFunctions/arm_scale_q15.c **** 
  31:.\DSP\Source\BasicMathFunctions/arm_scale_q15.c **** /**
ARM GAS  C:\Users\IVYLIU~1\AppData\Local\Temp\cckhYFXx.s 			page 2


  32:.\DSP\Source\BasicMathFunctions/arm_scale_q15.c ****   @ingroup groupMath
  33:.\DSP\Source\BasicMathFunctions/arm_scale_q15.c ****  */
  34:.\DSP\Source\BasicMathFunctions/arm_scale_q15.c **** 
  35:.\DSP\Source\BasicMathFunctions/arm_scale_q15.c **** /**
  36:.\DSP\Source\BasicMathFunctions/arm_scale_q15.c ****   @addtogroup BasicScale
  37:.\DSP\Source\BasicMathFunctions/arm_scale_q15.c ****   @{
  38:.\DSP\Source\BasicMathFunctions/arm_scale_q15.c ****  */
  39:.\DSP\Source\BasicMathFunctions/arm_scale_q15.c **** 
  40:.\DSP\Source\BasicMathFunctions/arm_scale_q15.c **** /**
  41:.\DSP\Source\BasicMathFunctions/arm_scale_q15.c ****   @brief         Multiplies a Q15 vector by a scalar.
  42:.\DSP\Source\BasicMathFunctions/arm_scale_q15.c ****   @param[in]     pSrc       points to the input vector
  43:.\DSP\Source\BasicMathFunctions/arm_scale_q15.c ****   @param[in]     scaleFract fractional portion of the scale value
  44:.\DSP\Source\BasicMathFunctions/arm_scale_q15.c ****   @param[in]     shift      number of bits to shift the result by
  45:.\DSP\Source\BasicMathFunctions/arm_scale_q15.c ****   @param[out]    pDst       points to the output vector
  46:.\DSP\Source\BasicMathFunctions/arm_scale_q15.c ****   @param[in]     blockSize  number of samples in each vector
  47:.\DSP\Source\BasicMathFunctions/arm_scale_q15.c ****   @return        none
  48:.\DSP\Source\BasicMathFunctions/arm_scale_q15.c **** 
  49:.\DSP\Source\BasicMathFunctions/arm_scale_q15.c ****   @par           Scaling and Overflow Behavior
  50:.\DSP\Source\BasicMathFunctions/arm_scale_q15.c ****                    The input data <code>*pSrc</code> and <code>scaleFract</code> are in 1.15 format
  51:.\DSP\Source\BasicMathFunctions/arm_scale_q15.c ****                    These are multiplied to yield a 2.30 intermediate result and this is shifted wit
  52:.\DSP\Source\BasicMathFunctions/arm_scale_q15.c ****  */
  53:.\DSP\Source\BasicMathFunctions/arm_scale_q15.c **** 
  54:.\DSP\Source\BasicMathFunctions/arm_scale_q15.c **** #if defined(ARM_MATH_MVEI) && !defined(ARM_MATH_AUTOVECTORIZE)
  55:.\DSP\Source\BasicMathFunctions/arm_scale_q15.c **** 
  56:.\DSP\Source\BasicMathFunctions/arm_scale_q15.c **** #include "arm_helium_utils.h"
  57:.\DSP\Source\BasicMathFunctions/arm_scale_q15.c **** 
  58:.\DSP\Source\BasicMathFunctions/arm_scale_q15.c **** void arm_scale_q15(
  59:.\DSP\Source\BasicMathFunctions/arm_scale_q15.c ****     const q15_t * pSrc,
  60:.\DSP\Source\BasicMathFunctions/arm_scale_q15.c ****     q15_t   scaleFract,
  61:.\DSP\Source\BasicMathFunctions/arm_scale_q15.c ****     int8_t  shift,
  62:.\DSP\Source\BasicMathFunctions/arm_scale_q15.c ****     q15_t * pDst,
  63:.\DSP\Source\BasicMathFunctions/arm_scale_q15.c ****     uint32_t blockSize)
  64:.\DSP\Source\BasicMathFunctions/arm_scale_q15.c **** {
  65:.\DSP\Source\BasicMathFunctions/arm_scale_q15.c ****     uint32_t  blkCnt;           /* loop counters */
  66:.\DSP\Source\BasicMathFunctions/arm_scale_q15.c ****     q15x8_t vecSrc;
  67:.\DSP\Source\BasicMathFunctions/arm_scale_q15.c ****     q15x8_t vecDst;
  68:.\DSP\Source\BasicMathFunctions/arm_scale_q15.c **** 
  69:.\DSP\Source\BasicMathFunctions/arm_scale_q15.c **** 
  70:.\DSP\Source\BasicMathFunctions/arm_scale_q15.c ****     /* Compute 8 outputs at a time */
  71:.\DSP\Source\BasicMathFunctions/arm_scale_q15.c ****     blkCnt = blockSize >> 3;
  72:.\DSP\Source\BasicMathFunctions/arm_scale_q15.c **** 
  73:.\DSP\Source\BasicMathFunctions/arm_scale_q15.c ****     while (blkCnt > 0U)
  74:.\DSP\Source\BasicMathFunctions/arm_scale_q15.c ****     {
  75:.\DSP\Source\BasicMathFunctions/arm_scale_q15.c ****         /*
  76:.\DSP\Source\BasicMathFunctions/arm_scale_q15.c ****          * C = A * scale
  77:.\DSP\Source\BasicMathFunctions/arm_scale_q15.c ****          * Scale the input and then store the result in the destination buffer.
  78:.\DSP\Source\BasicMathFunctions/arm_scale_q15.c ****          */
  79:.\DSP\Source\BasicMathFunctions/arm_scale_q15.c ****         vecSrc = vld1q(pSrc);
  80:.\DSP\Source\BasicMathFunctions/arm_scale_q15.c ****         vecDst = vmulhq(vecSrc, vdupq_n_s16(scaleFract));
  81:.\DSP\Source\BasicMathFunctions/arm_scale_q15.c ****         vecDst = vqshlq_r(vecDst, shift + 1);
  82:.\DSP\Source\BasicMathFunctions/arm_scale_q15.c ****         vst1q(pDst, vecDst);
  83:.\DSP\Source\BasicMathFunctions/arm_scale_q15.c ****         /*
  84:.\DSP\Source\BasicMathFunctions/arm_scale_q15.c ****          * Decrement the blockSize loop counter
  85:.\DSP\Source\BasicMathFunctions/arm_scale_q15.c ****          */
  86:.\DSP\Source\BasicMathFunctions/arm_scale_q15.c ****         blkCnt--;
  87:.\DSP\Source\BasicMathFunctions/arm_scale_q15.c ****         /*
  88:.\DSP\Source\BasicMathFunctions/arm_scale_q15.c ****          * advance vector source and destination pointers
ARM GAS  C:\Users\IVYLIU~1\AppData\Local\Temp\cckhYFXx.s 			page 3


  89:.\DSP\Source\BasicMathFunctions/arm_scale_q15.c ****          */
  90:.\DSP\Source\BasicMathFunctions/arm_scale_q15.c ****         pSrc += 8;
  91:.\DSP\Source\BasicMathFunctions/arm_scale_q15.c ****         pDst += 8;
  92:.\DSP\Source\BasicMathFunctions/arm_scale_q15.c ****     }
  93:.\DSP\Source\BasicMathFunctions/arm_scale_q15.c ****     /*
  94:.\DSP\Source\BasicMathFunctions/arm_scale_q15.c ****      * tail
  95:.\DSP\Source\BasicMathFunctions/arm_scale_q15.c ****      */
  96:.\DSP\Source\BasicMathFunctions/arm_scale_q15.c ****     blkCnt = blockSize & 7;
  97:.\DSP\Source\BasicMathFunctions/arm_scale_q15.c ****     if (blkCnt > 0U)
  98:.\DSP\Source\BasicMathFunctions/arm_scale_q15.c ****     {
  99:.\DSP\Source\BasicMathFunctions/arm_scale_q15.c ****         mve_pred16_t p0 = vctp16q(blkCnt);;
 100:.\DSP\Source\BasicMathFunctions/arm_scale_q15.c ****         vecSrc = vld1q(pSrc);
 101:.\DSP\Source\BasicMathFunctions/arm_scale_q15.c ****         vecDst = vmulhq(vecSrc, vdupq_n_s16(scaleFract));
 102:.\DSP\Source\BasicMathFunctions/arm_scale_q15.c ****         vecDst = vqshlq_r(vecDst, shift + 1);
 103:.\DSP\Source\BasicMathFunctions/arm_scale_q15.c ****         vstrhq_p(pDst, vecDst, p0);
 104:.\DSP\Source\BasicMathFunctions/arm_scale_q15.c ****     }
 105:.\DSP\Source\BasicMathFunctions/arm_scale_q15.c **** 
 106:.\DSP\Source\BasicMathFunctions/arm_scale_q15.c **** }
 107:.\DSP\Source\BasicMathFunctions/arm_scale_q15.c **** 
 108:.\DSP\Source\BasicMathFunctions/arm_scale_q15.c **** 
 109:.\DSP\Source\BasicMathFunctions/arm_scale_q15.c **** #else
 110:.\DSP\Source\BasicMathFunctions/arm_scale_q15.c **** void arm_scale_q15(
 111:.\DSP\Source\BasicMathFunctions/arm_scale_q15.c ****   const q15_t *pSrc,
 112:.\DSP\Source\BasicMathFunctions/arm_scale_q15.c ****         q15_t scaleFract,
 113:.\DSP\Source\BasicMathFunctions/arm_scale_q15.c ****         int8_t shift,
 114:.\DSP\Source\BasicMathFunctions/arm_scale_q15.c ****         q15_t *pDst,
 115:.\DSP\Source\BasicMathFunctions/arm_scale_q15.c ****         uint32_t blockSize)
 116:.\DSP\Source\BasicMathFunctions/arm_scale_q15.c **** {
  27              		.loc 1 116 0
  28              		.cfi_startproc
  29              		@ args = 4, pretend = 0, frame = 0
  30              		@ frame_needed = 0, uses_anonymous_args = 0
  31              		@ link register save eliminated.
  32              	.LVL0:
  33 0000 F0B4     		push	{r4, r5, r6, r7}
  34              		.cfi_def_cfa_offset 16
  35              		.cfi_offset 4, -16
  36              		.cfi_offset 5, -12
  37              		.cfi_offset 6, -8
  38              		.cfi_offset 7, -4
  39 0002 049C     		ldr	r4, [sp, #16]
 117:.\DSP\Source\BasicMathFunctions/arm_scale_q15.c ****         uint32_t blkCnt;                               /* Loop counter */
 118:.\DSP\Source\BasicMathFunctions/arm_scale_q15.c ****         int8_t kShift = 15 - shift;                    /* Shift to apply after scaling */
  40              		.loc 1 118 0
  41 0004 C2F10F02 		rsb	r2, r2, #15
  42              	.LVL1:
  43 0008 D2B2     		uxtb	r2, r2
  44              	.LVL2:
 119:.\DSP\Source\BasicMathFunctions/arm_scale_q15.c **** 
 120:.\DSP\Source\BasicMathFunctions/arm_scale_q15.c **** #if defined (ARM_MATH_LOOPUNROLL)
 121:.\DSP\Source\BasicMathFunctions/arm_scale_q15.c **** #if defined (ARM_MATH_DSP)
 122:.\DSP\Source\BasicMathFunctions/arm_scale_q15.c ****   q31_t inA1, inA2;
 123:.\DSP\Source\BasicMathFunctions/arm_scale_q15.c ****   q31_t out1, out2, out3, out4;                  /* Temporary output variables */
 124:.\DSP\Source\BasicMathFunctions/arm_scale_q15.c ****   q15_t in1, in2, in3, in4;                      /* Temporary input variables */
 125:.\DSP\Source\BasicMathFunctions/arm_scale_q15.c **** #endif
 126:.\DSP\Source\BasicMathFunctions/arm_scale_q15.c **** #endif
 127:.\DSP\Source\BasicMathFunctions/arm_scale_q15.c **** 
ARM GAS  C:\Users\IVYLIU~1\AppData\Local\Temp\cckhYFXx.s 			page 4


 128:.\DSP\Source\BasicMathFunctions/arm_scale_q15.c **** #if defined (ARM_MATH_LOOPUNROLL)
 129:.\DSP\Source\BasicMathFunctions/arm_scale_q15.c **** 
 130:.\DSP\Source\BasicMathFunctions/arm_scale_q15.c ****   /* Loop unrolling: Compute 4 outputs at a time */
 131:.\DSP\Source\BasicMathFunctions/arm_scale_q15.c ****   blkCnt = blockSize >> 2U;
 132:.\DSP\Source\BasicMathFunctions/arm_scale_q15.c **** 
 133:.\DSP\Source\BasicMathFunctions/arm_scale_q15.c ****   while (blkCnt > 0U)
 134:.\DSP\Source\BasicMathFunctions/arm_scale_q15.c ****   {
 135:.\DSP\Source\BasicMathFunctions/arm_scale_q15.c ****     /* C = A * scale */
 136:.\DSP\Source\BasicMathFunctions/arm_scale_q15.c **** 
 137:.\DSP\Source\BasicMathFunctions/arm_scale_q15.c **** #if defined (ARM_MATH_DSP)
 138:.\DSP\Source\BasicMathFunctions/arm_scale_q15.c ****     /* read 2 times 2 samples at a time from source */
 139:.\DSP\Source\BasicMathFunctions/arm_scale_q15.c ****     inA1 = read_q15x2_ia (&pSrc);
 140:.\DSP\Source\BasicMathFunctions/arm_scale_q15.c ****     inA2 = read_q15x2_ia (&pSrc);
 141:.\DSP\Source\BasicMathFunctions/arm_scale_q15.c **** 
 142:.\DSP\Source\BasicMathFunctions/arm_scale_q15.c ****     /* Scale inputs and store result in temporary variables
 143:.\DSP\Source\BasicMathFunctions/arm_scale_q15.c ****      * in single cycle by packing the outputs */
 144:.\DSP\Source\BasicMathFunctions/arm_scale_q15.c ****     out1 = (q31_t) ((q15_t) (inA1 >> 16) * scaleFract);
 145:.\DSP\Source\BasicMathFunctions/arm_scale_q15.c ****     out2 = (q31_t) ((q15_t) (inA1      ) * scaleFract);
 146:.\DSP\Source\BasicMathFunctions/arm_scale_q15.c ****     out3 = (q31_t) ((q15_t) (inA2 >> 16) * scaleFract);
 147:.\DSP\Source\BasicMathFunctions/arm_scale_q15.c ****     out4 = (q31_t) ((q15_t) (inA2      ) * scaleFract);
 148:.\DSP\Source\BasicMathFunctions/arm_scale_q15.c **** 
 149:.\DSP\Source\BasicMathFunctions/arm_scale_q15.c ****     /* apply shifting */
 150:.\DSP\Source\BasicMathFunctions/arm_scale_q15.c ****     out1 = out1 >> kShift;
 151:.\DSP\Source\BasicMathFunctions/arm_scale_q15.c ****     out2 = out2 >> kShift;
 152:.\DSP\Source\BasicMathFunctions/arm_scale_q15.c ****     out3 = out3 >> kShift;
 153:.\DSP\Source\BasicMathFunctions/arm_scale_q15.c ****     out4 = out4 >> kShift;
 154:.\DSP\Source\BasicMathFunctions/arm_scale_q15.c **** 
 155:.\DSP\Source\BasicMathFunctions/arm_scale_q15.c ****     /* saturate the output */
 156:.\DSP\Source\BasicMathFunctions/arm_scale_q15.c ****     in1 = (q15_t) (__SSAT(out1, 16));
 157:.\DSP\Source\BasicMathFunctions/arm_scale_q15.c ****     in2 = (q15_t) (__SSAT(out2, 16));
 158:.\DSP\Source\BasicMathFunctions/arm_scale_q15.c ****     in3 = (q15_t) (__SSAT(out3, 16));
 159:.\DSP\Source\BasicMathFunctions/arm_scale_q15.c ****     in4 = (q15_t) (__SSAT(out4, 16));
 160:.\DSP\Source\BasicMathFunctions/arm_scale_q15.c **** 
 161:.\DSP\Source\BasicMathFunctions/arm_scale_q15.c ****     /* store result to destination */
 162:.\DSP\Source\BasicMathFunctions/arm_scale_q15.c ****     write_q15x2_ia (&pDst, __PKHBT(in2, in1, 16));
 163:.\DSP\Source\BasicMathFunctions/arm_scale_q15.c ****     write_q15x2_ia (&pDst, __PKHBT(in4, in3, 16));
 164:.\DSP\Source\BasicMathFunctions/arm_scale_q15.c **** #else
 165:.\DSP\Source\BasicMathFunctions/arm_scale_q15.c ****     *pDst++ = (q15_t) (__SSAT(((q31_t) *pSrc++ * scaleFract) >> kShift, 16));
 166:.\DSP\Source\BasicMathFunctions/arm_scale_q15.c ****     *pDst++ = (q15_t) (__SSAT(((q31_t) *pSrc++ * scaleFract) >> kShift, 16));
 167:.\DSP\Source\BasicMathFunctions/arm_scale_q15.c ****     *pDst++ = (q15_t) (__SSAT(((q31_t) *pSrc++ * scaleFract) >> kShift, 16));
 168:.\DSP\Source\BasicMathFunctions/arm_scale_q15.c ****     *pDst++ = (q15_t) (__SSAT(((q31_t) *pSrc++ * scaleFract) >> kShift, 16));
 169:.\DSP\Source\BasicMathFunctions/arm_scale_q15.c **** #endif
 170:.\DSP\Source\BasicMathFunctions/arm_scale_q15.c **** 
 171:.\DSP\Source\BasicMathFunctions/arm_scale_q15.c ****     /* Decrement loop counter */
 172:.\DSP\Source\BasicMathFunctions/arm_scale_q15.c ****     blkCnt--;
 173:.\DSP\Source\BasicMathFunctions/arm_scale_q15.c ****   }
 174:.\DSP\Source\BasicMathFunctions/arm_scale_q15.c **** 
 175:.\DSP\Source\BasicMathFunctions/arm_scale_q15.c ****   /* Loop unrolling: Compute remaining outputs */
 176:.\DSP\Source\BasicMathFunctions/arm_scale_q15.c ****   blkCnt = blockSize % 0x4U;
 177:.\DSP\Source\BasicMathFunctions/arm_scale_q15.c **** 
 178:.\DSP\Source\BasicMathFunctions/arm_scale_q15.c **** #else
 179:.\DSP\Source\BasicMathFunctions/arm_scale_q15.c **** 
 180:.\DSP\Source\BasicMathFunctions/arm_scale_q15.c ****   /* Initialize blkCnt with number of samples */
 181:.\DSP\Source\BasicMathFunctions/arm_scale_q15.c ****   blkCnt = blockSize;
 182:.\DSP\Source\BasicMathFunctions/arm_scale_q15.c **** 
 183:.\DSP\Source\BasicMathFunctions/arm_scale_q15.c **** #endif /* #if defined (ARM_MATH_LOOPUNROLL) */
 184:.\DSP\Source\BasicMathFunctions/arm_scale_q15.c **** 
ARM GAS  C:\Users\IVYLIU~1\AppData\Local\Temp\cckhYFXx.s 			page 5


 185:.\DSP\Source\BasicMathFunctions/arm_scale_q15.c ****   while (blkCnt > 0U)
  45              		.loc 1 185 0
  46 000a 0DE0     		b	.L2
  47              	.L3:
 186:.\DSP\Source\BasicMathFunctions/arm_scale_q15.c ****   {
 187:.\DSP\Source\BasicMathFunctions/arm_scale_q15.c ****     /* C = A * scale */
 188:.\DSP\Source\BasicMathFunctions/arm_scale_q15.c **** 
 189:.\DSP\Source\BasicMathFunctions/arm_scale_q15.c ****     /* Scale input and store result in destination buffer. */
 190:.\DSP\Source\BasicMathFunctions/arm_scale_q15.c ****     *pDst++ = (q15_t) (__SSAT(((q31_t) *pSrc++ * scaleFract) >> kShift, 16));
  48              		.loc 1 190 0
  49 000c 9E1C     		adds	r6, r3, #2
  50              	.LVL3:
  51              	.LBB2:
  52 000e 851C     		adds	r5, r0, #2
  53              	.LVL4:
  54 0010 B0F90000 		ldrsh	r0, [r0]
  55 0014 01FB00F0 		mul	r0, r1, r0
  56 0018 57B2     		sxtb	r7, r2
  57 001a 3841     		asrs	r0, r0, r7
  58              	.LVL5:
  59              	@ 190 ".\DSP\Source\BasicMathFunctions\arm_scale_q15.c" 1
  60 001c 00F30F00 		ssat r0, #16, r0
  61              	@ 0 "" 2
  62              	.LVL6:
  63              		.thumb
  64              	.LBE2:
  65 0020 1880     		strh	r0, [r3]	@ movhi
  66              	.LVL7:
 191:.\DSP\Source\BasicMathFunctions/arm_scale_q15.c **** 
 192:.\DSP\Source\BasicMathFunctions/arm_scale_q15.c ****     /* Decrement loop counter */
 193:.\DSP\Source\BasicMathFunctions/arm_scale_q15.c ****     blkCnt--;
  67              		.loc 1 193 0
  68 0022 013C     		subs	r4, r4, #1
  69              	.LVL8:
 190:.\DSP\Source\BasicMathFunctions/arm_scale_q15.c **** 
  70              		.loc 1 190 0
  71 0024 3346     		mov	r3, r6
  72              	.LBB3:
  73 0026 2846     		mov	r0, r5
  74              	.LVL9:
  75              	.L2:
  76              	.LBE3:
 185:.\DSP\Source\BasicMathFunctions/arm_scale_q15.c ****   {
  77              		.loc 1 185 0
  78 0028 002C     		cmp	r4, #0
  79 002a EFD1     		bne	.L3
 194:.\DSP\Source\BasicMathFunctions/arm_scale_q15.c ****   }
 195:.\DSP\Source\BasicMathFunctions/arm_scale_q15.c **** 
 196:.\DSP\Source\BasicMathFunctions/arm_scale_q15.c **** }
  80              		.loc 1 196 0
  81 002c F0BC     		pop	{r4, r5, r6, r7}
  82              		.cfi_restore 7
  83              		.cfi_restore 6
  84              		.cfi_restore 5
  85              		.cfi_restore 4
  86              		.cfi_def_cfa_offset 0
  87              	.LVL10:
ARM GAS  C:\Users\IVYLIU~1\AppData\Local\Temp\cckhYFXx.s 			page 6


  88 002e 7047     		bx	lr
  89              		.cfi_endproc
  90              	.LFE83:
  91              		.size	arm_scale_q15, .-arm_scale_q15
  92              		.text
  93              	.Letext0:
  94              		.file 2 "c:\\program files (x86)\\cypress\\psoc creator\\3.3\\psoc creator\\import\\gnu\\arm\\4.9.
  95              		.file 3 "c:\\program files (x86)\\cypress\\psoc creator\\3.3\\psoc creator\\import\\gnu\\arm\\4.9.
  96              		.file 4 ".\\DSP\\Include/arm_math_types.h"
  97              		.file 5 ".\\Core\\Include/cmsis_gcc.h"