ARM GAS  C:\Users\IVYLIU~1\AppData\Local\Temp\ccnIldPv.s 			page 1


   1              		.syntax unified
   2              		.cpu cortex-m3
   3              		.fpu softvfp
   4              		.eabi_attribute 20, 1
   5              		.eabi_attribute 21, 1
   6              		.eabi_attribute 23, 3
   7              		.eabi_attribute 24, 1
   8              		.eabi_attribute 25, 1
   9              		.eabi_attribute 26, 1
  10              		.eabi_attribute 30, 1
  11              		.eabi_attribute 34, 1
  12              		.eabi_attribute 18, 4
  13              		.thumb
  14              		.file	"arm_rfft_fast_f64.c"
  15              		.text
  16              	.Ltext0:
  17              		.cfi_sections	.debug_frame
  18              		.global	__aeabi_dadd
  19              		.global	__aeabi_dmul
  20              		.global	__aeabi_dsub
  21              		.section	.text.stage_rfft_f64,"ax",%progbits
  22              		.align	2
  23              		.global	stage_rfft_f64
  24              		.thumb
  25              		.thumb_func
  26              		.type	stage_rfft_f64, %function
  27              	stage_rfft_f64:
  28              	.LFB84:
  29              		.file 1 ".\\DSP\\Source\\TransformFunctions\\arm_rfft_fast_f64.c"
   1:.\DSP\Source\TransformFunctions/arm_rfft_fast_f64.c **** /* ----------------------------------------------------------------------
   2:.\DSP\Source\TransformFunctions/arm_rfft_fast_f64.c ****  * Project:      CMSIS DSP Library
   3:.\DSP\Source\TransformFunctions/arm_rfft_fast_f64.c ****  * Title:        arm_rfft_fast_f64.c
   4:.\DSP\Source\TransformFunctions/arm_rfft_fast_f64.c ****  * Description:  RFFT & RIFFT Double precision Floating point process function
   5:.\DSP\Source\TransformFunctions/arm_rfft_fast_f64.c ****  *
   6:.\DSP\Source\TransformFunctions/arm_rfft_fast_f64.c ****  * $Date:        23 April 2021
   7:.\DSP\Source\TransformFunctions/arm_rfft_fast_f64.c ****  * $Revision:    V1.9.0
   8:.\DSP\Source\TransformFunctions/arm_rfft_fast_f64.c ****  *
   9:.\DSP\Source\TransformFunctions/arm_rfft_fast_f64.c ****  * Target Processor: Cortex-M and Cortex-A cores
  10:.\DSP\Source\TransformFunctions/arm_rfft_fast_f64.c ****  * -------------------------------------------------------------------- */
  11:.\DSP\Source\TransformFunctions/arm_rfft_fast_f64.c **** /*
  12:.\DSP\Source\TransformFunctions/arm_rfft_fast_f64.c ****  * Copyright (C) 2010-2021 ARM Limited or its affiliates. All rights reserved.
  13:.\DSP\Source\TransformFunctions/arm_rfft_fast_f64.c ****  *
  14:.\DSP\Source\TransformFunctions/arm_rfft_fast_f64.c ****  * SPDX-License-Identifier: Apache-2.0
  15:.\DSP\Source\TransformFunctions/arm_rfft_fast_f64.c ****  *
  16:.\DSP\Source\TransformFunctions/arm_rfft_fast_f64.c ****  * Licensed under the Apache License, Version 2.0 (the License); you may
  17:.\DSP\Source\TransformFunctions/arm_rfft_fast_f64.c ****  * not use this file except in compliance with the License.
  18:.\DSP\Source\TransformFunctions/arm_rfft_fast_f64.c ****  * You may obtain a copy of the License at
  19:.\DSP\Source\TransformFunctions/arm_rfft_fast_f64.c ****  *
  20:.\DSP\Source\TransformFunctions/arm_rfft_fast_f64.c ****  * www.apache.org/licenses/LICENSE-2.0
  21:.\DSP\Source\TransformFunctions/arm_rfft_fast_f64.c ****  *
  22:.\DSP\Source\TransformFunctions/arm_rfft_fast_f64.c ****  * Unless required by applicable law or agreed to in writing, software
  23:.\DSP\Source\TransformFunctions/arm_rfft_fast_f64.c ****  * distributed under the License is distributed on an AS IS BASIS, WITHOUT
  24:.\DSP\Source\TransformFunctions/arm_rfft_fast_f64.c ****  * WARRANTIES OR CONDITIONS OF ANY KIND, either express or implied.
  25:.\DSP\Source\TransformFunctions/arm_rfft_fast_f64.c ****  * See the License for the specific language governing permissions and
  26:.\DSP\Source\TransformFunctions/arm_rfft_fast_f64.c ****  * limitations under the License.
  27:.\DSP\Source\TransformFunctions/arm_rfft_fast_f64.c ****  */
  28:.\DSP\Source\TransformFunctions/arm_rfft_fast_f64.c **** 
ARM GAS  C:\Users\IVYLIU~1\AppData\Local\Temp\ccnIldPv.s 			page 2


  29:.\DSP\Source\TransformFunctions/arm_rfft_fast_f64.c **** #include "dsp/transform_functions.h"
  30:.\DSP\Source\TransformFunctions/arm_rfft_fast_f64.c **** 
  31:.\DSP\Source\TransformFunctions/arm_rfft_fast_f64.c **** void stage_rfft_f64(
  32:.\DSP\Source\TransformFunctions/arm_rfft_fast_f64.c ****   const arm_rfft_fast_instance_f64 * S,
  33:.\DSP\Source\TransformFunctions/arm_rfft_fast_f64.c ****         float64_t * p,
  34:.\DSP\Source\TransformFunctions/arm_rfft_fast_f64.c ****         float64_t * pOut)
  35:.\DSP\Source\TransformFunctions/arm_rfft_fast_f64.c **** {
  30              		.loc 1 35 0
  31              		.cfi_startproc
  32              		@ args = 0, pretend = 0, frame = 64
  33              		@ frame_needed = 0, uses_anonymous_args = 0
  34              	.LVL0:
  35 0000 2DE9F04F 		push	{r4, r5, r6, r7, r8, r9, r10, fp, lr}
  36              		.cfi_def_cfa_offset 36
  37              		.cfi_offset 4, -36
  38              		.cfi_offset 5, -32
  39              		.cfi_offset 6, -28
  40              		.cfi_offset 7, -24
  41              		.cfi_offset 8, -20
  42              		.cfi_offset 9, -16
  43              		.cfi_offset 10, -12
  44              		.cfi_offset 11, -8
  45              		.cfi_offset 14, -4
  46 0004 91B0     		sub	sp, sp, #68
  47              		.cfi_def_cfa_offset 104
  48 0006 0D46     		mov	r5, r1
  49 0008 9246     		mov	r10, r2
  36:.\DSP\Source\TransformFunctions/arm_rfft_fast_f64.c ****         uint32_t  k;                                /* Loop Counter */
  37:.\DSP\Source\TransformFunctions/arm_rfft_fast_f64.c ****         float64_t twR, twI;                         /* RFFT Twiddle coefficients */
  38:.\DSP\Source\TransformFunctions/arm_rfft_fast_f64.c ****   const float64_t * pCoeff = S->pTwiddleRFFT;       /* Points to RFFT Twiddle factors */
  50              		.loc 1 38 0
  51 000a 4469     		ldr	r4, [r0, #20]
  52              	.LVL1:
  39:.\DSP\Source\TransformFunctions/arm_rfft_fast_f64.c ****         float64_t *pA = p;                          /* increasing pointer */
  40:.\DSP\Source\TransformFunctions/arm_rfft_fast_f64.c ****         float64_t *pB = p;                          /* decreasing pointer */
  41:.\DSP\Source\TransformFunctions/arm_rfft_fast_f64.c ****         float64_t xAR, xAI, xBR, xBI;               /* temporary variables */
  42:.\DSP\Source\TransformFunctions/arm_rfft_fast_f64.c ****         float64_t t1a, t1b;                         /* temporary variables */
  43:.\DSP\Source\TransformFunctions/arm_rfft_fast_f64.c ****         float64_t p0, p1, p2, p3;                   /* temporary variables */
  44:.\DSP\Source\TransformFunctions/arm_rfft_fast_f64.c **** 
  45:.\DSP\Source\TransformFunctions/arm_rfft_fast_f64.c **** 
  46:.\DSP\Source\TransformFunctions/arm_rfft_fast_f64.c ****    k = (S->Sint).fftLen - 1;
  53              		.loc 1 46 0
  54 000c 0388     		ldrh	r3, [r0]
  55 000e 03F1FF3B 		add	fp, r3, #-1
  56              	.LVL2:
  47:.\DSP\Source\TransformFunctions/arm_rfft_fast_f64.c **** 
  48:.\DSP\Source\TransformFunctions/arm_rfft_fast_f64.c ****    /* Pack first and last sample of the frequency domain together */
  49:.\DSP\Source\TransformFunctions/arm_rfft_fast_f64.c **** 
  50:.\DSP\Source\TransformFunctions/arm_rfft_fast_f64.c ****    xBR = pB[0];
  51:.\DSP\Source\TransformFunctions/arm_rfft_fast_f64.c ****    xBI = pB[1];
  57              		.loc 1 51 0
  58 0012 D1E90289 		ldrd	r8, [r1, #8]
  59              	.LVL3:
  52:.\DSP\Source\TransformFunctions/arm_rfft_fast_f64.c ****    xAR = pA[0];
  53:.\DSP\Source\TransformFunctions/arm_rfft_fast_f64.c ****    xAI = pA[1];
  54:.\DSP\Source\TransformFunctions/arm_rfft_fast_f64.c **** 
  55:.\DSP\Source\TransformFunctions/arm_rfft_fast_f64.c ****    twR = *pCoeff++ ;
ARM GAS  C:\Users\IVYLIU~1\AppData\Local\Temp\ccnIldPv.s 			page 3


  56:.\DSP\Source\TransformFunctions/arm_rfft_fast_f64.c ****    twI = *pCoeff++ ;
  60              		.loc 1 56 0
  61 0016 1034     		adds	r4, r4, #16
  62              	.LVL4:
  57:.\DSP\Source\TransformFunctions/arm_rfft_fast_f64.c **** 
  58:.\DSP\Source\TransformFunctions/arm_rfft_fast_f64.c ****    // U1 = XA(1) + XB(1); % It is real
  59:.\DSP\Source\TransformFunctions/arm_rfft_fast_f64.c ****    t1a = xBR + xAR  ;
  63              		.loc 1 59 0
  64 0018 D1E90001 		ldrd	r0, [r1]
  65              	.LVL5:
  66 001c 0246     		mov	r2, r0
  67              	.LVL6:
  68 001e 0B46     		mov	r3, r1
  69 0020 FFF7FEFF 		bl	__aeabi_dadd
  70              	.LVL7:
  71 0024 0646     		mov	r6, r0
  72 0026 0F46     		mov	r7, r1
  73              	.LVL8:
  60:.\DSP\Source\TransformFunctions/arm_rfft_fast_f64.c **** 
  61:.\DSP\Source\TransformFunctions/arm_rfft_fast_f64.c ****    // U2 = XB(1) - XA(1); % It is imaginary
  62:.\DSP\Source\TransformFunctions/arm_rfft_fast_f64.c ****    t1b = xBI + xAI  ;
  74              		.loc 1 62 0
  75 0028 4046     		mov	r0, r8
  76 002a 4946     		mov	r1, r9
  77 002c 4246     		mov	r2, r8
  78 002e 4B46     		mov	r3, r9
  79 0030 FFF7FEFF 		bl	__aeabi_dadd
  80              	.LVL9:
  81 0034 8046     		mov	r8, r0
  82              	.LVL10:
  83 0036 8946     		mov	r9, r1
  84              	.LVL11:
  63:.\DSP\Source\TransformFunctions/arm_rfft_fast_f64.c **** 
  64:.\DSP\Source\TransformFunctions/arm_rfft_fast_f64.c ****    // real(tw * (xB - xA)) = twR * (xBR - xAR) - twI * (xBI - xAI);
  65:.\DSP\Source\TransformFunctions/arm_rfft_fast_f64.c ****    // imag(tw * (xB - xA)) = twI * (xBR - xAR) + twR * (xBI - xAI);
  66:.\DSP\Source\TransformFunctions/arm_rfft_fast_f64.c ****    *pOut++ = 0.5 * ( t1a + t1b );
  85              		.loc 1 66 0
  86 0038 3046     		mov	r0, r6
  87 003a 3946     		mov	r1, r7
  88 003c 4246     		mov	r2, r8
  89 003e 4B46     		mov	r3, r9
  90 0040 FFF7FEFF 		bl	__aeabi_dadd
  91              	.LVL12:
  92 0044 0022     		movs	r2, #0
  93 0046 4A4B     		ldr	r3, .L4
  94 0048 FFF7FEFF 		bl	__aeabi_dmul
  95              	.LVL13:
  96 004c 5346     		mov	r3, r10
  97 004e E3E80401 		strd	r0, [r3], #16
  98 0052 0193     		str	r3, [sp, #4]
  99              	.LVL14:
  67:.\DSP\Source\TransformFunctions/arm_rfft_fast_f64.c ****    *pOut++ = 0.5 * ( t1a - t1b );
 100              		.loc 1 67 0
 101 0054 3046     		mov	r0, r6
 102 0056 3946     		mov	r1, r7
 103 0058 4246     		mov	r2, r8
 104 005a 4B46     		mov	r3, r9
ARM GAS  C:\Users\IVYLIU~1\AppData\Local\Temp\ccnIldPv.s 			page 4


 105              	.LVL15:
 106 005c FFF7FEFF 		bl	__aeabi_dsub
 107              	.LVL16:
 108 0060 0022     		movs	r2, #0
 109 0062 434B     		ldr	r3, .L4
 110 0064 FFF7FEFF 		bl	__aeabi_dmul
 111              	.LVL17:
 112 0068 CAE90201 		strd	r0, [r10, #8]
  68:.\DSP\Source\TransformFunctions/arm_rfft_fast_f64.c **** 
  69:.\DSP\Source\TransformFunctions/arm_rfft_fast_f64.c ****    // XA(1) = 1/2*( U1 - imag(U2) +  i*( U1 +imag(U2) ));
  70:.\DSP\Source\TransformFunctions/arm_rfft_fast_f64.c ****    pB  = p + 2*k;
 113              		.loc 1 70 0
 114 006c 05EB0B19 		add	r9, r5, fp, lsl #4
 115              	.LVL18:
  71:.\DSP\Source\TransformFunctions/arm_rfft_fast_f64.c ****    pA += 2;
 116              		.loc 1 71 0
 117 0070 05F11008 		add	r8, r5, #16
 118              	.LVL19:
 119 0074 CDF830B0 		str	fp, [sp, #48]
 120              	.LVL20:
 121              	.L2:
  72:.\DSP\Source\TransformFunctions/arm_rfft_fast_f64.c **** 
  73:.\DSP\Source\TransformFunctions/arm_rfft_fast_f64.c ****    do
  74:.\DSP\Source\TransformFunctions/arm_rfft_fast_f64.c ****    {
  75:.\DSP\Source\TransformFunctions/arm_rfft_fast_f64.c ****       /*
  76:.\DSP\Source\TransformFunctions/arm_rfft_fast_f64.c ****          function X = my_split_rfft(X, ifftFlag)
  77:.\DSP\Source\TransformFunctions/arm_rfft_fast_f64.c ****          % X is a series of real numbers
  78:.\DSP\Source\TransformFunctions/arm_rfft_fast_f64.c ****          L  = length(X);
  79:.\DSP\Source\TransformFunctions/arm_rfft_fast_f64.c ****          XC = X(1:2:end) +i*X(2:2:end);
  80:.\DSP\Source\TransformFunctions/arm_rfft_fast_f64.c ****          XA = fft(XC);
  81:.\DSP\Source\TransformFunctions/arm_rfft_fast_f64.c ****          XB = conj(XA([1 end:-1:2]));
  82:.\DSP\Source\TransformFunctions/arm_rfft_fast_f64.c ****          TW = i*exp(-2*pi*i*[0:L/2-1]/L).';
  83:.\DSP\Source\TransformFunctions/arm_rfft_fast_f64.c ****          for l = 2:L/2
  84:.\DSP\Source\TransformFunctions/arm_rfft_fast_f64.c ****             XA(l) = 1/2 * (XA(l) + XB(l) + TW(l) * (XB(l) - XA(l)));
  85:.\DSP\Source\TransformFunctions/arm_rfft_fast_f64.c ****          end
  86:.\DSP\Source\TransformFunctions/arm_rfft_fast_f64.c ****          XA(1) = 1/2* (XA(1) + XB(1) + TW(1) * (XB(1) - XA(1))) + i*( 1/2*( XA(1) + XB(1) + i*( XA(
  87:.\DSP\Source\TransformFunctions/arm_rfft_fast_f64.c ****          X = XA;
  88:.\DSP\Source\TransformFunctions/arm_rfft_fast_f64.c ****       */
  89:.\DSP\Source\TransformFunctions/arm_rfft_fast_f64.c **** 
  90:.\DSP\Source\TransformFunctions/arm_rfft_fast_f64.c ****       xBI = pB[1];
 122              		.loc 1 90 0 discriminator 1
 123 0078 D9E90223 		ldrd	r2, [r9, #8]
 124 007c CDE90223 		strd	r2, [sp, #8]
 125              	.LVL21:
  91:.\DSP\Source\TransformFunctions/arm_rfft_fast_f64.c ****       xBR = pB[0];
 126              		.loc 1 91 0 discriminator 1
 127 0080 79E80401 		ldrd	r0, [r9], #-16
 128              	.LVL22:
  92:.\DSP\Source\TransformFunctions/arm_rfft_fast_f64.c ****       xAR = pA[0];
 129              		.loc 1 92 0 discriminator 1
 130 0084 D8E90067 		ldrd	r6, [r8]
 131 0088 3246     		mov	r2, r6
 132              	.LVL23:
 133 008a 3B46     		mov	r3, r7
 134              	.LVL24:
  93:.\DSP\Source\TransformFunctions/arm_rfft_fast_f64.c ****       xAI = pA[1];
 135              		.loc 1 93 0 discriminator 1
ARM GAS  C:\Users\IVYLIU~1\AppData\Local\Temp\ccnIldPv.s 			page 5


 136 008c D8E90267 		ldrd	r6, [r8, #8]
 137              	.LVL25:
  94:.\DSP\Source\TransformFunctions/arm_rfft_fast_f64.c **** 
  95:.\DSP\Source\TransformFunctions/arm_rfft_fast_f64.c ****       twR = *pCoeff++;
 138              		.loc 1 95 0 discriminator 1
 139 0090 2546     		mov	r5, r4
 140 0092 F5E804AB 		ldrd	r10, [r5], #16
 141 0096 0D95     		str	r5, [sp, #52]
 142              	.LVL26:
  96:.\DSP\Source\TransformFunctions/arm_rfft_fast_f64.c ****       twI = *pCoeff++;
 143              		.loc 1 96 0 discriminator 1
 144 0098 04F10805 		add	r5, r4, #8
 145 009c D5E90045 		ldrd	r4, [r5]
 146              	.LVL27:
  97:.\DSP\Source\TransformFunctions/arm_rfft_fast_f64.c **** 
  98:.\DSP\Source\TransformFunctions/arm_rfft_fast_f64.c ****       t1a = xBR - xAR ;
 147              		.loc 1 98 0 discriminator 1
 148 00a0 CDE90601 		strd	r0, [sp, #24]
 149 00a4 CDE90823 		strd	r2, [sp, #32]
 150 00a8 FFF7FEFF 		bl	__aeabi_dsub
 151              	.LVL28:
 152 00ac CDE90401 		strd	r0, [sp, #16]
 153              	.LVL29:
  99:.\DSP\Source\TransformFunctions/arm_rfft_fast_f64.c ****       t1b = xBI + xAI ;
 154              		.loc 1 99 0 discriminator 1
 155 00b0 DDE90201 		ldrd	r0, [sp, #8]
 156              	.LVL30:
 157 00b4 CDE90A67 		strd	r6, [sp, #40]
 158 00b8 3246     		mov	r2, r6
 159 00ba 3B46     		mov	r3, r7
 160 00bc FFF7FEFF 		bl	__aeabi_dadd
 161              	.LVL31:
 162 00c0 0646     		mov	r6, r0
 163              	.LVL32:
 164 00c2 0F46     		mov	r7, r1
 165              	.LVL33:
 100:.\DSP\Source\TransformFunctions/arm_rfft_fast_f64.c **** 
 101:.\DSP\Source\TransformFunctions/arm_rfft_fast_f64.c ****       // real(tw * (xB - xA)) = twR * (xBR - xAR) - twI * (xBI - xAI);
 102:.\DSP\Source\TransformFunctions/arm_rfft_fast_f64.c ****       // imag(tw * (xB - xA)) = twI * (xBR - xAR) + twR * (xBI - xAI);
 103:.\DSP\Source\TransformFunctions/arm_rfft_fast_f64.c ****       p0 = twR * t1a;
 166              		.loc 1 103 0 discriminator 1
 167 00c4 5046     		mov	r0, r10
 168 00c6 5946     		mov	r1, fp
 169 00c8 DDE90423 		ldrd	r2, [sp, #16]
 170 00cc FFF7FEFF 		bl	__aeabi_dmul
 171              	.LVL34:
 172 00d0 CDE90E01 		strd	r0, [sp, #56]
 173              	.LVL35:
 104:.\DSP\Source\TransformFunctions/arm_rfft_fast_f64.c ****       p1 = twI * t1a;
 174              		.loc 1 104 0 discriminator 1
 175 00d4 2046     		mov	r0, r4
 176              	.LVL36:
 177 00d6 2946     		mov	r1, r5
 178 00d8 DDE90423 		ldrd	r2, [sp, #16]
 179 00dc FFF7FEFF 		bl	__aeabi_dmul
 180              	.LVL37:
 181 00e0 CDE90401 		strd	r0, [sp, #16]
ARM GAS  C:\Users\IVYLIU~1\AppData\Local\Temp\ccnIldPv.s 			page 6


 182              	.LVL38:
 105:.\DSP\Source\TransformFunctions/arm_rfft_fast_f64.c ****       p2 = twR * t1b;
 183              		.loc 1 105 0 discriminator 1
 184 00e4 5046     		mov	r0, r10
 185              	.LVL39:
 186 00e6 5946     		mov	r1, fp
 187 00e8 3246     		mov	r2, r6
 188 00ea 3B46     		mov	r3, r7
 189 00ec FFF7FEFF 		bl	__aeabi_dmul
 190              	.LVL40:
 191 00f0 8246     		mov	r10, r0
 192              	.LVL41:
 193 00f2 8B46     		mov	fp, r1
 194              	.LVL42:
 106:.\DSP\Source\TransformFunctions/arm_rfft_fast_f64.c ****       p3 = twI * t1b;
 195              		.loc 1 106 0 discriminator 1
 196 00f4 2046     		mov	r0, r4
 197 00f6 2946     		mov	r1, r5
 198 00f8 3246     		mov	r2, r6
 199 00fa 3B46     		mov	r3, r7
 200 00fc FFF7FEFF 		bl	__aeabi_dmul
 201              	.LVL43:
 202 0100 0646     		mov	r6, r0
 203              	.LVL44:
 204 0102 0F46     		mov	r7, r1
 205              	.LVL45:
 107:.\DSP\Source\TransformFunctions/arm_rfft_fast_f64.c **** 
 108:.\DSP\Source\TransformFunctions/arm_rfft_fast_f64.c ****       *pOut++ = 0.5 * (xAR + xBR + p0 + p3 ); //xAR
 206              		.loc 1 108 0 discriminator 1
 207 0104 DDE90801 		ldrd	r0, [sp, #32]
 208 0108 DDE90623 		ldrd	r2, [sp, #24]
 209 010c FFF7FEFF 		bl	__aeabi_dadd
 210              	.LVL46:
 211 0110 DDE90E23 		ldrd	r2, [sp, #56]
 212 0114 FFF7FEFF 		bl	__aeabi_dadd
 213              	.LVL47:
 214 0118 3246     		mov	r2, r6
 215 011a 3B46     		mov	r3, r7
 216 011c FFF7FEFF 		bl	__aeabi_dadd
 217              	.LVL48:
 218 0120 0022     		movs	r2, #0
 219 0122 134B     		ldr	r3, .L4
 220 0124 FFF7FEFF 		bl	__aeabi_dmul
 221              	.LVL49:
 222 0128 019C     		ldr	r4, [sp, #4]
 223              	.LVL50:
 224 012a E4E80401 		strd	r0, [r4], #16
 225              	.LVL51:
 109:.\DSP\Source\TransformFunctions/arm_rfft_fast_f64.c ****       *pOut++ = 0.5 * (xAI - xBI + p1 - p2 ); //xAI
 226              		.loc 1 109 0 discriminator 1
 227 012e DDE90A01 		ldrd	r0, [sp, #40]
 228 0132 DDE90223 		ldrd	r2, [sp, #8]
 229 0136 FFF7FEFF 		bl	__aeabi_dsub
 230              	.LVL52:
 231 013a DDE90423 		ldrd	r2, [sp, #16]
 232 013e FFF7FEFF 		bl	__aeabi_dadd
 233              	.LVL53:
ARM GAS  C:\Users\IVYLIU~1\AppData\Local\Temp\ccnIldPv.s 			page 7


 234 0142 5246     		mov	r2, r10
 235 0144 5B46     		mov	r3, fp
 236 0146 FFF7FEFF 		bl	__aeabi_dsub
 237              	.LVL54:
 238 014a 0022     		movs	r2, #0
 239 014c 084B     		ldr	r3, .L4
 240 014e FFF7FEFF 		bl	__aeabi_dmul
 241              	.LVL55:
 242 0152 019B     		ldr	r3, [sp, #4]
 243 0154 C3E90201 		strd	r0, [r3, #8]
 110:.\DSP\Source\TransformFunctions/arm_rfft_fast_f64.c **** 
 111:.\DSP\Source\TransformFunctions/arm_rfft_fast_f64.c ****       pA += 2;
 244              		.loc 1 111 0 discriminator 1
 245 0158 08F11008 		add	r8, r8, #16
 246              	.LVL56:
 109:.\DSP\Source\TransformFunctions/arm_rfft_fast_f64.c ****       *pOut++ = 0.5 * (xAI - xBI + p1 - p2 ); //xAI
 247              		.loc 1 109 0 discriminator 1
 248 015c 0194     		str	r4, [sp, #4]
  96:.\DSP\Source\TransformFunctions/arm_rfft_fast_f64.c **** 
 249              		.loc 1 96 0 discriminator 1
 250 015e 0D9C     		ldr	r4, [sp, #52]
 251              	.LVL57:
 112:.\DSP\Source\TransformFunctions/arm_rfft_fast_f64.c ****       pB -= 2;
 113:.\DSP\Source\TransformFunctions/arm_rfft_fast_f64.c ****       k--;
 114:.\DSP\Source\TransformFunctions/arm_rfft_fast_f64.c ****    } while (k > 0U);
 252              		.loc 1 114 0 discriminator 1
 253 0160 0C9B     		ldr	r3, [sp, #48]
 254 0162 013B     		subs	r3, r3, #1
 255              	.LVL58:
 256 0164 0C93     		str	r3, [sp, #48]
 257 0166 87D1     		bne	.L2
 115:.\DSP\Source\TransformFunctions/arm_rfft_fast_f64.c **** }
 258              		.loc 1 115 0
 259 0168 11B0     		add	sp, sp, #68
 260              		.cfi_def_cfa_offset 36
 261              		@ sp needed
 262 016a BDE8F08F 		pop	{r4, r5, r6, r7, r8, r9, r10, fp, pc}
 263              	.LVL59:
 264              	.L5:
 265 016e 00BF     		.align	2
 266              	.L4:
 267 0170 0000E03F 		.word	1071644672
 268              		.cfi_endproc
 269              	.LFE84:
 270              		.size	stage_rfft_f64, .-stage_rfft_f64
 271              		.section	.text.merge_rfft_f64,"ax",%progbits
 272              		.align	2
 273              		.global	merge_rfft_f64
 274              		.thumb
 275              		.thumb_func
 276              		.type	merge_rfft_f64, %function
 277              	merge_rfft_f64:
 278              	.LFB85:
 116:.\DSP\Source\TransformFunctions/arm_rfft_fast_f64.c **** 
 117:.\DSP\Source\TransformFunctions/arm_rfft_fast_f64.c **** /* Prepares data for inverse cfft */
 118:.\DSP\Source\TransformFunctions/arm_rfft_fast_f64.c **** void merge_rfft_f64(
 119:.\DSP\Source\TransformFunctions/arm_rfft_fast_f64.c ****   const arm_rfft_fast_instance_f64 * S,
ARM GAS  C:\Users\IVYLIU~1\AppData\Local\Temp\ccnIldPv.s 			page 8


 120:.\DSP\Source\TransformFunctions/arm_rfft_fast_f64.c ****         float64_t * p,
 121:.\DSP\Source\TransformFunctions/arm_rfft_fast_f64.c ****         float64_t * pOut)
 122:.\DSP\Source\TransformFunctions/arm_rfft_fast_f64.c **** {
 279              		.loc 1 122 0
 280              		.cfi_startproc
 281              		@ args = 0, pretend = 0, frame = 72
 282              		@ frame_needed = 0, uses_anonymous_args = 0
 283              	.LVL60:
 284 0000 2DE9F04F 		push	{r4, r5, r6, r7, r8, r9, r10, fp, lr}
 285              		.cfi_def_cfa_offset 36
 286              		.cfi_offset 4, -36
 287              		.cfi_offset 5, -32
 288              		.cfi_offset 6, -28
 289              		.cfi_offset 7, -24
 290              		.cfi_offset 8, -20
 291              		.cfi_offset 9, -16
 292              		.cfi_offset 10, -12
 293              		.cfi_offset 11, -8
 294              		.cfi_offset 14, -4
 295 0004 93B0     		sub	sp, sp, #76
 296              		.cfi_def_cfa_offset 112
 297 0006 0F46     		mov	r7, r1
 298 0008 9246     		mov	r10, r2
 123:.\DSP\Source\TransformFunctions/arm_rfft_fast_f64.c ****         uint32_t  k;                                /* Loop Counter */
 124:.\DSP\Source\TransformFunctions/arm_rfft_fast_f64.c ****         float64_t twR, twI;                         /* RFFT Twiddle coefficients */
 125:.\DSP\Source\TransformFunctions/arm_rfft_fast_f64.c ****   const float64_t *pCoeff = S->pTwiddleRFFT;        /* Points to RFFT Twiddle factors */
 299              		.loc 1 125 0
 300 000a 4669     		ldr	r6, [r0, #20]
 301              	.LVL61:
 126:.\DSP\Source\TransformFunctions/arm_rfft_fast_f64.c ****         float64_t *pA = p;                          /* increasing pointer */
 127:.\DSP\Source\TransformFunctions/arm_rfft_fast_f64.c ****         float64_t *pB = p;                          /* decreasing pointer */
 128:.\DSP\Source\TransformFunctions/arm_rfft_fast_f64.c ****         float64_t xAR, xAI, xBR, xBI;               /* temporary variables */
 129:.\DSP\Source\TransformFunctions/arm_rfft_fast_f64.c ****         float64_t t1a, t1b, r, s, t, u;             /* temporary variables */
 130:.\DSP\Source\TransformFunctions/arm_rfft_fast_f64.c **** 
 131:.\DSP\Source\TransformFunctions/arm_rfft_fast_f64.c ****    k = (S->Sint).fftLen - 1;
 302              		.loc 1 131 0
 303 000c 0388     		ldrh	r3, [r0]
 304 000e 03F1FF39 		add	r9, r3, #-1
 305              	.LVL62:
 132:.\DSP\Source\TransformFunctions/arm_rfft_fast_f64.c **** 
 133:.\DSP\Source\TransformFunctions/arm_rfft_fast_f64.c ****    xAR = pA[0];
 306              		.loc 1 133 0
 307 0012 D1E90023 		ldrd	r2, [r1]
 308              	.LVL63:
 134:.\DSP\Source\TransformFunctions/arm_rfft_fast_f64.c ****    xAI = pA[1];
 309              		.loc 1 134 0
 310 0016 D1E90245 		ldrd	r4, [r1, #8]
 311              	.LVL64:
 135:.\DSP\Source\TransformFunctions/arm_rfft_fast_f64.c **** 
 136:.\DSP\Source\TransformFunctions/arm_rfft_fast_f64.c ****    pCoeff += 2 ;
 312              		.loc 1 136 0
 313 001a 1036     		adds	r6, r6, #16
 314              	.LVL65:
 137:.\DSP\Source\TransformFunctions/arm_rfft_fast_f64.c **** 
 138:.\DSP\Source\TransformFunctions/arm_rfft_fast_f64.c ****    *pOut++ = 0.5 * ( xAR + xAI );
 315              		.loc 1 138 0
 316 001c CDE90023 		strd	r2, [sp]
ARM GAS  C:\Users\IVYLIU~1\AppData\Local\Temp\ccnIldPv.s 			page 9


 317 0020 1046     		mov	r0, r2
 318              	.LVL66:
 319 0022 1946     		mov	r1, r3
 320              	.LVL67:
 321 0024 2246     		mov	r2, r4
 322              	.LVL68:
 323 0026 2B46     		mov	r3, r5
 324 0028 FFF7FEFF 		bl	__aeabi_dadd
 325              	.LVL69:
 326 002c 0022     		movs	r2, #0
 327 002e 4E4B     		ldr	r3, .L10
 328 0030 FFF7FEFF 		bl	__aeabi_dmul
 329              	.LVL70:
 330 0034 D346     		mov	fp, r10
 331 0036 EBE80401 		strd	r0, [fp], #16
 332              	.LVL71:
 139:.\DSP\Source\TransformFunctions/arm_rfft_fast_f64.c ****    *pOut++ = 0.5 * ( xAR - xAI );
 333              		.loc 1 139 0
 334 003a DDE90001 		ldrd	r0, [sp]
 335 003e 2246     		mov	r2, r4
 336 0040 2B46     		mov	r3, r5
 337 0042 FFF7FEFF 		bl	__aeabi_dsub
 338              	.LVL72:
 339 0046 0022     		movs	r2, #0
 340 0048 474B     		ldr	r3, .L10
 341 004a FFF7FEFF 		bl	__aeabi_dmul
 342              	.LVL73:
 343 004e CAE90201 		strd	r0, [r10, #8]
 140:.\DSP\Source\TransformFunctions/arm_rfft_fast_f64.c **** 
 141:.\DSP\Source\TransformFunctions/arm_rfft_fast_f64.c ****    pB  =  p + 2*k ;
 344              		.loc 1 141 0
 345 0052 07EB0918 		add	r8, r7, r9, lsl #4
 346              	.LVL74:
 142:.\DSP\Source\TransformFunctions/arm_rfft_fast_f64.c ****    pA +=  2	   ;
 347              		.loc 1 142 0
 348 0056 07F11005 		add	r5, r7, #16
 349              	.LVL75:
 350 005a CDF818B0 		str	fp, [sp, #24]
 351 005e CDF80090 		str	r9, [sp]
 352              	.LVL76:
 353 0062 CDF81C80 		str	r8, [sp, #28]
 143:.\DSP\Source\TransformFunctions/arm_rfft_fast_f64.c **** 
 144:.\DSP\Source\TransformFunctions/arm_rfft_fast_f64.c ****    while (k > 0U)
 354              		.loc 1 144 0
 355 0066 79E0     		b	.L7
 356              	.LVL77:
 357              	.L8:
 145:.\DSP\Source\TransformFunctions/arm_rfft_fast_f64.c ****    {
 146:.\DSP\Source\TransformFunctions/arm_rfft_fast_f64.c ****       /* G is half of the frequency complex spectrum */
 147:.\DSP\Source\TransformFunctions/arm_rfft_fast_f64.c ****       //for k = 2:N
 148:.\DSP\Source\TransformFunctions/arm_rfft_fast_f64.c ****       //    Xk(k) = 1/2 * (G(k) + conj(G(N-k+2)) + Tw(k)*( G(k) - conj(G(N-k+2))));
 149:.\DSP\Source\TransformFunctions/arm_rfft_fast_f64.c ****       xBI =   pB[1]    ;
 358              		.loc 1 149 0
 359 0068 0799     		ldr	r1, [sp, #28]
 360 006a D1E90223 		ldrd	r2, [r1, #8]
 361 006e CDE90223 		strd	r2, [sp, #8]
 362              	.LVL78:
ARM GAS  C:\Users\IVYLIU~1\AppData\Local\Temp\ccnIldPv.s 			page 10


 150:.\DSP\Source\TransformFunctions/arm_rfft_fast_f64.c ****       xBR =   pB[0]    ;
 363              		.loc 1 150 0
 364 0072 0B46     		mov	r3, r1
 365              	.LVL79:
 366 0074 73E80401 		ldrd	r0, [r3], #-16
 367 0078 0793     		str	r3, [sp, #28]
 368              	.LVL80:
 369 007a 0246     		mov	r2, r0
 370              	.LVL81:
 371 007c 0B46     		mov	r3, r1
 372              	.LVL82:
 151:.\DSP\Source\TransformFunctions/arm_rfft_fast_f64.c ****       xAR =  pA[0];
 373              		.loc 1 151 0
 374 007e D5E90001 		ldrd	r0, [r5]
 375              	.LVL83:
 152:.\DSP\Source\TransformFunctions/arm_rfft_fast_f64.c ****       xAI =  pA[1];
 376              		.loc 1 152 0
 377 0082 D5E902AB 		ldrd	r10, [r5, #8]
 378              	.LVL84:
 153:.\DSP\Source\TransformFunctions/arm_rfft_fast_f64.c **** 
 154:.\DSP\Source\TransformFunctions/arm_rfft_fast_f64.c ****       twR = *pCoeff++;
 379              		.loc 1 154 0
 380 0086 3446     		mov	r4, r6
 381 0088 F4E80489 		ldrd	r8, [r4], #16
 382              	.LVL85:
 155:.\DSP\Source\TransformFunctions/arm_rfft_fast_f64.c ****       twI = *pCoeff++;
 383              		.loc 1 155 0
 384 008c 06F10807 		add	r7, r6, #8
 385 0090 D7E90067 		ldrd	r6, [r7]
 386              	.LVL86:
 156:.\DSP\Source\TransformFunctions/arm_rfft_fast_f64.c **** 
 157:.\DSP\Source\TransformFunctions/arm_rfft_fast_f64.c ****       t1a = xAR - xBR ;
 387              		.loc 1 157 0
 388 0094 CDE90A01 		strd	r0, [sp, #40]
 389 0098 CDE90823 		strd	r2, [sp, #32]
 390 009c FFF7FEFF 		bl	__aeabi_dsub
 391              	.LVL87:
 392 00a0 CDE90401 		strd	r0, [sp, #16]
 393              	.LVL88:
 158:.\DSP\Source\TransformFunctions/arm_rfft_fast_f64.c ****       t1b = xAI + xBI ;
 394              		.loc 1 158 0
 395 00a4 CDE90CAB 		strd	r10, [sp, #48]
 396 00a8 5046     		mov	r0, r10
 397              	.LVL89:
 398 00aa 5946     		mov	r1, fp
 399 00ac DDE90223 		ldrd	r2, [sp, #8]
 400 00b0 FFF7FEFF 		bl	__aeabi_dadd
 401              	.LVL90:
 402 00b4 8246     		mov	r10, r0
 403              	.LVL91:
 404 00b6 8B46     		mov	fp, r1
 405              	.LVL92:
 159:.\DSP\Source\TransformFunctions/arm_rfft_fast_f64.c **** 
 160:.\DSP\Source\TransformFunctions/arm_rfft_fast_f64.c ****       r = twR * t1a;
 406              		.loc 1 160 0
 407 00b8 4046     		mov	r0, r8
 408 00ba 4946     		mov	r1, r9
ARM GAS  C:\Users\IVYLIU~1\AppData\Local\Temp\ccnIldPv.s 			page 11


 409 00bc DDE90423 		ldrd	r2, [sp, #16]
 410 00c0 FFF7FEFF 		bl	__aeabi_dmul
 411              	.LVL93:
 412 00c4 CDE90E01 		strd	r0, [sp, #56]
 413              	.LVL94:
 161:.\DSP\Source\TransformFunctions/arm_rfft_fast_f64.c ****       s = twI * t1b;
 414              		.loc 1 161 0
 415 00c8 3046     		mov	r0, r6
 416              	.LVL95:
 417 00ca 3946     		mov	r1, r7
 418 00cc 5246     		mov	r2, r10
 419 00ce 5B46     		mov	r3, fp
 420 00d0 FFF7FEFF 		bl	__aeabi_dmul
 421              	.LVL96:
 422 00d4 CDE91001 		strd	r0, [sp, #64]
 423              	.LVL97:
 162:.\DSP\Source\TransformFunctions/arm_rfft_fast_f64.c ****       t = twI * t1a;
 424              		.loc 1 162 0
 425 00d8 3046     		mov	r0, r6
 426              	.LVL98:
 427 00da 3946     		mov	r1, r7
 428 00dc DDE90423 		ldrd	r2, [sp, #16]
 429 00e0 FFF7FEFF 		bl	__aeabi_dmul
 430              	.LVL99:
 431 00e4 CDE90401 		strd	r0, [sp, #16]
 432              	.LVL100:
 163:.\DSP\Source\TransformFunctions/arm_rfft_fast_f64.c ****       u = twR * t1b;
 433              		.loc 1 163 0
 434 00e8 4046     		mov	r0, r8
 435              	.LVL101:
 436 00ea 4946     		mov	r1, r9
 437 00ec 5246     		mov	r2, r10
 438 00ee 5B46     		mov	r3, fp
 439 00f0 FFF7FEFF 		bl	__aeabi_dmul
 440              	.LVL102:
 441 00f4 0646     		mov	r6, r0
 442              	.LVL103:
 443 00f6 0F46     		mov	r7, r1
 444              	.LVL104:
 164:.\DSP\Source\TransformFunctions/arm_rfft_fast_f64.c **** 
 165:.\DSP\Source\TransformFunctions/arm_rfft_fast_f64.c ****       // real(tw * (xA - xB)) = twR * (xAR - xBR) - twI * (xAI - xBI);
 166:.\DSP\Source\TransformFunctions/arm_rfft_fast_f64.c ****       // imag(tw * (xA - xB)) = twI * (xAR - xBR) + twR * (xAI - xBI);
 167:.\DSP\Source\TransformFunctions/arm_rfft_fast_f64.c ****       *pOut++ = 0.5 * (xAR + xBR - r - s ); //xAR
 445              		.loc 1 167 0
 446 00f8 DDE90A01 		ldrd	r0, [sp, #40]
 447 00fc DDE90823 		ldrd	r2, [sp, #32]
 448 0100 FFF7FEFF 		bl	__aeabi_dadd
 449              	.LVL105:
 450 0104 DDE90E23 		ldrd	r2, [sp, #56]
 451 0108 FFF7FEFF 		bl	__aeabi_dsub
 452              	.LVL106:
 453 010c DDE91023 		ldrd	r2, [sp, #64]
 454 0110 FFF7FEFF 		bl	__aeabi_dsub
 455              	.LVL107:
 456 0114 0022     		movs	r2, #0
 457 0116 144B     		ldr	r3, .L10
 458 0118 FFF7FEFF 		bl	__aeabi_dmul
ARM GAS  C:\Users\IVYLIU~1\AppData\Local\Temp\ccnIldPv.s 			page 12


 459              	.LVL108:
 460 011c DDF81880 		ldr	r8, [sp, #24]
 461              	.LVL109:
 462 0120 C246     		mov	r10, r8
 463              	.LVL110:
 464 0122 EAE80401 		strd	r0, [r10], #16
 465              	.LVL111:
 168:.\DSP\Source\TransformFunctions/arm_rfft_fast_f64.c ****       *pOut++ = 0.5 * (xAI - xBI + t - u ); //xAI
 466              		.loc 1 168 0
 467 0126 DDE90C01 		ldrd	r0, [sp, #48]
 468 012a DDE90223 		ldrd	r2, [sp, #8]
 469 012e FFF7FEFF 		bl	__aeabi_dsub
 470              	.LVL112:
 471 0132 DDE90423 		ldrd	r2, [sp, #16]
 472 0136 FFF7FEFF 		bl	__aeabi_dadd
 473              	.LVL113:
 474 013a 3246     		mov	r2, r6
 475 013c 3B46     		mov	r3, r7
 476 013e FFF7FEFF 		bl	__aeabi_dsub
 477              	.LVL114:
 478 0142 0022     		movs	r2, #0
 479 0144 084B     		ldr	r3, .L10
 480 0146 FFF7FEFF 		bl	__aeabi_dmul
 481              	.LVL115:
 482 014a C8E90201 		strd	r0, [r8, #8]
 169:.\DSP\Source\TransformFunctions/arm_rfft_fast_f64.c **** 
 170:.\DSP\Source\TransformFunctions/arm_rfft_fast_f64.c ****       pA += 2;
 483              		.loc 1 170 0
 484 014e 1035     		adds	r5, r5, #16
 485              	.LVL116:
 171:.\DSP\Source\TransformFunctions/arm_rfft_fast_f64.c ****       pB -= 2;
 172:.\DSP\Source\TransformFunctions/arm_rfft_fast_f64.c ****       k--;
 486              		.loc 1 172 0
 487 0150 009B     		ldr	r3, [sp]
 488 0152 013B     		subs	r3, r3, #1
 489 0154 0093     		str	r3, [sp]
 490              	.LVL117:
 155:.\DSP\Source\TransformFunctions/arm_rfft_fast_f64.c **** 
 491              		.loc 1 155 0
 492 0156 2646     		mov	r6, r4
 493              	.LVL118:
 168:.\DSP\Source\TransformFunctions/arm_rfft_fast_f64.c **** 
 494              		.loc 1 168 0
 495 0158 CDF818A0 		str	r10, [sp, #24]
 496              	.LVL119:
 497              	.L7:
 144:.\DSP\Source\TransformFunctions/arm_rfft_fast_f64.c ****    {
 498              		.loc 1 144 0
 499 015c 009B     		ldr	r3, [sp]
 500 015e 002B     		cmp	r3, #0
 501 0160 82D1     		bne	.L8
 173:.\DSP\Source\TransformFunctions/arm_rfft_fast_f64.c ****    }
 174:.\DSP\Source\TransformFunctions/arm_rfft_fast_f64.c **** 
 175:.\DSP\Source\TransformFunctions/arm_rfft_fast_f64.c **** }
 502              		.loc 1 175 0
 503 0162 13B0     		add	sp, sp, #76
 504              		.cfi_def_cfa_offset 36
ARM GAS  C:\Users\IVYLIU~1\AppData\Local\Temp\ccnIldPv.s 			page 13


 505              	.LVL120:
 506              		@ sp needed
 507 0164 BDE8F08F 		pop	{r4, r5, r6, r7, r8, r9, r10, fp, pc}
 508              	.LVL121:
 509              	.L11:
 510              		.align	2
 511              	.L10:
 512 0168 0000E03F 		.word	1071644672
 513              		.cfi_endproc
 514              	.LFE85:
 515              		.size	merge_rfft_f64, .-merge_rfft_f64
 516              		.section	.text.arm_rfft_fast_f64,"ax",%progbits
 517              		.align	2
 518              		.global	arm_rfft_fast_f64
 519              		.thumb
 520              		.thumb_func
 521              		.type	arm_rfft_fast_f64, %function
 522              	arm_rfft_fast_f64:
 523              	.LFB86:
 176:.\DSP\Source\TransformFunctions/arm_rfft_fast_f64.c **** 
 177:.\DSP\Source\TransformFunctions/arm_rfft_fast_f64.c **** /**
 178:.\DSP\Source\TransformFunctions/arm_rfft_fast_f64.c ****   @ingroup groupTransforms
 179:.\DSP\Source\TransformFunctions/arm_rfft_fast_f64.c **** */
 180:.\DSP\Source\TransformFunctions/arm_rfft_fast_f64.c **** 
 181:.\DSP\Source\TransformFunctions/arm_rfft_fast_f64.c **** 
 182:.\DSP\Source\TransformFunctions/arm_rfft_fast_f64.c **** /**
 183:.\DSP\Source\TransformFunctions/arm_rfft_fast_f64.c ****   @addtogroup RealFFT
 184:.\DSP\Source\TransformFunctions/arm_rfft_fast_f64.c ****   @{
 185:.\DSP\Source\TransformFunctions/arm_rfft_fast_f64.c **** */
 186:.\DSP\Source\TransformFunctions/arm_rfft_fast_f64.c **** 
 187:.\DSP\Source\TransformFunctions/arm_rfft_fast_f64.c **** /**
 188:.\DSP\Source\TransformFunctions/arm_rfft_fast_f64.c ****   @brief         Processing function for the Double Precision floating-point real FFT.
 189:.\DSP\Source\TransformFunctions/arm_rfft_fast_f64.c ****   @param[in]     S         points to an arm_rfft_fast_instance_f64 structure
 190:.\DSP\Source\TransformFunctions/arm_rfft_fast_f64.c ****   @param[in]     p         points to input buffer (Source buffer is modified by this function.)
 191:.\DSP\Source\TransformFunctions/arm_rfft_fast_f64.c ****   @param[in]     pOut      points to output buffer
 192:.\DSP\Source\TransformFunctions/arm_rfft_fast_f64.c ****   @param[in]     ifftFlag
 193:.\DSP\Source\TransformFunctions/arm_rfft_fast_f64.c ****                    - value = 0: RFFT
 194:.\DSP\Source\TransformFunctions/arm_rfft_fast_f64.c ****                    - value = 1: RIFFT
 195:.\DSP\Source\TransformFunctions/arm_rfft_fast_f64.c ****   @return        none
 196:.\DSP\Source\TransformFunctions/arm_rfft_fast_f64.c **** */
 197:.\DSP\Source\TransformFunctions/arm_rfft_fast_f64.c **** 
 198:.\DSP\Source\TransformFunctions/arm_rfft_fast_f64.c **** void arm_rfft_fast_f64(
 199:.\DSP\Source\TransformFunctions/arm_rfft_fast_f64.c ****   arm_rfft_fast_instance_f64 * S,
 200:.\DSP\Source\TransformFunctions/arm_rfft_fast_f64.c ****   float64_t * p,
 201:.\DSP\Source\TransformFunctions/arm_rfft_fast_f64.c ****   float64_t * pOut,
 202:.\DSP\Source\TransformFunctions/arm_rfft_fast_f64.c ****   uint8_t ifftFlag)
 203:.\DSP\Source\TransformFunctions/arm_rfft_fast_f64.c **** {
 524              		.loc 1 203 0
 525              		.cfi_startproc
 526              		@ args = 0, pretend = 0, frame = 0
 527              		@ frame_needed = 0, uses_anonymous_args = 0
 528              	.LVL122:
 529 0000 F8B5     		push	{r3, r4, r5, r6, r7, lr}
 530              		.cfi_def_cfa_offset 24
 531              		.cfi_offset 3, -24
 532              		.cfi_offset 4, -20
 533              		.cfi_offset 5, -16
ARM GAS  C:\Users\IVYLIU~1\AppData\Local\Temp\ccnIldPv.s 			page 14


 534              		.cfi_offset 6, -12
 535              		.cfi_offset 7, -8
 536              		.cfi_offset 14, -4
 537 0002 0446     		mov	r4, r0
 538 0004 0D46     		mov	r5, r1
 539 0006 1646     		mov	r6, r2
 540              	.LVL123:
 204:.\DSP\Source\TransformFunctions/arm_rfft_fast_f64.c ****    arm_cfft_instance_f64 * Sint = &(S->Sint);
 205:.\DSP\Source\TransformFunctions/arm_rfft_fast_f64.c ****    Sint->fftLen = S->fftLenRFFT / 2;
 541              		.loc 1 205 0
 542 0008 028A     		ldrh	r2, [r0, #16]
 543              	.LVL124:
 544 000a 5208     		lsrs	r2, r2, #1
 545 000c 0280     		strh	r2, [r0]	@ movhi
 206:.\DSP\Source\TransformFunctions/arm_rfft_fast_f64.c **** 
 207:.\DSP\Source\TransformFunctions/arm_rfft_fast_f64.c ****    /* Calculation of Real FFT */
 208:.\DSP\Source\TransformFunctions/arm_rfft_fast_f64.c ****    if (ifftFlag)
 546              		.loc 1 208 0
 547 000e 1F46     		mov	r7, r3
 548 0010 4BB1     		cbz	r3, .L13
 209:.\DSP\Source\TransformFunctions/arm_rfft_fast_f64.c ****    {
 210:.\DSP\Source\TransformFunctions/arm_rfft_fast_f64.c ****       /*  Real FFT compression */
 211:.\DSP\Source\TransformFunctions/arm_rfft_fast_f64.c ****       merge_rfft_f64(S, p, pOut);
 549              		.loc 1 211 0
 550 0012 3246     		mov	r2, r6
 551 0014 FFF7FEFF 		bl	merge_rfft_f64
 552              	.LVL125:
 212:.\DSP\Source\TransformFunctions/arm_rfft_fast_f64.c **** 
 213:.\DSP\Source\TransformFunctions/arm_rfft_fast_f64.c ****       /* Complex radix-4 IFFT process */
 214:.\DSP\Source\TransformFunctions/arm_rfft_fast_f64.c ****       arm_cfft_f64( Sint, pOut, ifftFlag, 1);
 553              		.loc 1 214 0
 554 0018 2046     		mov	r0, r4
 555 001a 3146     		mov	r1, r6
 556 001c 3A46     		mov	r2, r7
 557 001e 0123     		movs	r3, #1
 558 0020 FFF7FEFF 		bl	arm_cfft_f64
 559              	.LVL126:
 560 0024 F8BD     		pop	{r3, r4, r5, r6, r7, pc}
 561              	.LVL127:
 562              	.L13:
 215:.\DSP\Source\TransformFunctions/arm_rfft_fast_f64.c ****    }
 216:.\DSP\Source\TransformFunctions/arm_rfft_fast_f64.c ****    else
 217:.\DSP\Source\TransformFunctions/arm_rfft_fast_f64.c ****    {
 218:.\DSP\Source\TransformFunctions/arm_rfft_fast_f64.c ****       /* Calculation of RFFT of input */
 219:.\DSP\Source\TransformFunctions/arm_rfft_fast_f64.c ****       arm_cfft_f64( Sint, p, ifftFlag, 1);
 563              		.loc 1 219 0
 564 0026 1A46     		mov	r2, r3
 565 0028 0123     		movs	r3, #1
 566              	.LVL128:
 567 002a FFF7FEFF 		bl	arm_cfft_f64
 568              	.LVL129:
 220:.\DSP\Source\TransformFunctions/arm_rfft_fast_f64.c **** 
 221:.\DSP\Source\TransformFunctions/arm_rfft_fast_f64.c ****       /*  Real FFT extraction */
 222:.\DSP\Source\TransformFunctions/arm_rfft_fast_f64.c ****       stage_rfft_f64(S, p, pOut);
 569              		.loc 1 222 0
 570 002e 2046     		mov	r0, r4
 571 0030 2946     		mov	r1, r5
ARM GAS  C:\Users\IVYLIU~1\AppData\Local\Temp\ccnIldPv.s 			page 15


 572 0032 3246     		mov	r2, r6
 573 0034 FFF7FEFF 		bl	stage_rfft_f64
 574              	.LVL130:
 575 0038 F8BD     		pop	{r3, r4, r5, r6, r7, pc}
 576              		.cfi_endproc
 577              	.LFE86:
 578              		.size	arm_rfft_fast_f64, .-arm_rfft_fast_f64
 579 003a 00BF     		.text
 580              	.Letext0:
 581              		.file 2 "c:\\program files (x86)\\cypress\\psoc creator\\3.3\\psoc creator\\import\\gnu\\arm\\4.9.
 582              		.file 3 "c:\\program files (x86)\\cypress\\psoc creator\\3.3\\psoc creator\\import\\gnu\\arm\\4.9.
 583              		.file 4 ".\\DSP\\Include/arm_math_types.h"
 584              		.file 5 ".\\DSP\\Include/dsp/transform_functions.h"
 585              		.file 6 ".\\Core\\Include/cmsis_gcc.h"