ARM GAS  C:\Users\IVYLIU~1\AppData\Local\Temp\ccCkPSHu.s 			page 1


   1              		.syntax unified
   2              		.cpu cortex-m3
   3              		.fpu softvfp
   4              		.eabi_attribute 20, 1
   5              		.eabi_attribute 21, 1
   6              		.eabi_attribute 23, 3
   7              		.eabi_attribute 24, 1
   8              		.eabi_attribute 25, 1
   9              		.eabi_attribute 26, 1
  10              		.eabi_attribute 30, 1
  11              		.eabi_attribute 34, 1
  12              		.eabi_attribute 18, 4
  13              		.thumb
  14              		.file	"arm_rfft_fast_f32.c"
  15              		.text
  16              	.Ltext0:
  17              		.cfi_sections	.debug_frame
  18              		.global	__aeabi_fadd
  19              		.global	__aeabi_fmul
  20              		.global	__aeabi_fsub
  21              		.section	.text.stage_rfft_f32,"ax",%progbits
  22              		.align	2
  23              		.global	stage_rfft_f32
  24              		.thumb
  25              		.thumb_func
  26              		.type	stage_rfft_f32, %function
  27              	stage_rfft_f32:
  28              	.LFB84:
  29              		.file 1 ".\\DSP\\Source\\TransformFunctions\\arm_rfft_fast_f32.c"
   1:.\DSP\Source\TransformFunctions/arm_rfft_fast_f32.c **** /* ----------------------------------------------------------------------
   2:.\DSP\Source\TransformFunctions/arm_rfft_fast_f32.c ****  * Project:      CMSIS DSP Library
   3:.\DSP\Source\TransformFunctions/arm_rfft_fast_f32.c ****  * Title:        arm_rfft_fast_f32.c
   4:.\DSP\Source\TransformFunctions/arm_rfft_fast_f32.c ****  * Description:  RFFT & RIFFT Floating point process function
   5:.\DSP\Source\TransformFunctions/arm_rfft_fast_f32.c ****  *
   6:.\DSP\Source\TransformFunctions/arm_rfft_fast_f32.c ****  * $Date:        23 April 2021
   7:.\DSP\Source\TransformFunctions/arm_rfft_fast_f32.c ****  * $Revision:    V1.9.0
   8:.\DSP\Source\TransformFunctions/arm_rfft_fast_f32.c ****  *
   9:.\DSP\Source\TransformFunctions/arm_rfft_fast_f32.c ****  * Target Processor: Cortex-M and Cortex-A cores
  10:.\DSP\Source\TransformFunctions/arm_rfft_fast_f32.c ****  * -------------------------------------------------------------------- */
  11:.\DSP\Source\TransformFunctions/arm_rfft_fast_f32.c **** /*
  12:.\DSP\Source\TransformFunctions/arm_rfft_fast_f32.c ****  * Copyright (C) 2010-2021 ARM Limited or its affiliates. All rights reserved.
  13:.\DSP\Source\TransformFunctions/arm_rfft_fast_f32.c ****  *
  14:.\DSP\Source\TransformFunctions/arm_rfft_fast_f32.c ****  * SPDX-License-Identifier: Apache-2.0
  15:.\DSP\Source\TransformFunctions/arm_rfft_fast_f32.c ****  *
  16:.\DSP\Source\TransformFunctions/arm_rfft_fast_f32.c ****  * Licensed under the Apache License, Version 2.0 (the License); you may
  17:.\DSP\Source\TransformFunctions/arm_rfft_fast_f32.c ****  * not use this file except in compliance with the License.
  18:.\DSP\Source\TransformFunctions/arm_rfft_fast_f32.c ****  * You may obtain a copy of the License at
  19:.\DSP\Source\TransformFunctions/arm_rfft_fast_f32.c ****  *
  20:.\DSP\Source\TransformFunctions/arm_rfft_fast_f32.c ****  * www.apache.org/licenses/LICENSE-2.0
  21:.\DSP\Source\TransformFunctions/arm_rfft_fast_f32.c ****  *
  22:.\DSP\Source\TransformFunctions/arm_rfft_fast_f32.c ****  * Unless required by applicable law or agreed to in writing, software
  23:.\DSP\Source\TransformFunctions/arm_rfft_fast_f32.c ****  * distributed under the License is distributed on an AS IS BASIS, WITHOUT
  24:.\DSP\Source\TransformFunctions/arm_rfft_fast_f32.c ****  * WARRANTIES OR CONDITIONS OF ANY KIND, either express or implied.
  25:.\DSP\Source\TransformFunctions/arm_rfft_fast_f32.c ****  * See the License for the specific language governing permissions and
  26:.\DSP\Source\TransformFunctions/arm_rfft_fast_f32.c ****  * limitations under the License.
  27:.\DSP\Source\TransformFunctions/arm_rfft_fast_f32.c ****  */
  28:.\DSP\Source\TransformFunctions/arm_rfft_fast_f32.c **** 
ARM GAS  C:\Users\IVYLIU~1\AppData\Local\Temp\ccCkPSHu.s 			page 2


  29:.\DSP\Source\TransformFunctions/arm_rfft_fast_f32.c **** #include "dsp/transform_functions.h"
  30:.\DSP\Source\TransformFunctions/arm_rfft_fast_f32.c **** 
  31:.\DSP\Source\TransformFunctions/arm_rfft_fast_f32.c **** #if defined(ARM_MATH_MVEF) && !defined(ARM_MATH_AUTOVECTORIZE)
  32:.\DSP\Source\TransformFunctions/arm_rfft_fast_f32.c **** void stage_rfft_f32(
  33:.\DSP\Source\TransformFunctions/arm_rfft_fast_f32.c ****   const arm_rfft_fast_instance_f32 * S,
  34:.\DSP\Source\TransformFunctions/arm_rfft_fast_f32.c ****         float32_t * p,
  35:.\DSP\Source\TransformFunctions/arm_rfft_fast_f32.c ****         float32_t * pOut)
  36:.\DSP\Source\TransformFunctions/arm_rfft_fast_f32.c **** {
  37:.\DSP\Source\TransformFunctions/arm_rfft_fast_f32.c ****         int32_t  k;                                /* Loop Counter */
  38:.\DSP\Source\TransformFunctions/arm_rfft_fast_f32.c ****         float32_t twR, twI;                         /* RFFT Twiddle coefficients */
  39:.\DSP\Source\TransformFunctions/arm_rfft_fast_f32.c ****   const float32_t * pCoeff = S->pTwiddleRFFT;       /* Points to RFFT Twiddle factors */
  40:.\DSP\Source\TransformFunctions/arm_rfft_fast_f32.c ****         float32_t *pA = p;                          /* increasing pointer */
  41:.\DSP\Source\TransformFunctions/arm_rfft_fast_f32.c ****         float32_t *pB = p;                          /* decreasing pointer */
  42:.\DSP\Source\TransformFunctions/arm_rfft_fast_f32.c ****         float32_t xAR, xAI, xBR, xBI;               /* temporary variables */
  43:.\DSP\Source\TransformFunctions/arm_rfft_fast_f32.c ****         float32_t t1a, t1b;                         /* temporary variables */
  44:.\DSP\Source\TransformFunctions/arm_rfft_fast_f32.c ****         float32_t p0, p1, p2, p3;                   /* temporary variables */
  45:.\DSP\Source\TransformFunctions/arm_rfft_fast_f32.c **** 
  46:.\DSP\Source\TransformFunctions/arm_rfft_fast_f32.c ****         float32x4x2_t tw,xA,xB;
  47:.\DSP\Source\TransformFunctions/arm_rfft_fast_f32.c ****         float32x4x2_t tmp1, tmp2, res;
  48:.\DSP\Source\TransformFunctions/arm_rfft_fast_f32.c **** 
  49:.\DSP\Source\TransformFunctions/arm_rfft_fast_f32.c ****         uint32x4_t     vecStridesFwd, vecStridesBkwd;
  50:.\DSP\Source\TransformFunctions/arm_rfft_fast_f32.c **** 
  51:.\DSP\Source\TransformFunctions/arm_rfft_fast_f32.c ****         vecStridesFwd = vidupq_u32((uint32_t)0, 2);
  52:.\DSP\Source\TransformFunctions/arm_rfft_fast_f32.c ****         vecStridesBkwd = -vecStridesFwd;
  53:.\DSP\Source\TransformFunctions/arm_rfft_fast_f32.c **** 
  54:.\DSP\Source\TransformFunctions/arm_rfft_fast_f32.c ****         int blockCnt;
  55:.\DSP\Source\TransformFunctions/arm_rfft_fast_f32.c **** 
  56:.\DSP\Source\TransformFunctions/arm_rfft_fast_f32.c **** 
  57:.\DSP\Source\TransformFunctions/arm_rfft_fast_f32.c ****    k = (S->Sint).fftLen - 1;
  58:.\DSP\Source\TransformFunctions/arm_rfft_fast_f32.c **** 
  59:.\DSP\Source\TransformFunctions/arm_rfft_fast_f32.c ****    /* Pack first and last sample of the frequency domain together */
  60:.\DSP\Source\TransformFunctions/arm_rfft_fast_f32.c **** 
  61:.\DSP\Source\TransformFunctions/arm_rfft_fast_f32.c ****    xBR = pB[0];
  62:.\DSP\Source\TransformFunctions/arm_rfft_fast_f32.c ****    xBI = pB[1];
  63:.\DSP\Source\TransformFunctions/arm_rfft_fast_f32.c ****    xAR = pA[0];
  64:.\DSP\Source\TransformFunctions/arm_rfft_fast_f32.c ****    xAI = pA[1];
  65:.\DSP\Source\TransformFunctions/arm_rfft_fast_f32.c **** 
  66:.\DSP\Source\TransformFunctions/arm_rfft_fast_f32.c ****    twR = *pCoeff++ ;
  67:.\DSP\Source\TransformFunctions/arm_rfft_fast_f32.c ****    twI = *pCoeff++ ;
  68:.\DSP\Source\TransformFunctions/arm_rfft_fast_f32.c **** 
  69:.\DSP\Source\TransformFunctions/arm_rfft_fast_f32.c ****    // U1 = XA(1) + XB(1); % It is real
  70:.\DSP\Source\TransformFunctions/arm_rfft_fast_f32.c ****    t1a = xBR + xAR  ;
  71:.\DSP\Source\TransformFunctions/arm_rfft_fast_f32.c **** 
  72:.\DSP\Source\TransformFunctions/arm_rfft_fast_f32.c ****    // U2 = XB(1) - XA(1); % It is imaginary
  73:.\DSP\Source\TransformFunctions/arm_rfft_fast_f32.c ****    t1b = xBI + xAI  ;
  74:.\DSP\Source\TransformFunctions/arm_rfft_fast_f32.c **** 
  75:.\DSP\Source\TransformFunctions/arm_rfft_fast_f32.c ****    // real(tw * (xB - xA)) = twR * (xBR - xAR) - twI * (xBI - xAI);
  76:.\DSP\Source\TransformFunctions/arm_rfft_fast_f32.c ****    // imag(tw * (xB - xA)) = twI * (xBR - xAR) + twR * (xBI - xAI);
  77:.\DSP\Source\TransformFunctions/arm_rfft_fast_f32.c ****    *pOut++ = 0.5f * ( t1a + t1b );
  78:.\DSP\Source\TransformFunctions/arm_rfft_fast_f32.c ****    *pOut++ = 0.5f * ( t1a - t1b );
  79:.\DSP\Source\TransformFunctions/arm_rfft_fast_f32.c **** 
  80:.\DSP\Source\TransformFunctions/arm_rfft_fast_f32.c ****    // XA(1) = 1/2*( U1 - imag(U2) +  i*( U1 +imag(U2) ));
  81:.\DSP\Source\TransformFunctions/arm_rfft_fast_f32.c ****    pB  = p + 2*k;
  82:.\DSP\Source\TransformFunctions/arm_rfft_fast_f32.c ****    pA += 2;
  83:.\DSP\Source\TransformFunctions/arm_rfft_fast_f32.c **** 
  84:.\DSP\Source\TransformFunctions/arm_rfft_fast_f32.c ****    blockCnt = k >> 2;
  85:.\DSP\Source\TransformFunctions/arm_rfft_fast_f32.c ****    while (blockCnt > 0)
ARM GAS  C:\Users\IVYLIU~1\AppData\Local\Temp\ccCkPSHu.s 			page 3


  86:.\DSP\Source\TransformFunctions/arm_rfft_fast_f32.c ****    {
  87:.\DSP\Source\TransformFunctions/arm_rfft_fast_f32.c ****       /*
  88:.\DSP\Source\TransformFunctions/arm_rfft_fast_f32.c ****          function X = my_split_rfft(X, ifftFlag)
  89:.\DSP\Source\TransformFunctions/arm_rfft_fast_f32.c ****          % X is a series of real numbers
  90:.\DSP\Source\TransformFunctions/arm_rfft_fast_f32.c ****          L  = length(X);
  91:.\DSP\Source\TransformFunctions/arm_rfft_fast_f32.c ****          XC = X(1:2:end) +i*X(2:2:end);
  92:.\DSP\Source\TransformFunctions/arm_rfft_fast_f32.c ****          XA = fft(XC);
  93:.\DSP\Source\TransformFunctions/arm_rfft_fast_f32.c ****          XB = conj(XA([1 end:-1:2]));
  94:.\DSP\Source\TransformFunctions/arm_rfft_fast_f32.c ****          TW = i*exp(-2*pi*i*[0:L/2-1]/L).';
  95:.\DSP\Source\TransformFunctions/arm_rfft_fast_f32.c ****          for l = 2:L/2
  96:.\DSP\Source\TransformFunctions/arm_rfft_fast_f32.c ****             XA(l) = 1/2 * (XA(l) + XB(l) + TW(l) * (XB(l) - XA(l)));
  97:.\DSP\Source\TransformFunctions/arm_rfft_fast_f32.c ****          end
  98:.\DSP\Source\TransformFunctions/arm_rfft_fast_f32.c ****          XA(1) = 1/2* (XA(1) + XB(1) + TW(1) * (XB(1) - XA(1))) + i*( 1/2*( XA(1) + XB(1) + i*( XA(
  99:.\DSP\Source\TransformFunctions/arm_rfft_fast_f32.c ****          X = XA;
 100:.\DSP\Source\TransformFunctions/arm_rfft_fast_f32.c ****       */
 101:.\DSP\Source\TransformFunctions/arm_rfft_fast_f32.c **** 
 102:.\DSP\Source\TransformFunctions/arm_rfft_fast_f32.c **** 
 103:.\DSP\Source\TransformFunctions/arm_rfft_fast_f32.c ****       xA = vld2q_f32(pA);
 104:.\DSP\Source\TransformFunctions/arm_rfft_fast_f32.c ****       pA += 8;
 105:.\DSP\Source\TransformFunctions/arm_rfft_fast_f32.c **** 
 106:.\DSP\Source\TransformFunctions/arm_rfft_fast_f32.c ****       xB = vld2q_f32(pB);
 107:.\DSP\Source\TransformFunctions/arm_rfft_fast_f32.c **** 
 108:.\DSP\Source\TransformFunctions/arm_rfft_fast_f32.c ****       xB.val[0] = vldrwq_gather_shifted_offset_f32(pB, vecStridesBkwd);
 109:.\DSP\Source\TransformFunctions/arm_rfft_fast_f32.c ****       xB.val[1] = vldrwq_gather_shifted_offset_f32(&pB[1], vecStridesBkwd);
 110:.\DSP\Source\TransformFunctions/arm_rfft_fast_f32.c **** 
 111:.\DSP\Source\TransformFunctions/arm_rfft_fast_f32.c ****       xB.val[1] = vnegq_f32(xB.val[1]);
 112:.\DSP\Source\TransformFunctions/arm_rfft_fast_f32.c ****       pB -= 8;
 113:.\DSP\Source\TransformFunctions/arm_rfft_fast_f32.c **** 
 114:.\DSP\Source\TransformFunctions/arm_rfft_fast_f32.c **** 
 115:.\DSP\Source\TransformFunctions/arm_rfft_fast_f32.c ****       tw = vld2q_f32(pCoeff);
 116:.\DSP\Source\TransformFunctions/arm_rfft_fast_f32.c ****       pCoeff += 8;
 117:.\DSP\Source\TransformFunctions/arm_rfft_fast_f32.c **** 
 118:.\DSP\Source\TransformFunctions/arm_rfft_fast_f32.c **** 
 119:.\DSP\Source\TransformFunctions/arm_rfft_fast_f32.c ****       tmp1.val[0] = vaddq_f32(xA.val[0],xB.val[0]);
 120:.\DSP\Source\TransformFunctions/arm_rfft_fast_f32.c ****       tmp1.val[1] = vaddq_f32(xA.val[1],xB.val[1]);
 121:.\DSP\Source\TransformFunctions/arm_rfft_fast_f32.c **** 
 122:.\DSP\Source\TransformFunctions/arm_rfft_fast_f32.c ****       tmp2.val[0] = vsubq_f32(xB.val[0],xA.val[0]);
 123:.\DSP\Source\TransformFunctions/arm_rfft_fast_f32.c ****       tmp2.val[1] = vsubq_f32(xB.val[1],xA.val[1]);
 124:.\DSP\Source\TransformFunctions/arm_rfft_fast_f32.c **** 
 125:.\DSP\Source\TransformFunctions/arm_rfft_fast_f32.c ****       res.val[0] = vmulq(tw.val[0], tmp2.val[0]);
 126:.\DSP\Source\TransformFunctions/arm_rfft_fast_f32.c ****       res.val[0] = vfmsq(res.val[0],tw.val[1], tmp2.val[1]);
 127:.\DSP\Source\TransformFunctions/arm_rfft_fast_f32.c **** 
 128:.\DSP\Source\TransformFunctions/arm_rfft_fast_f32.c ****       res.val[1] = vmulq(tw.val[0], tmp2.val[1]);
 129:.\DSP\Source\TransformFunctions/arm_rfft_fast_f32.c ****       res.val[1] = vfmaq(res.val[1], tw.val[1], tmp2.val[0]);
 130:.\DSP\Source\TransformFunctions/arm_rfft_fast_f32.c **** 
 131:.\DSP\Source\TransformFunctions/arm_rfft_fast_f32.c ****       res.val[0] = vaddq_f32(res.val[0],tmp1.val[0] );
 132:.\DSP\Source\TransformFunctions/arm_rfft_fast_f32.c ****       res.val[1] = vaddq_f32(res.val[1],tmp1.val[1] );
 133:.\DSP\Source\TransformFunctions/arm_rfft_fast_f32.c **** 
 134:.\DSP\Source\TransformFunctions/arm_rfft_fast_f32.c ****       res.val[0] = vmulq_n_f32(res.val[0], 0.5f);
 135:.\DSP\Source\TransformFunctions/arm_rfft_fast_f32.c ****       res.val[1] = vmulq_n_f32(res.val[1], 0.5f);
 136:.\DSP\Source\TransformFunctions/arm_rfft_fast_f32.c **** 
 137:.\DSP\Source\TransformFunctions/arm_rfft_fast_f32.c **** 
 138:.\DSP\Source\TransformFunctions/arm_rfft_fast_f32.c ****       vst2q_f32(pOut, res);
 139:.\DSP\Source\TransformFunctions/arm_rfft_fast_f32.c ****       pOut += 8;
 140:.\DSP\Source\TransformFunctions/arm_rfft_fast_f32.c **** 
 141:.\DSP\Source\TransformFunctions/arm_rfft_fast_f32.c ****     
 142:.\DSP\Source\TransformFunctions/arm_rfft_fast_f32.c ****       blockCnt--;
ARM GAS  C:\Users\IVYLIU~1\AppData\Local\Temp\ccCkPSHu.s 			page 4


 143:.\DSP\Source\TransformFunctions/arm_rfft_fast_f32.c ****    } 
 144:.\DSP\Source\TransformFunctions/arm_rfft_fast_f32.c **** 
 145:.\DSP\Source\TransformFunctions/arm_rfft_fast_f32.c ****    blockCnt = k & 3;
 146:.\DSP\Source\TransformFunctions/arm_rfft_fast_f32.c ****    while (blockCnt > 0)
 147:.\DSP\Source\TransformFunctions/arm_rfft_fast_f32.c ****    {
 148:.\DSP\Source\TransformFunctions/arm_rfft_fast_f32.c ****       /*
 149:.\DSP\Source\TransformFunctions/arm_rfft_fast_f32.c ****          function X = my_split_rfft(X, ifftFlag)
 150:.\DSP\Source\TransformFunctions/arm_rfft_fast_f32.c ****          % X is a series of real numbers
 151:.\DSP\Source\TransformFunctions/arm_rfft_fast_f32.c ****          L  = length(X);
 152:.\DSP\Source\TransformFunctions/arm_rfft_fast_f32.c ****          XC = X(1:2:end) +i*X(2:2:end);
 153:.\DSP\Source\TransformFunctions/arm_rfft_fast_f32.c ****          XA = fft(XC);
 154:.\DSP\Source\TransformFunctions/arm_rfft_fast_f32.c ****          XB = conj(XA([1 end:-1:2]));
 155:.\DSP\Source\TransformFunctions/arm_rfft_fast_f32.c ****          TW = i*exp(-2*pi*i*[0:L/2-1]/L).';
 156:.\DSP\Source\TransformFunctions/arm_rfft_fast_f32.c ****          for l = 2:L/2
 157:.\DSP\Source\TransformFunctions/arm_rfft_fast_f32.c ****             XA(l) = 1/2 * (XA(l) + XB(l) + TW(l) * (XB(l) - XA(l)));
 158:.\DSP\Source\TransformFunctions/arm_rfft_fast_f32.c ****          end
 159:.\DSP\Source\TransformFunctions/arm_rfft_fast_f32.c ****          XA(1) = 1/2* (XA(1) + XB(1) + TW(1) * (XB(1) - XA(1))) + i*( 1/2*( XA(1) + XB(1) + i*( XA(
 160:.\DSP\Source\TransformFunctions/arm_rfft_fast_f32.c ****          X = XA;
 161:.\DSP\Source\TransformFunctions/arm_rfft_fast_f32.c ****       */
 162:.\DSP\Source\TransformFunctions/arm_rfft_fast_f32.c **** 
 163:.\DSP\Source\TransformFunctions/arm_rfft_fast_f32.c ****       xBI = pB[1];
 164:.\DSP\Source\TransformFunctions/arm_rfft_fast_f32.c ****       xBR = pB[0];
 165:.\DSP\Source\TransformFunctions/arm_rfft_fast_f32.c ****       xAR = pA[0];
 166:.\DSP\Source\TransformFunctions/arm_rfft_fast_f32.c ****       xAI = pA[1];
 167:.\DSP\Source\TransformFunctions/arm_rfft_fast_f32.c **** 
 168:.\DSP\Source\TransformFunctions/arm_rfft_fast_f32.c ****       twR = *pCoeff++;
 169:.\DSP\Source\TransformFunctions/arm_rfft_fast_f32.c ****       twI = *pCoeff++;
 170:.\DSP\Source\TransformFunctions/arm_rfft_fast_f32.c **** 
 171:.\DSP\Source\TransformFunctions/arm_rfft_fast_f32.c ****       t1a = xBR - xAR ;
 172:.\DSP\Source\TransformFunctions/arm_rfft_fast_f32.c ****       t1b = xBI + xAI ;
 173:.\DSP\Source\TransformFunctions/arm_rfft_fast_f32.c **** 
 174:.\DSP\Source\TransformFunctions/arm_rfft_fast_f32.c ****       // real(tw * (xB - xA)) = twR * (xBR - xAR) - twI * (xBI - xAI);
 175:.\DSP\Source\TransformFunctions/arm_rfft_fast_f32.c ****       // imag(tw * (xB - xA)) = twI * (xBR - xAR) + twR * (xBI - xAI);
 176:.\DSP\Source\TransformFunctions/arm_rfft_fast_f32.c ****       p0 = twR * t1a;
 177:.\DSP\Source\TransformFunctions/arm_rfft_fast_f32.c ****       p1 = twI * t1a;
 178:.\DSP\Source\TransformFunctions/arm_rfft_fast_f32.c ****       p2 = twR * t1b;
 179:.\DSP\Source\TransformFunctions/arm_rfft_fast_f32.c ****       p3 = twI * t1b;
 180:.\DSP\Source\TransformFunctions/arm_rfft_fast_f32.c **** 
 181:.\DSP\Source\TransformFunctions/arm_rfft_fast_f32.c ****       *pOut++ = 0.5f * (xAR + xBR + p0 + p3 ); //xAR
 182:.\DSP\Source\TransformFunctions/arm_rfft_fast_f32.c ****       *pOut++ = 0.5f * (xAI - xBI + p1 - p2 ); //xAI
 183:.\DSP\Source\TransformFunctions/arm_rfft_fast_f32.c **** 
 184:.\DSP\Source\TransformFunctions/arm_rfft_fast_f32.c ****       pA += 2;
 185:.\DSP\Source\TransformFunctions/arm_rfft_fast_f32.c ****       pB -= 2;
 186:.\DSP\Source\TransformFunctions/arm_rfft_fast_f32.c ****       blockCnt--;
 187:.\DSP\Source\TransformFunctions/arm_rfft_fast_f32.c ****    }
 188:.\DSP\Source\TransformFunctions/arm_rfft_fast_f32.c **** }
 189:.\DSP\Source\TransformFunctions/arm_rfft_fast_f32.c **** 
 190:.\DSP\Source\TransformFunctions/arm_rfft_fast_f32.c **** /* Prepares data for inverse cfft */
 191:.\DSP\Source\TransformFunctions/arm_rfft_fast_f32.c **** void merge_rfft_f32(
 192:.\DSP\Source\TransformFunctions/arm_rfft_fast_f32.c ****   const arm_rfft_fast_instance_f32 * S,
 193:.\DSP\Source\TransformFunctions/arm_rfft_fast_f32.c ****         float32_t * p,
 194:.\DSP\Source\TransformFunctions/arm_rfft_fast_f32.c ****         float32_t * pOut)
 195:.\DSP\Source\TransformFunctions/arm_rfft_fast_f32.c **** {
 196:.\DSP\Source\TransformFunctions/arm_rfft_fast_f32.c ****         int32_t  k;                                /* Loop Counter */
 197:.\DSP\Source\TransformFunctions/arm_rfft_fast_f32.c ****         float32_t twR, twI;                         /* RFFT Twiddle coefficients */
 198:.\DSP\Source\TransformFunctions/arm_rfft_fast_f32.c ****   const float32_t *pCoeff = S->pTwiddleRFFT;        /* Points to RFFT Twiddle factors */
 199:.\DSP\Source\TransformFunctions/arm_rfft_fast_f32.c ****         float32_t *pA = p;                          /* increasing pointer */
ARM GAS  C:\Users\IVYLIU~1\AppData\Local\Temp\ccCkPSHu.s 			page 5


 200:.\DSP\Source\TransformFunctions/arm_rfft_fast_f32.c ****         float32_t *pB = p;                          /* decreasing pointer */
 201:.\DSP\Source\TransformFunctions/arm_rfft_fast_f32.c ****         float32_t xAR, xAI, xBR, xBI;               /* temporary variables */
 202:.\DSP\Source\TransformFunctions/arm_rfft_fast_f32.c ****         float32_t t1a, t1b, r, s, t, u;             /* temporary variables */
 203:.\DSP\Source\TransformFunctions/arm_rfft_fast_f32.c **** 
 204:.\DSP\Source\TransformFunctions/arm_rfft_fast_f32.c ****         float32x4x2_t tw,xA,xB;
 205:.\DSP\Source\TransformFunctions/arm_rfft_fast_f32.c ****         float32x4x2_t tmp1, tmp2, res;
 206:.\DSP\Source\TransformFunctions/arm_rfft_fast_f32.c ****         uint32x4_t     vecStridesFwd, vecStridesBkwd;
 207:.\DSP\Source\TransformFunctions/arm_rfft_fast_f32.c **** 
 208:.\DSP\Source\TransformFunctions/arm_rfft_fast_f32.c ****         vecStridesFwd = vidupq_u32((uint32_t)0, 2);
 209:.\DSP\Source\TransformFunctions/arm_rfft_fast_f32.c ****         vecStridesBkwd = -vecStridesFwd;
 210:.\DSP\Source\TransformFunctions/arm_rfft_fast_f32.c **** 
 211:.\DSP\Source\TransformFunctions/arm_rfft_fast_f32.c ****         int blockCnt;
 212:.\DSP\Source\TransformFunctions/arm_rfft_fast_f32.c ****         
 213:.\DSP\Source\TransformFunctions/arm_rfft_fast_f32.c **** 
 214:.\DSP\Source\TransformFunctions/arm_rfft_fast_f32.c ****    k = (S->Sint).fftLen - 1;
 215:.\DSP\Source\TransformFunctions/arm_rfft_fast_f32.c **** 
 216:.\DSP\Source\TransformFunctions/arm_rfft_fast_f32.c ****    xAR = pA[0];
 217:.\DSP\Source\TransformFunctions/arm_rfft_fast_f32.c ****    xAI = pA[1];
 218:.\DSP\Source\TransformFunctions/arm_rfft_fast_f32.c **** 
 219:.\DSP\Source\TransformFunctions/arm_rfft_fast_f32.c ****    pCoeff += 2 ;
 220:.\DSP\Source\TransformFunctions/arm_rfft_fast_f32.c **** 
 221:.\DSP\Source\TransformFunctions/arm_rfft_fast_f32.c ****    *pOut++ = 0.5f * ( xAR + xAI );
 222:.\DSP\Source\TransformFunctions/arm_rfft_fast_f32.c ****    *pOut++ = 0.5f * ( xAR - xAI );
 223:.\DSP\Source\TransformFunctions/arm_rfft_fast_f32.c **** 
 224:.\DSP\Source\TransformFunctions/arm_rfft_fast_f32.c ****    pB  =  p + 2*k ;
 225:.\DSP\Source\TransformFunctions/arm_rfft_fast_f32.c ****    pA +=  2    ;
 226:.\DSP\Source\TransformFunctions/arm_rfft_fast_f32.c **** 
 227:.\DSP\Source\TransformFunctions/arm_rfft_fast_f32.c ****    blockCnt = k >> 2;
 228:.\DSP\Source\TransformFunctions/arm_rfft_fast_f32.c ****    while (blockCnt > 0)
 229:.\DSP\Source\TransformFunctions/arm_rfft_fast_f32.c ****    {
 230:.\DSP\Source\TransformFunctions/arm_rfft_fast_f32.c ****       /* G is half of the frequency complex spectrum */
 231:.\DSP\Source\TransformFunctions/arm_rfft_fast_f32.c ****       //for k = 2:N
 232:.\DSP\Source\TransformFunctions/arm_rfft_fast_f32.c ****       //    Xk(k) = 1/2 * (G(k) + conj(G(N-k+2)) + Tw(k)*( G(k) - conj(G(N-k+2))));
 233:.\DSP\Source\TransformFunctions/arm_rfft_fast_f32.c ****       xA = vld2q_f32(pA);
 234:.\DSP\Source\TransformFunctions/arm_rfft_fast_f32.c ****       pA += 8;
 235:.\DSP\Source\TransformFunctions/arm_rfft_fast_f32.c **** 
 236:.\DSP\Source\TransformFunctions/arm_rfft_fast_f32.c ****       xB = vld2q_f32(pB);
 237:.\DSP\Source\TransformFunctions/arm_rfft_fast_f32.c **** 
 238:.\DSP\Source\TransformFunctions/arm_rfft_fast_f32.c ****       xB.val[0] = vldrwq_gather_shifted_offset_f32(pB, vecStridesBkwd);
 239:.\DSP\Source\TransformFunctions/arm_rfft_fast_f32.c ****       xB.val[1] = vldrwq_gather_shifted_offset_f32(&pB[1], vecStridesBkwd);
 240:.\DSP\Source\TransformFunctions/arm_rfft_fast_f32.c **** 
 241:.\DSP\Source\TransformFunctions/arm_rfft_fast_f32.c ****       xB.val[1] = vnegq_f32(xB.val[1]);
 242:.\DSP\Source\TransformFunctions/arm_rfft_fast_f32.c ****       pB -= 8;
 243:.\DSP\Source\TransformFunctions/arm_rfft_fast_f32.c **** 
 244:.\DSP\Source\TransformFunctions/arm_rfft_fast_f32.c **** 
 245:.\DSP\Source\TransformFunctions/arm_rfft_fast_f32.c ****       tw = vld2q_f32(pCoeff);
 246:.\DSP\Source\TransformFunctions/arm_rfft_fast_f32.c ****       tw.val[1] = vnegq_f32(tw.val[1]);
 247:.\DSP\Source\TransformFunctions/arm_rfft_fast_f32.c ****       pCoeff += 8;
 248:.\DSP\Source\TransformFunctions/arm_rfft_fast_f32.c **** 
 249:.\DSP\Source\TransformFunctions/arm_rfft_fast_f32.c **** 
 250:.\DSP\Source\TransformFunctions/arm_rfft_fast_f32.c ****       tmp1.val[0] = vaddq_f32(xA.val[0],xB.val[0]);
 251:.\DSP\Source\TransformFunctions/arm_rfft_fast_f32.c ****       tmp1.val[1] = vaddq_f32(xA.val[1],xB.val[1]);
 252:.\DSP\Source\TransformFunctions/arm_rfft_fast_f32.c **** 
 253:.\DSP\Source\TransformFunctions/arm_rfft_fast_f32.c ****       tmp2.val[0] = vsubq_f32(xB.val[0],xA.val[0]);
 254:.\DSP\Source\TransformFunctions/arm_rfft_fast_f32.c ****       tmp2.val[1] = vsubq_f32(xB.val[1],xA.val[1]);
 255:.\DSP\Source\TransformFunctions/arm_rfft_fast_f32.c **** 
 256:.\DSP\Source\TransformFunctions/arm_rfft_fast_f32.c ****       res.val[0] = vmulq(tw.val[0], tmp2.val[0]);
ARM GAS  C:\Users\IVYLIU~1\AppData\Local\Temp\ccCkPSHu.s 			page 6


 257:.\DSP\Source\TransformFunctions/arm_rfft_fast_f32.c ****       res.val[0] = vfmsq(res.val[0],tw.val[1], tmp2.val[1]);
 258:.\DSP\Source\TransformFunctions/arm_rfft_fast_f32.c **** 
 259:.\DSP\Source\TransformFunctions/arm_rfft_fast_f32.c ****       res.val[1] = vmulq(tw.val[0], tmp2.val[1]);
 260:.\DSP\Source\TransformFunctions/arm_rfft_fast_f32.c ****       res.val[1] = vfmaq(res.val[1], tw.val[1], tmp2.val[0]);
 261:.\DSP\Source\TransformFunctions/arm_rfft_fast_f32.c **** 
 262:.\DSP\Source\TransformFunctions/arm_rfft_fast_f32.c ****       res.val[0] = vaddq_f32(res.val[0],tmp1.val[0] );
 263:.\DSP\Source\TransformFunctions/arm_rfft_fast_f32.c ****       res.val[1] = vaddq_f32(res.val[1],tmp1.val[1] );
 264:.\DSP\Source\TransformFunctions/arm_rfft_fast_f32.c **** 
 265:.\DSP\Source\TransformFunctions/arm_rfft_fast_f32.c ****       res.val[0] = vmulq_n_f32(res.val[0], 0.5f);
 266:.\DSP\Source\TransformFunctions/arm_rfft_fast_f32.c ****       res.val[1] = vmulq_n_f32(res.val[1], 0.5f);
 267:.\DSP\Source\TransformFunctions/arm_rfft_fast_f32.c **** 
 268:.\DSP\Source\TransformFunctions/arm_rfft_fast_f32.c **** 
 269:.\DSP\Source\TransformFunctions/arm_rfft_fast_f32.c ****       vst2q_f32(pOut, res);
 270:.\DSP\Source\TransformFunctions/arm_rfft_fast_f32.c ****       pOut += 8;
 271:.\DSP\Source\TransformFunctions/arm_rfft_fast_f32.c **** 
 272:.\DSP\Source\TransformFunctions/arm_rfft_fast_f32.c ****     
 273:.\DSP\Source\TransformFunctions/arm_rfft_fast_f32.c ****       blockCnt--;
 274:.\DSP\Source\TransformFunctions/arm_rfft_fast_f32.c ****    }
 275:.\DSP\Source\TransformFunctions/arm_rfft_fast_f32.c **** 
 276:.\DSP\Source\TransformFunctions/arm_rfft_fast_f32.c ****    blockCnt = k & 3;
 277:.\DSP\Source\TransformFunctions/arm_rfft_fast_f32.c ****    while (blockCnt > 0)
 278:.\DSP\Source\TransformFunctions/arm_rfft_fast_f32.c ****    {
 279:.\DSP\Source\TransformFunctions/arm_rfft_fast_f32.c ****       /* G is half of the frequency complex spectrum */
 280:.\DSP\Source\TransformFunctions/arm_rfft_fast_f32.c ****       //for k = 2:N
 281:.\DSP\Source\TransformFunctions/arm_rfft_fast_f32.c ****       //    Xk(k) = 1/2 * (G(k) + conj(G(N-k+2)) + Tw(k)*( G(k) - conj(G(N-k+2))));
 282:.\DSP\Source\TransformFunctions/arm_rfft_fast_f32.c ****       xBI =   pB[1]    ;
 283:.\DSP\Source\TransformFunctions/arm_rfft_fast_f32.c ****       xBR =   pB[0]    ;
 284:.\DSP\Source\TransformFunctions/arm_rfft_fast_f32.c ****       xAR =  pA[0];
 285:.\DSP\Source\TransformFunctions/arm_rfft_fast_f32.c ****       xAI =  pA[1];
 286:.\DSP\Source\TransformFunctions/arm_rfft_fast_f32.c **** 
 287:.\DSP\Source\TransformFunctions/arm_rfft_fast_f32.c ****       twR = *pCoeff++;
 288:.\DSP\Source\TransformFunctions/arm_rfft_fast_f32.c ****       twI = *pCoeff++;
 289:.\DSP\Source\TransformFunctions/arm_rfft_fast_f32.c **** 
 290:.\DSP\Source\TransformFunctions/arm_rfft_fast_f32.c ****       t1a = xAR - xBR ;
 291:.\DSP\Source\TransformFunctions/arm_rfft_fast_f32.c ****       t1b = xAI + xBI ;
 292:.\DSP\Source\TransformFunctions/arm_rfft_fast_f32.c **** 
 293:.\DSP\Source\TransformFunctions/arm_rfft_fast_f32.c ****       r = twR * t1a;
 294:.\DSP\Source\TransformFunctions/arm_rfft_fast_f32.c ****       s = twI * t1b;
 295:.\DSP\Source\TransformFunctions/arm_rfft_fast_f32.c ****       t = twI * t1a;
 296:.\DSP\Source\TransformFunctions/arm_rfft_fast_f32.c ****       u = twR * t1b;
 297:.\DSP\Source\TransformFunctions/arm_rfft_fast_f32.c **** 
 298:.\DSP\Source\TransformFunctions/arm_rfft_fast_f32.c ****       // real(tw * (xA - xB)) = twR * (xAR - xBR) - twI * (xAI - xBI);
 299:.\DSP\Source\TransformFunctions/arm_rfft_fast_f32.c ****       // imag(tw * (xA - xB)) = twI * (xAR - xBR) + twR * (xAI - xBI);
 300:.\DSP\Source\TransformFunctions/arm_rfft_fast_f32.c ****       *pOut++ = 0.5f * (xAR + xBR - r - s ); //xAR
 301:.\DSP\Source\TransformFunctions/arm_rfft_fast_f32.c ****       *pOut++ = 0.5f * (xAI - xBI + t - u ); //xAI
 302:.\DSP\Source\TransformFunctions/arm_rfft_fast_f32.c **** 
 303:.\DSP\Source\TransformFunctions/arm_rfft_fast_f32.c ****       pA += 2;
 304:.\DSP\Source\TransformFunctions/arm_rfft_fast_f32.c ****       pB -= 2;
 305:.\DSP\Source\TransformFunctions/arm_rfft_fast_f32.c ****       blockCnt--;
 306:.\DSP\Source\TransformFunctions/arm_rfft_fast_f32.c ****    }
 307:.\DSP\Source\TransformFunctions/arm_rfft_fast_f32.c **** 
 308:.\DSP\Source\TransformFunctions/arm_rfft_fast_f32.c **** }
 309:.\DSP\Source\TransformFunctions/arm_rfft_fast_f32.c **** #else
 310:.\DSP\Source\TransformFunctions/arm_rfft_fast_f32.c **** void stage_rfft_f32(
 311:.\DSP\Source\TransformFunctions/arm_rfft_fast_f32.c ****   const arm_rfft_fast_instance_f32 * S,
 312:.\DSP\Source\TransformFunctions/arm_rfft_fast_f32.c ****         float32_t * p,
 313:.\DSP\Source\TransformFunctions/arm_rfft_fast_f32.c ****         float32_t * pOut)
ARM GAS  C:\Users\IVYLIU~1\AppData\Local\Temp\ccCkPSHu.s 			page 7


 314:.\DSP\Source\TransformFunctions/arm_rfft_fast_f32.c **** {
  30              		.loc 1 314 0
  31              		.cfi_startproc
  32              		@ args = 0, pretend = 0, frame = 24
  33              		@ frame_needed = 0, uses_anonymous_args = 0
  34              	.LVL0:
  35 0000 2DE9F04F 		push	{r4, r5, r6, r7, r8, r9, r10, fp, lr}
  36              		.cfi_def_cfa_offset 36
  37              		.cfi_offset 4, -36
  38              		.cfi_offset 5, -32
  39              		.cfi_offset 6, -28
  40              		.cfi_offset 7, -24
  41              		.cfi_offset 8, -20
  42              		.cfi_offset 9, -16
  43              		.cfi_offset 10, -12
  44              		.cfi_offset 11, -8
  45              		.cfi_offset 14, -4
  46 0004 87B0     		sub	sp, sp, #28
  47              		.cfi_def_cfa_offset 64
  48 0006 0C46     		mov	r4, r1
  49 0008 1546     		mov	r5, r2
 315:.\DSP\Source\TransformFunctions/arm_rfft_fast_f32.c ****         int32_t  k;                                /* Loop Counter */
 316:.\DSP\Source\TransformFunctions/arm_rfft_fast_f32.c ****         float32_t twR, twI;                         /* RFFT Twiddle coefficients */
 317:.\DSP\Source\TransformFunctions/arm_rfft_fast_f32.c ****   const float32_t * pCoeff = S->pTwiddleRFFT;       /* Points to RFFT Twiddle factors */
  50              		.loc 1 317 0
  51 000a 4369     		ldr	r3, [r0, #20]
  52              	.LVL1:
 318:.\DSP\Source\TransformFunctions/arm_rfft_fast_f32.c ****         float32_t *pA = p;                          /* increasing pointer */
 319:.\DSP\Source\TransformFunctions/arm_rfft_fast_f32.c ****         float32_t *pB = p;                          /* decreasing pointer */
 320:.\DSP\Source\TransformFunctions/arm_rfft_fast_f32.c ****         float32_t xAR, xAI, xBR, xBI;               /* temporary variables */
 321:.\DSP\Source\TransformFunctions/arm_rfft_fast_f32.c ****         float32_t t1a, t1b;                         /* temporary variables */
 322:.\DSP\Source\TransformFunctions/arm_rfft_fast_f32.c ****         float32_t p0, p1, p2, p3;                   /* temporary variables */
 323:.\DSP\Source\TransformFunctions/arm_rfft_fast_f32.c **** 
 324:.\DSP\Source\TransformFunctions/arm_rfft_fast_f32.c **** 
 325:.\DSP\Source\TransformFunctions/arm_rfft_fast_f32.c ****    k = (S->Sint).fftLen - 1;
  53              		.loc 1 325 0
  54 000c 0288     		ldrh	r2, [r0]
  55              	.LVL2:
  56 000e 02F1FF38 		add	r8, r2, #-1
  57              	.LVL3:
 326:.\DSP\Source\TransformFunctions/arm_rfft_fast_f32.c **** 
 327:.\DSP\Source\TransformFunctions/arm_rfft_fast_f32.c ****    /* Pack first and last sample of the frequency domain together */
 328:.\DSP\Source\TransformFunctions/arm_rfft_fast_f32.c **** 
 329:.\DSP\Source\TransformFunctions/arm_rfft_fast_f32.c ****    xBR = pB[0];
 330:.\DSP\Source\TransformFunctions/arm_rfft_fast_f32.c ****    xBI = pB[1];
  58              		.loc 1 330 0
  59 0012 4E68     		ldr	r6, [r1, #4]	@ float
  60              	.LVL4:
 331:.\DSP\Source\TransformFunctions/arm_rfft_fast_f32.c ****    xAR = pA[0];
 332:.\DSP\Source\TransformFunctions/arm_rfft_fast_f32.c ****    xAI = pA[1];
 333:.\DSP\Source\TransformFunctions/arm_rfft_fast_f32.c **** 
 334:.\DSP\Source\TransformFunctions/arm_rfft_fast_f32.c ****    twR = *pCoeff++ ;
 335:.\DSP\Source\TransformFunctions/arm_rfft_fast_f32.c ****    twI = *pCoeff++ ;
  61              		.loc 1 335 0
  62 0014 03F10809 		add	r9, r3, #8
  63              	.LVL5:
 336:.\DSP\Source\TransformFunctions/arm_rfft_fast_f32.c **** 
ARM GAS  C:\Users\IVYLIU~1\AppData\Local\Temp\ccCkPSHu.s 			page 8


 337:.\DSP\Source\TransformFunctions/arm_rfft_fast_f32.c **** 
 338:.\DSP\Source\TransformFunctions/arm_rfft_fast_f32.c ****    // U1 = XA(1) + XB(1); % It is real
 339:.\DSP\Source\TransformFunctions/arm_rfft_fast_f32.c ****    t1a = xBR + xAR  ;
  64              		.loc 1 339 0
  65 0018 0868     		ldr	r0, [r1]	@ float
  66              	.LVL6:
  67 001a 0146     		mov	r1, r0
  68              	.LVL7:
  69 001c FFF7FEFF 		bl	__aeabi_fadd
  70              	.LVL8:
  71 0020 0746     		mov	r7, r0
  72              	.LVL9:
 340:.\DSP\Source\TransformFunctions/arm_rfft_fast_f32.c **** 
 341:.\DSP\Source\TransformFunctions/arm_rfft_fast_f32.c ****    // U2 = XB(1) - XA(1); % It is imaginary
 342:.\DSP\Source\TransformFunctions/arm_rfft_fast_f32.c ****    t1b = xBI + xAI  ;
  73              		.loc 1 342 0
  74 0022 3046     		mov	r0, r6
  75              	.LVL10:
  76 0024 3146     		mov	r1, r6
  77 0026 FFF7FEFF 		bl	__aeabi_fadd
  78              	.LVL11:
  79 002a 8246     		mov	r10, r0
  80              	.LVL12:
 343:.\DSP\Source\TransformFunctions/arm_rfft_fast_f32.c **** 
 344:.\DSP\Source\TransformFunctions/arm_rfft_fast_f32.c ****    // real(tw * (xB - xA)) = twR * (xBR - xAR) - twI * (xBI - xAI);
 345:.\DSP\Source\TransformFunctions/arm_rfft_fast_f32.c ****    // imag(tw * (xB - xA)) = twI * (xBR - xAR) + twR * (xBI - xAI);
 346:.\DSP\Source\TransformFunctions/arm_rfft_fast_f32.c ****    *pOut++ = 0.5f * ( t1a + t1b );
  81              		.loc 1 346 0
  82 002c 3846     		mov	r0, r7
  83              	.LVL13:
  84 002e 5146     		mov	r1, r10
  85 0030 FFF7FEFF 		bl	__aeabi_fadd
  86              	.LVL14:
  87 0034 4FF07C51 		mov	r1, #1056964608
  88 0038 FFF7FEFF 		bl	__aeabi_fmul
  89              	.LVL15:
  90 003c 2E46     		mov	r6, r5
  91              	.LVL16:
  92 003e 46F8080B 		str	r0, [r6], #8	@ float
  93              	.LVL17:
 347:.\DSP\Source\TransformFunctions/arm_rfft_fast_f32.c ****    *pOut++ = 0.5f * ( t1a - t1b );
  94              		.loc 1 347 0
  95 0042 3846     		mov	r0, r7
  96 0044 5146     		mov	r1, r10
  97 0046 FFF7FEFF 		bl	__aeabi_fsub
  98              	.LVL18:
  99 004a 4FF07C51 		mov	r1, #1056964608
 100 004e FFF7FEFF 		bl	__aeabi_fmul
 101              	.LVL19:
 102 0052 6860     		str	r0, [r5, #4]	@ float
 348:.\DSP\Source\TransformFunctions/arm_rfft_fast_f32.c **** 
 349:.\DSP\Source\TransformFunctions/arm_rfft_fast_f32.c ****    // XA(1) = 1/2*( U1 - imag(U2) +  i*( U1 +imag(U2) ));
 350:.\DSP\Source\TransformFunctions/arm_rfft_fast_f32.c ****    pB  = p + 2*k;
 103              		.loc 1 350 0
 104 0054 04EBC805 		add	r5, r4, r8, lsl #3
 105              	.LVL20:
 351:.\DSP\Source\TransformFunctions/arm_rfft_fast_f32.c ****    pA += 2;
ARM GAS  C:\Users\IVYLIU~1\AppData\Local\Temp\ccCkPSHu.s 			page 9


 106              		.loc 1 351 0
 107 0058 04F1080B 		add	fp, r4, #8
 108              	.LVL21:
 109 005c 0396     		str	r6, [sp, #12]
 110              	.LVL22:
 111              	.L2:
 352:.\DSP\Source\TransformFunctions/arm_rfft_fast_f32.c **** 
 353:.\DSP\Source\TransformFunctions/arm_rfft_fast_f32.c ****    do
 354:.\DSP\Source\TransformFunctions/arm_rfft_fast_f32.c ****    {
 355:.\DSP\Source\TransformFunctions/arm_rfft_fast_f32.c ****       /*
 356:.\DSP\Source\TransformFunctions/arm_rfft_fast_f32.c ****          function X = my_split_rfft(X, ifftFlag)
 357:.\DSP\Source\TransformFunctions/arm_rfft_fast_f32.c ****          % X is a series of real numbers
 358:.\DSP\Source\TransformFunctions/arm_rfft_fast_f32.c ****          L  = length(X);
 359:.\DSP\Source\TransformFunctions/arm_rfft_fast_f32.c ****          XC = X(1:2:end) +i*X(2:2:end);
 360:.\DSP\Source\TransformFunctions/arm_rfft_fast_f32.c ****          XA = fft(XC);
 361:.\DSP\Source\TransformFunctions/arm_rfft_fast_f32.c ****          XB = conj(XA([1 end:-1:2]));
 362:.\DSP\Source\TransformFunctions/arm_rfft_fast_f32.c ****          TW = i*exp(-2*pi*i*[0:L/2-1]/L).';
 363:.\DSP\Source\TransformFunctions/arm_rfft_fast_f32.c ****          for l = 2:L/2
 364:.\DSP\Source\TransformFunctions/arm_rfft_fast_f32.c ****             XA(l) = 1/2 * (XA(l) + XB(l) + TW(l) * (XB(l) - XA(l)));
 365:.\DSP\Source\TransformFunctions/arm_rfft_fast_f32.c ****          end
 366:.\DSP\Source\TransformFunctions/arm_rfft_fast_f32.c ****          XA(1) = 1/2* (XA(1) + XB(1) + TW(1) * (XB(1) - XA(1))) + i*( 1/2*( XA(1) + XB(1) + i*( XA(
 367:.\DSP\Source\TransformFunctions/arm_rfft_fast_f32.c ****          X = XA;
 368:.\DSP\Source\TransformFunctions/arm_rfft_fast_f32.c ****       */
 369:.\DSP\Source\TransformFunctions/arm_rfft_fast_f32.c **** 
 370:.\DSP\Source\TransformFunctions/arm_rfft_fast_f32.c ****       xBI = pB[1];
 112              		.loc 1 370 0 discriminator 1
 113 005e 6B68     		ldr	r3, [r5, #4]	@ float
 114 0060 0093     		str	r3, [sp]	@ float
 115              	.LVL23:
 371:.\DSP\Source\TransformFunctions/arm_rfft_fast_f32.c ****       xBR = pB[0];
 116              		.loc 1 371 0 discriminator 1
 117 0062 55F80829 		ldr	r2, [r5], #-8	@ float
 118              	.LVL24:
 372:.\DSP\Source\TransformFunctions/arm_rfft_fast_f32.c ****       xAR = pA[0];
 119              		.loc 1 372 0 discriminator 1
 120 0066 DBF80060 		ldr	r6, [fp]	@ float
 121              	.LVL25:
 373:.\DSP\Source\TransformFunctions/arm_rfft_fast_f32.c ****       xAI = pA[1];
 122              		.loc 1 373 0 discriminator 1
 123 006a DBF80410 		ldr	r1, [fp, #4]	@ float
 124 006e 0191     		str	r1, [sp, #4]	@ float
 125              	.LVL26:
 374:.\DSP\Source\TransformFunctions/arm_rfft_fast_f32.c **** 
 375:.\DSP\Source\TransformFunctions/arm_rfft_fast_f32.c ****       twR = *pCoeff++;
 126              		.loc 1 375 0 discriminator 1
 127 0070 4C46     		mov	r4, r9
 128 0072 54F808AB 		ldr	r10, [r4], #8	@ float
 129              	.LVL27:
 376:.\DSP\Source\TransformFunctions/arm_rfft_fast_f32.c ****       twI = *pCoeff++;
 130              		.loc 1 376 0 discriminator 1
 131 0076 D9F80470 		ldr	r7, [r9, #4]	@ float
 132              	.LVL28:
 377:.\DSP\Source\TransformFunctions/arm_rfft_fast_f32.c **** 
 378:.\DSP\Source\TransformFunctions/arm_rfft_fast_f32.c ****       t1a = xBR - xAR ;
 133              		.loc 1 378 0 discriminator 1
 134 007a 0492     		str	r2, [sp, #16]	@ float
 135 007c 1046     		mov	r0, r2
ARM GAS  C:\Users\IVYLIU~1\AppData\Local\Temp\ccCkPSHu.s 			page 10


 136 007e 3146     		mov	r1, r6
 137              	.LVL29:
 138 0080 FFF7FEFF 		bl	__aeabi_fsub
 139              	.LVL30:
 140 0084 8146     		mov	r9, r0
 141              	.LVL31:
 379:.\DSP\Source\TransformFunctions/arm_rfft_fast_f32.c ****       t1b = xBI + xAI ;
 142              		.loc 1 379 0 discriminator 1
 143 0086 0098     		ldr	r0, [sp]	@ float
 144              	.LVL32:
 145 0088 0199     		ldr	r1, [sp, #4]	@ float
 146 008a FFF7FEFF 		bl	__aeabi_fadd
 147              	.LVL33:
 148 008e 0290     		str	r0, [sp, #8]	@ float
 149              	.LVL34:
 380:.\DSP\Source\TransformFunctions/arm_rfft_fast_f32.c **** 
 381:.\DSP\Source\TransformFunctions/arm_rfft_fast_f32.c ****       // real(tw * (xB - xA)) = twR * (xBR - xAR) - twI * (xBI - xAI);
 382:.\DSP\Source\TransformFunctions/arm_rfft_fast_f32.c ****       // imag(tw * (xB - xA)) = twI * (xBR - xAR) + twR * (xBI - xAI);
 383:.\DSP\Source\TransformFunctions/arm_rfft_fast_f32.c ****       p0 = twR * t1a;
 150              		.loc 1 383 0 discriminator 1
 151 0090 5046     		mov	r0, r10
 152              	.LVL35:
 153 0092 4946     		mov	r1, r9
 154 0094 FFF7FEFF 		bl	__aeabi_fmul
 155              	.LVL36:
 156 0098 0590     		str	r0, [sp, #20]	@ float
 157              	.LVL37:
 384:.\DSP\Source\TransformFunctions/arm_rfft_fast_f32.c ****       p1 = twI * t1a;
 158              		.loc 1 384 0 discriminator 1
 159 009a 3846     		mov	r0, r7
 160              	.LVL38:
 161 009c 4946     		mov	r1, r9
 162 009e FFF7FEFF 		bl	__aeabi_fmul
 163              	.LVL39:
 164 00a2 8146     		mov	r9, r0
 165              	.LVL40:
 385:.\DSP\Source\TransformFunctions/arm_rfft_fast_f32.c ****       p2 = twR * t1b;
 166              		.loc 1 385 0 discriminator 1
 167 00a4 5046     		mov	r0, r10
 168              	.LVL41:
 169 00a6 0299     		ldr	r1, [sp, #8]	@ float
 170 00a8 FFF7FEFF 		bl	__aeabi_fmul
 171              	.LVL42:
 172 00ac 8246     		mov	r10, r0
 173              	.LVL43:
 386:.\DSP\Source\TransformFunctions/arm_rfft_fast_f32.c ****       p3 = twI * t1b;
 174              		.loc 1 386 0 discriminator 1
 175 00ae 3846     		mov	r0, r7
 176              	.LVL44:
 177 00b0 0299     		ldr	r1, [sp, #8]	@ float
 178 00b2 FFF7FEFF 		bl	__aeabi_fmul
 179              	.LVL45:
 180 00b6 0746     		mov	r7, r0
 181              	.LVL46:
 387:.\DSP\Source\TransformFunctions/arm_rfft_fast_f32.c **** 
 388:.\DSP\Source\TransformFunctions/arm_rfft_fast_f32.c ****       *pOut++ = 0.5f * (xAR + xBR + p0 + p3 ); //xAR
 182              		.loc 1 388 0 discriminator 1
ARM GAS  C:\Users\IVYLIU~1\AppData\Local\Temp\ccCkPSHu.s 			page 11


 183 00b8 3046     		mov	r0, r6
 184              	.LVL47:
 185 00ba 0499     		ldr	r1, [sp, #16]	@ float
 186 00bc FFF7FEFF 		bl	__aeabi_fadd
 187              	.LVL48:
 188 00c0 0599     		ldr	r1, [sp, #20]	@ float
 189 00c2 FFF7FEFF 		bl	__aeabi_fadd
 190              	.LVL49:
 191 00c6 3946     		mov	r1, r7
 192 00c8 FFF7FEFF 		bl	__aeabi_fadd
 193              	.LVL50:
 194 00cc 4FF07C51 		mov	r1, #1056964608
 195 00d0 FFF7FEFF 		bl	__aeabi_fmul
 196              	.LVL51:
 197 00d4 039F     		ldr	r7, [sp, #12]
 198              	.LVL52:
 199 00d6 3E46     		mov	r6, r7
 200              	.LVL53:
 201 00d8 46F8080B 		str	r0, [r6], #8	@ float
 202              	.LVL54:
 389:.\DSP\Source\TransformFunctions/arm_rfft_fast_f32.c ****       *pOut++ = 0.5f * (xAI - xBI + p1 - p2 ); //xAI
 203              		.loc 1 389 0 discriminator 1
 204 00dc 0198     		ldr	r0, [sp, #4]	@ float
 205 00de 0099     		ldr	r1, [sp]	@ float
 206 00e0 FFF7FEFF 		bl	__aeabi_fsub
 207              	.LVL55:
 208 00e4 4946     		mov	r1, r9
 209 00e6 FFF7FEFF 		bl	__aeabi_fadd
 210              	.LVL56:
 211 00ea 5146     		mov	r1, r10
 212 00ec FFF7FEFF 		bl	__aeabi_fsub
 213              	.LVL57:
 214 00f0 4FF07C51 		mov	r1, #1056964608
 215 00f4 FFF7FEFF 		bl	__aeabi_fmul
 216              	.LVL58:
 217 00f8 7860     		str	r0, [r7, #4]	@ float
 390:.\DSP\Source\TransformFunctions/arm_rfft_fast_f32.c **** 
 391:.\DSP\Source\TransformFunctions/arm_rfft_fast_f32.c **** 
 392:.\DSP\Source\TransformFunctions/arm_rfft_fast_f32.c ****       pA += 2;
 218              		.loc 1 392 0 discriminator 1
 219 00fa 0BF1080B 		add	fp, fp, #8
 220              	.LVL59:
 393:.\DSP\Source\TransformFunctions/arm_rfft_fast_f32.c ****       pB -= 2;
 394:.\DSP\Source\TransformFunctions/arm_rfft_fast_f32.c ****       k--;
 221              		.loc 1 394 0 discriminator 1
 222 00fe 08F1FF38 		add	r8, r8, #-1
 223              	.LVL60:
 389:.\DSP\Source\TransformFunctions/arm_rfft_fast_f32.c **** 
 224              		.loc 1 389 0 discriminator 1
 225 0102 0396     		str	r6, [sp, #12]
 376:.\DSP\Source\TransformFunctions/arm_rfft_fast_f32.c **** 
 226              		.loc 1 376 0 discriminator 1
 227 0104 A146     		mov	r9, r4
 228              	.LVL61:
 395:.\DSP\Source\TransformFunctions/arm_rfft_fast_f32.c ****    } while (k > 0);
 229              		.loc 1 395 0 discriminator 1
 230 0106 B8F1000F 		cmp	r8, #0
ARM GAS  C:\Users\IVYLIU~1\AppData\Local\Temp\ccCkPSHu.s 			page 12


 231 010a A8DC     		bgt	.L2
 396:.\DSP\Source\TransformFunctions/arm_rfft_fast_f32.c **** }
 232              		.loc 1 396 0
 233 010c 07B0     		add	sp, sp, #28
 234              		.cfi_def_cfa_offset 36
 235              	.LVL62:
 236              		@ sp needed
 237 010e BDE8F08F 		pop	{r4, r5, r6, r7, r8, r9, r10, fp, pc}
 238              		.cfi_endproc
 239              	.LFE84:
 240              		.size	stage_rfft_f32, .-stage_rfft_f32
 241 0112 00BF     		.section	.text.merge_rfft_f32,"ax",%progbits
 242              		.align	2
 243              		.global	merge_rfft_f32
 244              		.thumb
 245              		.thumb_func
 246              		.type	merge_rfft_f32, %function
 247              	merge_rfft_f32:
 248              	.LFB85:
 397:.\DSP\Source\TransformFunctions/arm_rfft_fast_f32.c **** 
 398:.\DSP\Source\TransformFunctions/arm_rfft_fast_f32.c **** /* Prepares data for inverse cfft */
 399:.\DSP\Source\TransformFunctions/arm_rfft_fast_f32.c **** void merge_rfft_f32(
 400:.\DSP\Source\TransformFunctions/arm_rfft_fast_f32.c ****   const arm_rfft_fast_instance_f32 * S,
 401:.\DSP\Source\TransformFunctions/arm_rfft_fast_f32.c ****         float32_t * p,
 402:.\DSP\Source\TransformFunctions/arm_rfft_fast_f32.c ****         float32_t * pOut)
 403:.\DSP\Source\TransformFunctions/arm_rfft_fast_f32.c **** {
 249              		.loc 1 403 0
 250              		.cfi_startproc
 251              		@ args = 0, pretend = 0, frame = 32
 252              		@ frame_needed = 0, uses_anonymous_args = 0
 253              	.LVL63:
 254 0000 2DE9F04F 		push	{r4, r5, r6, r7, r8, r9, r10, fp, lr}
 255              		.cfi_def_cfa_offset 36
 256              		.cfi_offset 4, -36
 257              		.cfi_offset 5, -32
 258              		.cfi_offset 6, -28
 259              		.cfi_offset 7, -24
 260              		.cfi_offset 8, -20
 261              		.cfi_offset 9, -16
 262              		.cfi_offset 10, -12
 263              		.cfi_offset 11, -8
 264              		.cfi_offset 14, -4
 265 0004 89B0     		sub	sp, sp, #36
 266              		.cfi_def_cfa_offset 72
 267 0006 0C46     		mov	r4, r1
 268 0008 1546     		mov	r5, r2
 404:.\DSP\Source\TransformFunctions/arm_rfft_fast_f32.c ****         int32_t  k;                                /* Loop Counter */
 405:.\DSP\Source\TransformFunctions/arm_rfft_fast_f32.c ****         float32_t twR, twI;                         /* RFFT Twiddle coefficients */
 406:.\DSP\Source\TransformFunctions/arm_rfft_fast_f32.c ****   const float32_t *pCoeff = S->pTwiddleRFFT;        /* Points to RFFT Twiddle factors */
 269              		.loc 1 406 0
 270 000a 4369     		ldr	r3, [r0, #20]
 271              	.LVL64:
 407:.\DSP\Source\TransformFunctions/arm_rfft_fast_f32.c ****         float32_t *pA = p;                          /* increasing pointer */
 408:.\DSP\Source\TransformFunctions/arm_rfft_fast_f32.c ****         float32_t *pB = p;                          /* decreasing pointer */
 409:.\DSP\Source\TransformFunctions/arm_rfft_fast_f32.c ****         float32_t xAR, xAI, xBR, xBI;               /* temporary variables */
 410:.\DSP\Source\TransformFunctions/arm_rfft_fast_f32.c ****         float32_t t1a, t1b, r, s, t, u;             /* temporary variables */
 411:.\DSP\Source\TransformFunctions/arm_rfft_fast_f32.c **** 
ARM GAS  C:\Users\IVYLIU~1\AppData\Local\Temp\ccCkPSHu.s 			page 13


 412:.\DSP\Source\TransformFunctions/arm_rfft_fast_f32.c ****    k = (S->Sint).fftLen - 1;
 272              		.loc 1 412 0
 273 000c 0288     		ldrh	r2, [r0]
 274              	.LVL65:
 275 000e 02F1FF38 		add	r8, r2, #-1
 276              	.LVL66:
 413:.\DSP\Source\TransformFunctions/arm_rfft_fast_f32.c **** 
 414:.\DSP\Source\TransformFunctions/arm_rfft_fast_f32.c ****    xAR = pA[0];
 277              		.loc 1 414 0
 278 0012 0F68     		ldr	r7, [r1]	@ float
 279              	.LVL67:
 415:.\DSP\Source\TransformFunctions/arm_rfft_fast_f32.c ****    xAI = pA[1];
 280              		.loc 1 415 0
 281 0014 4E68     		ldr	r6, [r1, #4]	@ float
 282              	.LVL68:
 416:.\DSP\Source\TransformFunctions/arm_rfft_fast_f32.c **** 
 417:.\DSP\Source\TransformFunctions/arm_rfft_fast_f32.c ****    pCoeff += 2 ;
 283              		.loc 1 417 0
 284 0016 03F1080A 		add	r10, r3, #8
 285              	.LVL69:
 418:.\DSP\Source\TransformFunctions/arm_rfft_fast_f32.c **** 
 419:.\DSP\Source\TransformFunctions/arm_rfft_fast_f32.c ****    *pOut++ = 0.5f * ( xAR + xAI );
 286              		.loc 1 419 0
 287 001a 3846     		mov	r0, r7
 288              	.LVL70:
 289 001c 3146     		mov	r1, r6
 290              	.LVL71:
 291 001e FFF7FEFF 		bl	__aeabi_fadd
 292              	.LVL72:
 293 0022 4FF07C51 		mov	r1, #1056964608
 294 0026 FFF7FEFF 		bl	__aeabi_fmul
 295              	.LVL73:
 296 002a AB46     		mov	fp, r5
 297 002c 4BF8080B 		str	r0, [fp], #8	@ float
 298              	.LVL74:
 420:.\DSP\Source\TransformFunctions/arm_rfft_fast_f32.c ****    *pOut++ = 0.5f * ( xAR - xAI );
 299              		.loc 1 420 0
 300 0030 3846     		mov	r0, r7
 301 0032 3146     		mov	r1, r6
 302 0034 FFF7FEFF 		bl	__aeabi_fsub
 303              	.LVL75:
 304 0038 4FF07C51 		mov	r1, #1056964608
 305 003c FFF7FEFF 		bl	__aeabi_fmul
 306              	.LVL76:
 307 0040 6860     		str	r0, [r5, #4]	@ float
 421:.\DSP\Source\TransformFunctions/arm_rfft_fast_f32.c **** 
 422:.\DSP\Source\TransformFunctions/arm_rfft_fast_f32.c ****    pB  =  p + 2*k ;
 308              		.loc 1 422 0
 309 0042 04EBC806 		add	r6, r4, r8, lsl #3
 310              	.LVL77:
 423:.\DSP\Source\TransformFunctions/arm_rfft_fast_f32.c ****    pA +=  2	   ;
 311              		.loc 1 423 0
 312 0046 04F10805 		add	r5, r4, #8
 313              	.LVL78:
 314 004a D946     		mov	r9, fp
 424:.\DSP\Source\TransformFunctions/arm_rfft_fast_f32.c **** 
 425:.\DSP\Source\TransformFunctions/arm_rfft_fast_f32.c ****    while (k > 0)
ARM GAS  C:\Users\IVYLIU~1\AppData\Local\Temp\ccCkPSHu.s 			page 14


 315              		.loc 1 425 0
 316 004c 50E0     		b	.L5
 317              	.LVL79:
 318              	.L6:
 426:.\DSP\Source\TransformFunctions/arm_rfft_fast_f32.c ****    {
 427:.\DSP\Source\TransformFunctions/arm_rfft_fast_f32.c ****       /* G is half of the frequency complex spectrum */
 428:.\DSP\Source\TransformFunctions/arm_rfft_fast_f32.c ****       //for k = 2:N
 429:.\DSP\Source\TransformFunctions/arm_rfft_fast_f32.c ****       //    Xk(k) = 1/2 * (G(k) + conj(G(N-k+2)) + Tw(k)*( G(k) - conj(G(N-k+2))));
 430:.\DSP\Source\TransformFunctions/arm_rfft_fast_f32.c ****       xBI =   pB[1]    ;
 319              		.loc 1 430 0
 320 004e 7368     		ldr	r3, [r6, #4]	@ float
 321 0050 0193     		str	r3, [sp, #4]	@ float
 322              	.LVL80:
 431:.\DSP\Source\TransformFunctions/arm_rfft_fast_f32.c ****       xBR =   pB[0]    ;
 323              		.loc 1 431 0
 324 0052 56F80879 		ldr	r7, [r6], #-8	@ float
 325              	.LVL81:
 432:.\DSP\Source\TransformFunctions/arm_rfft_fast_f32.c ****       xAR =  pA[0];
 326              		.loc 1 432 0
 327 0056 2A68     		ldr	r2, [r5]	@ float
 328              	.LVL82:
 433:.\DSP\Source\TransformFunctions/arm_rfft_fast_f32.c ****       xAI =  pA[1];
 329              		.loc 1 433 0
 330 0058 6968     		ldr	r1, [r5, #4]	@ float
 331 005a 0291     		str	r1, [sp, #8]	@ float
 332              	.LVL83:
 434:.\DSP\Source\TransformFunctions/arm_rfft_fast_f32.c **** 
 435:.\DSP\Source\TransformFunctions/arm_rfft_fast_f32.c ****       twR = *pCoeff++;
 333              		.loc 1 435 0
 334 005c 5446     		mov	r4, r10
 335 005e 54F808BB 		ldr	fp, [r4], #8	@ float
 336              	.LVL84:
 436:.\DSP\Source\TransformFunctions/arm_rfft_fast_f32.c ****       twI = *pCoeff++;
 337              		.loc 1 436 0
 338 0062 DAF804A0 		ldr	r10, [r10, #4]	@ float
 339              	.LVL85:
 437:.\DSP\Source\TransformFunctions/arm_rfft_fast_f32.c **** 
 438:.\DSP\Source\TransformFunctions/arm_rfft_fast_f32.c ****       t1a = xAR - xBR ;
 340              		.loc 1 438 0
 341 0066 0592     		str	r2, [sp, #20]	@ float
 342 0068 1046     		mov	r0, r2
 343 006a 3946     		mov	r1, r7
 344              	.LVL86:
 345 006c FFF7FEFF 		bl	__aeabi_fsub
 346              	.LVL87:
 347 0070 0390     		str	r0, [sp, #12]	@ float
 348              	.LVL88:
 439:.\DSP\Source\TransformFunctions/arm_rfft_fast_f32.c ****       t1b = xAI + xBI ;
 349              		.loc 1 439 0
 350 0072 0298     		ldr	r0, [sp, #8]	@ float
 351              	.LVL89:
 352 0074 0199     		ldr	r1, [sp, #4]	@ float
 353 0076 FFF7FEFF 		bl	__aeabi_fadd
 354              	.LVL90:
 355 007a 0490     		str	r0, [sp, #16]	@ float
 356              	.LVL91:
 440:.\DSP\Source\TransformFunctions/arm_rfft_fast_f32.c **** 
ARM GAS  C:\Users\IVYLIU~1\AppData\Local\Temp\ccCkPSHu.s 			page 15


 441:.\DSP\Source\TransformFunctions/arm_rfft_fast_f32.c ****       r = twR * t1a;
 357              		.loc 1 441 0
 358 007c 5846     		mov	r0, fp
 359              	.LVL92:
 360 007e 0399     		ldr	r1, [sp, #12]	@ float
 361 0080 FFF7FEFF 		bl	__aeabi_fmul
 362              	.LVL93:
 363 0084 0690     		str	r0, [sp, #24]	@ float
 364              	.LVL94:
 442:.\DSP\Source\TransformFunctions/arm_rfft_fast_f32.c ****       s = twI * t1b;
 365              		.loc 1 442 0
 366 0086 5046     		mov	r0, r10
 367              	.LVL95:
 368 0088 0499     		ldr	r1, [sp, #16]	@ float
 369 008a FFF7FEFF 		bl	__aeabi_fmul
 370              	.LVL96:
 371 008e 0790     		str	r0, [sp, #28]	@ float
 372              	.LVL97:
 443:.\DSP\Source\TransformFunctions/arm_rfft_fast_f32.c ****       t = twI * t1a;
 373              		.loc 1 443 0
 374 0090 5046     		mov	r0, r10
 375              	.LVL98:
 376 0092 0399     		ldr	r1, [sp, #12]	@ float
 377 0094 FFF7FEFF 		bl	__aeabi_fmul
 378              	.LVL99:
 379 0098 8246     		mov	r10, r0
 380              	.LVL100:
 444:.\DSP\Source\TransformFunctions/arm_rfft_fast_f32.c ****       u = twR * t1b;
 381              		.loc 1 444 0
 382 009a 5846     		mov	r0, fp
 383              	.LVL101:
 384 009c 0499     		ldr	r1, [sp, #16]	@ float
 385 009e FFF7FEFF 		bl	__aeabi_fmul
 386              	.LVL102:
 387 00a2 8346     		mov	fp, r0
 388              	.LVL103:
 445:.\DSP\Source\TransformFunctions/arm_rfft_fast_f32.c **** 
 446:.\DSP\Source\TransformFunctions/arm_rfft_fast_f32.c ****       // real(tw * (xA - xB)) = twR * (xAR - xBR) - twI * (xAI - xBI);
 447:.\DSP\Source\TransformFunctions/arm_rfft_fast_f32.c ****       // imag(tw * (xA - xB)) = twI * (xAR - xBR) + twR * (xAI - xBI);
 448:.\DSP\Source\TransformFunctions/arm_rfft_fast_f32.c ****       *pOut++ = 0.5f * (xAR + xBR - r - s ); //xAR
 389              		.loc 1 448 0
 390 00a4 0598     		ldr	r0, [sp, #20]	@ float
 391              	.LVL104:
 392 00a6 3946     		mov	r1, r7
 393 00a8 FFF7FEFF 		bl	__aeabi_fadd
 394              	.LVL105:
 395 00ac 0699     		ldr	r1, [sp, #24]	@ float
 396 00ae FFF7FEFF 		bl	__aeabi_fsub
 397              	.LVL106:
 398 00b2 0799     		ldr	r1, [sp, #28]	@ float
 399 00b4 FFF7FEFF 		bl	__aeabi_fsub
 400              	.LVL107:
 401 00b8 4FF07C51 		mov	r1, #1056964608
 402 00bc FFF7FEFF 		bl	__aeabi_fmul
 403              	.LVL108:
 404 00c0 4F46     		mov	r7, r9
 405              	.LVL109:
ARM GAS  C:\Users\IVYLIU~1\AppData\Local\Temp\ccCkPSHu.s 			page 16


 406 00c2 47F8080B 		str	r0, [r7], #8	@ float
 407              	.LVL110:
 449:.\DSP\Source\TransformFunctions/arm_rfft_fast_f32.c ****       *pOut++ = 0.5f * (xAI - xBI + t - u ); //xAI
 408              		.loc 1 449 0
 409 00c6 0298     		ldr	r0, [sp, #8]	@ float
 410 00c8 0199     		ldr	r1, [sp, #4]	@ float
 411 00ca FFF7FEFF 		bl	__aeabi_fsub
 412              	.LVL111:
 413 00ce 5146     		mov	r1, r10
 414 00d0 FFF7FEFF 		bl	__aeabi_fadd
 415              	.LVL112:
 416 00d4 5946     		mov	r1, fp
 417 00d6 FFF7FEFF 		bl	__aeabi_fsub
 418              	.LVL113:
 419 00da 4FF07C51 		mov	r1, #1056964608
 420 00de FFF7FEFF 		bl	__aeabi_fmul
 421              	.LVL114:
 422 00e2 C9F80400 		str	r0, [r9, #4]	@ float
 450:.\DSP\Source\TransformFunctions/arm_rfft_fast_f32.c **** 
 451:.\DSP\Source\TransformFunctions/arm_rfft_fast_f32.c ****       pA += 2;
 423              		.loc 1 451 0
 424 00e6 0835     		adds	r5, r5, #8
 425              	.LVL115:
 452:.\DSP\Source\TransformFunctions/arm_rfft_fast_f32.c ****       pB -= 2;
 453:.\DSP\Source\TransformFunctions/arm_rfft_fast_f32.c ****       k--;
 426              		.loc 1 453 0
 427 00e8 08F1FF38 		add	r8, r8, #-1
 428              	.LVL116:
 436:.\DSP\Source\TransformFunctions/arm_rfft_fast_f32.c **** 
 429              		.loc 1 436 0
 430 00ec A246     		mov	r10, r4
 431              	.LVL117:
 449:.\DSP\Source\TransformFunctions/arm_rfft_fast_f32.c **** 
 432              		.loc 1 449 0
 433 00ee B946     		mov	r9, r7
 434              	.LVL118:
 435              	.L5:
 425:.\DSP\Source\TransformFunctions/arm_rfft_fast_f32.c ****    {
 436              		.loc 1 425 0
 437 00f0 B8F1000F 		cmp	r8, #0
 438 00f4 ABDC     		bgt	.L6
 454:.\DSP\Source\TransformFunctions/arm_rfft_fast_f32.c ****    }
 455:.\DSP\Source\TransformFunctions/arm_rfft_fast_f32.c **** 
 456:.\DSP\Source\TransformFunctions/arm_rfft_fast_f32.c **** }
 439              		.loc 1 456 0
 440 00f6 09B0     		add	sp, sp, #36
 441              		.cfi_def_cfa_offset 36
 442              		@ sp needed
 443 00f8 BDE8F08F 		pop	{r4, r5, r6, r7, r8, r9, r10, fp, pc}
 444              		.cfi_endproc
 445              	.LFE85:
 446              		.size	merge_rfft_f32, .-merge_rfft_f32
 447              		.section	.text.arm_rfft_fast_f32,"ax",%progbits
 448              		.align	2
 449              		.global	arm_rfft_fast_f32
 450              		.thumb
 451              		.thumb_func
ARM GAS  C:\Users\IVYLIU~1\AppData\Local\Temp\ccCkPSHu.s 			page 17


 452              		.type	arm_rfft_fast_f32, %function
 453              	arm_rfft_fast_f32:
 454              	.LFB86:
 457:.\DSP\Source\TransformFunctions/arm_rfft_fast_f32.c **** 
 458:.\DSP\Source\TransformFunctions/arm_rfft_fast_f32.c **** #endif /* defined(ARM_MATH_MVEF) && !defined(ARM_MATH_AUTOVECTORIZE) */
 459:.\DSP\Source\TransformFunctions/arm_rfft_fast_f32.c **** 
 460:.\DSP\Source\TransformFunctions/arm_rfft_fast_f32.c **** /**
 461:.\DSP\Source\TransformFunctions/arm_rfft_fast_f32.c ****   @ingroup groupTransforms
 462:.\DSP\Source\TransformFunctions/arm_rfft_fast_f32.c **** */
 463:.\DSP\Source\TransformFunctions/arm_rfft_fast_f32.c **** 
 464:.\DSP\Source\TransformFunctions/arm_rfft_fast_f32.c **** /**
 465:.\DSP\Source\TransformFunctions/arm_rfft_fast_f32.c ****   @defgroup RealFFT Real FFT Functions
 466:.\DSP\Source\TransformFunctions/arm_rfft_fast_f32.c ****  
 467:.\DSP\Source\TransformFunctions/arm_rfft_fast_f32.c ****   @par
 468:.\DSP\Source\TransformFunctions/arm_rfft_fast_f32.c ****                    The CMSIS DSP library includes specialized algorithms for computing the
 469:.\DSP\Source\TransformFunctions/arm_rfft_fast_f32.c ****                    FFT of real data sequences.  The FFT is defined over complex data but
 470:.\DSP\Source\TransformFunctions/arm_rfft_fast_f32.c ****                    in many applications the input is real.  Real FFT algorithms take advantage
 471:.\DSP\Source\TransformFunctions/arm_rfft_fast_f32.c ****                    of the symmetry properties of the FFT and have a speed advantage over complex
 472:.\DSP\Source\TransformFunctions/arm_rfft_fast_f32.c ****                    algorithms of the same length.
 473:.\DSP\Source\TransformFunctions/arm_rfft_fast_f32.c ****   @par
 474:.\DSP\Source\TransformFunctions/arm_rfft_fast_f32.c ****                    The Fast RFFT algorithm relays on the mixed radix CFFT that save processor usage
 475:.\DSP\Source\TransformFunctions/arm_rfft_fast_f32.c ****   @par
 476:.\DSP\Source\TransformFunctions/arm_rfft_fast_f32.c ****                    The real length N forward FFT of a sequence is computed using the steps shown be
 477:.\DSP\Source\TransformFunctions/arm_rfft_fast_f32.c ****   @par
 478:.\DSP\Source\TransformFunctions/arm_rfft_fast_f32.c ****                    \image html RFFT.gif "Real Fast Fourier Transform"
 479:.\DSP\Source\TransformFunctions/arm_rfft_fast_f32.c ****   @par
 480:.\DSP\Source\TransformFunctions/arm_rfft_fast_f32.c ****                    The real sequence is initially treated as if it were complex to perform a CFFT.
 481:.\DSP\Source\TransformFunctions/arm_rfft_fast_f32.c ****                    Later, a processing stage reshapes the data to obtain half of the frequency spec
 482:.\DSP\Source\TransformFunctions/arm_rfft_fast_f32.c ****                    in complex format. Except the first complex number that contains the two real nu
 483:.\DSP\Source\TransformFunctions/arm_rfft_fast_f32.c ****                    X[0] and X[N/2] all the data is complex. In other words, the first complex sampl
 484:.\DSP\Source\TransformFunctions/arm_rfft_fast_f32.c ****                    contains two real values packed.
 485:.\DSP\Source\TransformFunctions/arm_rfft_fast_f32.c ****   @par
 486:.\DSP\Source\TransformFunctions/arm_rfft_fast_f32.c ****                    The input for the inverse RFFT should keep the same format as the output of the
 487:.\DSP\Source\TransformFunctions/arm_rfft_fast_f32.c ****                    forward RFFT. A first processing stage pre-process the data to later perform an
 488:.\DSP\Source\TransformFunctions/arm_rfft_fast_f32.c ****                    inverse CFFT.
 489:.\DSP\Source\TransformFunctions/arm_rfft_fast_f32.c ****   @par
 490:.\DSP\Source\TransformFunctions/arm_rfft_fast_f32.c ****                    \image html RIFFT.gif "Real Inverse Fast Fourier Transform"
 491:.\DSP\Source\TransformFunctions/arm_rfft_fast_f32.c ****   @par
 492:.\DSP\Source\TransformFunctions/arm_rfft_fast_f32.c ****                    The algorithms for floating-point, Q15, and Q31 data are slightly different
 493:.\DSP\Source\TransformFunctions/arm_rfft_fast_f32.c ****                    and we describe each algorithm in turn.
 494:.\DSP\Source\TransformFunctions/arm_rfft_fast_f32.c ****   @par           Floating-point
 495:.\DSP\Source\TransformFunctions/arm_rfft_fast_f32.c ****                    The main functions are \ref arm_rfft_fast_f32() and \ref arm_rfft_fast_init_f32(
 496:.\DSP\Source\TransformFunctions/arm_rfft_fast_f32.c ****                    The older functions \ref arm_rfft_f32() and \ref arm_rfft_init_f32() have been d
 497:.\DSP\Source\TransformFunctions/arm_rfft_fast_f32.c ****                    but are still documented.
 498:.\DSP\Source\TransformFunctions/arm_rfft_fast_f32.c ****   @par
 499:.\DSP\Source\TransformFunctions/arm_rfft_fast_f32.c ****                    The FFT of a real N-point sequence has even symmetry in the frequency domain. 
 500:.\DSP\Source\TransformFunctions/arm_rfft_fast_f32.c ****                    The second half of the data equals the conjugate of the first half flipped in fr
 501:.\DSP\Source\TransformFunctions/arm_rfft_fast_f32.c ****                    Looking at the data, we see that we can uniquely represent the FFT using only N/
 502:.\DSP\Source\TransformFunctions/arm_rfft_fast_f32.c ****                    These are packed into the output array in alternating real and imaginary compone
 503:.\DSP\Source\TransformFunctions/arm_rfft_fast_f32.c ****   @par
 504:.\DSP\Source\TransformFunctions/arm_rfft_fast_f32.c ****                    X = { real[0], imag[0], real[1], imag[1], real[2], imag[2] ...
 505:.\DSP\Source\TransformFunctions/arm_rfft_fast_f32.c ****                    real[(N/2)-1], imag[(N/2)-1 }
 506:.\DSP\Source\TransformFunctions/arm_rfft_fast_f32.c ****   @par
 507:.\DSP\Source\TransformFunctions/arm_rfft_fast_f32.c ****                    It happens that the first complex number (real[0], imag[0]) is actually
 508:.\DSP\Source\TransformFunctions/arm_rfft_fast_f32.c ****                    all real. real[0] represents the DC offset, and imag[0] should be 0.
 509:.\DSP\Source\TransformFunctions/arm_rfft_fast_f32.c ****                    (real[1], imag[1]) is the fundamental frequency, (real[2], imag[2]) is
 510:.\DSP\Source\TransformFunctions/arm_rfft_fast_f32.c ****                    the first harmonic and so on.
ARM GAS  C:\Users\IVYLIU~1\AppData\Local\Temp\ccCkPSHu.s 			page 18


 511:.\DSP\Source\TransformFunctions/arm_rfft_fast_f32.c ****   @par
 512:.\DSP\Source\TransformFunctions/arm_rfft_fast_f32.c ****                    The real FFT functions pack the frequency domain data in this fashion.
 513:.\DSP\Source\TransformFunctions/arm_rfft_fast_f32.c ****                    The forward transform outputs the data in this form and the inverse
 514:.\DSP\Source\TransformFunctions/arm_rfft_fast_f32.c ****                    transform expects input data in this form. The function always performs
 515:.\DSP\Source\TransformFunctions/arm_rfft_fast_f32.c ****                    the needed bitreversal so that the input and output data is always in
 516:.\DSP\Source\TransformFunctions/arm_rfft_fast_f32.c ****                    normal order. The functions support lengths of [32, 64, 128, ..., 4096]
 517:.\DSP\Source\TransformFunctions/arm_rfft_fast_f32.c ****                    samples.
 518:.\DSP\Source\TransformFunctions/arm_rfft_fast_f32.c ****   @par           Q15 and Q31
 519:.\DSP\Source\TransformFunctions/arm_rfft_fast_f32.c ****                    The real algorithms are defined in a similar manner and utilize N/2 complex
 520:.\DSP\Source\TransformFunctions/arm_rfft_fast_f32.c ****                    transforms behind the scenes.
 521:.\DSP\Source\TransformFunctions/arm_rfft_fast_f32.c ****   @par
 522:.\DSP\Source\TransformFunctions/arm_rfft_fast_f32.c ****                    The complex transforms used internally include scaling to prevent fixed-point
 523:.\DSP\Source\TransformFunctions/arm_rfft_fast_f32.c ****                    overflows.  The overall scaling equals 1/(fftLen/2).
 524:.\DSP\Source\TransformFunctions/arm_rfft_fast_f32.c ****                    Due to the use of complex transform internally, the source buffer is
 525:.\DSP\Source\TransformFunctions/arm_rfft_fast_f32.c ****                    modified by the rfft.
 526:.\DSP\Source\TransformFunctions/arm_rfft_fast_f32.c ****   @par
 527:.\DSP\Source\TransformFunctions/arm_rfft_fast_f32.c ****                    A separate instance structure must be defined for each transform used but
 528:.\DSP\Source\TransformFunctions/arm_rfft_fast_f32.c ****                    twiddle factor and bit reversal tables can be reused.
 529:.\DSP\Source\TransformFunctions/arm_rfft_fast_f32.c ****   @par
 530:.\DSP\Source\TransformFunctions/arm_rfft_fast_f32.c ****                    There is also an associated initialization function for each data type.
 531:.\DSP\Source\TransformFunctions/arm_rfft_fast_f32.c ****                    The initialization function performs the following operations:
 532:.\DSP\Source\TransformFunctions/arm_rfft_fast_f32.c ****                     - Sets the values of the internal structure fields.
 533:.\DSP\Source\TransformFunctions/arm_rfft_fast_f32.c ****                     - Initializes twiddle factor table and bit reversal table pointers.
 534:.\DSP\Source\TransformFunctions/arm_rfft_fast_f32.c ****                     - Initializes the internal complex FFT data structure.
 535:.\DSP\Source\TransformFunctions/arm_rfft_fast_f32.c ****   @par
 536:.\DSP\Source\TransformFunctions/arm_rfft_fast_f32.c ****                    Use of the initialization function is optional **except for MVE versions where i
 537:.\DSP\Source\TransformFunctions/arm_rfft_fast_f32.c ****                    If you don't use the initialization functions, then the structures should be ini
 538:.\DSP\Source\TransformFunctions/arm_rfft_fast_f32.c ****                    similar to the one below:
 539:.\DSP\Source\TransformFunctions/arm_rfft_fast_f32.c ****   <pre>
 540:.\DSP\Source\TransformFunctions/arm_rfft_fast_f32.c ****       arm_rfft_instance_q31 S = {fftLenReal, fftLenBy2, ifftFlagR, bitReverseFlagR, twidCoefRModifi
 541:.\DSP\Source\TransformFunctions/arm_rfft_fast_f32.c ****       arm_rfft_instance_q15 S = {fftLenReal, fftLenBy2, ifftFlagR, bitReverseFlagR, twidCoefRModifi
 542:.\DSP\Source\TransformFunctions/arm_rfft_fast_f32.c ****   </pre>
 543:.\DSP\Source\TransformFunctions/arm_rfft_fast_f32.c ****                    where <code>fftLenReal</code> is the length of the real transform;
 544:.\DSP\Source\TransformFunctions/arm_rfft_fast_f32.c ****                    <code>fftLenBy2</code> length of  the internal complex transform (fftLenReal/2).
 545:.\DSP\Source\TransformFunctions/arm_rfft_fast_f32.c ****                    <code>ifftFlagR</code> Selects forward (=0) or inverse (=1) transform.
 546:.\DSP\Source\TransformFunctions/arm_rfft_fast_f32.c ****                    <code>bitReverseFlagR</code> Selects bit reversed output (=0) or normal order
 547:.\DSP\Source\TransformFunctions/arm_rfft_fast_f32.c ****                    output (=1).
 548:.\DSP\Source\TransformFunctions/arm_rfft_fast_f32.c ****                    <code>twidCoefRModifier</code> stride modifier for the twiddle factor table.
 549:.\DSP\Source\TransformFunctions/arm_rfft_fast_f32.c ****                    The value is based on the FFT length;
 550:.\DSP\Source\TransformFunctions/arm_rfft_fast_f32.c ****                    <code>pTwiddleAReal</code>points to the A array of twiddle coefficients;
 551:.\DSP\Source\TransformFunctions/arm_rfft_fast_f32.c ****                    <code>pTwiddleBReal</code>points to the B array of twiddle coefficients;
 552:.\DSP\Source\TransformFunctions/arm_rfft_fast_f32.c ****                    <code>pCfft</code> points to the CFFT Instance structure. The CFFT structure
 553:.\DSP\Source\TransformFunctions/arm_rfft_fast_f32.c ****                    must also be initialized.  
 554:.\DSP\Source\TransformFunctions/arm_rfft_fast_f32.c **** @par
 555:.\DSP\Source\TransformFunctions/arm_rfft_fast_f32.c ****                    Note that with MVE versions you can't initialize instance structures directly an
 556:.\DSP\Source\TransformFunctions/arm_rfft_fast_f32.c ****                    use the initialization function**.
 557:.\DSP\Source\TransformFunctions/arm_rfft_fast_f32.c ****  */
 558:.\DSP\Source\TransformFunctions/arm_rfft_fast_f32.c **** 
 559:.\DSP\Source\TransformFunctions/arm_rfft_fast_f32.c **** /**
 560:.\DSP\Source\TransformFunctions/arm_rfft_fast_f32.c ****   @addtogroup RealFFT
 561:.\DSP\Source\TransformFunctions/arm_rfft_fast_f32.c ****   @{
 562:.\DSP\Source\TransformFunctions/arm_rfft_fast_f32.c **** */
 563:.\DSP\Source\TransformFunctions/arm_rfft_fast_f32.c **** 
 564:.\DSP\Source\TransformFunctions/arm_rfft_fast_f32.c **** /**
 565:.\DSP\Source\TransformFunctions/arm_rfft_fast_f32.c ****   @brief         Processing function for the floating-point real FFT.
 566:.\DSP\Source\TransformFunctions/arm_rfft_fast_f32.c ****   @param[in]     S         points to an arm_rfft_fast_instance_f32 structure
 567:.\DSP\Source\TransformFunctions/arm_rfft_fast_f32.c ****   @param[in]     p         points to input buffer (Source buffer is modified by this function.)
ARM GAS  C:\Users\IVYLIU~1\AppData\Local\Temp\ccCkPSHu.s 			page 19


 568:.\DSP\Source\TransformFunctions/arm_rfft_fast_f32.c ****   @param[in]     pOut      points to output buffer
 569:.\DSP\Source\TransformFunctions/arm_rfft_fast_f32.c ****   @param[in]     ifftFlag
 570:.\DSP\Source\TransformFunctions/arm_rfft_fast_f32.c ****                    - value = 0: RFFT
 571:.\DSP\Source\TransformFunctions/arm_rfft_fast_f32.c ****                    - value = 1: RIFFT
 572:.\DSP\Source\TransformFunctions/arm_rfft_fast_f32.c ****   @return        none
 573:.\DSP\Source\TransformFunctions/arm_rfft_fast_f32.c **** */
 574:.\DSP\Source\TransformFunctions/arm_rfft_fast_f32.c **** 
 575:.\DSP\Source\TransformFunctions/arm_rfft_fast_f32.c **** void arm_rfft_fast_f32(
 576:.\DSP\Source\TransformFunctions/arm_rfft_fast_f32.c ****   const arm_rfft_fast_instance_f32 * S,
 577:.\DSP\Source\TransformFunctions/arm_rfft_fast_f32.c ****   float32_t * p,
 578:.\DSP\Source\TransformFunctions/arm_rfft_fast_f32.c ****   float32_t * pOut,
 579:.\DSP\Source\TransformFunctions/arm_rfft_fast_f32.c ****   uint8_t ifftFlag)
 580:.\DSP\Source\TransformFunctions/arm_rfft_fast_f32.c **** {
 455              		.loc 1 580 0
 456              		.cfi_startproc
 457              		@ args = 0, pretend = 0, frame = 0
 458              		@ frame_needed = 0, uses_anonymous_args = 0
 459              	.LVL119:
 460 0000 F8B5     		push	{r3, r4, r5, r6, r7, lr}
 461              		.cfi_def_cfa_offset 24
 462              		.cfi_offset 3, -24
 463              		.cfi_offset 4, -20
 464              		.cfi_offset 5, -16
 465              		.cfi_offset 6, -12
 466              		.cfi_offset 7, -8
 467              		.cfi_offset 14, -4
 468 0002 0446     		mov	r4, r0
 469 0004 0D46     		mov	r5, r1
 470 0006 1646     		mov	r6, r2
 471              	.LVL120:
 581:.\DSP\Source\TransformFunctions/arm_rfft_fast_f32.c ****    const arm_cfft_instance_f32 * Sint = &(S->Sint);
 582:.\DSP\Source\TransformFunctions/arm_rfft_fast_f32.c **** 
 583:.\DSP\Source\TransformFunctions/arm_rfft_fast_f32.c ****    /* Calculation of Real FFT */
 584:.\DSP\Source\TransformFunctions/arm_rfft_fast_f32.c ****    if (ifftFlag)
 472              		.loc 1 584 0
 473 0008 1F46     		mov	r7, r3
 474 000a 43B1     		cbz	r3, .L9
 585:.\DSP\Source\TransformFunctions/arm_rfft_fast_f32.c ****    {
 586:.\DSP\Source\TransformFunctions/arm_rfft_fast_f32.c ****       /*  Real FFT compression */
 587:.\DSP\Source\TransformFunctions/arm_rfft_fast_f32.c ****       merge_rfft_f32(S, p, pOut);
 475              		.loc 1 587 0
 476 000c FFF7FEFF 		bl	merge_rfft_f32
 477              	.LVL121:
 588:.\DSP\Source\TransformFunctions/arm_rfft_fast_f32.c ****       /* Complex radix-4 IFFT process */
 589:.\DSP\Source\TransformFunctions/arm_rfft_fast_f32.c ****       arm_cfft_f32( Sint, pOut, ifftFlag, 1);
 478              		.loc 1 589 0
 479 0010 2046     		mov	r0, r4
 480 0012 3146     		mov	r1, r6
 481 0014 3A46     		mov	r2, r7
 482 0016 0123     		movs	r3, #1
 483 0018 FFF7FEFF 		bl	arm_cfft_f32
 484              	.LVL122:
 485 001c F8BD     		pop	{r3, r4, r5, r6, r7, pc}
 486              	.LVL123:
 487              	.L9:
 590:.\DSP\Source\TransformFunctions/arm_rfft_fast_f32.c ****    }
 591:.\DSP\Source\TransformFunctions/arm_rfft_fast_f32.c ****    else
ARM GAS  C:\Users\IVYLIU~1\AppData\Local\Temp\ccCkPSHu.s 			page 20


 592:.\DSP\Source\TransformFunctions/arm_rfft_fast_f32.c ****    {
 593:.\DSP\Source\TransformFunctions/arm_rfft_fast_f32.c ****       /* Calculation of RFFT of input */
 594:.\DSP\Source\TransformFunctions/arm_rfft_fast_f32.c ****       arm_cfft_f32( Sint, p, ifftFlag, 1);
 488              		.loc 1 594 0
 489 001e 1A46     		mov	r2, r3
 490              	.LVL124:
 491 0020 0123     		movs	r3, #1
 492              	.LVL125:
 493 0022 FFF7FEFF 		bl	arm_cfft_f32
 494              	.LVL126:
 595:.\DSP\Source\TransformFunctions/arm_rfft_fast_f32.c **** 
 596:.\DSP\Source\TransformFunctions/arm_rfft_fast_f32.c ****       /*  Real FFT extraction */
 597:.\DSP\Source\TransformFunctions/arm_rfft_fast_f32.c ****       stage_rfft_f32(S, p, pOut);
 495              		.loc 1 597 0
 496 0026 2046     		mov	r0, r4
 497 0028 2946     		mov	r1, r5
 498 002a 3246     		mov	r2, r6
 499 002c FFF7FEFF 		bl	stage_rfft_f32
 500              	.LVL127:
 501 0030 F8BD     		pop	{r3, r4, r5, r6, r7, pc}
 502              		.cfi_endproc
 503              	.LFE86:
 504              		.size	arm_rfft_fast_f32, .-arm_rfft_fast_f32
 505 0032 00BF     		.text
 506              	.Letext0:
 507              		.file 2 "c:\\program files (x86)\\cypress\\psoc creator\\3.3\\psoc creator\\import\\gnu\\arm\\4.9.
 508              		.file 3 "c:\\program files (x86)\\cypress\\psoc creator\\3.3\\psoc creator\\import\\gnu\\arm\\4.9.
 509              		.file 4 ".\\DSP\\Include/arm_math_types.h"
 510              		.file 5 ".\\DSP\\Include/dsp/transform_functions.h"
 511              		.file 6 ".\\Core\\Include/cmsis_gcc.h"