ARM GAS  C:\Users\IVYLIU~1\AppData\Local\Temp\cc4rI5mx.s 			page 1


   1              		.syntax unified
   2              		.cpu cortex-m3
   3              		.fpu softvfp
   4              		.eabi_attribute 20, 1
   5              		.eabi_attribute 21, 1
   6              		.eabi_attribute 23, 3
   7              		.eabi_attribute 24, 1
   8              		.eabi_attribute 25, 1
   9              		.eabi_attribute 26, 1
  10              		.eabi_attribute 30, 1
  11              		.eabi_attribute 34, 1
  12              		.eabi_attribute 18, 4
  13              		.thumb
  14              		.file	"arm_cfft_radix4_q15.c"
  15              		.text
  16              	.Ltext0:
  17              		.cfi_sections	.debug_frame
  18              		.section	.text.arm_radix4_butterfly_q15,"ax",%progbits
  19              		.align	2
  20              		.global	arm_radix4_butterfly_q15
  21              		.thumb
  22              		.thumb_func
  23              		.type	arm_radix4_butterfly_q15, %function
  24              	arm_radix4_butterfly_q15:
  25              	.LFB85:
  26              		.file 1 ".\\DSP\\Source\\TransformFunctions\\arm_cfft_radix4_q15.c"
   1:.\DSP\Source\TransformFunctions/arm_cfft_radix4_q15.c **** /* ----------------------------------------------------------------------
   2:.\DSP\Source\TransformFunctions/arm_cfft_radix4_q15.c ****  * Project:      CMSIS DSP Library
   3:.\DSP\Source\TransformFunctions/arm_cfft_radix4_q15.c ****  * Title:        arm_cfft_radix4_q15.c
   4:.\DSP\Source\TransformFunctions/arm_cfft_radix4_q15.c ****  * Description:  This file has function definition of Radix-4 FFT & IFFT function and
   5:.\DSP\Source\TransformFunctions/arm_cfft_radix4_q15.c ****  *               In-place bit reversal using bit reversal table
   6:.\DSP\Source\TransformFunctions/arm_cfft_radix4_q15.c ****  *
   7:.\DSP\Source\TransformFunctions/arm_cfft_radix4_q15.c ****  * $Date:        23 April 2021
   8:.\DSP\Source\TransformFunctions/arm_cfft_radix4_q15.c ****  * $Revision:    V1.9.0
   9:.\DSP\Source\TransformFunctions/arm_cfft_radix4_q15.c ****  *
  10:.\DSP\Source\TransformFunctions/arm_cfft_radix4_q15.c ****  * Target Processor: Cortex-M and Cortex-A cores
  11:.\DSP\Source\TransformFunctions/arm_cfft_radix4_q15.c ****  * -------------------------------------------------------------------- */
  12:.\DSP\Source\TransformFunctions/arm_cfft_radix4_q15.c **** /*
  13:.\DSP\Source\TransformFunctions/arm_cfft_radix4_q15.c ****  * Copyright (C) 2010-2021 ARM Limited or its affiliates. All rights reserved.
  14:.\DSP\Source\TransformFunctions/arm_cfft_radix4_q15.c ****  *
  15:.\DSP\Source\TransformFunctions/arm_cfft_radix4_q15.c ****  * SPDX-License-Identifier: Apache-2.0
  16:.\DSP\Source\TransformFunctions/arm_cfft_radix4_q15.c ****  *
  17:.\DSP\Source\TransformFunctions/arm_cfft_radix4_q15.c ****  * Licensed under the Apache License, Version 2.0 (the License); you may
  18:.\DSP\Source\TransformFunctions/arm_cfft_radix4_q15.c ****  * not use this file except in compliance with the License.
  19:.\DSP\Source\TransformFunctions/arm_cfft_radix4_q15.c ****  * You may obtain a copy of the License at
  20:.\DSP\Source\TransformFunctions/arm_cfft_radix4_q15.c ****  *
  21:.\DSP\Source\TransformFunctions/arm_cfft_radix4_q15.c ****  * www.apache.org/licenses/LICENSE-2.0
  22:.\DSP\Source\TransformFunctions/arm_cfft_radix4_q15.c ****  *
  23:.\DSP\Source\TransformFunctions/arm_cfft_radix4_q15.c ****  * Unless required by applicable law or agreed to in writing, software
  24:.\DSP\Source\TransformFunctions/arm_cfft_radix4_q15.c ****  * distributed under the License is distributed on an AS IS BASIS, WITHOUT
  25:.\DSP\Source\TransformFunctions/arm_cfft_radix4_q15.c ****  * WARRANTIES OR CONDITIONS OF ANY KIND, either express or implied.
  26:.\DSP\Source\TransformFunctions/arm_cfft_radix4_q15.c ****  * See the License for the specific language governing permissions and
  27:.\DSP\Source\TransformFunctions/arm_cfft_radix4_q15.c ****  * limitations under the License.
  28:.\DSP\Source\TransformFunctions/arm_cfft_radix4_q15.c ****  */
  29:.\DSP\Source\TransformFunctions/arm_cfft_radix4_q15.c **** 
  30:.\DSP\Source\TransformFunctions/arm_cfft_radix4_q15.c **** #include "dsp/transform_functions.h"
  31:.\DSP\Source\TransformFunctions/arm_cfft_radix4_q15.c **** 
ARM GAS  C:\Users\IVYLIU~1\AppData\Local\Temp\cc4rI5mx.s 			page 2


  32:.\DSP\Source\TransformFunctions/arm_cfft_radix4_q15.c **** 
  33:.\DSP\Source\TransformFunctions/arm_cfft_radix4_q15.c **** void arm_radix4_butterfly_q15(
  34:.\DSP\Source\TransformFunctions/arm_cfft_radix4_q15.c ****         q15_t * pSrc16,
  35:.\DSP\Source\TransformFunctions/arm_cfft_radix4_q15.c ****         uint32_t fftLen,
  36:.\DSP\Source\TransformFunctions/arm_cfft_radix4_q15.c ****   const q15_t * pCoef16,
  37:.\DSP\Source\TransformFunctions/arm_cfft_radix4_q15.c ****         uint32_t twidCoefModifier);
  38:.\DSP\Source\TransformFunctions/arm_cfft_radix4_q15.c **** 
  39:.\DSP\Source\TransformFunctions/arm_cfft_radix4_q15.c **** void arm_radix4_butterfly_inverse_q15(
  40:.\DSP\Source\TransformFunctions/arm_cfft_radix4_q15.c ****         q15_t * pSrc16,
  41:.\DSP\Source\TransformFunctions/arm_cfft_radix4_q15.c ****         uint32_t fftLen,
  42:.\DSP\Source\TransformFunctions/arm_cfft_radix4_q15.c ****   const q15_t * pCoef16,
  43:.\DSP\Source\TransformFunctions/arm_cfft_radix4_q15.c ****         uint32_t twidCoefModifier);
  44:.\DSP\Source\TransformFunctions/arm_cfft_radix4_q15.c **** 
  45:.\DSP\Source\TransformFunctions/arm_cfft_radix4_q15.c **** void arm_bitreversal_q15(
  46:.\DSP\Source\TransformFunctions/arm_cfft_radix4_q15.c ****         q15_t * pSrc,
  47:.\DSP\Source\TransformFunctions/arm_cfft_radix4_q15.c ****         uint32_t fftLen,
  48:.\DSP\Source\TransformFunctions/arm_cfft_radix4_q15.c ****         uint16_t bitRevFactor,
  49:.\DSP\Source\TransformFunctions/arm_cfft_radix4_q15.c ****   const uint16_t * pBitRevTab);
  50:.\DSP\Source\TransformFunctions/arm_cfft_radix4_q15.c **** 
  51:.\DSP\Source\TransformFunctions/arm_cfft_radix4_q15.c **** /**
  52:.\DSP\Source\TransformFunctions/arm_cfft_radix4_q15.c ****   @ingroup groupTransforms
  53:.\DSP\Source\TransformFunctions/arm_cfft_radix4_q15.c ****  */
  54:.\DSP\Source\TransformFunctions/arm_cfft_radix4_q15.c **** 
  55:.\DSP\Source\TransformFunctions/arm_cfft_radix4_q15.c **** /**
  56:.\DSP\Source\TransformFunctions/arm_cfft_radix4_q15.c ****   @addtogroup ComplexFFT
  57:.\DSP\Source\TransformFunctions/arm_cfft_radix4_q15.c ****   @{
  58:.\DSP\Source\TransformFunctions/arm_cfft_radix4_q15.c ****  */
  59:.\DSP\Source\TransformFunctions/arm_cfft_radix4_q15.c **** 
  60:.\DSP\Source\TransformFunctions/arm_cfft_radix4_q15.c **** 
  61:.\DSP\Source\TransformFunctions/arm_cfft_radix4_q15.c **** /**
  62:.\DSP\Source\TransformFunctions/arm_cfft_radix4_q15.c ****   @brief               Processing function for the Q15 CFFT/CIFFT.
  63:.\DSP\Source\TransformFunctions/arm_cfft_radix4_q15.c ****   @deprecated          Do not use this function.  It has been superseded by \ref arm_cfft_q15 and w
  64:.\DSP\Source\TransformFunctions/arm_cfft_radix4_q15.c ****   @param[in]     S     points to an instance of the Q15 CFFT/CIFFT structure.
  65:.\DSP\Source\TransformFunctions/arm_cfft_radix4_q15.c ****   @param[in,out] pSrc  points to the complex data buffer. Processing occurs in-place.
  66:.\DSP\Source\TransformFunctions/arm_cfft_radix4_q15.c ****   @return        none
  67:.\DSP\Source\TransformFunctions/arm_cfft_radix4_q15.c ****  
  68:.\DSP\Source\TransformFunctions/arm_cfft_radix4_q15.c ****   @par Input and output formats:
  69:.\DSP\Source\TransformFunctions/arm_cfft_radix4_q15.c ****                  Internally input is downscaled by 2 for every stage to avoid saturations inside CF
  70:.\DSP\Source\TransformFunctions/arm_cfft_radix4_q15.c ****                  Hence the output format is different for different FFT sizes.
  71:.\DSP\Source\TransformFunctions/arm_cfft_radix4_q15.c ****                  The input and output formats for different FFT sizes and number of bits to upscale
  72:.\DSP\Source\TransformFunctions/arm_cfft_radix4_q15.c ****   @par
  73:.\DSP\Source\TransformFunctions/arm_cfft_radix4_q15.c ****                  \image html CFFTQ15.gif "Input and Output Formats for Q15 CFFT"
  74:.\DSP\Source\TransformFunctions/arm_cfft_radix4_q15.c ****                  \image html CIFFTQ15.gif "Input and Output Formats for Q15 CIFFT"
  75:.\DSP\Source\TransformFunctions/arm_cfft_radix4_q15.c ****  */
  76:.\DSP\Source\TransformFunctions/arm_cfft_radix4_q15.c **** 
  77:.\DSP\Source\TransformFunctions/arm_cfft_radix4_q15.c **** void arm_cfft_radix4_q15(
  78:.\DSP\Source\TransformFunctions/arm_cfft_radix4_q15.c ****   const arm_cfft_radix4_instance_q15 * S,
  79:.\DSP\Source\TransformFunctions/arm_cfft_radix4_q15.c ****         q15_t * pSrc)
  80:.\DSP\Source\TransformFunctions/arm_cfft_radix4_q15.c **** {
  81:.\DSP\Source\TransformFunctions/arm_cfft_radix4_q15.c ****   if (S->ifftFlag == 1U)
  82:.\DSP\Source\TransformFunctions/arm_cfft_radix4_q15.c ****   {
  83:.\DSP\Source\TransformFunctions/arm_cfft_radix4_q15.c ****     /*  Complex IFFT radix-4  */
  84:.\DSP\Source\TransformFunctions/arm_cfft_radix4_q15.c ****     arm_radix4_butterfly_inverse_q15(pSrc, S->fftLen, S->pTwiddle, S->twidCoefModifier);
  85:.\DSP\Source\TransformFunctions/arm_cfft_radix4_q15.c ****   }
  86:.\DSP\Source\TransformFunctions/arm_cfft_radix4_q15.c ****   else
  87:.\DSP\Source\TransformFunctions/arm_cfft_radix4_q15.c ****   {
  88:.\DSP\Source\TransformFunctions/arm_cfft_radix4_q15.c ****     /*  Complex FFT radix-4  */
ARM GAS  C:\Users\IVYLIU~1\AppData\Local\Temp\cc4rI5mx.s 			page 3


  89:.\DSP\Source\TransformFunctions/arm_cfft_radix4_q15.c ****     arm_radix4_butterfly_q15(pSrc, S->fftLen, S->pTwiddle, S->twidCoefModifier);
  90:.\DSP\Source\TransformFunctions/arm_cfft_radix4_q15.c ****   }
  91:.\DSP\Source\TransformFunctions/arm_cfft_radix4_q15.c **** 
  92:.\DSP\Source\TransformFunctions/arm_cfft_radix4_q15.c ****   if (S->bitReverseFlag == 1U)
  93:.\DSP\Source\TransformFunctions/arm_cfft_radix4_q15.c ****   {
  94:.\DSP\Source\TransformFunctions/arm_cfft_radix4_q15.c ****     /*  Bit Reversal */
  95:.\DSP\Source\TransformFunctions/arm_cfft_radix4_q15.c ****     arm_bitreversal_q15(pSrc, S->fftLen, S->bitRevFactor, S->pBitRevTable);
  96:.\DSP\Source\TransformFunctions/arm_cfft_radix4_q15.c ****   }
  97:.\DSP\Source\TransformFunctions/arm_cfft_radix4_q15.c **** 
  98:.\DSP\Source\TransformFunctions/arm_cfft_radix4_q15.c **** }
  99:.\DSP\Source\TransformFunctions/arm_cfft_radix4_q15.c **** 
 100:.\DSP\Source\TransformFunctions/arm_cfft_radix4_q15.c **** /**
 101:.\DSP\Source\TransformFunctions/arm_cfft_radix4_q15.c ****   @} end of ComplexFFT group
 102:.\DSP\Source\TransformFunctions/arm_cfft_radix4_q15.c ****  */
 103:.\DSP\Source\TransformFunctions/arm_cfft_radix4_q15.c **** 
 104:.\DSP\Source\TransformFunctions/arm_cfft_radix4_q15.c **** /*
 105:.\DSP\Source\TransformFunctions/arm_cfft_radix4_q15.c ****  * Radix-4 FFT algorithm used is :
 106:.\DSP\Source\TransformFunctions/arm_cfft_radix4_q15.c ****  *
 107:.\DSP\Source\TransformFunctions/arm_cfft_radix4_q15.c ****  * Input real and imaginary data:
 108:.\DSP\Source\TransformFunctions/arm_cfft_radix4_q15.c ****  * x(n) = xa + j * ya
 109:.\DSP\Source\TransformFunctions/arm_cfft_radix4_q15.c ****  * x(n+N/4 ) = xb + j * yb
 110:.\DSP\Source\TransformFunctions/arm_cfft_radix4_q15.c ****  * x(n+N/2 ) = xc + j * yc
 111:.\DSP\Source\TransformFunctions/arm_cfft_radix4_q15.c ****  * x(n+3N 4) = xd + j * yd
 112:.\DSP\Source\TransformFunctions/arm_cfft_radix4_q15.c ****  *
 113:.\DSP\Source\TransformFunctions/arm_cfft_radix4_q15.c ****  *
 114:.\DSP\Source\TransformFunctions/arm_cfft_radix4_q15.c ****  * Output real and imaginary data:
 115:.\DSP\Source\TransformFunctions/arm_cfft_radix4_q15.c ****  * x(4r) = xa'+ j * ya'
 116:.\DSP\Source\TransformFunctions/arm_cfft_radix4_q15.c ****  * x(4r+1) = xb'+ j * yb'
 117:.\DSP\Source\TransformFunctions/arm_cfft_radix4_q15.c ****  * x(4r+2) = xc'+ j * yc'
 118:.\DSP\Source\TransformFunctions/arm_cfft_radix4_q15.c ****  * x(4r+3) = xd'+ j * yd'
 119:.\DSP\Source\TransformFunctions/arm_cfft_radix4_q15.c ****  *
 120:.\DSP\Source\TransformFunctions/arm_cfft_radix4_q15.c ****  *
 121:.\DSP\Source\TransformFunctions/arm_cfft_radix4_q15.c ****  * Twiddle factors for radix-4 FFT:
 122:.\DSP\Source\TransformFunctions/arm_cfft_radix4_q15.c ****  * Wn = co1 + j * (- si1)
 123:.\DSP\Source\TransformFunctions/arm_cfft_radix4_q15.c ****  * W2n = co2 + j * (- si2)
 124:.\DSP\Source\TransformFunctions/arm_cfft_radix4_q15.c ****  * W3n = co3 + j * (- si3)
 125:.\DSP\Source\TransformFunctions/arm_cfft_radix4_q15.c ****  
 126:.\DSP\Source\TransformFunctions/arm_cfft_radix4_q15.c ****  * The real and imaginary output values for the radix-4 butterfly are
 127:.\DSP\Source\TransformFunctions/arm_cfft_radix4_q15.c ****  * xa' = xa + xb + xc + xd
 128:.\DSP\Source\TransformFunctions/arm_cfft_radix4_q15.c ****  * ya' = ya + yb + yc + yd
 129:.\DSP\Source\TransformFunctions/arm_cfft_radix4_q15.c ****  * xb' = (xa+yb-xc-yd)* co1 + (ya-xb-yc+xd)* (si1)
 130:.\DSP\Source\TransformFunctions/arm_cfft_radix4_q15.c ****  * yb' = (ya-xb-yc+xd)* co1 - (xa+yb-xc-yd)* (si1)
 131:.\DSP\Source\TransformFunctions/arm_cfft_radix4_q15.c ****  * xc' = (xa-xb+xc-xd)* co2 + (ya-yb+yc-yd)* (si2)
 132:.\DSP\Source\TransformFunctions/arm_cfft_radix4_q15.c ****  * yc' = (ya-yb+yc-yd)* co2 - (xa-xb+xc-xd)* (si2)
 133:.\DSP\Source\TransformFunctions/arm_cfft_radix4_q15.c ****  * xd' = (xa-yb-xc+yd)* co3 + (ya+xb-yc-xd)* (si3)
 134:.\DSP\Source\TransformFunctions/arm_cfft_radix4_q15.c ****  * yd' = (ya+xb-yc-xd)* co3 - (xa-yb-xc+yd)* (si3)
 135:.\DSP\Source\TransformFunctions/arm_cfft_radix4_q15.c ****  *
 136:.\DSP\Source\TransformFunctions/arm_cfft_radix4_q15.c ****  */
 137:.\DSP\Source\TransformFunctions/arm_cfft_radix4_q15.c **** 
 138:.\DSP\Source\TransformFunctions/arm_cfft_radix4_q15.c **** /**
 139:.\DSP\Source\TransformFunctions/arm_cfft_radix4_q15.c ****   @brief         Core function for the Q15 CFFT butterfly process.
 140:.\DSP\Source\TransformFunctions/arm_cfft_radix4_q15.c ****   @param[in,out] pSrc16          points to the in-place buffer of Q15 data type
 141:.\DSP\Source\TransformFunctions/arm_cfft_radix4_q15.c ****   @param[in]     fftLen           length of the FFT
 142:.\DSP\Source\TransformFunctions/arm_cfft_radix4_q15.c ****   @param[in]     pCoef16         points to twiddle coefficient buffer
 143:.\DSP\Source\TransformFunctions/arm_cfft_radix4_q15.c ****   @param[in]     twidCoefModifier twiddle coefficient modifier that supports different size FFTs wi
 144:.\DSP\Source\TransformFunctions/arm_cfft_radix4_q15.c ****   @return        none
 145:.\DSP\Source\TransformFunctions/arm_cfft_radix4_q15.c ****  */
ARM GAS  C:\Users\IVYLIU~1\AppData\Local\Temp\cc4rI5mx.s 			page 4


 146:.\DSP\Source\TransformFunctions/arm_cfft_radix4_q15.c **** 
 147:.\DSP\Source\TransformFunctions/arm_cfft_radix4_q15.c **** void arm_radix4_butterfly_q15(
 148:.\DSP\Source\TransformFunctions/arm_cfft_radix4_q15.c ****         q15_t * pSrc16,
 149:.\DSP\Source\TransformFunctions/arm_cfft_radix4_q15.c ****         uint32_t fftLen,
 150:.\DSP\Source\TransformFunctions/arm_cfft_radix4_q15.c ****   const q15_t * pCoef16,
 151:.\DSP\Source\TransformFunctions/arm_cfft_radix4_q15.c ****         uint32_t twidCoefModifier)
 152:.\DSP\Source\TransformFunctions/arm_cfft_radix4_q15.c **** {
  27              		.loc 1 152 0
  28              		.cfi_startproc
  29              		@ args = 0, pretend = 0, frame = 72
  30              		@ frame_needed = 0, uses_anonymous_args = 0
  31              	.LVL0:
  32 0000 2DE9F04F 		push	{r4, r5, r6, r7, r8, r9, r10, fp, lr}
  33              		.cfi_def_cfa_offset 36
  34              		.cfi_offset 4, -36
  35              		.cfi_offset 5, -32
  36              		.cfi_offset 6, -28
  37              		.cfi_offset 7, -24
  38              		.cfi_offset 8, -20
  39              		.cfi_offset 9, -16
  40              		.cfi_offset 10, -12
  41              		.cfi_offset 11, -8
  42              		.cfi_offset 14, -4
  43 0004 93B0     		sub	sp, sp, #76
  44              		.cfi_def_cfa_offset 112
  45 0006 8346     		mov	fp, r0
  46 0008 0591     		str	r1, [sp, #20]
  47 000a 1092     		str	r2, [sp, #64]
  48 000c 0993     		str	r3, [sp, #36]
  49              	.LVL1:
 153:.\DSP\Source\TransformFunctions/arm_cfft_radix4_q15.c **** 
 154:.\DSP\Source\TransformFunctions/arm_cfft_radix4_q15.c **** #if defined (ARM_MATH_DSP)
 155:.\DSP\Source\TransformFunctions/arm_cfft_radix4_q15.c **** 
 156:.\DSP\Source\TransformFunctions/arm_cfft_radix4_q15.c ****         q31_t R, S, T, U;
 157:.\DSP\Source\TransformFunctions/arm_cfft_radix4_q15.c ****         q31_t C1, C2, C3, out1, out2;
 158:.\DSP\Source\TransformFunctions/arm_cfft_radix4_q15.c ****         uint32_t n1, n2, ic, i0, j, k;
 159:.\DSP\Source\TransformFunctions/arm_cfft_radix4_q15.c **** 
 160:.\DSP\Source\TransformFunctions/arm_cfft_radix4_q15.c ****         q15_t *ptr1;
 161:.\DSP\Source\TransformFunctions/arm_cfft_radix4_q15.c ****         q15_t *pSi0;
 162:.\DSP\Source\TransformFunctions/arm_cfft_radix4_q15.c ****         q15_t *pSi1;
 163:.\DSP\Source\TransformFunctions/arm_cfft_radix4_q15.c ****         q15_t *pSi2;
 164:.\DSP\Source\TransformFunctions/arm_cfft_radix4_q15.c ****         q15_t *pSi3;
 165:.\DSP\Source\TransformFunctions/arm_cfft_radix4_q15.c **** 
 166:.\DSP\Source\TransformFunctions/arm_cfft_radix4_q15.c ****         q31_t xaya, xbyb, xcyc, xdyd;
 167:.\DSP\Source\TransformFunctions/arm_cfft_radix4_q15.c **** 
 168:.\DSP\Source\TransformFunctions/arm_cfft_radix4_q15.c ****   /* Total process is divided into three stages */
 169:.\DSP\Source\TransformFunctions/arm_cfft_radix4_q15.c **** 
 170:.\DSP\Source\TransformFunctions/arm_cfft_radix4_q15.c ****   /* process first stage, middle stages, & last stage */
 171:.\DSP\Source\TransformFunctions/arm_cfft_radix4_q15.c **** 
 172:.\DSP\Source\TransformFunctions/arm_cfft_radix4_q15.c ****   /*  Initializations for the first stage */
 173:.\DSP\Source\TransformFunctions/arm_cfft_radix4_q15.c ****   n2 = fftLen;
 174:.\DSP\Source\TransformFunctions/arm_cfft_radix4_q15.c ****   n1 = n2;
 175:.\DSP\Source\TransformFunctions/arm_cfft_radix4_q15.c **** 
 176:.\DSP\Source\TransformFunctions/arm_cfft_radix4_q15.c ****   /* n2 = fftLen/4 */
 177:.\DSP\Source\TransformFunctions/arm_cfft_radix4_q15.c ****   n2 >>= 2U;
 178:.\DSP\Source\TransformFunctions/arm_cfft_radix4_q15.c **** 
 179:.\DSP\Source\TransformFunctions/arm_cfft_radix4_q15.c ****   /* Index for twiddle coefficient */
ARM GAS  C:\Users\IVYLIU~1\AppData\Local\Temp\cc4rI5mx.s 			page 5


 180:.\DSP\Source\TransformFunctions/arm_cfft_radix4_q15.c ****   ic = 0U;
 181:.\DSP\Source\TransformFunctions/arm_cfft_radix4_q15.c **** 
 182:.\DSP\Source\TransformFunctions/arm_cfft_radix4_q15.c ****   /* Index for input read and output write */
 183:.\DSP\Source\TransformFunctions/arm_cfft_radix4_q15.c ****   j = n2;
 184:.\DSP\Source\TransformFunctions/arm_cfft_radix4_q15.c **** 
 185:.\DSP\Source\TransformFunctions/arm_cfft_radix4_q15.c ****   pSi0 = pSrc16;
 186:.\DSP\Source\TransformFunctions/arm_cfft_radix4_q15.c ****   pSi1 = pSi0 + 2 * n2;
 187:.\DSP\Source\TransformFunctions/arm_cfft_radix4_q15.c ****   pSi2 = pSi1 + 2 * n2;
 188:.\DSP\Source\TransformFunctions/arm_cfft_radix4_q15.c ****   pSi3 = pSi2 + 2 * n2;
 189:.\DSP\Source\TransformFunctions/arm_cfft_radix4_q15.c **** 
 190:.\DSP\Source\TransformFunctions/arm_cfft_radix4_q15.c ****   /* Input is in 1.15(q15) format */
 191:.\DSP\Source\TransformFunctions/arm_cfft_radix4_q15.c **** 
 192:.\DSP\Source\TransformFunctions/arm_cfft_radix4_q15.c ****   /*  start of first stage process */
 193:.\DSP\Source\TransformFunctions/arm_cfft_radix4_q15.c ****   do
 194:.\DSP\Source\TransformFunctions/arm_cfft_radix4_q15.c ****   {
 195:.\DSP\Source\TransformFunctions/arm_cfft_radix4_q15.c ****     /*  Butterfly implementation */
 196:.\DSP\Source\TransformFunctions/arm_cfft_radix4_q15.c **** 
 197:.\DSP\Source\TransformFunctions/arm_cfft_radix4_q15.c ****     /* Reading i0, i0+fftLen/2 inputs */
 198:.\DSP\Source\TransformFunctions/arm_cfft_radix4_q15.c ****     /* Read ya (real), xa(imag) input */
 199:.\DSP\Source\TransformFunctions/arm_cfft_radix4_q15.c ****     T = read_q15x2 (pSi0);
 200:.\DSP\Source\TransformFunctions/arm_cfft_radix4_q15.c ****     T = __SHADD16(T, 0); /* this is just a SIMD arithmetic shift right by 1 */
 201:.\DSP\Source\TransformFunctions/arm_cfft_radix4_q15.c ****     T = __SHADD16(T, 0); /* it turns out doing this twice is 2 cycles, the alternative takes 3 cycl
 202:.\DSP\Source\TransformFunctions/arm_cfft_radix4_q15.c **** /*
 203:.\DSP\Source\TransformFunctions/arm_cfft_radix4_q15.c ****     in = ((int16_t) (T & 0xFFFF)) >> 2;       // alternative code that takes 3 cycles
 204:.\DSP\Source\TransformFunctions/arm_cfft_radix4_q15.c ****      T = ((T >> 2) & 0xFFFF0000) | (in & 0xFFFF);
 205:.\DSP\Source\TransformFunctions/arm_cfft_radix4_q15.c **** */
 206:.\DSP\Source\TransformFunctions/arm_cfft_radix4_q15.c **** 
 207:.\DSP\Source\TransformFunctions/arm_cfft_radix4_q15.c ****     /* Read yc (real), xc(imag) input */
 208:.\DSP\Source\TransformFunctions/arm_cfft_radix4_q15.c ****     S = read_q15x2 (pSi2);
 209:.\DSP\Source\TransformFunctions/arm_cfft_radix4_q15.c ****     S = __SHADD16(S, 0);
 210:.\DSP\Source\TransformFunctions/arm_cfft_radix4_q15.c ****     S = __SHADD16(S, 0);
 211:.\DSP\Source\TransformFunctions/arm_cfft_radix4_q15.c **** 
 212:.\DSP\Source\TransformFunctions/arm_cfft_radix4_q15.c ****     /* R = packed((ya + yc), (xa + xc) ) */
 213:.\DSP\Source\TransformFunctions/arm_cfft_radix4_q15.c ****     R = __QADD16(T, S);
 214:.\DSP\Source\TransformFunctions/arm_cfft_radix4_q15.c **** 
 215:.\DSP\Source\TransformFunctions/arm_cfft_radix4_q15.c ****     /* S = packed((ya - yc), (xa - xc) ) */
 216:.\DSP\Source\TransformFunctions/arm_cfft_radix4_q15.c ****     S = __QSUB16(T, S);
 217:.\DSP\Source\TransformFunctions/arm_cfft_radix4_q15.c **** 
 218:.\DSP\Source\TransformFunctions/arm_cfft_radix4_q15.c ****     /*  Reading i0+fftLen/4 , i0+3fftLen/4 inputs */
 219:.\DSP\Source\TransformFunctions/arm_cfft_radix4_q15.c ****     /* Read yb (real), xb(imag) input */
 220:.\DSP\Source\TransformFunctions/arm_cfft_radix4_q15.c ****     T = read_q15x2 (pSi1);
 221:.\DSP\Source\TransformFunctions/arm_cfft_radix4_q15.c ****     T = __SHADD16(T, 0);
 222:.\DSP\Source\TransformFunctions/arm_cfft_radix4_q15.c ****     T = __SHADD16(T, 0);
 223:.\DSP\Source\TransformFunctions/arm_cfft_radix4_q15.c **** 
 224:.\DSP\Source\TransformFunctions/arm_cfft_radix4_q15.c ****     /* Read yd (real), xd(imag) input */
 225:.\DSP\Source\TransformFunctions/arm_cfft_radix4_q15.c ****     U = read_q15x2 (pSi3);
 226:.\DSP\Source\TransformFunctions/arm_cfft_radix4_q15.c ****     U = __SHADD16(U, 0);
 227:.\DSP\Source\TransformFunctions/arm_cfft_radix4_q15.c ****     U = __SHADD16(U, 0);
 228:.\DSP\Source\TransformFunctions/arm_cfft_radix4_q15.c **** 
 229:.\DSP\Source\TransformFunctions/arm_cfft_radix4_q15.c ****     /* T = packed((yb + yd), (xb + xd) ) */
 230:.\DSP\Source\TransformFunctions/arm_cfft_radix4_q15.c ****     T = __QADD16(T, U);
 231:.\DSP\Source\TransformFunctions/arm_cfft_radix4_q15.c **** 
 232:.\DSP\Source\TransformFunctions/arm_cfft_radix4_q15.c ****     /*  writing the butterfly processed i0 sample */
 233:.\DSP\Source\TransformFunctions/arm_cfft_radix4_q15.c ****     /* xa' = xa + xb + xc + xd */
 234:.\DSP\Source\TransformFunctions/arm_cfft_radix4_q15.c ****     /* ya' = ya + yb + yc + yd */
 235:.\DSP\Source\TransformFunctions/arm_cfft_radix4_q15.c ****     write_q15x2_ia (&pSi0, __SHADD16(R, T));
 236:.\DSP\Source\TransformFunctions/arm_cfft_radix4_q15.c **** 
ARM GAS  C:\Users\IVYLIU~1\AppData\Local\Temp\cc4rI5mx.s 			page 6


 237:.\DSP\Source\TransformFunctions/arm_cfft_radix4_q15.c ****     /* R = packed((ya + yc) - (yb + yd), (xa + xc)- (xb + xd)) */
 238:.\DSP\Source\TransformFunctions/arm_cfft_radix4_q15.c ****     R = __QSUB16(R, T);
 239:.\DSP\Source\TransformFunctions/arm_cfft_radix4_q15.c **** 
 240:.\DSP\Source\TransformFunctions/arm_cfft_radix4_q15.c ****     /* co2 & si2 are read from SIMD Coefficient pointer */
 241:.\DSP\Source\TransformFunctions/arm_cfft_radix4_q15.c ****     C2 = read_q15x2 ((q15_t *) pCoef16 + (4U * ic));
 242:.\DSP\Source\TransformFunctions/arm_cfft_radix4_q15.c **** 
 243:.\DSP\Source\TransformFunctions/arm_cfft_radix4_q15.c **** #ifndef ARM_MATH_BIG_ENDIAN
 244:.\DSP\Source\TransformFunctions/arm_cfft_radix4_q15.c ****     /* xc' = (xa-xb+xc-xd)* co2 + (ya-yb+yc-yd)* (si2) */
 245:.\DSP\Source\TransformFunctions/arm_cfft_radix4_q15.c ****     out1 = __SMUAD(C2, R) >> 16U;
 246:.\DSP\Source\TransformFunctions/arm_cfft_radix4_q15.c ****     /* yc' = (ya-yb+yc-yd)* co2 - (xa-xb+xc-xd)* (si2) */
 247:.\DSP\Source\TransformFunctions/arm_cfft_radix4_q15.c ****     out2 = __SMUSDX(C2, R);
 248:.\DSP\Source\TransformFunctions/arm_cfft_radix4_q15.c **** #else
 249:.\DSP\Source\TransformFunctions/arm_cfft_radix4_q15.c ****     /* xc' = (ya-yb+yc-yd)* co2 - (xa-xb+xc-xd)* (si2) */
 250:.\DSP\Source\TransformFunctions/arm_cfft_radix4_q15.c ****     out1 = __SMUSDX(R, C2) >> 16U;
 251:.\DSP\Source\TransformFunctions/arm_cfft_radix4_q15.c ****     /* yc' = (xa-xb+xc-xd)* co2 + (ya-yb+yc-yd)* (si2) */
 252:.\DSP\Source\TransformFunctions/arm_cfft_radix4_q15.c ****     out2 = __SMUAD(C2, R);
 253:.\DSP\Source\TransformFunctions/arm_cfft_radix4_q15.c **** #endif /* #ifndef ARM_MATH_BIG_ENDIAN */
 254:.\DSP\Source\TransformFunctions/arm_cfft_radix4_q15.c **** 
 255:.\DSP\Source\TransformFunctions/arm_cfft_radix4_q15.c ****     /*  Reading i0+fftLen/4 */
 256:.\DSP\Source\TransformFunctions/arm_cfft_radix4_q15.c ****     /* T = packed(yb, xb) */
 257:.\DSP\Source\TransformFunctions/arm_cfft_radix4_q15.c ****     T = read_q15x2 (pSi1);
 258:.\DSP\Source\TransformFunctions/arm_cfft_radix4_q15.c ****     T = __SHADD16(T, 0);
 259:.\DSP\Source\TransformFunctions/arm_cfft_radix4_q15.c ****     T = __SHADD16(T, 0);
 260:.\DSP\Source\TransformFunctions/arm_cfft_radix4_q15.c **** 
 261:.\DSP\Source\TransformFunctions/arm_cfft_radix4_q15.c ****     /* writing the butterfly processed i0 + fftLen/4 sample */
 262:.\DSP\Source\TransformFunctions/arm_cfft_radix4_q15.c ****     /* writing output(xc', yc') in little endian format */
 263:.\DSP\Source\TransformFunctions/arm_cfft_radix4_q15.c ****     write_q15x2_ia (&pSi1, (q31_t) __PKHBT( out1, out2, 0 ));
 264:.\DSP\Source\TransformFunctions/arm_cfft_radix4_q15.c **** 
 265:.\DSP\Source\TransformFunctions/arm_cfft_radix4_q15.c ****     /*  Butterfly calculations */
 266:.\DSP\Source\TransformFunctions/arm_cfft_radix4_q15.c ****     /* U = packed(yd, xd) */
 267:.\DSP\Source\TransformFunctions/arm_cfft_radix4_q15.c ****     U = read_q15x2 (pSi3);
 268:.\DSP\Source\TransformFunctions/arm_cfft_radix4_q15.c ****     U = __SHADD16(U, 0);
 269:.\DSP\Source\TransformFunctions/arm_cfft_radix4_q15.c ****     U = __SHADD16(U, 0);
 270:.\DSP\Source\TransformFunctions/arm_cfft_radix4_q15.c **** 
 271:.\DSP\Source\TransformFunctions/arm_cfft_radix4_q15.c ****     /* T = packed(yb-yd, xb-xd) */
 272:.\DSP\Source\TransformFunctions/arm_cfft_radix4_q15.c ****     T = __QSUB16(T, U);
 273:.\DSP\Source\TransformFunctions/arm_cfft_radix4_q15.c **** 
 274:.\DSP\Source\TransformFunctions/arm_cfft_radix4_q15.c **** #ifndef ARM_MATH_BIG_ENDIAN
 275:.\DSP\Source\TransformFunctions/arm_cfft_radix4_q15.c ****     /* R = packed((ya-yc) + (xb- xd) , (xa-xc) - (yb-yd)) */
 276:.\DSP\Source\TransformFunctions/arm_cfft_radix4_q15.c ****     R = __QASX(S, T);
 277:.\DSP\Source\TransformFunctions/arm_cfft_radix4_q15.c ****     /* S = packed((ya-yc) - (xb- xd),  (xa-xc) + (yb-yd)) */
 278:.\DSP\Source\TransformFunctions/arm_cfft_radix4_q15.c ****     S = __QSAX(S, T);
 279:.\DSP\Source\TransformFunctions/arm_cfft_radix4_q15.c **** #else
 280:.\DSP\Source\TransformFunctions/arm_cfft_radix4_q15.c ****     /* R = packed((ya-yc) + (xb- xd) , (xa-xc) - (yb-yd)) */
 281:.\DSP\Source\TransformFunctions/arm_cfft_radix4_q15.c ****     R = __QSAX(S, T);
 282:.\DSP\Source\TransformFunctions/arm_cfft_radix4_q15.c ****     /* S = packed((ya-yc) - (xb- xd),  (xa-xc) + (yb-yd)) */
 283:.\DSP\Source\TransformFunctions/arm_cfft_radix4_q15.c ****     S = __QASX(S, T);
 284:.\DSP\Source\TransformFunctions/arm_cfft_radix4_q15.c **** #endif /* #ifndef ARM_MATH_BIG_ENDIAN */
 285:.\DSP\Source\TransformFunctions/arm_cfft_radix4_q15.c **** 
 286:.\DSP\Source\TransformFunctions/arm_cfft_radix4_q15.c ****     /* co1 & si1 are read from SIMD Coefficient pointer */
 287:.\DSP\Source\TransformFunctions/arm_cfft_radix4_q15.c ****     C1 = read_q15x2 ((q15_t *) pCoef16 + (2U * ic));
 288:.\DSP\Source\TransformFunctions/arm_cfft_radix4_q15.c ****     /*  Butterfly process for the i0+fftLen/2 sample */
 289:.\DSP\Source\TransformFunctions/arm_cfft_radix4_q15.c **** 
 290:.\DSP\Source\TransformFunctions/arm_cfft_radix4_q15.c **** #ifndef ARM_MATH_BIG_ENDIAN
 291:.\DSP\Source\TransformFunctions/arm_cfft_radix4_q15.c ****     /* xb' = (xa+yb-xc-yd)* co1 + (ya-xb-yc+xd)* (si1) */
 292:.\DSP\Source\TransformFunctions/arm_cfft_radix4_q15.c ****     out1 = __SMUAD(C1, S) >> 16U;
 293:.\DSP\Source\TransformFunctions/arm_cfft_radix4_q15.c ****     /* yb' = (ya-xb-yc+xd)* co1 - (xa+yb-xc-yd)* (si1) */
ARM GAS  C:\Users\IVYLIU~1\AppData\Local\Temp\cc4rI5mx.s 			page 7


 294:.\DSP\Source\TransformFunctions/arm_cfft_radix4_q15.c ****     out2 = __SMUSDX(C1, S);
 295:.\DSP\Source\TransformFunctions/arm_cfft_radix4_q15.c **** #else
 296:.\DSP\Source\TransformFunctions/arm_cfft_radix4_q15.c ****     /* xb' = (ya-xb-yc+xd)* co1 - (xa+yb-xc-yd)* (si1) */
 297:.\DSP\Source\TransformFunctions/arm_cfft_radix4_q15.c ****     out1 = __SMUSDX(S, C1) >> 16U;
 298:.\DSP\Source\TransformFunctions/arm_cfft_radix4_q15.c ****     /* yb' = (xa+yb-xc-yd)* co1 + (ya-xb-yc+xd)* (si1) */
 299:.\DSP\Source\TransformFunctions/arm_cfft_radix4_q15.c ****     out2 = __SMUAD(C1, S);
 300:.\DSP\Source\TransformFunctions/arm_cfft_radix4_q15.c **** #endif /* #ifndef ARM_MATH_BIG_ENDIAN */
 301:.\DSP\Source\TransformFunctions/arm_cfft_radix4_q15.c **** 
 302:.\DSP\Source\TransformFunctions/arm_cfft_radix4_q15.c ****     /* writing output(xb', yb') in little endian format */
 303:.\DSP\Source\TransformFunctions/arm_cfft_radix4_q15.c ****     write_q15x2_ia (&pSi2, __PKHBT( out1, out2, 0 ));
 304:.\DSP\Source\TransformFunctions/arm_cfft_radix4_q15.c **** 
 305:.\DSP\Source\TransformFunctions/arm_cfft_radix4_q15.c ****     /* co3 & si3 are read from SIMD Coefficient pointer */
 306:.\DSP\Source\TransformFunctions/arm_cfft_radix4_q15.c ****     C3 = read_q15x2 ((q15_t *) pCoef16 + (6U * ic));
 307:.\DSP\Source\TransformFunctions/arm_cfft_radix4_q15.c ****     /*  Butterfly process for the i0+3fftLen/4 sample */
 308:.\DSP\Source\TransformFunctions/arm_cfft_radix4_q15.c **** 
 309:.\DSP\Source\TransformFunctions/arm_cfft_radix4_q15.c **** #ifndef ARM_MATH_BIG_ENDIAN
 310:.\DSP\Source\TransformFunctions/arm_cfft_radix4_q15.c ****     /* xd' = (xa-yb-xc+yd)* co3 + (ya+xb-yc-xd)* (si3) */
 311:.\DSP\Source\TransformFunctions/arm_cfft_radix4_q15.c ****     out1 = __SMUAD(C3, R) >> 16U;
 312:.\DSP\Source\TransformFunctions/arm_cfft_radix4_q15.c ****     /* yd' = (ya+xb-yc-xd)* co3 - (xa-yb-xc+yd)* (si3) */
 313:.\DSP\Source\TransformFunctions/arm_cfft_radix4_q15.c ****     out2 = __SMUSDX(C3, R);
 314:.\DSP\Source\TransformFunctions/arm_cfft_radix4_q15.c **** #else
 315:.\DSP\Source\TransformFunctions/arm_cfft_radix4_q15.c ****     /* xd' = (ya+xb-yc-xd)* co3 - (xa-yb-xc+yd)* (si3) */
 316:.\DSP\Source\TransformFunctions/arm_cfft_radix4_q15.c ****     out1 = __SMUSDX(R, C3) >> 16U;
 317:.\DSP\Source\TransformFunctions/arm_cfft_radix4_q15.c ****     /* yd' = (xa-yb-xc+yd)* co3 + (ya+xb-yc-xd)* (si3) */
 318:.\DSP\Source\TransformFunctions/arm_cfft_radix4_q15.c ****     out2 = __SMUAD(C3, R);
 319:.\DSP\Source\TransformFunctions/arm_cfft_radix4_q15.c **** #endif /* #ifndef ARM_MATH_BIG_ENDIAN */
 320:.\DSP\Source\TransformFunctions/arm_cfft_radix4_q15.c **** 
 321:.\DSP\Source\TransformFunctions/arm_cfft_radix4_q15.c ****     /* writing output(xd', yd') in little endian format */
 322:.\DSP\Source\TransformFunctions/arm_cfft_radix4_q15.c ****     write_q15x2_ia (&pSi3, __PKHBT( out1, out2, 0 ));
 323:.\DSP\Source\TransformFunctions/arm_cfft_radix4_q15.c **** 
 324:.\DSP\Source\TransformFunctions/arm_cfft_radix4_q15.c ****     /*  Twiddle coefficients index modifier */
 325:.\DSP\Source\TransformFunctions/arm_cfft_radix4_q15.c ****     ic = ic + twidCoefModifier;
 326:.\DSP\Source\TransformFunctions/arm_cfft_radix4_q15.c **** 
 327:.\DSP\Source\TransformFunctions/arm_cfft_radix4_q15.c ****   } while (--j);
 328:.\DSP\Source\TransformFunctions/arm_cfft_radix4_q15.c ****   /* data is in 4.11(q11) format */
 329:.\DSP\Source\TransformFunctions/arm_cfft_radix4_q15.c **** 
 330:.\DSP\Source\TransformFunctions/arm_cfft_radix4_q15.c ****   /* end of first stage process */
 331:.\DSP\Source\TransformFunctions/arm_cfft_radix4_q15.c **** 
 332:.\DSP\Source\TransformFunctions/arm_cfft_radix4_q15.c **** 
 333:.\DSP\Source\TransformFunctions/arm_cfft_radix4_q15.c ****   /* start of middle stage process */
 334:.\DSP\Source\TransformFunctions/arm_cfft_radix4_q15.c **** 
 335:.\DSP\Source\TransformFunctions/arm_cfft_radix4_q15.c ****   /*  Twiddle coefficients index modifier */
 336:.\DSP\Source\TransformFunctions/arm_cfft_radix4_q15.c ****   twidCoefModifier <<= 2U;
 337:.\DSP\Source\TransformFunctions/arm_cfft_radix4_q15.c **** 
 338:.\DSP\Source\TransformFunctions/arm_cfft_radix4_q15.c ****   /*  Calculation of Middle stage */
 339:.\DSP\Source\TransformFunctions/arm_cfft_radix4_q15.c ****   for (k = fftLen / 4U; k > 4U; k >>= 2U)
 340:.\DSP\Source\TransformFunctions/arm_cfft_radix4_q15.c ****   {
 341:.\DSP\Source\TransformFunctions/arm_cfft_radix4_q15.c ****     /*  Initializations for the middle stage */
 342:.\DSP\Source\TransformFunctions/arm_cfft_radix4_q15.c ****     n1 = n2;
 343:.\DSP\Source\TransformFunctions/arm_cfft_radix4_q15.c ****     n2 >>= 2U;
 344:.\DSP\Source\TransformFunctions/arm_cfft_radix4_q15.c ****     ic = 0U;
 345:.\DSP\Source\TransformFunctions/arm_cfft_radix4_q15.c **** 
 346:.\DSP\Source\TransformFunctions/arm_cfft_radix4_q15.c ****     for (j = 0U; j <= (n2 - 1U); j++)
 347:.\DSP\Source\TransformFunctions/arm_cfft_radix4_q15.c ****     {
 348:.\DSP\Source\TransformFunctions/arm_cfft_radix4_q15.c ****       /*  index calculation for the coefficients */
 349:.\DSP\Source\TransformFunctions/arm_cfft_radix4_q15.c ****       C1 = read_q15x2 ((q15_t *) pCoef16 + (2U * ic));
 350:.\DSP\Source\TransformFunctions/arm_cfft_radix4_q15.c ****       C2 = read_q15x2 ((q15_t *) pCoef16 + (4U * ic));
ARM GAS  C:\Users\IVYLIU~1\AppData\Local\Temp\cc4rI5mx.s 			page 8


 351:.\DSP\Source\TransformFunctions/arm_cfft_radix4_q15.c ****       C3 = read_q15x2 ((q15_t *) pCoef16 + (6U * ic));
 352:.\DSP\Source\TransformFunctions/arm_cfft_radix4_q15.c **** 
 353:.\DSP\Source\TransformFunctions/arm_cfft_radix4_q15.c ****       /*  Twiddle coefficients index modifier */
 354:.\DSP\Source\TransformFunctions/arm_cfft_radix4_q15.c ****       ic = ic + twidCoefModifier;
 355:.\DSP\Source\TransformFunctions/arm_cfft_radix4_q15.c **** 
 356:.\DSP\Source\TransformFunctions/arm_cfft_radix4_q15.c ****       pSi0 = pSrc16 + 2 * j;
 357:.\DSP\Source\TransformFunctions/arm_cfft_radix4_q15.c ****       pSi1 = pSi0 + 2 * n2;
 358:.\DSP\Source\TransformFunctions/arm_cfft_radix4_q15.c ****       pSi2 = pSi1 + 2 * n2;
 359:.\DSP\Source\TransformFunctions/arm_cfft_radix4_q15.c ****       pSi3 = pSi2 + 2 * n2;
 360:.\DSP\Source\TransformFunctions/arm_cfft_radix4_q15.c **** 
 361:.\DSP\Source\TransformFunctions/arm_cfft_radix4_q15.c ****       /*  Butterfly implementation */
 362:.\DSP\Source\TransformFunctions/arm_cfft_radix4_q15.c ****       for (i0 = j; i0 < fftLen; i0 += n1)
 363:.\DSP\Source\TransformFunctions/arm_cfft_radix4_q15.c ****       {
 364:.\DSP\Source\TransformFunctions/arm_cfft_radix4_q15.c ****         /*  Reading i0, i0+fftLen/2 inputs */
 365:.\DSP\Source\TransformFunctions/arm_cfft_radix4_q15.c ****         /* Read ya (real), xa(imag) input */
 366:.\DSP\Source\TransformFunctions/arm_cfft_radix4_q15.c ****         T = read_q15x2 (pSi0);
 367:.\DSP\Source\TransformFunctions/arm_cfft_radix4_q15.c **** 
 368:.\DSP\Source\TransformFunctions/arm_cfft_radix4_q15.c ****         /* Read yc (real), xc(imag) input */
 369:.\DSP\Source\TransformFunctions/arm_cfft_radix4_q15.c ****         S = read_q15x2 (pSi2);
 370:.\DSP\Source\TransformFunctions/arm_cfft_radix4_q15.c **** 
 371:.\DSP\Source\TransformFunctions/arm_cfft_radix4_q15.c ****         /* R = packed( (ya + yc), (xa + xc)) */
 372:.\DSP\Source\TransformFunctions/arm_cfft_radix4_q15.c ****         R = __QADD16(T, S);
 373:.\DSP\Source\TransformFunctions/arm_cfft_radix4_q15.c **** 
 374:.\DSP\Source\TransformFunctions/arm_cfft_radix4_q15.c ****         /* S = packed((ya - yc), (xa - xc)) */
 375:.\DSP\Source\TransformFunctions/arm_cfft_radix4_q15.c ****         S = __QSUB16(T, S);
 376:.\DSP\Source\TransformFunctions/arm_cfft_radix4_q15.c **** 
 377:.\DSP\Source\TransformFunctions/arm_cfft_radix4_q15.c ****         /*  Reading i0+fftLen/4 , i0+3fftLen/4 inputs */
 378:.\DSP\Source\TransformFunctions/arm_cfft_radix4_q15.c ****         /* Read yb (real), xb(imag) input */
 379:.\DSP\Source\TransformFunctions/arm_cfft_radix4_q15.c ****         T = read_q15x2 (pSi1);
 380:.\DSP\Source\TransformFunctions/arm_cfft_radix4_q15.c **** 
 381:.\DSP\Source\TransformFunctions/arm_cfft_radix4_q15.c ****         /* Read yd (real), xd(imag) input */
 382:.\DSP\Source\TransformFunctions/arm_cfft_radix4_q15.c ****         U = read_q15x2 (pSi3);
 383:.\DSP\Source\TransformFunctions/arm_cfft_radix4_q15.c **** 
 384:.\DSP\Source\TransformFunctions/arm_cfft_radix4_q15.c ****         /* T = packed( (yb + yd), (xb + xd)) */
 385:.\DSP\Source\TransformFunctions/arm_cfft_radix4_q15.c ****         T = __QADD16(T, U);
 386:.\DSP\Source\TransformFunctions/arm_cfft_radix4_q15.c **** 
 387:.\DSP\Source\TransformFunctions/arm_cfft_radix4_q15.c ****         /*  writing the butterfly processed i0 sample */
 388:.\DSP\Source\TransformFunctions/arm_cfft_radix4_q15.c **** 
 389:.\DSP\Source\TransformFunctions/arm_cfft_radix4_q15.c ****         /* xa' = xa + xb + xc + xd */
 390:.\DSP\Source\TransformFunctions/arm_cfft_radix4_q15.c ****         /* ya' = ya + yb + yc + yd */
 391:.\DSP\Source\TransformFunctions/arm_cfft_radix4_q15.c ****         out1 = __SHADD16(R, T);
 392:.\DSP\Source\TransformFunctions/arm_cfft_radix4_q15.c ****         out1 = __SHADD16(out1, 0);
 393:.\DSP\Source\TransformFunctions/arm_cfft_radix4_q15.c ****         write_q15x2 (pSi0, out1);
 394:.\DSP\Source\TransformFunctions/arm_cfft_radix4_q15.c ****         pSi0 += 2 * n1;
 395:.\DSP\Source\TransformFunctions/arm_cfft_radix4_q15.c **** 
 396:.\DSP\Source\TransformFunctions/arm_cfft_radix4_q15.c ****         /* R = packed( (ya + yc) - (yb + yd), (xa + xc) - (xb + xd)) */
 397:.\DSP\Source\TransformFunctions/arm_cfft_radix4_q15.c ****         R = __SHSUB16(R, T);
 398:.\DSP\Source\TransformFunctions/arm_cfft_radix4_q15.c **** 
 399:.\DSP\Source\TransformFunctions/arm_cfft_radix4_q15.c **** #ifndef ARM_MATH_BIG_ENDIAN
 400:.\DSP\Source\TransformFunctions/arm_cfft_radix4_q15.c ****         /* (ya-yb+yc-yd)* (si2) + (xa-xb+xc-xd)* co2 */
 401:.\DSP\Source\TransformFunctions/arm_cfft_radix4_q15.c ****         out1 = __SMUAD(C2, R) >> 16U;
 402:.\DSP\Source\TransformFunctions/arm_cfft_radix4_q15.c **** 
 403:.\DSP\Source\TransformFunctions/arm_cfft_radix4_q15.c ****         /* (ya-yb+yc-yd)* co2 - (xa-xb+xc-xd)* (si2) */
 404:.\DSP\Source\TransformFunctions/arm_cfft_radix4_q15.c ****         out2 = __SMUSDX(C2, R);
 405:.\DSP\Source\TransformFunctions/arm_cfft_radix4_q15.c **** #else
 406:.\DSP\Source\TransformFunctions/arm_cfft_radix4_q15.c ****         /* (ya-yb+yc-yd)* co2 - (xa-xb+xc-xd)* (si2) */
 407:.\DSP\Source\TransformFunctions/arm_cfft_radix4_q15.c ****         out1 = __SMUSDX(R, C2) >> 16U;
ARM GAS  C:\Users\IVYLIU~1\AppData\Local\Temp\cc4rI5mx.s 			page 9


 408:.\DSP\Source\TransformFunctions/arm_cfft_radix4_q15.c **** 
 409:.\DSP\Source\TransformFunctions/arm_cfft_radix4_q15.c ****         /* (ya-yb+yc-yd)* (si2) + (xa-xb+xc-xd)* co2 */
 410:.\DSP\Source\TransformFunctions/arm_cfft_radix4_q15.c ****         out2 = __SMUAD(C2, R);
 411:.\DSP\Source\TransformFunctions/arm_cfft_radix4_q15.c **** #endif /* #ifndef ARM_MATH_BIG_ENDIAN */
 412:.\DSP\Source\TransformFunctions/arm_cfft_radix4_q15.c **** 
 413:.\DSP\Source\TransformFunctions/arm_cfft_radix4_q15.c ****         /*  Reading i0+3fftLen/4 */
 414:.\DSP\Source\TransformFunctions/arm_cfft_radix4_q15.c ****         /* Read yb (real), xb(imag) input */
 415:.\DSP\Source\TransformFunctions/arm_cfft_radix4_q15.c ****         T = read_q15x2 (pSi1);
 416:.\DSP\Source\TransformFunctions/arm_cfft_radix4_q15.c **** 
 417:.\DSP\Source\TransformFunctions/arm_cfft_radix4_q15.c ****         /*  writing the butterfly processed i0 + fftLen/4 sample */
 418:.\DSP\Source\TransformFunctions/arm_cfft_radix4_q15.c ****         /* xc' = (xa-xb+xc-xd)* co2 + (ya-yb+yc-yd)* (si2) */
 419:.\DSP\Source\TransformFunctions/arm_cfft_radix4_q15.c ****         /* yc' = (ya-yb+yc-yd)* co2 - (xa-xb+xc-xd)* (si2) */
 420:.\DSP\Source\TransformFunctions/arm_cfft_radix4_q15.c ****         write_q15x2 (pSi1, __PKHBT( out1, out2, 0 ));
 421:.\DSP\Source\TransformFunctions/arm_cfft_radix4_q15.c ****         pSi1 += 2 * n1;
 422:.\DSP\Source\TransformFunctions/arm_cfft_radix4_q15.c **** 
 423:.\DSP\Source\TransformFunctions/arm_cfft_radix4_q15.c ****         /*  Butterfly calculations */
 424:.\DSP\Source\TransformFunctions/arm_cfft_radix4_q15.c **** 
 425:.\DSP\Source\TransformFunctions/arm_cfft_radix4_q15.c ****         /* Read yd (real), xd(imag) input */
 426:.\DSP\Source\TransformFunctions/arm_cfft_radix4_q15.c ****         U = read_q15x2 (pSi3);
 427:.\DSP\Source\TransformFunctions/arm_cfft_radix4_q15.c **** 
 428:.\DSP\Source\TransformFunctions/arm_cfft_radix4_q15.c ****         /* T = packed(yb-yd, xb-xd) */
 429:.\DSP\Source\TransformFunctions/arm_cfft_radix4_q15.c ****         T = __QSUB16(T, U);
 430:.\DSP\Source\TransformFunctions/arm_cfft_radix4_q15.c **** 
 431:.\DSP\Source\TransformFunctions/arm_cfft_radix4_q15.c **** #ifndef ARM_MATH_BIG_ENDIAN
 432:.\DSP\Source\TransformFunctions/arm_cfft_radix4_q15.c ****         /* R = packed((ya-yc) + (xb- xd) , (xa-xc) - (yb-yd)) */
 433:.\DSP\Source\TransformFunctions/arm_cfft_radix4_q15.c ****         R = __SHASX(S, T);
 434:.\DSP\Source\TransformFunctions/arm_cfft_radix4_q15.c **** 
 435:.\DSP\Source\TransformFunctions/arm_cfft_radix4_q15.c ****         /* S = packed((ya-yc) - (xb- xd),  (xa-xc) + (yb-yd)) */
 436:.\DSP\Source\TransformFunctions/arm_cfft_radix4_q15.c ****         S = __SHSAX(S, T);
 437:.\DSP\Source\TransformFunctions/arm_cfft_radix4_q15.c **** 
 438:.\DSP\Source\TransformFunctions/arm_cfft_radix4_q15.c **** 
 439:.\DSP\Source\TransformFunctions/arm_cfft_radix4_q15.c ****         /*  Butterfly process for the i0+fftLen/2 sample */
 440:.\DSP\Source\TransformFunctions/arm_cfft_radix4_q15.c ****         out1 = __SMUAD(C1, S) >> 16U;
 441:.\DSP\Source\TransformFunctions/arm_cfft_radix4_q15.c ****         out2 = __SMUSDX(C1, S);
 442:.\DSP\Source\TransformFunctions/arm_cfft_radix4_q15.c **** #else
 443:.\DSP\Source\TransformFunctions/arm_cfft_radix4_q15.c ****         /* R = packed((ya-yc) + (xb- xd) , (xa-xc) - (yb-yd)) */
 444:.\DSP\Source\TransformFunctions/arm_cfft_radix4_q15.c ****         R = __SHSAX(S, T);
 445:.\DSP\Source\TransformFunctions/arm_cfft_radix4_q15.c **** 
 446:.\DSP\Source\TransformFunctions/arm_cfft_radix4_q15.c ****         /* S = packed((ya-yc) - (xb- xd),  (xa-xc) + (yb-yd)) */
 447:.\DSP\Source\TransformFunctions/arm_cfft_radix4_q15.c ****         S = __SHASX(S, T);
 448:.\DSP\Source\TransformFunctions/arm_cfft_radix4_q15.c **** 
 449:.\DSP\Source\TransformFunctions/arm_cfft_radix4_q15.c **** 
 450:.\DSP\Source\TransformFunctions/arm_cfft_radix4_q15.c ****         /*  Butterfly process for the i0+fftLen/2 sample */
 451:.\DSP\Source\TransformFunctions/arm_cfft_radix4_q15.c ****         out1 = __SMUSDX(S, C1) >> 16U;
 452:.\DSP\Source\TransformFunctions/arm_cfft_radix4_q15.c ****         out2 = __SMUAD(C1, S);
 453:.\DSP\Source\TransformFunctions/arm_cfft_radix4_q15.c **** #endif /* #ifndef ARM_MATH_BIG_ENDIAN */
 454:.\DSP\Source\TransformFunctions/arm_cfft_radix4_q15.c **** 
 455:.\DSP\Source\TransformFunctions/arm_cfft_radix4_q15.c ****         /* xb' = (xa+yb-xc-yd)* co1 + (ya-xb-yc+xd)* (si1) */
 456:.\DSP\Source\TransformFunctions/arm_cfft_radix4_q15.c ****         /* yb' = (ya-xb-yc+xd)* co1 - (xa+yb-xc-yd)* (si1) */
 457:.\DSP\Source\TransformFunctions/arm_cfft_radix4_q15.c ****         write_q15x2 (pSi2, __PKHBT( out1, out2, 0 ));
 458:.\DSP\Source\TransformFunctions/arm_cfft_radix4_q15.c ****         pSi2 += 2 * n1;
 459:.\DSP\Source\TransformFunctions/arm_cfft_radix4_q15.c **** 
 460:.\DSP\Source\TransformFunctions/arm_cfft_radix4_q15.c ****         /*  Butterfly process for the i0+3fftLen/4 sample */
 461:.\DSP\Source\TransformFunctions/arm_cfft_radix4_q15.c **** 
 462:.\DSP\Source\TransformFunctions/arm_cfft_radix4_q15.c **** #ifndef ARM_MATH_BIG_ENDIAN
 463:.\DSP\Source\TransformFunctions/arm_cfft_radix4_q15.c ****         out1 = __SMUAD(C3, R) >> 16U;
 464:.\DSP\Source\TransformFunctions/arm_cfft_radix4_q15.c ****         out2 = __SMUSDX(C3, R);
ARM GAS  C:\Users\IVYLIU~1\AppData\Local\Temp\cc4rI5mx.s 			page 10


 465:.\DSP\Source\TransformFunctions/arm_cfft_radix4_q15.c **** #else
 466:.\DSP\Source\TransformFunctions/arm_cfft_radix4_q15.c ****         out1 = __SMUSDX(R, C3) >> 16U;
 467:.\DSP\Source\TransformFunctions/arm_cfft_radix4_q15.c ****         out2 = __SMUAD(C3, R);
 468:.\DSP\Source\TransformFunctions/arm_cfft_radix4_q15.c **** #endif /* #ifndef ARM_MATH_BIG_ENDIAN */
 469:.\DSP\Source\TransformFunctions/arm_cfft_radix4_q15.c **** 
 470:.\DSP\Source\TransformFunctions/arm_cfft_radix4_q15.c ****         /* xd' = (xa-yb-xc+yd)* co3 + (ya+xb-yc-xd)* (si3) */
 471:.\DSP\Source\TransformFunctions/arm_cfft_radix4_q15.c ****         /* yd' = (ya+xb-yc-xd)* co3 - (xa-yb-xc+yd)* (si3) */
 472:.\DSP\Source\TransformFunctions/arm_cfft_radix4_q15.c ****         write_q15x2 (pSi3, __PKHBT( out1, out2, 0 ));
 473:.\DSP\Source\TransformFunctions/arm_cfft_radix4_q15.c ****         pSi3 += 2 * n1;
 474:.\DSP\Source\TransformFunctions/arm_cfft_radix4_q15.c ****       }
 475:.\DSP\Source\TransformFunctions/arm_cfft_radix4_q15.c ****     }
 476:.\DSP\Source\TransformFunctions/arm_cfft_radix4_q15.c ****     /*  Twiddle coefficients index modifier */
 477:.\DSP\Source\TransformFunctions/arm_cfft_radix4_q15.c ****     twidCoefModifier <<= 2U;
 478:.\DSP\Source\TransformFunctions/arm_cfft_radix4_q15.c ****   }
 479:.\DSP\Source\TransformFunctions/arm_cfft_radix4_q15.c ****   /* end of middle stage process */
 480:.\DSP\Source\TransformFunctions/arm_cfft_radix4_q15.c **** 
 481:.\DSP\Source\TransformFunctions/arm_cfft_radix4_q15.c **** 
 482:.\DSP\Source\TransformFunctions/arm_cfft_radix4_q15.c ****   /* data is in 10.6(q6) format for the 1024 point */
 483:.\DSP\Source\TransformFunctions/arm_cfft_radix4_q15.c ****   /* data is in 8.8(q8) format for the 256 point */
 484:.\DSP\Source\TransformFunctions/arm_cfft_radix4_q15.c ****   /* data is in 6.10(q10) format for the 64 point */
 485:.\DSP\Source\TransformFunctions/arm_cfft_radix4_q15.c ****   /* data is in 4.12(q12) format for the 16 point */
 486:.\DSP\Source\TransformFunctions/arm_cfft_radix4_q15.c **** 
 487:.\DSP\Source\TransformFunctions/arm_cfft_radix4_q15.c ****   /*  Initializations for the last stage */
 488:.\DSP\Source\TransformFunctions/arm_cfft_radix4_q15.c ****   j = fftLen >> 2;
 489:.\DSP\Source\TransformFunctions/arm_cfft_radix4_q15.c **** 
 490:.\DSP\Source\TransformFunctions/arm_cfft_radix4_q15.c ****   ptr1 = &pSrc16[0];
 491:.\DSP\Source\TransformFunctions/arm_cfft_radix4_q15.c **** 
 492:.\DSP\Source\TransformFunctions/arm_cfft_radix4_q15.c ****   /* start of last stage process */
 493:.\DSP\Source\TransformFunctions/arm_cfft_radix4_q15.c **** 
 494:.\DSP\Source\TransformFunctions/arm_cfft_radix4_q15.c ****   /*  Butterfly implementation */
 495:.\DSP\Source\TransformFunctions/arm_cfft_radix4_q15.c ****   do
 496:.\DSP\Source\TransformFunctions/arm_cfft_radix4_q15.c ****   {
 497:.\DSP\Source\TransformFunctions/arm_cfft_radix4_q15.c ****     /* Read xa (real), ya(imag) input */
 498:.\DSP\Source\TransformFunctions/arm_cfft_radix4_q15.c ****     xaya = read_q15x2_ia (&ptr1);
 499:.\DSP\Source\TransformFunctions/arm_cfft_radix4_q15.c **** 
 500:.\DSP\Source\TransformFunctions/arm_cfft_radix4_q15.c ****     /* Read xb (real), yb(imag) input */
 501:.\DSP\Source\TransformFunctions/arm_cfft_radix4_q15.c ****     xbyb = read_q15x2_ia (&ptr1);
 502:.\DSP\Source\TransformFunctions/arm_cfft_radix4_q15.c **** 
 503:.\DSP\Source\TransformFunctions/arm_cfft_radix4_q15.c ****     /* Read xc (real), yc(imag) input */
 504:.\DSP\Source\TransformFunctions/arm_cfft_radix4_q15.c ****     xcyc = read_q15x2_ia (&ptr1);
 505:.\DSP\Source\TransformFunctions/arm_cfft_radix4_q15.c **** 
 506:.\DSP\Source\TransformFunctions/arm_cfft_radix4_q15.c ****     /* Read xd (real), yd(imag) input */
 507:.\DSP\Source\TransformFunctions/arm_cfft_radix4_q15.c ****     xdyd = read_q15x2_ia (&ptr1);
 508:.\DSP\Source\TransformFunctions/arm_cfft_radix4_q15.c **** 
 509:.\DSP\Source\TransformFunctions/arm_cfft_radix4_q15.c ****     /* R = packed((ya + yc), (xa + xc)) */
 510:.\DSP\Source\TransformFunctions/arm_cfft_radix4_q15.c ****     R = __QADD16(xaya, xcyc);
 511:.\DSP\Source\TransformFunctions/arm_cfft_radix4_q15.c **** 
 512:.\DSP\Source\TransformFunctions/arm_cfft_radix4_q15.c ****     /* T = packed((yb + yd), (xb + xd)) */
 513:.\DSP\Source\TransformFunctions/arm_cfft_radix4_q15.c ****     T = __QADD16(xbyb, xdyd);
 514:.\DSP\Source\TransformFunctions/arm_cfft_radix4_q15.c **** 
 515:.\DSP\Source\TransformFunctions/arm_cfft_radix4_q15.c ****     /* pointer updation for writing */
 516:.\DSP\Source\TransformFunctions/arm_cfft_radix4_q15.c ****     ptr1 = ptr1 - 8U;
 517:.\DSP\Source\TransformFunctions/arm_cfft_radix4_q15.c **** 
 518:.\DSP\Source\TransformFunctions/arm_cfft_radix4_q15.c **** 
 519:.\DSP\Source\TransformFunctions/arm_cfft_radix4_q15.c ****     /* xa' = xa + xb + xc + xd */
 520:.\DSP\Source\TransformFunctions/arm_cfft_radix4_q15.c ****     /* ya' = ya + yb + yc + yd */
 521:.\DSP\Source\TransformFunctions/arm_cfft_radix4_q15.c ****     write_q15x2_ia (&ptr1, __SHADD16(R, T));
ARM GAS  C:\Users\IVYLIU~1\AppData\Local\Temp\cc4rI5mx.s 			page 11


 522:.\DSP\Source\TransformFunctions/arm_cfft_radix4_q15.c **** 
 523:.\DSP\Source\TransformFunctions/arm_cfft_radix4_q15.c ****     /* T = packed((yb + yd), (xb + xd)) */
 524:.\DSP\Source\TransformFunctions/arm_cfft_radix4_q15.c ****     T = __QADD16(xbyb, xdyd);
 525:.\DSP\Source\TransformFunctions/arm_cfft_radix4_q15.c **** 
 526:.\DSP\Source\TransformFunctions/arm_cfft_radix4_q15.c ****     /* xc' = (xa-xb+xc-xd) */
 527:.\DSP\Source\TransformFunctions/arm_cfft_radix4_q15.c ****     /* yc' = (ya-yb+yc-yd) */
 528:.\DSP\Source\TransformFunctions/arm_cfft_radix4_q15.c ****     write_q15x2_ia (&ptr1, __SHSUB16(R, T));
 529:.\DSP\Source\TransformFunctions/arm_cfft_radix4_q15.c **** 
 530:.\DSP\Source\TransformFunctions/arm_cfft_radix4_q15.c ****     /* S = packed((ya - yc), (xa - xc)) */
 531:.\DSP\Source\TransformFunctions/arm_cfft_radix4_q15.c ****     S = __QSUB16(xaya, xcyc);
 532:.\DSP\Source\TransformFunctions/arm_cfft_radix4_q15.c **** 
 533:.\DSP\Source\TransformFunctions/arm_cfft_radix4_q15.c ****     /* Read yd (real), xd(imag) input */
 534:.\DSP\Source\TransformFunctions/arm_cfft_radix4_q15.c ****     /* T = packed( (yb - yd), (xb - xd))  */
 535:.\DSP\Source\TransformFunctions/arm_cfft_radix4_q15.c ****     U = __QSUB16(xbyb, xdyd);
 536:.\DSP\Source\TransformFunctions/arm_cfft_radix4_q15.c **** 
 537:.\DSP\Source\TransformFunctions/arm_cfft_radix4_q15.c **** #ifndef ARM_MATH_BIG_ENDIAN
 538:.\DSP\Source\TransformFunctions/arm_cfft_radix4_q15.c ****     /* xb' = (xa+yb-xc-yd) */
 539:.\DSP\Source\TransformFunctions/arm_cfft_radix4_q15.c ****     /* yb' = (ya-xb-yc+xd) */
 540:.\DSP\Source\TransformFunctions/arm_cfft_radix4_q15.c ****     write_q15x2_ia (&ptr1, __SHSAX(S, U));
 541:.\DSP\Source\TransformFunctions/arm_cfft_radix4_q15.c **** 
 542:.\DSP\Source\TransformFunctions/arm_cfft_radix4_q15.c ****     /* xd' = (xa-yb-xc+yd) */
 543:.\DSP\Source\TransformFunctions/arm_cfft_radix4_q15.c ****     /* yd' = (ya+xb-yc-xd) */
 544:.\DSP\Source\TransformFunctions/arm_cfft_radix4_q15.c ****     write_q15x2_ia (&ptr1, __SHASX(S, U));
 545:.\DSP\Source\TransformFunctions/arm_cfft_radix4_q15.c **** #else
 546:.\DSP\Source\TransformFunctions/arm_cfft_radix4_q15.c ****     /* xb' = (xa+yb-xc-yd) */
 547:.\DSP\Source\TransformFunctions/arm_cfft_radix4_q15.c ****     /* yb' = (ya-xb-yc+xd) */
 548:.\DSP\Source\TransformFunctions/arm_cfft_radix4_q15.c ****     write_q15x2_ia (&ptr1, __SHASX(S, U));
 549:.\DSP\Source\TransformFunctions/arm_cfft_radix4_q15.c **** 
 550:.\DSP\Source\TransformFunctions/arm_cfft_radix4_q15.c ****     /* xd' = (xa-yb-xc+yd) */
 551:.\DSP\Source\TransformFunctions/arm_cfft_radix4_q15.c ****     /* yd' = (ya+xb-yc-xd) */
 552:.\DSP\Source\TransformFunctions/arm_cfft_radix4_q15.c ****     write_q15x2_ia (&ptr1, __SHSAX(S, U));
 553:.\DSP\Source\TransformFunctions/arm_cfft_radix4_q15.c **** #endif /* #ifndef ARM_MATH_BIG_ENDIAN */
 554:.\DSP\Source\TransformFunctions/arm_cfft_radix4_q15.c **** 
 555:.\DSP\Source\TransformFunctions/arm_cfft_radix4_q15.c ****   } while (--j);
 556:.\DSP\Source\TransformFunctions/arm_cfft_radix4_q15.c **** 
 557:.\DSP\Source\TransformFunctions/arm_cfft_radix4_q15.c ****   /* end of last stage process */
 558:.\DSP\Source\TransformFunctions/arm_cfft_radix4_q15.c **** 
 559:.\DSP\Source\TransformFunctions/arm_cfft_radix4_q15.c ****   /* output is in 11.5(q5) format for the 1024 point */
 560:.\DSP\Source\TransformFunctions/arm_cfft_radix4_q15.c ****   /* output is in 9.7(q7) format for the 256 point   */
 561:.\DSP\Source\TransformFunctions/arm_cfft_radix4_q15.c ****   /* output is in 7.9(q9) format for the 64 point  */
 562:.\DSP\Source\TransformFunctions/arm_cfft_radix4_q15.c ****   /* output is in 5.11(q11) format for the 16 point  */
 563:.\DSP\Source\TransformFunctions/arm_cfft_radix4_q15.c **** 
 564:.\DSP\Source\TransformFunctions/arm_cfft_radix4_q15.c **** 
 565:.\DSP\Source\TransformFunctions/arm_cfft_radix4_q15.c **** #else /* #if defined (ARM_MATH_DSP) */
 566:.\DSP\Source\TransformFunctions/arm_cfft_radix4_q15.c **** 
 567:.\DSP\Source\TransformFunctions/arm_cfft_radix4_q15.c ****         q15_t R0, R1, S0, S1, T0, T1, U0, U1;
 568:.\DSP\Source\TransformFunctions/arm_cfft_radix4_q15.c ****         q15_t Co1, Si1, Co2, Si2, Co3, Si3, out1, out2;
 569:.\DSP\Source\TransformFunctions/arm_cfft_radix4_q15.c ****         uint32_t n1, n2, ic, i0, i1, i2, i3, j, k;
 570:.\DSP\Source\TransformFunctions/arm_cfft_radix4_q15.c **** 
 571:.\DSP\Source\TransformFunctions/arm_cfft_radix4_q15.c ****   /* Total process is divided into three stages */
 572:.\DSP\Source\TransformFunctions/arm_cfft_radix4_q15.c **** 
 573:.\DSP\Source\TransformFunctions/arm_cfft_radix4_q15.c ****   /* process first stage, middle stages, & last stage */
 574:.\DSP\Source\TransformFunctions/arm_cfft_radix4_q15.c **** 
 575:.\DSP\Source\TransformFunctions/arm_cfft_radix4_q15.c ****   /*  Initializations for the first stage */
 576:.\DSP\Source\TransformFunctions/arm_cfft_radix4_q15.c ****   n2 = fftLen;
 577:.\DSP\Source\TransformFunctions/arm_cfft_radix4_q15.c ****   n1 = n2;
 578:.\DSP\Source\TransformFunctions/arm_cfft_radix4_q15.c **** 
ARM GAS  C:\Users\IVYLIU~1\AppData\Local\Temp\cc4rI5mx.s 			page 12


 579:.\DSP\Source\TransformFunctions/arm_cfft_radix4_q15.c ****   /* n2 = fftLen/4 */
 580:.\DSP\Source\TransformFunctions/arm_cfft_radix4_q15.c ****   n2 >>= 2U;
  50              		.loc 1 580 0
  51 000e 8B08     		lsrs	r3, r1, #2
  52              	.LVL2:
  53 0010 0C93     		str	r3, [sp, #48]
  54              	.LVL3:
 581:.\DSP\Source\TransformFunctions/arm_cfft_radix4_q15.c **** 
 582:.\DSP\Source\TransformFunctions/arm_cfft_radix4_q15.c ****   /* Index for twiddle coefficient */
 583:.\DSP\Source\TransformFunctions/arm_cfft_radix4_q15.c ****   ic = 0U;
 584:.\DSP\Source\TransformFunctions/arm_cfft_radix4_q15.c **** 
 585:.\DSP\Source\TransformFunctions/arm_cfft_radix4_q15.c ****   /* Index for input read and output write */
 586:.\DSP\Source\TransformFunctions/arm_cfft_radix4_q15.c ****   i0 = 0U;
 587:.\DSP\Source\TransformFunctions/arm_cfft_radix4_q15.c ****   j = n2;
  55              		.loc 1 587 0
  56 0012 0193     		str	r3, [sp, #4]
 586:.\DSP\Source\TransformFunctions/arm_cfft_radix4_q15.c ****   j = n2;
  57              		.loc 1 586 0
  58 0014 4FF00008 		mov	r8, #0
 583:.\DSP\Source\TransformFunctions/arm_cfft_radix4_q15.c **** 
  59              		.loc 1 583 0
  60 0018 C446     		mov	ip, r8
  61 001a 1446     		mov	r4, r2
  62              	.LVL4:
  63              	.L2:
 588:.\DSP\Source\TransformFunctions/arm_cfft_radix4_q15.c **** 
 589:.\DSP\Source\TransformFunctions/arm_cfft_radix4_q15.c ****   /* Input is in 1.15(q15) format */
 590:.\DSP\Source\TransformFunctions/arm_cfft_radix4_q15.c **** 
 591:.\DSP\Source\TransformFunctions/arm_cfft_radix4_q15.c ****   /*  start of first stage process */
 592:.\DSP\Source\TransformFunctions/arm_cfft_radix4_q15.c ****   do
 593:.\DSP\Source\TransformFunctions/arm_cfft_radix4_q15.c ****   {
 594:.\DSP\Source\TransformFunctions/arm_cfft_radix4_q15.c ****     /*  Butterfly implementation */
 595:.\DSP\Source\TransformFunctions/arm_cfft_radix4_q15.c **** 
 596:.\DSP\Source\TransformFunctions/arm_cfft_radix4_q15.c ****     /*  index calculation for the input as, */
 597:.\DSP\Source\TransformFunctions/arm_cfft_radix4_q15.c ****     /*  pSrc16[i0 + 0], pSrc16[i0 + fftLen/4], pSrc16[i0 + fftLen/2], pSrc16[i0 + 3fftLen/4] */
 598:.\DSP\Source\TransformFunctions/arm_cfft_radix4_q15.c ****     i1 = i0 + n2;
  64              		.loc 1 598 0 discriminator 1
  65 001c 0C9A     		ldr	r2, [sp, #48]
  66 001e 08EB0207 		add	r7, r8, r2
  67              	.LVL5:
 599:.\DSP\Source\TransformFunctions/arm_cfft_radix4_q15.c ****     i2 = i1 + n2;
  68              		.loc 1 599 0 discriminator 1
  69 0022 07EB0209 		add	r9, r7, r2
  70              	.LVL6:
 600:.\DSP\Source\TransformFunctions/arm_cfft_radix4_q15.c ****     i3 = i2 + n2;
  71              		.loc 1 600 0 discriminator 1
  72 0026 09EB020E 		add	lr, r9, r2
  73              	.LVL7:
 601:.\DSP\Source\TransformFunctions/arm_cfft_radix4_q15.c **** 
 602:.\DSP\Source\TransformFunctions/arm_cfft_radix4_q15.c ****     /*  Reading i0, i0+fftLen/2 inputs */
 603:.\DSP\Source\TransformFunctions/arm_cfft_radix4_q15.c **** 
 604:.\DSP\Source\TransformFunctions/arm_cfft_radix4_q15.c ****     /* input is down scale by 4 to avoid overflow */
 605:.\DSP\Source\TransformFunctions/arm_cfft_radix4_q15.c ****     /* Read ya (real), xa(imag) input */
 606:.\DSP\Source\TransformFunctions/arm_cfft_radix4_q15.c ****     T0 = pSrc16[i0 * 2U] >> 2U;
  74              		.loc 1 606 0 discriminator 1
  75 002a 4FEA8803 		lsl	r3, r8, #2
  76 002e 3BF92820 		ldrsh	r2, [fp, r8, lsl #2]
ARM GAS  C:\Users\IVYLIU~1\AppData\Local\Temp\cc4rI5mx.s 			page 13


  77              	.LVL8:
 607:.\DSP\Source\TransformFunctions/arm_cfft_radix4_q15.c ****     T1 = pSrc16[(i0 * 2U) + 1U] >> 2U;
  78              		.loc 1 607 0 discriminator 1
  79 0032 0233     		adds	r3, r3, #2
  80 0034 0693     		str	r3, [sp, #24]
  81 0036 3BF90330 		ldrsh	r3, [fp, r3]
  82 003a C3F38F03 		ubfx	r3, r3, #2, #16
  83              	.LVL9:
 608:.\DSP\Source\TransformFunctions/arm_cfft_radix4_q15.c **** 
 609:.\DSP\Source\TransformFunctions/arm_cfft_radix4_q15.c ****     /* input is down scale by 4 to avoid overflow */
 610:.\DSP\Source\TransformFunctions/arm_cfft_radix4_q15.c ****     /* Read yc (real), xc(imag) input */
 611:.\DSP\Source\TransformFunctions/arm_cfft_radix4_q15.c ****     S0 = pSrc16[i2 * 2U] >> 2U;
  84              		.loc 1 611 0 discriminator 1
  85 003e 4FEA8901 		lsl	r1, r9, #2
  86 0042 3BF92900 		ldrsh	r0, [fp, r9, lsl #2]
  87              	.LVL10:
 612:.\DSP\Source\TransformFunctions/arm_cfft_radix4_q15.c ****     S1 = pSrc16[(i2 * 2U) + 1U] >> 2U;
  88              		.loc 1 612 0 discriminator 1
  89 0046 8D1C     		adds	r5, r1, #2
  90 0048 0795     		str	r5, [sp, #28]
  91 004a 3BF90510 		ldrsh	r1, [fp, r5]
  92 004e C1F38F01 		ubfx	r1, r1, #2, #16
  93              	.LVL11:
  94              	.LBB2:
 613:.\DSP\Source\TransformFunctions/arm_cfft_radix4_q15.c **** 
 614:.\DSP\Source\TransformFunctions/arm_cfft_radix4_q15.c ****     /* R0 = (ya + yc) */
 615:.\DSP\Source\TransformFunctions/arm_cfft_radix4_q15.c ****     R0 = __SSAT(T0 + S0, 16U);
  95              		.loc 1 615 0 discriminator 1
  96 0052 9210     		asrs	r2, r2, #2
  97              	.LVL12:
  98 0054 8010     		asrs	r0, r0, #2
  99              	.LVL13:
 100 0056 1518     		adds	r5, r2, r0
 101              	.LVL14:
 102              	@ 615 ".\DSP\Source\TransformFunctions\arm_cfft_radix4_q15.c" 1
 103 0058 05F30F05 		ssat r5, #16, r5
 104              	@ 0 "" 2
 105              	.LVL15:
 106              		.thumb
 107              	.LBE2:
 108 005c 1FFA85FA 		uxth	r10, r5
 109              	.LVL16:
 110              	.LBB3:
 616:.\DSP\Source\TransformFunctions/arm_cfft_radix4_q15.c ****     /* R1 = (xa + xc) */
 617:.\DSP\Source\TransformFunctions/arm_cfft_radix4_q15.c ****     R1 = __SSAT(T1 + S1, 16U);
 111              		.loc 1 617 0 discriminator 1
 112 0060 1BB2     		sxth	r3, r3
 113 0062 09B2     		sxth	r1, r1
 114 0064 5D18     		adds	r5, r3, r1
 115              	.LVL17:
 116              	@ 617 ".\DSP\Source\TransformFunctions\arm_cfft_radix4_q15.c" 1
 117 0066 05F30F05 		ssat r5, #16, r5
 118              	@ 0 "" 2
 119              	.LVL18:
 120              		.thumb
 121              	.LBE3:
 122 006a ADB2     		uxth	r5, r5
ARM GAS  C:\Users\IVYLIU~1\AppData\Local\Temp\cc4rI5mx.s 			page 14


 123              	.LVL19:
 124 006c 0295     		str	r5, [sp, #8]
 125              	.LVL20:
 126              	.LBB4:
 618:.\DSP\Source\TransformFunctions/arm_cfft_radix4_q15.c **** 
 619:.\DSP\Source\TransformFunctions/arm_cfft_radix4_q15.c ****     /* S0 = (ya - yc) */
 620:.\DSP\Source\TransformFunctions/arm_cfft_radix4_q15.c ****     S0 = __SSAT(T0 - S0, 16);
 127              		.loc 1 620 0 discriminator 1
 128 006e 121A     		subs	r2, r2, r0
 129              	.LVL21:
 130              	@ 620 ".\DSP\Source\TransformFunctions\arm_cfft_radix4_q15.c" 1
 131 0070 02F30F02 		ssat r2, #16, r2
 132              	@ 0 "" 2
 133              	.LVL22:
 134              		.thumb
 135              	.LBE4:
 136 0074 92B2     		uxth	r2, r2
 137              	.LVL23:
 138 0076 0392     		str	r2, [sp, #12]
 139              	.LVL24:
 140              	.LBB5:
 621:.\DSP\Source\TransformFunctions/arm_cfft_radix4_q15.c ****     /* S1 = (xa - xc) */
 622:.\DSP\Source\TransformFunctions/arm_cfft_radix4_q15.c ****     S1 = __SSAT(T1 - S1, 16);
 141              		.loc 1 622 0 discriminator 1
 142 0078 5B1A     		subs	r3, r3, r1
 143              	.LVL25:
 144              	@ 622 ".\DSP\Source\TransformFunctions\arm_cfft_radix4_q15.c" 1
 145 007a 03F30F03 		ssat r3, #16, r3
 146              	@ 0 "" 2
 147              	.LVL26:
 148              		.thumb
 149              	.LBE5:
 150 007e 98B2     		uxth	r0, r3
 151              	.LVL27:
 152 0080 0490     		str	r0, [sp, #16]
 153              	.LVL28:
 623:.\DSP\Source\TransformFunctions/arm_cfft_radix4_q15.c **** 
 624:.\DSP\Source\TransformFunctions/arm_cfft_radix4_q15.c ****     /*  Reading i0+fftLen/4 , i0+3fftLen/4 inputs */
 625:.\DSP\Source\TransformFunctions/arm_cfft_radix4_q15.c ****     /* input is down scale by 4 to avoid overflow */
 626:.\DSP\Source\TransformFunctions/arm_cfft_radix4_q15.c ****     /* Read yb (real), xb(imag) input */
 627:.\DSP\Source\TransformFunctions/arm_cfft_radix4_q15.c ****     T0 = pSrc16[i1 * 2U] >> 2U;
 154              		.loc 1 627 0 discriminator 1
 155 0082 BE00     		lsls	r6, r7, #2
 156 0084 3BF92710 		ldrsh	r1, [fp, r7, lsl #2]
 157              	.LVL29:
 628:.\DSP\Source\TransformFunctions/arm_cfft_radix4_q15.c ****     T1 = pSrc16[(i1 * 2U) + 1U] >> 2U;
 158              		.loc 1 628 0 discriminator 1
 159 0088 0236     		adds	r6, r6, #2
 160 008a 3BF90600 		ldrsh	r0, [fp, r6]
 161 008e C0F38F00 		ubfx	r0, r0, #2, #16
 162              	.LVL30:
 629:.\DSP\Source\TransformFunctions/arm_cfft_radix4_q15.c **** 
 630:.\DSP\Source\TransformFunctions/arm_cfft_radix4_q15.c ****     /* input is down scale by 4 to avoid overflow */
 631:.\DSP\Source\TransformFunctions/arm_cfft_radix4_q15.c ****     /* Read yd (real), xd(imag) input */
 632:.\DSP\Source\TransformFunctions/arm_cfft_radix4_q15.c ****     U0 = pSrc16[i3 * 2U] >> 2U;
 163              		.loc 1 632 0 discriminator 1
 164 0092 4FEA8E05 		lsl	r5, lr, #2
ARM GAS  C:\Users\IVYLIU~1\AppData\Local\Temp\cc4rI5mx.s 			page 15


 165 0096 3BF92E20 		ldrsh	r2, [fp, lr, lsl #2]
 166              	.LVL31:
 633:.\DSP\Source\TransformFunctions/arm_cfft_radix4_q15.c ****     U1 = pSrc16[(i3 * 2U) + 1] >> 2U;
 167              		.loc 1 633 0 discriminator 1
 168 009a 0235     		adds	r5, r5, #2
 169 009c 3BF90530 		ldrsh	r3, [fp, r5]
 170              	.LVL32:
 171 00a0 C3F38F03 		ubfx	r3, r3, #2, #16
 172              	.LVL33:
 173              	.LBB6:
 634:.\DSP\Source\TransformFunctions/arm_cfft_radix4_q15.c **** 
 635:.\DSP\Source\TransformFunctions/arm_cfft_radix4_q15.c ****     /* T0 = (yb + yd) */
 636:.\DSP\Source\TransformFunctions/arm_cfft_radix4_q15.c ****     T0 = __SSAT(T0 + U0, 16U);
 174              		.loc 1 636 0 discriminator 1
 175 00a4 9210     		asrs	r2, r2, #2
 176              	.LVL34:
 177 00a6 02EBA101 		add	r1, r2, r1, asr #2
 178              	.LVL35:
 179              	@ 636 ".\DSP\Source\TransformFunctions\arm_cfft_radix4_q15.c" 1
 180 00aa 01F30F01 		ssat r1, #16, r1
 181              	@ 0 "" 2
 182              	.LVL36:
 183              		.thumb
 184              	.LBE6:
 185 00ae 89B2     		uxth	r1, r1
 186              	.LVL37:
 187              	.LBB7:
 637:.\DSP\Source\TransformFunctions/arm_cfft_radix4_q15.c ****     /* T1 = (xb + xd) */
 638:.\DSP\Source\TransformFunctions/arm_cfft_radix4_q15.c ****     T1 = __SSAT(T1 + U1, 16U);
 188              		.loc 1 638 0 discriminator 1
 189 00b0 00B2     		sxth	r0, r0
 190 00b2 1BB2     		sxth	r3, r3
 191 00b4 0344     		add	r3, r3, r0
 192              	.LVL38:
 193              	@ 638 ".\DSP\Source\TransformFunctions\arm_cfft_radix4_q15.c" 1
 194 00b6 03F30F02 		ssat r2, #16, r3
 195              	@ 0 "" 2
 196              	.LVL39:
 197              		.thumb
 198              	.LBE7:
 639:.\DSP\Source\TransformFunctions/arm_cfft_radix4_q15.c **** 
 640:.\DSP\Source\TransformFunctions/arm_cfft_radix4_q15.c ****     /*  writing the butterfly processed i0 sample */
 641:.\DSP\Source\TransformFunctions/arm_cfft_radix4_q15.c ****     /* ya' = ya + yb + yc + yd */
 642:.\DSP\Source\TransformFunctions/arm_cfft_radix4_q15.c ****     /* xa' = xa + xb + xc + xd */
 643:.\DSP\Source\TransformFunctions/arm_cfft_radix4_q15.c ****     pSrc16[i0 * 2U] = (R0 >> 1U) + (T0 >> 1U);
 199              		.loc 1 643 0 discriminator 1
 200 00ba 0FFA8AF3 		sxth	r3, r10
 201              	.LVL40:
 202 00be 09B2     		sxth	r1, r1
 203 00c0 0891     		str	r1, [sp, #32]
 204 00c2 4810     		asrs	r0, r1, #1
 205              	.LVL41:
 206 00c4 00EB6300 		add	r0, r0, r3, asr #1
 207 00c8 2BF82800 		strh	r0, [fp, r8, lsl #2]	@ movhi
 208              	.LVL42:
 644:.\DSP\Source\TransformFunctions/arm_cfft_radix4_q15.c ****     pSrc16[(i0 * 2U) + 1U] = (R1 >> 1U) + (T1 >> 1U);
 209              		.loc 1 644 0 discriminator 1
ARM GAS  C:\Users\IVYLIU~1\AppData\Local\Temp\cc4rI5mx.s 			page 16


 210 00cc BDF90800 		ldrsh	r0, [sp, #8]
 211 00d0 12B2     		sxth	r2, r2
 212              	.LVL43:
 213 00d2 4FEA620A 		asr	r10, r2, #1
 214              	.LVL44:
 215 00d6 0AEB600A 		add	r10, r10, r0, asr #1
 216 00da 0699     		ldr	r1, [sp, #24]
 217              	.LVL45:
 218 00dc 2BF801A0 		strh	r10, [fp, r1]	@ movhi
 219              	.LBB8:
 645:.\DSP\Source\TransformFunctions/arm_cfft_radix4_q15.c **** 
 646:.\DSP\Source\TransformFunctions/arm_cfft_radix4_q15.c ****     /* R0 = (ya + yc) - (yb + yd) */
 647:.\DSP\Source\TransformFunctions/arm_cfft_radix4_q15.c ****     /* R1 = (xa + xc) - (xb + xd) */
 648:.\DSP\Source\TransformFunctions/arm_cfft_radix4_q15.c ****     R0 = __SSAT(R0 - T0, 16U);
 220              		.loc 1 648 0 discriminator 1
 221 00e0 0899     		ldr	r1, [sp, #32]
 222 00e2 5B1A     		subs	r3, r3, r1
 223              	.LVL46:
 224              	@ 648 ".\DSP\Source\TransformFunctions\arm_cfft_radix4_q15.c" 1
 225 00e4 03F30F03 		ssat r3, #16, r3
 226              	@ 0 "" 2
 227              	.LVL47:
 228              		.thumb
 229              	.LBE8:
 230 00e8 9BB2     		uxth	r3, r3
 231              	.LVL48:
 232              	.LBB9:
 649:.\DSP\Source\TransformFunctions/arm_cfft_radix4_q15.c ****     R1 = __SSAT(R1 - T1, 16U);
 233              		.loc 1 649 0 discriminator 1
 234 00ea 821A     		subs	r2, r0, r2
 235              	.LVL49:
 236              	@ 649 ".\DSP\Source\TransformFunctions\arm_cfft_radix4_q15.c" 1
 237 00ec 02F30F02 		ssat r2, #16, r2
 238              	@ 0 "" 2
 239              	.LVL50:
 240              		.thumb
 241              	.LBE9:
 650:.\DSP\Source\TransformFunctions/arm_cfft_radix4_q15.c **** 
 651:.\DSP\Source\TransformFunctions/arm_cfft_radix4_q15.c ****     /* co2 & si2 are read from Coefficient pointer */
 652:.\DSP\Source\TransformFunctions/arm_cfft_radix4_q15.c ****     Co2 = pCoef16[2U * ic * 2U];
 653:.\DSP\Source\TransformFunctions/arm_cfft_radix4_q15.c ****     Si2 = pCoef16[(2U * ic * 2U) + 1];
 242              		.loc 1 653 0 discriminator 1
 243 00f0 04EBCC00 		add	r0, r4, ip, lsl #3
 244              	.LVL51:
 654:.\DSP\Source\TransformFunctions/arm_cfft_radix4_q15.c **** 
 655:.\DSP\Source\TransformFunctions/arm_cfft_radix4_q15.c ****     /* xc' = (xa-xb+xc-xd)* co2 + (ya-yb+yc-yd)* (si2) */
 656:.\DSP\Source\TransformFunctions/arm_cfft_radix4_q15.c ****     out1 = (q15_t) ((Co2 * R0 + Si2 * R1) >> 16U);
 245              		.loc 1 656 0 discriminator 1
 246 00f4 34F93C10 		ldrsh	r1, [r4, ip, lsl #3]
 247 00f8 1BB2     		sxth	r3, r3
 248 00fa B0F90200 		ldrsh	r0, [r0, #2]
 249              	.LVL52:
 250 00fe 12B2     		sxth	r2, r2
 251              	.LVL53:
 252 0100 02FB00FA 		mul	r10, r2, r0
 253 0104 03FB01AA 		mla	r10, r3, r1, r10
 254 0108 4FEA1A4A 		lsr	r10, r10, #16
ARM GAS  C:\Users\IVYLIU~1\AppData\Local\Temp\cc4rI5mx.s 			page 17


 255              	.LVL54:
 657:.\DSP\Source\TransformFunctions/arm_cfft_radix4_q15.c ****     /* yc' = (ya-yb+yc-yd)* co2 - (xa-xb+xc-xd)* (si2) */
 658:.\DSP\Source\TransformFunctions/arm_cfft_radix4_q15.c ****     out2 = (q15_t) ((-Si2 * R0 + Co2 * R1) >> 16U);
 256              		.loc 1 658 0 discriminator 1
 257 010c 02FB01F2 		mul	r2, r2, r1
 258              	.LVL55:
 259 0110 00FB1322 		mls	r2, r0, r3, r2
 260 0114 120C     		lsrs	r2, r2, #16
 261              	.LVL56:
 659:.\DSP\Source\TransformFunctions/arm_cfft_radix4_q15.c **** 
 660:.\DSP\Source\TransformFunctions/arm_cfft_radix4_q15.c ****     /*  Reading i0+fftLen/4 */
 661:.\DSP\Source\TransformFunctions/arm_cfft_radix4_q15.c ****     /* input is down scale by 4 to avoid overflow */
 662:.\DSP\Source\TransformFunctions/arm_cfft_radix4_q15.c ****     /* T0 = yb, T1 =  xb */
 663:.\DSP\Source\TransformFunctions/arm_cfft_radix4_q15.c ****     T0 = pSrc16[i1 * 2U] >> 2;
 262              		.loc 1 663 0 discriminator 1
 263 0116 3BF92710 		ldrsh	r1, [fp, r7, lsl #2]
 264              	.LVL57:
 664:.\DSP\Source\TransformFunctions/arm_cfft_radix4_q15.c ****     T1 = pSrc16[(i1 * 2U) + 1] >> 2;
 265              		.loc 1 664 0 discriminator 1
 266 011a 3BF90630 		ldrsh	r3, [fp, r6]
 267              	.LVL58:
 268 011e C3F38F03 		ubfx	r3, r3, #2, #16
 269              	.LVL59:
 665:.\DSP\Source\TransformFunctions/arm_cfft_radix4_q15.c **** 
 666:.\DSP\Source\TransformFunctions/arm_cfft_radix4_q15.c ****     /* writing the butterfly processed i0 + fftLen/4 sample */
 667:.\DSP\Source\TransformFunctions/arm_cfft_radix4_q15.c ****     /* writing output(xc', yc') in little endian format */
 668:.\DSP\Source\TransformFunctions/arm_cfft_radix4_q15.c ****     pSrc16[i1 * 2U] = out1;
 270              		.loc 1 668 0 discriminator 1
 271 0122 2BF827A0 		strh	r10, [fp, r7, lsl #2]	@ movhi
 272              	.LVL60:
 669:.\DSP\Source\TransformFunctions/arm_cfft_radix4_q15.c ****     pSrc16[(i1 * 2U) + 1] = out2;
 273              		.loc 1 669 0 discriminator 1
 274 0126 2BF80620 		strh	r2, [fp, r6]	@ movhi
 670:.\DSP\Source\TransformFunctions/arm_cfft_radix4_q15.c **** 
 671:.\DSP\Source\TransformFunctions/arm_cfft_radix4_q15.c ****     /*  Butterfly calculations */
 672:.\DSP\Source\TransformFunctions/arm_cfft_radix4_q15.c ****     /* input is down scale by 4 to avoid overflow */
 673:.\DSP\Source\TransformFunctions/arm_cfft_radix4_q15.c ****     /* U0 = yd, U1 = xd */
 674:.\DSP\Source\TransformFunctions/arm_cfft_radix4_q15.c ****     U0 = pSrc16[i3 * 2U] >> 2;
 275              		.loc 1 674 0 discriminator 1
 276 012a 3BF92E00 		ldrsh	r0, [fp, lr, lsl #2]
 277              	.LVL61:
 675:.\DSP\Source\TransformFunctions/arm_cfft_radix4_q15.c ****     U1 = pSrc16[(i3 * 2U) + 1] >> 2;
 278              		.loc 1 675 0 discriminator 1
 279 012e 3BF90520 		ldrsh	r2, [fp, r5]
 280              	.LVL62:
 281 0132 C2F38F02 		ubfx	r2, r2, #2, #16
 282              	.LVL63:
 283              	.LBB10:
 676:.\DSP\Source\TransformFunctions/arm_cfft_radix4_q15.c ****     /* T0 = yb-yd */
 677:.\DSP\Source\TransformFunctions/arm_cfft_radix4_q15.c ****     T0 = __SSAT(T0 - U0, 16);
 284              		.loc 1 677 0 discriminator 1
 285 0136 8010     		asrs	r0, r0, #2
 286              	.LVL64:
 287 0138 C0EBA101 		rsb	r1, r0, r1, asr #2
 288              	.LVL65:
 289              	@ 677 ".\DSP\Source\TransformFunctions\arm_cfft_radix4_q15.c" 1
 290 013c 01F30F01 		ssat r1, #16, r1
ARM GAS  C:\Users\IVYLIU~1\AppData\Local\Temp\cc4rI5mx.s 			page 18


 291              	@ 0 "" 2
 292              	.LVL66:
 293              		.thumb
 294              	.LBE10:
 295 0140 89B2     		uxth	r1, r1
 296              	.LVL67:
 297              	.LBB11:
 678:.\DSP\Source\TransformFunctions/arm_cfft_radix4_q15.c ****     /* T1 = xb-xd */
 679:.\DSP\Source\TransformFunctions/arm_cfft_radix4_q15.c ****     T1 = __SSAT(T1 - U1, 16);
 298              		.loc 1 679 0 discriminator 1
 299 0142 1BB2     		sxth	r3, r3
 300 0144 12B2     		sxth	r2, r2
 301 0146 9B1A     		subs	r3, r3, r2
 302              	.LVL68:
 303              	@ 679 ".\DSP\Source\TransformFunctions\arm_cfft_radix4_q15.c" 1
 304 0148 03F30F03 		ssat r3, #16, r3
 305              	@ 0 "" 2
 306              	.LVL69:
 307              		.thumb
 308              	.LBE11:
 309              	.LBB12:
 680:.\DSP\Source\TransformFunctions/arm_cfft_radix4_q15.c **** 
 681:.\DSP\Source\TransformFunctions/arm_cfft_radix4_q15.c ****     /* R1 = (ya-yc) + (xb- xd),  R0 = (xa-xc) - (yb-yd)) */
 682:.\DSP\Source\TransformFunctions/arm_cfft_radix4_q15.c ****     R0 = (q15_t) __SSAT((q31_t) (S0 - T1), 16);
 310              		.loc 1 682 0 discriminator 1
 311 014c BDF90C70 		ldrsh	r7, [sp, #12]
 312              	.LVL70:
 313 0150 1BB2     		sxth	r3, r3
 314              	.LVL71:
 315 0152 FA1A     		subs	r2, r7, r3
 316              	.LVL72:
 317              	@ 682 ".\DSP\Source\TransformFunctions\arm_cfft_radix4_q15.c" 1
 318 0154 02F30F02 		ssat r2, #16, r2
 319              	@ 0 "" 2
 320              	.LVL73:
 321              		.thumb
 322              	.LBE12:
 323 0158 92B2     		uxth	r2, r2
 324              	.LVL74:
 325              	.LBB13:
 683:.\DSP\Source\TransformFunctions/arm_cfft_radix4_q15.c ****     R1 = (q15_t) __SSAT((q31_t) (S1 + T0), 16);
 326              		.loc 1 683 0 discriminator 1
 327 015a BDF91060 		ldrsh	r6, [sp, #16]
 328              	.LVL75:
 329 015e 09B2     		sxth	r1, r1
 330 0160 7018     		adds	r0, r6, r1
 331              	.LVL76:
 332              	@ 683 ".\DSP\Source\TransformFunctions\arm_cfft_radix4_q15.c" 1
 333 0162 00F30F00 		ssat r0, #16, r0
 334              	@ 0 "" 2
 335              	.LVL77:
 336              		.thumb
 337              	.LBE13:
 338 0166 80B2     		uxth	r0, r0
 339              	.LVL78:
 340              	.LBB14:
 684:.\DSP\Source\TransformFunctions/arm_cfft_radix4_q15.c **** 
ARM GAS  C:\Users\IVYLIU~1\AppData\Local\Temp\cc4rI5mx.s 			page 19


 685:.\DSP\Source\TransformFunctions/arm_cfft_radix4_q15.c ****     /* S1 = (ya-yc) - (xb- xd), S0 = (xa-xc) + (yb-yd)) */
 686:.\DSP\Source\TransformFunctions/arm_cfft_radix4_q15.c ****     S0 = (q15_t) __SSAT(((q31_t) S0 + T1), 16U);
 341              		.loc 1 686 0 discriminator 1
 342 0168 3B44     		add	r3, r3, r7
 343              	.LVL79:
 344              	@ 686 ".\DSP\Source\TransformFunctions\arm_cfft_radix4_q15.c" 1
 345 016a 03F30F03 		ssat r3, #16, r3
 346              	@ 0 "" 2
 347              	.LVL80:
 348              		.thumb
 349              	.LBE14:
 350 016e 9BB2     		uxth	r3, r3
 351              	.LVL81:
 352              	.LBB15:
 687:.\DSP\Source\TransformFunctions/arm_cfft_radix4_q15.c ****     S1 = (q15_t) __SSAT(((q31_t) S1 - T0), 16U);
 353              		.loc 1 687 0 discriminator 1
 354 0170 711A     		subs	r1, r6, r1
 355              	.LVL82:
 356              	@ 687 ".\DSP\Source\TransformFunctions\arm_cfft_radix4_q15.c" 1
 357 0172 01F30F01 		ssat r1, #16, r1
 358              	@ 0 "" 2
 359              	.LVL83:
 360              		.thumb
 361              	.LBE15:
 688:.\DSP\Source\TransformFunctions/arm_cfft_radix4_q15.c **** 
 689:.\DSP\Source\TransformFunctions/arm_cfft_radix4_q15.c ****     /* co1 & si1 are read from Coefficient pointer */
 690:.\DSP\Source\TransformFunctions/arm_cfft_radix4_q15.c ****     Co1 = pCoef16[ic * 2U];
 691:.\DSP\Source\TransformFunctions/arm_cfft_radix4_q15.c ****     Si1 = pCoef16[(ic * 2U) + 1];
 362              		.loc 1 691 0 discriminator 1
 363 0176 04EB8C06 		add	r6, r4, ip, lsl #2
 364              	.LVL84:
 692:.\DSP\Source\TransformFunctions/arm_cfft_radix4_q15.c ****     /*  Butterfly process for the i0+fftLen/2 sample */
 693:.\DSP\Source\TransformFunctions/arm_cfft_radix4_q15.c ****     /* xb' = (xa+yb-xc-yd)* co1 + (ya-xb-yc+xd)* (si1) */
 694:.\DSP\Source\TransformFunctions/arm_cfft_radix4_q15.c ****     out1 = (q15_t) ((Si1 * S1 + Co1 * S0) >> 16);
 365              		.loc 1 694 0 discriminator 1
 366 017a B6F902A0 		ldrsh	r10, [r6, #2]
 367              	.LVL85:
 368 017e 09B2     		sxth	r1, r1
 369              	.LVL86:
 370 0180 34F92C70 		ldrsh	r7, [r4, ip, lsl #2]
 371 0184 1BB2     		sxth	r3, r3
 372 0186 03FB07F6 		mul	r6, r3, r7
 373              	.LVL87:
 374 018a 01FB0A66 		mla	r6, r1, r10, r6
 375 018e 360C     		lsrs	r6, r6, #16
 376              	.LVL88:
 695:.\DSP\Source\TransformFunctions/arm_cfft_radix4_q15.c ****     /* yb' = (ya-xb-yc+xd)* co1 - (xa+yb-xc-yd)* (si1) */
 696:.\DSP\Source\TransformFunctions/arm_cfft_radix4_q15.c ****     out2 = (q15_t) ((-Si1 * S0 + Co1 * S1) >> 16);
 377              		.loc 1 696 0 discriminator 1
 378 0190 07FB01F1 		mul	r1, r7, r1
 379              	.LVL89:
 380 0194 0AFB1313 		mls	r3, r10, r3, r1
 381              	.LVL90:
 382 0198 1B0C     		lsrs	r3, r3, #16
 383              	.LVL91:
 697:.\DSP\Source\TransformFunctions/arm_cfft_radix4_q15.c **** 
 698:.\DSP\Source\TransformFunctions/arm_cfft_radix4_q15.c ****     /* writing output(xb', yb') in little endian format */
ARM GAS  C:\Users\IVYLIU~1\AppData\Local\Temp\cc4rI5mx.s 			page 20


 699:.\DSP\Source\TransformFunctions/arm_cfft_radix4_q15.c ****     pSrc16[i2 * 2U] = out1;
 384              		.loc 1 699 0 discriminator 1
 385 019a 2BF82960 		strh	r6, [fp, r9, lsl #2]	@ movhi
 386              	.LVL92:
 700:.\DSP\Source\TransformFunctions/arm_cfft_radix4_q15.c ****     pSrc16[(i2 * 2U) + 1] = out2;
 387              		.loc 1 700 0 discriminator 1
 388 019e 079E     		ldr	r6, [sp, #28]
 389              	.LVL93:
 390 01a0 2BF80630 		strh	r3, [fp, r6]	@ movhi
 391              	.LVL94:
 701:.\DSP\Source\TransformFunctions/arm_cfft_radix4_q15.c **** 
 702:.\DSP\Source\TransformFunctions/arm_cfft_radix4_q15.c ****     /* Co3 & si3 are read from Coefficient pointer */
 703:.\DSP\Source\TransformFunctions/arm_cfft_radix4_q15.c ****     Co3 = pCoef16[3U * (ic * 2U)];
 392              		.loc 1 703 0 discriminator 1
 393 01a4 0CEB4C03 		add	r3, ip, ip, lsl #1
 394              	.LVL95:
 395 01a8 9B00     		lsls	r3, r3, #2
 396              	.LVL96:
 704:.\DSP\Source\TransformFunctions/arm_cfft_radix4_q15.c ****     Si3 = pCoef16[(3U * (ic * 2U)) + 1];
 397              		.loc 1 704 0 discriminator 1
 398 01aa 991C     		adds	r1, r3, #2
 399              	.LVL97:
 705:.\DSP\Source\TransformFunctions/arm_cfft_radix4_q15.c ****     /*  Butterfly process for the i0+3fftLen/4 sample */
 706:.\DSP\Source\TransformFunctions/arm_cfft_radix4_q15.c ****     /* xd' = (xa-yb-xc+yd)* Co3 + (ya+xb-yc-xd)* (si3) */
 707:.\DSP\Source\TransformFunctions/arm_cfft_radix4_q15.c ****     out1 = (q15_t) ((Si3 * R1 + Co3 * R0) >> 16U);
 400              		.loc 1 707 0 discriminator 1
 401 01ac 615E     		ldrsh	r1, [r4, r1]
 402              	.LVL98:
 403 01ae 00B2     		sxth	r0, r0
 404 01b0 E35E     		ldrsh	r3, [r4, r3]
 405              	.LVL99:
 406 01b2 12B2     		sxth	r2, r2
 407 01b4 02FB03F6 		mul	r6, r2, r3
 408 01b8 00FB0166 		mla	r6, r0, r1, r6
 409 01bc 360C     		lsrs	r6, r6, #16
 410              	.LVL100:
 708:.\DSP\Source\TransformFunctions/arm_cfft_radix4_q15.c ****     /* yd' = (ya+xb-yc-xd)* Co3 - (xa-yb-xc+yd)* (si3) */
 709:.\DSP\Source\TransformFunctions/arm_cfft_radix4_q15.c ****     out2 = (q15_t) ((-Si3 * R0 + Co3 * R1) >> 16U);
 411              		.loc 1 709 0 discriminator 1
 412 01be 03FB00F3 		mul	r3, r3, r0
 413 01c2 01FB1232 		mls	r2, r1, r2, r3
 414              	.LVL101:
 415 01c6 130C     		lsrs	r3, r2, #16
 416              	.LVL102:
 710:.\DSP\Source\TransformFunctions/arm_cfft_radix4_q15.c ****     /* writing output(xd', yd') in little endian format */
 711:.\DSP\Source\TransformFunctions/arm_cfft_radix4_q15.c ****     pSrc16[i3 * 2U] = out1;
 417              		.loc 1 711 0 discriminator 1
 418 01c8 2BF82E60 		strh	r6, [fp, lr, lsl #2]	@ movhi
 419              	.LVL103:
 712:.\DSP\Source\TransformFunctions/arm_cfft_radix4_q15.c ****     pSrc16[(i3 * 2U) + 1] = out2;
 420              		.loc 1 712 0 discriminator 1
 421 01cc 2BF80530 		strh	r3, [fp, r5]	@ movhi
 713:.\DSP\Source\TransformFunctions/arm_cfft_radix4_q15.c **** 
 714:.\DSP\Source\TransformFunctions/arm_cfft_radix4_q15.c ****     /*  Twiddle coefficients index modifier */
 715:.\DSP\Source\TransformFunctions/arm_cfft_radix4_q15.c ****     ic = ic + twidCoefModifier;
 422              		.loc 1 715 0 discriminator 1
 423 01d0 099B     		ldr	r3, [sp, #36]
ARM GAS  C:\Users\IVYLIU~1\AppData\Local\Temp\cc4rI5mx.s 			page 21


 424              	.LVL104:
 425 01d2 9C44     		add	ip, ip, r3
 426              	.LVL105:
 716:.\DSP\Source\TransformFunctions/arm_cfft_radix4_q15.c **** 
 717:.\DSP\Source\TransformFunctions/arm_cfft_radix4_q15.c ****     /*  Updating input index */
 718:.\DSP\Source\TransformFunctions/arm_cfft_radix4_q15.c ****     i0 = i0 + 1U;
 427              		.loc 1 718 0 discriminator 1
 428 01d4 08F10108 		add	r8, r8, #1
 429              	.LVL106:
 719:.\DSP\Source\TransformFunctions/arm_cfft_radix4_q15.c **** 
 720:.\DSP\Source\TransformFunctions/arm_cfft_radix4_q15.c ****   } while (--j);
 430              		.loc 1 720 0 discriminator 1
 431 01d8 019B     		ldr	r3, [sp, #4]
 432 01da 013B     		subs	r3, r3, #1
 433              	.LVL107:
 434 01dc 0193     		str	r3, [sp, #4]
 435 01de 7FF41DAF 		bne	.L2
 721:.\DSP\Source\TransformFunctions/arm_cfft_radix4_q15.c ****   /* data is in 4.11(q11) format */
 722:.\DSP\Source\TransformFunctions/arm_cfft_radix4_q15.c **** 
 723:.\DSP\Source\TransformFunctions/arm_cfft_radix4_q15.c ****   /* end of first stage process */
 724:.\DSP\Source\TransformFunctions/arm_cfft_radix4_q15.c **** 
 725:.\DSP\Source\TransformFunctions/arm_cfft_radix4_q15.c **** 
 726:.\DSP\Source\TransformFunctions/arm_cfft_radix4_q15.c ****   /* start of middle stage process */
 727:.\DSP\Source\TransformFunctions/arm_cfft_radix4_q15.c **** 
 728:.\DSP\Source\TransformFunctions/arm_cfft_radix4_q15.c ****   /*  Twiddle coefficients index modifier */
 729:.\DSP\Source\TransformFunctions/arm_cfft_radix4_q15.c ****   twidCoefModifier <<= 2U;
 436              		.loc 1 729 0
 437 01e2 099B     		ldr	r3, [sp, #36]
 438              	.LVL108:
 439 01e4 9B00     		lsls	r3, r3, #2
 440 01e6 0F93     		str	r3, [sp, #60]
 441              	.LVL109:
 730:.\DSP\Source\TransformFunctions/arm_cfft_radix4_q15.c **** 
 731:.\DSP\Source\TransformFunctions/arm_cfft_radix4_q15.c ****   /*  Calculation of Middle stage */
 732:.\DSP\Source\TransformFunctions/arm_cfft_radix4_q15.c ****   for (k = fftLen / 4U; k > 4U; k >>= 2U)
 442              		.loc 1 732 0
 443 01e8 059B     		ldr	r3, [sp, #20]
 444              	.LVL110:
 445 01ea 9B08     		lsrs	r3, r3, #2
 446 01ec 1193     		str	r3, [sp, #68]
 447              	.LVL111:
 448 01ee DE46     		mov	lr, fp
 449              	.LVL112:
 450 01f0 FAE0     		b	.L3
 451              	.LVL113:
 452              	.L8:
 733:.\DSP\Source\TransformFunctions/arm_cfft_radix4_q15.c ****   {
 734:.\DSP\Source\TransformFunctions/arm_cfft_radix4_q15.c ****     /*  Initializations for the middle stage */
 735:.\DSP\Source\TransformFunctions/arm_cfft_radix4_q15.c ****     n1 = n2;
 736:.\DSP\Source\TransformFunctions/arm_cfft_radix4_q15.c ****     n2 >>= 2U;
 453              		.loc 1 736 0
 454 01f2 0C9B     		ldr	r3, [sp, #48]
 455              	.LVL114:
 456 01f4 9B08     		lsrs	r3, r3, #2
 457 01f6 0493     		str	r3, [sp, #16]
 458              	.LVL115:
 737:.\DSP\Source\TransformFunctions/arm_cfft_radix4_q15.c ****     ic = 0U;
ARM GAS  C:\Users\IVYLIU~1\AppData\Local\Temp\cc4rI5mx.s 			page 22


 738:.\DSP\Source\TransformFunctions/arm_cfft_radix4_q15.c **** 
 739:.\DSP\Source\TransformFunctions/arm_cfft_radix4_q15.c ****     for (j = 0U; j <= (n2 - 1U); j++)
 459              		.loc 1 739 0
 460 01f8 0023     		movs	r3, #0
 461              	.LVL116:
 462 01fa 0D93     		str	r3, [sp, #52]
 737:.\DSP\Source\TransformFunctions/arm_cfft_radix4_q15.c ****     ic = 0U;
 463              		.loc 1 737 0
 464 01fc 0E93     		str	r3, [sp, #56]
 465              		.loc 1 739 0
 466 01fe E5E0     		b	.L4
 467              	.LVL117:
 468              	.L7:
 740:.\DSP\Source\TransformFunctions/arm_cfft_radix4_q15.c ****     {
 741:.\DSP\Source\TransformFunctions/arm_cfft_radix4_q15.c ****       /*  index calculation for the coefficients */
 742:.\DSP\Source\TransformFunctions/arm_cfft_radix4_q15.c ****       Co1 = pCoef16[ic * 2U];
 469              		.loc 1 742 0
 470 0200 109A     		ldr	r2, [sp, #64]
 471              	.LVL118:
 472 0202 0E9C     		ldr	r4, [sp, #56]
 473 0204 32F82430 		ldrh	r3, [r2, r4, lsl #2]
 474 0208 0693     		str	r3, [sp, #24]
 475              	.LVL119:
 743:.\DSP\Source\TransformFunctions/arm_cfft_radix4_q15.c ****       Si1 = pCoef16[(ic * 2U) + 1U];
 476              		.loc 1 743 0
 477 020a 1146     		mov	r1, r2
 478 020c 02EB8403 		add	r3, r2, r4, lsl #2
 479 0210 5B88     		ldrh	r3, [r3, #2]
 480 0212 0793     		str	r3, [sp, #28]
 481              	.LVL120:
 744:.\DSP\Source\TransformFunctions/arm_cfft_radix4_q15.c ****       Co2 = pCoef16[2U * (ic * 2U)];
 482              		.loc 1 744 0
 483 0214 32F83430 		ldrh	r3, [r2, r4, lsl #3]
 484 0218 0893     		str	r3, [sp, #32]
 485              	.LVL121:
 745:.\DSP\Source\TransformFunctions/arm_cfft_radix4_q15.c ****       Si2 = pCoef16[(2U * (ic * 2U)) + 1U];
 486              		.loc 1 745 0
 487 021a 01EBC403 		add	r3, r1, r4, lsl #3
 488 021e 5B88     		ldrh	r3, [r3, #2]
 489 0220 0993     		str	r3, [sp, #36]
 490              	.LVL122:
 746:.\DSP\Source\TransformFunctions/arm_cfft_radix4_q15.c ****       Co3 = pCoef16[3U * (ic * 2U)];
 491              		.loc 1 746 0
 492 0222 04EB4403 		add	r3, r4, r4, lsl #1
 493 0226 9B00     		lsls	r3, r3, #2
 494 0228 CA5A     		ldrh	r2, [r1, r3]
 495 022a 0A92     		str	r2, [sp, #40]
 496              	.LVL123:
 747:.\DSP\Source\TransformFunctions/arm_cfft_radix4_q15.c ****       Si3 = pCoef16[(3U * (ic * 2U)) + 1U];
 497              		.loc 1 747 0
 498 022c 0233     		adds	r3, r3, #2
 499 022e CB5A     		ldrh	r3, [r1, r3]
 500 0230 0B93     		str	r3, [sp, #44]
 501              	.LVL124:
 748:.\DSP\Source\TransformFunctions/arm_cfft_radix4_q15.c **** 
 749:.\DSP\Source\TransformFunctions/arm_cfft_radix4_q15.c ****       /*  Twiddle coefficients index modifier */
 750:.\DSP\Source\TransformFunctions/arm_cfft_radix4_q15.c ****       ic = ic + twidCoefModifier;
ARM GAS  C:\Users\IVYLIU~1\AppData\Local\Temp\cc4rI5mx.s 			page 23


 502              		.loc 1 750 0
 503 0232 0F9B     		ldr	r3, [sp, #60]
 504 0234 E318     		adds	r3, r4, r3
 505 0236 0E93     		str	r3, [sp, #56]
 506              	.LVL125:
 751:.\DSP\Source\TransformFunctions/arm_cfft_radix4_q15.c **** 
 752:.\DSP\Source\TransformFunctions/arm_cfft_radix4_q15.c ****       /*  Butterfly implementation */
 753:.\DSP\Source\TransformFunctions/arm_cfft_radix4_q15.c ****       for (i0 = j; i0 < fftLen; i0 += n1)
 507              		.loc 1 753 0
 508 0238 DDF834C0 		ldr	ip, [sp, #52]
 509 023c BFE0     		b	.L5
 510              	.LVL126:
 511              	.L6:
 754:.\DSP\Source\TransformFunctions/arm_cfft_radix4_q15.c ****       {
 755:.\DSP\Source\TransformFunctions/arm_cfft_radix4_q15.c ****         /*  index calculation for the input as, */
 756:.\DSP\Source\TransformFunctions/arm_cfft_radix4_q15.c ****         /*  pSrc16[i0 + 0], pSrc16[i0 + fftLen/4], pSrc16[i0 + fftLen/2], pSrc16[i0 + 3fftLen/4] */
 757:.\DSP\Source\TransformFunctions/arm_cfft_radix4_q15.c ****         i1 = i0 + n2;
 512              		.loc 1 757 0 discriminator 3
 513 023e 049A     		ldr	r2, [sp, #16]
 514 0240 0CEB0206 		add	r6, ip, r2
 515              	.LVL127:
 758:.\DSP\Source\TransformFunctions/arm_cfft_radix4_q15.c ****         i2 = i1 + n2;
 516              		.loc 1 758 0 discriminator 3
 517 0244 06EB0208 		add	r8, r6, r2
 518              	.LVL128:
 759:.\DSP\Source\TransformFunctions/arm_cfft_radix4_q15.c ****         i3 = i2 + n2;
 519              		.loc 1 759 0 discriminator 3
 520 0248 08EB0207 		add	r7, r8, r2
 521              	.LVL129:
 760:.\DSP\Source\TransformFunctions/arm_cfft_radix4_q15.c **** 
 761:.\DSP\Source\TransformFunctions/arm_cfft_radix4_q15.c ****         /*  Reading i0, i0+fftLen/2 inputs */
 762:.\DSP\Source\TransformFunctions/arm_cfft_radix4_q15.c ****         /* Read ya (real), xa(imag) input */
 763:.\DSP\Source\TransformFunctions/arm_cfft_radix4_q15.c ****         T0 = pSrc16[i0 * 2U];
 522              		.loc 1 763 0 discriminator 3
 523 024c 4FEA8C09 		lsl	r9, ip, #2
 524              	.LVL130:
 764:.\DSP\Source\TransformFunctions/arm_cfft_radix4_q15.c ****         T1 = pSrc16[(i0 * 2U) + 1U];
 525              		.loc 1 764 0 discriminator 3
 526 0250 09F10209 		add	r9, r9, #2
 527 0254 3EF80910 		ldrh	r1, [lr, r9]
 528              	.LVL131:
 765:.\DSP\Source\TransformFunctions/arm_cfft_radix4_q15.c **** 
 766:.\DSP\Source\TransformFunctions/arm_cfft_radix4_q15.c ****         /* Read yc (real), xc(imag) input */
 767:.\DSP\Source\TransformFunctions/arm_cfft_radix4_q15.c ****         S0 = pSrc16[i2 * 2U];
 529              		.loc 1 767 0 discriminator 3
 530 0258 4FEA8803 		lsl	r3, r8, #2
 531              	.LVL132:
 768:.\DSP\Source\TransformFunctions/arm_cfft_radix4_q15.c ****         S1 = pSrc16[(i2 * 2U) + 1U];
 532              		.loc 1 768 0 discriminator 3
 533 025c 0233     		adds	r3, r3, #2
 534 025e 0393     		str	r3, [sp, #12]
 535 0260 3EF80350 		ldrh	r5, [lr, r3]
 536              	.LVL133:
 537              	.LBB16:
 769:.\DSP\Source\TransformFunctions/arm_cfft_radix4_q15.c **** 
 770:.\DSP\Source\TransformFunctions/arm_cfft_radix4_q15.c ****         /* R0 = (ya + yc), R1 = (xa + xc) */
 771:.\DSP\Source\TransformFunctions/arm_cfft_radix4_q15.c ****         R0 = __SSAT(T0 + S0, 16);
ARM GAS  C:\Users\IVYLIU~1\AppData\Local\Temp\cc4rI5mx.s 			page 24


 538              		.loc 1 771 0 discriminator 3
 539 0264 3EF92C40 		ldrsh	r4, [lr, ip, lsl #2]
 540 0268 3EF928A0 		ldrsh	r10, [lr, r8, lsl #2]
 541 026c 04EB0A03 		add	r3, r4, r10
 542              	.LVL134:
 543              	@ 771 ".\DSP\Source\TransformFunctions\arm_cfft_radix4_q15.c" 1
 544 0270 03F30F03 		ssat r3, #16, r3
 545              	@ 0 "" 2
 546              	.LVL135:
 547              		.thumb
 548              	.LBE16:
 549 0274 9BB2     		uxth	r3, r3
 550              	.LVL136:
 551              	.LBB17:
 772:.\DSP\Source\TransformFunctions/arm_cfft_radix4_q15.c ****         R1 = __SSAT(T1 + S1, 16);
 552              		.loc 1 772 0 discriminator 3
 553 0276 09B2     		sxth	r1, r1
 554 0278 2DB2     		sxth	r5, r5
 555 027a 4819     		adds	r0, r1, r5
 556              	.LVL137:
 557              	@ 772 ".\DSP\Source\TransformFunctions\arm_cfft_radix4_q15.c" 1
 558 027c 00F30F00 		ssat r0, #16, r0
 559              	@ 0 "" 2
 560              	.LVL138:
 561              		.thumb
 562              	.LBE17:
 563 0280 80B2     		uxth	r0, r0
 564              	.LVL139:
 565              	.LBB18:
 773:.\DSP\Source\TransformFunctions/arm_cfft_radix4_q15.c **** 
 774:.\DSP\Source\TransformFunctions/arm_cfft_radix4_q15.c ****         /* S0 = (ya - yc), S1 =(xa - xc) */
 775:.\DSP\Source\TransformFunctions/arm_cfft_radix4_q15.c ****         S0 = __SSAT(T0 - S0, 16);
 566              		.loc 1 775 0 discriminator 3
 567 0282 CAEB0404 		rsb	r4, r10, r4
 568              	.LVL140:
 569              	@ 775 ".\DSP\Source\TransformFunctions\arm_cfft_radix4_q15.c" 1
 570 0286 04F30F04 		ssat r4, #16, r4
 571              	@ 0 "" 2
 572              	.LVL141:
 573              		.thumb
 574              	.LBE18:
 575 028a A4B2     		uxth	r4, r4
 576              	.LVL142:
 577 028c 0194     		str	r4, [sp, #4]
 578              	.LVL143:
 579              	.LBB19:
 776:.\DSP\Source\TransformFunctions/arm_cfft_radix4_q15.c ****         S1 = __SSAT(T1 - S1, 16);
 580              		.loc 1 776 0 discriminator 3
 581 028e 491B     		subs	r1, r1, r5
 582              	.LVL144:
 583              	@ 776 ".\DSP\Source\TransformFunctions\arm_cfft_radix4_q15.c" 1
 584 0290 01F30F01 		ssat r1, #16, r1
 585              	@ 0 "" 2
 586              	.LVL145:
 587              		.thumb
 588              	.LBE19:
 589 0294 8DB2     		uxth	r5, r1
ARM GAS  C:\Users\IVYLIU~1\AppData\Local\Temp\cc4rI5mx.s 			page 25


 590              	.LVL146:
 591 0296 0295     		str	r5, [sp, #8]
 592              	.LVL147:
 777:.\DSP\Source\TransformFunctions/arm_cfft_radix4_q15.c **** 
 778:.\DSP\Source\TransformFunctions/arm_cfft_radix4_q15.c ****         /*  Reading i0+fftLen/4 , i0+3fftLen/4 inputs */
 779:.\DSP\Source\TransformFunctions/arm_cfft_radix4_q15.c ****         /* Read yb (real), xb(imag) input */
 780:.\DSP\Source\TransformFunctions/arm_cfft_radix4_q15.c ****         T0 = pSrc16[i1 * 2U];
 593              		.loc 1 780 0 discriminator 3
 594 0298 B500     		lsls	r5, r6, #2
 595              	.LVL148:
 781:.\DSP\Source\TransformFunctions/arm_cfft_radix4_q15.c ****         T1 = pSrc16[(i1 * 2U) + 1U];
 596              		.loc 1 781 0 discriminator 3
 597 029a 0235     		adds	r5, r5, #2
 598 029c 3EF80520 		ldrh	r2, [lr, r5]
 599              	.LVL149:
 782:.\DSP\Source\TransformFunctions/arm_cfft_radix4_q15.c **** 
 783:.\DSP\Source\TransformFunctions/arm_cfft_radix4_q15.c ****         /* Read yd (real), xd(imag) input */
 784:.\DSP\Source\TransformFunctions/arm_cfft_radix4_q15.c ****         U0 = pSrc16[i3 * 2U];
 600              		.loc 1 784 0 discriminator 3
 601 02a0 BC00     		lsls	r4, r7, #2
 602              	.LVL150:
 785:.\DSP\Source\TransformFunctions/arm_cfft_radix4_q15.c ****         U1 = pSrc16[(i3 * 2U) + 1U];
 603              		.loc 1 785 0 discriminator 3
 604 02a2 0234     		adds	r4, r4, #2
 605 02a4 3EF804A0 		ldrh	r10, [lr, r4]
 606              	.LVL151:
 607              	.LBB20:
 786:.\DSP\Source\TransformFunctions/arm_cfft_radix4_q15.c **** 
 787:.\DSP\Source\TransformFunctions/arm_cfft_radix4_q15.c **** 
 788:.\DSP\Source\TransformFunctions/arm_cfft_radix4_q15.c ****         /* T0 = (yb + yd), T1 = (xb + xd) */
 789:.\DSP\Source\TransformFunctions/arm_cfft_radix4_q15.c ****         T0 = __SSAT(T0 + U0, 16);
 608              		.loc 1 789 0 discriminator 3
 609 02a8 3EF926B0 		ldrsh	fp, [lr, r6, lsl #2]
 610 02ac 3EF92710 		ldrsh	r1, [lr, r7, lsl #2]
 611              	.LVL152:
 612 02b0 5944     		add	r1, r1, fp
 613              	.LVL153:
 614              	@ 789 ".\DSP\Source\TransformFunctions\arm_cfft_radix4_q15.c" 1
 615 02b2 01F30F01 		ssat r1, #16, r1
 616              	@ 0 "" 2
 617              	.LVL154:
 618              		.thumb
 619              	.LBE20:
 620 02b6 89B2     		uxth	r1, r1
 621              	.LVL155:
 622              	.LBB21:
 790:.\DSP\Source\TransformFunctions/arm_cfft_radix4_q15.c ****         T1 = __SSAT(T1 + U1, 16);
 623              		.loc 1 790 0 discriminator 3
 624 02b8 12B2     		sxth	r2, r2
 625 02ba 0FFA8AFA 		sxth	r10, r10
 626 02be 5244     		add	r2, r2, r10
 627              	.LVL156:
 628              	@ 790 ".\DSP\Source\TransformFunctions\arm_cfft_radix4_q15.c" 1
 629 02c0 02F30F02 		ssat r2, #16, r2
 630              	@ 0 "" 2
 631              	.LVL157:
 632              		.thumb
ARM GAS  C:\Users\IVYLIU~1\AppData\Local\Temp\cc4rI5mx.s 			page 26


 633              	.LBE21:
 791:.\DSP\Source\TransformFunctions/arm_cfft_radix4_q15.c **** 
 792:.\DSP\Source\TransformFunctions/arm_cfft_radix4_q15.c ****         /*  writing the butterfly processed i0 sample */
 793:.\DSP\Source\TransformFunctions/arm_cfft_radix4_q15.c **** 
 794:.\DSP\Source\TransformFunctions/arm_cfft_radix4_q15.c ****         /* xa' = xa + xb + xc + xd */
 795:.\DSP\Source\TransformFunctions/arm_cfft_radix4_q15.c ****         /* ya' = ya + yb + yc + yd */
 796:.\DSP\Source\TransformFunctions/arm_cfft_radix4_q15.c ****         out1 = ((R0 >> 1U) + (T0 >> 1U)) >> 1U;
 634              		.loc 1 796 0 discriminator 3
 635 02c4 43F34E03 		sbfx	r3, r3, #1, #15
 636              	.LVL158:
 637 02c8 41F34E01 		sbfx	r1, r1, #1, #15
 638              	.LVL159:
 639 02cc 01EB030A 		add	r10, r1, r3
 640              	.LVL160:
 641 02d0 CAF34F0A 		ubfx	r10, r10, #1, #16
 642              	.LVL161:
 797:.\DSP\Source\TransformFunctions/arm_cfft_radix4_q15.c ****         out2 = ((R1 >> 1U) + (T1 >> 1U)) >> 1U;
 643              		.loc 1 797 0 discriminator 3
 644 02d4 40F34E00 		sbfx	r0, r0, #1, #15
 645              	.LVL162:
 646 02d8 42F34E02 		sbfx	r2, r2, #1, #15
 647              	.LVL163:
 648 02dc 02EB000B 		add	fp, r2, r0
 649              	.LVL164:
 650 02e0 CBF34F0B 		ubfx	fp, fp, #1, #16
 651              	.LVL165:
 798:.\DSP\Source\TransformFunctions/arm_cfft_radix4_q15.c **** 
 799:.\DSP\Source\TransformFunctions/arm_cfft_radix4_q15.c ****         pSrc16[i0 * 2U] = out1;
 652              		.loc 1 799 0 discriminator 3
 653 02e4 2EF82CA0 		strh	r10, [lr, ip, lsl #2]	@ movhi
 654              	.LVL166:
 800:.\DSP\Source\TransformFunctions/arm_cfft_radix4_q15.c ****         pSrc16[(2U * i0) + 1U] = out2;
 655              		.loc 1 800 0 discriminator 3
 656 02e8 2EF809B0 		strh	fp, [lr, r9]	@ movhi
 801:.\DSP\Source\TransformFunctions/arm_cfft_radix4_q15.c **** 
 802:.\DSP\Source\TransformFunctions/arm_cfft_radix4_q15.c ****         /* R0 = (ya + yc) - (yb + yd), R1 = (xa + xc) - (xb + xd) */
 803:.\DSP\Source\TransformFunctions/arm_cfft_radix4_q15.c ****         R0 = (R0 >> 1U) - (T0 >> 1U);
 657              		.loc 1 803 0 discriminator 3
 658 02ec 5B1A     		subs	r3, r3, r1
 659              	.LVL167:
 804:.\DSP\Source\TransformFunctions/arm_cfft_radix4_q15.c ****         R1 = (R1 >> 1U) - (T1 >> 1U);
 660              		.loc 1 804 0 discriminator 3
 661 02ee 821A     		subs	r2, r0, r2
 662              	.LVL168:
 805:.\DSP\Source\TransformFunctions/arm_cfft_radix4_q15.c **** 
 806:.\DSP\Source\TransformFunctions/arm_cfft_radix4_q15.c ****         /* (ya-yb+yc-yd)* (si2) + (xa-xb+xc-xd)* co2 */
 807:.\DSP\Source\TransformFunctions/arm_cfft_radix4_q15.c ****         out1 = (q15_t) ((Co2 * R0 + Si2 * R1) >> 16U);
 663              		.loc 1 807 0 discriminator 3
 664 02f0 BDF92000 		ldrsh	r0, [sp, #32]
 665 02f4 1BB2     		sxth	r3, r3
 666 02f6 BDF924A0 		ldrsh	r10, [sp, #36]
 667              	.LVL169:
 668 02fa 12B2     		sxth	r2, r2
 669 02fc 02FB0AF9 		mul	r9, r2, r10
 670 0300 03FB0099 		mla	r9, r3, r0, r9
 671 0304 4FEA1949 		lsr	r9, r9, #16
 672              	.LVL170:
ARM GAS  C:\Users\IVYLIU~1\AppData\Local\Temp\cc4rI5mx.s 			page 27


 808:.\DSP\Source\TransformFunctions/arm_cfft_radix4_q15.c **** 
 809:.\DSP\Source\TransformFunctions/arm_cfft_radix4_q15.c ****         /* (ya-yb+yc-yd)* co2 - (xa-xb+xc-xd)* (si2) */
 810:.\DSP\Source\TransformFunctions/arm_cfft_radix4_q15.c ****         out2 = (q15_t) ((-Si2 * R0 + Co2 * R1) >> 16U);
 673              		.loc 1 810 0 discriminator 3
 674 0308 02FB00F2 		mul	r2, r2, r0
 675              	.LVL171:
 676 030c 0AFB1323 		mls	r3, r10, r3, r2
 677              	.LVL172:
 678 0310 1B0C     		lsrs	r3, r3, #16
 679              	.LVL173:
 811:.\DSP\Source\TransformFunctions/arm_cfft_radix4_q15.c **** 
 812:.\DSP\Source\TransformFunctions/arm_cfft_radix4_q15.c ****         /*  Reading i0+3fftLen/4 */
 813:.\DSP\Source\TransformFunctions/arm_cfft_radix4_q15.c ****         /* Read yb (real), xb(imag) input */
 814:.\DSP\Source\TransformFunctions/arm_cfft_radix4_q15.c ****         T0 = pSrc16[i1 * 2U];
 680              		.loc 1 814 0 discriminator 3
 681 0312 3EF82600 		ldrh	r0, [lr, r6, lsl #2]
 682              	.LVL174:
 815:.\DSP\Source\TransformFunctions/arm_cfft_radix4_q15.c ****         T1 = pSrc16[(i1 * 2U) + 1U];
 683              		.loc 1 815 0 discriminator 3
 684 0316 3EF805B0 		ldrh	fp, [lr, r5]
 685              	.LVL175:
 816:.\DSP\Source\TransformFunctions/arm_cfft_radix4_q15.c **** 
 817:.\DSP\Source\TransformFunctions/arm_cfft_radix4_q15.c ****         /*  writing the butterfly processed i0 + fftLen/4 sample */
 818:.\DSP\Source\TransformFunctions/arm_cfft_radix4_q15.c ****         /* xc' = (xa-xb+xc-xd)* co2 + (ya-yb+yc-yd)* (si2) */
 819:.\DSP\Source\TransformFunctions/arm_cfft_radix4_q15.c ****         /* yc' = (ya-yb+yc-yd)* co2 - (xa-xb+xc-xd)* (si2) */
 820:.\DSP\Source\TransformFunctions/arm_cfft_radix4_q15.c ****         pSrc16[i1 * 2U] = out1;
 686              		.loc 1 820 0 discriminator 3
 687 031a 2EF82690 		strh	r9, [lr, r6, lsl #2]	@ movhi
 821:.\DSP\Source\TransformFunctions/arm_cfft_radix4_q15.c ****         pSrc16[(i1 * 2U) + 1U] = out2;
 688              		.loc 1 821 0 discriminator 3
 689 031e 2EF80530 		strh	r3, [lr, r5]	@ movhi
 690              	.LVL176:
 822:.\DSP\Source\TransformFunctions/arm_cfft_radix4_q15.c **** 
 823:.\DSP\Source\TransformFunctions/arm_cfft_radix4_q15.c ****         /*  Butterfly calculations */
 824:.\DSP\Source\TransformFunctions/arm_cfft_radix4_q15.c **** 
 825:.\DSP\Source\TransformFunctions/arm_cfft_radix4_q15.c ****         /* Read yd (real), xd(imag) input */
 826:.\DSP\Source\TransformFunctions/arm_cfft_radix4_q15.c ****         U0 = pSrc16[i3 * 2U];
 827:.\DSP\Source\TransformFunctions/arm_cfft_radix4_q15.c ****         U1 = pSrc16[(i3 * 2U) + 1U];
 691              		.loc 1 827 0 discriminator 3
 692 0322 3EF80450 		ldrh	r5, [lr, r4]
 693              	.LVL177:
 694              	.LBB22:
 828:.\DSP\Source\TransformFunctions/arm_cfft_radix4_q15.c **** 
 829:.\DSP\Source\TransformFunctions/arm_cfft_radix4_q15.c ****         /* T0 = yb-yd, T1 = xb-xd */
 830:.\DSP\Source\TransformFunctions/arm_cfft_radix4_q15.c ****         T0 = __SSAT(T0 - U0, 16);
 695              		.loc 1 830 0 discriminator 3
 696 0326 00B2     		sxth	r0, r0
 697 0328 3EF92720 		ldrsh	r2, [lr, r7, lsl #2]
 698 032c 801A     		subs	r0, r0, r2
 699              	.LVL178:
 700              	@ 830 ".\DSP\Source\TransformFunctions\arm_cfft_radix4_q15.c" 1
 701 032e 00F30F00 		ssat r0, #16, r0
 702              	@ 0 "" 2
 703              	.LVL179:
 704              		.thumb
 705              	.LBE22:
 706 0332 80B2     		uxth	r0, r0
ARM GAS  C:\Users\IVYLIU~1\AppData\Local\Temp\cc4rI5mx.s 			page 28


 707              	.LVL180:
 708              	.LBB23:
 831:.\DSP\Source\TransformFunctions/arm_cfft_radix4_q15.c ****         T1 = __SSAT(T1 - U1, 16);
 709              		.loc 1 831 0 discriminator 3
 710 0334 0FFA8BFB 		sxth	fp, fp
 711 0338 2DB2     		sxth	r5, r5
 712 033a C5EB0B05 		rsb	r5, r5, fp
 713              	.LVL181:
 714              	@ 831 ".\DSP\Source\TransformFunctions\arm_cfft_radix4_q15.c" 1
 715 033e 05F30F05 		ssat r5, #16, r5
 716              	@ 0 "" 2
 717              	.LVL182:
 718              		.thumb
 719              	.LBE23:
 832:.\DSP\Source\TransformFunctions/arm_cfft_radix4_q15.c **** 
 833:.\DSP\Source\TransformFunctions/arm_cfft_radix4_q15.c ****         /* R0 = (ya-yc) + (xb- xd), R1 = (xa-xc) - (yb-yd)) */
 834:.\DSP\Source\TransformFunctions/arm_cfft_radix4_q15.c ****         R0 = (S0 >> 1U) - (T1 >> 1U);
 720              		.loc 1 834 0 discriminator 3
 721 0342 0199     		ldr	r1, [sp, #4]
 722 0344 41F34E06 		sbfx	r6, r1, #1, #15
 723              	.LVL183:
 724 0348 B6B2     		uxth	r6, r6
 725 034a 45F34E01 		sbfx	r1, r5, #1, #15
 726 034e 89B2     		uxth	r1, r1
 727 0350 751A     		subs	r5, r6, r1
 728              	.LVL184:
 835:.\DSP\Source\TransformFunctions/arm_cfft_radix4_q15.c ****         R1 = (S1 >> 1U) + (T0 >> 1U);
 729              		.loc 1 835 0 discriminator 3
 730 0352 029B     		ldr	r3, [sp, #8]
 731              	.LVL185:
 732 0354 43F34E02 		sbfx	r2, r3, #1, #15
 733 0358 93B2     		uxth	r3, r2
 734 035a 40F34E02 		sbfx	r2, r0, #1, #15
 735 035e 92B2     		uxth	r2, r2
 736 0360 9818     		adds	r0, r3, r2
 737              	.LVL186:
 836:.\DSP\Source\TransformFunctions/arm_cfft_radix4_q15.c **** 
 837:.\DSP\Source\TransformFunctions/arm_cfft_radix4_q15.c ****         /* S0 = (ya-yc) - (xb- xd), S1 = (xa-xc) + (yb-yd)) */
 838:.\DSP\Source\TransformFunctions/arm_cfft_radix4_q15.c ****         S0 = (S0 >> 1U) + (T1 >> 1U);
 738              		.loc 1 838 0 discriminator 3
 739 0362 3144     		add	r1, r1, r6
 740              	.LVL187:
 839:.\DSP\Source\TransformFunctions/arm_cfft_radix4_q15.c ****         S1 = (S1 >> 1U) - (T0 >> 1U);
 741              		.loc 1 839 0 discriminator 3
 742 0364 9A1A     		subs	r2, r3, r2
 743              	.LVL188:
 840:.\DSP\Source\TransformFunctions/arm_cfft_radix4_q15.c **** 
 841:.\DSP\Source\TransformFunctions/arm_cfft_radix4_q15.c ****         /*  Butterfly process for the i0+fftLen/2 sample */
 842:.\DSP\Source\TransformFunctions/arm_cfft_radix4_q15.c ****         out1 = (q15_t) ((Co1 * S0 + Si1 * S1) >> 16U);
 744              		.loc 1 842 0 discriminator 3
 745 0366 BDF91890 		ldrsh	r9, [sp, #24]
 746              	.LVL189:
 747 036a 09B2     		sxth	r1, r1
 748 036c BDF91C60 		ldrsh	r6, [sp, #28]
 749 0370 13B2     		sxth	r3, r2
 750 0372 03FB06F2 		mul	r2, r3, r6
 751              	.LVL190:
ARM GAS  C:\Users\IVYLIU~1\AppData\Local\Temp\cc4rI5mx.s 			page 29


 752 0376 01FB0922 		mla	r2, r1, r9, r2
 753 037a 120C     		lsrs	r2, r2, #16
 754              	.LVL191:
 843:.\DSP\Source\TransformFunctions/arm_cfft_radix4_q15.c **** 
 844:.\DSP\Source\TransformFunctions/arm_cfft_radix4_q15.c ****         out2 = (q15_t) ((-Si1 * S0 + Co1 * S1) >> 16U);
 755              		.loc 1 844 0 discriminator 3
 756 037c 03FB09F9 		mul	r9, r3, r9
 757 0380 06FB1199 		mls	r9, r6, r1, r9
 758 0384 4FEA1949 		lsr	r9, r9, #16
 759              	.LVL192:
 845:.\DSP\Source\TransformFunctions/arm_cfft_radix4_q15.c **** 
 846:.\DSP\Source\TransformFunctions/arm_cfft_radix4_q15.c ****         /* xb' = (xa+yb-xc-yd)* co1 + (ya-xb-yc+xd)* (si1) */
 847:.\DSP\Source\TransformFunctions/arm_cfft_radix4_q15.c ****         /* yb' = (ya-xb-yc+xd)* co1 - (xa+yb-xc-yd)* (si1) */
 848:.\DSP\Source\TransformFunctions/arm_cfft_radix4_q15.c ****         pSrc16[i2 * 2U] = out1;
 760              		.loc 1 848 0 discriminator 3
 761 0388 2EF82820 		strh	r2, [lr, r8, lsl #2]	@ movhi
 762              	.LVL193:
 849:.\DSP\Source\TransformFunctions/arm_cfft_radix4_q15.c ****         pSrc16[(i2 * 2U) + 1U] = out2;
 763              		.loc 1 849 0 discriminator 3
 764 038c 039A     		ldr	r2, [sp, #12]
 765              	.LVL194:
 766 038e 2EF80290 		strh	r9, [lr, r2]	@ movhi
 767              	.LVL195:
 850:.\DSP\Source\TransformFunctions/arm_cfft_radix4_q15.c **** 
 851:.\DSP\Source\TransformFunctions/arm_cfft_radix4_q15.c ****         /*  Butterfly process for the i0+3fftLen/4 sample */
 852:.\DSP\Source\TransformFunctions/arm_cfft_radix4_q15.c ****         out1 = (q15_t) ((Si3 * R1 + Co3 * R0) >> 16U);
 768              		.loc 1 852 0 discriminator 3
 769 0392 BDF92C20 		ldrsh	r2, [sp, #44]
 770 0396 00B2     		sxth	r0, r0
 771 0398 BDF92830 		ldrsh	r3, [sp, #40]
 772              	.LVL196:
 773 039c 2DB2     		sxth	r5, r5
 774 039e 05FB03F1 		mul	r1, r5, r3
 775              	.LVL197:
 776 03a2 00FB0211 		mla	r1, r0, r2, r1
 777 03a6 090C     		lsrs	r1, r1, #16
 778              	.LVL198:
 853:.\DSP\Source\TransformFunctions/arm_cfft_radix4_q15.c **** 
 854:.\DSP\Source\TransformFunctions/arm_cfft_radix4_q15.c ****         out2 = (q15_t) ((-Si3 * R0 + Co3 * R1) >> 16U);
 779              		.loc 1 854 0 discriminator 3
 780 03a8 03FB00F0 		mul	r0, r3, r0
 781              	.LVL199:
 782 03ac 02FB1502 		mls	r2, r2, r5, r0
 783 03b0 120C     		lsrs	r2, r2, #16
 784              	.LVL200:
 855:.\DSP\Source\TransformFunctions/arm_cfft_radix4_q15.c ****         /* xd' = (xa-yb-xc+yd)* Co3 + (ya+xb-yc-xd)* (si3) */
 856:.\DSP\Source\TransformFunctions/arm_cfft_radix4_q15.c ****         /* yd' = (ya+xb-yc-xd)* Co3 - (xa-yb-xc+yd)* (si3) */
 857:.\DSP\Source\TransformFunctions/arm_cfft_radix4_q15.c ****         pSrc16[i3 * 2U] = out1;
 785              		.loc 1 857 0 discriminator 3
 786 03b2 2EF82710 		strh	r1, [lr, r7, lsl #2]	@ movhi
 858:.\DSP\Source\TransformFunctions/arm_cfft_radix4_q15.c ****         pSrc16[(i3 * 2U) + 1U] = out2;
 787              		.loc 1 858 0 discriminator 3
 788 03b6 2EF80420 		strh	r2, [lr, r4]	@ movhi
 753:.\DSP\Source\TransformFunctions/arm_cfft_radix4_q15.c ****       {
 789              		.loc 1 753 0 discriminator 3
 790 03ba 0C9B     		ldr	r3, [sp, #48]
 791 03bc 9C44     		add	ip, ip, r3
ARM GAS  C:\Users\IVYLIU~1\AppData\Local\Temp\cc4rI5mx.s 			page 30


 792              	.LVL201:
 793              	.L5:
 753:.\DSP\Source\TransformFunctions/arm_cfft_radix4_q15.c ****       {
 794              		.loc 1 753 0 is_stmt 0 discriminator 1
 795 03be 059B     		ldr	r3, [sp, #20]
 796 03c0 9C45     		cmp	ip, r3
 797 03c2 FFF43CAF 		bcc	.L6
 739:.\DSP\Source\TransformFunctions/arm_cfft_radix4_q15.c ****     {
 798              		.loc 1 739 0 is_stmt 1 discriminator 2
 799 03c6 0D9B     		ldr	r3, [sp, #52]
 800 03c8 0133     		adds	r3, r3, #1
 801 03ca 0D93     		str	r3, [sp, #52]
 802              	.LVL202:
 803              	.L4:
 739:.\DSP\Source\TransformFunctions/arm_cfft_radix4_q15.c ****     {
 804              		.loc 1 739 0 is_stmt 0 discriminator 1
 805 03cc 049B     		ldr	r3, [sp, #16]
 806 03ce 013B     		subs	r3, r3, #1
 807 03d0 0D9A     		ldr	r2, [sp, #52]
 808 03d2 9342     		cmp	r3, r2
 809 03d4 BFF414AF 		bcs	.L7
 859:.\DSP\Source\TransformFunctions/arm_cfft_radix4_q15.c ****       }
 860:.\DSP\Source\TransformFunctions/arm_cfft_radix4_q15.c ****     }
 861:.\DSP\Source\TransformFunctions/arm_cfft_radix4_q15.c ****     /*  Twiddle coefficients index modifier */
 862:.\DSP\Source\TransformFunctions/arm_cfft_radix4_q15.c ****     twidCoefModifier <<= 2U;
 810              		.loc 1 862 0 is_stmt 1 discriminator 2
 811 03d8 0F9B     		ldr	r3, [sp, #60]
 812 03da 9B00     		lsls	r3, r3, #2
 813 03dc 0F93     		str	r3, [sp, #60]
 814              	.LVL203:
 732:.\DSP\Source\TransformFunctions/arm_cfft_radix4_q15.c ****   {
 815              		.loc 1 732 0 discriminator 2
 816 03de 119B     		ldr	r3, [sp, #68]
 817              	.LVL204:
 818 03e0 9B08     		lsrs	r3, r3, #2
 819 03e2 1193     		str	r3, [sp, #68]
 820              	.LVL205:
 736:.\DSP\Source\TransformFunctions/arm_cfft_radix4_q15.c ****     ic = 0U;
 821              		.loc 1 736 0 discriminator 2
 822 03e4 049B     		ldr	r3, [sp, #16]
 823              	.LVL206:
 824 03e6 0C93     		str	r3, [sp, #48]
 825              	.LVL207:
 826              	.L3:
 732:.\DSP\Source\TransformFunctions/arm_cfft_radix4_q15.c ****   {
 827              		.loc 1 732 0 discriminator 1
 828 03e8 119B     		ldr	r3, [sp, #68]
 829 03ea 042B     		cmp	r3, #4
 830 03ec 3FF601AF 		bhi	.L8
 831 03f0 F346     		mov	fp, lr
 832              	.LVL208:
 863:.\DSP\Source\TransformFunctions/arm_cfft_radix4_q15.c ****   }
 864:.\DSP\Source\TransformFunctions/arm_cfft_radix4_q15.c ****   /* end of middle stage process */
 865:.\DSP\Source\TransformFunctions/arm_cfft_radix4_q15.c **** 
 866:.\DSP\Source\TransformFunctions/arm_cfft_radix4_q15.c **** 
 867:.\DSP\Source\TransformFunctions/arm_cfft_radix4_q15.c ****   /* data is in 10.6(q6) format for the 1024 point */
 868:.\DSP\Source\TransformFunctions/arm_cfft_radix4_q15.c ****   /* data is in 8.8(q8) format for the 256 point */
ARM GAS  C:\Users\IVYLIU~1\AppData\Local\Temp\cc4rI5mx.s 			page 31


 869:.\DSP\Source\TransformFunctions/arm_cfft_radix4_q15.c ****   /* data is in 6.10(q10) format for the 64 point */
 870:.\DSP\Source\TransformFunctions/arm_cfft_radix4_q15.c ****   /* data is in 4.12(q12) format for the 16 point */
 871:.\DSP\Source\TransformFunctions/arm_cfft_radix4_q15.c **** 
 872:.\DSP\Source\TransformFunctions/arm_cfft_radix4_q15.c ****   /*  Initializations for the last stage */
 873:.\DSP\Source\TransformFunctions/arm_cfft_radix4_q15.c ****   n1 = n2;
 874:.\DSP\Source\TransformFunctions/arm_cfft_radix4_q15.c ****   n2 >>= 2U;
 833              		.loc 1 874 0
 834 03f2 0C9B     		ldr	r3, [sp, #48]
 835 03f4 9B08     		lsrs	r3, r3, #2
 836 03f6 0493     		str	r3, [sp, #16]
 837              	.LVL209:
 875:.\DSP\Source\TransformFunctions/arm_cfft_radix4_q15.c **** 
 876:.\DSP\Source\TransformFunctions/arm_cfft_radix4_q15.c ****   /* start of last stage process */
 877:.\DSP\Source\TransformFunctions/arm_cfft_radix4_q15.c **** 
 878:.\DSP\Source\TransformFunctions/arm_cfft_radix4_q15.c ****   /*  Butterfly implementation */
 879:.\DSP\Source\TransformFunctions/arm_cfft_radix4_q15.c ****   for (i0 = 0U; i0 <= (fftLen - n1); i0 += n1)
 838              		.loc 1 879 0
 839 03f8 4FF0000E 		mov	lr, #0
 840              	.LVL210:
 841 03fc 8DE0     		b	.L9
 842              	.LVL211:
 843              	.L10:
 880:.\DSP\Source\TransformFunctions/arm_cfft_radix4_q15.c ****   {
 881:.\DSP\Source\TransformFunctions/arm_cfft_radix4_q15.c ****     /*  index calculation for the input as, */
 882:.\DSP\Source\TransformFunctions/arm_cfft_radix4_q15.c ****     /*  pSrc16[i0 + 0], pSrc16[i0 + fftLen/4], pSrc16[i0 + fftLen/2], pSrc16[i0 + 3fftLen/4] */
 883:.\DSP\Source\TransformFunctions/arm_cfft_radix4_q15.c ****     i1 = i0 + n2;
 844              		.loc 1 883 0 discriminator 3
 845 03fe 049A     		ldr	r2, [sp, #16]
 846 0400 0EEB0206 		add	r6, lr, r2
 847              	.LVL212:
 884:.\DSP\Source\TransformFunctions/arm_cfft_radix4_q15.c ****     i2 = i1 + n2;
 848              		.loc 1 884 0 discriminator 3
 849 0404 06EB020C 		add	ip, r6, r2
 850              	.LVL213:
 885:.\DSP\Source\TransformFunctions/arm_cfft_radix4_q15.c ****     i3 = i2 + n2;
 851              		.loc 1 885 0 discriminator 3
 852 0408 0CEB0207 		add	r7, ip, r2
 853              	.LVL214:
 886:.\DSP\Source\TransformFunctions/arm_cfft_radix4_q15.c **** 
 887:.\DSP\Source\TransformFunctions/arm_cfft_radix4_q15.c ****     /*  Reading i0, i0+fftLen/2 inputs */
 888:.\DSP\Source\TransformFunctions/arm_cfft_radix4_q15.c ****     /* Read ya (real), xa(imag) input */
 889:.\DSP\Source\TransformFunctions/arm_cfft_radix4_q15.c ****     T0 = pSrc16[i0 * 2U];
 854              		.loc 1 889 0 discriminator 3
 855 040c 4FEA8E08 		lsl	r8, lr, #2
 856              	.LVL215:
 890:.\DSP\Source\TransformFunctions/arm_cfft_radix4_q15.c ****     T1 = pSrc16[(i0 * 2U) + 1U];
 857              		.loc 1 890 0 discriminator 3
 858 0410 08F10208 		add	r8, r8, #2
 859 0414 3BF80830 		ldrh	r3, [fp, r8]
 860              	.LVL216:
 891:.\DSP\Source\TransformFunctions/arm_cfft_radix4_q15.c **** 
 892:.\DSP\Source\TransformFunctions/arm_cfft_radix4_q15.c ****     /* Read yc (real), xc(imag) input */
 893:.\DSP\Source\TransformFunctions/arm_cfft_radix4_q15.c ****     S0 = pSrc16[i2 * 2U];
 861              		.loc 1 893 0 discriminator 3
 862 0418 4FEA8C02 		lsl	r2, ip, #2
 863              	.LVL217:
 894:.\DSP\Source\TransformFunctions/arm_cfft_radix4_q15.c ****     S1 = pSrc16[(i2 * 2U) + 1U];
ARM GAS  C:\Users\IVYLIU~1\AppData\Local\Temp\cc4rI5mx.s 			page 32


 864              		.loc 1 894 0 discriminator 3
 865 041c 02F1020A 		add	r10, r2, #2
 866 0420 3BF80A40 		ldrh	r4, [fp, r10]
 867              	.LVL218:
 868              	.LBB24:
 895:.\DSP\Source\TransformFunctions/arm_cfft_radix4_q15.c **** 
 896:.\DSP\Source\TransformFunctions/arm_cfft_radix4_q15.c ****     /* R0 = (ya + yc), R1 = (xa + xc) */
 897:.\DSP\Source\TransformFunctions/arm_cfft_radix4_q15.c ****     R0 = __SSAT(T0 + S0, 16U);
 869              		.loc 1 897 0 discriminator 3
 870 0424 3BF92E10 		ldrsh	r1, [fp, lr, lsl #2]
 871 0428 3BF92C50 		ldrsh	r5, [fp, ip, lsl #2]
 872 042c 4819     		adds	r0, r1, r5
 873              	.LVL219:
 874              	@ 897 ".\DSP\Source\TransformFunctions\arm_cfft_radix4_q15.c" 1
 875 042e 00F30F00 		ssat r0, #16, r0
 876              	@ 0 "" 2
 877              	.LVL220:
 878              		.thumb
 879              	.LBE24:
 880 0432 80B2     		uxth	r0, r0
 881              	.LVL221:
 882              	.LBB25:
 898:.\DSP\Source\TransformFunctions/arm_cfft_radix4_q15.c ****     R1 = __SSAT(T1 + S1, 16U);
 883              		.loc 1 898 0 discriminator 3
 884 0434 1BB2     		sxth	r3, r3
 885 0436 24B2     		sxth	r4, r4
 886 0438 1A19     		adds	r2, r3, r4
 887              	.LVL222:
 888              	@ 898 ".\DSP\Source\TransformFunctions\arm_cfft_radix4_q15.c" 1
 889 043a 02F30F02 		ssat r2, #16, r2
 890              	@ 0 "" 2
 891              	.LVL223:
 892              		.thumb
 893              	.LBE25:
 894 043e 92B2     		uxth	r2, r2
 895              	.LVL224:
 896              	.LBB26:
 899:.\DSP\Source\TransformFunctions/arm_cfft_radix4_q15.c **** 
 900:.\DSP\Source\TransformFunctions/arm_cfft_radix4_q15.c ****     /* S0 = (ya - yc), S1 = (xa - xc) */
 901:.\DSP\Source\TransformFunctions/arm_cfft_radix4_q15.c ****     S0 = __SSAT(T0 - S0, 16U);
 897              		.loc 1 901 0 discriminator 3
 898 0440 491B     		subs	r1, r1, r5
 899              	.LVL225:
 900              	@ 901 ".\DSP\Source\TransformFunctions\arm_cfft_radix4_q15.c" 1
 901 0442 01F30F01 		ssat r1, #16, r1
 902              	@ 0 "" 2
 903              	.LVL226:
 904              		.thumb
 905              	.LBE26:
 906 0446 89B2     		uxth	r1, r1
 907              	.LVL227:
 908 0448 0191     		str	r1, [sp, #4]
 909              	.LVL228:
 910              	.LBB27:
 902:.\DSP\Source\TransformFunctions/arm_cfft_radix4_q15.c ****     S1 = __SSAT(T1 - S1, 16U);
 911              		.loc 1 902 0 discriminator 3
 912 044a 1B1B     		subs	r3, r3, r4
ARM GAS  C:\Users\IVYLIU~1\AppData\Local\Temp\cc4rI5mx.s 			page 33


 913              	.LVL229:
 914              	@ 902 ".\DSP\Source\TransformFunctions\arm_cfft_radix4_q15.c" 1
 915 044c 03F30F03 		ssat r3, #16, r3
 916              	@ 0 "" 2
 917              	.LVL230:
 918              		.thumb
 919              	.LBE27:
 920 0450 9BB2     		uxth	r3, r3
 921              	.LVL231:
 922 0452 0293     		str	r3, [sp, #8]
 923              	.LVL232:
 903:.\DSP\Source\TransformFunctions/arm_cfft_radix4_q15.c **** 
 904:.\DSP\Source\TransformFunctions/arm_cfft_radix4_q15.c ****     /*  Reading i0+fftLen/4 , i0+3fftLen/4 inputs */
 905:.\DSP\Source\TransformFunctions/arm_cfft_radix4_q15.c ****     /* Read yb (real), xb(imag) input */
 906:.\DSP\Source\TransformFunctions/arm_cfft_radix4_q15.c ****     T0 = pSrc16[i1 * 2U];
 924              		.loc 1 906 0 discriminator 3
 925 0454 B500     		lsls	r5, r6, #2
 926              	.LVL233:
 907:.\DSP\Source\TransformFunctions/arm_cfft_radix4_q15.c ****     T1 = pSrc16[(i1 * 2U) + 1U];
 927              		.loc 1 907 0 discriminator 3
 928 0456 0235     		adds	r5, r5, #2
 929 0458 3BF80590 		ldrh	r9, [fp, r5]
 930              	.LVL234:
 908:.\DSP\Source\TransformFunctions/arm_cfft_radix4_q15.c ****     /* Read yd (real), xd(imag) input */
 909:.\DSP\Source\TransformFunctions/arm_cfft_radix4_q15.c ****     U0 = pSrc16[i3 * 2U];
 931              		.loc 1 909 0 discriminator 3
 932 045c BC00     		lsls	r4, r7, #2
 933              	.LVL235:
 910:.\DSP\Source\TransformFunctions/arm_cfft_radix4_q15.c ****     U1 = pSrc16[(i3 * 2U) + 1U];
 934              		.loc 1 910 0 discriminator 3
 935 045e 0234     		adds	r4, r4, #2
 936 0460 3BF80430 		ldrh	r3, [fp, r4]
 937 0464 0393     		str	r3, [sp, #12]
 938              	.LVL236:
 939              	.LBB28:
 911:.\DSP\Source\TransformFunctions/arm_cfft_radix4_q15.c **** 
 912:.\DSP\Source\TransformFunctions/arm_cfft_radix4_q15.c ****     /* T0 = (yb + yd), T1 = (xb + xd)) */
 913:.\DSP\Source\TransformFunctions/arm_cfft_radix4_q15.c ****     T0 = __SSAT(T0 + U0, 16U);
 940              		.loc 1 913 0 discriminator 3
 941 0466 3BF92610 		ldrsh	r1, [fp, r6, lsl #2]
 942 046a 3BF92730 		ldrsh	r3, [fp, r7, lsl #2]
 943 046e 0B44     		add	r3, r3, r1
 944              	.LVL237:
 945              	@ 913 ".\DSP\Source\TransformFunctions\arm_cfft_radix4_q15.c" 1
 946 0470 03F30F03 		ssat r3, #16, r3
 947              	@ 0 "" 2
 948              	.LVL238:
 949              		.thumb
 950              	.LBE28:
 951 0474 9BB2     		uxth	r3, r3
 952              	.LVL239:
 953              	.LBB29:
 914:.\DSP\Source\TransformFunctions/arm_cfft_radix4_q15.c ****     T1 = __SSAT(T1 + U1, 16U);
 954              		.loc 1 914 0 discriminator 3
 955 0476 0FFA89F9 		sxth	r9, r9
 956 047a BDF90C10 		ldrsh	r1, [sp, #12]
 957              	.LVL240:
ARM GAS  C:\Users\IVYLIU~1\AppData\Local\Temp\cc4rI5mx.s 			page 34


 958 047e 4944     		add	r1, r1, r9
 959              	.LVL241:
 960              	@ 914 ".\DSP\Source\TransformFunctions\arm_cfft_radix4_q15.c" 1
 961 0480 01F30F01 		ssat r1, #16, r1
 962              	@ 0 "" 2
 963              	.LVL242:
 964              		.thumb
 965              	.LBE29:
 915:.\DSP\Source\TransformFunctions/arm_cfft_radix4_q15.c **** 
 916:.\DSP\Source\TransformFunctions/arm_cfft_radix4_q15.c ****     /*  writing the butterfly processed i0 sample */
 917:.\DSP\Source\TransformFunctions/arm_cfft_radix4_q15.c ****     /* xa' = xa + xb + xc + xd */
 918:.\DSP\Source\TransformFunctions/arm_cfft_radix4_q15.c ****     /* ya' = ya + yb + yc + yd */
 919:.\DSP\Source\TransformFunctions/arm_cfft_radix4_q15.c ****     pSrc16[i0 * 2U] = (R0 >> 1U) + (T0 >> 1U);
 966              		.loc 1 919 0 discriminator 3
 967 0484 40F34E00 		sbfx	r0, r0, #1, #15
 968              	.LVL243:
 969 0488 80B2     		uxth	r0, r0
 970 048a 43F34E03 		sbfx	r3, r3, #1, #15
 971              	.LVL244:
 972 048e 1FFA83F9 		uxth	r9, r3
 973              	.LVL245:
 974 0492 00EB0903 		add	r3, r0, r9
 975 0496 2BF82E30 		strh	r3, [fp, lr, lsl #2]	@ movhi
 976              	.LVL246:
 920:.\DSP\Source\TransformFunctions/arm_cfft_radix4_q15.c ****     pSrc16[(i0 * 2U) + 1U] = (R1 >> 1U) + (T1 >> 1U);
 977              		.loc 1 920 0 discriminator 3
 978 049a 42F34E03 		sbfx	r3, r2, #1, #15
 979 049e 9BB2     		uxth	r3, r3
 980 04a0 41F34E02 		sbfx	r2, r1, #1, #15
 981              	.LVL247:
 982 04a4 92B2     		uxth	r2, r2
 983 04a6 9918     		adds	r1, r3, r2
 984              	.LVL248:
 985 04a8 2BF80810 		strh	r1, [fp, r8]	@ movhi
 921:.\DSP\Source\TransformFunctions/arm_cfft_radix4_q15.c **** 
 922:.\DSP\Source\TransformFunctions/arm_cfft_radix4_q15.c ****     /* R0 = (ya + yc) - (yb + yd), R1 = (xa + xc) - (xb + xd) */
 923:.\DSP\Source\TransformFunctions/arm_cfft_radix4_q15.c ****     R0 = (R0 >> 1U) - (T0 >> 1U);
 986              		.loc 1 923 0 discriminator 3
 987 04ac C9EB0000 		rsb	r0, r9, r0
 988              	.LVL249:
 924:.\DSP\Source\TransformFunctions/arm_cfft_radix4_q15.c ****     R1 = (R1 >> 1U) - (T1 >> 1U);
 989              		.loc 1 924 0 discriminator 3
 990 04b0 9B1A     		subs	r3, r3, r2
 991              	.LVL250:
 925:.\DSP\Source\TransformFunctions/arm_cfft_radix4_q15.c ****     /* Read yb (real), xb(imag) input */
 926:.\DSP\Source\TransformFunctions/arm_cfft_radix4_q15.c ****     T0 = pSrc16[i1 * 2U];
 992              		.loc 1 926 0 discriminator 3
 993 04b2 3BF82610 		ldrh	r1, [fp, r6, lsl #2]
 994              	.LVL251:
 927:.\DSP\Source\TransformFunctions/arm_cfft_radix4_q15.c ****     T1 = pSrc16[(i1 * 2U) + 1U];
 995              		.loc 1 927 0 discriminator 3
 996 04b6 3BF80580 		ldrh	r8, [fp, r5]
 997              	.LVL252:
 928:.\DSP\Source\TransformFunctions/arm_cfft_radix4_q15.c **** 
 929:.\DSP\Source\TransformFunctions/arm_cfft_radix4_q15.c ****     /*  writing the butterfly processed i0 + fftLen/4 sample */
 930:.\DSP\Source\TransformFunctions/arm_cfft_radix4_q15.c ****     /* xc' = (xa-xb+xc-xd) */
 931:.\DSP\Source\TransformFunctions/arm_cfft_radix4_q15.c ****     /* yc' = (ya-yb+yc-yd) */
ARM GAS  C:\Users\IVYLIU~1\AppData\Local\Temp\cc4rI5mx.s 			page 35


 932:.\DSP\Source\TransformFunctions/arm_cfft_radix4_q15.c ****     pSrc16[i1 * 2U] = R0;
 998              		.loc 1 932 0 discriminator 3
 999 04ba 2BF82600 		strh	r0, [fp, r6, lsl #2]	@ movhi
 933:.\DSP\Source\TransformFunctions/arm_cfft_radix4_q15.c ****     pSrc16[(i1 * 2U) + 1U] = R1;
 1000              		.loc 1 933 0 discriminator 3
 1001 04be 2BF80530 		strh	r3, [fp, r5]	@ movhi
 1002              	.LVL253:
 934:.\DSP\Source\TransformFunctions/arm_cfft_radix4_q15.c **** 
 935:.\DSP\Source\TransformFunctions/arm_cfft_radix4_q15.c ****     /* Read yd (real), xd(imag) input */
 936:.\DSP\Source\TransformFunctions/arm_cfft_radix4_q15.c ****     U0 = pSrc16[i3 * 2U];
 937:.\DSP\Source\TransformFunctions/arm_cfft_radix4_q15.c ****     U1 = pSrc16[(i3 * 2U) + 1U];
 1003              		.loc 1 937 0 discriminator 3
 1004 04c2 3BF80430 		ldrh	r3, [fp, r4]
 1005              	.LVL254:
 1006              	.LBB30:
 938:.\DSP\Source\TransformFunctions/arm_cfft_radix4_q15.c ****     /* T0 = (yb - yd), T1 = (xb - xd)  */
 939:.\DSP\Source\TransformFunctions/arm_cfft_radix4_q15.c ****     T0 = __SSAT(T0 - U0, 16U);
 1007              		.loc 1 939 0 discriminator 3
 1008 04c6 09B2     		sxth	r1, r1
 1009 04c8 3BF92720 		ldrsh	r2, [fp, r7, lsl #2]
 1010 04cc 8A1A     		subs	r2, r1, r2
 1011              	.LVL255:
 1012              	@ 939 ".\DSP\Source\TransformFunctions\arm_cfft_radix4_q15.c" 1
 1013 04ce 02F30F02 		ssat r2, #16, r2
 1014              	@ 0 "" 2
 1015              	.LVL256:
 1016              		.thumb
 1017              	.LBE30:
 1018 04d2 92B2     		uxth	r2, r2
 1019              	.LVL257:
 1020              	.LBB31:
 940:.\DSP\Source\TransformFunctions/arm_cfft_radix4_q15.c ****     T1 = __SSAT(T1 - U1, 16U);
 1021              		.loc 1 940 0 discriminator 3
 1022 04d4 0FFA88F8 		sxth	r8, r8
 1023 04d8 1BB2     		sxth	r3, r3
 1024 04da C3EB0803 		rsb	r3, r3, r8
 1025              	.LVL258:
 1026              	@ 940 ".\DSP\Source\TransformFunctions\arm_cfft_radix4_q15.c" 1
 1027 04de 03F30F03 		ssat r3, #16, r3
 1028              	@ 0 "" 2
 1029              	.LVL259:
 1030              		.thumb
 1031              	.LBE31:
 941:.\DSP\Source\TransformFunctions/arm_cfft_radix4_q15.c **** 
 942:.\DSP\Source\TransformFunctions/arm_cfft_radix4_q15.c ****     /*  writing the butterfly processed i0 + fftLen/2 sample */
 943:.\DSP\Source\TransformFunctions/arm_cfft_radix4_q15.c ****     /* xb' = (xa+yb-xc-yd) */
 944:.\DSP\Source\TransformFunctions/arm_cfft_radix4_q15.c ****     /* yb' = (ya-xb-yc+xd) */
 945:.\DSP\Source\TransformFunctions/arm_cfft_radix4_q15.c ****     pSrc16[i2 * 2U] = (S0 >> 1U) + (T1 >> 1U);
 1032              		.loc 1 945 0 discriminator 3
 1033 04e2 0199     		ldr	r1, [sp, #4]
 1034              	.LVL260:
 1035 04e4 41F34E01 		sbfx	r1, r1, #1, #15
 1036 04e8 89B2     		uxth	r1, r1
 1037 04ea 43F34E03 		sbfx	r3, r3, #1, #15
 1038              	.LVL261:
 1039 04ee 9BB2     		uxth	r3, r3
 1040 04f0 C818     		adds	r0, r1, r3
ARM GAS  C:\Users\IVYLIU~1\AppData\Local\Temp\cc4rI5mx.s 			page 36


 1041              	.LVL262:
 1042 04f2 2BF82C00 		strh	r0, [fp, ip, lsl #2]	@ movhi
 1043              	.LVL263:
 946:.\DSP\Source\TransformFunctions/arm_cfft_radix4_q15.c ****     pSrc16[(i2 * 2U) + 1U] = (S1 >> 1U) - (T0 >> 1U);
 1044              		.loc 1 946 0 discriminator 3
 1045 04f6 0298     		ldr	r0, [sp, #8]
 1046 04f8 40F34E00 		sbfx	r0, r0, #1, #15
 1047 04fc 80B2     		uxth	r0, r0
 1048 04fe 42F34E02 		sbfx	r2, r2, #1, #15
 1049              	.LVL264:
 1050 0502 92B2     		uxth	r2, r2
 1051 0504 851A     		subs	r5, r0, r2
 1052 0506 2BF80A50 		strh	r5, [fp, r10]	@ movhi
 947:.\DSP\Source\TransformFunctions/arm_cfft_radix4_q15.c **** 
 948:.\DSP\Source\TransformFunctions/arm_cfft_radix4_q15.c ****     /*  writing the butterfly processed i0 + 3fftLen/4 sample */
 949:.\DSP\Source\TransformFunctions/arm_cfft_radix4_q15.c ****     /* xd' = (xa-yb-xc+yd) */
 950:.\DSP\Source\TransformFunctions/arm_cfft_radix4_q15.c ****     /* yd' = (ya+xb-yc-xd) */
 951:.\DSP\Source\TransformFunctions/arm_cfft_radix4_q15.c ****     pSrc16[i3 * 2U] = (S0 >> 1U) - (T1 >> 1U);
 1053              		.loc 1 951 0 discriminator 3
 1054 050a CB1A     		subs	r3, r1, r3
 1055 050c 2BF82730 		strh	r3, [fp, r7, lsl #2]	@ movhi
 952:.\DSP\Source\TransformFunctions/arm_cfft_radix4_q15.c ****     pSrc16[(i3 * 2U) + 1U] = (S1 >> 1U) + (T0 >> 1U);
 1056              		.loc 1 952 0 discriminator 3
 1057 0510 0244     		add	r2, r2, r0
 1058 0512 2BF80420 		strh	r2, [fp, r4]	@ movhi
 879:.\DSP\Source\TransformFunctions/arm_cfft_radix4_q15.c ****   {
 1059              		.loc 1 879 0 discriminator 3
 1060 0516 0C9B     		ldr	r3, [sp, #48]
 1061 0518 9E44     		add	lr, lr, r3
 1062              	.LVL265:
 1063              	.L9:
 879:.\DSP\Source\TransformFunctions/arm_cfft_radix4_q15.c ****   {
 1064              		.loc 1 879 0 is_stmt 0 discriminator 1
 1065 051a 059B     		ldr	r3, [sp, #20]
 1066 051c 0C9A     		ldr	r2, [sp, #48]
 1067 051e 9B1A     		subs	r3, r3, r2
 1068 0520 7345     		cmp	r3, lr
 1069 0522 BFF46CAF 		bcs	.L10
 953:.\DSP\Source\TransformFunctions/arm_cfft_radix4_q15.c **** 
 954:.\DSP\Source\TransformFunctions/arm_cfft_radix4_q15.c ****   }
 955:.\DSP\Source\TransformFunctions/arm_cfft_radix4_q15.c **** 
 956:.\DSP\Source\TransformFunctions/arm_cfft_radix4_q15.c ****   /* end of last stage process */
 957:.\DSP\Source\TransformFunctions/arm_cfft_radix4_q15.c **** 
 958:.\DSP\Source\TransformFunctions/arm_cfft_radix4_q15.c ****   /* output is in 11.5(q5) format for the 1024 point */
 959:.\DSP\Source\TransformFunctions/arm_cfft_radix4_q15.c ****   /* output is in 9.7(q7) format for the 256 point   */
 960:.\DSP\Source\TransformFunctions/arm_cfft_radix4_q15.c ****   /* output is in 7.9(q9) format for the 64 point  */
 961:.\DSP\Source\TransformFunctions/arm_cfft_radix4_q15.c ****   /* output is in 5.11(q11) format for the 16 point  */
 962:.\DSP\Source\TransformFunctions/arm_cfft_radix4_q15.c **** 
 963:.\DSP\Source\TransformFunctions/arm_cfft_radix4_q15.c **** #endif /* #if defined (ARM_MATH_DSP) */
 964:.\DSP\Source\TransformFunctions/arm_cfft_radix4_q15.c **** 
 965:.\DSP\Source\TransformFunctions/arm_cfft_radix4_q15.c **** }
 1070              		.loc 1 965 0 is_stmt 1
 1071 0526 13B0     		add	sp, sp, #76
 1072              		.cfi_def_cfa_offset 36
 1073              		@ sp needed
 1074 0528 BDE8F08F 		pop	{r4, r5, r6, r7, r8, r9, r10, fp, pc}
 1075              		.cfi_endproc
ARM GAS  C:\Users\IVYLIU~1\AppData\Local\Temp\cc4rI5mx.s 			page 37


 1076              	.LFE85:
 1077              		.size	arm_radix4_butterfly_q15, .-arm_radix4_butterfly_q15
 1078              		.section	.text.arm_radix4_butterfly_inverse_q15,"ax",%progbits
 1079              		.align	2
 1080              		.global	arm_radix4_butterfly_inverse_q15
 1081              		.thumb
 1082              		.thumb_func
 1083              		.type	arm_radix4_butterfly_inverse_q15, %function
 1084              	arm_radix4_butterfly_inverse_q15:
 1085              	.LFB86:
 966:.\DSP\Source\TransformFunctions/arm_cfft_radix4_q15.c **** 
 967:.\DSP\Source\TransformFunctions/arm_cfft_radix4_q15.c **** 
 968:.\DSP\Source\TransformFunctions/arm_cfft_radix4_q15.c **** /**
 969:.\DSP\Source\TransformFunctions/arm_cfft_radix4_q15.c ****   @brief         Core function for the Q15 CIFFT butterfly process.
 970:.\DSP\Source\TransformFunctions/arm_cfft_radix4_q15.c ****   @param[in,out] pSrc16           points to the in-place buffer of Q15 data type
 971:.\DSP\Source\TransformFunctions/arm_cfft_radix4_q15.c ****   @param[in]     fftLen           length of the FFT
 972:.\DSP\Source\TransformFunctions/arm_cfft_radix4_q15.c ****   @param[in]     pCoef16          points to twiddle coefficient buffer
 973:.\DSP\Source\TransformFunctions/arm_cfft_radix4_q15.c ****   @param[in]     twidCoefModifier twiddle coefficient modifier that supports different size FFTs wi
 974:.\DSP\Source\TransformFunctions/arm_cfft_radix4_q15.c ****   @return        none
 975:.\DSP\Source\TransformFunctions/arm_cfft_radix4_q15.c ****  */
 976:.\DSP\Source\TransformFunctions/arm_cfft_radix4_q15.c **** 
 977:.\DSP\Source\TransformFunctions/arm_cfft_radix4_q15.c **** /*
 978:.\DSP\Source\TransformFunctions/arm_cfft_radix4_q15.c ****  * Radix-4 IFFT algorithm used is :
 979:.\DSP\Source\TransformFunctions/arm_cfft_radix4_q15.c ****  *
 980:.\DSP\Source\TransformFunctions/arm_cfft_radix4_q15.c ****  * CIFFT uses same twiddle coefficients as CFFT function
 981:.\DSP\Source\TransformFunctions/arm_cfft_radix4_q15.c ****  *  x[k] = x[n] + (j)k * x[n + fftLen/4] + (-1)k * x[n+fftLen/2] + (-j)k * x[n+3*fftLen/4]
 982:.\DSP\Source\TransformFunctions/arm_cfft_radix4_q15.c ****  *
 983:.\DSP\Source\TransformFunctions/arm_cfft_radix4_q15.c ****  *
 984:.\DSP\Source\TransformFunctions/arm_cfft_radix4_q15.c ****  * IFFT is implemented with following changes in equations from FFT
 985:.\DSP\Source\TransformFunctions/arm_cfft_radix4_q15.c ****  *
 986:.\DSP\Source\TransformFunctions/arm_cfft_radix4_q15.c ****  * Input real and imaginary data:
 987:.\DSP\Source\TransformFunctions/arm_cfft_radix4_q15.c ****  * x(n) = xa + j * ya
 988:.\DSP\Source\TransformFunctions/arm_cfft_radix4_q15.c ****  * x(n+N/4 ) = xb + j * yb
 989:.\DSP\Source\TransformFunctions/arm_cfft_radix4_q15.c ****  * x(n+N/2 ) = xc + j * yc
 990:.\DSP\Source\TransformFunctions/arm_cfft_radix4_q15.c ****  * x(n+3N 4) = xd + j * yd
 991:.\DSP\Source\TransformFunctions/arm_cfft_radix4_q15.c ****  *
 992:.\DSP\Source\TransformFunctions/arm_cfft_radix4_q15.c ****  *
 993:.\DSP\Source\TransformFunctions/arm_cfft_radix4_q15.c ****  * Output real and imaginary data:
 994:.\DSP\Source\TransformFunctions/arm_cfft_radix4_q15.c ****  * x(4r) = xa'+ j * ya'
 995:.\DSP\Source\TransformFunctions/arm_cfft_radix4_q15.c ****  * x(4r+1) = xb'+ j * yb'
 996:.\DSP\Source\TransformFunctions/arm_cfft_radix4_q15.c ****  * x(4r+2) = xc'+ j * yc'
 997:.\DSP\Source\TransformFunctions/arm_cfft_radix4_q15.c ****  * x(4r+3) = xd'+ j * yd'
 998:.\DSP\Source\TransformFunctions/arm_cfft_radix4_q15.c ****  *
 999:.\DSP\Source\TransformFunctions/arm_cfft_radix4_q15.c ****  *
1000:.\DSP\Source\TransformFunctions/arm_cfft_radix4_q15.c ****  * Twiddle factors for radix-4 IFFT:
1001:.\DSP\Source\TransformFunctions/arm_cfft_radix4_q15.c ****  * Wn = co1 + j * (si1)
1002:.\DSP\Source\TransformFunctions/arm_cfft_radix4_q15.c ****  * W2n = co2 + j * (si2)
1003:.\DSP\Source\TransformFunctions/arm_cfft_radix4_q15.c ****  * W3n = co3 + j * (si3)
1004:.\DSP\Source\TransformFunctions/arm_cfft_radix4_q15.c ****  
1005:.\DSP\Source\TransformFunctions/arm_cfft_radix4_q15.c ****  * The real and imaginary output values for the radix-4 butterfly are
1006:.\DSP\Source\TransformFunctions/arm_cfft_radix4_q15.c ****  * xa' = xa + xb + xc + xd
1007:.\DSP\Source\TransformFunctions/arm_cfft_radix4_q15.c ****  * ya' = ya + yb + yc + yd
1008:.\DSP\Source\TransformFunctions/arm_cfft_radix4_q15.c ****  * xb' = (xa-yb-xc+yd)* co1 - (ya+xb-yc-xd)* (si1)
1009:.\DSP\Source\TransformFunctions/arm_cfft_radix4_q15.c ****  * yb' = (ya+xb-yc-xd)* co1 + (xa-yb-xc+yd)* (si1)
1010:.\DSP\Source\TransformFunctions/arm_cfft_radix4_q15.c ****  * xc' = (xa-xb+xc-xd)* co2 - (ya-yb+yc-yd)* (si2)
1011:.\DSP\Source\TransformFunctions/arm_cfft_radix4_q15.c ****  * yc' = (ya-yb+yc-yd)* co2 + (xa-xb+xc-xd)* (si2)
1012:.\DSP\Source\TransformFunctions/arm_cfft_radix4_q15.c ****  * xd' = (xa+yb-xc-yd)* co3 - (ya-xb-yc+xd)* (si3)
ARM GAS  C:\Users\IVYLIU~1\AppData\Local\Temp\cc4rI5mx.s 			page 38


1013:.\DSP\Source\TransformFunctions/arm_cfft_radix4_q15.c ****  * yd' = (ya-xb-yc+xd)* co3 + (xa+yb-xc-yd)* (si3)
1014:.\DSP\Source\TransformFunctions/arm_cfft_radix4_q15.c ****  *
1015:.\DSP\Source\TransformFunctions/arm_cfft_radix4_q15.c ****  */
1016:.\DSP\Source\TransformFunctions/arm_cfft_radix4_q15.c **** 
1017:.\DSP\Source\TransformFunctions/arm_cfft_radix4_q15.c **** void arm_radix4_butterfly_inverse_q15(
1018:.\DSP\Source\TransformFunctions/arm_cfft_radix4_q15.c ****         q15_t * pSrc16,
1019:.\DSP\Source\TransformFunctions/arm_cfft_radix4_q15.c ****         uint32_t fftLen,
1020:.\DSP\Source\TransformFunctions/arm_cfft_radix4_q15.c ****   const q15_t * pCoef16,
1021:.\DSP\Source\TransformFunctions/arm_cfft_radix4_q15.c ****         uint32_t twidCoefModifier)
1022:.\DSP\Source\TransformFunctions/arm_cfft_radix4_q15.c **** {
 1086              		.loc 1 1022 0
 1087              		.cfi_startproc
 1088              		@ args = 0, pretend = 0, frame = 72
 1089              		@ frame_needed = 0, uses_anonymous_args = 0
 1090              	.LVL266:
 1091 0000 2DE9F04F 		push	{r4, r5, r6, r7, r8, r9, r10, fp, lr}
 1092              		.cfi_def_cfa_offset 36
 1093              		.cfi_offset 4, -36
 1094              		.cfi_offset 5, -32
 1095              		.cfi_offset 6, -28
 1096              		.cfi_offset 7, -24
 1097              		.cfi_offset 8, -20
 1098              		.cfi_offset 9, -16
 1099              		.cfi_offset 10, -12
 1100              		.cfi_offset 11, -8
 1101              		.cfi_offset 14, -4
 1102 0004 93B0     		sub	sp, sp, #76
 1103              		.cfi_def_cfa_offset 112
 1104 0006 8246     		mov	r10, r0
 1105 0008 0591     		str	r1, [sp, #20]
 1106 000a 1092     		str	r2, [sp, #64]
 1107 000c 0993     		str	r3, [sp, #36]
 1108              	.LVL267:
1023:.\DSP\Source\TransformFunctions/arm_cfft_radix4_q15.c **** 
1024:.\DSP\Source\TransformFunctions/arm_cfft_radix4_q15.c **** #if defined (ARM_MATH_DSP)
1025:.\DSP\Source\TransformFunctions/arm_cfft_radix4_q15.c **** 
1026:.\DSP\Source\TransformFunctions/arm_cfft_radix4_q15.c ****         q31_t R, S, T, U;
1027:.\DSP\Source\TransformFunctions/arm_cfft_radix4_q15.c ****         q31_t C1, C2, C3, out1, out2;
1028:.\DSP\Source\TransformFunctions/arm_cfft_radix4_q15.c ****         uint32_t n1, n2, ic, i0, j, k;
1029:.\DSP\Source\TransformFunctions/arm_cfft_radix4_q15.c ****         
1030:.\DSP\Source\TransformFunctions/arm_cfft_radix4_q15.c ****         q15_t *ptr1;
1031:.\DSP\Source\TransformFunctions/arm_cfft_radix4_q15.c ****         q15_t *pSi0;
1032:.\DSP\Source\TransformFunctions/arm_cfft_radix4_q15.c ****         q15_t *pSi1;
1033:.\DSP\Source\TransformFunctions/arm_cfft_radix4_q15.c ****         q15_t *pSi2;
1034:.\DSP\Source\TransformFunctions/arm_cfft_radix4_q15.c ****         q15_t *pSi3;
1035:.\DSP\Source\TransformFunctions/arm_cfft_radix4_q15.c ****         
1036:.\DSP\Source\TransformFunctions/arm_cfft_radix4_q15.c ****         q31_t xaya, xbyb, xcyc, xdyd;
1037:.\DSP\Source\TransformFunctions/arm_cfft_radix4_q15.c **** 
1038:.\DSP\Source\TransformFunctions/arm_cfft_radix4_q15.c ****   /* Total process is divided into three stages */
1039:.\DSP\Source\TransformFunctions/arm_cfft_radix4_q15.c **** 
1040:.\DSP\Source\TransformFunctions/arm_cfft_radix4_q15.c ****   /* process first stage, middle stages, & last stage */
1041:.\DSP\Source\TransformFunctions/arm_cfft_radix4_q15.c **** 
1042:.\DSP\Source\TransformFunctions/arm_cfft_radix4_q15.c ****   /*  Initializations for the first stage */
1043:.\DSP\Source\TransformFunctions/arm_cfft_radix4_q15.c ****   n2 = fftLen;
1044:.\DSP\Source\TransformFunctions/arm_cfft_radix4_q15.c ****   n1 = n2;
1045:.\DSP\Source\TransformFunctions/arm_cfft_radix4_q15.c **** 
1046:.\DSP\Source\TransformFunctions/arm_cfft_radix4_q15.c ****   /* n2 = fftLen/4 */
ARM GAS  C:\Users\IVYLIU~1\AppData\Local\Temp\cc4rI5mx.s 			page 39


1047:.\DSP\Source\TransformFunctions/arm_cfft_radix4_q15.c ****   n2 >>= 2U;
1048:.\DSP\Source\TransformFunctions/arm_cfft_radix4_q15.c **** 
1049:.\DSP\Source\TransformFunctions/arm_cfft_radix4_q15.c ****   /* Index for twiddle coefficient */
1050:.\DSP\Source\TransformFunctions/arm_cfft_radix4_q15.c ****   ic = 0U;
1051:.\DSP\Source\TransformFunctions/arm_cfft_radix4_q15.c **** 
1052:.\DSP\Source\TransformFunctions/arm_cfft_radix4_q15.c ****   /* Index for input read and output write */
1053:.\DSP\Source\TransformFunctions/arm_cfft_radix4_q15.c ****   j = n2;
1054:.\DSP\Source\TransformFunctions/arm_cfft_radix4_q15.c **** 
1055:.\DSP\Source\TransformFunctions/arm_cfft_radix4_q15.c ****   pSi0 = pSrc16;
1056:.\DSP\Source\TransformFunctions/arm_cfft_radix4_q15.c ****   pSi1 = pSi0 + 2 * n2;
1057:.\DSP\Source\TransformFunctions/arm_cfft_radix4_q15.c ****   pSi2 = pSi1 + 2 * n2;
1058:.\DSP\Source\TransformFunctions/arm_cfft_radix4_q15.c ****   pSi3 = pSi2 + 2 * n2;
1059:.\DSP\Source\TransformFunctions/arm_cfft_radix4_q15.c **** 
1060:.\DSP\Source\TransformFunctions/arm_cfft_radix4_q15.c ****   /* Input is in 1.15(q15) format */
1061:.\DSP\Source\TransformFunctions/arm_cfft_radix4_q15.c **** 
1062:.\DSP\Source\TransformFunctions/arm_cfft_radix4_q15.c ****   /*  start of first stage process */
1063:.\DSP\Source\TransformFunctions/arm_cfft_radix4_q15.c ****   do
1064:.\DSP\Source\TransformFunctions/arm_cfft_radix4_q15.c ****   {
1065:.\DSP\Source\TransformFunctions/arm_cfft_radix4_q15.c ****     /*  Butterfly implementation */
1066:.\DSP\Source\TransformFunctions/arm_cfft_radix4_q15.c **** 
1067:.\DSP\Source\TransformFunctions/arm_cfft_radix4_q15.c ****     /*  Reading i0, i0+fftLen/2 inputs */
1068:.\DSP\Source\TransformFunctions/arm_cfft_radix4_q15.c ****     /* Read ya (real), xa(imag) input */
1069:.\DSP\Source\TransformFunctions/arm_cfft_radix4_q15.c ****     T = read_q15x2 (pSi0);
1070:.\DSP\Source\TransformFunctions/arm_cfft_radix4_q15.c ****     T = __SHADD16(T, 0);
1071:.\DSP\Source\TransformFunctions/arm_cfft_radix4_q15.c ****     T = __SHADD16(T, 0);
1072:.\DSP\Source\TransformFunctions/arm_cfft_radix4_q15.c **** 
1073:.\DSP\Source\TransformFunctions/arm_cfft_radix4_q15.c ****     /* Read yc (real), xc(imag) input */
1074:.\DSP\Source\TransformFunctions/arm_cfft_radix4_q15.c ****     S = read_q15x2 (pSi2);
1075:.\DSP\Source\TransformFunctions/arm_cfft_radix4_q15.c ****     S = __SHADD16(S, 0);
1076:.\DSP\Source\TransformFunctions/arm_cfft_radix4_q15.c ****     S = __SHADD16(S, 0);
1077:.\DSP\Source\TransformFunctions/arm_cfft_radix4_q15.c **** 
1078:.\DSP\Source\TransformFunctions/arm_cfft_radix4_q15.c ****     /* R = packed((ya + yc), (xa + xc) ) */
1079:.\DSP\Source\TransformFunctions/arm_cfft_radix4_q15.c ****     R = __QADD16(T, S);
1080:.\DSP\Source\TransformFunctions/arm_cfft_radix4_q15.c **** 
1081:.\DSP\Source\TransformFunctions/arm_cfft_radix4_q15.c ****     /* S = packed((ya - yc), (xa - xc) ) */
1082:.\DSP\Source\TransformFunctions/arm_cfft_radix4_q15.c ****     S = __QSUB16(T, S);
1083:.\DSP\Source\TransformFunctions/arm_cfft_radix4_q15.c **** 
1084:.\DSP\Source\TransformFunctions/arm_cfft_radix4_q15.c ****     /*  Reading i0+fftLen/4 , i0+3fftLen/4 inputs */
1085:.\DSP\Source\TransformFunctions/arm_cfft_radix4_q15.c ****     /* Read yb (real), xb(imag) input */
1086:.\DSP\Source\TransformFunctions/arm_cfft_radix4_q15.c ****     T = read_q15x2 (pSi1);
1087:.\DSP\Source\TransformFunctions/arm_cfft_radix4_q15.c ****     T = __SHADD16(T, 0);
1088:.\DSP\Source\TransformFunctions/arm_cfft_radix4_q15.c ****     T = __SHADD16(T, 0);
1089:.\DSP\Source\TransformFunctions/arm_cfft_radix4_q15.c **** 
1090:.\DSP\Source\TransformFunctions/arm_cfft_radix4_q15.c ****     /* Read yd (real), xd(imag) input */
1091:.\DSP\Source\TransformFunctions/arm_cfft_radix4_q15.c ****     U = read_q15x2 (pSi3);
1092:.\DSP\Source\TransformFunctions/arm_cfft_radix4_q15.c ****     U = __SHADD16(U, 0);
1093:.\DSP\Source\TransformFunctions/arm_cfft_radix4_q15.c ****     U = __SHADD16(U, 0);
1094:.\DSP\Source\TransformFunctions/arm_cfft_radix4_q15.c **** 
1095:.\DSP\Source\TransformFunctions/arm_cfft_radix4_q15.c ****     /* T = packed((yb + yd), (xb + xd) ) */
1096:.\DSP\Source\TransformFunctions/arm_cfft_radix4_q15.c ****     T = __QADD16(T, U);
1097:.\DSP\Source\TransformFunctions/arm_cfft_radix4_q15.c **** 
1098:.\DSP\Source\TransformFunctions/arm_cfft_radix4_q15.c ****     /*  writing the butterfly processed i0 sample */
1099:.\DSP\Source\TransformFunctions/arm_cfft_radix4_q15.c ****     /* xa' = xa + xb + xc + xd */
1100:.\DSP\Source\TransformFunctions/arm_cfft_radix4_q15.c ****     /* ya' = ya + yb + yc + yd */
1101:.\DSP\Source\TransformFunctions/arm_cfft_radix4_q15.c ****     write_q15x2_ia (&pSi0, __SHADD16(R, T));
1102:.\DSP\Source\TransformFunctions/arm_cfft_radix4_q15.c **** 
1103:.\DSP\Source\TransformFunctions/arm_cfft_radix4_q15.c ****     /* R = packed((ya + yc) - (yb + yd), (xa + xc)- (xb + xd)) */
ARM GAS  C:\Users\IVYLIU~1\AppData\Local\Temp\cc4rI5mx.s 			page 40


1104:.\DSP\Source\TransformFunctions/arm_cfft_radix4_q15.c ****     R = __QSUB16(R, T);
1105:.\DSP\Source\TransformFunctions/arm_cfft_radix4_q15.c **** 
1106:.\DSP\Source\TransformFunctions/arm_cfft_radix4_q15.c ****     /* co2 & si2 are read from SIMD Coefficient pointer */
1107:.\DSP\Source\TransformFunctions/arm_cfft_radix4_q15.c ****     C2 = read_q15x2 ((q15_t *) pCoef16 + (4U * ic));
1108:.\DSP\Source\TransformFunctions/arm_cfft_radix4_q15.c **** 
1109:.\DSP\Source\TransformFunctions/arm_cfft_radix4_q15.c **** #ifndef ARM_MATH_BIG_ENDIAN
1110:.\DSP\Source\TransformFunctions/arm_cfft_radix4_q15.c ****     /* xc' = (xa-xb+xc-xd)* co2 + (ya-yb+yc-yd)* (si2) */
1111:.\DSP\Source\TransformFunctions/arm_cfft_radix4_q15.c ****     out1 = __SMUSD(C2, R) >> 16U;
1112:.\DSP\Source\TransformFunctions/arm_cfft_radix4_q15.c ****     /* yc' = (ya-yb+yc-yd)* co2 - (xa-xb+xc-xd)* (si2) */
1113:.\DSP\Source\TransformFunctions/arm_cfft_radix4_q15.c ****     out2 = __SMUADX(C2, R);
1114:.\DSP\Source\TransformFunctions/arm_cfft_radix4_q15.c **** #else
1115:.\DSP\Source\TransformFunctions/arm_cfft_radix4_q15.c ****     /* xc' = (ya-yb+yc-yd)* co2 - (xa-xb+xc-xd)* (si2) */
1116:.\DSP\Source\TransformFunctions/arm_cfft_radix4_q15.c ****     out1 = __SMUADX(C2, R) >> 16U;
1117:.\DSP\Source\TransformFunctions/arm_cfft_radix4_q15.c ****     /* yc' = (xa-xb+xc-xd)* co2 + (ya-yb+yc-yd)* (si2) */
1118:.\DSP\Source\TransformFunctions/arm_cfft_radix4_q15.c ****     out2 = __SMUSD(__QSUB16(0, C2), R);
1119:.\DSP\Source\TransformFunctions/arm_cfft_radix4_q15.c **** #endif /* #ifndef ARM_MATH_BIG_ENDIAN */
1120:.\DSP\Source\TransformFunctions/arm_cfft_radix4_q15.c **** 
1121:.\DSP\Source\TransformFunctions/arm_cfft_radix4_q15.c ****     /*  Reading i0+fftLen/4 */
1122:.\DSP\Source\TransformFunctions/arm_cfft_radix4_q15.c ****     /* T = packed(yb, xb) */
1123:.\DSP\Source\TransformFunctions/arm_cfft_radix4_q15.c ****     T = read_q15x2 (pSi1);
1124:.\DSP\Source\TransformFunctions/arm_cfft_radix4_q15.c ****     T = __SHADD16(T, 0);
1125:.\DSP\Source\TransformFunctions/arm_cfft_radix4_q15.c ****     T = __SHADD16(T, 0);
1126:.\DSP\Source\TransformFunctions/arm_cfft_radix4_q15.c **** 
1127:.\DSP\Source\TransformFunctions/arm_cfft_radix4_q15.c ****     /* writing the butterfly processed i0 + fftLen/4 sample */
1128:.\DSP\Source\TransformFunctions/arm_cfft_radix4_q15.c ****     /* writing output(xc', yc') in little endian format */
1129:.\DSP\Source\TransformFunctions/arm_cfft_radix4_q15.c ****     write_q15x2_ia (&pSi1, (q31_t) __PKHBT( out1, out2, 0 ));
1130:.\DSP\Source\TransformFunctions/arm_cfft_radix4_q15.c **** 
1131:.\DSP\Source\TransformFunctions/arm_cfft_radix4_q15.c ****     /*  Butterfly calculations */
1132:.\DSP\Source\TransformFunctions/arm_cfft_radix4_q15.c ****     /* U = packed(yd, xd) */
1133:.\DSP\Source\TransformFunctions/arm_cfft_radix4_q15.c ****     U = read_q15x2 (pSi3);
1134:.\DSP\Source\TransformFunctions/arm_cfft_radix4_q15.c ****     U = __SHADD16(U, 0);
1135:.\DSP\Source\TransformFunctions/arm_cfft_radix4_q15.c ****     U = __SHADD16(U, 0);
1136:.\DSP\Source\TransformFunctions/arm_cfft_radix4_q15.c **** 
1137:.\DSP\Source\TransformFunctions/arm_cfft_radix4_q15.c ****     /* T = packed(yb-yd, xb-xd) */
1138:.\DSP\Source\TransformFunctions/arm_cfft_radix4_q15.c ****     T = __QSUB16(T, U);
1139:.\DSP\Source\TransformFunctions/arm_cfft_radix4_q15.c **** 
1140:.\DSP\Source\TransformFunctions/arm_cfft_radix4_q15.c **** #ifndef ARM_MATH_BIG_ENDIAN
1141:.\DSP\Source\TransformFunctions/arm_cfft_radix4_q15.c ****     /* R = packed((ya-yc) + (xb- xd) , (xa-xc) - (yb-yd)) */
1142:.\DSP\Source\TransformFunctions/arm_cfft_radix4_q15.c ****     R = __QSAX(S, T);
1143:.\DSP\Source\TransformFunctions/arm_cfft_radix4_q15.c ****     /* S = packed((ya-yc) + (xb- xd),  (xa-xc) - (yb-yd)) */
1144:.\DSP\Source\TransformFunctions/arm_cfft_radix4_q15.c ****     S = __QASX(S, T);
1145:.\DSP\Source\TransformFunctions/arm_cfft_radix4_q15.c **** #else
1146:.\DSP\Source\TransformFunctions/arm_cfft_radix4_q15.c ****     /* R = packed((ya-yc) + (xb- xd) , (xa-xc) - (yb-yd)) */
1147:.\DSP\Source\TransformFunctions/arm_cfft_radix4_q15.c ****     R = __QASX(S, T);
1148:.\DSP\Source\TransformFunctions/arm_cfft_radix4_q15.c ****     /* S = packed((ya-yc) - (xb- xd),  (xa-xc) + (yb-yd)) */
1149:.\DSP\Source\TransformFunctions/arm_cfft_radix4_q15.c ****     S = __QSAX(S, T);
1150:.\DSP\Source\TransformFunctions/arm_cfft_radix4_q15.c **** #endif /* #ifndef ARM_MATH_BIG_ENDIAN */
1151:.\DSP\Source\TransformFunctions/arm_cfft_radix4_q15.c **** 
1152:.\DSP\Source\TransformFunctions/arm_cfft_radix4_q15.c ****     /* co1 & si1 are read from SIMD Coefficient pointer */
1153:.\DSP\Source\TransformFunctions/arm_cfft_radix4_q15.c ****     C1 = read_q15x2 ((q15_t *) pCoef16 + (2U * ic));
1154:.\DSP\Source\TransformFunctions/arm_cfft_radix4_q15.c ****     /*  Butterfly process for the i0+fftLen/2 sample */
1155:.\DSP\Source\TransformFunctions/arm_cfft_radix4_q15.c **** 
1156:.\DSP\Source\TransformFunctions/arm_cfft_radix4_q15.c **** #ifndef ARM_MATH_BIG_ENDIAN
1157:.\DSP\Source\TransformFunctions/arm_cfft_radix4_q15.c ****     /* xb' = (xa+yb-xc-yd)* co1 + (ya-xb-yc+xd)* (si1) */
1158:.\DSP\Source\TransformFunctions/arm_cfft_radix4_q15.c ****     out1 = __SMUSD(C1, S) >> 16U;
1159:.\DSP\Source\TransformFunctions/arm_cfft_radix4_q15.c ****     /* yb' = (ya-xb-yc+xd)* co1 - (xa+yb-xc-yd)* (si1) */
1160:.\DSP\Source\TransformFunctions/arm_cfft_radix4_q15.c ****     out2 = __SMUADX(C1, S);
ARM GAS  C:\Users\IVYLIU~1\AppData\Local\Temp\cc4rI5mx.s 			page 41


1161:.\DSP\Source\TransformFunctions/arm_cfft_radix4_q15.c **** #else
1162:.\DSP\Source\TransformFunctions/arm_cfft_radix4_q15.c ****     /* xb' = (ya-xb-yc+xd)* co1 - (xa+yb-xc-yd)* (si1) */
1163:.\DSP\Source\TransformFunctions/arm_cfft_radix4_q15.c ****     out1 = __SMUADX(C1, S) >> 16U;
1164:.\DSP\Source\TransformFunctions/arm_cfft_radix4_q15.c ****     /* yb' = (xa+yb-xc-yd)* co1 + (ya-xb-yc+xd)* (si1) */
1165:.\DSP\Source\TransformFunctions/arm_cfft_radix4_q15.c ****     out2 = __SMUSD(__QSUB16(0, C1), S);
1166:.\DSP\Source\TransformFunctions/arm_cfft_radix4_q15.c **** #endif /* #ifndef ARM_MATH_BIG_ENDIAN */
1167:.\DSP\Source\TransformFunctions/arm_cfft_radix4_q15.c **** 
1168:.\DSP\Source\TransformFunctions/arm_cfft_radix4_q15.c ****     /* writing output(xb', yb') in little endian format */
1169:.\DSP\Source\TransformFunctions/arm_cfft_radix4_q15.c ****     write_q15x2_ia (&pSi2, __PKHBT( out1, out2, 0 ));
1170:.\DSP\Source\TransformFunctions/arm_cfft_radix4_q15.c **** 
1171:.\DSP\Source\TransformFunctions/arm_cfft_radix4_q15.c ****     /* co3 & si3 are read from SIMD Coefficient pointer */
1172:.\DSP\Source\TransformFunctions/arm_cfft_radix4_q15.c ****     C3 = read_q15x2 ((q15_t *) pCoef16 + (6U * ic));
1173:.\DSP\Source\TransformFunctions/arm_cfft_radix4_q15.c ****     /*  Butterfly process for the i0+3fftLen/4 sample */
1174:.\DSP\Source\TransformFunctions/arm_cfft_radix4_q15.c **** 
1175:.\DSP\Source\TransformFunctions/arm_cfft_radix4_q15.c **** #ifndef ARM_MATH_BIG_ENDIAN
1176:.\DSP\Source\TransformFunctions/arm_cfft_radix4_q15.c ****     /* xd' = (xa-yb-xc+yd)* co3 + (ya+xb-yc-xd)* (si3) */
1177:.\DSP\Source\TransformFunctions/arm_cfft_radix4_q15.c ****     out1 = __SMUSD(C3, R) >> 16U;
1178:.\DSP\Source\TransformFunctions/arm_cfft_radix4_q15.c ****     /* yd' = (ya+xb-yc-xd)* co3 - (xa-yb-xc+yd)* (si3) */
1179:.\DSP\Source\TransformFunctions/arm_cfft_radix4_q15.c ****     out2 = __SMUADX(C3, R);
1180:.\DSP\Source\TransformFunctions/arm_cfft_radix4_q15.c **** #else
1181:.\DSP\Source\TransformFunctions/arm_cfft_radix4_q15.c ****     /* xd' = (ya+xb-yc-xd)* co3 - (xa-yb-xc+yd)* (si3) */
1182:.\DSP\Source\TransformFunctions/arm_cfft_radix4_q15.c ****     out1 = __SMUADX(C3, R) >> 16U;
1183:.\DSP\Source\TransformFunctions/arm_cfft_radix4_q15.c ****     /* yd' = (xa-yb-xc+yd)* co3 + (ya+xb-yc-xd)* (si3) */
1184:.\DSP\Source\TransformFunctions/arm_cfft_radix4_q15.c ****     out2 = __SMUSD(__QSUB16(0, C3), R);
1185:.\DSP\Source\TransformFunctions/arm_cfft_radix4_q15.c **** #endif /* #ifndef ARM_MATH_BIG_ENDIAN */
1186:.\DSP\Source\TransformFunctions/arm_cfft_radix4_q15.c **** 
1187:.\DSP\Source\TransformFunctions/arm_cfft_radix4_q15.c ****     /* writing output(xd', yd') in little endian format */
1188:.\DSP\Source\TransformFunctions/arm_cfft_radix4_q15.c ****     write_q15x2_ia (&pSi3, __PKHBT( out1, out2, 0 ));
1189:.\DSP\Source\TransformFunctions/arm_cfft_radix4_q15.c **** 
1190:.\DSP\Source\TransformFunctions/arm_cfft_radix4_q15.c ****     /*  Twiddle coefficients index modifier */
1191:.\DSP\Source\TransformFunctions/arm_cfft_radix4_q15.c ****     ic = ic + twidCoefModifier;
1192:.\DSP\Source\TransformFunctions/arm_cfft_radix4_q15.c **** 
1193:.\DSP\Source\TransformFunctions/arm_cfft_radix4_q15.c ****   } while (--j);
1194:.\DSP\Source\TransformFunctions/arm_cfft_radix4_q15.c ****   /* data is in 4.11(q11) format */
1195:.\DSP\Source\TransformFunctions/arm_cfft_radix4_q15.c **** 
1196:.\DSP\Source\TransformFunctions/arm_cfft_radix4_q15.c ****   /* end of first stage process */
1197:.\DSP\Source\TransformFunctions/arm_cfft_radix4_q15.c **** 
1198:.\DSP\Source\TransformFunctions/arm_cfft_radix4_q15.c **** 
1199:.\DSP\Source\TransformFunctions/arm_cfft_radix4_q15.c ****   /* start of middle stage process */
1200:.\DSP\Source\TransformFunctions/arm_cfft_radix4_q15.c **** 
1201:.\DSP\Source\TransformFunctions/arm_cfft_radix4_q15.c ****   /*  Twiddle coefficients index modifier */
1202:.\DSP\Source\TransformFunctions/arm_cfft_radix4_q15.c ****   twidCoefModifier <<= 2U;
1203:.\DSP\Source\TransformFunctions/arm_cfft_radix4_q15.c **** 
1204:.\DSP\Source\TransformFunctions/arm_cfft_radix4_q15.c ****   /*  Calculation of Middle stage */
1205:.\DSP\Source\TransformFunctions/arm_cfft_radix4_q15.c ****   for (k = fftLen / 4U; k > 4U; k >>= 2U)
1206:.\DSP\Source\TransformFunctions/arm_cfft_radix4_q15.c ****   {
1207:.\DSP\Source\TransformFunctions/arm_cfft_radix4_q15.c ****     /*  Initializations for the middle stage */
1208:.\DSP\Source\TransformFunctions/arm_cfft_radix4_q15.c ****     n1 = n2;
1209:.\DSP\Source\TransformFunctions/arm_cfft_radix4_q15.c ****     n2 >>= 2U;
1210:.\DSP\Source\TransformFunctions/arm_cfft_radix4_q15.c ****     ic = 0U;
1211:.\DSP\Source\TransformFunctions/arm_cfft_radix4_q15.c **** 
1212:.\DSP\Source\TransformFunctions/arm_cfft_radix4_q15.c ****     for (j = 0U; j <= (n2 - 1U); j++)
1213:.\DSP\Source\TransformFunctions/arm_cfft_radix4_q15.c ****     {
1214:.\DSP\Source\TransformFunctions/arm_cfft_radix4_q15.c ****       /*  index calculation for the coefficients */
1215:.\DSP\Source\TransformFunctions/arm_cfft_radix4_q15.c ****       C1 = read_q15x2 ((q15_t *) pCoef16 + (2U * ic));
1216:.\DSP\Source\TransformFunctions/arm_cfft_radix4_q15.c ****       C2 = read_q15x2 ((q15_t *) pCoef16 + (4U * ic));
1217:.\DSP\Source\TransformFunctions/arm_cfft_radix4_q15.c ****       C3 = read_q15x2 ((q15_t *) pCoef16 + (6U * ic));
ARM GAS  C:\Users\IVYLIU~1\AppData\Local\Temp\cc4rI5mx.s 			page 42


1218:.\DSP\Source\TransformFunctions/arm_cfft_radix4_q15.c **** 
1219:.\DSP\Source\TransformFunctions/arm_cfft_radix4_q15.c ****       /*  Twiddle coefficients index modifier */
1220:.\DSP\Source\TransformFunctions/arm_cfft_radix4_q15.c ****       ic = ic + twidCoefModifier;
1221:.\DSP\Source\TransformFunctions/arm_cfft_radix4_q15.c **** 
1222:.\DSP\Source\TransformFunctions/arm_cfft_radix4_q15.c ****       pSi0 = pSrc16 + 2 * j;
1223:.\DSP\Source\TransformFunctions/arm_cfft_radix4_q15.c ****       pSi1 = pSi0 + 2 * n2;
1224:.\DSP\Source\TransformFunctions/arm_cfft_radix4_q15.c ****       pSi2 = pSi1 + 2 * n2;
1225:.\DSP\Source\TransformFunctions/arm_cfft_radix4_q15.c ****       pSi3 = pSi2 + 2 * n2;
1226:.\DSP\Source\TransformFunctions/arm_cfft_radix4_q15.c **** 
1227:.\DSP\Source\TransformFunctions/arm_cfft_radix4_q15.c ****       /*  Butterfly implementation */
1228:.\DSP\Source\TransformFunctions/arm_cfft_radix4_q15.c ****       for (i0 = j; i0 < fftLen; i0 += n1)
1229:.\DSP\Source\TransformFunctions/arm_cfft_radix4_q15.c ****       {
1230:.\DSP\Source\TransformFunctions/arm_cfft_radix4_q15.c ****         /*  Reading i0, i0+fftLen/2 inputs */
1231:.\DSP\Source\TransformFunctions/arm_cfft_radix4_q15.c ****         /* Read ya (real), xa(imag) input */
1232:.\DSP\Source\TransformFunctions/arm_cfft_radix4_q15.c ****         T = read_q15x2 (pSi0);
1233:.\DSP\Source\TransformFunctions/arm_cfft_radix4_q15.c **** 
1234:.\DSP\Source\TransformFunctions/arm_cfft_radix4_q15.c ****         /* Read yc (real), xc(imag) input */
1235:.\DSP\Source\TransformFunctions/arm_cfft_radix4_q15.c ****         S = read_q15x2 (pSi2);
1236:.\DSP\Source\TransformFunctions/arm_cfft_radix4_q15.c **** 
1237:.\DSP\Source\TransformFunctions/arm_cfft_radix4_q15.c ****         /* R = packed( (ya + yc), (xa + xc)) */
1238:.\DSP\Source\TransformFunctions/arm_cfft_radix4_q15.c ****         R = __QADD16(T, S);
1239:.\DSP\Source\TransformFunctions/arm_cfft_radix4_q15.c **** 
1240:.\DSP\Source\TransformFunctions/arm_cfft_radix4_q15.c ****         /* S = packed((ya - yc), (xa - xc)) */
1241:.\DSP\Source\TransformFunctions/arm_cfft_radix4_q15.c ****         S = __QSUB16(T, S);
1242:.\DSP\Source\TransformFunctions/arm_cfft_radix4_q15.c **** 
1243:.\DSP\Source\TransformFunctions/arm_cfft_radix4_q15.c ****         /*  Reading i0+fftLen/4 , i0+3fftLen/4 inputs */
1244:.\DSP\Source\TransformFunctions/arm_cfft_radix4_q15.c ****         /* Read yb (real), xb(imag) input */
1245:.\DSP\Source\TransformFunctions/arm_cfft_radix4_q15.c ****         T = read_q15x2 (pSi1);
1246:.\DSP\Source\TransformFunctions/arm_cfft_radix4_q15.c **** 
1247:.\DSP\Source\TransformFunctions/arm_cfft_radix4_q15.c ****         /* Read yd (real), xd(imag) input */
1248:.\DSP\Source\TransformFunctions/arm_cfft_radix4_q15.c ****         U = read_q15x2 (pSi3);
1249:.\DSP\Source\TransformFunctions/arm_cfft_radix4_q15.c **** 
1250:.\DSP\Source\TransformFunctions/arm_cfft_radix4_q15.c ****         /* T = packed( (yb + yd), (xb + xd)) */
1251:.\DSP\Source\TransformFunctions/arm_cfft_radix4_q15.c ****         T = __QADD16(T, U);
1252:.\DSP\Source\TransformFunctions/arm_cfft_radix4_q15.c **** 
1253:.\DSP\Source\TransformFunctions/arm_cfft_radix4_q15.c ****         /*  writing the butterfly processed i0 sample */
1254:.\DSP\Source\TransformFunctions/arm_cfft_radix4_q15.c **** 
1255:.\DSP\Source\TransformFunctions/arm_cfft_radix4_q15.c ****         /* xa' = xa + xb + xc + xd */
1256:.\DSP\Source\TransformFunctions/arm_cfft_radix4_q15.c ****         /* ya' = ya + yb + yc + yd */
1257:.\DSP\Source\TransformFunctions/arm_cfft_radix4_q15.c ****         out1 = __SHADD16(R, T);
1258:.\DSP\Source\TransformFunctions/arm_cfft_radix4_q15.c ****         out1 = __SHADD16(out1, 0);
1259:.\DSP\Source\TransformFunctions/arm_cfft_radix4_q15.c ****         write_q15x2 (pSi0, out1);
1260:.\DSP\Source\TransformFunctions/arm_cfft_radix4_q15.c ****         pSi0 += 2 * n1;
1261:.\DSP\Source\TransformFunctions/arm_cfft_radix4_q15.c **** 
1262:.\DSP\Source\TransformFunctions/arm_cfft_radix4_q15.c ****         /* R = packed( (ya + yc) - (yb + yd), (xa + xc) - (xb + xd)) */
1263:.\DSP\Source\TransformFunctions/arm_cfft_radix4_q15.c ****         R = __SHSUB16(R, T);
1264:.\DSP\Source\TransformFunctions/arm_cfft_radix4_q15.c **** 
1265:.\DSP\Source\TransformFunctions/arm_cfft_radix4_q15.c **** #ifndef ARM_MATH_BIG_ENDIAN
1266:.\DSP\Source\TransformFunctions/arm_cfft_radix4_q15.c ****         /* (ya-yb+yc-yd)* (si2) + (xa-xb+xc-xd)* co2 */
1267:.\DSP\Source\TransformFunctions/arm_cfft_radix4_q15.c ****         out1 = __SMUSD(C2, R) >> 16U;
1268:.\DSP\Source\TransformFunctions/arm_cfft_radix4_q15.c **** 
1269:.\DSP\Source\TransformFunctions/arm_cfft_radix4_q15.c ****         /* (ya-yb+yc-yd)* co2 - (xa-xb+xc-xd)* (si2) */
1270:.\DSP\Source\TransformFunctions/arm_cfft_radix4_q15.c ****         out2 = __SMUADX(C2, R);
1271:.\DSP\Source\TransformFunctions/arm_cfft_radix4_q15.c **** #else
1272:.\DSP\Source\TransformFunctions/arm_cfft_radix4_q15.c ****         /* (ya-yb+yc-yd)* co2 - (xa-xb+xc-xd)* (si2) */
1273:.\DSP\Source\TransformFunctions/arm_cfft_radix4_q15.c ****         out1 = __SMUADX(R, C2) >> 16U;
1274:.\DSP\Source\TransformFunctions/arm_cfft_radix4_q15.c **** 
ARM GAS  C:\Users\IVYLIU~1\AppData\Local\Temp\cc4rI5mx.s 			page 43


1275:.\DSP\Source\TransformFunctions/arm_cfft_radix4_q15.c ****         /* (ya-yb+yc-yd)* (si2) + (xa-xb+xc-xd)* co2 */
1276:.\DSP\Source\TransformFunctions/arm_cfft_radix4_q15.c ****         out2 = __SMUSD(__QSUB16(0, C2), R);
1277:.\DSP\Source\TransformFunctions/arm_cfft_radix4_q15.c **** #endif /* #ifndef ARM_MATH_BIG_ENDIAN */
1278:.\DSP\Source\TransformFunctions/arm_cfft_radix4_q15.c **** 
1279:.\DSP\Source\TransformFunctions/arm_cfft_radix4_q15.c ****         /*  Reading i0+3fftLen/4 */
1280:.\DSP\Source\TransformFunctions/arm_cfft_radix4_q15.c ****         /* Read yb (real), xb(imag) input */
1281:.\DSP\Source\TransformFunctions/arm_cfft_radix4_q15.c ****         T = read_q15x2 (pSi1);
1282:.\DSP\Source\TransformFunctions/arm_cfft_radix4_q15.c **** 
1283:.\DSP\Source\TransformFunctions/arm_cfft_radix4_q15.c ****         /*  writing the butterfly processed i0 + fftLen/4 sample */
1284:.\DSP\Source\TransformFunctions/arm_cfft_radix4_q15.c ****         /* xc' = (xa-xb+xc-xd)* co2 + (ya-yb+yc-yd)* (si2) */
1285:.\DSP\Source\TransformFunctions/arm_cfft_radix4_q15.c ****         /* yc' = (ya-yb+yc-yd)* co2 - (xa-xb+xc-xd)* (si2) */
1286:.\DSP\Source\TransformFunctions/arm_cfft_radix4_q15.c ****         write_q15x2 (pSi1, __PKHBT( out1, out2, 0 ));
1287:.\DSP\Source\TransformFunctions/arm_cfft_radix4_q15.c ****         pSi1 += 2 * n1;
1288:.\DSP\Source\TransformFunctions/arm_cfft_radix4_q15.c **** 
1289:.\DSP\Source\TransformFunctions/arm_cfft_radix4_q15.c ****         /*  Butterfly calculations */
1290:.\DSP\Source\TransformFunctions/arm_cfft_radix4_q15.c **** 
1291:.\DSP\Source\TransformFunctions/arm_cfft_radix4_q15.c ****         /* Read yd (real), xd(imag) input */
1292:.\DSP\Source\TransformFunctions/arm_cfft_radix4_q15.c ****         U = read_q15x2 (pSi3);
1293:.\DSP\Source\TransformFunctions/arm_cfft_radix4_q15.c **** 
1294:.\DSP\Source\TransformFunctions/arm_cfft_radix4_q15.c ****         /* T = packed(yb-yd, xb-xd) */
1295:.\DSP\Source\TransformFunctions/arm_cfft_radix4_q15.c ****         T = __QSUB16(T, U);
1296:.\DSP\Source\TransformFunctions/arm_cfft_radix4_q15.c **** 
1297:.\DSP\Source\TransformFunctions/arm_cfft_radix4_q15.c **** #ifndef ARM_MATH_BIG_ENDIAN
1298:.\DSP\Source\TransformFunctions/arm_cfft_radix4_q15.c ****         /* R = packed((ya-yc) + (xb- xd) , (xa-xc) - (yb-yd)) */
1299:.\DSP\Source\TransformFunctions/arm_cfft_radix4_q15.c ****         R = __SHSAX(S, T);
1300:.\DSP\Source\TransformFunctions/arm_cfft_radix4_q15.c **** 
1301:.\DSP\Source\TransformFunctions/arm_cfft_radix4_q15.c ****         /* S = packed((ya-yc) - (xb- xd),  (xa-xc) + (yb-yd)) */
1302:.\DSP\Source\TransformFunctions/arm_cfft_radix4_q15.c ****         S = __SHASX(S, T);
1303:.\DSP\Source\TransformFunctions/arm_cfft_radix4_q15.c **** 
1304:.\DSP\Source\TransformFunctions/arm_cfft_radix4_q15.c ****         /*  Butterfly process for the i0+fftLen/2 sample */
1305:.\DSP\Source\TransformFunctions/arm_cfft_radix4_q15.c ****         out1 = __SMUSD(C1, S) >> 16U;
1306:.\DSP\Source\TransformFunctions/arm_cfft_radix4_q15.c ****         out2 = __SMUADX(C1, S);
1307:.\DSP\Source\TransformFunctions/arm_cfft_radix4_q15.c **** #else
1308:.\DSP\Source\TransformFunctions/arm_cfft_radix4_q15.c ****         /* R = packed((ya-yc) + (xb- xd) , (xa-xc) - (yb-yd)) */
1309:.\DSP\Source\TransformFunctions/arm_cfft_radix4_q15.c ****         R = __SHASX(S, T);
1310:.\DSP\Source\TransformFunctions/arm_cfft_radix4_q15.c **** 
1311:.\DSP\Source\TransformFunctions/arm_cfft_radix4_q15.c ****         /* S = packed((ya-yc) - (xb- xd),  (xa-xc) + (yb-yd)) */
1312:.\DSP\Source\TransformFunctions/arm_cfft_radix4_q15.c ****         S = __SHSAX(S, T);
1313:.\DSP\Source\TransformFunctions/arm_cfft_radix4_q15.c **** 
1314:.\DSP\Source\TransformFunctions/arm_cfft_radix4_q15.c ****         /*  Butterfly process for the i0+fftLen/2 sample */
1315:.\DSP\Source\TransformFunctions/arm_cfft_radix4_q15.c ****         out1 = __SMUADX(S, C1) >> 16U;
1316:.\DSP\Source\TransformFunctions/arm_cfft_radix4_q15.c ****         out2 = __SMUSD(__QSUB16(0, C1), S);
1317:.\DSP\Source\TransformFunctions/arm_cfft_radix4_q15.c **** #endif /* #ifndef ARM_MATH_BIG_ENDIAN */
1318:.\DSP\Source\TransformFunctions/arm_cfft_radix4_q15.c **** 
1319:.\DSP\Source\TransformFunctions/arm_cfft_radix4_q15.c ****         /* xb' = (xa+yb-xc-yd)* co1 + (ya-xb-yc+xd)* (si1) */
1320:.\DSP\Source\TransformFunctions/arm_cfft_radix4_q15.c ****         /* yb' = (ya-xb-yc+xd)* co1 - (xa+yb-xc-yd)* (si1) */
1321:.\DSP\Source\TransformFunctions/arm_cfft_radix4_q15.c ****         write_q15x2 (pSi2, __PKHBT( out1, out2, 0 ));
1322:.\DSP\Source\TransformFunctions/arm_cfft_radix4_q15.c ****         pSi2 += 2 * n1;
1323:.\DSP\Source\TransformFunctions/arm_cfft_radix4_q15.c **** 
1324:.\DSP\Source\TransformFunctions/arm_cfft_radix4_q15.c ****         /*  Butterfly process for the i0+3fftLen/4 sample */
1325:.\DSP\Source\TransformFunctions/arm_cfft_radix4_q15.c **** 
1326:.\DSP\Source\TransformFunctions/arm_cfft_radix4_q15.c **** #ifndef ARM_MATH_BIG_ENDIAN
1327:.\DSP\Source\TransformFunctions/arm_cfft_radix4_q15.c ****         out1 = __SMUSD(C3, R) >> 16U;
1328:.\DSP\Source\TransformFunctions/arm_cfft_radix4_q15.c ****         out2 = __SMUADX(C3, R);
1329:.\DSP\Source\TransformFunctions/arm_cfft_radix4_q15.c **** #else
1330:.\DSP\Source\TransformFunctions/arm_cfft_radix4_q15.c ****         out1 = __SMUADX(C3, R) >> 16U;
1331:.\DSP\Source\TransformFunctions/arm_cfft_radix4_q15.c ****         out2 = __SMUSD(__QSUB16(0, C3), R);
ARM GAS  C:\Users\IVYLIU~1\AppData\Local\Temp\cc4rI5mx.s 			page 44


1332:.\DSP\Source\TransformFunctions/arm_cfft_radix4_q15.c **** #endif /* #ifndef ARM_MATH_BIG_ENDIAN */
1333:.\DSP\Source\TransformFunctions/arm_cfft_radix4_q15.c **** 
1334:.\DSP\Source\TransformFunctions/arm_cfft_radix4_q15.c ****         /* xd' = (xa-yb-xc+yd)* co3 + (ya+xb-yc-xd)* (si3) */
1335:.\DSP\Source\TransformFunctions/arm_cfft_radix4_q15.c ****         /* yd' = (ya+xb-yc-xd)* co3 - (xa-yb-xc+yd)* (si3) */
1336:.\DSP\Source\TransformFunctions/arm_cfft_radix4_q15.c ****         write_q15x2 (pSi3, __PKHBT( out1, out2, 0 ));
1337:.\DSP\Source\TransformFunctions/arm_cfft_radix4_q15.c ****         pSi3 += 2 * n1;
1338:.\DSP\Source\TransformFunctions/arm_cfft_radix4_q15.c ****       }
1339:.\DSP\Source\TransformFunctions/arm_cfft_radix4_q15.c ****     }
1340:.\DSP\Source\TransformFunctions/arm_cfft_radix4_q15.c ****     /*  Twiddle coefficients index modifier */
1341:.\DSP\Source\TransformFunctions/arm_cfft_radix4_q15.c ****     twidCoefModifier <<= 2U;
1342:.\DSP\Source\TransformFunctions/arm_cfft_radix4_q15.c ****   }
1343:.\DSP\Source\TransformFunctions/arm_cfft_radix4_q15.c ****   /* end of middle stage process */
1344:.\DSP\Source\TransformFunctions/arm_cfft_radix4_q15.c **** 
1345:.\DSP\Source\TransformFunctions/arm_cfft_radix4_q15.c ****   /* data is in 10.6(q6) format for the 1024 point */
1346:.\DSP\Source\TransformFunctions/arm_cfft_radix4_q15.c ****   /* data is in 8.8(q8) format for the 256 point */
1347:.\DSP\Source\TransformFunctions/arm_cfft_radix4_q15.c ****   /* data is in 6.10(q10) format for the 64 point */
1348:.\DSP\Source\TransformFunctions/arm_cfft_radix4_q15.c ****   /* data is in 4.12(q12) format for the 16 point */
1349:.\DSP\Source\TransformFunctions/arm_cfft_radix4_q15.c **** 
1350:.\DSP\Source\TransformFunctions/arm_cfft_radix4_q15.c ****   /*  Initializations for the last stage */
1351:.\DSP\Source\TransformFunctions/arm_cfft_radix4_q15.c ****   j = fftLen >> 2;
1352:.\DSP\Source\TransformFunctions/arm_cfft_radix4_q15.c **** 
1353:.\DSP\Source\TransformFunctions/arm_cfft_radix4_q15.c ****   ptr1 = &pSrc16[0];
1354:.\DSP\Source\TransformFunctions/arm_cfft_radix4_q15.c **** 
1355:.\DSP\Source\TransformFunctions/arm_cfft_radix4_q15.c ****   /* start of last stage process */
1356:.\DSP\Source\TransformFunctions/arm_cfft_radix4_q15.c **** 
1357:.\DSP\Source\TransformFunctions/arm_cfft_radix4_q15.c ****   /*  Butterfly implementation */
1358:.\DSP\Source\TransformFunctions/arm_cfft_radix4_q15.c ****   do
1359:.\DSP\Source\TransformFunctions/arm_cfft_radix4_q15.c ****   {
1360:.\DSP\Source\TransformFunctions/arm_cfft_radix4_q15.c ****     /* Read xa (real), ya(imag) input */
1361:.\DSP\Source\TransformFunctions/arm_cfft_radix4_q15.c ****     xaya = read_q15x2_ia (&ptr1);
1362:.\DSP\Source\TransformFunctions/arm_cfft_radix4_q15.c **** 
1363:.\DSP\Source\TransformFunctions/arm_cfft_radix4_q15.c ****     /* Read xb (real), yb(imag) input */
1364:.\DSP\Source\TransformFunctions/arm_cfft_radix4_q15.c ****     xbyb = read_q15x2_ia (&ptr1);
1365:.\DSP\Source\TransformFunctions/arm_cfft_radix4_q15.c **** 
1366:.\DSP\Source\TransformFunctions/arm_cfft_radix4_q15.c ****     /* Read xc (real), yc(imag) input */
1367:.\DSP\Source\TransformFunctions/arm_cfft_radix4_q15.c ****     xcyc = read_q15x2_ia (&ptr1);
1368:.\DSP\Source\TransformFunctions/arm_cfft_radix4_q15.c **** 
1369:.\DSP\Source\TransformFunctions/arm_cfft_radix4_q15.c ****     /* Read xd (real), yd(imag) input */
1370:.\DSP\Source\TransformFunctions/arm_cfft_radix4_q15.c ****     xdyd = read_q15x2_ia (&ptr1);
1371:.\DSP\Source\TransformFunctions/arm_cfft_radix4_q15.c **** 
1372:.\DSP\Source\TransformFunctions/arm_cfft_radix4_q15.c ****     /* R = packed((ya + yc), (xa + xc)) */
1373:.\DSP\Source\TransformFunctions/arm_cfft_radix4_q15.c ****     R = __QADD16(xaya, xcyc);
1374:.\DSP\Source\TransformFunctions/arm_cfft_radix4_q15.c **** 
1375:.\DSP\Source\TransformFunctions/arm_cfft_radix4_q15.c ****     /* T = packed((yb + yd), (xb + xd)) */
1376:.\DSP\Source\TransformFunctions/arm_cfft_radix4_q15.c ****     T = __QADD16(xbyb, xdyd);
1377:.\DSP\Source\TransformFunctions/arm_cfft_radix4_q15.c **** 
1378:.\DSP\Source\TransformFunctions/arm_cfft_radix4_q15.c ****     /* pointer updation for writing */
1379:.\DSP\Source\TransformFunctions/arm_cfft_radix4_q15.c ****     ptr1 = ptr1 - 8U;
1380:.\DSP\Source\TransformFunctions/arm_cfft_radix4_q15.c **** 
1381:.\DSP\Source\TransformFunctions/arm_cfft_radix4_q15.c **** 
1382:.\DSP\Source\TransformFunctions/arm_cfft_radix4_q15.c ****     /* xa' = xa + xb + xc + xd */
1383:.\DSP\Source\TransformFunctions/arm_cfft_radix4_q15.c ****     /* ya' = ya + yb + yc + yd */
1384:.\DSP\Source\TransformFunctions/arm_cfft_radix4_q15.c ****     write_q15x2_ia (&ptr1, __SHADD16(R, T));
1385:.\DSP\Source\TransformFunctions/arm_cfft_radix4_q15.c **** 
1386:.\DSP\Source\TransformFunctions/arm_cfft_radix4_q15.c ****     /* T = packed((yb + yd), (xb + xd)) */
1387:.\DSP\Source\TransformFunctions/arm_cfft_radix4_q15.c ****     T = __QADD16(xbyb, xdyd);
1388:.\DSP\Source\TransformFunctions/arm_cfft_radix4_q15.c **** 
ARM GAS  C:\Users\IVYLIU~1\AppData\Local\Temp\cc4rI5mx.s 			page 45


1389:.\DSP\Source\TransformFunctions/arm_cfft_radix4_q15.c ****     /* xc' = (xa-xb+xc-xd) */
1390:.\DSP\Source\TransformFunctions/arm_cfft_radix4_q15.c ****     /* yc' = (ya-yb+yc-yd) */
1391:.\DSP\Source\TransformFunctions/arm_cfft_radix4_q15.c ****     write_q15x2_ia (&ptr1, __SHSUB16(R, T));
1392:.\DSP\Source\TransformFunctions/arm_cfft_radix4_q15.c **** 
1393:.\DSP\Source\TransformFunctions/arm_cfft_radix4_q15.c ****     /* S = packed((ya - yc), (xa - xc)) */
1394:.\DSP\Source\TransformFunctions/arm_cfft_radix4_q15.c ****     S = __QSUB16(xaya, xcyc);
1395:.\DSP\Source\TransformFunctions/arm_cfft_radix4_q15.c **** 
1396:.\DSP\Source\TransformFunctions/arm_cfft_radix4_q15.c ****     /* Read yd (real), xd(imag) input */
1397:.\DSP\Source\TransformFunctions/arm_cfft_radix4_q15.c ****     /* T = packed( (yb - yd), (xb - xd))  */
1398:.\DSP\Source\TransformFunctions/arm_cfft_radix4_q15.c ****     U = __QSUB16(xbyb, xdyd);
1399:.\DSP\Source\TransformFunctions/arm_cfft_radix4_q15.c **** 
1400:.\DSP\Source\TransformFunctions/arm_cfft_radix4_q15.c **** #ifndef ARM_MATH_BIG_ENDIAN
1401:.\DSP\Source\TransformFunctions/arm_cfft_radix4_q15.c ****     /* xb' = (xa+yb-xc-yd) */
1402:.\DSP\Source\TransformFunctions/arm_cfft_radix4_q15.c ****     /* yb' = (ya-xb-yc+xd) */
1403:.\DSP\Source\TransformFunctions/arm_cfft_radix4_q15.c ****     write_q15x2_ia (&ptr1, __SHASX(S, U));
1404:.\DSP\Source\TransformFunctions/arm_cfft_radix4_q15.c **** 
1405:.\DSP\Source\TransformFunctions/arm_cfft_radix4_q15.c ****     /* xd' = (xa-yb-xc+yd) */
1406:.\DSP\Source\TransformFunctions/arm_cfft_radix4_q15.c ****     /* yd' = (ya+xb-yc-xd) */
1407:.\DSP\Source\TransformFunctions/arm_cfft_radix4_q15.c ****     write_q15x2_ia (&ptr1, __SHSAX(S, U));
1408:.\DSP\Source\TransformFunctions/arm_cfft_radix4_q15.c **** #else
1409:.\DSP\Source\TransformFunctions/arm_cfft_radix4_q15.c ****     /* xb' = (xa+yb-xc-yd) */
1410:.\DSP\Source\TransformFunctions/arm_cfft_radix4_q15.c ****     /* yb' = (ya-xb-yc+xd) */
1411:.\DSP\Source\TransformFunctions/arm_cfft_radix4_q15.c ****     write_q15x2_ia (&ptr1, __SHSAX(S, U));
1412:.\DSP\Source\TransformFunctions/arm_cfft_radix4_q15.c **** 
1413:.\DSP\Source\TransformFunctions/arm_cfft_radix4_q15.c ****     /* xd' = (xa-yb-xc+yd) */
1414:.\DSP\Source\TransformFunctions/arm_cfft_radix4_q15.c ****     /* yd' = (ya+xb-yc-xd) */
1415:.\DSP\Source\TransformFunctions/arm_cfft_radix4_q15.c ****     write_q15x2_ia (&ptr1, __SHASX(S, U));
1416:.\DSP\Source\TransformFunctions/arm_cfft_radix4_q15.c **** #endif /* #ifndef ARM_MATH_BIG_ENDIAN */
1417:.\DSP\Source\TransformFunctions/arm_cfft_radix4_q15.c **** 
1418:.\DSP\Source\TransformFunctions/arm_cfft_radix4_q15.c ****   } while (--j);
1419:.\DSP\Source\TransformFunctions/arm_cfft_radix4_q15.c **** 
1420:.\DSP\Source\TransformFunctions/arm_cfft_radix4_q15.c ****   /* end of last stage  process */
1421:.\DSP\Source\TransformFunctions/arm_cfft_radix4_q15.c **** 
1422:.\DSP\Source\TransformFunctions/arm_cfft_radix4_q15.c ****   /* output is in 11.5(q5) format for the 1024 point */
1423:.\DSP\Source\TransformFunctions/arm_cfft_radix4_q15.c ****   /* output is in 9.7(q7) format for the 256 point   */
1424:.\DSP\Source\TransformFunctions/arm_cfft_radix4_q15.c ****   /* output is in 7.9(q9) format for the 64 point  */
1425:.\DSP\Source\TransformFunctions/arm_cfft_radix4_q15.c ****   /* output is in 5.11(q11) format for the 16 point  */
1426:.\DSP\Source\TransformFunctions/arm_cfft_radix4_q15.c **** 
1427:.\DSP\Source\TransformFunctions/arm_cfft_radix4_q15.c **** 
1428:.\DSP\Source\TransformFunctions/arm_cfft_radix4_q15.c **** #else /* arm_radix4_butterfly_inverse_q15 */
1429:.\DSP\Source\TransformFunctions/arm_cfft_radix4_q15.c **** 
1430:.\DSP\Source\TransformFunctions/arm_cfft_radix4_q15.c ****         q15_t R0, R1, S0, S1, T0, T1, U0, U1;
1431:.\DSP\Source\TransformFunctions/arm_cfft_radix4_q15.c ****         q15_t Co1, Si1, Co2, Si2, Co3, Si3, out1, out2;
1432:.\DSP\Source\TransformFunctions/arm_cfft_radix4_q15.c ****         uint32_t n1, n2, ic, i0, i1, i2, i3, j, k;
1433:.\DSP\Source\TransformFunctions/arm_cfft_radix4_q15.c **** 
1434:.\DSP\Source\TransformFunctions/arm_cfft_radix4_q15.c ****   /* Total process is divided into three stages */
1435:.\DSP\Source\TransformFunctions/arm_cfft_radix4_q15.c **** 
1436:.\DSP\Source\TransformFunctions/arm_cfft_radix4_q15.c ****   /* process first stage, middle stages, & last stage */
1437:.\DSP\Source\TransformFunctions/arm_cfft_radix4_q15.c **** 
1438:.\DSP\Source\TransformFunctions/arm_cfft_radix4_q15.c ****   /*  Initializations for the first stage */
1439:.\DSP\Source\TransformFunctions/arm_cfft_radix4_q15.c ****   n2 = fftLen;
1440:.\DSP\Source\TransformFunctions/arm_cfft_radix4_q15.c ****   n1 = n2;
1441:.\DSP\Source\TransformFunctions/arm_cfft_radix4_q15.c **** 
1442:.\DSP\Source\TransformFunctions/arm_cfft_radix4_q15.c ****   /* n2 = fftLen/4 */
1443:.\DSP\Source\TransformFunctions/arm_cfft_radix4_q15.c ****   n2 >>= 2U;
 1109              		.loc 1 1443 0
 1110 000e 8B08     		lsrs	r3, r1, #2
ARM GAS  C:\Users\IVYLIU~1\AppData\Local\Temp\cc4rI5mx.s 			page 46


 1111              	.LVL268:
 1112 0010 0C93     		str	r3, [sp, #48]
 1113              	.LVL269:
1444:.\DSP\Source\TransformFunctions/arm_cfft_radix4_q15.c **** 
1445:.\DSP\Source\TransformFunctions/arm_cfft_radix4_q15.c ****   /* Index for twiddle coefficient */
1446:.\DSP\Source\TransformFunctions/arm_cfft_radix4_q15.c ****   ic = 0U;
1447:.\DSP\Source\TransformFunctions/arm_cfft_radix4_q15.c **** 
1448:.\DSP\Source\TransformFunctions/arm_cfft_radix4_q15.c ****   /* Index for input read and output write */
1449:.\DSP\Source\TransformFunctions/arm_cfft_radix4_q15.c ****   i0 = 0U;
1450:.\DSP\Source\TransformFunctions/arm_cfft_radix4_q15.c **** 
1451:.\DSP\Source\TransformFunctions/arm_cfft_radix4_q15.c ****   j = n2;
 1114              		.loc 1 1451 0
 1115 0012 0193     		str	r3, [sp, #4]
1449:.\DSP\Source\TransformFunctions/arm_cfft_radix4_q15.c **** 
 1116              		.loc 1 1449 0
 1117 0014 4FF00008 		mov	r8, #0
1446:.\DSP\Source\TransformFunctions/arm_cfft_radix4_q15.c **** 
 1118              		.loc 1 1446 0
 1119 0018 C446     		mov	ip, r8
 1120 001a 1446     		mov	r4, r2
 1121              	.LVL270:
 1122              	.L13:
1452:.\DSP\Source\TransformFunctions/arm_cfft_radix4_q15.c **** 
1453:.\DSP\Source\TransformFunctions/arm_cfft_radix4_q15.c ****   /* Input is in 1.15(q15) format */
1454:.\DSP\Source\TransformFunctions/arm_cfft_radix4_q15.c **** 
1455:.\DSP\Source\TransformFunctions/arm_cfft_radix4_q15.c ****   /*  Start of first stage process */
1456:.\DSP\Source\TransformFunctions/arm_cfft_radix4_q15.c ****   do
1457:.\DSP\Source\TransformFunctions/arm_cfft_radix4_q15.c ****   {
1458:.\DSP\Source\TransformFunctions/arm_cfft_radix4_q15.c ****     /*  Butterfly implementation */
1459:.\DSP\Source\TransformFunctions/arm_cfft_radix4_q15.c **** 
1460:.\DSP\Source\TransformFunctions/arm_cfft_radix4_q15.c ****     /*  index calculation for the input as, */
1461:.\DSP\Source\TransformFunctions/arm_cfft_radix4_q15.c ****     /*  pSrc16[i0 + 0], pSrc16[i0 + fftLen/4], pSrc16[i0 + fftLen/2], pSrc16[i0 + 3fftLen/4] */
1462:.\DSP\Source\TransformFunctions/arm_cfft_radix4_q15.c ****     i1 = i0 + n2;
 1123              		.loc 1 1462 0 discriminator 1
 1124 001c 0C9A     		ldr	r2, [sp, #48]
 1125 001e 08EB0207 		add	r7, r8, r2
 1126              	.LVL271:
1463:.\DSP\Source\TransformFunctions/arm_cfft_radix4_q15.c ****     i2 = i1 + n2;
 1127              		.loc 1 1463 0 discriminator 1
 1128 0022 07EB0209 		add	r9, r7, r2
 1129              	.LVL272:
1464:.\DSP\Source\TransformFunctions/arm_cfft_radix4_q15.c ****     i3 = i2 + n2;
 1130              		.loc 1 1464 0 discriminator 1
 1131 0026 09EB020E 		add	lr, r9, r2
 1132              	.LVL273:
1465:.\DSP\Source\TransformFunctions/arm_cfft_radix4_q15.c **** 
1466:.\DSP\Source\TransformFunctions/arm_cfft_radix4_q15.c ****     /*  Reading i0, i0+fftLen/2 inputs */
1467:.\DSP\Source\TransformFunctions/arm_cfft_radix4_q15.c ****     /* input is down scale by 4 to avoid overflow */
1468:.\DSP\Source\TransformFunctions/arm_cfft_radix4_q15.c ****     /* Read ya (real), xa(imag) input */
1469:.\DSP\Source\TransformFunctions/arm_cfft_radix4_q15.c ****     T0 = pSrc16[i0 * 2U] >> 2U;
 1133              		.loc 1 1469 0 discriminator 1
 1134 002a 4FEA8803 		lsl	r3, r8, #2
 1135 002e 3AF92820 		ldrsh	r2, [r10, r8, lsl #2]
 1136              	.LVL274:
1470:.\DSP\Source\TransformFunctions/arm_cfft_radix4_q15.c ****     T1 = pSrc16[(i0 * 2U) + 1U] >> 2U;
 1137              		.loc 1 1470 0 discriminator 1
 1138 0032 0233     		adds	r3, r3, #2
ARM GAS  C:\Users\IVYLIU~1\AppData\Local\Temp\cc4rI5mx.s 			page 47


 1139 0034 0693     		str	r3, [sp, #24]
 1140 0036 3AF90330 		ldrsh	r3, [r10, r3]
 1141 003a C3F38F03 		ubfx	r3, r3, #2, #16
 1142              	.LVL275:
1471:.\DSP\Source\TransformFunctions/arm_cfft_radix4_q15.c ****     /* input is down scale by 4 to avoid overflow */
1472:.\DSP\Source\TransformFunctions/arm_cfft_radix4_q15.c ****     /* Read yc (real), xc(imag) input */
1473:.\DSP\Source\TransformFunctions/arm_cfft_radix4_q15.c ****     S0 = pSrc16[i2 * 2U] >> 2U;
 1143              		.loc 1 1473 0 discriminator 1
 1144 003e 4FEA8901 		lsl	r1, r9, #2
 1145 0042 3AF92900 		ldrsh	r0, [r10, r9, lsl #2]
 1146              	.LVL276:
1474:.\DSP\Source\TransformFunctions/arm_cfft_radix4_q15.c ****     S1 = pSrc16[(i2 * 2U) + 1U] >> 2U;
 1147              		.loc 1 1474 0 discriminator 1
 1148 0046 8D1C     		adds	r5, r1, #2
 1149 0048 0795     		str	r5, [sp, #28]
 1150 004a 3AF90510 		ldrsh	r1, [r10, r5]
 1151 004e C1F38F01 		ubfx	r1, r1, #2, #16
 1152              	.LVL277:
 1153              	.LBB32:
1475:.\DSP\Source\TransformFunctions/arm_cfft_radix4_q15.c **** 
1476:.\DSP\Source\TransformFunctions/arm_cfft_radix4_q15.c ****     /* R0 = (ya + yc), R1 = (xa + xc) */
1477:.\DSP\Source\TransformFunctions/arm_cfft_radix4_q15.c ****     R0 = __SSAT(T0 + S0, 16U);
 1154              		.loc 1 1477 0 discriminator 1
 1155 0052 9210     		asrs	r2, r2, #2
 1156              	.LVL278:
 1157 0054 8010     		asrs	r0, r0, #2
 1158              	.LVL279:
 1159 0056 1518     		adds	r5, r2, r0
 1160              	.LVL280:
 1161              	@ 1477 ".\DSP\Source\TransformFunctions\arm_cfft_radix4_q15.c" 1
 1162 0058 05F30F05 		ssat r5, #16, r5
 1163              	@ 0 "" 2
 1164              	.LVL281:
 1165              		.thumb
 1166              	.LBE32:
 1167 005c 1FFA85FB 		uxth	fp, r5
 1168              	.LVL282:
 1169              	.LBB33:
1478:.\DSP\Source\TransformFunctions/arm_cfft_radix4_q15.c ****     R1 = __SSAT(T1 + S1, 16U);
 1170              		.loc 1 1478 0 discriminator 1
 1171 0060 1BB2     		sxth	r3, r3
 1172 0062 09B2     		sxth	r1, r1
 1173 0064 5D18     		adds	r5, r3, r1
 1174              	.LVL283:
 1175              	@ 1478 ".\DSP\Source\TransformFunctions\arm_cfft_radix4_q15.c" 1
 1176 0066 05F30F05 		ssat r5, #16, r5
 1177              	@ 0 "" 2
 1178              	.LVL284:
 1179              		.thumb
 1180              	.LBE33:
 1181 006a ADB2     		uxth	r5, r5
 1182              	.LVL285:
 1183 006c 0295     		str	r5, [sp, #8]
 1184              	.LVL286:
 1185              	.LBB34:
1479:.\DSP\Source\TransformFunctions/arm_cfft_radix4_q15.c ****     /* S0 = (ya - yc), S1 = (xa - xc) */
1480:.\DSP\Source\TransformFunctions/arm_cfft_radix4_q15.c ****     S0 = __SSAT(T0 - S0, 16U);
ARM GAS  C:\Users\IVYLIU~1\AppData\Local\Temp\cc4rI5mx.s 			page 48


 1186              		.loc 1 1480 0 discriminator 1
 1187 006e 121A     		subs	r2, r2, r0
 1188              	.LVL287:
 1189              	@ 1480 ".\DSP\Source\TransformFunctions\arm_cfft_radix4_q15.c" 1
 1190 0070 02F30F02 		ssat r2, #16, r2
 1191              	@ 0 "" 2
 1192              	.LVL288:
 1193              		.thumb
 1194              	.LBE34:
 1195 0074 92B2     		uxth	r2, r2
 1196              	.LVL289:
 1197 0076 0392     		str	r2, [sp, #12]
 1198              	.LVL290:
 1199              	.LBB35:
1481:.\DSP\Source\TransformFunctions/arm_cfft_radix4_q15.c ****     S1 = __SSAT(T1 - S1, 16U);
 1200              		.loc 1 1481 0 discriminator 1
 1201 0078 5B1A     		subs	r3, r3, r1
 1202              	.LVL291:
 1203              	@ 1481 ".\DSP\Source\TransformFunctions\arm_cfft_radix4_q15.c" 1
 1204 007a 03F30F03 		ssat r3, #16, r3
 1205              	@ 0 "" 2
 1206              	.LVL292:
 1207              		.thumb
 1208              	.LBE35:
 1209 007e 98B2     		uxth	r0, r3
 1210              	.LVL293:
 1211 0080 0490     		str	r0, [sp, #16]
 1212              	.LVL294:
1482:.\DSP\Source\TransformFunctions/arm_cfft_radix4_q15.c **** 
1483:.\DSP\Source\TransformFunctions/arm_cfft_radix4_q15.c ****     /*  Reading i0+fftLen/4 , i0+3fftLen/4 inputs */
1484:.\DSP\Source\TransformFunctions/arm_cfft_radix4_q15.c ****     /* input is down scale by 4 to avoid overflow */
1485:.\DSP\Source\TransformFunctions/arm_cfft_radix4_q15.c ****     /* Read yb (real), xb(imag) input */
1486:.\DSP\Source\TransformFunctions/arm_cfft_radix4_q15.c ****     T0 = pSrc16[i1 * 2U] >> 2U;
 1213              		.loc 1 1486 0 discriminator 1
 1214 0082 BE00     		lsls	r6, r7, #2
 1215 0084 3AF92710 		ldrsh	r1, [r10, r7, lsl #2]
 1216              	.LVL295:
1487:.\DSP\Source\TransformFunctions/arm_cfft_radix4_q15.c ****     T1 = pSrc16[(i1 * 2U) + 1U] >> 2U;
 1217              		.loc 1 1487 0 discriminator 1
 1218 0088 0236     		adds	r6, r6, #2
 1219 008a 3AF90600 		ldrsh	r0, [r10, r6]
 1220 008e C0F38F00 		ubfx	r0, r0, #2, #16
 1221              	.LVL296:
1488:.\DSP\Source\TransformFunctions/arm_cfft_radix4_q15.c ****     /* Read yd (real), xd(imag) input */
1489:.\DSP\Source\TransformFunctions/arm_cfft_radix4_q15.c ****     /* input is down scale by 4 to avoid overflow */
1490:.\DSP\Source\TransformFunctions/arm_cfft_radix4_q15.c ****     U0 = pSrc16[i3 * 2U] >> 2U;
 1222              		.loc 1 1490 0 discriminator 1
 1223 0092 4FEA8E05 		lsl	r5, lr, #2
 1224 0096 3AF92E20 		ldrsh	r2, [r10, lr, lsl #2]
 1225              	.LVL297:
1491:.\DSP\Source\TransformFunctions/arm_cfft_radix4_q15.c ****     U1 = pSrc16[(i3 * 2U) + 1U] >> 2U;
 1226              		.loc 1 1491 0 discriminator 1
 1227 009a 0235     		adds	r5, r5, #2
 1228 009c 3AF90530 		ldrsh	r3, [r10, r5]
 1229              	.LVL298:
 1230 00a0 C3F38F03 		ubfx	r3, r3, #2, #16
 1231              	.LVL299:
ARM GAS  C:\Users\IVYLIU~1\AppData\Local\Temp\cc4rI5mx.s 			page 49


 1232              	.LBB36:
1492:.\DSP\Source\TransformFunctions/arm_cfft_radix4_q15.c **** 
1493:.\DSP\Source\TransformFunctions/arm_cfft_radix4_q15.c ****     /* T0 = (yb + yd), T1 = (xb + xd) */
1494:.\DSP\Source\TransformFunctions/arm_cfft_radix4_q15.c ****     T0 = __SSAT(T0 + U0, 16U);
 1233              		.loc 1 1494 0 discriminator 1
 1234 00a4 9210     		asrs	r2, r2, #2
 1235              	.LVL300:
 1236 00a6 02EBA101 		add	r1, r2, r1, asr #2
 1237              	.LVL301:
 1238              	@ 1494 ".\DSP\Source\TransformFunctions\arm_cfft_radix4_q15.c" 1
 1239 00aa 01F30F01 		ssat r1, #16, r1
 1240              	@ 0 "" 2
 1241              	.LVL302:
 1242              		.thumb
 1243              	.LBE36:
 1244 00ae 89B2     		uxth	r1, r1
 1245              	.LVL303:
 1246              	.LBB37:
1495:.\DSP\Source\TransformFunctions/arm_cfft_radix4_q15.c ****     T1 = __SSAT(T1 + U1, 16U);
 1247              		.loc 1 1495 0 discriminator 1
 1248 00b0 00B2     		sxth	r0, r0
 1249 00b2 1BB2     		sxth	r3, r3
 1250 00b4 0344     		add	r3, r3, r0
 1251              	.LVL304:
 1252              	@ 1495 ".\DSP\Source\TransformFunctions\arm_cfft_radix4_q15.c" 1
 1253 00b6 03F30F02 		ssat r2, #16, r3
 1254              	@ 0 "" 2
 1255              	.LVL305:
 1256              		.thumb
 1257              	.LBE37:
1496:.\DSP\Source\TransformFunctions/arm_cfft_radix4_q15.c **** 
1497:.\DSP\Source\TransformFunctions/arm_cfft_radix4_q15.c ****     /*  writing the butterfly processed i0 sample */
1498:.\DSP\Source\TransformFunctions/arm_cfft_radix4_q15.c ****     /* xa' = xa + xb + xc + xd */
1499:.\DSP\Source\TransformFunctions/arm_cfft_radix4_q15.c ****     /* ya' = ya + yb + yc + yd */
1500:.\DSP\Source\TransformFunctions/arm_cfft_radix4_q15.c ****     pSrc16[i0 * 2U] = (R0 >> 1U) + (T0 >> 1U);
 1258              		.loc 1 1500 0 discriminator 1
 1259 00ba 0FFA8BF3 		sxth	r3, fp
 1260              	.LVL306:
 1261 00be 09B2     		sxth	r1, r1
 1262 00c0 0891     		str	r1, [sp, #32]
 1263 00c2 4810     		asrs	r0, r1, #1
 1264              	.LVL307:
 1265 00c4 00EB6300 		add	r0, r0, r3, asr #1
 1266 00c8 2AF82800 		strh	r0, [r10, r8, lsl #2]	@ movhi
 1267              	.LVL308:
1501:.\DSP\Source\TransformFunctions/arm_cfft_radix4_q15.c ****     pSrc16[(i0 * 2U) + 1U] = (R1 >> 1U) + (T1 >> 1U);
 1268              		.loc 1 1501 0 discriminator 1
 1269 00cc BDF90800 		ldrsh	r0, [sp, #8]
 1270 00d0 12B2     		sxth	r2, r2
 1271              	.LVL309:
 1272 00d2 4FEA620B 		asr	fp, r2, #1
 1273              	.LVL310:
 1274 00d6 0BEB600B 		add	fp, fp, r0, asr #1
 1275 00da 0699     		ldr	r1, [sp, #24]
 1276              	.LVL311:
 1277 00dc 2AF801B0 		strh	fp, [r10, r1]	@ movhi
 1278              	.LBB38:
ARM GAS  C:\Users\IVYLIU~1\AppData\Local\Temp\cc4rI5mx.s 			page 50


1502:.\DSP\Source\TransformFunctions/arm_cfft_radix4_q15.c **** 
1503:.\DSP\Source\TransformFunctions/arm_cfft_radix4_q15.c ****     /* R0 = (ya + yc) - (yb + yd), R1 = (xa + xc)- (xb + xd) */
1504:.\DSP\Source\TransformFunctions/arm_cfft_radix4_q15.c ****     R0 = __SSAT(R0 - T0, 16U);
 1279              		.loc 1 1504 0 discriminator 1
 1280 00e0 0899     		ldr	r1, [sp, #32]
 1281 00e2 591A     		subs	r1, r3, r1
 1282              	.LVL312:
 1283              	@ 1504 ".\DSP\Source\TransformFunctions\arm_cfft_radix4_q15.c" 1
 1284 00e4 01F30F01 		ssat r1, #16, r1
 1285              	@ 0 "" 2
 1286              	.LVL313:
 1287              		.thumb
 1288              	.LBE38:
 1289 00e8 89B2     		uxth	r1, r1
 1290              	.LVL314:
 1291              	.LBB39:
1505:.\DSP\Source\TransformFunctions/arm_cfft_radix4_q15.c ****     R1 = __SSAT(R1 - T1, 16U);
 1292              		.loc 1 1505 0 discriminator 1
 1293 00ea 831A     		subs	r3, r0, r2
 1294              	.LVL315:
 1295              	@ 1505 ".\DSP\Source\TransformFunctions\arm_cfft_radix4_q15.c" 1
 1296 00ec 03F30F03 		ssat r3, #16, r3
 1297              	@ 0 "" 2
 1298              	.LVL316:
 1299              		.thumb
 1300              	.LBE39:
1506:.\DSP\Source\TransformFunctions/arm_cfft_radix4_q15.c ****     /* co2 & si2 are read from Coefficient pointer */
1507:.\DSP\Source\TransformFunctions/arm_cfft_radix4_q15.c ****     Co2 = pCoef16[2U * ic * 2U];
1508:.\DSP\Source\TransformFunctions/arm_cfft_radix4_q15.c ****     Si2 = pCoef16[(2U * ic * 2U) + 1U];
 1301              		.loc 1 1508 0 discriminator 1
 1302 00f0 04EBCC0B 		add	fp, r4, ip, lsl #3
 1303              	.LVL317:
1509:.\DSP\Source\TransformFunctions/arm_cfft_radix4_q15.c ****     /* xc' = (xa-xb+xc-xd)* co2 - (ya-yb+yc-yd)* (si2) */
1510:.\DSP\Source\TransformFunctions/arm_cfft_radix4_q15.c ****     out1 = (q15_t) ((Co2 * R0 - Si2 * R1) >> 16U);
 1304              		.loc 1 1510 0 discriminator 1
 1305 00f4 34F93C00 		ldrsh	r0, [r4, ip, lsl #3]
 1306              	.LVL318:
 1307 00f8 0AB2     		sxth	r2, r1
 1308              	.LVL319:
 1309 00fa 02FB00F1 		mul	r1, r2, r0
 1310              	.LVL320:
 1311 00fe BBF902B0 		ldrsh	fp, [fp, #2]
 1312              	.LVL321:
 1313 0102 1BB2     		sxth	r3, r3
 1314              	.LVL322:
 1315 0104 03FB1B11 		mls	r1, r3, fp, r1
 1316 0108 090C     		lsrs	r1, r1, #16
 1317              	.LVL323:
1511:.\DSP\Source\TransformFunctions/arm_cfft_radix4_q15.c ****     /* yc' = (ya-yb+yc-yd)* co2 + (xa-xb+xc-xd)* (si2) */
1512:.\DSP\Source\TransformFunctions/arm_cfft_radix4_q15.c ****     out2 = (q15_t) ((Si2 * R0 + Co2 * R1) >> 16U);
 1318              		.loc 1 1512 0 discriminator 1
 1319 010a 03FB00F3 		mul	r3, r3, r0
 1320              	.LVL324:
 1321 010e 0BFB0233 		mla	r3, fp, r2, r3
 1322 0112 1B0C     		lsrs	r3, r3, #16
 1323              	.LVL325:
1513:.\DSP\Source\TransformFunctions/arm_cfft_radix4_q15.c **** 
ARM GAS  C:\Users\IVYLIU~1\AppData\Local\Temp\cc4rI5mx.s 			page 51


1514:.\DSP\Source\TransformFunctions/arm_cfft_radix4_q15.c ****     /*  Reading i0+fftLen/4 */
1515:.\DSP\Source\TransformFunctions/arm_cfft_radix4_q15.c ****     /* input is down scale by 4 to avoid overflow */
1516:.\DSP\Source\TransformFunctions/arm_cfft_radix4_q15.c ****     /* T0 = yb, T1 = xb */
1517:.\DSP\Source\TransformFunctions/arm_cfft_radix4_q15.c ****     T0 = pSrc16[i1 * 2U] >> 2U;
 1324              		.loc 1 1517 0 discriminator 1
 1325 0114 3AF92700 		ldrsh	r0, [r10, r7, lsl #2]
 1326              	.LVL326:
1518:.\DSP\Source\TransformFunctions/arm_cfft_radix4_q15.c ****     T1 = pSrc16[(i1 * 2U) + 1U] >> 2U;
 1327              		.loc 1 1518 0 discriminator 1
 1328 0118 3AF90620 		ldrsh	r2, [r10, r6]
 1329              	.LVL327:
 1330 011c C2F38F02 		ubfx	r2, r2, #2, #16
 1331              	.LVL328:
1519:.\DSP\Source\TransformFunctions/arm_cfft_radix4_q15.c **** 
1520:.\DSP\Source\TransformFunctions/arm_cfft_radix4_q15.c ****     /* writing the butterfly processed i0 + fftLen/4 sample */
1521:.\DSP\Source\TransformFunctions/arm_cfft_radix4_q15.c ****     /* writing output(xc', yc') in little endian format */
1522:.\DSP\Source\TransformFunctions/arm_cfft_radix4_q15.c ****     pSrc16[i1 * 2U] = out1;
 1332              		.loc 1 1522 0 discriminator 1
 1333 0120 2AF82710 		strh	r1, [r10, r7, lsl #2]	@ movhi
 1334              	.LVL329:
1523:.\DSP\Source\TransformFunctions/arm_cfft_radix4_q15.c ****     pSrc16[(i1 * 2U) + 1U] = out2;
 1335              		.loc 1 1523 0 discriminator 1
 1336 0124 2AF80630 		strh	r3, [r10, r6]	@ movhi
1524:.\DSP\Source\TransformFunctions/arm_cfft_radix4_q15.c **** 
1525:.\DSP\Source\TransformFunctions/arm_cfft_radix4_q15.c ****     /*  Butterfly calculations */
1526:.\DSP\Source\TransformFunctions/arm_cfft_radix4_q15.c ****     /* input is down scale by 4 to avoid overflow */
1527:.\DSP\Source\TransformFunctions/arm_cfft_radix4_q15.c ****     /* U0 = yd, U1 = xd) */
1528:.\DSP\Source\TransformFunctions/arm_cfft_radix4_q15.c ****     U0 = pSrc16[i3 * 2U] >> 2U;
 1337              		.loc 1 1528 0 discriminator 1
 1338 0128 3AF92E30 		ldrsh	r3, [r10, lr, lsl #2]
 1339              	.LVL330:
1529:.\DSP\Source\TransformFunctions/arm_cfft_radix4_q15.c ****     U1 = pSrc16[(i3 * 2U) + 1U] >> 2U;
 1340              		.loc 1 1529 0 discriminator 1
 1341 012c 3AF90510 		ldrsh	r1, [r10, r5]
 1342              	.LVL331:
 1343 0130 C1F38F01 		ubfx	r1, r1, #2, #16
 1344              	.LVL332:
 1345              	.LBB40:
1530:.\DSP\Source\TransformFunctions/arm_cfft_radix4_q15.c **** 
1531:.\DSP\Source\TransformFunctions/arm_cfft_radix4_q15.c ****     /* T0 = yb-yd, T1 = xb-xd) */
1532:.\DSP\Source\TransformFunctions/arm_cfft_radix4_q15.c ****     T0 = __SSAT(T0 - U0, 16U);
 1346              		.loc 1 1532 0 discriminator 1
 1347 0134 9B10     		asrs	r3, r3, #2
 1348              	.LVL333:
 1349 0136 C3EBA003 		rsb	r3, r3, r0, asr #2
 1350              	.LVL334:
 1351              	@ 1532 ".\DSP\Source\TransformFunctions\arm_cfft_radix4_q15.c" 1
 1352 013a 03F30F03 		ssat r3, #16, r3
 1353              	@ 0 "" 2
 1354              	.LVL335:
 1355              		.thumb
 1356              	.LBE40:
 1357 013e 9BB2     		uxth	r3, r3
 1358              	.LVL336:
 1359              	.LBB41:
1533:.\DSP\Source\TransformFunctions/arm_cfft_radix4_q15.c ****     T1 = __SSAT(T1 - U1, 16U);
 1360              		.loc 1 1533 0 discriminator 1
ARM GAS  C:\Users\IVYLIU~1\AppData\Local\Temp\cc4rI5mx.s 			page 52


 1361 0140 12B2     		sxth	r2, r2
 1362 0142 09B2     		sxth	r1, r1
 1363 0144 521A     		subs	r2, r2, r1
 1364              	.LVL337:
 1365              	@ 1533 ".\DSP\Source\TransformFunctions\arm_cfft_radix4_q15.c" 1
 1366 0146 02F30F02 		ssat r2, #16, r2
 1367              	@ 0 "" 2
 1368              	.LVL338:
 1369              		.thumb
 1370              	.LBE41:
 1371              	.LBB42:
1534:.\DSP\Source\TransformFunctions/arm_cfft_radix4_q15.c ****     /* R0 = (ya-yc) - (xb- xd) , R1 = (xa-xc) + (yb-yd) */
1535:.\DSP\Source\TransformFunctions/arm_cfft_radix4_q15.c ****     R0 = (q15_t) __SSAT((q31_t) (S0 + T1), 16);
 1372              		.loc 1 1535 0 discriminator 1
 1373 014a BDF90C70 		ldrsh	r7, [sp, #12]
 1374              	.LVL339:
 1375 014e 12B2     		sxth	r2, r2
 1376              	.LVL340:
 1377 0150 B918     		adds	r1, r7, r2
 1378              	.LVL341:
 1379              	@ 1535 ".\DSP\Source\TransformFunctions\arm_cfft_radix4_q15.c" 1
 1380 0152 01F30F01 		ssat r1, #16, r1
 1381              	@ 0 "" 2
 1382              	.LVL342:
 1383              		.thumb
 1384              	.LBE42:
 1385 0156 89B2     		uxth	r1, r1
 1386              	.LVL343:
 1387              	.LBB43:
1536:.\DSP\Source\TransformFunctions/arm_cfft_radix4_q15.c ****     R1 = (q15_t) __SSAT((q31_t) (S1 - T0), 16);
 1388              		.loc 1 1536 0 discriminator 1
 1389 0158 BDF91060 		ldrsh	r6, [sp, #16]
 1390              	.LVL344:
 1391 015c 1BB2     		sxth	r3, r3
 1392 015e F01A     		subs	r0, r6, r3
 1393              	.LVL345:
 1394              	@ 1536 ".\DSP\Source\TransformFunctions\arm_cfft_radix4_q15.c" 1
 1395 0160 00F30F00 		ssat r0, #16, r0
 1396              	@ 0 "" 2
 1397              	.LVL346:
 1398              		.thumb
 1399              	.LBE43:
 1400 0164 80B2     		uxth	r0, r0
 1401              	.LVL347:
 1402              	.LBB44:
1537:.\DSP\Source\TransformFunctions/arm_cfft_radix4_q15.c ****     /* S = (ya-yc) + (xb- xd), S1 = (xa-xc) - (yb-yd) */
1538:.\DSP\Source\TransformFunctions/arm_cfft_radix4_q15.c ****     S0 = (q15_t) __SSAT((q31_t) (S0 - T1), 16);
 1403              		.loc 1 1538 0 discriminator 1
 1404 0166 BA1A     		subs	r2, r7, r2
 1405              	.LVL348:
 1406              	@ 1538 ".\DSP\Source\TransformFunctions\arm_cfft_radix4_q15.c" 1
 1407 0168 02F30F02 		ssat r2, #16, r2
 1408              	@ 0 "" 2
 1409              	.LVL349:
 1410              		.thumb
 1411              	.LBE44:
 1412 016c 92B2     		uxth	r2, r2
ARM GAS  C:\Users\IVYLIU~1\AppData\Local\Temp\cc4rI5mx.s 			page 53


 1413              	.LVL350:
 1414              	.LBB45:
1539:.\DSP\Source\TransformFunctions/arm_cfft_radix4_q15.c ****     S1 = (q15_t) __SSAT((q31_t) (S1 + T0), 16);
 1415              		.loc 1 1539 0 discriminator 1
 1416 016e 3344     		add	r3, r3, r6
 1417              	.LVL351:
 1418              	@ 1539 ".\DSP\Source\TransformFunctions\arm_cfft_radix4_q15.c" 1
 1419 0170 03F30F03 		ssat r3, #16, r3
 1420              	@ 0 "" 2
 1421              	.LVL352:
 1422              		.thumb
 1423              	.LBE45:
1540:.\DSP\Source\TransformFunctions/arm_cfft_radix4_q15.c **** 
1541:.\DSP\Source\TransformFunctions/arm_cfft_radix4_q15.c ****     /* co1 & si1 are read from Coefficient pointer */
1542:.\DSP\Source\TransformFunctions/arm_cfft_radix4_q15.c ****     Co1 = pCoef16[ic * 2U];
1543:.\DSP\Source\TransformFunctions/arm_cfft_radix4_q15.c ****     Si1 = pCoef16[(ic * 2U) + 1U];
 1424              		.loc 1 1543 0 discriminator 1
 1425 0174 04EB8C07 		add	r7, r4, ip, lsl #2
 1426              	.LVL353:
1544:.\DSP\Source\TransformFunctions/arm_cfft_radix4_q15.c ****     /*  Butterfly process for the i0+fftLen/2 sample */
1545:.\DSP\Source\TransformFunctions/arm_cfft_radix4_q15.c ****     /* xb' = (xa-yb-xc+yd)* co1 - (ya+xb-yc-xd)* (si1) */
1546:.\DSP\Source\TransformFunctions/arm_cfft_radix4_q15.c ****     out1 = (q15_t) ((Co1 * S0 - Si1 * S1) >> 16U);
 1427              		.loc 1 1546 0 discriminator 1
 1428 0178 34F92CB0 		ldrsh	fp, [r4, ip, lsl #2]
 1429              	.LVL354:
 1430 017c 12B2     		sxth	r2, r2
 1431 017e 02FB0BF6 		mul	r6, r2, fp
 1432 0182 B7F90270 		ldrsh	r7, [r7, #2]
 1433              	.LVL355:
 1434 0186 1BB2     		sxth	r3, r3
 1435              	.LVL356:
 1436 0188 03FB1766 		mls	r6, r3, r7, r6
 1437 018c 360C     		lsrs	r6, r6, #16
 1438              	.LVL357:
1547:.\DSP\Source\TransformFunctions/arm_cfft_radix4_q15.c ****     /* yb' = (ya+xb-yc-xd)* co1 + (xa-yb-xc+yd)* (si1) */
1548:.\DSP\Source\TransformFunctions/arm_cfft_radix4_q15.c ****     out2 = (q15_t) ((Si1 * S0 + Co1 * S1) >> 16U);
 1439              		.loc 1 1548 0 discriminator 1
 1440 018e 03FB0BF3 		mul	r3, r3, fp
 1441              	.LVL358:
 1442 0192 07FB0233 		mla	r3, r7, r2, r3
 1443 0196 1B0C     		lsrs	r3, r3, #16
 1444              	.LVL359:
1549:.\DSP\Source\TransformFunctions/arm_cfft_radix4_q15.c ****     /* writing output(xb', yb') in little endian format */
1550:.\DSP\Source\TransformFunctions/arm_cfft_radix4_q15.c ****     pSrc16[i2 * 2U] = out1;
 1445              		.loc 1 1550 0 discriminator 1
 1446 0198 2AF82960 		strh	r6, [r10, r9, lsl #2]	@ movhi
 1447              	.LVL360:
1551:.\DSP\Source\TransformFunctions/arm_cfft_radix4_q15.c ****     pSrc16[(i2 * 2U) + 1U] = out2;
 1448              		.loc 1 1551 0 discriminator 1
 1449 019c 079E     		ldr	r6, [sp, #28]
 1450              	.LVL361:
 1451 019e 2AF80630 		strh	r3, [r10, r6]	@ movhi
 1452              	.LVL362:
1552:.\DSP\Source\TransformFunctions/arm_cfft_radix4_q15.c **** 
1553:.\DSP\Source\TransformFunctions/arm_cfft_radix4_q15.c ****     /* Co3 & si3 are read from Coefficient pointer */
1554:.\DSP\Source\TransformFunctions/arm_cfft_radix4_q15.c ****     Co3 = pCoef16[3U * ic * 2U];
 1453              		.loc 1 1554 0 discriminator 1
ARM GAS  C:\Users\IVYLIU~1\AppData\Local\Temp\cc4rI5mx.s 			page 54


 1454 01a2 0CEB4C03 		add	r3, ip, ip, lsl #1
 1455              	.LVL363:
 1456 01a6 9B00     		lsls	r3, r3, #2
 1457              	.LVL364:
1555:.\DSP\Source\TransformFunctions/arm_cfft_radix4_q15.c ****     Si3 = pCoef16[(3U * ic * 2U) + 1U];
 1458              		.loc 1 1555 0 discriminator 1
 1459 01a8 9A1C     		adds	r2, r3, #2
 1460              	.LVL365:
1556:.\DSP\Source\TransformFunctions/arm_cfft_radix4_q15.c ****     /*  Butterfly process for the i0+3fftLen/4 sample */
1557:.\DSP\Source\TransformFunctions/arm_cfft_radix4_q15.c ****     /* xd' = (xa+yb-xc-yd)* Co3 - (ya-xb-yc+xd)* (si3) */
1558:.\DSP\Source\TransformFunctions/arm_cfft_radix4_q15.c ****     out1 = (q15_t) ((Co3 * R0 - Si3 * R1) >> 16U);
 1461              		.loc 1 1558 0 discriminator 1
 1462 01aa E35E     		ldrsh	r3, [r4, r3]
 1463              	.LVL366:
 1464 01ac 09B2     		sxth	r1, r1
 1465 01ae 01FB03F6 		mul	r6, r1, r3
 1466 01b2 A25E     		ldrsh	r2, [r4, r2]
 1467              	.LVL367:
 1468 01b4 00B2     		sxth	r0, r0
 1469 01b6 00FB1266 		mls	r6, r0, r2, r6
 1470 01ba 360C     		lsrs	r6, r6, #16
 1471              	.LVL368:
1559:.\DSP\Source\TransformFunctions/arm_cfft_radix4_q15.c ****     /* yd' = (ya-xb-yc+xd)* Co3 + (xa+yb-xc-yd)* (si3) */
1560:.\DSP\Source\TransformFunctions/arm_cfft_radix4_q15.c ****     out2 = (q15_t) ((Si3 * R0 + Co3 * R1) >> 16U);
 1472              		.loc 1 1560 0 discriminator 1
 1473 01bc 00FB03F3 		mul	r3, r0, r3
 1474 01c0 02FB0131 		mla	r1, r2, r1, r3
 1475              	.LVL369:
 1476 01c4 0B0C     		lsrs	r3, r1, #16
 1477              	.LVL370:
1561:.\DSP\Source\TransformFunctions/arm_cfft_radix4_q15.c ****     /* writing output(xd', yd') in little endian format */
1562:.\DSP\Source\TransformFunctions/arm_cfft_radix4_q15.c ****     pSrc16[i3 * 2U] = out1;
 1478              		.loc 1 1562 0 discriminator 1
 1479 01c6 2AF82E60 		strh	r6, [r10, lr, lsl #2]	@ movhi
 1480              	.LVL371:
1563:.\DSP\Source\TransformFunctions/arm_cfft_radix4_q15.c ****     pSrc16[(i3 * 2U) + 1U] = out2;
 1481              		.loc 1 1563 0 discriminator 1
 1482 01ca 2AF80530 		strh	r3, [r10, r5]	@ movhi
1564:.\DSP\Source\TransformFunctions/arm_cfft_radix4_q15.c **** 
1565:.\DSP\Source\TransformFunctions/arm_cfft_radix4_q15.c ****     /*  Twiddle coefficients index modifier */
1566:.\DSP\Source\TransformFunctions/arm_cfft_radix4_q15.c ****     ic = ic + twidCoefModifier;
 1483              		.loc 1 1566 0 discriminator 1
 1484 01ce 099B     		ldr	r3, [sp, #36]
 1485              	.LVL372:
 1486 01d0 9C44     		add	ip, ip, r3
 1487              	.LVL373:
1567:.\DSP\Source\TransformFunctions/arm_cfft_radix4_q15.c **** 
1568:.\DSP\Source\TransformFunctions/arm_cfft_radix4_q15.c ****     /*  Updating input index */
1569:.\DSP\Source\TransformFunctions/arm_cfft_radix4_q15.c ****     i0 = i0 + 1U;
 1488              		.loc 1 1569 0 discriminator 1
 1489 01d2 08F10108 		add	r8, r8, #1
 1490              	.LVL374:
1570:.\DSP\Source\TransformFunctions/arm_cfft_radix4_q15.c **** 
1571:.\DSP\Source\TransformFunctions/arm_cfft_radix4_q15.c ****   } while (--j);
 1491              		.loc 1 1571 0 discriminator 1
 1492 01d6 019B     		ldr	r3, [sp, #4]
 1493 01d8 013B     		subs	r3, r3, #1
ARM GAS  C:\Users\IVYLIU~1\AppData\Local\Temp\cc4rI5mx.s 			page 55


 1494              	.LVL375:
 1495 01da 0193     		str	r3, [sp, #4]
 1496 01dc 7FF41EAF 		bne	.L13
1572:.\DSP\Source\TransformFunctions/arm_cfft_radix4_q15.c **** 
1573:.\DSP\Source\TransformFunctions/arm_cfft_radix4_q15.c ****   /*  End of first stage process */
1574:.\DSP\Source\TransformFunctions/arm_cfft_radix4_q15.c **** 
1575:.\DSP\Source\TransformFunctions/arm_cfft_radix4_q15.c ****   /* data is in 4.11(q11) format */
1576:.\DSP\Source\TransformFunctions/arm_cfft_radix4_q15.c **** 
1577:.\DSP\Source\TransformFunctions/arm_cfft_radix4_q15.c **** 
1578:.\DSP\Source\TransformFunctions/arm_cfft_radix4_q15.c ****   /*  Start of Middle stage process */
1579:.\DSP\Source\TransformFunctions/arm_cfft_radix4_q15.c **** 
1580:.\DSP\Source\TransformFunctions/arm_cfft_radix4_q15.c ****   /*  Twiddle coefficients index modifier */
1581:.\DSP\Source\TransformFunctions/arm_cfft_radix4_q15.c ****   twidCoefModifier <<= 2U;
 1497              		.loc 1 1581 0
 1498 01e0 099B     		ldr	r3, [sp, #36]
 1499              	.LVL376:
 1500 01e2 9B00     		lsls	r3, r3, #2
 1501 01e4 0F93     		str	r3, [sp, #60]
 1502              	.LVL377:
1582:.\DSP\Source\TransformFunctions/arm_cfft_radix4_q15.c **** 
1583:.\DSP\Source\TransformFunctions/arm_cfft_radix4_q15.c ****   /*  Calculation of Middle stage */
1584:.\DSP\Source\TransformFunctions/arm_cfft_radix4_q15.c ****   for (k = fftLen / 4U; k > 4U; k >>= 2U)
 1503              		.loc 1 1584 0
 1504 01e6 059B     		ldr	r3, [sp, #20]
 1505              	.LVL378:
 1506 01e8 9B08     		lsrs	r3, r3, #2
 1507 01ea 1193     		str	r3, [sp, #68]
 1508              	.LVL379:
 1509 01ec D446     		mov	ip, r10
 1510              	.LVL380:
 1511 01ee FCE0     		b	.L14
 1512              	.LVL381:
 1513              	.L19:
1585:.\DSP\Source\TransformFunctions/arm_cfft_radix4_q15.c ****   {
1586:.\DSP\Source\TransformFunctions/arm_cfft_radix4_q15.c ****     /*  Initializations for the middle stage */
1587:.\DSP\Source\TransformFunctions/arm_cfft_radix4_q15.c ****     n1 = n2;
1588:.\DSP\Source\TransformFunctions/arm_cfft_radix4_q15.c ****     n2 >>= 2U;
 1514              		.loc 1 1588 0
 1515 01f0 0C9B     		ldr	r3, [sp, #48]
 1516              	.LVL382:
 1517 01f2 9B08     		lsrs	r3, r3, #2
 1518 01f4 0493     		str	r3, [sp, #16]
 1519              	.LVL383:
1589:.\DSP\Source\TransformFunctions/arm_cfft_radix4_q15.c ****     ic = 0U;
1590:.\DSP\Source\TransformFunctions/arm_cfft_radix4_q15.c **** 
1591:.\DSP\Source\TransformFunctions/arm_cfft_radix4_q15.c ****     for (j = 0U; j <= (n2 - 1U); j++)
 1520              		.loc 1 1591 0
 1521 01f6 0023     		movs	r3, #0
 1522              	.LVL384:
 1523 01f8 0D93     		str	r3, [sp, #52]
1589:.\DSP\Source\TransformFunctions/arm_cfft_radix4_q15.c ****     ic = 0U;
 1524              		.loc 1 1589 0
 1525 01fa 0E93     		str	r3, [sp, #56]
 1526 01fc E046     		mov	r8, ip
 1527              		.loc 1 1591 0
 1528 01fe E5E0     		b	.L15
 1529              	.LVL385:
ARM GAS  C:\Users\IVYLIU~1\AppData\Local\Temp\cc4rI5mx.s 			page 56


 1530              	.L18:
1592:.\DSP\Source\TransformFunctions/arm_cfft_radix4_q15.c ****     {
1593:.\DSP\Source\TransformFunctions/arm_cfft_radix4_q15.c ****       /*  index calculation for the coefficients */
1594:.\DSP\Source\TransformFunctions/arm_cfft_radix4_q15.c ****       Co1 = pCoef16[ic * 2U];
 1531              		.loc 1 1594 0
 1532 0200 109A     		ldr	r2, [sp, #64]
 1533              	.LVL386:
 1534 0202 0E9C     		ldr	r4, [sp, #56]
 1535 0204 32F82430 		ldrh	r3, [r2, r4, lsl #2]
 1536 0208 0693     		str	r3, [sp, #24]
 1537              	.LVL387:
1595:.\DSP\Source\TransformFunctions/arm_cfft_radix4_q15.c ****       Si1 = pCoef16[(ic * 2U) + 1U];
 1538              		.loc 1 1595 0
 1539 020a 1146     		mov	r1, r2
 1540 020c 02EB8403 		add	r3, r2, r4, lsl #2
 1541 0210 5B88     		ldrh	r3, [r3, #2]
 1542 0212 0793     		str	r3, [sp, #28]
 1543              	.LVL388:
1596:.\DSP\Source\TransformFunctions/arm_cfft_radix4_q15.c ****       Co2 = pCoef16[2U * ic * 2U];
 1544              		.loc 1 1596 0
 1545 0214 32F83430 		ldrh	r3, [r2, r4, lsl #3]
 1546 0218 0893     		str	r3, [sp, #32]
 1547              	.LVL389:
1597:.\DSP\Source\TransformFunctions/arm_cfft_radix4_q15.c ****       Si2 = pCoef16[2U * ic * 2U + 1U];
 1548              		.loc 1 1597 0
 1549 021a 01EBC403 		add	r3, r1, r4, lsl #3
 1550 021e 5B88     		ldrh	r3, [r3, #2]
 1551 0220 0993     		str	r3, [sp, #36]
 1552              	.LVL390:
1598:.\DSP\Source\TransformFunctions/arm_cfft_radix4_q15.c ****       Co3 = pCoef16[3U * ic * 2U];
 1553              		.loc 1 1598 0
 1554 0222 04EB4403 		add	r3, r4, r4, lsl #1
 1555 0226 9B00     		lsls	r3, r3, #2
 1556 0228 CA5A     		ldrh	r2, [r1, r3]
 1557 022a 0A92     		str	r2, [sp, #40]
 1558              	.LVL391:
1599:.\DSP\Source\TransformFunctions/arm_cfft_radix4_q15.c ****       Si3 = pCoef16[(3U * ic * 2U) + 1U];
 1559              		.loc 1 1599 0
 1560 022c 0233     		adds	r3, r3, #2
 1561 022e CB5A     		ldrh	r3, [r1, r3]
 1562 0230 0B93     		str	r3, [sp, #44]
 1563              	.LVL392:
1600:.\DSP\Source\TransformFunctions/arm_cfft_radix4_q15.c **** 
1601:.\DSP\Source\TransformFunctions/arm_cfft_radix4_q15.c ****       /*  Twiddle coefficients index modifier */
1602:.\DSP\Source\TransformFunctions/arm_cfft_radix4_q15.c ****       ic = ic + twidCoefModifier;
 1564              		.loc 1 1602 0
 1565 0232 0F9B     		ldr	r3, [sp, #60]
 1566 0234 E318     		adds	r3, r4, r3
 1567 0236 0E93     		str	r3, [sp, #56]
 1568              	.LVL393:
1603:.\DSP\Source\TransformFunctions/arm_cfft_radix4_q15.c **** 
1604:.\DSP\Source\TransformFunctions/arm_cfft_radix4_q15.c ****       /*  Butterfly implementation */
1605:.\DSP\Source\TransformFunctions/arm_cfft_radix4_q15.c ****       for (i0 = j; i0 < fftLen; i0 += n1)
 1569              		.loc 1 1605 0
 1570 0238 DDF83490 		ldr	r9, [sp, #52]
 1571 023c BFE0     		b	.L16
 1572              	.LVL394:
ARM GAS  C:\Users\IVYLIU~1\AppData\Local\Temp\cc4rI5mx.s 			page 57


 1573              	.L17:
1606:.\DSP\Source\TransformFunctions/arm_cfft_radix4_q15.c ****       {
1607:.\DSP\Source\TransformFunctions/arm_cfft_radix4_q15.c ****         /*  index calculation for the input as, */
1608:.\DSP\Source\TransformFunctions/arm_cfft_radix4_q15.c ****         /*  pSrc16[i0 + 0], pSrc16[i0 + fftLen/4], pSrc16[i0 + fftLen/2], pSrc16[i0 + 3fftLen/4] */
1609:.\DSP\Source\TransformFunctions/arm_cfft_radix4_q15.c ****         i1 = i0 + n2;
 1574              		.loc 1 1609 0 discriminator 3
 1575 023e 049A     		ldr	r2, [sp, #16]
 1576 0240 09EB0206 		add	r6, r9, r2
 1577              	.LVL395:
1610:.\DSP\Source\TransformFunctions/arm_cfft_radix4_q15.c ****         i2 = i1 + n2;
 1578              		.loc 1 1610 0 discriminator 3
 1579 0244 06EB020E 		add	lr, r6, r2
 1580              	.LVL396:
1611:.\DSP\Source\TransformFunctions/arm_cfft_radix4_q15.c ****         i3 = i2 + n2;
 1581              		.loc 1 1611 0 discriminator 3
 1582 0248 0EEB0207 		add	r7, lr, r2
 1583              	.LVL397:
1612:.\DSP\Source\TransformFunctions/arm_cfft_radix4_q15.c **** 
1613:.\DSP\Source\TransformFunctions/arm_cfft_radix4_q15.c ****         /*  Reading i0, i0+fftLen/2 inputs */
1614:.\DSP\Source\TransformFunctions/arm_cfft_radix4_q15.c ****         /* Read ya (real), xa(imag) input */
1615:.\DSP\Source\TransformFunctions/arm_cfft_radix4_q15.c ****         T0 = pSrc16[i0 * 2U];
 1584              		.loc 1 1615 0 discriminator 3
 1585 024c 4FEA890C 		lsl	ip, r9, #2
 1586              	.LVL398:
1616:.\DSP\Source\TransformFunctions/arm_cfft_radix4_q15.c ****         T1 = pSrc16[(i0 * 2U) + 1U];
 1587              		.loc 1 1616 0 discriminator 3
 1588 0250 0CF1020C 		add	ip, ip, #2
 1589 0254 38F80C30 		ldrh	r3, [r8, ip]
 1590              	.LVL399:
1617:.\DSP\Source\TransformFunctions/arm_cfft_radix4_q15.c **** 
1618:.\DSP\Source\TransformFunctions/arm_cfft_radix4_q15.c ****         /* Read yc (real), xc(imag) input */
1619:.\DSP\Source\TransformFunctions/arm_cfft_radix4_q15.c ****         S0 = pSrc16[i2 * 2U];
 1591              		.loc 1 1619 0 discriminator 3
 1592 0258 4FEA8E02 		lsl	r2, lr, #2
 1593              	.LVL400:
1620:.\DSP\Source\TransformFunctions/arm_cfft_radix4_q15.c ****         S1 = pSrc16[(i2 * 2U) + 1U];
 1594              		.loc 1 1620 0 discriminator 3
 1595 025c 0232     		adds	r2, r2, #2
 1596 025e 0392     		str	r2, [sp, #12]
 1597 0260 38F80240 		ldrh	r4, [r8, r2]
 1598              	.LVL401:
 1599              	.LBB46:
1621:.\DSP\Source\TransformFunctions/arm_cfft_radix4_q15.c **** 
1622:.\DSP\Source\TransformFunctions/arm_cfft_radix4_q15.c **** 
1623:.\DSP\Source\TransformFunctions/arm_cfft_radix4_q15.c ****         /* R0 = (ya + yc), R1 = (xa + xc) */
1624:.\DSP\Source\TransformFunctions/arm_cfft_radix4_q15.c ****         R0 = __SSAT(T0 + S0, 16U);
 1600              		.loc 1 1624 0 discriminator 3
 1601 0264 38F92910 		ldrsh	r1, [r8, r9, lsl #2]
 1602 0268 38F92E50 		ldrsh	r5, [r8, lr, lsl #2]
 1603 026c 4819     		adds	r0, r1, r5
 1604              	.LVL402:
 1605              	@ 1624 ".\DSP\Source\TransformFunctions\arm_cfft_radix4_q15.c" 1
 1606 026e 00F30F00 		ssat r0, #16, r0
 1607              	@ 0 "" 2
 1608              	.LVL403:
 1609              		.thumb
 1610              	.LBE46:
ARM GAS  C:\Users\IVYLIU~1\AppData\Local\Temp\cc4rI5mx.s 			page 58


 1611 0272 80B2     		uxth	r0, r0
 1612              	.LVL404:
 1613              	.LBB47:
1625:.\DSP\Source\TransformFunctions/arm_cfft_radix4_q15.c ****         R1 = __SSAT(T1 + S1, 16U);
 1614              		.loc 1 1625 0 discriminator 3
 1615 0274 1BB2     		sxth	r3, r3
 1616 0276 24B2     		sxth	r4, r4
 1617 0278 1A19     		adds	r2, r3, r4
 1618              	.LVL405:
 1619              	@ 1625 ".\DSP\Source\TransformFunctions\arm_cfft_radix4_q15.c" 1
 1620 027a 02F30F02 		ssat r2, #16, r2
 1621              	@ 0 "" 2
 1622              	.LVL406:
 1623              		.thumb
 1624              	.LBE47:
 1625 027e 92B2     		uxth	r2, r2
 1626              	.LVL407:
 1627              	.LBB48:
1626:.\DSP\Source\TransformFunctions/arm_cfft_radix4_q15.c ****         /* S0 = (ya - yc), S1 = (xa - xc) */
1627:.\DSP\Source\TransformFunctions/arm_cfft_radix4_q15.c ****         S0 = __SSAT(T0 - S0, 16U);
 1628              		.loc 1 1627 0 discriminator 3
 1629 0280 491B     		subs	r1, r1, r5
 1630              	.LVL408:
 1631              	@ 1627 ".\DSP\Source\TransformFunctions\arm_cfft_radix4_q15.c" 1
 1632 0282 01F30F01 		ssat r1, #16, r1
 1633              	@ 0 "" 2
 1634              	.LVL409:
 1635              		.thumb
 1636              	.LBE48:
 1637 0286 8DB2     		uxth	r5, r1
 1638              	.LVL410:
 1639 0288 0195     		str	r5, [sp, #4]
 1640              	.LVL411:
 1641              	.LBB49:
1628:.\DSP\Source\TransformFunctions/arm_cfft_radix4_q15.c ****         S1 = __SSAT(T1 - S1, 16U);
 1642              		.loc 1 1628 0 discriminator 3
 1643 028a 1B1B     		subs	r3, r3, r4
 1644              	.LVL412:
 1645              	@ 1628 ".\DSP\Source\TransformFunctions\arm_cfft_radix4_q15.c" 1
 1646 028c 03F30F03 		ssat r3, #16, r3
 1647              	@ 0 "" 2
 1648              	.LVL413:
 1649              		.thumb
 1650              	.LBE49:
 1651 0290 9BB2     		uxth	r3, r3
 1652              	.LVL414:
 1653 0292 0293     		str	r3, [sp, #8]
 1654              	.LVL415:
1629:.\DSP\Source\TransformFunctions/arm_cfft_radix4_q15.c **** 
1630:.\DSP\Source\TransformFunctions/arm_cfft_radix4_q15.c ****         /*  Reading i0+fftLen/4 , i0+3fftLen/4 inputs */
1631:.\DSP\Source\TransformFunctions/arm_cfft_radix4_q15.c ****         /* Read yb (real), xb(imag) input */
1632:.\DSP\Source\TransformFunctions/arm_cfft_radix4_q15.c ****         T0 = pSrc16[i1 * 2U];
 1655              		.loc 1 1632 0 discriminator 3
 1656 0294 B500     		lsls	r5, r6, #2
 1657              	.LVL416:
1633:.\DSP\Source\TransformFunctions/arm_cfft_radix4_q15.c ****         T1 = pSrc16[(i1 * 2U) + 1U];
 1658              		.loc 1 1633 0 discriminator 3
ARM GAS  C:\Users\IVYLIU~1\AppData\Local\Temp\cc4rI5mx.s 			page 59


 1659 0296 0235     		adds	r5, r5, #2
 1660 0298 38F805A0 		ldrh	r10, [r8, r5]
 1661              	.LVL417:
1634:.\DSP\Source\TransformFunctions/arm_cfft_radix4_q15.c **** 
1635:.\DSP\Source\TransformFunctions/arm_cfft_radix4_q15.c ****         /* Read yd (real), xd(imag) input */
1636:.\DSP\Source\TransformFunctions/arm_cfft_radix4_q15.c ****         U0 = pSrc16[i3 * 2U];
 1662              		.loc 1 1636 0 discriminator 3
 1663 029c BC00     		lsls	r4, r7, #2
 1664              	.LVL418:
1637:.\DSP\Source\TransformFunctions/arm_cfft_radix4_q15.c ****         U1 = pSrc16[(i3 * 2U) + 1U];
 1665              		.loc 1 1637 0 discriminator 3
 1666 029e 0234     		adds	r4, r4, #2
 1667 02a0 38F80410 		ldrh	r1, [r8, r4]
 1668              	.LVL419:
 1669              	.LBB50:
1638:.\DSP\Source\TransformFunctions/arm_cfft_radix4_q15.c **** 
1639:.\DSP\Source\TransformFunctions/arm_cfft_radix4_q15.c ****         /* T0 = (yb + yd), T1 = (xb + xd) */
1640:.\DSP\Source\TransformFunctions/arm_cfft_radix4_q15.c ****         T0 = __SSAT(T0 + U0, 16U);
 1670              		.loc 1 1640 0 discriminator 3
 1671 02a4 38F926B0 		ldrsh	fp, [r8, r6, lsl #2]
 1672 02a8 38F92730 		ldrsh	r3, [r8, r7, lsl #2]
 1673 02ac 5B44     		add	r3, r3, fp
 1674              	.LVL420:
 1675              	@ 1640 ".\DSP\Source\TransformFunctions\arm_cfft_radix4_q15.c" 1
 1676 02ae 03F30F03 		ssat r3, #16, r3
 1677              	@ 0 "" 2
 1678              	.LVL421:
 1679              		.thumb
 1680              	.LBE50:
 1681 02b2 9BB2     		uxth	r3, r3
 1682              	.LVL422:
 1683              	.LBB51:
1641:.\DSP\Source\TransformFunctions/arm_cfft_radix4_q15.c ****         T1 = __SSAT(T1 + U1, 16U);
 1684              		.loc 1 1641 0 discriminator 3
 1685 02b4 0FFA8AFA 		sxth	r10, r10
 1686 02b8 09B2     		sxth	r1, r1
 1687 02ba 5144     		add	r1, r1, r10
 1688              	.LVL423:
 1689              	@ 1641 ".\DSP\Source\TransformFunctions\arm_cfft_radix4_q15.c" 1
 1690 02bc 01F30F01 		ssat r1, #16, r1
 1691              	@ 0 "" 2
 1692              	.LVL424:
 1693              		.thumb
 1694              	.LBE51:
1642:.\DSP\Source\TransformFunctions/arm_cfft_radix4_q15.c **** 
1643:.\DSP\Source\TransformFunctions/arm_cfft_radix4_q15.c ****         /*  writing the butterfly processed i0 sample */
1644:.\DSP\Source\TransformFunctions/arm_cfft_radix4_q15.c ****         /* xa' = xa + xb + xc + xd */
1645:.\DSP\Source\TransformFunctions/arm_cfft_radix4_q15.c ****         /* ya' = ya + yb + yc + yd */
1646:.\DSP\Source\TransformFunctions/arm_cfft_radix4_q15.c ****         pSrc16[i0 * 2U] = ((R0 >> 1U) + (T0 >> 1U)) >> 1U;
 1695              		.loc 1 1646 0 discriminator 3
 1696 02c0 40F34E00 		sbfx	r0, r0, #1, #15
 1697              	.LVL425:
 1698 02c4 43F34E03 		sbfx	r3, r3, #1, #15
 1699              	.LVL426:
 1700 02c8 03EB000A 		add	r10, r3, r0
 1701              	.LVL427:
 1702 02cc 4FEA6A0A 		asr	r10, r10, #1
ARM GAS  C:\Users\IVYLIU~1\AppData\Local\Temp\cc4rI5mx.s 			page 60


 1703 02d0 28F829A0 		strh	r10, [r8, r9, lsl #2]	@ movhi
 1704              	.LVL428:
1647:.\DSP\Source\TransformFunctions/arm_cfft_radix4_q15.c ****         pSrc16[(i0 * 2U) + 1U] = ((R1 >> 1U) + (T1 >> 1U)) >> 1U;
 1705              		.loc 1 1647 0 discriminator 3
 1706 02d4 42F34E02 		sbfx	r2, r2, #1, #15
 1707              	.LVL429:
 1708 02d8 41F34E01 		sbfx	r1, r1, #1, #15
 1709              	.LVL430:
 1710 02dc 01EB020B 		add	fp, r1, r2
 1711 02e0 4FEA6B0B 		asr	fp, fp, #1
 1712 02e4 28F80CB0 		strh	fp, [r8, ip]	@ movhi
1648:.\DSP\Source\TransformFunctions/arm_cfft_radix4_q15.c **** 
1649:.\DSP\Source\TransformFunctions/arm_cfft_radix4_q15.c ****         /* R0 = (ya + yc) - (yb + yd), R1 = (xa + xc) - (xb + xd) */
1650:.\DSP\Source\TransformFunctions/arm_cfft_radix4_q15.c ****         R0 = (R0 >> 1U) - (T0 >> 1U);
 1713              		.loc 1 1650 0 discriminator 3
 1714 02e8 C01A     		subs	r0, r0, r3
 1715              	.LVL431:
1651:.\DSP\Source\TransformFunctions/arm_cfft_radix4_q15.c ****         R1 = (R1 >> 1U) - (T1 >> 1U);
 1716              		.loc 1 1651 0 discriminator 3
 1717 02ea 511A     		subs	r1, r2, r1
 1718              	.LVL432:
1652:.\DSP\Source\TransformFunctions/arm_cfft_radix4_q15.c **** 
1653:.\DSP\Source\TransformFunctions/arm_cfft_radix4_q15.c ****         /* (ya-yb+yc-yd)* (si2) - (xa-xb+xc-xd)* co2 */
1654:.\DSP\Source\TransformFunctions/arm_cfft_radix4_q15.c ****         out1 = (q15_t) ((Co2 * R0 - Si2 * R1) >> 16);
 1719              		.loc 1 1654 0 discriminator 3
 1720 02ec BDF920B0 		ldrsh	fp, [sp, #32]
 1721 02f0 00B2     		sxth	r0, r0
 1722 02f2 00FB0BFC 		mul	ip, r0, fp
 1723 02f6 BDF92430 		ldrsh	r3, [sp, #36]
 1724 02fa 0AB2     		sxth	r2, r1
 1725 02fc 02FB13CC 		mls	ip, r2, r3, ip
 1726 0300 4FEA1C4C 		lsr	ip, ip, #16
 1727              	.LVL433:
1655:.\DSP\Source\TransformFunctions/arm_cfft_radix4_q15.c ****         /* (ya-yb+yc-yd)* co2 + (xa-xb+xc-xd)* (si2) */
1656:.\DSP\Source\TransformFunctions/arm_cfft_radix4_q15.c ****         out2 = (q15_t) ((Si2 * R0 + Co2 * R1) >> 16);
 1728              		.loc 1 1656 0 discriminator 3
 1729 0304 02FB0BF2 		mul	r2, r2, fp
 1730 0308 03FB0020 		mla	r0, r3, r0, r2
 1731              	.LVL434:
 1732 030c 000C     		lsrs	r0, r0, #16
 1733              	.LVL435:
1657:.\DSP\Source\TransformFunctions/arm_cfft_radix4_q15.c **** 
1658:.\DSP\Source\TransformFunctions/arm_cfft_radix4_q15.c ****         /*  Reading i0+3fftLen/4 */
1659:.\DSP\Source\TransformFunctions/arm_cfft_radix4_q15.c ****         /* Read yb (real), xb(imag) input */
1660:.\DSP\Source\TransformFunctions/arm_cfft_radix4_q15.c ****         T0 = pSrc16[i1 * 2U];
 1734              		.loc 1 1660 0 discriminator 3
 1735 030e 38F82610 		ldrh	r1, [r8, r6, lsl #2]
 1736              	.LVL436:
1661:.\DSP\Source\TransformFunctions/arm_cfft_radix4_q15.c ****         T1 = pSrc16[(i1 * 2U) + 1U];
 1737              		.loc 1 1661 0 discriminator 3
 1738 0312 38F805A0 		ldrh	r10, [r8, r5]
 1739              	.LVL437:
1662:.\DSP\Source\TransformFunctions/arm_cfft_radix4_q15.c **** 
1663:.\DSP\Source\TransformFunctions/arm_cfft_radix4_q15.c ****         /*  writing the butterfly processed i0 + fftLen/4 sample */
1664:.\DSP\Source\TransformFunctions/arm_cfft_radix4_q15.c ****         /* xc' = (xa-xb+xc-xd)* co2 - (ya-yb+yc-yd)* (si2) */
1665:.\DSP\Source\TransformFunctions/arm_cfft_radix4_q15.c ****         /* yc' = (ya-yb+yc-yd)* co2 + (xa-xb+xc-xd)* (si2) */
1666:.\DSP\Source\TransformFunctions/arm_cfft_radix4_q15.c ****         pSrc16[i1 * 2U] = out1;
ARM GAS  C:\Users\IVYLIU~1\AppData\Local\Temp\cc4rI5mx.s 			page 61


 1740              		.loc 1 1666 0 discriminator 3
 1741 0316 28F826C0 		strh	ip, [r8, r6, lsl #2]	@ movhi
1667:.\DSP\Source\TransformFunctions/arm_cfft_radix4_q15.c ****         pSrc16[(i1 * 2U) + 1U] = out2;
 1742              		.loc 1 1667 0 discriminator 3
 1743 031a 28F80500 		strh	r0, [r8, r5]	@ movhi
 1744              	.LVL438:
1668:.\DSP\Source\TransformFunctions/arm_cfft_radix4_q15.c **** 
1669:.\DSP\Source\TransformFunctions/arm_cfft_radix4_q15.c ****         /*  Butterfly calculations */
1670:.\DSP\Source\TransformFunctions/arm_cfft_radix4_q15.c ****         /* Read yd (real), xd(imag) input */
1671:.\DSP\Source\TransformFunctions/arm_cfft_radix4_q15.c ****         U0 = pSrc16[i3 * 2U];
1672:.\DSP\Source\TransformFunctions/arm_cfft_radix4_q15.c ****         U1 = pSrc16[(i3 * 2U) + 1U];
 1745              		.loc 1 1672 0 discriminator 3
 1746 031e 38F80400 		ldrh	r0, [r8, r4]
 1747              	.LVL439:
 1748              	.LBB52:
1673:.\DSP\Source\TransformFunctions/arm_cfft_radix4_q15.c **** 
1674:.\DSP\Source\TransformFunctions/arm_cfft_radix4_q15.c ****         /* T0 = yb-yd, T1 = xb-xd) */
1675:.\DSP\Source\TransformFunctions/arm_cfft_radix4_q15.c ****         T0 = __SSAT(T0 - U0, 16U);
 1749              		.loc 1 1675 0 discriminator 3
 1750 0322 09B2     		sxth	r1, r1
 1751 0324 38F92730 		ldrsh	r3, [r8, r7, lsl #2]
 1752 0328 C91A     		subs	r1, r1, r3
 1753              	.LVL440:
 1754              	@ 1675 ".\DSP\Source\TransformFunctions\arm_cfft_radix4_q15.c" 1
 1755 032a 01F30F01 		ssat r1, #16, r1
 1756              	@ 0 "" 2
 1757              	.LVL441:
 1758              		.thumb
 1759              	.LBE52:
 1760 032e 89B2     		uxth	r1, r1
 1761              	.LVL442:
 1762              	.LBB53:
1676:.\DSP\Source\TransformFunctions/arm_cfft_radix4_q15.c ****         T1 = __SSAT(T1 - U1, 16U);
 1763              		.loc 1 1676 0 discriminator 3
 1764 0330 0FFA8AFA 		sxth	r10, r10
 1765 0334 00B2     		sxth	r0, r0
 1766 0336 C0EB0A00 		rsb	r0, r0, r10
 1767              	.LVL443:
 1768              	@ 1676 ".\DSP\Source\TransformFunctions\arm_cfft_radix4_q15.c" 1
 1769 033a 00F30F00 		ssat r0, #16, r0
 1770              	@ 0 "" 2
 1771              	.LVL444:
 1772              		.thumb
 1773              	.LBE53:
1677:.\DSP\Source\TransformFunctions/arm_cfft_radix4_q15.c **** 
1678:.\DSP\Source\TransformFunctions/arm_cfft_radix4_q15.c ****         /* R0 = (ya-yc) - (xb- xd) , R1 = (xa-xc) + (yb-yd) */
1679:.\DSP\Source\TransformFunctions/arm_cfft_radix4_q15.c ****         R0 = (S0 >> 1U) + (T1 >> 1U);
 1774              		.loc 1 1679 0 discriminator 3
 1775 033e 019D     		ldr	r5, [sp, #4]
 1776              	.LVL445:
 1777 0340 45F34E05 		sbfx	r5, r5, #1, #15
 1778 0344 ADB2     		uxth	r5, r5
 1779 0346 40F34E02 		sbfx	r2, r0, #1, #15
 1780 034a 92B2     		uxth	r2, r2
 1781 034c A818     		adds	r0, r5, r2
 1782              	.LVL446:
1680:.\DSP\Source\TransformFunctions/arm_cfft_radix4_q15.c ****         R1 = (S1 >> 1U) - (T0 >> 1U);
ARM GAS  C:\Users\IVYLIU~1\AppData\Local\Temp\cc4rI5mx.s 			page 62


 1783              		.loc 1 1680 0 discriminator 3
 1784 034e 029B     		ldr	r3, [sp, #8]
 1785 0350 43F34E0A 		sbfx	r10, r3, #1, #15
 1786              	.LVL447:
 1787 0354 1FFA8AF6 		uxth	r6, r10
 1788              	.LVL448:
 1789 0358 41F34E03 		sbfx	r3, r1, #1, #15
 1790 035c 9BB2     		uxth	r3, r3
 1791 035e F11A     		subs	r1, r6, r3
 1792              	.LVL449:
1681:.\DSP\Source\TransformFunctions/arm_cfft_radix4_q15.c **** 
1682:.\DSP\Source\TransformFunctions/arm_cfft_radix4_q15.c ****         /* S1 = (ya-yc) + (xb- xd), S1 = (xa-xc) - (yb-yd) */
1683:.\DSP\Source\TransformFunctions/arm_cfft_radix4_q15.c ****         S0 = (S0 >> 1U) - (T1 >> 1U);
 1793              		.loc 1 1683 0 discriminator 3
 1794 0360 AA1A     		subs	r2, r5, r2
 1795              	.LVL450:
1684:.\DSP\Source\TransformFunctions/arm_cfft_radix4_q15.c ****         S1 = (S1 >> 1U) + (T0 >> 1U);
 1796              		.loc 1 1684 0 discriminator 3
 1797 0362 06EB030A 		add	r10, r6, r3
 1798              	.LVL451:
1685:.\DSP\Source\TransformFunctions/arm_cfft_radix4_q15.c **** 
1686:.\DSP\Source\TransformFunctions/arm_cfft_radix4_q15.c ****         /*  Butterfly process for the i0+fftLen/2 sample */
1687:.\DSP\Source\TransformFunctions/arm_cfft_radix4_q15.c ****         out1 = (q15_t) ((Co1 * S0 - Si1 * S1) >> 16U);
 1799              		.loc 1 1687 0 discriminator 3
 1800 0366 BDF918C0 		ldrsh	ip, [sp, #24]
 1801              	.LVL452:
 1802 036a 12B2     		sxth	r2, r2
 1803 036c 02FB0CF5 		mul	r5, r2, ip
 1804 0370 BDF91C60 		ldrsh	r6, [sp, #28]
 1805 0374 0FFA8AF3 		sxth	r3, r10
 1806 0378 03FB1655 		mls	r5, r3, r6, r5
 1807 037c 2D0C     		lsrs	r5, r5, #16
 1808              	.LVL453:
1688:.\DSP\Source\TransformFunctions/arm_cfft_radix4_q15.c ****         out2 = (q15_t) ((Si1 * S0 + Co1 * S1) >> 16U);
 1809              		.loc 1 1688 0 discriminator 3
 1810 037e 03FB0CF3 		mul	r3, r3, ip
 1811 0382 06FB0236 		mla	r6, r6, r2, r3
 1812 0386 360C     		lsrs	r6, r6, #16
 1813              	.LVL454:
1689:.\DSP\Source\TransformFunctions/arm_cfft_radix4_q15.c ****         /* xb' = (xa-yb-xc+yd)* co1 - (ya+xb-yc-xd)* (si1) */
1690:.\DSP\Source\TransformFunctions/arm_cfft_radix4_q15.c ****         /* yb' = (ya+xb-yc-xd)* co1 + (xa-yb-xc+yd)* (si1) */
1691:.\DSP\Source\TransformFunctions/arm_cfft_radix4_q15.c ****         pSrc16[i2 * 2U] = out1;
 1814              		.loc 1 1691 0 discriminator 3
 1815 0388 28F82E50 		strh	r5, [r8, lr, lsl #2]	@ movhi
 1816              	.LVL455:
1692:.\DSP\Source\TransformFunctions/arm_cfft_radix4_q15.c ****         pSrc16[(i2 * 2U) + 1U] = out2;
 1817              		.loc 1 1692 0 discriminator 3
 1818 038c 039A     		ldr	r2, [sp, #12]
 1819              	.LVL456:
 1820 038e 28F80260 		strh	r6, [r8, r2]	@ movhi
1693:.\DSP\Source\TransformFunctions/arm_cfft_radix4_q15.c **** 
1694:.\DSP\Source\TransformFunctions/arm_cfft_radix4_q15.c ****         /*  Butterfly process for the i0+3fftLen/4 sample */
1695:.\DSP\Source\TransformFunctions/arm_cfft_radix4_q15.c ****         out1 = (q15_t) ((Co3 * R0 - Si3 * R1) >> 16U);
 1821              		.loc 1 1695 0 discriminator 3
 1822 0392 BDF92850 		ldrsh	r5, [sp, #40]
 1823              	.LVL457:
 1824 0396 00B2     		sxth	r0, r0
ARM GAS  C:\Users\IVYLIU~1\AppData\Local\Temp\cc4rI5mx.s 			page 63


 1825 0398 00FB05F3 		mul	r3, r0, r5
 1826 039c BDF92C20 		ldrsh	r2, [sp, #44]
 1827 03a0 09B2     		sxth	r1, r1
 1828 03a2 01FB1233 		mls	r3, r1, r2, r3
 1829 03a6 1B0C     		lsrs	r3, r3, #16
 1830              	.LVL458:
1696:.\DSP\Source\TransformFunctions/arm_cfft_radix4_q15.c **** 
1697:.\DSP\Source\TransformFunctions/arm_cfft_radix4_q15.c ****         out2 = (q15_t) ((Si3 * R0 + Co3 * R1) >> 16U);
 1831              		.loc 1 1697 0 discriminator 3
 1832 03a8 01FB05F1 		mul	r1, r1, r5
 1833              	.LVL459:
 1834 03ac 02FB0012 		mla	r2, r2, r0, r1
 1835 03b0 120C     		lsrs	r2, r2, #16
 1836              	.LVL460:
1698:.\DSP\Source\TransformFunctions/arm_cfft_radix4_q15.c ****         /* xd' = (xa+yb-xc-yd)* Co3 - (ya-xb-yc+xd)* (si3) */
1699:.\DSP\Source\TransformFunctions/arm_cfft_radix4_q15.c ****         /* yd' = (ya-xb-yc+xd)* Co3 + (xa+yb-xc-yd)* (si3) */
1700:.\DSP\Source\TransformFunctions/arm_cfft_radix4_q15.c ****         pSrc16[i3 * 2U] = out1;
 1837              		.loc 1 1700 0 discriminator 3
 1838 03b2 28F82730 		strh	r3, [r8, r7, lsl #2]	@ movhi
1701:.\DSP\Source\TransformFunctions/arm_cfft_radix4_q15.c ****         pSrc16[(i3 * 2U) + 1U] = out2;
 1839              		.loc 1 1701 0 discriminator 3
 1840 03b6 28F80420 		strh	r2, [r8, r4]	@ movhi
1605:.\DSP\Source\TransformFunctions/arm_cfft_radix4_q15.c ****       {
 1841              		.loc 1 1605 0 discriminator 3
 1842 03ba 0C9B     		ldr	r3, [sp, #48]
 1843              	.LVL461:
 1844 03bc 9944     		add	r9, r9, r3
 1845              	.LVL462:
 1846              	.L16:
1605:.\DSP\Source\TransformFunctions/arm_cfft_radix4_q15.c ****       {
 1847              		.loc 1 1605 0 is_stmt 0 discriminator 1
 1848 03be 059B     		ldr	r3, [sp, #20]
 1849 03c0 9945     		cmp	r9, r3
 1850 03c2 FFF43CAF 		bcc	.L17
1591:.\DSP\Source\TransformFunctions/arm_cfft_radix4_q15.c ****     {
 1851              		.loc 1 1591 0 is_stmt 1 discriminator 2
 1852 03c6 0D9B     		ldr	r3, [sp, #52]
 1853 03c8 0133     		adds	r3, r3, #1
 1854 03ca 0D93     		str	r3, [sp, #52]
 1855              	.LVL463:
 1856              	.L15:
1591:.\DSP\Source\TransformFunctions/arm_cfft_radix4_q15.c ****     {
 1857              		.loc 1 1591 0 is_stmt 0 discriminator 1
 1858 03cc 049B     		ldr	r3, [sp, #16]
 1859 03ce 013B     		subs	r3, r3, #1
 1860 03d0 0D9A     		ldr	r2, [sp, #52]
 1861 03d2 9342     		cmp	r3, r2
 1862 03d4 BFF414AF 		bcs	.L18
 1863 03d8 C446     		mov	ip, r8
1702:.\DSP\Source\TransformFunctions/arm_cfft_radix4_q15.c **** 
1703:.\DSP\Source\TransformFunctions/arm_cfft_radix4_q15.c **** 
1704:.\DSP\Source\TransformFunctions/arm_cfft_radix4_q15.c ****       }
1705:.\DSP\Source\TransformFunctions/arm_cfft_radix4_q15.c ****     }
1706:.\DSP\Source\TransformFunctions/arm_cfft_radix4_q15.c ****     /*  Twiddle coefficients index modifier */
1707:.\DSP\Source\TransformFunctions/arm_cfft_radix4_q15.c ****     twidCoefModifier <<= 2U;
 1864              		.loc 1 1707 0 is_stmt 1 discriminator 2
 1865 03da 0F9B     		ldr	r3, [sp, #60]
ARM GAS  C:\Users\IVYLIU~1\AppData\Local\Temp\cc4rI5mx.s 			page 64


 1866 03dc 9B00     		lsls	r3, r3, #2
 1867 03de 0F93     		str	r3, [sp, #60]
 1868              	.LVL464:
1584:.\DSP\Source\TransformFunctions/arm_cfft_radix4_q15.c ****   {
 1869              		.loc 1 1584 0 discriminator 2
 1870 03e0 119B     		ldr	r3, [sp, #68]
 1871              	.LVL465:
 1872 03e2 9B08     		lsrs	r3, r3, #2
 1873 03e4 1193     		str	r3, [sp, #68]
 1874              	.LVL466:
1588:.\DSP\Source\TransformFunctions/arm_cfft_radix4_q15.c ****     ic = 0U;
 1875              		.loc 1 1588 0 discriminator 2
 1876 03e6 049B     		ldr	r3, [sp, #16]
 1877              	.LVL467:
 1878 03e8 0C93     		str	r3, [sp, #48]
 1879              	.LVL468:
 1880              	.L14:
1584:.\DSP\Source\TransformFunctions/arm_cfft_radix4_q15.c ****   {
 1881              		.loc 1 1584 0 discriminator 1
 1882 03ea 119B     		ldr	r3, [sp, #68]
 1883 03ec 042B     		cmp	r3, #4
 1884 03ee 3FF6FFAE 		bhi	.L19
 1885 03f2 E246     		mov	r10, ip
 1886              	.LVL469:
1708:.\DSP\Source\TransformFunctions/arm_cfft_radix4_q15.c ****   }
1709:.\DSP\Source\TransformFunctions/arm_cfft_radix4_q15.c ****   /*  End of Middle stages process */
1710:.\DSP\Source\TransformFunctions/arm_cfft_radix4_q15.c **** 
1711:.\DSP\Source\TransformFunctions/arm_cfft_radix4_q15.c **** 
1712:.\DSP\Source\TransformFunctions/arm_cfft_radix4_q15.c ****   /* data is in 10.6(q6) format for the 1024 point */
1713:.\DSP\Source\TransformFunctions/arm_cfft_radix4_q15.c ****   /* data is in 8.8(q8) format for the 256 point   */
1714:.\DSP\Source\TransformFunctions/arm_cfft_radix4_q15.c ****   /* data is in 6.10(q10) format for the 64 point  */
1715:.\DSP\Source\TransformFunctions/arm_cfft_radix4_q15.c ****   /* data is in 4.12(q12) format for the 16 point  */
1716:.\DSP\Source\TransformFunctions/arm_cfft_radix4_q15.c **** 
1717:.\DSP\Source\TransformFunctions/arm_cfft_radix4_q15.c ****   /* start of last stage process */
1718:.\DSP\Source\TransformFunctions/arm_cfft_radix4_q15.c **** 
1719:.\DSP\Source\TransformFunctions/arm_cfft_radix4_q15.c **** 
1720:.\DSP\Source\TransformFunctions/arm_cfft_radix4_q15.c ****   /*  Initializations for the last stage */
1721:.\DSP\Source\TransformFunctions/arm_cfft_radix4_q15.c ****   n1 = n2;
1722:.\DSP\Source\TransformFunctions/arm_cfft_radix4_q15.c ****   n2 >>= 2U;
 1887              		.loc 1 1722 0
 1888 03f4 0C9B     		ldr	r3, [sp, #48]
 1889 03f6 9B08     		lsrs	r3, r3, #2
 1890 03f8 0493     		str	r3, [sp, #16]
 1891              	.LVL470:
1723:.\DSP\Source\TransformFunctions/arm_cfft_radix4_q15.c **** 
1724:.\DSP\Source\TransformFunctions/arm_cfft_radix4_q15.c ****   /*  Butterfly implementation */
1725:.\DSP\Source\TransformFunctions/arm_cfft_radix4_q15.c ****   for (i0 = 0U; i0 <= (fftLen - n1); i0 += n1)
 1892              		.loc 1 1725 0
 1893 03fa 4FF0000E 		mov	lr, #0
 1894 03fe 8DE0     		b	.L20
 1895              	.LVL471:
 1896              	.L21:
1726:.\DSP\Source\TransformFunctions/arm_cfft_radix4_q15.c ****   {
1727:.\DSP\Source\TransformFunctions/arm_cfft_radix4_q15.c ****     /*  index calculation for the input as, */
1728:.\DSP\Source\TransformFunctions/arm_cfft_radix4_q15.c ****     /*  pSrc16[i0 + 0], pSrc16[i0 + fftLen/4], pSrc16[i0 + fftLen/2], pSrc16[i0 + 3fftLen/4] */
1729:.\DSP\Source\TransformFunctions/arm_cfft_radix4_q15.c ****     i1 = i0 + n2;
 1897              		.loc 1 1729 0 discriminator 3
ARM GAS  C:\Users\IVYLIU~1\AppData\Local\Temp\cc4rI5mx.s 			page 65


 1898 0400 049A     		ldr	r2, [sp, #16]
 1899 0402 0EEB0206 		add	r6, lr, r2
 1900              	.LVL472:
1730:.\DSP\Source\TransformFunctions/arm_cfft_radix4_q15.c ****     i2 = i1 + n2;
 1901              		.loc 1 1730 0 discriminator 3
 1902 0406 06EB020C 		add	ip, r6, r2
 1903              	.LVL473:
1731:.\DSP\Source\TransformFunctions/arm_cfft_radix4_q15.c ****     i3 = i2 + n2;
 1904              		.loc 1 1731 0 discriminator 3
 1905 040a 0CEB0207 		add	r7, ip, r2
 1906              	.LVL474:
1732:.\DSP\Source\TransformFunctions/arm_cfft_radix4_q15.c **** 
1733:.\DSP\Source\TransformFunctions/arm_cfft_radix4_q15.c ****     /*  Reading i0, i0+fftLen/2 inputs */
1734:.\DSP\Source\TransformFunctions/arm_cfft_radix4_q15.c ****     /* Read ya (real), xa(imag) input */
1735:.\DSP\Source\TransformFunctions/arm_cfft_radix4_q15.c ****     T0 = pSrc16[i0 * 2U];
 1907              		.loc 1 1735 0 discriminator 3
 1908 040e 4FEA8E08 		lsl	r8, lr, #2
 1909              	.LVL475:
1736:.\DSP\Source\TransformFunctions/arm_cfft_radix4_q15.c ****     T1 = pSrc16[(i0 * 2U) + 1U];
 1910              		.loc 1 1736 0 discriminator 3
 1911 0412 08F10208 		add	r8, r8, #2
 1912 0416 3AF80830 		ldrh	r3, [r10, r8]
 1913              	.LVL476:
1737:.\DSP\Source\TransformFunctions/arm_cfft_radix4_q15.c ****     /* Read yc (real), xc(imag) input */
1738:.\DSP\Source\TransformFunctions/arm_cfft_radix4_q15.c ****     S0 = pSrc16[i2 * 2U];
 1914              		.loc 1 1738 0 discriminator 3
 1915 041a 4FEA8C02 		lsl	r2, ip, #2
 1916              	.LVL477:
1739:.\DSP\Source\TransformFunctions/arm_cfft_radix4_q15.c ****     S1 = pSrc16[(i2 * 2U) + 1U];
 1917              		.loc 1 1739 0 discriminator 3
 1918 041e 02F1020B 		add	fp, r2, #2
 1919 0422 3AF80B40 		ldrh	r4, [r10, fp]
 1920              	.LVL478:
 1921              	.LBB54:
1740:.\DSP\Source\TransformFunctions/arm_cfft_radix4_q15.c **** 
1741:.\DSP\Source\TransformFunctions/arm_cfft_radix4_q15.c ****     /* R0 = (ya + yc), R1 = (xa + xc) */
1742:.\DSP\Source\TransformFunctions/arm_cfft_radix4_q15.c ****     R0 = __SSAT(T0 + S0, 16U);
 1922              		.loc 1 1742 0 discriminator 3
 1923 0426 3AF92E10 		ldrsh	r1, [r10, lr, lsl #2]
 1924 042a 3AF92C50 		ldrsh	r5, [r10, ip, lsl #2]
 1925 042e 4819     		adds	r0, r1, r5
 1926              	.LVL479:
 1927              	@ 1742 ".\DSP\Source\TransformFunctions\arm_cfft_radix4_q15.c" 1
 1928 0430 00F30F00 		ssat r0, #16, r0
 1929              	@ 0 "" 2
 1930              	.LVL480:
 1931              		.thumb
 1932              	.LBE54:
 1933 0434 80B2     		uxth	r0, r0
 1934              	.LVL481:
 1935              	.LBB55:
1743:.\DSP\Source\TransformFunctions/arm_cfft_radix4_q15.c ****     R1 = __SSAT(T1 + S1, 16U);
 1936              		.loc 1 1743 0 discriminator 3
 1937 0436 1BB2     		sxth	r3, r3
 1938 0438 24B2     		sxth	r4, r4
 1939 043a 1A19     		adds	r2, r3, r4
 1940              	.LVL482:
ARM GAS  C:\Users\IVYLIU~1\AppData\Local\Temp\cc4rI5mx.s 			page 66


 1941              	@ 1743 ".\DSP\Source\TransformFunctions\arm_cfft_radix4_q15.c" 1
 1942 043c 02F30F02 		ssat r2, #16, r2
 1943              	@ 0 "" 2
 1944              	.LVL483:
 1945              		.thumb
 1946              	.LBE55:
 1947 0440 92B2     		uxth	r2, r2
 1948              	.LVL484:
 1949              	.LBB56:
1744:.\DSP\Source\TransformFunctions/arm_cfft_radix4_q15.c ****     /* S0 = (ya - yc), S1 = (xa - xc) */
1745:.\DSP\Source\TransformFunctions/arm_cfft_radix4_q15.c ****     S0 = __SSAT(T0 - S0, 16U);
 1950              		.loc 1 1745 0 discriminator 3
 1951 0442 491B     		subs	r1, r1, r5
 1952              	.LVL485:
 1953              	@ 1745 ".\DSP\Source\TransformFunctions\arm_cfft_radix4_q15.c" 1
 1954 0444 01F30F01 		ssat r1, #16, r1
 1955              	@ 0 "" 2
 1956              	.LVL486:
 1957              		.thumb
 1958              	.LBE56:
 1959 0448 89B2     		uxth	r1, r1
 1960              	.LVL487:
 1961 044a 0191     		str	r1, [sp, #4]
 1962              	.LVL488:
 1963              	.LBB57:
1746:.\DSP\Source\TransformFunctions/arm_cfft_radix4_q15.c ****     S1 = __SSAT(T1 - S1, 16U);
 1964              		.loc 1 1746 0 discriminator 3
 1965 044c 1B1B     		subs	r3, r3, r4
 1966              	.LVL489:
 1967              	@ 1746 ".\DSP\Source\TransformFunctions\arm_cfft_radix4_q15.c" 1
 1968 044e 03F30F03 		ssat r3, #16, r3
 1969              	@ 0 "" 2
 1970              	.LVL490:
 1971              		.thumb
 1972              	.LBE57:
 1973 0452 9BB2     		uxth	r3, r3
 1974              	.LVL491:
 1975 0454 0293     		str	r3, [sp, #8]
 1976              	.LVL492:
1747:.\DSP\Source\TransformFunctions/arm_cfft_radix4_q15.c **** 
1748:.\DSP\Source\TransformFunctions/arm_cfft_radix4_q15.c ****     /*  Reading i0+fftLen/4 , i0+3fftLen/4 inputs */
1749:.\DSP\Source\TransformFunctions/arm_cfft_radix4_q15.c ****     /* Read yb (real), xb(imag) input */
1750:.\DSP\Source\TransformFunctions/arm_cfft_radix4_q15.c ****     T0 = pSrc16[i1 * 2U];
 1977              		.loc 1 1750 0 discriminator 3
 1978 0456 B500     		lsls	r5, r6, #2
 1979              	.LVL493:
1751:.\DSP\Source\TransformFunctions/arm_cfft_radix4_q15.c ****     T1 = pSrc16[(i1 * 2U) + 1U];
 1980              		.loc 1 1751 0 discriminator 3
 1981 0458 0235     		adds	r5, r5, #2
 1982 045a 3AF80590 		ldrh	r9, [r10, r5]
 1983              	.LVL494:
1752:.\DSP\Source\TransformFunctions/arm_cfft_radix4_q15.c ****     /* Read yd (real), xd(imag) input */
1753:.\DSP\Source\TransformFunctions/arm_cfft_radix4_q15.c ****     U0 = pSrc16[i3 * 2U];
 1984              		.loc 1 1753 0 discriminator 3
 1985 045e BC00     		lsls	r4, r7, #2
 1986              	.LVL495:
1754:.\DSP\Source\TransformFunctions/arm_cfft_radix4_q15.c ****     U1 = pSrc16[(i3 * 2U) + 1U];
ARM GAS  C:\Users\IVYLIU~1\AppData\Local\Temp\cc4rI5mx.s 			page 67


 1987              		.loc 1 1754 0 discriminator 3
 1988 0460 0234     		adds	r4, r4, #2
 1989 0462 3AF80430 		ldrh	r3, [r10, r4]
 1990 0466 0393     		str	r3, [sp, #12]
 1991              	.LVL496:
 1992              	.LBB58:
1755:.\DSP\Source\TransformFunctions/arm_cfft_radix4_q15.c **** 
1756:.\DSP\Source\TransformFunctions/arm_cfft_radix4_q15.c ****     /* T0 = (yb + yd), T1 = (xb + xd) */
1757:.\DSP\Source\TransformFunctions/arm_cfft_radix4_q15.c ****     T0 = __SSAT(T0 + U0, 16U);
