ARM GAS  C:\Users\IVYLIU~1\AppData\Local\Temp\ccqB3Moq.s 			page 1


   1              		.syntax unified
   2              		.cpu cortex-m3
   3              		.fpu softvfp
   4              		.eabi_attribute 20, 1
   5              		.eabi_attribute 21, 1
   6              		.eabi_attribute 23, 3
   7              		.eabi_attribute 24, 1
   8              		.eabi_attribute 25, 1
   9              		.eabi_attribute 26, 1
  10              		.eabi_attribute 30, 1
  11              		.eabi_attribute 34, 1
  12              		.eabi_attribute 18, 4
  13              		.thumb
  14              		.file	"arm_dct4_f32.c"
  15              		.text
  16              	.Ltext0:
  17              		.cfi_sections	.debug_frame
  18              		.global	__aeabi_fmul
  19              		.global	__aeabi_fsub
  20              		.section	.text.arm_dct4_f32,"ax",%progbits
  21              		.align	2
  22              		.global	arm_dct4_f32
  23              		.thumb
  24              		.thumb_func
  25              		.type	arm_dct4_f32, %function
  26              	arm_dct4_f32:
  27              	.LFB84:
  28              		.file 1 ".\\DSP\\Source\\TransformFunctions\\arm_dct4_f32.c"
   1:.\DSP\Source\TransformFunctions/arm_dct4_f32.c **** /* ----------------------------------------------------------------------
   2:.\DSP\Source\TransformFunctions/arm_dct4_f32.c ****  * Project:      CMSIS DSP Library
   3:.\DSP\Source\TransformFunctions/arm_dct4_f32.c ****  * Title:        arm_dct4_f32.c
   4:.\DSP\Source\TransformFunctions/arm_dct4_f32.c ****  * Description:  Processing function of DCT4 & IDCT4 F32
   5:.\DSP\Source\TransformFunctions/arm_dct4_f32.c ****  *
   6:.\DSP\Source\TransformFunctions/arm_dct4_f32.c ****  * $Date:        23 April 2021
   7:.\DSP\Source\TransformFunctions/arm_dct4_f32.c ****  * $Revision:    V1.9.0
   8:.\DSP\Source\TransformFunctions/arm_dct4_f32.c ****  *
   9:.\DSP\Source\TransformFunctions/arm_dct4_f32.c ****  * Target Processor: Cortex-M and Cortex-A cores
  10:.\DSP\Source\TransformFunctions/arm_dct4_f32.c ****  * -------------------------------------------------------------------- */
  11:.\DSP\Source\TransformFunctions/arm_dct4_f32.c **** /*
  12:.\DSP\Source\TransformFunctions/arm_dct4_f32.c ****  * Copyright (C) 2010-2021 ARM Limited or its affiliates. All rights reserved.
  13:.\DSP\Source\TransformFunctions/arm_dct4_f32.c ****  *
  14:.\DSP\Source\TransformFunctions/arm_dct4_f32.c ****  * SPDX-License-Identifier: Apache-2.0
  15:.\DSP\Source\TransformFunctions/arm_dct4_f32.c ****  *
  16:.\DSP\Source\TransformFunctions/arm_dct4_f32.c ****  * Licensed under the Apache License, Version 2.0 (the License); you may
  17:.\DSP\Source\TransformFunctions/arm_dct4_f32.c ****  * not use this file except in compliance with the License.
  18:.\DSP\Source\TransformFunctions/arm_dct4_f32.c ****  * You may obtain a copy of the License at
  19:.\DSP\Source\TransformFunctions/arm_dct4_f32.c ****  *
  20:.\DSP\Source\TransformFunctions/arm_dct4_f32.c ****  * www.apache.org/licenses/LICENSE-2.0
  21:.\DSP\Source\TransformFunctions/arm_dct4_f32.c ****  *
  22:.\DSP\Source\TransformFunctions/arm_dct4_f32.c ****  * Unless required by applicable law or agreed to in writing, software
  23:.\DSP\Source\TransformFunctions/arm_dct4_f32.c ****  * distributed under the License is distributed on an AS IS BASIS, WITHOUT
  24:.\DSP\Source\TransformFunctions/arm_dct4_f32.c ****  * WARRANTIES OR CONDITIONS OF ANY KIND, either express or implied.
  25:.\DSP\Source\TransformFunctions/arm_dct4_f32.c ****  * See the License for the specific language governing permissions and
  26:.\DSP\Source\TransformFunctions/arm_dct4_f32.c ****  * limitations under the License.
  27:.\DSP\Source\TransformFunctions/arm_dct4_f32.c ****  */
  28:.\DSP\Source\TransformFunctions/arm_dct4_f32.c **** 
  29:.\DSP\Source\TransformFunctions/arm_dct4_f32.c **** #include "dsp/transform_functions.h"
ARM GAS  C:\Users\IVYLIU~1\AppData\Local\Temp\ccqB3Moq.s 			page 2


  30:.\DSP\Source\TransformFunctions/arm_dct4_f32.c **** 
  31:.\DSP\Source\TransformFunctions/arm_dct4_f32.c **** /**
  32:.\DSP\Source\TransformFunctions/arm_dct4_f32.c ****   @ingroup groupTransforms
  33:.\DSP\Source\TransformFunctions/arm_dct4_f32.c ****  */
  34:.\DSP\Source\TransformFunctions/arm_dct4_f32.c **** 
  35:.\DSP\Source\TransformFunctions/arm_dct4_f32.c **** /**
  36:.\DSP\Source\TransformFunctions/arm_dct4_f32.c ****   @defgroup DCT4_IDCT4 DCT Type IV Functions
  37:.\DSP\Source\TransformFunctions/arm_dct4_f32.c **** 
  38:.\DSP\Source\TransformFunctions/arm_dct4_f32.c ****   Representation of signals by minimum number of values is important for storage and transmission.
  39:.\DSP\Source\TransformFunctions/arm_dct4_f32.c ****   The possibility of large discontinuity between the beginning and end of a period of a signal
  40:.\DSP\Source\TransformFunctions/arm_dct4_f32.c ****   in DFT can be avoided by extending the signal so that it is even-symmetric.
  41:.\DSP\Source\TransformFunctions/arm_dct4_f32.c ****   Discrete Cosine Transform (DCT) is constructed such that its energy is heavily concentrated in th
  42:.\DSP\Source\TransformFunctions/arm_dct4_f32.c ****   spectrum and is very widely used in signal and image coding applications.
  43:.\DSP\Source\TransformFunctions/arm_dct4_f32.c ****   The family of DCTs (DCT type- 1,2,3,4) is the outcome of different combinations of homogeneous bo
  44:.\DSP\Source\TransformFunctions/arm_dct4_f32.c ****   DCT has an excellent energy-packing capability, hence has many applications and in data compressi
  45:.\DSP\Source\TransformFunctions/arm_dct4_f32.c ****   
  46:.\DSP\Source\TransformFunctions/arm_dct4_f32.c ****   DCT is essentially the Discrete Fourier Transform(DFT) of an even-extended real signal.
  47:.\DSP\Source\TransformFunctions/arm_dct4_f32.c ****   Reordering of the input data makes the computation of DCT just a problem of
  48:.\DSP\Source\TransformFunctions/arm_dct4_f32.c ****   computing the DFT of a real signal with a few additional operations.
  49:.\DSP\Source\TransformFunctions/arm_dct4_f32.c ****   This approach provides regular, simple, and very efficient DCT algorithms for practical hardware 
  50:.\DSP\Source\TransformFunctions/arm_dct4_f32.c ****   
  51:.\DSP\Source\TransformFunctions/arm_dct4_f32.c ****   DCT type-II can be implemented using Fast fourier transform (FFT) internally, as the transform is
  52:.\DSP\Source\TransformFunctions/arm_dct4_f32.c ****   DCT4 is implemented using DCT2 as their implementations are similar except with some added pre-pr
  53:.\DSP\Source\TransformFunctions/arm_dct4_f32.c ****   DCT2 implementation can be described in the following steps:
  54:.\DSP\Source\TransformFunctions/arm_dct4_f32.c ****   - Re-ordering input
  55:.\DSP\Source\TransformFunctions/arm_dct4_f32.c ****   - Calculating Real FFT
  56:.\DSP\Source\TransformFunctions/arm_dct4_f32.c ****   - Multiplication of weights and Real FFT output and getting real part from the product.
  57:.\DSP\Source\TransformFunctions/arm_dct4_f32.c ****   
  58:.\DSP\Source\TransformFunctions/arm_dct4_f32.c ****   This process is explained by the block diagram below:
  59:.\DSP\Source\TransformFunctions/arm_dct4_f32.c ****   \image html DCT4.gif "Discrete Cosine Transform - type-IV"
  60:.\DSP\Source\TransformFunctions/arm_dct4_f32.c ****  
  61:.\DSP\Source\TransformFunctions/arm_dct4_f32.c ****   @par           Algorithm
  62:.\DSP\Source\TransformFunctions/arm_dct4_f32.c ****                    The N-point type-IV DCT is defined as a real, linear transformation by the formu
  63:.\DSP\Source\TransformFunctions/arm_dct4_f32.c ****                    \image html DCT4Equation.gif
  64:.\DSP\Source\TransformFunctions/arm_dct4_f32.c ****                    where <code>k = 0, 1, 2, ..., N-1</code>
  65:.\DSP\Source\TransformFunctions/arm_dct4_f32.c ****   @par
  66:.\DSP\Source\TransformFunctions/arm_dct4_f32.c ****                    Its inverse is defined as follows:
  67:.\DSP\Source\TransformFunctions/arm_dct4_f32.c ****                    \image html IDCT4Equation.gif
  68:.\DSP\Source\TransformFunctions/arm_dct4_f32.c ****                    where <code>n = 0, 1, 2, ..., N-1</code>
  69:.\DSP\Source\TransformFunctions/arm_dct4_f32.c ****   @par
  70:.\DSP\Source\TransformFunctions/arm_dct4_f32.c ****                    The DCT4 matrices become involutory (i.e. they are self-inverse) by multiplying 
  71:.\DSP\Source\TransformFunctions/arm_dct4_f32.c ****                    The symmetry of the transform matrix indicates that the fast algorithms for the 
  72:.\DSP\Source\TransformFunctions/arm_dct4_f32.c ****                    and inverse transform computation are identical.
  73:.\DSP\Source\TransformFunctions/arm_dct4_f32.c ****                    Note that the implementation of Inverse DCT4 and DCT4 is same, hence same proces
  74:.\DSP\Source\TransformFunctions/arm_dct4_f32.c ****  
  75:.\DSP\Source\TransformFunctions/arm_dct4_f32.c ****   @par           Lengths supported by the transform:
  76:.\DSP\Source\TransformFunctions/arm_dct4_f32.c ****                    As DCT4 internally uses Real FFT, it supports all the lengths 128, 512, 2048 and
  77:.\DSP\Source\TransformFunctions/arm_dct4_f32.c ****                    The library provides separate functions for Q15, Q31, and floating-point data ty
  78:.\DSP\Source\TransformFunctions/arm_dct4_f32.c **** 
  79:.\DSP\Source\TransformFunctions/arm_dct4_f32.c ****   @par           Instance Structure
  80:.\DSP\Source\TransformFunctions/arm_dct4_f32.c ****                    The instances for Real FFT and FFT, cosine values table and twiddle factor table
  81:.\DSP\Source\TransformFunctions/arm_dct4_f32.c ****                    A separate instance structure must be defined for each transform.
  82:.\DSP\Source\TransformFunctions/arm_dct4_f32.c ****                    There are separate instance structure declarations for each of the 3 supported d
  83:.\DSP\Source\TransformFunctions/arm_dct4_f32.c ****                  
  84:.\DSP\Source\TransformFunctions/arm_dct4_f32.c ****   @par           Initialization Functions
  85:.\DSP\Source\TransformFunctions/arm_dct4_f32.c ****                    There is also an associated initialization function for each data type.
  86:.\DSP\Source\TransformFunctions/arm_dct4_f32.c ****                    The initialization function performs the following operations:
ARM GAS  C:\Users\IVYLIU~1\AppData\Local\Temp\ccqB3Moq.s 			page 3


  87:.\DSP\Source\TransformFunctions/arm_dct4_f32.c ****                    - Sets the values of the internal structure fields.
  88:.\DSP\Source\TransformFunctions/arm_dct4_f32.c ****                    - Initializes Real FFT as its process function is used internally in DCT4, by ca
  89:.\DSP\Source\TransformFunctions/arm_dct4_f32.c ****   @par
  90:.\DSP\Source\TransformFunctions/arm_dct4_f32.c ****                    Use of the initialization function is optional.
  91:.\DSP\Source\TransformFunctions/arm_dct4_f32.c ****                    However, if the initialization function is used, then the instance structure can
  92:.\DSP\Source\TransformFunctions/arm_dct4_f32.c ****                    To place an instance structure into a const data section, the instance structure
  93:.\DSP\Source\TransformFunctions/arm_dct4_f32.c ****                    Manually initialize the instance structure as follows:
  94:.\DSP\Source\TransformFunctions/arm_dct4_f32.c ****   <pre>
  95:.\DSP\Source\TransformFunctions/arm_dct4_f32.c ****       arm_dct4_instance_f32 S = {N, Nby2, normalize, pTwiddle, pCosFactor, pRfft, pCfft};
  96:.\DSP\Source\TransformFunctions/arm_dct4_f32.c ****       arm_dct4_instance_q31 S = {N, Nby2, normalize, pTwiddle, pCosFactor, pRfft, pCfft};
  97:.\DSP\Source\TransformFunctions/arm_dct4_f32.c ****       arm_dct4_instance_q15 S = {N, Nby2, normalize, pTwiddle, pCosFactor, pRfft, pCfft};
  98:.\DSP\Source\TransformFunctions/arm_dct4_f32.c ****   </pre>
  99:.\DSP\Source\TransformFunctions/arm_dct4_f32.c ****                    where \c N is the length of the DCT4; \c Nby2 is half of the length of the DCT4;
 100:.\DSP\Source\TransformFunctions/arm_dct4_f32.c ****                    \c normalize is normalizing factor used and is equal to <code>sqrt(2/N)</code>;
 101:.\DSP\Source\TransformFunctions/arm_dct4_f32.c ****                    \c pTwiddle points to the twiddle factor table;
 102:.\DSP\Source\TransformFunctions/arm_dct4_f32.c ****                    \c pCosFactor points to the cosFactor table;
 103:.\DSP\Source\TransformFunctions/arm_dct4_f32.c ****                    \c pRfft points to the real FFT instance;
 104:.\DSP\Source\TransformFunctions/arm_dct4_f32.c ****                    \c pCfft points to the complex FFT instance;
 105:.\DSP\Source\TransformFunctions/arm_dct4_f32.c ****                    The CFFT and RFFT structures also needs to be initialized, refer to arm_cfft_rad
 106:.\DSP\Source\TransformFunctions/arm_dct4_f32.c ****                    and arm_rfft_f32() respectively for details regarding static initialization.
 107:.\DSP\Source\TransformFunctions/arm_dct4_f32.c ****  
 108:.\DSP\Source\TransformFunctions/arm_dct4_f32.c ****   @par           Fixed-Point Behavior
 109:.\DSP\Source\TransformFunctions/arm_dct4_f32.c ****                    Care must be taken when using the fixed-point versions of the DCT4 transform fun
 110:.\DSP\Source\TransformFunctions/arm_dct4_f32.c ****                    In particular, the overflow and saturation behavior of the accumulator used in e
 111:.\DSP\Source\TransformFunctions/arm_dct4_f32.c ****                    Refer to the function specific documentation below for usage guidelines.
 112:.\DSP\Source\TransformFunctions/arm_dct4_f32.c ****  */
 113:.\DSP\Source\TransformFunctions/arm_dct4_f32.c **** 
 114:.\DSP\Source\TransformFunctions/arm_dct4_f32.c ****  /**
 115:.\DSP\Source\TransformFunctions/arm_dct4_f32.c ****   @addtogroup DCT4_IDCT4
 116:.\DSP\Source\TransformFunctions/arm_dct4_f32.c ****   @{
 117:.\DSP\Source\TransformFunctions/arm_dct4_f32.c ****  */
 118:.\DSP\Source\TransformFunctions/arm_dct4_f32.c **** 
 119:.\DSP\Source\TransformFunctions/arm_dct4_f32.c **** /**
 120:.\DSP\Source\TransformFunctions/arm_dct4_f32.c ****   @brief         Processing function for the floating-point DCT4/IDCT4.
 121:.\DSP\Source\TransformFunctions/arm_dct4_f32.c ****   @param[in]     S             points to an instance of the floating-point DCT4/IDCT4 structure
 122:.\DSP\Source\TransformFunctions/arm_dct4_f32.c ****   @param[in]     pState        points to state buffer
 123:.\DSP\Source\TransformFunctions/arm_dct4_f32.c ****   @param[in,out] pInlineBuffer points to the in-place input and output buffer
 124:.\DSP\Source\TransformFunctions/arm_dct4_f32.c ****   @return        none
 125:.\DSP\Source\TransformFunctions/arm_dct4_f32.c ****  */
 126:.\DSP\Source\TransformFunctions/arm_dct4_f32.c **** 
 127:.\DSP\Source\TransformFunctions/arm_dct4_f32.c **** void arm_dct4_f32(
 128:.\DSP\Source\TransformFunctions/arm_dct4_f32.c ****   const arm_dct4_instance_f32 * S,
 129:.\DSP\Source\TransformFunctions/arm_dct4_f32.c ****         float32_t * pState,
 130:.\DSP\Source\TransformFunctions/arm_dct4_f32.c ****         float32_t * pInlineBuffer)
 131:.\DSP\Source\TransformFunctions/arm_dct4_f32.c **** {
  29              		.loc 1 131 0
  30              		.cfi_startproc
  31              		@ args = 0, pretend = 0, frame = 0
  32              		@ frame_needed = 0, uses_anonymous_args = 0
  33              	.LVL0:
  34 0000 2DE9F041 		push	{r4, r5, r6, r7, r8, lr}
  35              		.cfi_def_cfa_offset 24
  36              		.cfi_offset 4, -24
  37              		.cfi_offset 5, -20
  38              		.cfi_offset 6, -16
  39              		.cfi_offset 7, -12
  40              		.cfi_offset 8, -8
ARM GAS  C:\Users\IVYLIU~1\AppData\Local\Temp\ccqB3Moq.s 			page 4


  41              		.cfi_offset 14, -4
  42 0004 0646     		mov	r6, r0
  43 0006 0C46     		mov	r4, r1
  44 0008 1546     		mov	r5, r2
 132:.\DSP\Source\TransformFunctions/arm_dct4_f32.c ****   const float32_t *weights = S->pTwiddle;              /* Pointer to the Weights table */
  45              		.loc 1 132 0
  46 000a 8768     		ldr	r7, [r0, #8]
  47              	.LVL1:
 133:.\DSP\Source\TransformFunctions/arm_dct4_f32.c ****   const float32_t *cosFact = S->pCosFactor;            /* Pointer to the cos factors table */
  48              		.loc 1 133 0
  49 000c D0F80C80 		ldr	r8, [r0, #12]
  50              	.LVL2:
 134:.\DSP\Source\TransformFunctions/arm_dct4_f32.c ****         float32_t *pS1, *pS2, *pbuff;                  /* Temporary pointers for input buffer and p
 135:.\DSP\Source\TransformFunctions/arm_dct4_f32.c ****         float32_t in;                                  /* Temporary variable */
 136:.\DSP\Source\TransformFunctions/arm_dct4_f32.c ****         uint32_t i;                                    /* Loop counter */
 137:.\DSP\Source\TransformFunctions/arm_dct4_f32.c **** 
 138:.\DSP\Source\TransformFunctions/arm_dct4_f32.c **** 
 139:.\DSP\Source\TransformFunctions/arm_dct4_f32.c ****   /* DCT4 computation involves DCT2 (which is calculated using RFFT)
 140:.\DSP\Source\TransformFunctions/arm_dct4_f32.c ****    * along with some pre-processing and post-processing.
 141:.\DSP\Source\TransformFunctions/arm_dct4_f32.c ****    * Computational procedure is explained as follows:
 142:.\DSP\Source\TransformFunctions/arm_dct4_f32.c ****    * (a) Pre-processing involves multiplying input with cos factor,
 143:.\DSP\Source\TransformFunctions/arm_dct4_f32.c ****    *     r(n) = 2 * u(n) * cos(pi*(2*n+1)/(4*n))
 144:.\DSP\Source\TransformFunctions/arm_dct4_f32.c ****    *              where,
 145:.\DSP\Source\TransformFunctions/arm_dct4_f32.c ****    *                 r(n) -- output of preprocessing
 146:.\DSP\Source\TransformFunctions/arm_dct4_f32.c ****    *                 u(n) -- input to preprocessing(actual Source buffer)
 147:.\DSP\Source\TransformFunctions/arm_dct4_f32.c ****    * (b) Calculation of DCT2 using FFT is divided into three steps:
 148:.\DSP\Source\TransformFunctions/arm_dct4_f32.c ****    *                  Step1: Re-ordering of even and odd elements of input.
 149:.\DSP\Source\TransformFunctions/arm_dct4_f32.c ****    *                  Step2: Calculating FFT of the re-ordered input.
 150:.\DSP\Source\TransformFunctions/arm_dct4_f32.c ****    *                  Step3: Taking the real part of the product of FFT output and weights.
 151:.\DSP\Source\TransformFunctions/arm_dct4_f32.c ****    * (c) Post-processing - DCT4 can be obtained from DCT2 output using the following equation:
 152:.\DSP\Source\TransformFunctions/arm_dct4_f32.c ****    *                   Y4(k) = Y2(k) - Y4(k-1) and Y4(-1) = Y4(0)
 153:.\DSP\Source\TransformFunctions/arm_dct4_f32.c ****    *                        where,
 154:.\DSP\Source\TransformFunctions/arm_dct4_f32.c ****    *                           Y4 -- DCT4 output,   Y2 -- DCT2 output
 155:.\DSP\Source\TransformFunctions/arm_dct4_f32.c ****    * (d) Multiplying the output with the normalizing factor sqrt(2/N).
 156:.\DSP\Source\TransformFunctions/arm_dct4_f32.c ****    */
 157:.\DSP\Source\TransformFunctions/arm_dct4_f32.c **** 
 158:.\DSP\Source\TransformFunctions/arm_dct4_f32.c ****   /*-------- Pre-processing ------------*/
 159:.\DSP\Source\TransformFunctions/arm_dct4_f32.c ****   /* Multiplying input with cos factor i.e. r(n) = 2 * x(n) * cos(pi*(2*n+1)/(4*n)) */
 160:.\DSP\Source\TransformFunctions/arm_dct4_f32.c ****   arm_scale_f32(pInlineBuffer, 2.0f, pInlineBuffer, S->N);
  51              		.loc 1 160 0
  52 0010 1046     		mov	r0, r2
  53              	.LVL3:
  54 0012 4FF08041 		mov	r1, #1073741824
  55              	.LVL4:
  56 0016 3388     		ldrh	r3, [r6]
  57 0018 FFF7FEFF 		bl	arm_scale_f32
  58              	.LVL5:
 161:.\DSP\Source\TransformFunctions/arm_dct4_f32.c ****   arm_mult_f32(pInlineBuffer, cosFact, pInlineBuffer, S->N);
  59              		.loc 1 161 0
  60 001c 2846     		mov	r0, r5
  61 001e 4146     		mov	r1, r8
  62 0020 2A46     		mov	r2, r5
  63 0022 3388     		ldrh	r3, [r6]
  64 0024 FFF7FEFF 		bl	arm_mult_f32
  65              	.LVL6:
 162:.\DSP\Source\TransformFunctions/arm_dct4_f32.c **** 
 163:.\DSP\Source\TransformFunctions/arm_dct4_f32.c ****   /* ----------------------------------------------------------------
ARM GAS  C:\Users\IVYLIU~1\AppData\Local\Temp\ccqB3Moq.s 			page 5


 164:.\DSP\Source\TransformFunctions/arm_dct4_f32.c ****    * Step1: Re-ordering of even and odd elements as
 165:.\DSP\Source\TransformFunctions/arm_dct4_f32.c ****    *             pState[i] =  pInlineBuffer[2*i] and
 166:.\DSP\Source\TransformFunctions/arm_dct4_f32.c ****    *             pState[N-i-1] = pInlineBuffer[2*i+1] where i = 0 to N/2
 167:.\DSP\Source\TransformFunctions/arm_dct4_f32.c ****    ---------------------------------------------------------------------*/
 168:.\DSP\Source\TransformFunctions/arm_dct4_f32.c **** 
 169:.\DSP\Source\TransformFunctions/arm_dct4_f32.c ****   /* pS1 initialized to pState */
 170:.\DSP\Source\TransformFunctions/arm_dct4_f32.c ****   pS1 = pState;
 171:.\DSP\Source\TransformFunctions/arm_dct4_f32.c **** 
 172:.\DSP\Source\TransformFunctions/arm_dct4_f32.c ****   /* pS2 initialized to pState+N-1, so that it points to the end of the state buffer */
 173:.\DSP\Source\TransformFunctions/arm_dct4_f32.c ****   pS2 = pState + (S->N - 1U);
  66              		.loc 1 173 0
  67 0028 3288     		ldrh	r2, [r6]
  68 002a 02F18042 		add	r2, r2, #1073741824
  69 002e 013A     		subs	r2, r2, #1
  70 0030 04EB8202 		add	r2, r4, r2, lsl #2
  71              	.LVL7:
 174:.\DSP\Source\TransformFunctions/arm_dct4_f32.c **** 
 175:.\DSP\Source\TransformFunctions/arm_dct4_f32.c ****   /* pbuff initialized to input buffer */
 176:.\DSP\Source\TransformFunctions/arm_dct4_f32.c ****   pbuff = pInlineBuffer;
 177:.\DSP\Source\TransformFunctions/arm_dct4_f32.c **** 
 178:.\DSP\Source\TransformFunctions/arm_dct4_f32.c **** 
 179:.\DSP\Source\TransformFunctions/arm_dct4_f32.c **** #if defined (ARM_MATH_LOOPUNROLL)
 180:.\DSP\Source\TransformFunctions/arm_dct4_f32.c **** 
 181:.\DSP\Source\TransformFunctions/arm_dct4_f32.c ****   /* Initializing the loop counter to N/2 >> 2 for loop unrolling by 4 */
 182:.\DSP\Source\TransformFunctions/arm_dct4_f32.c ****   i = S->Nby2 >> 2U;
 183:.\DSP\Source\TransformFunctions/arm_dct4_f32.c **** 
 184:.\DSP\Source\TransformFunctions/arm_dct4_f32.c ****   /* First part of the processing with loop unrolling.  Compute 4 outputs at a time.
 185:.\DSP\Source\TransformFunctions/arm_dct4_f32.c ****    ** a second loop below computes the remaining 1 to 3 samples. */
 186:.\DSP\Source\TransformFunctions/arm_dct4_f32.c ****   do
 187:.\DSP\Source\TransformFunctions/arm_dct4_f32.c ****   {
 188:.\DSP\Source\TransformFunctions/arm_dct4_f32.c ****     /* Re-ordering of even and odd elements */
 189:.\DSP\Source\TransformFunctions/arm_dct4_f32.c ****     /* pState[i] =  pInlineBuffer[2*i] */
 190:.\DSP\Source\TransformFunctions/arm_dct4_f32.c ****     *pS1++ = *pbuff++;
 191:.\DSP\Source\TransformFunctions/arm_dct4_f32.c ****     /* pState[N-i-1] = pInlineBuffer[2*i+1] */
 192:.\DSP\Source\TransformFunctions/arm_dct4_f32.c ****     *pS2-- = *pbuff++;
 193:.\DSP\Source\TransformFunctions/arm_dct4_f32.c **** 
 194:.\DSP\Source\TransformFunctions/arm_dct4_f32.c ****     *pS1++ = *pbuff++;
 195:.\DSP\Source\TransformFunctions/arm_dct4_f32.c ****     *pS2-- = *pbuff++;
 196:.\DSP\Source\TransformFunctions/arm_dct4_f32.c **** 
 197:.\DSP\Source\TransformFunctions/arm_dct4_f32.c ****     *pS1++ = *pbuff++;
 198:.\DSP\Source\TransformFunctions/arm_dct4_f32.c ****     *pS2-- = *pbuff++;
 199:.\DSP\Source\TransformFunctions/arm_dct4_f32.c **** 
 200:.\DSP\Source\TransformFunctions/arm_dct4_f32.c ****     *pS1++ = *pbuff++;
 201:.\DSP\Source\TransformFunctions/arm_dct4_f32.c ****     *pS2-- = *pbuff++;
 202:.\DSP\Source\TransformFunctions/arm_dct4_f32.c **** 
 203:.\DSP\Source\TransformFunctions/arm_dct4_f32.c ****     /* Decrement loop counter */
 204:.\DSP\Source\TransformFunctions/arm_dct4_f32.c ****     i--;
 205:.\DSP\Source\TransformFunctions/arm_dct4_f32.c ****   } while (i > 0U);
 206:.\DSP\Source\TransformFunctions/arm_dct4_f32.c **** 
 207:.\DSP\Source\TransformFunctions/arm_dct4_f32.c ****   /* pbuff initialized to input buffer */
 208:.\DSP\Source\TransformFunctions/arm_dct4_f32.c ****   pbuff = pInlineBuffer;
 209:.\DSP\Source\TransformFunctions/arm_dct4_f32.c **** 
 210:.\DSP\Source\TransformFunctions/arm_dct4_f32.c ****   /* pS1 initialized to pState */
 211:.\DSP\Source\TransformFunctions/arm_dct4_f32.c ****   pS1 = pState;
 212:.\DSP\Source\TransformFunctions/arm_dct4_f32.c **** 
 213:.\DSP\Source\TransformFunctions/arm_dct4_f32.c ****   /* Initializing the loop counter to N/4 instead of N for loop unrolling */
 214:.\DSP\Source\TransformFunctions/arm_dct4_f32.c ****   i = S->N >> 2U;
ARM GAS  C:\Users\IVYLIU~1\AppData\Local\Temp\ccqB3Moq.s 			page 6


 215:.\DSP\Source\TransformFunctions/arm_dct4_f32.c **** 
 216:.\DSP\Source\TransformFunctions/arm_dct4_f32.c ****   /* Processing with loop unrolling 4 times as N is always multiple of 4.
 217:.\DSP\Source\TransformFunctions/arm_dct4_f32.c ****    * Compute 4 outputs at a time */
 218:.\DSP\Source\TransformFunctions/arm_dct4_f32.c ****   do
 219:.\DSP\Source\TransformFunctions/arm_dct4_f32.c ****   {
 220:.\DSP\Source\TransformFunctions/arm_dct4_f32.c ****     /* Writing the re-ordered output back to inplace input buffer */
 221:.\DSP\Source\TransformFunctions/arm_dct4_f32.c ****     *pbuff++ = *pS1++;
 222:.\DSP\Source\TransformFunctions/arm_dct4_f32.c ****     *pbuff++ = *pS1++;
 223:.\DSP\Source\TransformFunctions/arm_dct4_f32.c ****     *pbuff++ = *pS1++;
 224:.\DSP\Source\TransformFunctions/arm_dct4_f32.c ****     *pbuff++ = *pS1++;
 225:.\DSP\Source\TransformFunctions/arm_dct4_f32.c **** 
 226:.\DSP\Source\TransformFunctions/arm_dct4_f32.c ****     /* Decrement the loop counter */
 227:.\DSP\Source\TransformFunctions/arm_dct4_f32.c ****     i--;
 228:.\DSP\Source\TransformFunctions/arm_dct4_f32.c ****   } while (i > 0U);
 229:.\DSP\Source\TransformFunctions/arm_dct4_f32.c **** 
 230:.\DSP\Source\TransformFunctions/arm_dct4_f32.c **** 
 231:.\DSP\Source\TransformFunctions/arm_dct4_f32.c ****   /* ---------------------------------------------------------
 232:.\DSP\Source\TransformFunctions/arm_dct4_f32.c ****    *     Step2: Calculate RFFT for N-point input
 233:.\DSP\Source\TransformFunctions/arm_dct4_f32.c ****    * ---------------------------------------------------------- */
 234:.\DSP\Source\TransformFunctions/arm_dct4_f32.c ****   /* pInlineBuffer is real input of length N , pState is the complex output of length 2N */
 235:.\DSP\Source\TransformFunctions/arm_dct4_f32.c ****   arm_rfft_f32 (S->pRfft, pInlineBuffer, pState);
 236:.\DSP\Source\TransformFunctions/arm_dct4_f32.c **** 
 237:.\DSP\Source\TransformFunctions/arm_dct4_f32.c ****   /*----------------------------------------------------------------------
 238:.\DSP\Source\TransformFunctions/arm_dct4_f32.c ****    *  Step3: Multiply the FFT output with the weights.
 239:.\DSP\Source\TransformFunctions/arm_dct4_f32.c ****    *----------------------------------------------------------------------*/
 240:.\DSP\Source\TransformFunctions/arm_dct4_f32.c ****   arm_cmplx_mult_cmplx_f32 (pState, weights, pState, S->N);
 241:.\DSP\Source\TransformFunctions/arm_dct4_f32.c **** 
 242:.\DSP\Source\TransformFunctions/arm_dct4_f32.c ****   /* ----------- Post-processing ---------- */
 243:.\DSP\Source\TransformFunctions/arm_dct4_f32.c ****   /* DCT-IV can be obtained from DCT-II by the equation,
 244:.\DSP\Source\TransformFunctions/arm_dct4_f32.c ****    *       Y4(k) = Y2(k) - Y4(k-1) and Y4(-1) = Y4(0)
 245:.\DSP\Source\TransformFunctions/arm_dct4_f32.c ****    *       Hence, Y4(0) = Y2(0)/2  */
 246:.\DSP\Source\TransformFunctions/arm_dct4_f32.c ****   /* Getting only real part from the output and Converting to DCT-IV */
 247:.\DSP\Source\TransformFunctions/arm_dct4_f32.c **** 
 248:.\DSP\Source\TransformFunctions/arm_dct4_f32.c ****   /* Initializing the loop counter to N >> 2 for loop unrolling by 4 */
 249:.\DSP\Source\TransformFunctions/arm_dct4_f32.c ****   i = (S->N - 1U) >> 2U;
 250:.\DSP\Source\TransformFunctions/arm_dct4_f32.c **** 
 251:.\DSP\Source\TransformFunctions/arm_dct4_f32.c ****   /* pbuff initialized to input buffer. */
 252:.\DSP\Source\TransformFunctions/arm_dct4_f32.c ****   pbuff = pInlineBuffer;
 253:.\DSP\Source\TransformFunctions/arm_dct4_f32.c **** 
 254:.\DSP\Source\TransformFunctions/arm_dct4_f32.c ****   /* pS1 initialized to pState */
 255:.\DSP\Source\TransformFunctions/arm_dct4_f32.c ****   pS1 = pState;
 256:.\DSP\Source\TransformFunctions/arm_dct4_f32.c **** 
 257:.\DSP\Source\TransformFunctions/arm_dct4_f32.c ****   /* Calculating Y4(0) from Y2(0) using Y4(0) = Y2(0)/2 */
 258:.\DSP\Source\TransformFunctions/arm_dct4_f32.c ****   in = *pS1++ * (float32_t) 0.5;
 259:.\DSP\Source\TransformFunctions/arm_dct4_f32.c ****   /* input buffer acts as inplace, so output values are stored in the input itself. */
 260:.\DSP\Source\TransformFunctions/arm_dct4_f32.c ****   *pbuff++ = in;
 261:.\DSP\Source\TransformFunctions/arm_dct4_f32.c **** 
 262:.\DSP\Source\TransformFunctions/arm_dct4_f32.c ****   /* pState pointer is incremented twice as the real values are located alternatively in the array 
 263:.\DSP\Source\TransformFunctions/arm_dct4_f32.c ****   pS1++;
 264:.\DSP\Source\TransformFunctions/arm_dct4_f32.c **** 
 265:.\DSP\Source\TransformFunctions/arm_dct4_f32.c ****   /* First part of the processing with loop unrolling.  Compute 4 outputs at a time.
 266:.\DSP\Source\TransformFunctions/arm_dct4_f32.c ****    ** a second loop below computes the remaining 1 to 3 samples. */
 267:.\DSP\Source\TransformFunctions/arm_dct4_f32.c ****   do
 268:.\DSP\Source\TransformFunctions/arm_dct4_f32.c ****   {
 269:.\DSP\Source\TransformFunctions/arm_dct4_f32.c ****     /* Calculating Y4(1) to Y4(N-1) from Y2 using equation Y4(k) = Y2(k) - Y4(k-1) */
 270:.\DSP\Source\TransformFunctions/arm_dct4_f32.c ****     /* pState pointer (pS1) is incremented twice as the real values are located alternatively in th
 271:.\DSP\Source\TransformFunctions/arm_dct4_f32.c ****     in = *pS1++ - in;
ARM GAS  C:\Users\IVYLIU~1\AppData\Local\Temp\ccqB3Moq.s 			page 7


 272:.\DSP\Source\TransformFunctions/arm_dct4_f32.c ****     *pbuff++ = in;
 273:.\DSP\Source\TransformFunctions/arm_dct4_f32.c ****     /* points to the next real value */
 274:.\DSP\Source\TransformFunctions/arm_dct4_f32.c ****     pS1++;
 275:.\DSP\Source\TransformFunctions/arm_dct4_f32.c **** 
 276:.\DSP\Source\TransformFunctions/arm_dct4_f32.c ****     in = *pS1++ - in;
 277:.\DSP\Source\TransformFunctions/arm_dct4_f32.c ****     *pbuff++ = in;
 278:.\DSP\Source\TransformFunctions/arm_dct4_f32.c ****     pS1++;
 279:.\DSP\Source\TransformFunctions/arm_dct4_f32.c **** 
 280:.\DSP\Source\TransformFunctions/arm_dct4_f32.c ****     in = *pS1++ - in;
 281:.\DSP\Source\TransformFunctions/arm_dct4_f32.c ****     *pbuff++ = in;
 282:.\DSP\Source\TransformFunctions/arm_dct4_f32.c ****     pS1++;
 283:.\DSP\Source\TransformFunctions/arm_dct4_f32.c **** 
 284:.\DSP\Source\TransformFunctions/arm_dct4_f32.c ****     in = *pS1++ - in;
 285:.\DSP\Source\TransformFunctions/arm_dct4_f32.c ****     *pbuff++ = in;
 286:.\DSP\Source\TransformFunctions/arm_dct4_f32.c ****     pS1++;
 287:.\DSP\Source\TransformFunctions/arm_dct4_f32.c **** 
 288:.\DSP\Source\TransformFunctions/arm_dct4_f32.c ****     /* Decrement the loop counter */
 289:.\DSP\Source\TransformFunctions/arm_dct4_f32.c ****     i--;
 290:.\DSP\Source\TransformFunctions/arm_dct4_f32.c ****   } while (i > 0U);
 291:.\DSP\Source\TransformFunctions/arm_dct4_f32.c **** 
 292:.\DSP\Source\TransformFunctions/arm_dct4_f32.c ****   /* If the blockSize is not a multiple of 4, compute any remaining output samples here.
 293:.\DSP\Source\TransformFunctions/arm_dct4_f32.c ****    ** No loop unrolling is used. */
 294:.\DSP\Source\TransformFunctions/arm_dct4_f32.c ****   i = (S->N - 1U) % 0x4U;
 295:.\DSP\Source\TransformFunctions/arm_dct4_f32.c **** 
 296:.\DSP\Source\TransformFunctions/arm_dct4_f32.c ****   while (i > 0U)
 297:.\DSP\Source\TransformFunctions/arm_dct4_f32.c ****   {
 298:.\DSP\Source\TransformFunctions/arm_dct4_f32.c ****     /* Calculating Y4(1) to Y4(N-1) from Y2 using equation Y4(k) = Y2(k) - Y4(k-1) */
 299:.\DSP\Source\TransformFunctions/arm_dct4_f32.c ****     /* pState pointer (pS1) is incremented twice as the real values are located alternatively in th
 300:.\DSP\Source\TransformFunctions/arm_dct4_f32.c ****     in = *pS1++ - in;
 301:.\DSP\Source\TransformFunctions/arm_dct4_f32.c ****     *pbuff++ = in;
 302:.\DSP\Source\TransformFunctions/arm_dct4_f32.c **** 
 303:.\DSP\Source\TransformFunctions/arm_dct4_f32.c ****     /* points to the next real value */
 304:.\DSP\Source\TransformFunctions/arm_dct4_f32.c ****     pS1++;
 305:.\DSP\Source\TransformFunctions/arm_dct4_f32.c **** 
 306:.\DSP\Source\TransformFunctions/arm_dct4_f32.c ****     /* Decrement the loop counter */
 307:.\DSP\Source\TransformFunctions/arm_dct4_f32.c ****     i--;
 308:.\DSP\Source\TransformFunctions/arm_dct4_f32.c ****   }
 309:.\DSP\Source\TransformFunctions/arm_dct4_f32.c **** 
 310:.\DSP\Source\TransformFunctions/arm_dct4_f32.c **** 
 311:.\DSP\Source\TransformFunctions/arm_dct4_f32.c ****   /*------------ Normalizing the output by multiplying with the normalizing factor ----------*/
 312:.\DSP\Source\TransformFunctions/arm_dct4_f32.c **** 
 313:.\DSP\Source\TransformFunctions/arm_dct4_f32.c ****   /* Initializing the loop counter to N/4 instead of N for loop unrolling */
 314:.\DSP\Source\TransformFunctions/arm_dct4_f32.c ****   i = S->N >> 2U;
 315:.\DSP\Source\TransformFunctions/arm_dct4_f32.c **** 
 316:.\DSP\Source\TransformFunctions/arm_dct4_f32.c ****   /* pbuff initialized to the pInlineBuffer(now contains the output values) */
 317:.\DSP\Source\TransformFunctions/arm_dct4_f32.c ****   pbuff = pInlineBuffer;
 318:.\DSP\Source\TransformFunctions/arm_dct4_f32.c **** 
 319:.\DSP\Source\TransformFunctions/arm_dct4_f32.c ****   /* Processing with loop unrolling 4 times as N is always multiple of 4.  Compute 4 outputs at a t
 320:.\DSP\Source\TransformFunctions/arm_dct4_f32.c ****   do
 321:.\DSP\Source\TransformFunctions/arm_dct4_f32.c ****   {
 322:.\DSP\Source\TransformFunctions/arm_dct4_f32.c ****     /* Multiplying pInlineBuffer with the normalizing factor sqrt(2/N) */
 323:.\DSP\Source\TransformFunctions/arm_dct4_f32.c ****     in = *pbuff;
 324:.\DSP\Source\TransformFunctions/arm_dct4_f32.c ****     *pbuff++ = in * S->normalize;
 325:.\DSP\Source\TransformFunctions/arm_dct4_f32.c **** 
 326:.\DSP\Source\TransformFunctions/arm_dct4_f32.c ****     in = *pbuff;
 327:.\DSP\Source\TransformFunctions/arm_dct4_f32.c ****     *pbuff++ = in * S->normalize;
 328:.\DSP\Source\TransformFunctions/arm_dct4_f32.c **** 
ARM GAS  C:\Users\IVYLIU~1\AppData\Local\Temp\ccqB3Moq.s 			page 8


 329:.\DSP\Source\TransformFunctions/arm_dct4_f32.c ****     in = *pbuff;
 330:.\DSP\Source\TransformFunctions/arm_dct4_f32.c ****     *pbuff++ = in * S->normalize;
 331:.\DSP\Source\TransformFunctions/arm_dct4_f32.c **** 
 332:.\DSP\Source\TransformFunctions/arm_dct4_f32.c ****     in = *pbuff;
 333:.\DSP\Source\TransformFunctions/arm_dct4_f32.c ****     *pbuff++ = in * S->normalize;
 334:.\DSP\Source\TransformFunctions/arm_dct4_f32.c **** 
 335:.\DSP\Source\TransformFunctions/arm_dct4_f32.c ****     /* Decrement the loop counter */
 336:.\DSP\Source\TransformFunctions/arm_dct4_f32.c ****     i--;
 337:.\DSP\Source\TransformFunctions/arm_dct4_f32.c ****   } while (i > 0U);
 338:.\DSP\Source\TransformFunctions/arm_dct4_f32.c **** 
 339:.\DSP\Source\TransformFunctions/arm_dct4_f32.c **** 
 340:.\DSP\Source\TransformFunctions/arm_dct4_f32.c **** #else
 341:.\DSP\Source\TransformFunctions/arm_dct4_f32.c **** 
 342:.\DSP\Source\TransformFunctions/arm_dct4_f32.c ****   /* Initializing the loop counter to N/2 */
 343:.\DSP\Source\TransformFunctions/arm_dct4_f32.c ****   i = S->Nby2;
  72              		.loc 1 343 0
  73 0034 B6F802E0 		ldrh	lr, [r6, #2]
  74              	.LVL8:
 176:.\DSP\Source\TransformFunctions/arm_dct4_f32.c **** 
  75              		.loc 1 176 0
  76 0038 2846     		mov	r0, r5
 170:.\DSP\Source\TransformFunctions/arm_dct4_f32.c **** 
  77              		.loc 1 170 0
  78 003a 2146     		mov	r1, r4
  79              	.LVL9:
  80              	.L2:
 344:.\DSP\Source\TransformFunctions/arm_dct4_f32.c **** 
 345:.\DSP\Source\TransformFunctions/arm_dct4_f32.c ****   do
 346:.\DSP\Source\TransformFunctions/arm_dct4_f32.c ****   {
 347:.\DSP\Source\TransformFunctions/arm_dct4_f32.c ****     /* Re-ordering of even and odd elements */
 348:.\DSP\Source\TransformFunctions/arm_dct4_f32.c ****     /* pState[i] =  pInlineBuffer[2*i] */
 349:.\DSP\Source\TransformFunctions/arm_dct4_f32.c ****     *pS1++ = *pbuff++;
  81              		.loc 1 349 0 discriminator 1
  82 003c 0346     		mov	r3, r0
  83 003e 53F808CB 		ldr	ip, [r3], #8	@ float
  84 0042 C1F800C0 		str	ip, [r1]	@ float
  85              	.LVL10:
 350:.\DSP\Source\TransformFunctions/arm_dct4_f32.c ****     /* pState[N-i-1] = pInlineBuffer[2*i+1] */
 351:.\DSP\Source\TransformFunctions/arm_dct4_f32.c ****     *pS2-- = *pbuff++;
  86              		.loc 1 351 0 discriminator 1
  87 0046 4068     		ldr	r0, [r0, #4]	@ float
  88 0048 1060     		str	r0, [r2]	@ float
  89              	.LVL11:
 349:.\DSP\Source\TransformFunctions/arm_dct4_f32.c ****     /* pState[N-i-1] = pInlineBuffer[2*i+1] */
  90              		.loc 1 349 0 discriminator 1
  91 004a 0431     		adds	r1, r1, #4
  92              	.LVL12:
  93              		.loc 1 351 0 discriminator 1
  94 004c 043A     		subs	r2, r2, #4
  95              	.LVL13:
  96 004e 1846     		mov	r0, r3
 352:.\DSP\Source\TransformFunctions/arm_dct4_f32.c **** 
 353:.\DSP\Source\TransformFunctions/arm_dct4_f32.c ****     /* Decrement the loop counter */
 354:.\DSP\Source\TransformFunctions/arm_dct4_f32.c ****     i--;
 355:.\DSP\Source\TransformFunctions/arm_dct4_f32.c ****   } while (i > 0U);
  97              		.loc 1 355 0 discriminator 1
  98 0050 BEF1010E 		subs	lr, lr, #1
ARM GAS  C:\Users\IVYLIU~1\AppData\Local\Temp\ccqB3Moq.s 			page 9


  99              	.LVL14:
 100 0054 F2D1     		bne	.L2
 101              	.LVL15:
 356:.\DSP\Source\TransformFunctions/arm_dct4_f32.c **** 
 357:.\DSP\Source\TransformFunctions/arm_dct4_f32.c ****   /* pbuff initialized to input buffer */
 358:.\DSP\Source\TransformFunctions/arm_dct4_f32.c ****   pbuff = pInlineBuffer;
 359:.\DSP\Source\TransformFunctions/arm_dct4_f32.c **** 
 360:.\DSP\Source\TransformFunctions/arm_dct4_f32.c ****   /* pS1 initialized to pState */
 361:.\DSP\Source\TransformFunctions/arm_dct4_f32.c ****   pS1 = pState;
 362:.\DSP\Source\TransformFunctions/arm_dct4_f32.c **** 
 363:.\DSP\Source\TransformFunctions/arm_dct4_f32.c ****   /* Initializing the loop counter */
 364:.\DSP\Source\TransformFunctions/arm_dct4_f32.c ****   i = S->N;
 102              		.loc 1 364 0
 103 0056 3188     		ldrh	r1, [r6]
 104              	.LVL16:
 358:.\DSP\Source\TransformFunctions/arm_dct4_f32.c **** 
 105              		.loc 1 358 0
 106 0058 2A46     		mov	r2, r5
 107              	.LVL17:
 361:.\DSP\Source\TransformFunctions/arm_dct4_f32.c **** 
 108              		.loc 1 361 0
 109 005a 2346     		mov	r3, r4
 110              	.LVL18:
 111              	.L3:
 365:.\DSP\Source\TransformFunctions/arm_dct4_f32.c **** 
 366:.\DSP\Source\TransformFunctions/arm_dct4_f32.c ****   do
 367:.\DSP\Source\TransformFunctions/arm_dct4_f32.c ****   {
 368:.\DSP\Source\TransformFunctions/arm_dct4_f32.c ****     /* Writing the re-ordered output back to inplace input buffer */
 369:.\DSP\Source\TransformFunctions/arm_dct4_f32.c ****     *pbuff++ = *pS1++;
 112              		.loc 1 369 0 discriminator 1
 113 005c 1868     		ldr	r0, [r3]	@ float
 114 005e 1060     		str	r0, [r2]	@ float
 115              	.LVL19:
 116 0060 0433     		adds	r3, r3, #4
 117              	.LVL20:
 118 0062 0432     		adds	r2, r2, #4
 119              	.LVL21:
 370:.\DSP\Source\TransformFunctions/arm_dct4_f32.c **** 
 371:.\DSP\Source\TransformFunctions/arm_dct4_f32.c ****     /* Decrement the loop counter */
 372:.\DSP\Source\TransformFunctions/arm_dct4_f32.c ****     i--;
 373:.\DSP\Source\TransformFunctions/arm_dct4_f32.c ****   } while (i > 0U);
 120              		.loc 1 373 0 discriminator 1
 121 0064 0139     		subs	r1, r1, #1
 122              	.LVL22:
 123 0066 F9D1     		bne	.L3
 374:.\DSP\Source\TransformFunctions/arm_dct4_f32.c **** 
 375:.\DSP\Source\TransformFunctions/arm_dct4_f32.c **** 
 376:.\DSP\Source\TransformFunctions/arm_dct4_f32.c ****   /* ---------------------------------------------------------
 377:.\DSP\Source\TransformFunctions/arm_dct4_f32.c ****    *     Step2: Calculate RFFT for N-point input
 378:.\DSP\Source\TransformFunctions/arm_dct4_f32.c ****    * ---------------------------------------------------------- */
 379:.\DSP\Source\TransformFunctions/arm_dct4_f32.c ****   /* pInlineBuffer is real input of length N , pState is the complex output of length 2N */
 380:.\DSP\Source\TransformFunctions/arm_dct4_f32.c ****   arm_rfft_f32 (S->pRfft, pInlineBuffer, pState);
 124              		.loc 1 380 0
 125 0068 3069     		ldr	r0, [r6, #16]
 126 006a 2946     		mov	r1, r5
 127              	.LVL23:
 128 006c 2246     		mov	r2, r4
ARM GAS  C:\Users\IVYLIU~1\AppData\Local\Temp\ccqB3Moq.s 			page 10


 129              	.LVL24:
 130 006e FFF7FEFF 		bl	arm_rfft_f32
 131              	.LVL25:
 381:.\DSP\Source\TransformFunctions/arm_dct4_f32.c **** 
 382:.\DSP\Source\TransformFunctions/arm_dct4_f32.c ****   /*----------------------------------------------------------------------
 383:.\DSP\Source\TransformFunctions/arm_dct4_f32.c ****    *  Step3: Multiply the FFT output with the weights.
 384:.\DSP\Source\TransformFunctions/arm_dct4_f32.c ****    *----------------------------------------------------------------------*/
 385:.\DSP\Source\TransformFunctions/arm_dct4_f32.c ****   arm_cmplx_mult_cmplx_f32 (pState, weights, pState, S->N);
 132              		.loc 1 385 0
 133 0072 2046     		mov	r0, r4
 134 0074 3946     		mov	r1, r7
 135 0076 2246     		mov	r2, r4
 136 0078 3388     		ldrh	r3, [r6]
 137 007a FFF7FEFF 		bl	arm_cmplx_mult_cmplx_f32
 138              	.LVL26:
 386:.\DSP\Source\TransformFunctions/arm_dct4_f32.c **** 
 387:.\DSP\Source\TransformFunctions/arm_dct4_f32.c ****   /* ----------- Post-processing ---------- */
 388:.\DSP\Source\TransformFunctions/arm_dct4_f32.c ****   /* DCT-IV can be obtained from DCT-II by the equation,
 389:.\DSP\Source\TransformFunctions/arm_dct4_f32.c ****    *       Y4(k) = Y2(k) - Y4(k-1) and Y4(-1) = Y4(0)
 390:.\DSP\Source\TransformFunctions/arm_dct4_f32.c ****    *       Hence, Y4(0) = Y2(0)/2  */
 391:.\DSP\Source\TransformFunctions/arm_dct4_f32.c ****   /* Getting only real part from the output and Converting to DCT-IV */
 392:.\DSP\Source\TransformFunctions/arm_dct4_f32.c **** 
 393:.\DSP\Source\TransformFunctions/arm_dct4_f32.c ****   /* pbuff initialized to input buffer. */
 394:.\DSP\Source\TransformFunctions/arm_dct4_f32.c ****   pbuff = pInlineBuffer;
 395:.\DSP\Source\TransformFunctions/arm_dct4_f32.c **** 
 396:.\DSP\Source\TransformFunctions/arm_dct4_f32.c ****   /* pS1 initialized to pState */
 397:.\DSP\Source\TransformFunctions/arm_dct4_f32.c ****   pS1 = pState;
 398:.\DSP\Source\TransformFunctions/arm_dct4_f32.c **** 
 399:.\DSP\Source\TransformFunctions/arm_dct4_f32.c ****   /* Calculating Y4(0) from Y2(0) using Y4(0) = Y2(0)/2 */
 400:.\DSP\Source\TransformFunctions/arm_dct4_f32.c ****   in = *pS1++ * (float32_t) 0.5;
 139              		.loc 1 400 0
 140 007e A046     		mov	r8, r4
 141              	.LVL27:
 142 0080 58F8080B 		ldr	r0, [r8], #8	@ float
 143 0084 4FF07C51 		mov	r1, #1056964608
 144 0088 FFF7FEFF 		bl	__aeabi_fmul
 145              	.LVL28:
 146 008c 0146     		mov	r1, r0
 147              	.LVL29:
 401:.\DSP\Source\TransformFunctions/arm_dct4_f32.c ****   /* input buffer acts as inplace, so output values are stored in the input itself. */
 402:.\DSP\Source\TransformFunctions/arm_dct4_f32.c ****   *pbuff++ = in;
 148              		.loc 1 402 0
 149 008e 2F1D     		adds	r7, r5, #4
 150              	.LVL30:
 151 0090 2860     		str	r0, [r5]	@ float
 152              	.LVL31:
 403:.\DSP\Source\TransformFunctions/arm_dct4_f32.c **** 
 404:.\DSP\Source\TransformFunctions/arm_dct4_f32.c ****   /* pState pointer is incremented twice as the real values are located alternatively in the array 
 405:.\DSP\Source\TransformFunctions/arm_dct4_f32.c ****   pS1++;
 406:.\DSP\Source\TransformFunctions/arm_dct4_f32.c **** 
 407:.\DSP\Source\TransformFunctions/arm_dct4_f32.c ****   /* Initializing the loop counter */
 408:.\DSP\Source\TransformFunctions/arm_dct4_f32.c ****   i = (S->N - 1U);
 153              		.loc 1 408 0
 154 0092 3488     		ldrh	r4, [r6]
 155              	.LVL32:
 156 0094 013C     		subs	r4, r4, #1
 157              	.LVL33:
ARM GAS  C:\Users\IVYLIU~1\AppData\Local\Temp\ccqB3Moq.s 			page 11


 158              	.L4:
 409:.\DSP\Source\TransformFunctions/arm_dct4_f32.c **** 
 410:.\DSP\Source\TransformFunctions/arm_dct4_f32.c ****   do
 411:.\DSP\Source\TransformFunctions/arm_dct4_f32.c ****   {
 412:.\DSP\Source\TransformFunctions/arm_dct4_f32.c ****     /* Calculating Y4(1) to Y4(N-1) from Y2 using equation Y4(k) = Y2(k) - Y4(k-1) */
 413:.\DSP\Source\TransformFunctions/arm_dct4_f32.c ****     /* pState pointer (pS1) is incremented twice as the real values are located alternatively in th
 414:.\DSP\Source\TransformFunctions/arm_dct4_f32.c ****     in = *pS1++ - in;
 159              		.loc 1 414 0 discriminator 1
 160 0096 58F8080B 		ldr	r0, [r8], #8	@ float
 161              	.LVL34:
 162 009a FFF7FEFF 		bl	__aeabi_fsub
 163              	.LVL35:
 164 009e 0146     		mov	r1, r0
 165              	.LVL36:
 415:.\DSP\Source\TransformFunctions/arm_dct4_f32.c ****     *pbuff++ = in;
 166              		.loc 1 415 0 discriminator 1
 167 00a0 3860     		str	r0, [r7]	@ float
 168              	.LVL37:
 169 00a2 0437     		adds	r7, r7, #4
 170              	.LVL38:
 416:.\DSP\Source\TransformFunctions/arm_dct4_f32.c **** 
 417:.\DSP\Source\TransformFunctions/arm_dct4_f32.c ****     /* points to the next real value */
 418:.\DSP\Source\TransformFunctions/arm_dct4_f32.c ****     pS1++;
 419:.\DSP\Source\TransformFunctions/arm_dct4_f32.c **** 
 420:.\DSP\Source\TransformFunctions/arm_dct4_f32.c ****     /* Decrement loop counter */
 421:.\DSP\Source\TransformFunctions/arm_dct4_f32.c ****     i--;
 422:.\DSP\Source\TransformFunctions/arm_dct4_f32.c ****   } while (i > 0U);
 171              		.loc 1 422 0 discriminator 1
 172 00a4 013C     		subs	r4, r4, #1
 173              	.LVL39:
 174 00a6 F6D1     		bne	.L4
 423:.\DSP\Source\TransformFunctions/arm_dct4_f32.c **** 
 424:.\DSP\Source\TransformFunctions/arm_dct4_f32.c ****   /*------------ Normalizing the output by multiplying with the normalizing factor ----------*/
 425:.\DSP\Source\TransformFunctions/arm_dct4_f32.c **** 
 426:.\DSP\Source\TransformFunctions/arm_dct4_f32.c ****   /* Initializing loop counter */
 427:.\DSP\Source\TransformFunctions/arm_dct4_f32.c ****   i = S->N;
 175              		.loc 1 427 0
 176 00a8 3788     		ldrh	r7, [r6]
 177              	.LVL40:
 178              	.L5:
 428:.\DSP\Source\TransformFunctions/arm_dct4_f32.c **** 
 429:.\DSP\Source\TransformFunctions/arm_dct4_f32.c ****   /* pbuff initialized to the pInlineBuffer (now contains the output values) */
 430:.\DSP\Source\TransformFunctions/arm_dct4_f32.c ****   pbuff = pInlineBuffer;
 431:.\DSP\Source\TransformFunctions/arm_dct4_f32.c **** 
 432:.\DSP\Source\TransformFunctions/arm_dct4_f32.c ****   do
 433:.\DSP\Source\TransformFunctions/arm_dct4_f32.c ****   {
 434:.\DSP\Source\TransformFunctions/arm_dct4_f32.c ****     /* Multiplying pInlineBuffer with the normalizing factor sqrt(2/N) */
 435:.\DSP\Source\TransformFunctions/arm_dct4_f32.c ****     in = *pbuff;
 179              		.loc 1 435 0 discriminator 1
 180 00aa 2C46     		mov	r4, r5
 181              	.LVL41:
 436:.\DSP\Source\TransformFunctions/arm_dct4_f32.c ****     *pbuff++ = in * S->normalize;
 182              		.loc 1 436 0 discriminator 1
 183 00ac 7068     		ldr	r0, [r6, #4]	@ float
 184 00ae 54F8041B 		ldr	r1, [r4], #4	@ float
 185 00b2 FFF7FEFF 		bl	__aeabi_fmul
 186              	.LVL42:
ARM GAS  C:\Users\IVYLIU~1\AppData\Local\Temp\ccqB3Moq.s 			page 12


 187 00b6 2860     		str	r0, [r5]	@ float
 188              	.LVL43:
 189 00b8 2546     		mov	r5, r4
 190              	.LVL44:
 437:.\DSP\Source\TransformFunctions/arm_dct4_f32.c **** 
 438:.\DSP\Source\TransformFunctions/arm_dct4_f32.c ****     /* Decrement loop counter */
 439:.\DSP\Source\TransformFunctions/arm_dct4_f32.c ****     i--;
 440:.\DSP\Source\TransformFunctions/arm_dct4_f32.c ****   } while (i > 0U);
 191              		.loc 1 440 0 discriminator 1
 192 00ba 013F     		subs	r7, r7, #1
 193              	.LVL45:
 194 00bc F5D1     		bne	.L5
 441:.\DSP\Source\TransformFunctions/arm_dct4_f32.c **** 
 442:.\DSP\Source\TransformFunctions/arm_dct4_f32.c **** #endif /* #if defined (ARM_MATH_LOOPUNROLL) */
 443:.\DSP\Source\TransformFunctions/arm_dct4_f32.c **** 
 444:.\DSP\Source\TransformFunctions/arm_dct4_f32.c **** }
 195              		.loc 1 444 0
 196 00be BDE8F081 		pop	{r4, r5, r6, r7, r8, pc}
 197              		.cfi_endproc
 198              	.LFE84:
 199              		.size	arm_dct4_f32, .-arm_dct4_f32
 200 00c2 00BF     		.text
 201              	.Letext0:
 202              		.file 2 "c:\\program files (x86)\\cypress\\psoc creator\\3.3\\psoc creator\\import\\gnu\\arm\\4.9.
 203              		.file 3 "c:\\program files (x86)\\cypress\\psoc creator\\3.3\\psoc creator\\import\\gnu\\arm\\4.9.
 204              		.file 4 ".\\DSP\\Include/arm_math_types.h"
 205              		.file 5 ".\\DSP\\Include/dsp/transform_functions.h"
 206              		.file 6 ".\\Core\\Include/cmsis_gcc.h"
 207              		.file 7 ".\\DSP\\Include/dsp/basic_math_functions.h"
 208              		.file 8 ".\\DSP\\Include/dsp/complex_math_functions.h"