ARM GAS  C:\Users\IVYLIU~1\AppData\Local\Temp\cc0Y0vCL.s 			page 1


   1              		.syntax unified
   2              		.cpu cortex-m3
   3              		.fpu softvfp
   4              		.eabi_attribute 20, 1
   5              		.eabi_attribute 21, 1
   6              		.eabi_attribute 23, 3
   7              		.eabi_attribute 24, 1
   8              		.eabi_attribute 25, 1
   9              		.eabi_attribute 26, 1
  10              		.eabi_attribute 30, 1
  11              		.eabi_attribute 34, 1
  12              		.eabi_attribute 18, 4
  13              		.thumb
  14              		.file	"arm_cmplx_mult_cmplx_q31.c"
  15              		.text
  16              	.Ltext0:
  17              		.cfi_sections	.debug_frame
  18              		.section	.text.arm_cmplx_mult_cmplx_q31,"ax",%progbits
  19              		.align	2
  20              		.global	arm_cmplx_mult_cmplx_q31
  21              		.thumb
  22              		.thumb_func
  23              		.type	arm_cmplx_mult_cmplx_q31, %function
  24              	arm_cmplx_mult_cmplx_q31:
  25              	.LFB84:
  26              		.file 1 ".\\DSP\\Source\\ComplexMathFunctions\\arm_cmplx_mult_cmplx_q31.c"
   1:.\DSP\Source\ComplexMathFunctions/arm_cmplx_mult_cmplx_q31.c **** /* ----------------------------------------------------------------------
   2:.\DSP\Source\ComplexMathFunctions/arm_cmplx_mult_cmplx_q31.c ****  * Project:      CMSIS DSP Library
   3:.\DSP\Source\ComplexMathFunctions/arm_cmplx_mult_cmplx_q31.c ****  * Title:        arm_cmplx_mult_cmplx_q31.c
   4:.\DSP\Source\ComplexMathFunctions/arm_cmplx_mult_cmplx_q31.c ****  * Description:  Q31 complex-by-complex multiplication
   5:.\DSP\Source\ComplexMathFunctions/arm_cmplx_mult_cmplx_q31.c ****  *
   6:.\DSP\Source\ComplexMathFunctions/arm_cmplx_mult_cmplx_q31.c ****  * $Date:        23 April 2021
   7:.\DSP\Source\ComplexMathFunctions/arm_cmplx_mult_cmplx_q31.c ****  * $Revision:    V1.9.0
   8:.\DSP\Source\ComplexMathFunctions/arm_cmplx_mult_cmplx_q31.c ****  *
   9:.\DSP\Source\ComplexMathFunctions/arm_cmplx_mult_cmplx_q31.c ****  * Target Processor: Cortex-M and Cortex-A cores
  10:.\DSP\Source\ComplexMathFunctions/arm_cmplx_mult_cmplx_q31.c ****  * -------------------------------------------------------------------- */
  11:.\DSP\Source\ComplexMathFunctions/arm_cmplx_mult_cmplx_q31.c **** /*
  12:.\DSP\Source\ComplexMathFunctions/arm_cmplx_mult_cmplx_q31.c ****  * Copyright (C) 2010-2021 ARM Limited or its affiliates. All rights reserved.
  13:.\DSP\Source\ComplexMathFunctions/arm_cmplx_mult_cmplx_q31.c ****  *
  14:.\DSP\Source\ComplexMathFunctions/arm_cmplx_mult_cmplx_q31.c ****  * SPDX-License-Identifier: Apache-2.0
  15:.\DSP\Source\ComplexMathFunctions/arm_cmplx_mult_cmplx_q31.c ****  *
  16:.\DSP\Source\ComplexMathFunctions/arm_cmplx_mult_cmplx_q31.c ****  * Licensed under the Apache License, Version 2.0 (the License); you may
  17:.\DSP\Source\ComplexMathFunctions/arm_cmplx_mult_cmplx_q31.c ****  * not use this file except in compliance with the License.
  18:.\DSP\Source\ComplexMathFunctions/arm_cmplx_mult_cmplx_q31.c ****  * You may obtain a copy of the License at
  19:.\DSP\Source\ComplexMathFunctions/arm_cmplx_mult_cmplx_q31.c ****  *
  20:.\DSP\Source\ComplexMathFunctions/arm_cmplx_mult_cmplx_q31.c ****  * www.apache.org/licenses/LICENSE-2.0
  21:.\DSP\Source\ComplexMathFunctions/arm_cmplx_mult_cmplx_q31.c ****  *
  22:.\DSP\Source\ComplexMathFunctions/arm_cmplx_mult_cmplx_q31.c ****  * Unless required by applicable law or agreed to in writing, software
  23:.\DSP\Source\ComplexMathFunctions/arm_cmplx_mult_cmplx_q31.c ****  * distributed under the License is distributed on an AS IS BASIS, WITHOUT
  24:.\DSP\Source\ComplexMathFunctions/arm_cmplx_mult_cmplx_q31.c ****  * WARRANTIES OR CONDITIONS OF ANY KIND, either express or implied.
  25:.\DSP\Source\ComplexMathFunctions/arm_cmplx_mult_cmplx_q31.c ****  * See the License for the specific language governing permissions and
  26:.\DSP\Source\ComplexMathFunctions/arm_cmplx_mult_cmplx_q31.c ****  * limitations under the License.
  27:.\DSP\Source\ComplexMathFunctions/arm_cmplx_mult_cmplx_q31.c ****  */
  28:.\DSP\Source\ComplexMathFunctions/arm_cmplx_mult_cmplx_q31.c **** 
  29:.\DSP\Source\ComplexMathFunctions/arm_cmplx_mult_cmplx_q31.c **** #include "dsp/complex_math_functions.h"
  30:.\DSP\Source\ComplexMathFunctions/arm_cmplx_mult_cmplx_q31.c **** 
  31:.\DSP\Source\ComplexMathFunctions/arm_cmplx_mult_cmplx_q31.c **** /**
ARM GAS  C:\Users\IVYLIU~1\AppData\Local\Temp\cc0Y0vCL.s 			page 2


  32:.\DSP\Source\ComplexMathFunctions/arm_cmplx_mult_cmplx_q31.c ****   @ingroup groupCmplxMath
  33:.\DSP\Source\ComplexMathFunctions/arm_cmplx_mult_cmplx_q31.c ****  */
  34:.\DSP\Source\ComplexMathFunctions/arm_cmplx_mult_cmplx_q31.c **** 
  35:.\DSP\Source\ComplexMathFunctions/arm_cmplx_mult_cmplx_q31.c **** /**
  36:.\DSP\Source\ComplexMathFunctions/arm_cmplx_mult_cmplx_q31.c ****   @addtogroup CmplxByCmplxMult
  37:.\DSP\Source\ComplexMathFunctions/arm_cmplx_mult_cmplx_q31.c ****   @{
  38:.\DSP\Source\ComplexMathFunctions/arm_cmplx_mult_cmplx_q31.c ****  */
  39:.\DSP\Source\ComplexMathFunctions/arm_cmplx_mult_cmplx_q31.c **** 
  40:.\DSP\Source\ComplexMathFunctions/arm_cmplx_mult_cmplx_q31.c **** /**
  41:.\DSP\Source\ComplexMathFunctions/arm_cmplx_mult_cmplx_q31.c ****   @brief         Q31 complex-by-complex multiplication.
  42:.\DSP\Source\ComplexMathFunctions/arm_cmplx_mult_cmplx_q31.c ****   @param[in]     pSrcA       points to first input vector
  43:.\DSP\Source\ComplexMathFunctions/arm_cmplx_mult_cmplx_q31.c ****   @param[in]     pSrcB       points to second input vector
  44:.\DSP\Source\ComplexMathFunctions/arm_cmplx_mult_cmplx_q31.c ****   @param[out]    pDst        points to output vector
  45:.\DSP\Source\ComplexMathFunctions/arm_cmplx_mult_cmplx_q31.c ****   @param[in]     numSamples  number of samples in each vector
  46:.\DSP\Source\ComplexMathFunctions/arm_cmplx_mult_cmplx_q31.c ****   @return        none
  47:.\DSP\Source\ComplexMathFunctions/arm_cmplx_mult_cmplx_q31.c **** 
  48:.\DSP\Source\ComplexMathFunctions/arm_cmplx_mult_cmplx_q31.c ****   @par           Scaling and Overflow Behavior
  49:.\DSP\Source\ComplexMathFunctions/arm_cmplx_mult_cmplx_q31.c ****                    The function implements 1.31 by 1.31 multiplications and finally output is conve
  50:.\DSP\Source\ComplexMathFunctions/arm_cmplx_mult_cmplx_q31.c ****                    Input down scaling is not required.
  51:.\DSP\Source\ComplexMathFunctions/arm_cmplx_mult_cmplx_q31.c ****  */
  52:.\DSP\Source\ComplexMathFunctions/arm_cmplx_mult_cmplx_q31.c **** 
  53:.\DSP\Source\ComplexMathFunctions/arm_cmplx_mult_cmplx_q31.c **** #if defined(ARM_MATH_MVEI) && !defined(ARM_MATH_AUTOVECTORIZE)
  54:.\DSP\Source\ComplexMathFunctions/arm_cmplx_mult_cmplx_q31.c **** void arm_cmplx_mult_cmplx_q31(
  55:.\DSP\Source\ComplexMathFunctions/arm_cmplx_mult_cmplx_q31.c ****   const q31_t * pSrcA,
  56:.\DSP\Source\ComplexMathFunctions/arm_cmplx_mult_cmplx_q31.c ****   const q31_t * pSrcB,
  57:.\DSP\Source\ComplexMathFunctions/arm_cmplx_mult_cmplx_q31.c ****         q31_t * pDst,
  58:.\DSP\Source\ComplexMathFunctions/arm_cmplx_mult_cmplx_q31.c ****         uint32_t numSamples)
  59:.\DSP\Source\ComplexMathFunctions/arm_cmplx_mult_cmplx_q31.c **** {
  60:.\DSP\Source\ComplexMathFunctions/arm_cmplx_mult_cmplx_q31.c ****     int32_t         blkCnt;
  61:.\DSP\Source\ComplexMathFunctions/arm_cmplx_mult_cmplx_q31.c ****     q31x4_t         vecSrcA, vecSrcB;
  62:.\DSP\Source\ComplexMathFunctions/arm_cmplx_mult_cmplx_q31.c ****     q31x4_t         vecSrcC, vecSrcD;
  63:.\DSP\Source\ComplexMathFunctions/arm_cmplx_mult_cmplx_q31.c ****     q31x4_t         vecDst;
  64:.\DSP\Source\ComplexMathFunctions/arm_cmplx_mult_cmplx_q31.c **** 
  65:.\DSP\Source\ComplexMathFunctions/arm_cmplx_mult_cmplx_q31.c ****     blkCnt = numSamples >> 2;
  66:.\DSP\Source\ComplexMathFunctions/arm_cmplx_mult_cmplx_q31.c ****     blkCnt -= 1;
  67:.\DSP\Source\ComplexMathFunctions/arm_cmplx_mult_cmplx_q31.c ****     if (blkCnt > 0) {
  68:.\DSP\Source\ComplexMathFunctions/arm_cmplx_mult_cmplx_q31.c ****         /* should give more freedom to generate stall free code */
  69:.\DSP\Source\ComplexMathFunctions/arm_cmplx_mult_cmplx_q31.c ****         vecSrcA = vld1q(pSrcA);
  70:.\DSP\Source\ComplexMathFunctions/arm_cmplx_mult_cmplx_q31.c ****         vecSrcB = vld1q(pSrcB);
  71:.\DSP\Source\ComplexMathFunctions/arm_cmplx_mult_cmplx_q31.c ****         pSrcA += 4;
  72:.\DSP\Source\ComplexMathFunctions/arm_cmplx_mult_cmplx_q31.c ****         pSrcB += 4;
  73:.\DSP\Source\ComplexMathFunctions/arm_cmplx_mult_cmplx_q31.c **** 
  74:.\DSP\Source\ComplexMathFunctions/arm_cmplx_mult_cmplx_q31.c ****         while (blkCnt > 0) {
  75:.\DSP\Source\ComplexMathFunctions/arm_cmplx_mult_cmplx_q31.c **** 
  76:.\DSP\Source\ComplexMathFunctions/arm_cmplx_mult_cmplx_q31.c ****             /* C[2 * i] = A[2 * i] * B[2 * i] - A[2 * i + 1] * B[2 * i + 1].  */
  77:.\DSP\Source\ComplexMathFunctions/arm_cmplx_mult_cmplx_q31.c ****             vecDst = vqdmlsdhq(vuninitializedq_s32(), vecSrcA, vecSrcB);
  78:.\DSP\Source\ComplexMathFunctions/arm_cmplx_mult_cmplx_q31.c ****             vecSrcC = vld1q(pSrcA);
  79:.\DSP\Source\ComplexMathFunctions/arm_cmplx_mult_cmplx_q31.c ****             pSrcA += 4;
  80:.\DSP\Source\ComplexMathFunctions/arm_cmplx_mult_cmplx_q31.c **** 
  81:.\DSP\Source\ComplexMathFunctions/arm_cmplx_mult_cmplx_q31.c ****             /* C[2 * i + 1] = A[2 * i] * B[2 * i + 1] + A[2 * i + 1] * B[2 * i].  */
  82:.\DSP\Source\ComplexMathFunctions/arm_cmplx_mult_cmplx_q31.c ****             vecDst = vqdmladhxq(vecDst, vecSrcA, vecSrcB);
  83:.\DSP\Source\ComplexMathFunctions/arm_cmplx_mult_cmplx_q31.c ****             vecSrcD = vld1q(pSrcB);
  84:.\DSP\Source\ComplexMathFunctions/arm_cmplx_mult_cmplx_q31.c ****             pSrcB += 4;
  85:.\DSP\Source\ComplexMathFunctions/arm_cmplx_mult_cmplx_q31.c **** 
  86:.\DSP\Source\ComplexMathFunctions/arm_cmplx_mult_cmplx_q31.c ****             vst1q(pDst, vshrq(vecDst, 2));
  87:.\DSP\Source\ComplexMathFunctions/arm_cmplx_mult_cmplx_q31.c ****             pDst += 4;
  88:.\DSP\Source\ComplexMathFunctions/arm_cmplx_mult_cmplx_q31.c **** 
ARM GAS  C:\Users\IVYLIU~1\AppData\Local\Temp\cc0Y0vCL.s 			page 3


  89:.\DSP\Source\ComplexMathFunctions/arm_cmplx_mult_cmplx_q31.c ****             vecDst = vqdmlsdhq(vuninitializedq_s32(), vecSrcC, vecSrcD);
  90:.\DSP\Source\ComplexMathFunctions/arm_cmplx_mult_cmplx_q31.c ****             vecSrcA = vld1q(pSrcA);
  91:.\DSP\Source\ComplexMathFunctions/arm_cmplx_mult_cmplx_q31.c ****             pSrcA += 4;
  92:.\DSP\Source\ComplexMathFunctions/arm_cmplx_mult_cmplx_q31.c **** 
  93:.\DSP\Source\ComplexMathFunctions/arm_cmplx_mult_cmplx_q31.c ****             vecDst = vqdmladhxq(vecDst, vecSrcC, vecSrcD);
  94:.\DSP\Source\ComplexMathFunctions/arm_cmplx_mult_cmplx_q31.c ****             vecSrcB = vld1q(pSrcB);
  95:.\DSP\Source\ComplexMathFunctions/arm_cmplx_mult_cmplx_q31.c ****             pSrcB += 4;
  96:.\DSP\Source\ComplexMathFunctions/arm_cmplx_mult_cmplx_q31.c **** 
  97:.\DSP\Source\ComplexMathFunctions/arm_cmplx_mult_cmplx_q31.c ****             vst1q(pDst, vshrq(vecDst, 2));
  98:.\DSP\Source\ComplexMathFunctions/arm_cmplx_mult_cmplx_q31.c ****             pDst += 4;
  99:.\DSP\Source\ComplexMathFunctions/arm_cmplx_mult_cmplx_q31.c **** 
 100:.\DSP\Source\ComplexMathFunctions/arm_cmplx_mult_cmplx_q31.c ****             /*
 101:.\DSP\Source\ComplexMathFunctions/arm_cmplx_mult_cmplx_q31.c ****              * Decrement the blockSize loop counter
 102:.\DSP\Source\ComplexMathFunctions/arm_cmplx_mult_cmplx_q31.c ****              */
 103:.\DSP\Source\ComplexMathFunctions/arm_cmplx_mult_cmplx_q31.c ****             blkCnt--;
 104:.\DSP\Source\ComplexMathFunctions/arm_cmplx_mult_cmplx_q31.c ****         }
 105:.\DSP\Source\ComplexMathFunctions/arm_cmplx_mult_cmplx_q31.c **** 
 106:.\DSP\Source\ComplexMathFunctions/arm_cmplx_mult_cmplx_q31.c ****         /* process last elements out of the loop avoid the armclang breaking the SW pipeline */
 107:.\DSP\Source\ComplexMathFunctions/arm_cmplx_mult_cmplx_q31.c ****         vecDst = vqdmlsdhq(vuninitializedq_s32(), vecSrcA, vecSrcB);
 108:.\DSP\Source\ComplexMathFunctions/arm_cmplx_mult_cmplx_q31.c ****         vecSrcC = vld1q(pSrcA);
 109:.\DSP\Source\ComplexMathFunctions/arm_cmplx_mult_cmplx_q31.c **** 
 110:.\DSP\Source\ComplexMathFunctions/arm_cmplx_mult_cmplx_q31.c ****         vecDst = vqdmladhxq(vecDst, vecSrcA, vecSrcB);
 111:.\DSP\Source\ComplexMathFunctions/arm_cmplx_mult_cmplx_q31.c ****         vecSrcD = vld1q(pSrcB);
 112:.\DSP\Source\ComplexMathFunctions/arm_cmplx_mult_cmplx_q31.c **** 
 113:.\DSP\Source\ComplexMathFunctions/arm_cmplx_mult_cmplx_q31.c ****         vst1q(pDst, vshrq(vecDst, 2));
 114:.\DSP\Source\ComplexMathFunctions/arm_cmplx_mult_cmplx_q31.c ****         pDst += 4;
 115:.\DSP\Source\ComplexMathFunctions/arm_cmplx_mult_cmplx_q31.c **** 
 116:.\DSP\Source\ComplexMathFunctions/arm_cmplx_mult_cmplx_q31.c ****         vecDst = vqdmlsdhq(vuninitializedq_s32(), vecSrcC, vecSrcD);
 117:.\DSP\Source\ComplexMathFunctions/arm_cmplx_mult_cmplx_q31.c ****         vecDst = vqdmladhxq(vecDst, vecSrcC, vecSrcD);
 118:.\DSP\Source\ComplexMathFunctions/arm_cmplx_mult_cmplx_q31.c **** 
 119:.\DSP\Source\ComplexMathFunctions/arm_cmplx_mult_cmplx_q31.c ****         vst1q(pDst, vshrq(vecDst, 2));
 120:.\DSP\Source\ComplexMathFunctions/arm_cmplx_mult_cmplx_q31.c ****         pDst += 4;
 121:.\DSP\Source\ComplexMathFunctions/arm_cmplx_mult_cmplx_q31.c **** 
 122:.\DSP\Source\ComplexMathFunctions/arm_cmplx_mult_cmplx_q31.c ****         /*
 123:.\DSP\Source\ComplexMathFunctions/arm_cmplx_mult_cmplx_q31.c ****          * tail
 124:.\DSP\Source\ComplexMathFunctions/arm_cmplx_mult_cmplx_q31.c ****          */
 125:.\DSP\Source\ComplexMathFunctions/arm_cmplx_mult_cmplx_q31.c ****         blkCnt = CMPLX_DIM * (numSamples & 3);
 126:.\DSP\Source\ComplexMathFunctions/arm_cmplx_mult_cmplx_q31.c ****         do {
 127:.\DSP\Source\ComplexMathFunctions/arm_cmplx_mult_cmplx_q31.c ****             mve_pred16_t    p = vctp32q(blkCnt);
 128:.\DSP\Source\ComplexMathFunctions/arm_cmplx_mult_cmplx_q31.c **** 
 129:.\DSP\Source\ComplexMathFunctions/arm_cmplx_mult_cmplx_q31.c ****             pSrcA += 4;
 130:.\DSP\Source\ComplexMathFunctions/arm_cmplx_mult_cmplx_q31.c ****             pSrcB += 4;
 131:.\DSP\Source\ComplexMathFunctions/arm_cmplx_mult_cmplx_q31.c **** 
 132:.\DSP\Source\ComplexMathFunctions/arm_cmplx_mult_cmplx_q31.c ****             vecSrcA = vldrwq_z_s32(pSrcA, p);
 133:.\DSP\Source\ComplexMathFunctions/arm_cmplx_mult_cmplx_q31.c ****             vecSrcB = vldrwq_z_s32(pSrcB, p);
 134:.\DSP\Source\ComplexMathFunctions/arm_cmplx_mult_cmplx_q31.c **** 
 135:.\DSP\Source\ComplexMathFunctions/arm_cmplx_mult_cmplx_q31.c ****             vecDst = vqdmlsdhq_m(vuninitializedq_s32(), vecSrcA, vecSrcB, p);
 136:.\DSP\Source\ComplexMathFunctions/arm_cmplx_mult_cmplx_q31.c ****             vecDst = vqdmladhxq_m(vecDst, vecSrcA, vecSrcB, p);
 137:.\DSP\Source\ComplexMathFunctions/arm_cmplx_mult_cmplx_q31.c **** 
 138:.\DSP\Source\ComplexMathFunctions/arm_cmplx_mult_cmplx_q31.c ****             vecDst = vshrq_m(vuninitializedq_s32(), vecDst, 2, p);
 139:.\DSP\Source\ComplexMathFunctions/arm_cmplx_mult_cmplx_q31.c ****             vstrwq_p_s32(pDst, vecDst, p);
 140:.\DSP\Source\ComplexMathFunctions/arm_cmplx_mult_cmplx_q31.c ****             pDst += 4;
 141:.\DSP\Source\ComplexMathFunctions/arm_cmplx_mult_cmplx_q31.c **** 
 142:.\DSP\Source\ComplexMathFunctions/arm_cmplx_mult_cmplx_q31.c ****             blkCnt -= 4;
 143:.\DSP\Source\ComplexMathFunctions/arm_cmplx_mult_cmplx_q31.c ****         }
 144:.\DSP\Source\ComplexMathFunctions/arm_cmplx_mult_cmplx_q31.c ****         while ((int32_t) blkCnt > 0);
 145:.\DSP\Source\ComplexMathFunctions/arm_cmplx_mult_cmplx_q31.c ****     } else {
ARM GAS  C:\Users\IVYLIU~1\AppData\Local\Temp\cc0Y0vCL.s 			page 4


 146:.\DSP\Source\ComplexMathFunctions/arm_cmplx_mult_cmplx_q31.c ****         blkCnt = numSamples * CMPLX_DIM;
 147:.\DSP\Source\ComplexMathFunctions/arm_cmplx_mult_cmplx_q31.c ****         while (blkCnt > 0) {
 148:.\DSP\Source\ComplexMathFunctions/arm_cmplx_mult_cmplx_q31.c ****             mve_pred16_t    p = vctp32q(blkCnt);
 149:.\DSP\Source\ComplexMathFunctions/arm_cmplx_mult_cmplx_q31.c **** 
 150:.\DSP\Source\ComplexMathFunctions/arm_cmplx_mult_cmplx_q31.c ****             vecSrcA = vldrwq_z_s32(pSrcA, p);
 151:.\DSP\Source\ComplexMathFunctions/arm_cmplx_mult_cmplx_q31.c ****             vecSrcB = vldrwq_z_s32(pSrcB, p);
 152:.\DSP\Source\ComplexMathFunctions/arm_cmplx_mult_cmplx_q31.c **** 
 153:.\DSP\Source\ComplexMathFunctions/arm_cmplx_mult_cmplx_q31.c ****             vecDst = vqdmlsdhq_m(vuninitializedq_s32(), vecSrcA, vecSrcB, p);
 154:.\DSP\Source\ComplexMathFunctions/arm_cmplx_mult_cmplx_q31.c ****             vecDst = vqdmladhxq_m(vecDst, vecSrcA, vecSrcB, p);
 155:.\DSP\Source\ComplexMathFunctions/arm_cmplx_mult_cmplx_q31.c **** 
 156:.\DSP\Source\ComplexMathFunctions/arm_cmplx_mult_cmplx_q31.c ****             vecDst = vshrq_m(vuninitializedq_s32(), vecDst, 2, p);
 157:.\DSP\Source\ComplexMathFunctions/arm_cmplx_mult_cmplx_q31.c ****             vstrwq_p_s32(pDst, vecDst, p);
 158:.\DSP\Source\ComplexMathFunctions/arm_cmplx_mult_cmplx_q31.c **** 
 159:.\DSP\Source\ComplexMathFunctions/arm_cmplx_mult_cmplx_q31.c ****             pDst += 4;
 160:.\DSP\Source\ComplexMathFunctions/arm_cmplx_mult_cmplx_q31.c ****             pSrcA += 4;
 161:.\DSP\Source\ComplexMathFunctions/arm_cmplx_mult_cmplx_q31.c ****             pSrcB += 4;
 162:.\DSP\Source\ComplexMathFunctions/arm_cmplx_mult_cmplx_q31.c **** 
 163:.\DSP\Source\ComplexMathFunctions/arm_cmplx_mult_cmplx_q31.c ****             blkCnt -= 4;
 164:.\DSP\Source\ComplexMathFunctions/arm_cmplx_mult_cmplx_q31.c ****         }
 165:.\DSP\Source\ComplexMathFunctions/arm_cmplx_mult_cmplx_q31.c ****     }
 166:.\DSP\Source\ComplexMathFunctions/arm_cmplx_mult_cmplx_q31.c **** }
 167:.\DSP\Source\ComplexMathFunctions/arm_cmplx_mult_cmplx_q31.c **** #else
 168:.\DSP\Source\ComplexMathFunctions/arm_cmplx_mult_cmplx_q31.c **** void arm_cmplx_mult_cmplx_q31(
 169:.\DSP\Source\ComplexMathFunctions/arm_cmplx_mult_cmplx_q31.c ****   const q31_t * pSrcA,
 170:.\DSP\Source\ComplexMathFunctions/arm_cmplx_mult_cmplx_q31.c ****   const q31_t * pSrcB,
 171:.\DSP\Source\ComplexMathFunctions/arm_cmplx_mult_cmplx_q31.c ****         q31_t * pDst,
 172:.\DSP\Source\ComplexMathFunctions/arm_cmplx_mult_cmplx_q31.c ****         uint32_t numSamples)
 173:.\DSP\Source\ComplexMathFunctions/arm_cmplx_mult_cmplx_q31.c **** {
  27              		.loc 1 173 0
  28              		.cfi_startproc
  29              		@ args = 0, pretend = 0, frame = 32
  30              		@ frame_needed = 0, uses_anonymous_args = 0
  31              	.LVL0:
  32 0000 2DE9F04F 		push	{r4, r5, r6, r7, r8, r9, r10, fp, lr}
  33              		.cfi_def_cfa_offset 36
  34              		.cfi_offset 4, -36
  35              		.cfi_offset 5, -32
  36              		.cfi_offset 6, -28
  37              		.cfi_offset 7, -24
  38              		.cfi_offset 8, -20
  39              		.cfi_offset 9, -16
  40              		.cfi_offset 10, -12
  41              		.cfi_offset 11, -8
  42              		.cfi_offset 14, -4
  43 0004 89B0     		sub	sp, sp, #36
  44              		.cfi_def_cfa_offset 72
  45 0006 0192     		str	r2, [sp, #4]
  46              	.LVL1:
  47 0008 0093     		str	r3, [sp]
 174:.\DSP\Source\ComplexMathFunctions/arm_cmplx_mult_cmplx_q31.c ****         uint32_t blkCnt;                               /* Loop counter */
 175:.\DSP\Source\ComplexMathFunctions/arm_cmplx_mult_cmplx_q31.c ****         q31_t a, b, c, d;                              /* Temporary variables */
 176:.\DSP\Source\ComplexMathFunctions/arm_cmplx_mult_cmplx_q31.c **** 
 177:.\DSP\Source\ComplexMathFunctions/arm_cmplx_mult_cmplx_q31.c **** #if defined (ARM_MATH_LOOPUNROLL)
 178:.\DSP\Source\ComplexMathFunctions/arm_cmplx_mult_cmplx_q31.c **** 
 179:.\DSP\Source\ComplexMathFunctions/arm_cmplx_mult_cmplx_q31.c ****   /* Loop unrolling: Compute 4 outputs at a time */
 180:.\DSP\Source\ComplexMathFunctions/arm_cmplx_mult_cmplx_q31.c ****   blkCnt = numSamples >> 2U;
 181:.\DSP\Source\ComplexMathFunctions/arm_cmplx_mult_cmplx_q31.c **** 
ARM GAS  C:\Users\IVYLIU~1\AppData\Local\Temp\cc0Y0vCL.s 			page 5


 182:.\DSP\Source\ComplexMathFunctions/arm_cmplx_mult_cmplx_q31.c ****   while (blkCnt > 0U)
 183:.\DSP\Source\ComplexMathFunctions/arm_cmplx_mult_cmplx_q31.c ****   {
 184:.\DSP\Source\ComplexMathFunctions/arm_cmplx_mult_cmplx_q31.c ****     /* C[2 * i    ] = A[2 * i] * B[2 * i    ] - A[2 * i + 1] * B[2 * i + 1]. */
 185:.\DSP\Source\ComplexMathFunctions/arm_cmplx_mult_cmplx_q31.c ****     /* C[2 * i + 1] = A[2 * i] * B[2 * i + 1] + A[2 * i + 1] * B[2 * i    ]. */
 186:.\DSP\Source\ComplexMathFunctions/arm_cmplx_mult_cmplx_q31.c **** 
 187:.\DSP\Source\ComplexMathFunctions/arm_cmplx_mult_cmplx_q31.c ****     a = *pSrcA++;
 188:.\DSP\Source\ComplexMathFunctions/arm_cmplx_mult_cmplx_q31.c ****     b = *pSrcA++;
 189:.\DSP\Source\ComplexMathFunctions/arm_cmplx_mult_cmplx_q31.c ****     c = *pSrcB++;
 190:.\DSP\Source\ComplexMathFunctions/arm_cmplx_mult_cmplx_q31.c ****     d = *pSrcB++;
 191:.\DSP\Source\ComplexMathFunctions/arm_cmplx_mult_cmplx_q31.c ****     /* store result in 3.29 format in destination buffer. */
 192:.\DSP\Source\ComplexMathFunctions/arm_cmplx_mult_cmplx_q31.c ****     *pDst++ = (q31_t) ( (((q63_t) a * c) >> 33) - (((q63_t) b * d) >> 33) );
 193:.\DSP\Source\ComplexMathFunctions/arm_cmplx_mult_cmplx_q31.c ****     *pDst++ = (q31_t) ( (((q63_t) a * d) >> 33) + (((q63_t) b * c) >> 33) );
 194:.\DSP\Source\ComplexMathFunctions/arm_cmplx_mult_cmplx_q31.c **** 
 195:.\DSP\Source\ComplexMathFunctions/arm_cmplx_mult_cmplx_q31.c ****     a = *pSrcA++;
 196:.\DSP\Source\ComplexMathFunctions/arm_cmplx_mult_cmplx_q31.c ****     b = *pSrcA++;
 197:.\DSP\Source\ComplexMathFunctions/arm_cmplx_mult_cmplx_q31.c ****     c = *pSrcB++;
 198:.\DSP\Source\ComplexMathFunctions/arm_cmplx_mult_cmplx_q31.c ****     d = *pSrcB++;
 199:.\DSP\Source\ComplexMathFunctions/arm_cmplx_mult_cmplx_q31.c ****     *pDst++ = (q31_t) ( (((q63_t) a * c) >> 33) - (((q63_t) b * d) >> 33) );
 200:.\DSP\Source\ComplexMathFunctions/arm_cmplx_mult_cmplx_q31.c ****     *pDst++ = (q31_t) ( (((q63_t) a * d) >> 33) + (((q63_t) b * c) >> 33) );
 201:.\DSP\Source\ComplexMathFunctions/arm_cmplx_mult_cmplx_q31.c **** 
 202:.\DSP\Source\ComplexMathFunctions/arm_cmplx_mult_cmplx_q31.c ****     a = *pSrcA++;
 203:.\DSP\Source\ComplexMathFunctions/arm_cmplx_mult_cmplx_q31.c ****     b = *pSrcA++;
 204:.\DSP\Source\ComplexMathFunctions/arm_cmplx_mult_cmplx_q31.c ****     c = *pSrcB++;
 205:.\DSP\Source\ComplexMathFunctions/arm_cmplx_mult_cmplx_q31.c ****     d = *pSrcB++;
 206:.\DSP\Source\ComplexMathFunctions/arm_cmplx_mult_cmplx_q31.c ****     *pDst++ = (q31_t) ( (((q63_t) a * c) >> 33) - (((q63_t) b * d) >> 33) );
 207:.\DSP\Source\ComplexMathFunctions/arm_cmplx_mult_cmplx_q31.c ****     *pDst++ = (q31_t) ( (((q63_t) a * d) >> 33) + (((q63_t) b * c) >> 33) );
 208:.\DSP\Source\ComplexMathFunctions/arm_cmplx_mult_cmplx_q31.c **** 
 209:.\DSP\Source\ComplexMathFunctions/arm_cmplx_mult_cmplx_q31.c ****     a = *pSrcA++;
 210:.\DSP\Source\ComplexMathFunctions/arm_cmplx_mult_cmplx_q31.c ****     b = *pSrcA++;
 211:.\DSP\Source\ComplexMathFunctions/arm_cmplx_mult_cmplx_q31.c ****     c = *pSrcB++;
 212:.\DSP\Source\ComplexMathFunctions/arm_cmplx_mult_cmplx_q31.c ****     d = *pSrcB++;
 213:.\DSP\Source\ComplexMathFunctions/arm_cmplx_mult_cmplx_q31.c ****     *pDst++ = (q31_t) ( (((q63_t) a * c) >> 33) - (((q63_t) b * d) >> 33) );
 214:.\DSP\Source\ComplexMathFunctions/arm_cmplx_mult_cmplx_q31.c ****     *pDst++ = (q31_t) ( (((q63_t) a * d) >> 33) + (((q63_t) b * c) >> 33) );
 215:.\DSP\Source\ComplexMathFunctions/arm_cmplx_mult_cmplx_q31.c **** 
 216:.\DSP\Source\ComplexMathFunctions/arm_cmplx_mult_cmplx_q31.c ****     /* Decrement loop counter */
 217:.\DSP\Source\ComplexMathFunctions/arm_cmplx_mult_cmplx_q31.c ****     blkCnt--;
 218:.\DSP\Source\ComplexMathFunctions/arm_cmplx_mult_cmplx_q31.c ****   }
 219:.\DSP\Source\ComplexMathFunctions/arm_cmplx_mult_cmplx_q31.c **** 
 220:.\DSP\Source\ComplexMathFunctions/arm_cmplx_mult_cmplx_q31.c ****   /* Loop unrolling: Compute remaining outputs */
 221:.\DSP\Source\ComplexMathFunctions/arm_cmplx_mult_cmplx_q31.c ****   blkCnt = numSamples % 0x4U;
 222:.\DSP\Source\ComplexMathFunctions/arm_cmplx_mult_cmplx_q31.c **** 
 223:.\DSP\Source\ComplexMathFunctions/arm_cmplx_mult_cmplx_q31.c **** #else
 224:.\DSP\Source\ComplexMathFunctions/arm_cmplx_mult_cmplx_q31.c **** 
 225:.\DSP\Source\ComplexMathFunctions/arm_cmplx_mult_cmplx_q31.c ****   /* Initialize blkCnt with number of samples */
 226:.\DSP\Source\ComplexMathFunctions/arm_cmplx_mult_cmplx_q31.c ****   blkCnt = numSamples;
 227:.\DSP\Source\ComplexMathFunctions/arm_cmplx_mult_cmplx_q31.c **** 
 228:.\DSP\Source\ComplexMathFunctions/arm_cmplx_mult_cmplx_q31.c **** #endif /* #if defined (ARM_MATH_LOOPUNROLL) */
 229:.\DSP\Source\ComplexMathFunctions/arm_cmplx_mult_cmplx_q31.c **** 
 230:.\DSP\Source\ComplexMathFunctions/arm_cmplx_mult_cmplx_q31.c ****   while (blkCnt > 0U)
  48              		.loc 1 230 0
  49 000a 4AE0     		b	.L2
  50              	.LVL2:
  51              	.L3:
 231:.\DSP\Source\ComplexMathFunctions/arm_cmplx_mult_cmplx_q31.c ****   {
 232:.\DSP\Source\ComplexMathFunctions/arm_cmplx_mult_cmplx_q31.c ****     /* C[2 * i    ] = A[2 * i] * B[2 * i    ] - A[2 * i + 1] * B[2 * i + 1]. */
 233:.\DSP\Source\ComplexMathFunctions/arm_cmplx_mult_cmplx_q31.c ****     /* C[2 * i + 1] = A[2 * i] * B[2 * i + 1] + A[2 * i + 1] * B[2 * i    ]. */
 234:.\DSP\Source\ComplexMathFunctions/arm_cmplx_mult_cmplx_q31.c **** 
ARM GAS  C:\Users\IVYLIU~1\AppData\Local\Temp\cc0Y0vCL.s 			page 6


 235:.\DSP\Source\ComplexMathFunctions/arm_cmplx_mult_cmplx_q31.c ****     a = *pSrcA++;
  52              		.loc 1 235 0
  53 000c 0746     		mov	r7, r0
  54 000e 57F8083B 		ldr	r3, [r7], #8
  55              	.LVL3:
 236:.\DSP\Source\ComplexMathFunctions/arm_cmplx_mult_cmplx_q31.c ****     b = *pSrcA++;
  56              		.loc 1 236 0
  57 0012 4268     		ldr	r2, [r0, #4]
  58              	.LVL4:
 237:.\DSP\Source\ComplexMathFunctions/arm_cmplx_mult_cmplx_q31.c ****     c = *pSrcB++;
  59              		.loc 1 237 0
  60 0014 8E46     		mov	lr, r1
  61 0016 5EF8080B 		ldr	r0, [lr], #8
  62              	.LVL5:
 238:.\DSP\Source\ComplexMathFunctions/arm_cmplx_mult_cmplx_q31.c ****     d = *pSrcB++;
  63              		.loc 1 238 0
  64 001a 4968     		ldr	r1, [r1, #4]
  65              	.LVL6:
 239:.\DSP\Source\ComplexMathFunctions/arm_cmplx_mult_cmplx_q31.c **** 
 240:.\DSP\Source\ComplexMathFunctions/arm_cmplx_mult_cmplx_q31.c ****     /* store result in 3.29 format in destination buffer. */
 241:.\DSP\Source\ComplexMathFunctions/arm_cmplx_mult_cmplx_q31.c ****     *pDst++ = (q31_t) ( (((q63_t) a * c) >> 33) - (((q63_t) b * d) >> 33) );
  66              		.loc 1 241 0
  67 001c DD17     		asrs	r5, r3, #31
  68 001e 9846     		mov	r8, r3
  69 0020 A946     		mov	r9, r5
  70 0022 0446     		mov	r4, r0
  71 0024 C517     		asrs	r5, r0, #31
  72 0026 CDE90445 		strd	r4, [sp, #16]
  73 002a 03FB05FC 		mul	ip, r3, r5
  74 002e CDE90289 		strd	r8, [sp, #8]
  75 0032 00FB09CC 		mla	ip, r0, r9, ip
  76 0036 A3FB0045 		umull	r4, r5, r3, r0
  77 003a 6544     		add	r5, r5, ip
  78 003c 4FEAE27B 		asr	fp, r2, #31
  79 0040 9046     		mov	r8, r2
  80 0042 D946     		mov	r9, fp
  81 0044 4FEAE17B 		asr	fp, r1, #31
  82 0048 02FB0BF4 		mul	r4, r2, fp
  83 004c CDE90689 		strd	r8, [sp, #24]
  84 0050 01FB0944 		mla	r4, r1, r9, r4
  85 0054 A2FB0189 		umull	r8, r9, r2, r1
  86 0058 A144     		add	r9, r9, r4
  87 005a 4FEA6904 		asr	r4, r9, #1
  88 005e C4EB6504 		rsb	r4, r4, r5, asr #1
  89 0062 019E     		ldr	r6, [sp, #4]
  90 0064 B446     		mov	ip, r6
  91 0066 4CF8084B 		str	r4, [ip], #8
  92              	.LVL7:
 242:.\DSP\Source\ComplexMathFunctions/arm_cmplx_mult_cmplx_q31.c ****     *pDst++ = (q31_t) ( (((q63_t) a * d) >> 33) + (((q63_t) b * c) >> 33) );
  93              		.loc 1 242 0
  94 006a 03FB0BF8 		mul	r8, r3, fp
  95 006e 039C     		ldr	r4, [sp, #12]
  96 0070 01FB0488 		mla	r8, r1, r4, r8
  97 0074 A3FB0145 		umull	r4, r5, r3, r1
  98 0078 4544     		add	r5, r5, r8
  99 007a 079B     		ldr	r3, [sp, #28]
 100              	.LVL8:
ARM GAS  C:\Users\IVYLIU~1\AppData\Local\Temp\cc0Y0vCL.s 			page 7


 101 007c 00FB03F1 		mul	r1, r0, r3
 102              	.LVL9:
 103 0080 059B     		ldr	r3, [sp, #20]
 104 0082 02FB0311 		mla	r1, r2, r3, r1
 105 0086 A0FB0223 		umull	r2, r3, r0, r2
 106              	.LVL10:
 107 008a 0B44     		add	r3, r3, r1
 108 008c 5B10     		asrs	r3, r3, #1
 109 008e 03EB6503 		add	r3, r3, r5, asr #1
 110 0092 7360     		str	r3, [r6, #4]
 243:.\DSP\Source\ComplexMathFunctions/arm_cmplx_mult_cmplx_q31.c **** 
 244:.\DSP\Source\ComplexMathFunctions/arm_cmplx_mult_cmplx_q31.c ****     /* Decrement loop counter */
 245:.\DSP\Source\ComplexMathFunctions/arm_cmplx_mult_cmplx_q31.c ****     blkCnt--;
 111              		.loc 1 245 0
 112 0094 009B     		ldr	r3, [sp]
 113 0096 013B     		subs	r3, r3, #1
 114 0098 0093     		str	r3, [sp]
 115              	.LVL11:
 242:.\DSP\Source\ComplexMathFunctions/arm_cmplx_mult_cmplx_q31.c ****     *pDst++ = (q31_t) ( (((q63_t) a * d) >> 33) + (((q63_t) b * c) >> 33) );
 116              		.loc 1 242 0
 117 009a CDF804C0 		str	ip, [sp, #4]
 238:.\DSP\Source\ComplexMathFunctions/arm_cmplx_mult_cmplx_q31.c **** 
 118              		.loc 1 238 0
 119 009e 7146     		mov	r1, lr
 236:.\DSP\Source\ComplexMathFunctions/arm_cmplx_mult_cmplx_q31.c ****     c = *pSrcB++;
 120              		.loc 1 236 0
 121 00a0 3846     		mov	r0, r7
 122              	.LVL12:
 123              	.L2:
 230:.\DSP\Source\ComplexMathFunctions/arm_cmplx_mult_cmplx_q31.c ****   {
 124              		.loc 1 230 0
 125 00a2 009B     		ldr	r3, [sp]
 126 00a4 002B     		cmp	r3, #0
 127 00a6 B1D1     		bne	.L3
 246:.\DSP\Source\ComplexMathFunctions/arm_cmplx_mult_cmplx_q31.c ****   }
 247:.\DSP\Source\ComplexMathFunctions/arm_cmplx_mult_cmplx_q31.c **** 
 248:.\DSP\Source\ComplexMathFunctions/arm_cmplx_mult_cmplx_q31.c **** }
 128              		.loc 1 248 0
 129 00a8 09B0     		add	sp, sp, #36
 130              		.cfi_def_cfa_offset 36
 131              	.LVL13:
 132              		@ sp needed
 133 00aa BDE8F08F 		pop	{r4, r5, r6, r7, r8, r9, r10, fp, pc}
 134              		.cfi_endproc
 135              	.LFE84:
 136              		.size	arm_cmplx_mult_cmplx_q31, .-arm_cmplx_mult_cmplx_q31
 137 00ae 00BF     		.text
 138              	.Letext0:
 139              		.file 2 "c:\\program files (x86)\\cypress\\psoc creator\\3.3\\psoc creator\\import\\gnu\\arm\\4.9.
 140              		.file 3 "c:\\program files (x86)\\cypress\\psoc creator\\3.3\\psoc creator\\import\\gnu\\arm\\4.9.
 141              		.file 4 ".\\DSP\\Include/arm_math_types.h"
 142              		.file 5 ".\\Core\\Include/cmsis_gcc.h"