ARM GAS  C:\Users\IVYLIU~1\AppData\Local\Temp\cch37GjC.s 			page 1


   1              		.syntax unified
   2              		.cpu cortex-m3
   3              		.fpu softvfp
   4              		.eabi_attribute 20, 1
   5              		.eabi_attribute 21, 1
   6              		.eabi_attribute 23, 3
   7              		.eabi_attribute 24, 1
   8              		.eabi_attribute 25, 1
   9              		.eabi_attribute 26, 1
  10              		.eabi_attribute 30, 1
  11              		.eabi_attribute 34, 1
  12              		.eabi_attribute 18, 4
  13              		.thumb
  14              		.file	"arm_dct4_q31.c"
  15              		.text
  16              	.Ltext0:
  17              		.cfi_sections	.debug_frame
  18              		.section	.text.arm_dct4_q31,"ax",%progbits
  19              		.align	2
  20              		.global	arm_dct4_q31
  21              		.thumb
  22              		.thumb_func
  23              		.type	arm_dct4_q31, %function
  24              	arm_dct4_q31:
  25              	.LFB84:
  26              		.file 1 ".\\DSP\\Source\\TransformFunctions\\arm_dct4_q31.c"
   1:.\DSP\Source\TransformFunctions/arm_dct4_q31.c **** /* ----------------------------------------------------------------------
   2:.\DSP\Source\TransformFunctions/arm_dct4_q31.c ****  * Project:      CMSIS DSP Library
   3:.\DSP\Source\TransformFunctions/arm_dct4_q31.c ****  * Title:        arm_dct4_q31.c
   4:.\DSP\Source\TransformFunctions/arm_dct4_q31.c ****  * Description:  Processing function of DCT4 & IDCT4 Q31
   5:.\DSP\Source\TransformFunctions/arm_dct4_q31.c ****  *
   6:.\DSP\Source\TransformFunctions/arm_dct4_q31.c ****  * $Date:        23 April 2021
   7:.\DSP\Source\TransformFunctions/arm_dct4_q31.c ****  * $Revision:    V1.9.0
   8:.\DSP\Source\TransformFunctions/arm_dct4_q31.c ****  *
   9:.\DSP\Source\TransformFunctions/arm_dct4_q31.c ****  * Target Processor: Cortex-M and Cortex-A cores
  10:.\DSP\Source\TransformFunctions/arm_dct4_q31.c ****  * -------------------------------------------------------------------- */
  11:.\DSP\Source\TransformFunctions/arm_dct4_q31.c **** /*
  12:.\DSP\Source\TransformFunctions/arm_dct4_q31.c ****  * Copyright (C) 2010-2021 ARM Limited or its affiliates. All rights reserved.
  13:.\DSP\Source\TransformFunctions/arm_dct4_q31.c ****  *
  14:.\DSP\Source\TransformFunctions/arm_dct4_q31.c ****  * SPDX-License-Identifier: Apache-2.0
  15:.\DSP\Source\TransformFunctions/arm_dct4_q31.c ****  *
  16:.\DSP\Source\TransformFunctions/arm_dct4_q31.c ****  * Licensed under the Apache License, Version 2.0 (the License); you may
  17:.\DSP\Source\TransformFunctions/arm_dct4_q31.c ****  * not use this file except in compliance with the License.
  18:.\DSP\Source\TransformFunctions/arm_dct4_q31.c ****  * You may obtain a copy of the License at
  19:.\DSP\Source\TransformFunctions/arm_dct4_q31.c ****  *
  20:.\DSP\Source\TransformFunctions/arm_dct4_q31.c ****  * www.apache.org/licenses/LICENSE-2.0
  21:.\DSP\Source\TransformFunctions/arm_dct4_q31.c ****  *
  22:.\DSP\Source\TransformFunctions/arm_dct4_q31.c ****  * Unless required by applicable law or agreed to in writing, software
  23:.\DSP\Source\TransformFunctions/arm_dct4_q31.c ****  * distributed under the License is distributed on an AS IS BASIS, WITHOUT
  24:.\DSP\Source\TransformFunctions/arm_dct4_q31.c ****  * WARRANTIES OR CONDITIONS OF ANY KIND, either express or implied.
  25:.\DSP\Source\TransformFunctions/arm_dct4_q31.c ****  * See the License for the specific language governing permissions and
  26:.\DSP\Source\TransformFunctions/arm_dct4_q31.c ****  * limitations under the License.
  27:.\DSP\Source\TransformFunctions/arm_dct4_q31.c ****  */
  28:.\DSP\Source\TransformFunctions/arm_dct4_q31.c **** 
  29:.\DSP\Source\TransformFunctions/arm_dct4_q31.c **** #include "dsp/transform_functions.h"
  30:.\DSP\Source\TransformFunctions/arm_dct4_q31.c **** 
  31:.\DSP\Source\TransformFunctions/arm_dct4_q31.c **** /**
ARM GAS  C:\Users\IVYLIU~1\AppData\Local\Temp\cch37GjC.s 			page 2


  32:.\DSP\Source\TransformFunctions/arm_dct4_q31.c ****   @addtogroup DCT4_IDCT4
  33:.\DSP\Source\TransformFunctions/arm_dct4_q31.c ****   @{
  34:.\DSP\Source\TransformFunctions/arm_dct4_q31.c ****  */
  35:.\DSP\Source\TransformFunctions/arm_dct4_q31.c **** 
  36:.\DSP\Source\TransformFunctions/arm_dct4_q31.c **** /**
  37:.\DSP\Source\TransformFunctions/arm_dct4_q31.c ****   @brief         Processing function for the Q31 DCT4/IDCT4.
  38:.\DSP\Source\TransformFunctions/arm_dct4_q31.c ****   @param[in]     S             points to an instance of the Q31 DCT4 structure.
  39:.\DSP\Source\TransformFunctions/arm_dct4_q31.c ****   @param[in]     pState        points to state buffer.
  40:.\DSP\Source\TransformFunctions/arm_dct4_q31.c ****   @param[in,out] pInlineBuffer points to the in-place input and output buffer.
  41:.\DSP\Source\TransformFunctions/arm_dct4_q31.c ****   @return        none
  42:.\DSP\Source\TransformFunctions/arm_dct4_q31.c **** 
  43:.\DSP\Source\TransformFunctions/arm_dct4_q31.c ****   @par           Input an output formats
  44:.\DSP\Source\TransformFunctions/arm_dct4_q31.c ****                    Input samples need to be downscaled by 1 bit to avoid saturations in the Q31 DCT
  45:.\DSP\Source\TransformFunctions/arm_dct4_q31.c ****                    as the conversion from DCT2 to DCT4 involves one subtraction.
  46:.\DSP\Source\TransformFunctions/arm_dct4_q31.c ****                    Internally inputs are downscaled in the RFFT process function to avoid overflows
  47:.\DSP\Source\TransformFunctions/arm_dct4_q31.c ****                    Number of bits downscaled, depends on the size of the transform.
  48:.\DSP\Source\TransformFunctions/arm_dct4_q31.c ****                    The input and output formats for different DCT sizes and number of bits to upsca
  49:.\DSP\Source\TransformFunctions/arm_dct4_q31.c ****                    mentioned in the table below:
  50:.\DSP\Source\TransformFunctions/arm_dct4_q31.c **** 
  51:.\DSP\Source\TransformFunctions/arm_dct4_q31.c ****                    \image html dct4FormatsQ31Table.gif
  52:.\DSP\Source\TransformFunctions/arm_dct4_q31.c ****  */
  53:.\DSP\Source\TransformFunctions/arm_dct4_q31.c **** 
  54:.\DSP\Source\TransformFunctions/arm_dct4_q31.c **** void arm_dct4_q31(
  55:.\DSP\Source\TransformFunctions/arm_dct4_q31.c ****   const arm_dct4_instance_q31 * S,
  56:.\DSP\Source\TransformFunctions/arm_dct4_q31.c ****         q31_t * pState,
  57:.\DSP\Source\TransformFunctions/arm_dct4_q31.c ****         q31_t * pInlineBuffer)
  58:.\DSP\Source\TransformFunctions/arm_dct4_q31.c **** {
  27              		.loc 1 58 0
  28              		.cfi_startproc
  29              		@ args = 0, pretend = 0, frame = 0
  30              		@ frame_needed = 0, uses_anonymous_args = 0
  31              	.LVL0:
  32 0000 2DE9F84F 		push	{r3, r4, r5, r6, r7, r8, r9, r10, fp, lr}
  33              		.cfi_def_cfa_offset 40
  34              		.cfi_offset 3, -40
  35              		.cfi_offset 4, -36
  36              		.cfi_offset 5, -32
  37              		.cfi_offset 6, -28
  38              		.cfi_offset 7, -24
  39              		.cfi_offset 8, -20
  40              		.cfi_offset 9, -16
  41              		.cfi_offset 10, -12
  42              		.cfi_offset 11, -8
  43              		.cfi_offset 14, -4
  44 0004 0546     		mov	r5, r0
  45 0006 0E46     		mov	r6, r1
  46 0008 1446     		mov	r4, r2
  59:.\DSP\Source\TransformFunctions/arm_dct4_q31.c ****   const q31_t *weights = S->pTwiddle;                  /* Pointer to the Weights table */
  47              		.loc 1 59 0
  48 000a D0F80880 		ldr	r8, [r0, #8]
  49              	.LVL1:
  60:.\DSP\Source\TransformFunctions/arm_dct4_q31.c ****   const q31_t *cosFact = S->pCosFactor;                /* Pointer to the cos factors table */
  61:.\DSP\Source\TransformFunctions/arm_dct4_q31.c ****         q31_t *pS1, *pS2, *pbuff;                      /* Temporary pointers for input buffer and p
  62:.\DSP\Source\TransformFunctions/arm_dct4_q31.c ****         q31_t in;                                      /* Temporary variable */
  63:.\DSP\Source\TransformFunctions/arm_dct4_q31.c ****         uint32_t i;                                    /* Loop counter */
  64:.\DSP\Source\TransformFunctions/arm_dct4_q31.c **** 
  65:.\DSP\Source\TransformFunctions/arm_dct4_q31.c **** 
ARM GAS  C:\Users\IVYLIU~1\AppData\Local\Temp\cch37GjC.s 			page 3


  66:.\DSP\Source\TransformFunctions/arm_dct4_q31.c ****   /* DCT4 computation involves DCT2 (which is calculated using RFFT)
  67:.\DSP\Source\TransformFunctions/arm_dct4_q31.c ****    * along with some pre-processing and post-processing.
  68:.\DSP\Source\TransformFunctions/arm_dct4_q31.c ****    * Computational procedure is explained as follows:
  69:.\DSP\Source\TransformFunctions/arm_dct4_q31.c ****    * (a) Pre-processing involves multiplying input with cos factor,
  70:.\DSP\Source\TransformFunctions/arm_dct4_q31.c ****    *     r(n) = 2 * u(n) * cos(pi*(2*n+1)/(4*n))
  71:.\DSP\Source\TransformFunctions/arm_dct4_q31.c ****    *              where,
  72:.\DSP\Source\TransformFunctions/arm_dct4_q31.c ****    *                 r(n) -- output of preprocessing
  73:.\DSP\Source\TransformFunctions/arm_dct4_q31.c ****    *                 u(n) -- input to preprocessing(actual Source buffer)
  74:.\DSP\Source\TransformFunctions/arm_dct4_q31.c ****    * (b) Calculation of DCT2 using FFT is divided into three steps:
  75:.\DSP\Source\TransformFunctions/arm_dct4_q31.c ****    *                  Step1: Re-ordering of even and odd elements of input.
  76:.\DSP\Source\TransformFunctions/arm_dct4_q31.c ****    *                  Step2: Calculating FFT of the re-ordered input.
  77:.\DSP\Source\TransformFunctions/arm_dct4_q31.c ****    *                  Step3: Taking the real part of the product of FFT output and weights.
  78:.\DSP\Source\TransformFunctions/arm_dct4_q31.c ****    * (c) Post-processing - DCT4 can be obtained from DCT2 output using the following equation:
  79:.\DSP\Source\TransformFunctions/arm_dct4_q31.c ****    *                   Y4(k) = Y2(k) - Y4(k-1) and Y4(-1) = Y4(0)
  80:.\DSP\Source\TransformFunctions/arm_dct4_q31.c ****    *                        where,
  81:.\DSP\Source\TransformFunctions/arm_dct4_q31.c ****    *                           Y4 -- DCT4 output,   Y2 -- DCT2 output
  82:.\DSP\Source\TransformFunctions/arm_dct4_q31.c ****    * (d) Multiplying the output with the normalizing factor sqrt(2/N).
  83:.\DSP\Source\TransformFunctions/arm_dct4_q31.c ****    */
  84:.\DSP\Source\TransformFunctions/arm_dct4_q31.c **** 
  85:.\DSP\Source\TransformFunctions/arm_dct4_q31.c ****   /*-------- Pre-processing ------------*/
  86:.\DSP\Source\TransformFunctions/arm_dct4_q31.c ****   /* Multiplying input with cos factor i.e. r(n) = 2 * x(n) * cos(pi*(2*n+1)/(4*n)) */
  87:.\DSP\Source\TransformFunctions/arm_dct4_q31.c ****   arm_mult_q31 (pInlineBuffer, cosFact, pInlineBuffer, S->N);
  50              		.loc 1 87 0
  51 000e 1046     		mov	r0, r2
  52              	.LVL2:
  53 0010 E968     		ldr	r1, [r5, #12]
  54              	.LVL3:
  55 0012 2B88     		ldrh	r3, [r5]
  56 0014 FFF7FEFF 		bl	arm_mult_q31
  57              	.LVL4:
  88:.\DSP\Source\TransformFunctions/arm_dct4_q31.c ****   arm_shift_q31 (pInlineBuffer, 1, pInlineBuffer, S->N);
  58              		.loc 1 88 0
  59 0018 2046     		mov	r0, r4
  60 001a 0121     		movs	r1, #1
  61 001c 2246     		mov	r2, r4
  62 001e 2B88     		ldrh	r3, [r5]
  63 0020 FFF7FEFF 		bl	arm_shift_q31
  64              	.LVL5:
  89:.\DSP\Source\TransformFunctions/arm_dct4_q31.c **** 
  90:.\DSP\Source\TransformFunctions/arm_dct4_q31.c ****   /* ----------------------------------------------------------------
  91:.\DSP\Source\TransformFunctions/arm_dct4_q31.c ****    * Step1: Re-ordering of even and odd elements as
  92:.\DSP\Source\TransformFunctions/arm_dct4_q31.c ****    *             pState[i] =  pInlineBuffer[2*i] and
  93:.\DSP\Source\TransformFunctions/arm_dct4_q31.c ****    *             pState[N-i-1] = pInlineBuffer[2*i+1] where i = 0 to N/2
  94:.\DSP\Source\TransformFunctions/arm_dct4_q31.c ****    ---------------------------------------------------------------------*/
  95:.\DSP\Source\TransformFunctions/arm_dct4_q31.c **** 
  96:.\DSP\Source\TransformFunctions/arm_dct4_q31.c ****   /* pS1 initialized to pState */
  97:.\DSP\Source\TransformFunctions/arm_dct4_q31.c ****   pS1 = pState;
  98:.\DSP\Source\TransformFunctions/arm_dct4_q31.c **** 
  99:.\DSP\Source\TransformFunctions/arm_dct4_q31.c ****   /* pS2 initialized to pState+N-1, so that it points to the end of the state buffer */
 100:.\DSP\Source\TransformFunctions/arm_dct4_q31.c ****   pS2 = pState + (S->N - 1U);
  65              		.loc 1 100 0
  66 0024 2A88     		ldrh	r2, [r5]
  67 0026 02F18042 		add	r2, r2, #1073741824
  68 002a 013A     		subs	r2, r2, #1
  69 002c 06EB8202 		add	r2, r6, r2, lsl #2
  70              	.LVL6:
 101:.\DSP\Source\TransformFunctions/arm_dct4_q31.c **** 
ARM GAS  C:\Users\IVYLIU~1\AppData\Local\Temp\cch37GjC.s 			page 4


 102:.\DSP\Source\TransformFunctions/arm_dct4_q31.c ****   /* pbuff initialized to input buffer */
 103:.\DSP\Source\TransformFunctions/arm_dct4_q31.c ****   pbuff = pInlineBuffer;
 104:.\DSP\Source\TransformFunctions/arm_dct4_q31.c **** 
 105:.\DSP\Source\TransformFunctions/arm_dct4_q31.c **** 
 106:.\DSP\Source\TransformFunctions/arm_dct4_q31.c **** #if defined (ARM_MATH_LOOPUNROLL)
 107:.\DSP\Source\TransformFunctions/arm_dct4_q31.c **** 
 108:.\DSP\Source\TransformFunctions/arm_dct4_q31.c ****   /* Initializing the loop counter to N/2 >> 2 for loop unrolling by 4 */
 109:.\DSP\Source\TransformFunctions/arm_dct4_q31.c ****   i = S->Nby2 >> 2U;
 110:.\DSP\Source\TransformFunctions/arm_dct4_q31.c **** 
 111:.\DSP\Source\TransformFunctions/arm_dct4_q31.c ****   /* First part of the processing with loop unrolling.  Compute 4 outputs at a time.
 112:.\DSP\Source\TransformFunctions/arm_dct4_q31.c ****    ** a second loop below computes the remaining 1 to 3 samples. */
 113:.\DSP\Source\TransformFunctions/arm_dct4_q31.c ****   do
 114:.\DSP\Source\TransformFunctions/arm_dct4_q31.c ****   {
 115:.\DSP\Source\TransformFunctions/arm_dct4_q31.c ****     /* Re-ordering of even and odd elements */
 116:.\DSP\Source\TransformFunctions/arm_dct4_q31.c ****     /* pState[i] =  pInlineBuffer[2*i] */
 117:.\DSP\Source\TransformFunctions/arm_dct4_q31.c ****     *pS1++ = *pbuff++;
 118:.\DSP\Source\TransformFunctions/arm_dct4_q31.c ****     /* pState[N-i-1] = pInlineBuffer[2*i+1] */
 119:.\DSP\Source\TransformFunctions/arm_dct4_q31.c ****     *pS2-- = *pbuff++;
 120:.\DSP\Source\TransformFunctions/arm_dct4_q31.c **** 
 121:.\DSP\Source\TransformFunctions/arm_dct4_q31.c ****     *pS1++ = *pbuff++;
 122:.\DSP\Source\TransformFunctions/arm_dct4_q31.c ****     *pS2-- = *pbuff++;
 123:.\DSP\Source\TransformFunctions/arm_dct4_q31.c **** 
 124:.\DSP\Source\TransformFunctions/arm_dct4_q31.c ****     *pS1++ = *pbuff++;
 125:.\DSP\Source\TransformFunctions/arm_dct4_q31.c ****     *pS2-- = *pbuff++;
 126:.\DSP\Source\TransformFunctions/arm_dct4_q31.c **** 
 127:.\DSP\Source\TransformFunctions/arm_dct4_q31.c ****     *pS1++ = *pbuff++;
 128:.\DSP\Source\TransformFunctions/arm_dct4_q31.c ****     *pS2-- = *pbuff++;
 129:.\DSP\Source\TransformFunctions/arm_dct4_q31.c **** 
 130:.\DSP\Source\TransformFunctions/arm_dct4_q31.c ****     /* Decrement loop counter */
 131:.\DSP\Source\TransformFunctions/arm_dct4_q31.c ****     i--;
 132:.\DSP\Source\TransformFunctions/arm_dct4_q31.c ****   } while (i > 0U);
 133:.\DSP\Source\TransformFunctions/arm_dct4_q31.c **** 
 134:.\DSP\Source\TransformFunctions/arm_dct4_q31.c ****   /* pbuff initialized to input buffer */
 135:.\DSP\Source\TransformFunctions/arm_dct4_q31.c ****   pbuff = pInlineBuffer;
 136:.\DSP\Source\TransformFunctions/arm_dct4_q31.c **** 
 137:.\DSP\Source\TransformFunctions/arm_dct4_q31.c ****   /* pS1 initialized to pState */
 138:.\DSP\Source\TransformFunctions/arm_dct4_q31.c ****   pS1 = pState;
 139:.\DSP\Source\TransformFunctions/arm_dct4_q31.c **** 
 140:.\DSP\Source\TransformFunctions/arm_dct4_q31.c ****   /* Initializing the loop counter to N/4 instead of N for loop unrolling */
 141:.\DSP\Source\TransformFunctions/arm_dct4_q31.c ****   i = S->N >> 2U;
 142:.\DSP\Source\TransformFunctions/arm_dct4_q31.c **** 
 143:.\DSP\Source\TransformFunctions/arm_dct4_q31.c ****   /* Processing with loop unrolling 4 times as N is always multiple of 4.
 144:.\DSP\Source\TransformFunctions/arm_dct4_q31.c ****    * Compute 4 outputs at a time */
 145:.\DSP\Source\TransformFunctions/arm_dct4_q31.c ****   do
 146:.\DSP\Source\TransformFunctions/arm_dct4_q31.c ****   {
 147:.\DSP\Source\TransformFunctions/arm_dct4_q31.c ****     /* Writing the re-ordered output back to inplace input buffer */
 148:.\DSP\Source\TransformFunctions/arm_dct4_q31.c ****     *pbuff++ = *pS1++;
 149:.\DSP\Source\TransformFunctions/arm_dct4_q31.c ****     *pbuff++ = *pS1++;
 150:.\DSP\Source\TransformFunctions/arm_dct4_q31.c ****     *pbuff++ = *pS1++;
 151:.\DSP\Source\TransformFunctions/arm_dct4_q31.c ****     *pbuff++ = *pS1++;
 152:.\DSP\Source\TransformFunctions/arm_dct4_q31.c **** 
 153:.\DSP\Source\TransformFunctions/arm_dct4_q31.c ****     /* Decrement the loop counter */
 154:.\DSP\Source\TransformFunctions/arm_dct4_q31.c ****     i--;
 155:.\DSP\Source\TransformFunctions/arm_dct4_q31.c ****   } while (i > 0U);
 156:.\DSP\Source\TransformFunctions/arm_dct4_q31.c **** 
 157:.\DSP\Source\TransformFunctions/arm_dct4_q31.c **** 
 158:.\DSP\Source\TransformFunctions/arm_dct4_q31.c ****   /* ---------------------------------------------------------
ARM GAS  C:\Users\IVYLIU~1\AppData\Local\Temp\cch37GjC.s 			page 5


 159:.\DSP\Source\TransformFunctions/arm_dct4_q31.c ****    *     Step2: Calculate RFFT for N-point input
 160:.\DSP\Source\TransformFunctions/arm_dct4_q31.c ****    * ---------------------------------------------------------- */
 161:.\DSP\Source\TransformFunctions/arm_dct4_q31.c ****   /* pInlineBuffer is real input of length N , pState is the complex output of length 2N */
 162:.\DSP\Source\TransformFunctions/arm_dct4_q31.c ****   arm_rfft_q31 (S->pRfft, pInlineBuffer, pState);
 163:.\DSP\Source\TransformFunctions/arm_dct4_q31.c **** 
 164:.\DSP\Source\TransformFunctions/arm_dct4_q31.c ****   /*----------------------------------------------------------------------
 165:.\DSP\Source\TransformFunctions/arm_dct4_q31.c ****    *  Step3: Multiply the FFT output with the weights.
 166:.\DSP\Source\TransformFunctions/arm_dct4_q31.c ****    *----------------------------------------------------------------------*/
 167:.\DSP\Source\TransformFunctions/arm_dct4_q31.c ****   arm_cmplx_mult_cmplx_q31 (pState, weights, pState, S->N);
 168:.\DSP\Source\TransformFunctions/arm_dct4_q31.c **** 
 169:.\DSP\Source\TransformFunctions/arm_dct4_q31.c ****   /* The output of complex multiplication is in 3.29 format.
 170:.\DSP\Source\TransformFunctions/arm_dct4_q31.c ****    * Hence changing the format of N (i.e. 2*N elements) complex numbers to 1.31 format by shifting 
 171:.\DSP\Source\TransformFunctions/arm_dct4_q31.c ****   arm_shift_q31 (pState, 2, pState, S->N * 2);
 172:.\DSP\Source\TransformFunctions/arm_dct4_q31.c **** 
 173:.\DSP\Source\TransformFunctions/arm_dct4_q31.c ****   /* ----------- Post-processing ---------- */
 174:.\DSP\Source\TransformFunctions/arm_dct4_q31.c ****   /* DCT-IV can be obtained from DCT-II by the equation,
 175:.\DSP\Source\TransformFunctions/arm_dct4_q31.c ****    *       Y4(k) = Y2(k) - Y4(k-1) and Y4(-1) = Y4(0)
 176:.\DSP\Source\TransformFunctions/arm_dct4_q31.c ****    *       Hence, Y4(0) = Y2(0)/2  */
 177:.\DSP\Source\TransformFunctions/arm_dct4_q31.c ****   /* Getting only real part from the output and Converting to DCT-IV */
 178:.\DSP\Source\TransformFunctions/arm_dct4_q31.c **** 
 179:.\DSP\Source\TransformFunctions/arm_dct4_q31.c ****   /* Initializing the loop counter to N >> 2 for loop unrolling by 4 */
 180:.\DSP\Source\TransformFunctions/arm_dct4_q31.c ****   i = (S->N - 1U) >> 2U;
 181:.\DSP\Source\TransformFunctions/arm_dct4_q31.c **** 
 182:.\DSP\Source\TransformFunctions/arm_dct4_q31.c ****   /* pbuff initialized to input buffer. */
 183:.\DSP\Source\TransformFunctions/arm_dct4_q31.c ****   pbuff = pInlineBuffer;
 184:.\DSP\Source\TransformFunctions/arm_dct4_q31.c **** 
 185:.\DSP\Source\TransformFunctions/arm_dct4_q31.c ****   /* pS1 initialized to pState */
 186:.\DSP\Source\TransformFunctions/arm_dct4_q31.c ****   pS1 = pState;
 187:.\DSP\Source\TransformFunctions/arm_dct4_q31.c **** 
 188:.\DSP\Source\TransformFunctions/arm_dct4_q31.c ****   /* Calculating Y4(0) from Y2(0) using Y4(0) = Y2(0)/2 */
 189:.\DSP\Source\TransformFunctions/arm_dct4_q31.c ****   in = *pS1++ >> 1U;
 190:.\DSP\Source\TransformFunctions/arm_dct4_q31.c ****   /* input buffer acts as inplace, so output values are stored in the input itself. */
 191:.\DSP\Source\TransformFunctions/arm_dct4_q31.c ****   *pbuff++ = in;
 192:.\DSP\Source\TransformFunctions/arm_dct4_q31.c **** 
 193:.\DSP\Source\TransformFunctions/arm_dct4_q31.c ****   /* pState pointer is incremented twice as the real values are located alternatively in the array 
 194:.\DSP\Source\TransformFunctions/arm_dct4_q31.c ****   pS1++;
 195:.\DSP\Source\TransformFunctions/arm_dct4_q31.c **** 
 196:.\DSP\Source\TransformFunctions/arm_dct4_q31.c ****   /* First part of the processing with loop unrolling.  Compute 4 outputs at a time.
 197:.\DSP\Source\TransformFunctions/arm_dct4_q31.c ****    ** a second loop below computes the remaining 1 to 3 samples. */
 198:.\DSP\Source\TransformFunctions/arm_dct4_q31.c ****   do
 199:.\DSP\Source\TransformFunctions/arm_dct4_q31.c ****   {
 200:.\DSP\Source\TransformFunctions/arm_dct4_q31.c ****     /* Calculating Y4(1) to Y4(N-1) from Y2 using equation Y4(k) = Y2(k) - Y4(k-1) */
 201:.\DSP\Source\TransformFunctions/arm_dct4_q31.c ****     /* pState pointer (pS1) is incremented twice as the real values are located alternatively in th
 202:.\DSP\Source\TransformFunctions/arm_dct4_q31.c ****     in = *pS1++ - in;
 203:.\DSP\Source\TransformFunctions/arm_dct4_q31.c ****     *pbuff++ = in;
 204:.\DSP\Source\TransformFunctions/arm_dct4_q31.c ****     /* points to the next real value */
 205:.\DSP\Source\TransformFunctions/arm_dct4_q31.c ****     pS1++;
 206:.\DSP\Source\TransformFunctions/arm_dct4_q31.c **** 
 207:.\DSP\Source\TransformFunctions/arm_dct4_q31.c ****     in = *pS1++ - in;
 208:.\DSP\Source\TransformFunctions/arm_dct4_q31.c ****     *pbuff++ = in;
 209:.\DSP\Source\TransformFunctions/arm_dct4_q31.c ****     pS1++;
 210:.\DSP\Source\TransformFunctions/arm_dct4_q31.c **** 
 211:.\DSP\Source\TransformFunctions/arm_dct4_q31.c ****     in = *pS1++ - in;
 212:.\DSP\Source\TransformFunctions/arm_dct4_q31.c ****     *pbuff++ = in;
 213:.\DSP\Source\TransformFunctions/arm_dct4_q31.c ****     pS1++;
 214:.\DSP\Source\TransformFunctions/arm_dct4_q31.c **** 
 215:.\DSP\Source\TransformFunctions/arm_dct4_q31.c ****     in = *pS1++ - in;
ARM GAS  C:\Users\IVYLIU~1\AppData\Local\Temp\cch37GjC.s 			page 6


 216:.\DSP\Source\TransformFunctions/arm_dct4_q31.c ****     *pbuff++ = in;
 217:.\DSP\Source\TransformFunctions/arm_dct4_q31.c ****     pS1++;
 218:.\DSP\Source\TransformFunctions/arm_dct4_q31.c **** 
 219:.\DSP\Source\TransformFunctions/arm_dct4_q31.c ****     /* Decrement the loop counter */
 220:.\DSP\Source\TransformFunctions/arm_dct4_q31.c ****     i--;
 221:.\DSP\Source\TransformFunctions/arm_dct4_q31.c ****   } while (i > 0U);
 222:.\DSP\Source\TransformFunctions/arm_dct4_q31.c **** 
 223:.\DSP\Source\TransformFunctions/arm_dct4_q31.c ****   /* If the blockSize is not a multiple of 4, compute any remaining output samples here.
 224:.\DSP\Source\TransformFunctions/arm_dct4_q31.c ****    ** No loop unrolling is used. */
 225:.\DSP\Source\TransformFunctions/arm_dct4_q31.c ****   i = (S->N - 1U) % 0x4U;
 226:.\DSP\Source\TransformFunctions/arm_dct4_q31.c **** 
 227:.\DSP\Source\TransformFunctions/arm_dct4_q31.c ****   while (i > 0U)
 228:.\DSP\Source\TransformFunctions/arm_dct4_q31.c ****   {
 229:.\DSP\Source\TransformFunctions/arm_dct4_q31.c ****     /* Calculating Y4(1) to Y4(N-1) from Y2 using equation Y4(k) = Y2(k) - Y4(k-1) */
 230:.\DSP\Source\TransformFunctions/arm_dct4_q31.c ****     /* pState pointer (pS1) is incremented twice as the real values are located alternatively in th
 231:.\DSP\Source\TransformFunctions/arm_dct4_q31.c ****     in = *pS1++ - in;
 232:.\DSP\Source\TransformFunctions/arm_dct4_q31.c ****     *pbuff++ = in;
 233:.\DSP\Source\TransformFunctions/arm_dct4_q31.c **** 
 234:.\DSP\Source\TransformFunctions/arm_dct4_q31.c ****     /* points to the next real value */
 235:.\DSP\Source\TransformFunctions/arm_dct4_q31.c ****     pS1++;
 236:.\DSP\Source\TransformFunctions/arm_dct4_q31.c **** 
 237:.\DSP\Source\TransformFunctions/arm_dct4_q31.c ****     /* Decrement loop counter */
 238:.\DSP\Source\TransformFunctions/arm_dct4_q31.c ****     i--;
 239:.\DSP\Source\TransformFunctions/arm_dct4_q31.c ****   }
 240:.\DSP\Source\TransformFunctions/arm_dct4_q31.c **** 
 241:.\DSP\Source\TransformFunctions/arm_dct4_q31.c **** 
 242:.\DSP\Source\TransformFunctions/arm_dct4_q31.c ****   /*------------ Normalizing the output by multiplying with the normalizing factor ----------*/
 243:.\DSP\Source\TransformFunctions/arm_dct4_q31.c **** 
 244:.\DSP\Source\TransformFunctions/arm_dct4_q31.c ****   /* Initializing the loop counter to N/4 instead of N for loop unrolling */
 245:.\DSP\Source\TransformFunctions/arm_dct4_q31.c ****   i = S->N >> 2U;
 246:.\DSP\Source\TransformFunctions/arm_dct4_q31.c **** 
 247:.\DSP\Source\TransformFunctions/arm_dct4_q31.c ****   /* pbuff initialized to the pInlineBuffer(now contains the output values) */
 248:.\DSP\Source\TransformFunctions/arm_dct4_q31.c ****   pbuff = pInlineBuffer;
 249:.\DSP\Source\TransformFunctions/arm_dct4_q31.c **** 
 250:.\DSP\Source\TransformFunctions/arm_dct4_q31.c ****   /* Processing with loop unrolling 4 times as N is always multiple of 4.  Compute 4 outputs at a t
 251:.\DSP\Source\TransformFunctions/arm_dct4_q31.c ****   do
 252:.\DSP\Source\TransformFunctions/arm_dct4_q31.c ****   {
 253:.\DSP\Source\TransformFunctions/arm_dct4_q31.c ****     /* Multiplying pInlineBuffer with the normalizing factor sqrt(2/N) */
 254:.\DSP\Source\TransformFunctions/arm_dct4_q31.c ****     in = *pbuff;
 255:.\DSP\Source\TransformFunctions/arm_dct4_q31.c ****     *pbuff++ = ((q31_t) (((q63_t) in * S->normalize) >> 31));
 256:.\DSP\Source\TransformFunctions/arm_dct4_q31.c **** 
 257:.\DSP\Source\TransformFunctions/arm_dct4_q31.c ****     in = *pbuff;
 258:.\DSP\Source\TransformFunctions/arm_dct4_q31.c ****     *pbuff++ = ((q31_t) (((q63_t) in * S->normalize) >> 31));
 259:.\DSP\Source\TransformFunctions/arm_dct4_q31.c **** 
 260:.\DSP\Source\TransformFunctions/arm_dct4_q31.c ****     in = *pbuff;
 261:.\DSP\Source\TransformFunctions/arm_dct4_q31.c ****     *pbuff++ = ((q31_t) (((q63_t) in * S->normalize) >> 31));
 262:.\DSP\Source\TransformFunctions/arm_dct4_q31.c **** 
 263:.\DSP\Source\TransformFunctions/arm_dct4_q31.c ****     in = *pbuff;
 264:.\DSP\Source\TransformFunctions/arm_dct4_q31.c ****     *pbuff++ = ((q31_t) (((q63_t) in * S->normalize) >> 31));
 265:.\DSP\Source\TransformFunctions/arm_dct4_q31.c **** 
 266:.\DSP\Source\TransformFunctions/arm_dct4_q31.c ****     /* Decrement loop counter */
 267:.\DSP\Source\TransformFunctions/arm_dct4_q31.c ****     i--;
 268:.\DSP\Source\TransformFunctions/arm_dct4_q31.c ****   } while (i > 0U);
 269:.\DSP\Source\TransformFunctions/arm_dct4_q31.c **** 
 270:.\DSP\Source\TransformFunctions/arm_dct4_q31.c **** 
 271:.\DSP\Source\TransformFunctions/arm_dct4_q31.c **** #else
 272:.\DSP\Source\TransformFunctions/arm_dct4_q31.c **** 
ARM GAS  C:\Users\IVYLIU~1\AppData\Local\Temp\cch37GjC.s 			page 7


 273:.\DSP\Source\TransformFunctions/arm_dct4_q31.c ****   /* Initializing the loop counter to N/2 */
 274:.\DSP\Source\TransformFunctions/arm_dct4_q31.c ****   i = S->Nby2;
  71              		.loc 1 274 0
  72 0030 B5F802E0 		ldrh	lr, [r5, #2]
  73              	.LVL7:
 103:.\DSP\Source\TransformFunctions/arm_dct4_q31.c **** 
  74              		.loc 1 103 0
  75 0034 2046     		mov	r0, r4
  97:.\DSP\Source\TransformFunctions/arm_dct4_q31.c **** 
  76              		.loc 1 97 0
  77 0036 3146     		mov	r1, r6
  78              	.LVL8:
  79              	.L2:
 275:.\DSP\Source\TransformFunctions/arm_dct4_q31.c **** 
 276:.\DSP\Source\TransformFunctions/arm_dct4_q31.c ****   do
 277:.\DSP\Source\TransformFunctions/arm_dct4_q31.c ****   {
 278:.\DSP\Source\TransformFunctions/arm_dct4_q31.c ****     /* Re-ordering of even and odd elements */
 279:.\DSP\Source\TransformFunctions/arm_dct4_q31.c ****     /* pState[i] =  pInlineBuffer[2*i] */
 280:.\DSP\Source\TransformFunctions/arm_dct4_q31.c ****     *pS1++ = *pbuff++;
  80              		.loc 1 280 0 discriminator 1
  81 0038 0346     		mov	r3, r0
  82 003a 53F8087B 		ldr	r7, [r3], #8
  83 003e 0F60     		str	r7, [r1]
  84              	.LVL9:
 281:.\DSP\Source\TransformFunctions/arm_dct4_q31.c ****     /* pState[N-i-1] = pInlineBuffer[2*i+1] */
 282:.\DSP\Source\TransformFunctions/arm_dct4_q31.c ****     *pS2-- = *pbuff++;
  85              		.loc 1 282 0 discriminator 1
  86 0040 4068     		ldr	r0, [r0, #4]
  87 0042 1060     		str	r0, [r2]
  88              	.LVL10:
 280:.\DSP\Source\TransformFunctions/arm_dct4_q31.c ****     /* pState[N-i-1] = pInlineBuffer[2*i+1] */
  89              		.loc 1 280 0 discriminator 1
  90 0044 0431     		adds	r1, r1, #4
  91              	.LVL11:
  92              		.loc 1 282 0 discriminator 1
  93 0046 043A     		subs	r2, r2, #4
  94              	.LVL12:
  95 0048 1846     		mov	r0, r3
 283:.\DSP\Source\TransformFunctions/arm_dct4_q31.c **** 
 284:.\DSP\Source\TransformFunctions/arm_dct4_q31.c ****     /* Decrement the loop counter */
 285:.\DSP\Source\TransformFunctions/arm_dct4_q31.c ****     i--;
 286:.\DSP\Source\TransformFunctions/arm_dct4_q31.c ****   } while (i > 0U);
  96              		.loc 1 286 0 discriminator 1
  97 004a BEF1010E 		subs	lr, lr, #1
  98              	.LVL13:
  99 004e F3D1     		bne	.L2
 100              	.LVL14:
 287:.\DSP\Source\TransformFunctions/arm_dct4_q31.c **** 
 288:.\DSP\Source\TransformFunctions/arm_dct4_q31.c ****   /* pbuff initialized to input buffer */
 289:.\DSP\Source\TransformFunctions/arm_dct4_q31.c ****   pbuff = pInlineBuffer;
 290:.\DSP\Source\TransformFunctions/arm_dct4_q31.c **** 
 291:.\DSP\Source\TransformFunctions/arm_dct4_q31.c ****   /* pS1 initialized to pState */
 292:.\DSP\Source\TransformFunctions/arm_dct4_q31.c ****   pS1 = pState;
 293:.\DSP\Source\TransformFunctions/arm_dct4_q31.c **** 
 294:.\DSP\Source\TransformFunctions/arm_dct4_q31.c ****   /* Initializing the loop counter */
 295:.\DSP\Source\TransformFunctions/arm_dct4_q31.c ****   i = S->N;
 101              		.loc 1 295 0
ARM GAS  C:\Users\IVYLIU~1\AppData\Local\Temp\cch37GjC.s 			page 8


 102 0050 2988     		ldrh	r1, [r5]
 103              	.LVL15:
 289:.\DSP\Source\TransformFunctions/arm_dct4_q31.c **** 
 104              		.loc 1 289 0
 105 0052 2246     		mov	r2, r4
 106              	.LVL16:
 292:.\DSP\Source\TransformFunctions/arm_dct4_q31.c **** 
 107              		.loc 1 292 0
 108 0054 3346     		mov	r3, r6
 109              	.LVL17:
 110              	.L3:
 296:.\DSP\Source\TransformFunctions/arm_dct4_q31.c **** 
 297:.\DSP\Source\TransformFunctions/arm_dct4_q31.c ****   do
 298:.\DSP\Source\TransformFunctions/arm_dct4_q31.c ****   {
 299:.\DSP\Source\TransformFunctions/arm_dct4_q31.c ****     /* Writing the re-ordered output back to inplace input buffer */
 300:.\DSP\Source\TransformFunctions/arm_dct4_q31.c ****     *pbuff++ = *pS1++;
 111              		.loc 1 300 0 discriminator 1
 112 0056 1868     		ldr	r0, [r3]
 113 0058 1060     		str	r0, [r2]
 114              	.LVL18:
 115 005a 0433     		adds	r3, r3, #4
 116              	.LVL19:
 117 005c 0432     		adds	r2, r2, #4
 118              	.LVL20:
 301:.\DSP\Source\TransformFunctions/arm_dct4_q31.c **** 
 302:.\DSP\Source\TransformFunctions/arm_dct4_q31.c ****     /* Decrement the loop counter */
 303:.\DSP\Source\TransformFunctions/arm_dct4_q31.c ****     i--;
 304:.\DSP\Source\TransformFunctions/arm_dct4_q31.c ****   } while (i > 0U);
 119              		.loc 1 304 0 discriminator 1
 120 005e 0139     		subs	r1, r1, #1
 121              	.LVL21:
 122 0060 F9D1     		bne	.L3
 305:.\DSP\Source\TransformFunctions/arm_dct4_q31.c **** 
 306:.\DSP\Source\TransformFunctions/arm_dct4_q31.c **** 
 307:.\DSP\Source\TransformFunctions/arm_dct4_q31.c ****   /* ---------------------------------------------------------
 308:.\DSP\Source\TransformFunctions/arm_dct4_q31.c ****    *     Step2: Calculate RFFT for N-point input
 309:.\DSP\Source\TransformFunctions/arm_dct4_q31.c ****    * ---------------------------------------------------------- */
 310:.\DSP\Source\TransformFunctions/arm_dct4_q31.c ****   /* pInlineBuffer is real input of length N , pState is the complex output of length 2N */
 311:.\DSP\Source\TransformFunctions/arm_dct4_q31.c ****   arm_rfft_q31 (S->pRfft, pInlineBuffer, pState);
 123              		.loc 1 311 0
 124 0062 2869     		ldr	r0, [r5, #16]
 125 0064 2146     		mov	r1, r4
 126              	.LVL22:
 127 0066 3246     		mov	r2, r6
 128              	.LVL23:
 129 0068 FFF7FEFF 		bl	arm_rfft_q31
 130              	.LVL24:
 312:.\DSP\Source\TransformFunctions/arm_dct4_q31.c **** 
 313:.\DSP\Source\TransformFunctions/arm_dct4_q31.c ****   /*----------------------------------------------------------------------
 314:.\DSP\Source\TransformFunctions/arm_dct4_q31.c ****    *  Step3: Multiply the FFT output with the weights.
 315:.\DSP\Source\TransformFunctions/arm_dct4_q31.c ****    *----------------------------------------------------------------------*/
 316:.\DSP\Source\TransformFunctions/arm_dct4_q31.c ****   arm_cmplx_mult_cmplx_q31 (pState, weights, pState, S->N);
 131              		.loc 1 316 0
 132 006c 3046     		mov	r0, r6
 133 006e 4146     		mov	r1, r8
 134 0070 3246     		mov	r2, r6
 135 0072 2B88     		ldrh	r3, [r5]
ARM GAS  C:\Users\IVYLIU~1\AppData\Local\Temp\cch37GjC.s 			page 9


 136 0074 FFF7FEFF 		bl	arm_cmplx_mult_cmplx_q31
 137              	.LVL25:
 317:.\DSP\Source\TransformFunctions/arm_dct4_q31.c **** 
 318:.\DSP\Source\TransformFunctions/arm_dct4_q31.c ****   /* The output of complex multiplication is in 3.29 format.
 319:.\DSP\Source\TransformFunctions/arm_dct4_q31.c ****    * Hence changing the format of N (i.e. 2*N elements) complex numbers to 1.31 format by shifting 
 320:.\DSP\Source\TransformFunctions/arm_dct4_q31.c ****   arm_shift_q31(pState, 2, pState, S->N * 2);
 138              		.loc 1 320 0
 139 0078 2B88     		ldrh	r3, [r5]
 140 007a 3046     		mov	r0, r6
 141 007c 0221     		movs	r1, #2
 142 007e 3246     		mov	r2, r6
 143 0080 5B00     		lsls	r3, r3, #1
 144 0082 FFF7FEFF 		bl	arm_shift_q31
 145              	.LVL26:
 321:.\DSP\Source\TransformFunctions/arm_dct4_q31.c **** 
 322:.\DSP\Source\TransformFunctions/arm_dct4_q31.c ****   /* ----------- Post-processing ---------- */
 323:.\DSP\Source\TransformFunctions/arm_dct4_q31.c ****   /* DCT-IV can be obtained from DCT-II by the equation,
 324:.\DSP\Source\TransformFunctions/arm_dct4_q31.c ****    *       Y4(k) = Y2(k) - Y4(k-1) and Y4(-1) = Y4(0)
 325:.\DSP\Source\TransformFunctions/arm_dct4_q31.c ****    *       Hence, Y4(0) = Y2(0)/2  */
 326:.\DSP\Source\TransformFunctions/arm_dct4_q31.c ****   /* Getting only real part from the output and Converting to DCT-IV */
 327:.\DSP\Source\TransformFunctions/arm_dct4_q31.c **** 
 328:.\DSP\Source\TransformFunctions/arm_dct4_q31.c ****   /* pbuff initialized to input buffer. */
 329:.\DSP\Source\TransformFunctions/arm_dct4_q31.c ****   pbuff = pInlineBuffer;
 330:.\DSP\Source\TransformFunctions/arm_dct4_q31.c **** 
 331:.\DSP\Source\TransformFunctions/arm_dct4_q31.c ****   /* pS1 initialized to pState */
 332:.\DSP\Source\TransformFunctions/arm_dct4_q31.c ****   pS1 = pState;
 333:.\DSP\Source\TransformFunctions/arm_dct4_q31.c **** 
 334:.\DSP\Source\TransformFunctions/arm_dct4_q31.c ****   /* Calculating Y4(0) from Y2(0) using Y4(0) = Y2(0)/2 */
 335:.\DSP\Source\TransformFunctions/arm_dct4_q31.c ****   in = *pS1++ >> 1U;
 146              		.loc 1 335 0
 147 0086 3246     		mov	r2, r6
 148 0088 52F8086B 		ldr	r6, [r2], #8
 149              	.LVL27:
 150 008c 7610     		asrs	r6, r6, #1
 151              	.LVL28:
 336:.\DSP\Source\TransformFunctions/arm_dct4_q31.c ****   /* input buffer acts as inplace, so output values are stored in the input itself. */
 337:.\DSP\Source\TransformFunctions/arm_dct4_q31.c ****   *pbuff++ = in;
 152              		.loc 1 337 0
 153 008e 211D     		adds	r1, r4, #4
 154              	.LVL29:
 155 0090 2660     		str	r6, [r4]
 156              	.LVL30:
 338:.\DSP\Source\TransformFunctions/arm_dct4_q31.c **** 
 339:.\DSP\Source\TransformFunctions/arm_dct4_q31.c ****   /* pState pointer is incremented twice as the real values are located alternatively in the array 
 340:.\DSP\Source\TransformFunctions/arm_dct4_q31.c ****   pS1++;
 341:.\DSP\Source\TransformFunctions/arm_dct4_q31.c **** 
 342:.\DSP\Source\TransformFunctions/arm_dct4_q31.c ****   /* Initializing the loop counter */
 343:.\DSP\Source\TransformFunctions/arm_dct4_q31.c ****   i = (S->N - 1U);
 157              		.loc 1 343 0
 158 0092 2B88     		ldrh	r3, [r5]
 159 0094 013B     		subs	r3, r3, #1
 160              	.LVL31:
 344:.\DSP\Source\TransformFunctions/arm_dct4_q31.c **** 
 345:.\DSP\Source\TransformFunctions/arm_dct4_q31.c ****   while (i > 0U)
 161              		.loc 1 345 0
 162 0096 05E0     		b	.L4
 163              	.L5:
ARM GAS  C:\Users\IVYLIU~1\AppData\Local\Temp\cch37GjC.s 			page 10


 164              	.LVL32:
 346:.\DSP\Source\TransformFunctions/arm_dct4_q31.c ****   {
 347:.\DSP\Source\TransformFunctions/arm_dct4_q31.c ****     /* Calculating Y4(1) to Y4(N-1) from Y2 using equation Y4(k) = Y2(k) - Y4(k-1) */
 348:.\DSP\Source\TransformFunctions/arm_dct4_q31.c ****     /* pState pointer (pS1) is incremented twice as the real values are located alternatively in th
 349:.\DSP\Source\TransformFunctions/arm_dct4_q31.c ****     in = *pS1++ - in;
 165              		.loc 1 349 0
 166 0098 52F8080B 		ldr	r0, [r2], #8
 167              	.LVL33:
 168 009c 861B     		subs	r6, r0, r6
 169              	.LVL34:
 350:.\DSP\Source\TransformFunctions/arm_dct4_q31.c ****     *pbuff++ = in;
 170              		.loc 1 350 0
 171 009e 0E60     		str	r6, [r1]
 172              	.LVL35:
 351:.\DSP\Source\TransformFunctions/arm_dct4_q31.c **** 
 352:.\DSP\Source\TransformFunctions/arm_dct4_q31.c ****     /* points to the next real value */
 353:.\DSP\Source\TransformFunctions/arm_dct4_q31.c ****     pS1++;
 354:.\DSP\Source\TransformFunctions/arm_dct4_q31.c **** 
 355:.\DSP\Source\TransformFunctions/arm_dct4_q31.c ****     /* Decrement loop counter */
 356:.\DSP\Source\TransformFunctions/arm_dct4_q31.c ****     i--;
 173              		.loc 1 356 0
 174 00a0 013B     		subs	r3, r3, #1
 175              	.LVL36:
 350:.\DSP\Source\TransformFunctions/arm_dct4_q31.c ****     *pbuff++ = in;
 176              		.loc 1 350 0
 177 00a2 0431     		adds	r1, r1, #4
 178              	.LVL37:
 179              	.L4:
 345:.\DSP\Source\TransformFunctions/arm_dct4_q31.c ****   {
 180              		.loc 1 345 0
 181 00a4 002B     		cmp	r3, #0
 182 00a6 F7D1     		bne	.L5
 357:.\DSP\Source\TransformFunctions/arm_dct4_q31.c ****   }
 358:.\DSP\Source\TransformFunctions/arm_dct4_q31.c **** 
 359:.\DSP\Source\TransformFunctions/arm_dct4_q31.c ****   /*------------ Normalizing the output by multiplying with the normalizing factor ----------*/
 360:.\DSP\Source\TransformFunctions/arm_dct4_q31.c **** 
 361:.\DSP\Source\TransformFunctions/arm_dct4_q31.c ****   /* Initializing loop counter */
 362:.\DSP\Source\TransformFunctions/arm_dct4_q31.c ****   i = S->N;
 183              		.loc 1 362 0
 184 00a8 2E88     		ldrh	r6, [r5]
 185              	.LVL38:
 186              	.L6:
 363:.\DSP\Source\TransformFunctions/arm_dct4_q31.c **** 
 364:.\DSP\Source\TransformFunctions/arm_dct4_q31.c ****   /* pbuff initialized to the pInlineBuffer (now contains the output values) */
 365:.\DSP\Source\TransformFunctions/arm_dct4_q31.c ****   pbuff = pInlineBuffer;
 366:.\DSP\Source\TransformFunctions/arm_dct4_q31.c **** 
 367:.\DSP\Source\TransformFunctions/arm_dct4_q31.c ****   do
 368:.\DSP\Source\TransformFunctions/arm_dct4_q31.c ****   {
 369:.\DSP\Source\TransformFunctions/arm_dct4_q31.c ****     /* Multiplying pInlineBuffer with the normalizing factor sqrt(2/N) */
 370:.\DSP\Source\TransformFunctions/arm_dct4_q31.c ****     in = *pbuff;
 187              		.loc 1 370 0 discriminator 1
 188 00aa 2146     		mov	r1, r4
 189 00ac 51F8043B 		ldr	r3, [r1], #4
 190              	.LVL39:
 371:.\DSP\Source\TransformFunctions/arm_dct4_q31.c ****     *pbuff++ = ((q31_t) (((q63_t) in * S->normalize) >> 31));
 191              		.loc 1 371 0 discriminator 1
 192 00b0 4FEAE379 		asr	r9, r3, #31
ARM GAS  C:\Users\IVYLIU~1\AppData\Local\Temp\cch37GjC.s 			page 11


 193 00b4 6A68     		ldr	r2, [r5, #4]
 194 00b6 4FEAE27B 		asr	fp, r2, #31
 195 00ba 03FB0BF0 		mul	r0, r3, fp
 196 00be 02FB0900 		mla	r0, r2, r9, r0
 197 00c2 A3FB0223 		umull	r2, r3, r3, r2
 198 00c6 0344     		add	r3, r3, r0
 199              	.LVL40:
 200 00c8 D20F     		lsrs	r2, r2, #31
 201 00ca 42EA4302 		orr	r2, r2, r3, lsl #1
 202 00ce 2260     		str	r2, [r4]
 203              	.LVL41:
 204 00d0 0C46     		mov	r4, r1
 372:.\DSP\Source\TransformFunctions/arm_dct4_q31.c **** 
 373:.\DSP\Source\TransformFunctions/arm_dct4_q31.c ****     /* Decrement loop counter */
 374:.\DSP\Source\TransformFunctions/arm_dct4_q31.c ****     i--;
 375:.\DSP\Source\TransformFunctions/arm_dct4_q31.c ****   } while (i > 0U);
 205              		.loc 1 375 0 discriminator 1
 206 00d2 013E     		subs	r6, r6, #1
 207              	.LVL42:
 208 00d4 E9D1     		bne	.L6
 376:.\DSP\Source\TransformFunctions/arm_dct4_q31.c **** 
 377:.\DSP\Source\TransformFunctions/arm_dct4_q31.c **** #endif /* #if defined (ARM_MATH_LOOPUNROLL) */
 378:.\DSP\Source\TransformFunctions/arm_dct4_q31.c **** 
 379:.\DSP\Source\TransformFunctions/arm_dct4_q31.c **** }
 209              		.loc 1 379 0
 210 00d6 BDE8F88F 		pop	{r3, r4, r5, r6, r7, r8, r9, r10, fp, pc}
 211              		.cfi_endproc
 212              	.LFE84:
 213              		.size	arm_dct4_q31, .-arm_dct4_q31
 214 00da 00BF     		.text
 215              	.Letext0:
 216              		.file 2 "c:\\program files (x86)\\cypress\\psoc creator\\3.3\\psoc creator\\import\\gnu\\arm\\4.9.
 217              		.file 3 "c:\\program files (x86)\\cypress\\psoc creator\\3.3\\psoc creator\\import\\gnu\\arm\\4.9.
 218              		.file 4 ".\\DSP\\Include/arm_math_types.h"
 219              		.file 5 ".\\DSP\\Include/dsp/transform_functions.h"
 220              		.file 6 ".\\Core\\Include/cmsis_gcc.h"
 221              		.file 7 ".\\DSP\\Include/dsp/basic_math_functions.h"
 222              		.file 8 ".\\DSP\\Include/dsp/complex_math_functions.h"