ARM GAS  C:\Users\IVYLIU~1\AppData\Local\Temp\ccWOOfkA.s 			page 1


   1              		.syntax unified
   2              		.cpu cortex-m3
   3              		.fpu softvfp
   4              		.eabi_attribute 20, 1
   5              		.eabi_attribute 21, 1
   6              		.eabi_attribute 23, 3
   7              		.eabi_attribute 24, 1
   8              		.eabi_attribute 25, 1
   9              		.eabi_attribute 26, 1
  10              		.eabi_attribute 30, 1
  11              		.eabi_attribute 34, 1
  12              		.eabi_attribute 18, 4
  13              		.thumb
  14              		.file	"arm_offset_q15.c"
  15              		.text
  16              	.Ltext0:
  17              		.cfi_sections	.debug_frame
  18              		.section	.text.arm_offset_q15,"ax",%progbits
  19              		.align	2
  20              		.global	arm_offset_q15
  21              		.thumb
  22              		.thumb_func
  23              		.type	arm_offset_q15, %function
  24              	arm_offset_q15:
  25              	.LFB83:
  26              		.file 1 ".\\DSP\\Source\\BasicMathFunctions\\arm_offset_q15.c"
   1:.\DSP\Source\BasicMathFunctions/arm_offset_q15.c **** /* ----------------------------------------------------------------------
   2:.\DSP\Source\BasicMathFunctions/arm_offset_q15.c ****  * Project:      CMSIS DSP Library
   3:.\DSP\Source\BasicMathFunctions/arm_offset_q15.c ****  * Title:        arm_offset_q15.c
   4:.\DSP\Source\BasicMathFunctions/arm_offset_q15.c ****  * Description:  Q15 vector offset
   5:.\DSP\Source\BasicMathFunctions/arm_offset_q15.c ****  *
   6:.\DSP\Source\BasicMathFunctions/arm_offset_q15.c ****  * $Date:        23 April 2021
   7:.\DSP\Source\BasicMathFunctions/arm_offset_q15.c ****  * $Revision:    V1.9.0
   8:.\DSP\Source\BasicMathFunctions/arm_offset_q15.c ****  *
   9:.\DSP\Source\BasicMathFunctions/arm_offset_q15.c ****  * Target Processor: Cortex-M and Cortex-A cores
  10:.\DSP\Source\BasicMathFunctions/arm_offset_q15.c ****  * -------------------------------------------------------------------- */
  11:.\DSP\Source\BasicMathFunctions/arm_offset_q15.c **** /*
  12:.\DSP\Source\BasicMathFunctions/arm_offset_q15.c ****  * Copyright (C) 2010-2021 ARM Limited or its affiliates. All rights reserved.
  13:.\DSP\Source\BasicMathFunctions/arm_offset_q15.c ****  *
  14:.\DSP\Source\BasicMathFunctions/arm_offset_q15.c ****  * SPDX-License-Identifier: Apache-2.0
  15:.\DSP\Source\BasicMathFunctions/arm_offset_q15.c ****  *
  16:.\DSP\Source\BasicMathFunctions/arm_offset_q15.c ****  * Licensed under the Apache License, Version 2.0 (the License); you may
  17:.\DSP\Source\BasicMathFunctions/arm_offset_q15.c ****  * not use this file except in compliance with the License.
  18:.\DSP\Source\BasicMathFunctions/arm_offset_q15.c ****  * You may obtain a copy of the License at
  19:.\DSP\Source\BasicMathFunctions/arm_offset_q15.c ****  *
  20:.\DSP\Source\BasicMathFunctions/arm_offset_q15.c ****  * www.apache.org/licenses/LICENSE-2.0
  21:.\DSP\Source\BasicMathFunctions/arm_offset_q15.c ****  *
  22:.\DSP\Source\BasicMathFunctions/arm_offset_q15.c ****  * Unless required by applicable law or agreed to in writing, software
  23:.\DSP\Source\BasicMathFunctions/arm_offset_q15.c ****  * distributed under the License is distributed on an AS IS BASIS, WITHOUT
  24:.\DSP\Source\BasicMathFunctions/arm_offset_q15.c ****  * WARRANTIES OR CONDITIONS OF ANY KIND, either express or implied.
  25:.\DSP\Source\BasicMathFunctions/arm_offset_q15.c ****  * See the License for the specific language governing permissions and
  26:.\DSP\Source\BasicMathFunctions/arm_offset_q15.c ****  * limitations under the License.
  27:.\DSP\Source\BasicMathFunctions/arm_offset_q15.c ****  */
  28:.\DSP\Source\BasicMathFunctions/arm_offset_q15.c **** 
  29:.\DSP\Source\BasicMathFunctions/arm_offset_q15.c **** #include "dsp/basic_math_functions.h"
  30:.\DSP\Source\BasicMathFunctions/arm_offset_q15.c **** 
  31:.\DSP\Source\BasicMathFunctions/arm_offset_q15.c **** /**
ARM GAS  C:\Users\IVYLIU~1\AppData\Local\Temp\ccWOOfkA.s 			page 2


  32:.\DSP\Source\BasicMathFunctions/arm_offset_q15.c ****   @ingroup groupMath
  33:.\DSP\Source\BasicMathFunctions/arm_offset_q15.c ****  */
  34:.\DSP\Source\BasicMathFunctions/arm_offset_q15.c **** 
  35:.\DSP\Source\BasicMathFunctions/arm_offset_q15.c **** /**
  36:.\DSP\Source\BasicMathFunctions/arm_offset_q15.c ****   @addtogroup BasicOffset
  37:.\DSP\Source\BasicMathFunctions/arm_offset_q15.c ****   @{
  38:.\DSP\Source\BasicMathFunctions/arm_offset_q15.c ****  */
  39:.\DSP\Source\BasicMathFunctions/arm_offset_q15.c **** 
  40:.\DSP\Source\BasicMathFunctions/arm_offset_q15.c **** /**
  41:.\DSP\Source\BasicMathFunctions/arm_offset_q15.c ****   @brief         Adds a constant offset to a Q15 vector.
  42:.\DSP\Source\BasicMathFunctions/arm_offset_q15.c ****   @param[in]     pSrc       points to the input vector
  43:.\DSP\Source\BasicMathFunctions/arm_offset_q15.c ****   @param[in]     offset     is the offset to be added
  44:.\DSP\Source\BasicMathFunctions/arm_offset_q15.c ****   @param[out]    pDst       points to the output vector
  45:.\DSP\Source\BasicMathFunctions/arm_offset_q15.c ****   @param[in]     blockSize  number of samples in each vector
  46:.\DSP\Source\BasicMathFunctions/arm_offset_q15.c ****   @return        none
  47:.\DSP\Source\BasicMathFunctions/arm_offset_q15.c **** 
  48:.\DSP\Source\BasicMathFunctions/arm_offset_q15.c ****   @par           Scaling and Overflow Behavior
  49:.\DSP\Source\BasicMathFunctions/arm_offset_q15.c ****                    The function uses saturating arithmetic.
  50:.\DSP\Source\BasicMathFunctions/arm_offset_q15.c ****                    Results outside of the allowable Q15 range [0x8000 0x7FFF] are saturated.
  51:.\DSP\Source\BasicMathFunctions/arm_offset_q15.c ****  */
  52:.\DSP\Source\BasicMathFunctions/arm_offset_q15.c **** #if defined(ARM_MATH_MVEI) && !defined(ARM_MATH_AUTOVECTORIZE)
  53:.\DSP\Source\BasicMathFunctions/arm_offset_q15.c **** 
  54:.\DSP\Source\BasicMathFunctions/arm_offset_q15.c **** #include "arm_helium_utils.h"
  55:.\DSP\Source\BasicMathFunctions/arm_offset_q15.c **** 
  56:.\DSP\Source\BasicMathFunctions/arm_offset_q15.c **** void arm_offset_q15(
  57:.\DSP\Source\BasicMathFunctions/arm_offset_q15.c ****     const q15_t * pSrc,
  58:.\DSP\Source\BasicMathFunctions/arm_offset_q15.c ****     q15_t   offset,
  59:.\DSP\Source\BasicMathFunctions/arm_offset_q15.c ****     q15_t * pDst,
  60:.\DSP\Source\BasicMathFunctions/arm_offset_q15.c ****     uint32_t blockSize)
  61:.\DSP\Source\BasicMathFunctions/arm_offset_q15.c **** {
  62:.\DSP\Source\BasicMathFunctions/arm_offset_q15.c ****     uint32_t  blkCnt;           /* loop counters */
  63:.\DSP\Source\BasicMathFunctions/arm_offset_q15.c ****     q15x8_t vecSrc;
  64:.\DSP\Source\BasicMathFunctions/arm_offset_q15.c **** 
  65:.\DSP\Source\BasicMathFunctions/arm_offset_q15.c ****     /* Compute 8 outputs at a time */
  66:.\DSP\Source\BasicMathFunctions/arm_offset_q15.c ****     blkCnt = blockSize >> 3;
  67:.\DSP\Source\BasicMathFunctions/arm_offset_q15.c ****     while (blkCnt > 0U)
  68:.\DSP\Source\BasicMathFunctions/arm_offset_q15.c ****     {
  69:.\DSP\Source\BasicMathFunctions/arm_offset_q15.c ****         /*
  70:.\DSP\Source\BasicMathFunctions/arm_offset_q15.c ****          * C = A + offset
  71:.\DSP\Source\BasicMathFunctions/arm_offset_q15.c ****          * Add offset and then store the result in the destination buffer.
  72:.\DSP\Source\BasicMathFunctions/arm_offset_q15.c ****          */
  73:.\DSP\Source\BasicMathFunctions/arm_offset_q15.c ****         vecSrc = vld1q(pSrc);
  74:.\DSP\Source\BasicMathFunctions/arm_offset_q15.c ****         vst1q(pDst, vqaddq(vecSrc, offset));
  75:.\DSP\Source\BasicMathFunctions/arm_offset_q15.c ****         /*
  76:.\DSP\Source\BasicMathFunctions/arm_offset_q15.c ****          * Decrement the blockSize loop counter
  77:.\DSP\Source\BasicMathFunctions/arm_offset_q15.c ****          */
  78:.\DSP\Source\BasicMathFunctions/arm_offset_q15.c ****         blkCnt--;
  79:.\DSP\Source\BasicMathFunctions/arm_offset_q15.c ****         /*
  80:.\DSP\Source\BasicMathFunctions/arm_offset_q15.c ****          * advance vector source and destination pointers
  81:.\DSP\Source\BasicMathFunctions/arm_offset_q15.c ****          */
  82:.\DSP\Source\BasicMathFunctions/arm_offset_q15.c ****         pSrc += 8;
  83:.\DSP\Source\BasicMathFunctions/arm_offset_q15.c ****         pDst += 8;
  84:.\DSP\Source\BasicMathFunctions/arm_offset_q15.c ****     }
  85:.\DSP\Source\BasicMathFunctions/arm_offset_q15.c ****     /*
  86:.\DSP\Source\BasicMathFunctions/arm_offset_q15.c ****      * tail
  87:.\DSP\Source\BasicMathFunctions/arm_offset_q15.c ****      */
  88:.\DSP\Source\BasicMathFunctions/arm_offset_q15.c ****     blkCnt = blockSize & 7;
ARM GAS  C:\Users\IVYLIU~1\AppData\Local\Temp\ccWOOfkA.s 			page 3


  89:.\DSP\Source\BasicMathFunctions/arm_offset_q15.c ****     if (blkCnt > 0U)
  90:.\DSP\Source\BasicMathFunctions/arm_offset_q15.c ****     {
  91:.\DSP\Source\BasicMathFunctions/arm_offset_q15.c ****         mve_pred16_t p0 = vctp16q(blkCnt);
  92:.\DSP\Source\BasicMathFunctions/arm_offset_q15.c ****         vecSrc = vld1q(pSrc);
  93:.\DSP\Source\BasicMathFunctions/arm_offset_q15.c ****         vstrhq_p(pDst, vqaddq(vecSrc, offset), p0);
  94:.\DSP\Source\BasicMathFunctions/arm_offset_q15.c ****     }
  95:.\DSP\Source\BasicMathFunctions/arm_offset_q15.c **** }
  96:.\DSP\Source\BasicMathFunctions/arm_offset_q15.c **** 
  97:.\DSP\Source\BasicMathFunctions/arm_offset_q15.c **** 
  98:.\DSP\Source\BasicMathFunctions/arm_offset_q15.c **** #else
  99:.\DSP\Source\BasicMathFunctions/arm_offset_q15.c **** void arm_offset_q15(
 100:.\DSP\Source\BasicMathFunctions/arm_offset_q15.c ****   const q15_t * pSrc,
 101:.\DSP\Source\BasicMathFunctions/arm_offset_q15.c ****         q15_t offset,
 102:.\DSP\Source\BasicMathFunctions/arm_offset_q15.c ****         q15_t * pDst,
 103:.\DSP\Source\BasicMathFunctions/arm_offset_q15.c ****         uint32_t blockSize)
 104:.\DSP\Source\BasicMathFunctions/arm_offset_q15.c **** {
  27              		.loc 1 104 0
  28              		.cfi_startproc
  29              		@ args = 0, pretend = 0, frame = 0
  30              		@ frame_needed = 0, uses_anonymous_args = 0
  31              		@ link register save eliminated.
  32              	.LVL0:
  33 0000 30B4     		push	{r4, r5}
  34              		.cfi_def_cfa_offset 8
  35              		.cfi_offset 4, -8
  36              		.cfi_offset 5, -4
  37              	.LVL1:
 105:.\DSP\Source\BasicMathFunctions/arm_offset_q15.c ****         uint32_t blkCnt;                               /* Loop counter */
 106:.\DSP\Source\BasicMathFunctions/arm_offset_q15.c **** 
 107:.\DSP\Source\BasicMathFunctions/arm_offset_q15.c **** #if defined (ARM_MATH_LOOPUNROLL)
 108:.\DSP\Source\BasicMathFunctions/arm_offset_q15.c **** 
 109:.\DSP\Source\BasicMathFunctions/arm_offset_q15.c **** #if defined (ARM_MATH_DSP)
 110:.\DSP\Source\BasicMathFunctions/arm_offset_q15.c ****   q31_t offset_packed;                           /* Offset packed to 32 bit */
 111:.\DSP\Source\BasicMathFunctions/arm_offset_q15.c **** 
 112:.\DSP\Source\BasicMathFunctions/arm_offset_q15.c ****   /* Offset is packed to 32 bit in order to use SIMD32 for addition */
 113:.\DSP\Source\BasicMathFunctions/arm_offset_q15.c ****   offset_packed = __PKHBT(offset, offset, 16);
 114:.\DSP\Source\BasicMathFunctions/arm_offset_q15.c **** #endif
 115:.\DSP\Source\BasicMathFunctions/arm_offset_q15.c **** 
 116:.\DSP\Source\BasicMathFunctions/arm_offset_q15.c ****   /* Loop unrolling: Compute 4 outputs at a time */
 117:.\DSP\Source\BasicMathFunctions/arm_offset_q15.c ****   blkCnt = blockSize >> 2U;
 118:.\DSP\Source\BasicMathFunctions/arm_offset_q15.c **** 
 119:.\DSP\Source\BasicMathFunctions/arm_offset_q15.c ****   while (blkCnt > 0U)
 120:.\DSP\Source\BasicMathFunctions/arm_offset_q15.c ****   {
 121:.\DSP\Source\BasicMathFunctions/arm_offset_q15.c ****     /* C = A + offset */
 122:.\DSP\Source\BasicMathFunctions/arm_offset_q15.c **** 
 123:.\DSP\Source\BasicMathFunctions/arm_offset_q15.c **** #if defined (ARM_MATH_DSP)
 124:.\DSP\Source\BasicMathFunctions/arm_offset_q15.c ****     /* Add offset and store result in destination buffer (2 samples at a time). */
 125:.\DSP\Source\BasicMathFunctions/arm_offset_q15.c ****     write_q15x2_ia (&pDst, __QADD16(read_q15x2_ia (&pSrc), offset_packed));
 126:.\DSP\Source\BasicMathFunctions/arm_offset_q15.c ****     write_q15x2_ia (&pDst, __QADD16(read_q15x2_ia (&pSrc), offset_packed));
 127:.\DSP\Source\BasicMathFunctions/arm_offset_q15.c **** #else
 128:.\DSP\Source\BasicMathFunctions/arm_offset_q15.c ****     *pDst++ = (q15_t) __SSAT(((q31_t) *pSrc++ + offset), 16);
 129:.\DSP\Source\BasicMathFunctions/arm_offset_q15.c ****     *pDst++ = (q15_t) __SSAT(((q31_t) *pSrc++ + offset), 16);
 130:.\DSP\Source\BasicMathFunctions/arm_offset_q15.c ****     *pDst++ = (q15_t) __SSAT(((q31_t) *pSrc++ + offset), 16);
 131:.\DSP\Source\BasicMathFunctions/arm_offset_q15.c ****     *pDst++ = (q15_t) __SSAT(((q31_t) *pSrc++ + offset), 16);
 132:.\DSP\Source\BasicMathFunctions/arm_offset_q15.c **** #endif
 133:.\DSP\Source\BasicMathFunctions/arm_offset_q15.c **** 
 134:.\DSP\Source\BasicMathFunctions/arm_offset_q15.c ****     /* Decrement loop counter */
ARM GAS  C:\Users\IVYLIU~1\AppData\Local\Temp\ccWOOfkA.s 			page 4


 135:.\DSP\Source\BasicMathFunctions/arm_offset_q15.c ****     blkCnt--;
 136:.\DSP\Source\BasicMathFunctions/arm_offset_q15.c ****   }
 137:.\DSP\Source\BasicMathFunctions/arm_offset_q15.c **** 
 138:.\DSP\Source\BasicMathFunctions/arm_offset_q15.c ****   /* Loop unrolling: Compute remaining outputs */
 139:.\DSP\Source\BasicMathFunctions/arm_offset_q15.c ****   blkCnt = blockSize % 0x4U;
 140:.\DSP\Source\BasicMathFunctions/arm_offset_q15.c **** 
 141:.\DSP\Source\BasicMathFunctions/arm_offset_q15.c **** #else
 142:.\DSP\Source\BasicMathFunctions/arm_offset_q15.c **** 
 143:.\DSP\Source\BasicMathFunctions/arm_offset_q15.c ****   /* Initialize blkCnt with number of samples */
 144:.\DSP\Source\BasicMathFunctions/arm_offset_q15.c ****   blkCnt = blockSize;
 145:.\DSP\Source\BasicMathFunctions/arm_offset_q15.c **** 
 146:.\DSP\Source\BasicMathFunctions/arm_offset_q15.c **** #endif /* #if defined (ARM_MATH_LOOPUNROLL) */
 147:.\DSP\Source\BasicMathFunctions/arm_offset_q15.c **** 
 148:.\DSP\Source\BasicMathFunctions/arm_offset_q15.c ****   while (blkCnt > 0U)
  38              		.loc 1 148 0
  39 0002 0AE0     		b	.L2
  40              	.LVL2:
  41              	.L3:
 149:.\DSP\Source\BasicMathFunctions/arm_offset_q15.c ****   {
 150:.\DSP\Source\BasicMathFunctions/arm_offset_q15.c ****     /* C = A + offset */
 151:.\DSP\Source\BasicMathFunctions/arm_offset_q15.c **** 
 152:.\DSP\Source\BasicMathFunctions/arm_offset_q15.c ****     /* Add offset and store result in destination buffer. */
 153:.\DSP\Source\BasicMathFunctions/arm_offset_q15.c **** #if defined (ARM_MATH_DSP)
 154:.\DSP\Source\BasicMathFunctions/arm_offset_q15.c ****     *pDst++ = (q15_t) __QADD16(*pSrc++, offset);
 155:.\DSP\Source\BasicMathFunctions/arm_offset_q15.c **** #else
 156:.\DSP\Source\BasicMathFunctions/arm_offset_q15.c ****     *pDst++ = (q15_t) __SSAT(((q31_t) *pSrc++ + offset), 16);
  42              		.loc 1 156 0
  43 0004 951C     		adds	r5, r2, #2
  44              	.LVL3:
  45              	.LBB2:
  46 0006 841C     		adds	r4, r0, #2
  47              	.LVL4:
  48 0008 B0F90000 		ldrsh	r0, [r0]
  49 000c 0844     		add	r0, r0, r1
  50              	.LVL5:
  51              	@ 156 ".\DSP\Source\BasicMathFunctions\arm_offset_q15.c" 1
  52 000e 00F30F00 		ssat r0, #16, r0
  53              	@ 0 "" 2
  54              	.LVL6:
  55              		.thumb
  56              	.LBE2:
  57 0012 1080     		strh	r0, [r2]	@ movhi
  58              	.LVL7:
 157:.\DSP\Source\BasicMathFunctions/arm_offset_q15.c **** #endif
 158:.\DSP\Source\BasicMathFunctions/arm_offset_q15.c **** 
 159:.\DSP\Source\BasicMathFunctions/arm_offset_q15.c ****     /* Decrement loop counter */
 160:.\DSP\Source\BasicMathFunctions/arm_offset_q15.c ****     blkCnt--;
  59              		.loc 1 160 0
  60 0014 013B     		subs	r3, r3, #1
  61              	.LVL8:
 156:.\DSP\Source\BasicMathFunctions/arm_offset_q15.c **** #endif
  62              		.loc 1 156 0
  63 0016 2A46     		mov	r2, r5
  64              	.LBB3:
  65 0018 2046     		mov	r0, r4
  66              	.LVL9:
  67              	.L2:
ARM GAS  C:\Users\IVYLIU~1\AppData\Local\Temp\ccWOOfkA.s 			page 5


  68              	.LBE3:
 148:.\DSP\Source\BasicMathFunctions/arm_offset_q15.c ****   {
  69              		.loc 1 148 0
  70 001a 002B     		cmp	r3, #0
  71 001c F2D1     		bne	.L3
 161:.\DSP\Source\BasicMathFunctions/arm_offset_q15.c ****   }
 162:.\DSP\Source\BasicMathFunctions/arm_offset_q15.c **** 
 163:.\DSP\Source\BasicMathFunctions/arm_offset_q15.c **** }
  72              		.loc 1 163 0
  73 001e 30BC     		pop	{r4, r5}
  74              		.cfi_restore 5
  75              		.cfi_restore 4
  76              		.cfi_def_cfa_offset 0
  77 0020 7047     		bx	lr
  78              		.cfi_endproc
  79              	.LFE83:
  80              		.size	arm_offset_q15, .-arm_offset_q15
  81 0022 00BF     		.text
  82              	.Letext0:
  83              		.file 2 "c:\\program files (x86)\\cypress\\psoc creator\\3.3\\psoc creator\\import\\gnu\\arm\\4.9.
  84              		.file 3 "c:\\program files (x86)\\cypress\\psoc creator\\3.3\\psoc creator\\import\\gnu\\arm\\4.9.
  85              		.file 4 ".\\DSP\\Include/arm_math_types.h"
  86              		.file 5 ".\\Core\\Include/cmsis_gcc.h"