ARM GAS  C:\Users\IVYLIU~1\AppData\Local\Temp\ccJ0z8xa.s 			page 1


   1              		.syntax unified
   2              		.cpu cortex-m3
   3              		.fpu softvfp
   4              		.eabi_attribute 20, 1
   5              		.eabi_attribute 21, 1
   6              		.eabi_attribute 23, 3
   7              		.eabi_attribute 24, 1
   8              		.eabi_attribute 25, 1
   9              		.eabi_attribute 26, 1
  10              		.eabi_attribute 30, 1
  11              		.eabi_attribute 34, 1
  12              		.eabi_attribute 18, 4
  13              		.thumb
  14              		.file	"arm_scale_f32.c"
  15              		.text
  16              	.Ltext0:
  17              		.cfi_sections	.debug_frame
  18              		.global	__aeabi_fmul
  19              		.section	.text.arm_scale_f32,"ax",%progbits
  20              		.align	2
  21              		.global	arm_scale_f32
  22              		.thumb
  23              		.thumb_func
  24              		.type	arm_scale_f32, %function
  25              	arm_scale_f32:
  26              	.LFB83:
  27              		.file 1 ".\\DSP\\Source\\BasicMathFunctions\\arm_scale_f32.c"
   1:.\DSP\Source\BasicMathFunctions/arm_scale_f32.c **** /* ----------------------------------------------------------------------
   2:.\DSP\Source\BasicMathFunctions/arm_scale_f32.c ****  * Project:      CMSIS DSP Library
   3:.\DSP\Source\BasicMathFunctions/arm_scale_f32.c ****  * Title:        arm_scale_f32.c
   4:.\DSP\Source\BasicMathFunctions/arm_scale_f32.c ****  * Description:  Multiplies a floating-point vector by a scalar
   5:.\DSP\Source\BasicMathFunctions/arm_scale_f32.c ****  *
   6:.\DSP\Source\BasicMathFunctions/arm_scale_f32.c ****  * $Date:        23 April 2021
   7:.\DSP\Source\BasicMathFunctions/arm_scale_f32.c ****  * $Revision:    V1.9.0
   8:.\DSP\Source\BasicMathFunctions/arm_scale_f32.c ****  *
   9:.\DSP\Source\BasicMathFunctions/arm_scale_f32.c ****  * Target Processor: Cortex-M and Cortex-A cores
  10:.\DSP\Source\BasicMathFunctions/arm_scale_f32.c ****  * -------------------------------------------------------------------- */
  11:.\DSP\Source\BasicMathFunctions/arm_scale_f32.c **** /*
  12:.\DSP\Source\BasicMathFunctions/arm_scale_f32.c ****  * Copyright (C) 2010-2021 ARM Limited or its affiliates. All rights reserved.
  13:.\DSP\Source\BasicMathFunctions/arm_scale_f32.c ****  *
  14:.\DSP\Source\BasicMathFunctions/arm_scale_f32.c ****  * SPDX-License-Identifier: Apache-2.0
  15:.\DSP\Source\BasicMathFunctions/arm_scale_f32.c ****  *
  16:.\DSP\Source\BasicMathFunctions/arm_scale_f32.c ****  * Licensed under the Apache License, Version 2.0 (the License); you may
  17:.\DSP\Source\BasicMathFunctions/arm_scale_f32.c ****  * not use this file except in compliance with the License.
  18:.\DSP\Source\BasicMathFunctions/arm_scale_f32.c ****  * You may obtain a copy of the License at
  19:.\DSP\Source\BasicMathFunctions/arm_scale_f32.c ****  *
  20:.\DSP\Source\BasicMathFunctions/arm_scale_f32.c ****  * www.apache.org/licenses/LICENSE-2.0
  21:.\DSP\Source\BasicMathFunctions/arm_scale_f32.c ****  *
  22:.\DSP\Source\BasicMathFunctions/arm_scale_f32.c ****  * Unless required by applicable law or agreed to in writing, software
  23:.\DSP\Source\BasicMathFunctions/arm_scale_f32.c ****  * distributed under the License is distributed on an AS IS BASIS, WITHOUT
  24:.\DSP\Source\BasicMathFunctions/arm_scale_f32.c ****  * WARRANTIES OR CONDITIONS OF ANY KIND, either express or implied.
  25:.\DSP\Source\BasicMathFunctions/arm_scale_f32.c ****  * See the License for the specific language governing permissions and
  26:.\DSP\Source\BasicMathFunctions/arm_scale_f32.c ****  * limitations under the License.
  27:.\DSP\Source\BasicMathFunctions/arm_scale_f32.c ****  */
  28:.\DSP\Source\BasicMathFunctions/arm_scale_f32.c **** 
  29:.\DSP\Source\BasicMathFunctions/arm_scale_f32.c **** #include "dsp/basic_math_functions.h"
  30:.\DSP\Source\BasicMathFunctions/arm_scale_f32.c **** 
ARM GAS  C:\Users\IVYLIU~1\AppData\Local\Temp\ccJ0z8xa.s 			page 2


  31:.\DSP\Source\BasicMathFunctions/arm_scale_f32.c **** /**
  32:.\DSP\Source\BasicMathFunctions/arm_scale_f32.c ****   @ingroup groupMath
  33:.\DSP\Source\BasicMathFunctions/arm_scale_f32.c ****  */
  34:.\DSP\Source\BasicMathFunctions/arm_scale_f32.c **** 
  35:.\DSP\Source\BasicMathFunctions/arm_scale_f32.c **** /**
  36:.\DSP\Source\BasicMathFunctions/arm_scale_f32.c ****   @defgroup BasicScale Vector Scale
  37:.\DSP\Source\BasicMathFunctions/arm_scale_f32.c **** 
  38:.\DSP\Source\BasicMathFunctions/arm_scale_f32.c ****   Multiply a vector by a scalar value.  For floating-point data, the algorithm used is:
  39:.\DSP\Source\BasicMathFunctions/arm_scale_f32.c **** 
  40:.\DSP\Source\BasicMathFunctions/arm_scale_f32.c ****   <pre>
  41:.\DSP\Source\BasicMathFunctions/arm_scale_f32.c ****       pDst[n] = pSrc[n] * scale,   0 <= n < blockSize.
  42:.\DSP\Source\BasicMathFunctions/arm_scale_f32.c ****   </pre>
  43:.\DSP\Source\BasicMathFunctions/arm_scale_f32.c **** 
  44:.\DSP\Source\BasicMathFunctions/arm_scale_f32.c ****   In the fixed-point Q7, Q15, and Q31 functions, <code>scale</code> is represented by
  45:.\DSP\Source\BasicMathFunctions/arm_scale_f32.c ****   a fractional multiplication <code>scaleFract</code> and an arithmetic shift <code>shift</code>.
  46:.\DSP\Source\BasicMathFunctions/arm_scale_f32.c ****   The shift allows the gain of the scaling operation to exceed 1.0.
  47:.\DSP\Source\BasicMathFunctions/arm_scale_f32.c ****   The algorithm used with fixed-point data is:
  48:.\DSP\Source\BasicMathFunctions/arm_scale_f32.c **** 
  49:.\DSP\Source\BasicMathFunctions/arm_scale_f32.c ****   <pre>
  50:.\DSP\Source\BasicMathFunctions/arm_scale_f32.c ****       pDst[n] = (pSrc[n] * scaleFract) << shift,   0 <= n < blockSize.
  51:.\DSP\Source\BasicMathFunctions/arm_scale_f32.c ****   </pre>
  52:.\DSP\Source\BasicMathFunctions/arm_scale_f32.c **** 
  53:.\DSP\Source\BasicMathFunctions/arm_scale_f32.c ****   The overall scale factor applied to the fixed-point data is
  54:.\DSP\Source\BasicMathFunctions/arm_scale_f32.c ****   <pre>
  55:.\DSP\Source\BasicMathFunctions/arm_scale_f32.c ****       scale = scaleFract * 2^shift.
  56:.\DSP\Source\BasicMathFunctions/arm_scale_f32.c ****   </pre>
  57:.\DSP\Source\BasicMathFunctions/arm_scale_f32.c **** 
  58:.\DSP\Source\BasicMathFunctions/arm_scale_f32.c ****   The functions support in-place computation allowing the source and destination
  59:.\DSP\Source\BasicMathFunctions/arm_scale_f32.c ****   pointers to reference the same memory buffer.
  60:.\DSP\Source\BasicMathFunctions/arm_scale_f32.c ****  */
  61:.\DSP\Source\BasicMathFunctions/arm_scale_f32.c **** 
  62:.\DSP\Source\BasicMathFunctions/arm_scale_f32.c **** /**
  63:.\DSP\Source\BasicMathFunctions/arm_scale_f32.c ****   @addtogroup BasicScale
  64:.\DSP\Source\BasicMathFunctions/arm_scale_f32.c ****   @{
  65:.\DSP\Source\BasicMathFunctions/arm_scale_f32.c ****  */
  66:.\DSP\Source\BasicMathFunctions/arm_scale_f32.c **** 
  67:.\DSP\Source\BasicMathFunctions/arm_scale_f32.c **** /**
  68:.\DSP\Source\BasicMathFunctions/arm_scale_f32.c ****   @brief         Multiplies a floating-point vector by a scalar.
  69:.\DSP\Source\BasicMathFunctions/arm_scale_f32.c ****   @param[in]     pSrc       points to the input vector
  70:.\DSP\Source\BasicMathFunctions/arm_scale_f32.c ****   @param[in]     scale      scale factor to be applied
  71:.\DSP\Source\BasicMathFunctions/arm_scale_f32.c ****   @param[out]    pDst       points to the output vector
  72:.\DSP\Source\BasicMathFunctions/arm_scale_f32.c ****   @param[in]     blockSize  number of samples in each vector
  73:.\DSP\Source\BasicMathFunctions/arm_scale_f32.c ****   @return        none
  74:.\DSP\Source\BasicMathFunctions/arm_scale_f32.c ****  */
  75:.\DSP\Source\BasicMathFunctions/arm_scale_f32.c **** 
  76:.\DSP\Source\BasicMathFunctions/arm_scale_f32.c **** #if defined(ARM_MATH_MVEF) && !defined(ARM_MATH_AUTOVECTORIZE)
  77:.\DSP\Source\BasicMathFunctions/arm_scale_f32.c **** 
  78:.\DSP\Source\BasicMathFunctions/arm_scale_f32.c **** #include "arm_helium_utils.h"
  79:.\DSP\Source\BasicMathFunctions/arm_scale_f32.c **** 
  80:.\DSP\Source\BasicMathFunctions/arm_scale_f32.c **** void arm_scale_f32(
  81:.\DSP\Source\BasicMathFunctions/arm_scale_f32.c ****   const float32_t * pSrc,
  82:.\DSP\Source\BasicMathFunctions/arm_scale_f32.c ****         float32_t scale,
  83:.\DSP\Source\BasicMathFunctions/arm_scale_f32.c ****         float32_t * pDst,
  84:.\DSP\Source\BasicMathFunctions/arm_scale_f32.c ****         uint32_t blockSize)
  85:.\DSP\Source\BasicMathFunctions/arm_scale_f32.c **** {
  86:.\DSP\Source\BasicMathFunctions/arm_scale_f32.c ****         uint32_t blkCnt;                               /* Loop counter */
  87:.\DSP\Source\BasicMathFunctions/arm_scale_f32.c **** 
ARM GAS  C:\Users\IVYLIU~1\AppData\Local\Temp\ccJ0z8xa.s 			page 3


  88:.\DSP\Source\BasicMathFunctions/arm_scale_f32.c ****     f32x4_t vec1;
  89:.\DSP\Source\BasicMathFunctions/arm_scale_f32.c ****     f32x4_t res;
  90:.\DSP\Source\BasicMathFunctions/arm_scale_f32.c **** 
  91:.\DSP\Source\BasicMathFunctions/arm_scale_f32.c ****     /* Compute 4 outputs at a time */
  92:.\DSP\Source\BasicMathFunctions/arm_scale_f32.c ****     blkCnt = blockSize >> 2U;
  93:.\DSP\Source\BasicMathFunctions/arm_scale_f32.c **** 
  94:.\DSP\Source\BasicMathFunctions/arm_scale_f32.c ****     while (blkCnt > 0U)
  95:.\DSP\Source\BasicMathFunctions/arm_scale_f32.c ****     {
  96:.\DSP\Source\BasicMathFunctions/arm_scale_f32.c ****         /* C = A + offset */
  97:.\DSP\Source\BasicMathFunctions/arm_scale_f32.c ****  
  98:.\DSP\Source\BasicMathFunctions/arm_scale_f32.c ****         /* Add offset and then store the results in the destination buffer. */
  99:.\DSP\Source\BasicMathFunctions/arm_scale_f32.c ****         vec1 = vld1q(pSrc);
 100:.\DSP\Source\BasicMathFunctions/arm_scale_f32.c ****         res = vmulq(vec1,scale);
 101:.\DSP\Source\BasicMathFunctions/arm_scale_f32.c ****         vst1q(pDst, res);
 102:.\DSP\Source\BasicMathFunctions/arm_scale_f32.c **** 
 103:.\DSP\Source\BasicMathFunctions/arm_scale_f32.c ****         /* Increment pointers */
 104:.\DSP\Source\BasicMathFunctions/arm_scale_f32.c ****         pSrc += 4;
 105:.\DSP\Source\BasicMathFunctions/arm_scale_f32.c ****         pDst += 4;
 106:.\DSP\Source\BasicMathFunctions/arm_scale_f32.c ****         
 107:.\DSP\Source\BasicMathFunctions/arm_scale_f32.c ****         /* Decrement the loop counter */
 108:.\DSP\Source\BasicMathFunctions/arm_scale_f32.c ****         blkCnt--;
 109:.\DSP\Source\BasicMathFunctions/arm_scale_f32.c ****     }
 110:.\DSP\Source\BasicMathFunctions/arm_scale_f32.c **** 
 111:.\DSP\Source\BasicMathFunctions/arm_scale_f32.c ****     /* Tail */
 112:.\DSP\Source\BasicMathFunctions/arm_scale_f32.c ****     blkCnt = blockSize & 0x3;
 113:.\DSP\Source\BasicMathFunctions/arm_scale_f32.c **** 
 114:.\DSP\Source\BasicMathFunctions/arm_scale_f32.c ****     if (blkCnt > 0U)
 115:.\DSP\Source\BasicMathFunctions/arm_scale_f32.c ****     {
 116:.\DSP\Source\BasicMathFunctions/arm_scale_f32.c ****         mve_pred16_t p0 = vctp32q(blkCnt);
 117:.\DSP\Source\BasicMathFunctions/arm_scale_f32.c ****         vec1 = vld1q((float32_t const *) pSrc);
 118:.\DSP\Source\BasicMathFunctions/arm_scale_f32.c ****         vstrwq_p(pDst, vmulq(vec1, scale), p0);
 119:.\DSP\Source\BasicMathFunctions/arm_scale_f32.c ****     }
 120:.\DSP\Source\BasicMathFunctions/arm_scale_f32.c **** 
 121:.\DSP\Source\BasicMathFunctions/arm_scale_f32.c **** 
 122:.\DSP\Source\BasicMathFunctions/arm_scale_f32.c **** }
 123:.\DSP\Source\BasicMathFunctions/arm_scale_f32.c **** 
 124:.\DSP\Source\BasicMathFunctions/arm_scale_f32.c **** #else
 125:.\DSP\Source\BasicMathFunctions/arm_scale_f32.c **** void arm_scale_f32(
 126:.\DSP\Source\BasicMathFunctions/arm_scale_f32.c ****   const float32_t *pSrc,
 127:.\DSP\Source\BasicMathFunctions/arm_scale_f32.c ****         float32_t scale,
 128:.\DSP\Source\BasicMathFunctions/arm_scale_f32.c ****         float32_t *pDst,
 129:.\DSP\Source\BasicMathFunctions/arm_scale_f32.c ****         uint32_t blockSize)
 130:.\DSP\Source\BasicMathFunctions/arm_scale_f32.c **** {
  28              		.loc 1 130 0
  29              		.cfi_startproc
  30              		@ args = 0, pretend = 0, frame = 0
  31              		@ frame_needed = 0, uses_anonymous_args = 0
  32              	.LVL0:
  33 0000 2DE9F041 		push	{r4, r5, r6, r7, r8, lr}
  34              		.cfi_def_cfa_offset 24
  35              		.cfi_offset 4, -24
  36              		.cfi_offset 5, -20
  37              		.cfi_offset 6, -16
  38              		.cfi_offset 7, -12
  39              		.cfi_offset 8, -8
  40              		.cfi_offset 14, -4
  41 0004 8846     		mov	r8, r1
ARM GAS  C:\Users\IVYLIU~1\AppData\Local\Temp\ccJ0z8xa.s 			page 4


  42 0006 1546     		mov	r5, r2
  43 0008 1C46     		mov	r4, r3
  44              	.LVL1:
 131:.\DSP\Source\BasicMathFunctions/arm_scale_f32.c ****   uint32_t blkCnt;                               /* Loop counter */
 132:.\DSP\Source\BasicMathFunctions/arm_scale_f32.c **** #if defined(ARM_MATH_NEON_EXPERIMENTAL)
 133:.\DSP\Source\BasicMathFunctions/arm_scale_f32.c ****     f32x4_t vec1;
 134:.\DSP\Source\BasicMathFunctions/arm_scale_f32.c ****     f32x4_t res;
 135:.\DSP\Source\BasicMathFunctions/arm_scale_f32.c **** 
 136:.\DSP\Source\BasicMathFunctions/arm_scale_f32.c ****     /* Compute 4 outputs at a time */
 137:.\DSP\Source\BasicMathFunctions/arm_scale_f32.c ****     blkCnt = blockSize >> 2U;
 138:.\DSP\Source\BasicMathFunctions/arm_scale_f32.c **** 
 139:.\DSP\Source\BasicMathFunctions/arm_scale_f32.c ****     while (blkCnt > 0U)
 140:.\DSP\Source\BasicMathFunctions/arm_scale_f32.c ****     {
 141:.\DSP\Source\BasicMathFunctions/arm_scale_f32.c ****         /* C = A * scale */
 142:.\DSP\Source\BasicMathFunctions/arm_scale_f32.c **** 
 143:.\DSP\Source\BasicMathFunctions/arm_scale_f32.c ****     	/* Scale the input and then store the results in the destination buffer. */
 144:.\DSP\Source\BasicMathFunctions/arm_scale_f32.c ****         vec1 = vld1q_f32(pSrc);
 145:.\DSP\Source\BasicMathFunctions/arm_scale_f32.c ****         res = vmulq_f32(vec1, vdupq_n_f32(scale));
 146:.\DSP\Source\BasicMathFunctions/arm_scale_f32.c ****         vst1q_f32(pDst, res);
 147:.\DSP\Source\BasicMathFunctions/arm_scale_f32.c **** 
 148:.\DSP\Source\BasicMathFunctions/arm_scale_f32.c ****         /* Increment pointers */
 149:.\DSP\Source\BasicMathFunctions/arm_scale_f32.c ****         pSrc += 4; 
 150:.\DSP\Source\BasicMathFunctions/arm_scale_f32.c ****         pDst += 4;
 151:.\DSP\Source\BasicMathFunctions/arm_scale_f32.c ****         
 152:.\DSP\Source\BasicMathFunctions/arm_scale_f32.c ****         /* Decrement the loop counter */
 153:.\DSP\Source\BasicMathFunctions/arm_scale_f32.c ****         blkCnt--;
 154:.\DSP\Source\BasicMathFunctions/arm_scale_f32.c ****     }
 155:.\DSP\Source\BasicMathFunctions/arm_scale_f32.c **** 
 156:.\DSP\Source\BasicMathFunctions/arm_scale_f32.c ****     /* Tail */
 157:.\DSP\Source\BasicMathFunctions/arm_scale_f32.c ****     blkCnt = blockSize & 0x3;
 158:.\DSP\Source\BasicMathFunctions/arm_scale_f32.c **** 
 159:.\DSP\Source\BasicMathFunctions/arm_scale_f32.c **** #else
 160:.\DSP\Source\BasicMathFunctions/arm_scale_f32.c **** #if defined (ARM_MATH_LOOPUNROLL)
 161:.\DSP\Source\BasicMathFunctions/arm_scale_f32.c **** 
 162:.\DSP\Source\BasicMathFunctions/arm_scale_f32.c ****   /* Loop unrolling: Compute 4 outputs at a time */
 163:.\DSP\Source\BasicMathFunctions/arm_scale_f32.c ****   blkCnt = blockSize >> 2U;
 164:.\DSP\Source\BasicMathFunctions/arm_scale_f32.c **** 
 165:.\DSP\Source\BasicMathFunctions/arm_scale_f32.c ****   while (blkCnt > 0U)
 166:.\DSP\Source\BasicMathFunctions/arm_scale_f32.c ****   {
 167:.\DSP\Source\BasicMathFunctions/arm_scale_f32.c ****     float32_t in1, in2, in3, in4;
 168:.\DSP\Source\BasicMathFunctions/arm_scale_f32.c **** 
 169:.\DSP\Source\BasicMathFunctions/arm_scale_f32.c ****     /* C = A * scale */
 170:.\DSP\Source\BasicMathFunctions/arm_scale_f32.c **** 
 171:.\DSP\Source\BasicMathFunctions/arm_scale_f32.c ****     /* Scale input and store result in destination buffer. */
 172:.\DSP\Source\BasicMathFunctions/arm_scale_f32.c ****     in1 = (*pSrc++) * scale;
 173:.\DSP\Source\BasicMathFunctions/arm_scale_f32.c **** 
 174:.\DSP\Source\BasicMathFunctions/arm_scale_f32.c ****     in2 = (*pSrc++) * scale;
 175:.\DSP\Source\BasicMathFunctions/arm_scale_f32.c **** 
 176:.\DSP\Source\BasicMathFunctions/arm_scale_f32.c ****     in3 = (*pSrc++) * scale;
 177:.\DSP\Source\BasicMathFunctions/arm_scale_f32.c **** 
 178:.\DSP\Source\BasicMathFunctions/arm_scale_f32.c ****     in4 = (*pSrc++) * scale;
 179:.\DSP\Source\BasicMathFunctions/arm_scale_f32.c **** 
 180:.\DSP\Source\BasicMathFunctions/arm_scale_f32.c ****     *pDst++ = in1;
 181:.\DSP\Source\BasicMathFunctions/arm_scale_f32.c ****     *pDst++ = in2;
 182:.\DSP\Source\BasicMathFunctions/arm_scale_f32.c ****     *pDst++ = in3;
 183:.\DSP\Source\BasicMathFunctions/arm_scale_f32.c ****     *pDst++ = in4;
 184:.\DSP\Source\BasicMathFunctions/arm_scale_f32.c **** 
ARM GAS  C:\Users\IVYLIU~1\AppData\Local\Temp\ccJ0z8xa.s 			page 5


 185:.\DSP\Source\BasicMathFunctions/arm_scale_f32.c ****     /* Decrement loop counter */
 186:.\DSP\Source\BasicMathFunctions/arm_scale_f32.c ****     blkCnt--;
 187:.\DSP\Source\BasicMathFunctions/arm_scale_f32.c ****   }
 188:.\DSP\Source\BasicMathFunctions/arm_scale_f32.c **** 
 189:.\DSP\Source\BasicMathFunctions/arm_scale_f32.c ****   /* Loop unrolling: Compute remaining outputs */
 190:.\DSP\Source\BasicMathFunctions/arm_scale_f32.c ****   blkCnt = blockSize % 0x4U;
 191:.\DSP\Source\BasicMathFunctions/arm_scale_f32.c **** 
 192:.\DSP\Source\BasicMathFunctions/arm_scale_f32.c **** #else
 193:.\DSP\Source\BasicMathFunctions/arm_scale_f32.c **** 
 194:.\DSP\Source\BasicMathFunctions/arm_scale_f32.c ****   /* Initialize blkCnt with number of samples */
 195:.\DSP\Source\BasicMathFunctions/arm_scale_f32.c ****   blkCnt = blockSize;
 196:.\DSP\Source\BasicMathFunctions/arm_scale_f32.c **** 
 197:.\DSP\Source\BasicMathFunctions/arm_scale_f32.c **** #endif /* #if defined (ARM_MATH_LOOPUNROLL) */
 198:.\DSP\Source\BasicMathFunctions/arm_scale_f32.c **** #endif /* #if defined(ARM_MATH_NEON_EXPERIMENTAL) */
 199:.\DSP\Source\BasicMathFunctions/arm_scale_f32.c **** 
 200:.\DSP\Source\BasicMathFunctions/arm_scale_f32.c ****   while (blkCnt > 0U)
  45              		.loc 1 200 0
  46 000a 09E0     		b	.L2
  47              	.LVL2:
  48              	.L3:
 201:.\DSP\Source\BasicMathFunctions/arm_scale_f32.c ****   {
 202:.\DSP\Source\BasicMathFunctions/arm_scale_f32.c ****     /* C = A * scale */
 203:.\DSP\Source\BasicMathFunctions/arm_scale_f32.c **** 
 204:.\DSP\Source\BasicMathFunctions/arm_scale_f32.c ****     /* Scale input and store result in destination buffer. */
 205:.\DSP\Source\BasicMathFunctions/arm_scale_f32.c ****     *pDst++ = (*pSrc++) * scale;
  49              		.loc 1 205 0
  50 000c 2F1D     		adds	r7, r5, #4
  51              	.LVL3:
  52 000e 061D     		adds	r6, r0, #4
  53              	.LVL4:
  54 0010 0068     		ldr	r0, [r0]	@ float
  55 0012 4146     		mov	r1, r8
  56 0014 FFF7FEFF 		bl	__aeabi_fmul
  57              	.LVL5:
  58 0018 2860     		str	r0, [r5]	@ float
 206:.\DSP\Source\BasicMathFunctions/arm_scale_f32.c **** 
 207:.\DSP\Source\BasicMathFunctions/arm_scale_f32.c ****     /* Decrement loop counter */
 208:.\DSP\Source\BasicMathFunctions/arm_scale_f32.c ****     blkCnt--;
  59              		.loc 1 208 0
  60 001a 013C     		subs	r4, r4, #1
  61              	.LVL6:
 205:.\DSP\Source\BasicMathFunctions/arm_scale_f32.c **** 
  62              		.loc 1 205 0
  63 001c 3D46     		mov	r5, r7
  64 001e 3046     		mov	r0, r6
  65              	.LVL7:
  66              	.L2:
 200:.\DSP\Source\BasicMathFunctions/arm_scale_f32.c ****   {
  67              		.loc 1 200 0
  68 0020 002C     		cmp	r4, #0
  69 0022 F3D1     		bne	.L3
 209:.\DSP\Source\BasicMathFunctions/arm_scale_f32.c ****   }
 210:.\DSP\Source\BasicMathFunctions/arm_scale_f32.c **** 
 211:.\DSP\Source\BasicMathFunctions/arm_scale_f32.c **** }
  70              		.loc 1 211 0
  71 0024 BDE8F081 		pop	{r4, r5, r6, r7, r8, pc}
  72              		.cfi_endproc
ARM GAS  C:\Users\IVYLIU~1\AppData\Local\Temp\ccJ0z8xa.s 			page 6


  73              	.LFE83:
  74              		.size	arm_scale_f32, .-arm_scale_f32
  75              		.text
  76              	.Letext0:
  77              		.file 2 "c:\\program files (x86)\\cypress\\psoc creator\\3.3\\psoc creator\\import\\gnu\\arm\\4.9.
  78              		.file 3 "c:\\program files (x86)\\cypress\\psoc creator\\3.3\\psoc creator\\import\\gnu\\arm\\4.9.
  79              		.file 4 ".\\DSP\\Include/arm_math_types.h"
  80              		.file 5 ".\\Core\\Include/cmsis_gcc.h"