ARM GAS  C:\Users\IVYLIU~1\AppData\Local\Temp\cctay6yL.s 			page 1


   1              		.syntax unified
   2              		.cpu cortex-m3
   3              		.fpu softvfp
   4              		.eabi_attribute 20, 1
   5              		.eabi_attribute 21, 1
   6              		.eabi_attribute 23, 3
   7              		.eabi_attribute 24, 1
   8              		.eabi_attribute 25, 1
   9              		.eabi_attribute 26, 1
  10              		.eabi_attribute 30, 1
  11              		.eabi_attribute 34, 1
  12              		.eabi_attribute 18, 4
  13              		.thumb
  14              		.file	"arm_offset_f64.c"
  15              		.text
  16              	.Ltext0:
  17              		.cfi_sections	.debug_frame
  18              		.global	__aeabi_dadd
  19              		.section	.text.arm_offset_f64,"ax",%progbits
  20              		.align	2
  21              		.global	arm_offset_f64
  22              		.thumb
  23              		.thumb_func
  24              		.type	arm_offset_f64, %function
  25              	arm_offset_f64:
  26              	.LFB83:
  27              		.file 1 ".\\DSP\\Source\\BasicMathFunctions\\arm_offset_f64.c"
   1:.\DSP\Source\BasicMathFunctions/arm_offset_f64.c **** /* ----------------------------------------------------------------------
   2:.\DSP\Source\BasicMathFunctions/arm_offset_f64.c ****  * Project:      CMSIS DSP Library
   3:.\DSP\Source\BasicMathFunctions/arm_offset_f64.c ****  * Title:        arm_offset_f64.c
   4:.\DSP\Source\BasicMathFunctions/arm_offset_f64.c ****  * Description:  Floating-point vector offset
   5:.\DSP\Source\BasicMathFunctions/arm_offset_f64.c ****  *
   6:.\DSP\Source\BasicMathFunctions/arm_offset_f64.c ****  * $Date:        13 September 2021
   7:.\DSP\Source\BasicMathFunctions/arm_offset_f64.c ****  * $Revision:    V1.10.0
   8:.\DSP\Source\BasicMathFunctions/arm_offset_f64.c ****  *
   9:.\DSP\Source\BasicMathFunctions/arm_offset_f64.c ****  * Target Processor: Cortex-M and Cortex-A cores
  10:.\DSP\Source\BasicMathFunctions/arm_offset_f64.c ****  * -------------------------------------------------------------------- */
  11:.\DSP\Source\BasicMathFunctions/arm_offset_f64.c **** /*
  12:.\DSP\Source\BasicMathFunctions/arm_offset_f64.c ****  * Copyright (C) 2010-2021 ARM Limited or its affiliates. All rights reserved.
  13:.\DSP\Source\BasicMathFunctions/arm_offset_f64.c ****  *
  14:.\DSP\Source\BasicMathFunctions/arm_offset_f64.c ****  * SPDX-License-Identifier: Apache-2.0
  15:.\DSP\Source\BasicMathFunctions/arm_offset_f64.c ****  *
  16:.\DSP\Source\BasicMathFunctions/arm_offset_f64.c ****  * Licensed under the Apache License, Version 2.0 (the License); you may
  17:.\DSP\Source\BasicMathFunctions/arm_offset_f64.c ****  * not use this file except in compliance with the License.
  18:.\DSP\Source\BasicMathFunctions/arm_offset_f64.c ****  * You may obtain a copy of the License at
  19:.\DSP\Source\BasicMathFunctions/arm_offset_f64.c ****  *
  20:.\DSP\Source\BasicMathFunctions/arm_offset_f64.c ****  * www.apache.org/licenses/LICENSE-2.0
  21:.\DSP\Source\BasicMathFunctions/arm_offset_f64.c ****  *
  22:.\DSP\Source\BasicMathFunctions/arm_offset_f64.c ****  * Unless required by applicable law or agreed to in writing, software
  23:.\DSP\Source\BasicMathFunctions/arm_offset_f64.c ****  * distributed under the License is distributed on an AS IS BASIS, WITHOUT
  24:.\DSP\Source\BasicMathFunctions/arm_offset_f64.c ****  * WARRANTIES OR CONDITIONS OF ANY KIND, either express or implied.
  25:.\DSP\Source\BasicMathFunctions/arm_offset_f64.c ****  * See the License for the specific language governing permissions and
  26:.\DSP\Source\BasicMathFunctions/arm_offset_f64.c ****  * limitations under the License.
  27:.\DSP\Source\BasicMathFunctions/arm_offset_f64.c ****  */
  28:.\DSP\Source\BasicMathFunctions/arm_offset_f64.c **** 
  29:.\DSP\Source\BasicMathFunctions/arm_offset_f64.c **** #include "dsp/basic_math_functions.h"
  30:.\DSP\Source\BasicMathFunctions/arm_offset_f64.c **** 
ARM GAS  C:\Users\IVYLIU~1\AppData\Local\Temp\cctay6yL.s 			page 2


  31:.\DSP\Source\BasicMathFunctions/arm_offset_f64.c **** /**
  32:.\DSP\Source\BasicMathFunctions/arm_offset_f64.c ****   @ingroup groupMath
  33:.\DSP\Source\BasicMathFunctions/arm_offset_f64.c ****  */
  34:.\DSP\Source\BasicMathFunctions/arm_offset_f64.c **** 
  35:.\DSP\Source\BasicMathFunctions/arm_offset_f64.c **** /**
  36:.\DSP\Source\BasicMathFunctions/arm_offset_f64.c ****   @addtogroup BasicOffset
  37:.\DSP\Source\BasicMathFunctions/arm_offset_f64.c ****   @{
  38:.\DSP\Source\BasicMathFunctions/arm_offset_f64.c ****  */
  39:.\DSP\Source\BasicMathFunctions/arm_offset_f64.c **** 
  40:.\DSP\Source\BasicMathFunctions/arm_offset_f64.c **** /**
  41:.\DSP\Source\BasicMathFunctions/arm_offset_f64.c ****   @brief         Adds a constant offset to a floating-point vector.
  42:.\DSP\Source\BasicMathFunctions/arm_offset_f64.c ****   @param[in]     pSrc       points to the input vector
  43:.\DSP\Source\BasicMathFunctions/arm_offset_f64.c ****   @param[in]     offset     is the offset to be added
  44:.\DSP\Source\BasicMathFunctions/arm_offset_f64.c ****   @param[out]    pDst       points to the output vector
  45:.\DSP\Source\BasicMathFunctions/arm_offset_f64.c ****   @param[in]     blockSize  number of samples in each vector
  46:.\DSP\Source\BasicMathFunctions/arm_offset_f64.c ****   @return        none
  47:.\DSP\Source\BasicMathFunctions/arm_offset_f64.c ****  */
  48:.\DSP\Source\BasicMathFunctions/arm_offset_f64.c **** 
  49:.\DSP\Source\BasicMathFunctions/arm_offset_f64.c **** void arm_offset_f64(
  50:.\DSP\Source\BasicMathFunctions/arm_offset_f64.c ****   const float64_t * pSrc,
  51:.\DSP\Source\BasicMathFunctions/arm_offset_f64.c ****         float64_t offset,
  52:.\DSP\Source\BasicMathFunctions/arm_offset_f64.c ****         float64_t * pDst,
  53:.\DSP\Source\BasicMathFunctions/arm_offset_f64.c ****         uint32_t blockSize)
  54:.\DSP\Source\BasicMathFunctions/arm_offset_f64.c **** {
  28              		.loc 1 54 0
  29              		.cfi_startproc
  30              		@ args = 8, pretend = 0, frame = 0
  31              		@ frame_needed = 0, uses_anonymous_args = 0
  32              	.LVL0:
  33 0000 2DE9F843 		push	{r3, r4, r5, r6, r7, r8, r9, lr}
  34              		.cfi_def_cfa_offset 32
  35              		.cfi_offset 3, -32
  36              		.cfi_offset 4, -28
  37              		.cfi_offset 5, -24
  38              		.cfi_offset 6, -20
  39              		.cfi_offset 7, -16
  40              		.cfi_offset 8, -12
  41              		.cfi_offset 9, -8
  42              		.cfi_offset 14, -4
  43 0004 1646     		mov	r6, r2
  44 0006 1F46     		mov	r7, r3
  45 0008 089D     		ldr	r5, [sp, #32]
  46 000a 099C     		ldr	r4, [sp, #36]
  47              	.LVL1:
  55:.\DSP\Source\BasicMathFunctions/arm_offset_f64.c ****   uint32_t blkCnt;                               /* Loop counter */
  56:.\DSP\Source\BasicMathFunctions/arm_offset_f64.c **** 
  57:.\DSP\Source\BasicMathFunctions/arm_offset_f64.c ****   /* Initialize blkCnt with number of samples */
  58:.\DSP\Source\BasicMathFunctions/arm_offset_f64.c ****   blkCnt = blockSize;
  59:.\DSP\Source\BasicMathFunctions/arm_offset_f64.c **** 
  60:.\DSP\Source\BasicMathFunctions/arm_offset_f64.c ****   while (blkCnt > 0U)
  48              		.loc 1 60 0
  49 000c 0DE0     		b	.L2
  50              	.LVL2:
  51              	.L3:
  61:.\DSP\Source\BasicMathFunctions/arm_offset_f64.c ****   {
  62:.\DSP\Source\BasicMathFunctions/arm_offset_f64.c ****     /* C = A + offset */
  63:.\DSP\Source\BasicMathFunctions/arm_offset_f64.c **** 
ARM GAS  C:\Users\IVYLIU~1\AppData\Local\Temp\cctay6yL.s 			page 3


  64:.\DSP\Source\BasicMathFunctions/arm_offset_f64.c ****     /* Add offset and store result in destination buffer. */
  65:.\DSP\Source\BasicMathFunctions/arm_offset_f64.c ****     *pDst++ = (*pSrc++) + offset;
  52              		.loc 1 65 0
  53 000e 05F10809 		add	r9, r5, #8
  54              	.LVL3:
  55 0012 00F10808 		add	r8, r0, #8
  56              	.LVL4:
  57 0016 03C8     		ldmia	r0, {r0-r1}
  58 0018 3246     		mov	r2, r6
  59 001a 3B46     		mov	r3, r7
  60 001c FFF7FEFF 		bl	__aeabi_dadd
  61              	.LVL5:
  62 0020 C5E90001 		strd	r0, [r5]
  66:.\DSP\Source\BasicMathFunctions/arm_offset_f64.c **** 
  67:.\DSP\Source\BasicMathFunctions/arm_offset_f64.c ****     /* Decrement loop counter */
  68:.\DSP\Source\BasicMathFunctions/arm_offset_f64.c ****     blkCnt--;
  63              		.loc 1 68 0
  64 0024 013C     		subs	r4, r4, #1
  65              	.LVL6:
  65:.\DSP\Source\BasicMathFunctions/arm_offset_f64.c **** 
  66              		.loc 1 65 0
  67 0026 4D46     		mov	r5, r9
  68 0028 4046     		mov	r0, r8
  69              	.LVL7:
  70              	.L2:
  60:.\DSP\Source\BasicMathFunctions/arm_offset_f64.c ****   {
  71              		.loc 1 60 0
  72 002a 002C     		cmp	r4, #0
  73 002c EFD1     		bne	.L3
  69:.\DSP\Source\BasicMathFunctions/arm_offset_f64.c ****   }
  70:.\DSP\Source\BasicMathFunctions/arm_offset_f64.c **** 
  71:.\DSP\Source\BasicMathFunctions/arm_offset_f64.c **** }
  74              		.loc 1 71 0
  75 002e BDE8F883 		pop	{r3, r4, r5, r6, r7, r8, r9, pc}
  76              		.cfi_endproc
  77              	.LFE83:
  78              		.size	arm_offset_f64, .-arm_offset_f64
  79 0032 00BF     		.text
  80              	.Letext0:
  81              		.file 2 "c:\\program files (x86)\\cypress\\psoc creator\\3.3\\psoc creator\\import\\gnu\\arm\\4.9.
  82              		.file 3 "c:\\program files (x86)\\cypress\\psoc creator\\3.3\\psoc creator\\import\\gnu\\arm\\4.9.
  83              		.file 4 ".\\DSP\\Include/arm_math_types.h"
  84              		.file 5 ".\\Core\\Include/cmsis_gcc.h"