ARM GAS  C:\Users\IVYLIU~1\AppData\Local\Temp\ccIjgw6y.s 			page 1


   1              		.syntax unified
   2              		.cpu cortex-m3
   3              		.fpu softvfp
   4              		.eabi_attribute 20, 1
   5              		.eabi_attribute 21, 1
   6              		.eabi_attribute 23, 3
   7              		.eabi_attribute 24, 1
   8              		.eabi_attribute 25, 1
   9              		.eabi_attribute 26, 1
  10              		.eabi_attribute 30, 1
  11              		.eabi_attribute 34, 1
  12              		.eabi_attribute 18, 4
  13              		.thumb
  14              		.file	"arm_negate_q15.c"
  15              		.text
  16              	.Ltext0:
  17              		.cfi_sections	.debug_frame
  18              		.section	.text.arm_negate_q15,"ax",%progbits
  19              		.align	2
  20              		.global	arm_negate_q15
  21              		.thumb
  22              		.thumb_func
  23              		.type	arm_negate_q15, %function
  24              	arm_negate_q15:
  25              	.LFB83:
  26              		.file 1 ".\\DSP\\Source\\BasicMathFunctions\\arm_negate_q15.c"
   1:.\DSP\Source\BasicMathFunctions/arm_negate_q15.c **** /* ----------------------------------------------------------------------
   2:.\DSP\Source\BasicMathFunctions/arm_negate_q15.c ****  * Project:      CMSIS DSP Library
   3:.\DSP\Source\BasicMathFunctions/arm_negate_q15.c ****  * Title:        arm_negate_q15.c
   4:.\DSP\Source\BasicMathFunctions/arm_negate_q15.c ****  * Description:  Negates Q15 vectors
   5:.\DSP\Source\BasicMathFunctions/arm_negate_q15.c ****  *
   6:.\DSP\Source\BasicMathFunctions/arm_negate_q15.c ****  * $Date:        23 April 2021
   7:.\DSP\Source\BasicMathFunctions/arm_negate_q15.c ****  * $Revision:    V1.9.0
   8:.\DSP\Source\BasicMathFunctions/arm_negate_q15.c ****  *
   9:.\DSP\Source\BasicMathFunctions/arm_negate_q15.c ****  * Target Processor: Cortex-M and Cortex-A cores
  10:.\DSP\Source\BasicMathFunctions/arm_negate_q15.c ****  * -------------------------------------------------------------------- */
  11:.\DSP\Source\BasicMathFunctions/arm_negate_q15.c **** /*
  12:.\DSP\Source\BasicMathFunctions/arm_negate_q15.c ****  * Copyright (C) 2010-2021 ARM Limited or its affiliates. All rights reserved.
  13:.\DSP\Source\BasicMathFunctions/arm_negate_q15.c ****  *
  14:.\DSP\Source\BasicMathFunctions/arm_negate_q15.c ****  * SPDX-License-Identifier: Apache-2.0
  15:.\DSP\Source\BasicMathFunctions/arm_negate_q15.c ****  *
  16:.\DSP\Source\BasicMathFunctions/arm_negate_q15.c ****  * Licensed under the Apache License, Version 2.0 (the License); you may
  17:.\DSP\Source\BasicMathFunctions/arm_negate_q15.c ****  * not use this file except in compliance with the License.
  18:.\DSP\Source\BasicMathFunctions/arm_negate_q15.c ****  * You may obtain a copy of the License at
  19:.\DSP\Source\BasicMathFunctions/arm_negate_q15.c ****  *
  20:.\DSP\Source\BasicMathFunctions/arm_negate_q15.c ****  * www.apache.org/licenses/LICENSE-2.0
  21:.\DSP\Source\BasicMathFunctions/arm_negate_q15.c ****  *
  22:.\DSP\Source\BasicMathFunctions/arm_negate_q15.c ****  * Unless required by applicable law or agreed to in writing, software
  23:.\DSP\Source\BasicMathFunctions/arm_negate_q15.c ****  * distributed under the License is distributed on an AS IS BASIS, WITHOUT
  24:.\DSP\Source\BasicMathFunctions/arm_negate_q15.c ****  * WARRANTIES OR CONDITIONS OF ANY KIND, either express or implied.
  25:.\DSP\Source\BasicMathFunctions/arm_negate_q15.c ****  * See the License for the specific language governing permissions and
  26:.\DSP\Source\BasicMathFunctions/arm_negate_q15.c ****  * limitations under the License.
  27:.\DSP\Source\BasicMathFunctions/arm_negate_q15.c ****  */
  28:.\DSP\Source\BasicMathFunctions/arm_negate_q15.c **** 
  29:.\DSP\Source\BasicMathFunctions/arm_negate_q15.c **** #include "dsp/basic_math_functions.h"
  30:.\DSP\Source\BasicMathFunctions/arm_negate_q15.c **** 
  31:.\DSP\Source\BasicMathFunctions/arm_negate_q15.c **** /**
ARM GAS  C:\Users\IVYLIU~1\AppData\Local\Temp\ccIjgw6y.s 			page 2


  32:.\DSP\Source\BasicMathFunctions/arm_negate_q15.c ****   @ingroup groupMath
  33:.\DSP\Source\BasicMathFunctions/arm_negate_q15.c ****  */
  34:.\DSP\Source\BasicMathFunctions/arm_negate_q15.c **** 
  35:.\DSP\Source\BasicMathFunctions/arm_negate_q15.c **** /**
  36:.\DSP\Source\BasicMathFunctions/arm_negate_q15.c ****   @addtogroup BasicNegate
  37:.\DSP\Source\BasicMathFunctions/arm_negate_q15.c ****   @{
  38:.\DSP\Source\BasicMathFunctions/arm_negate_q15.c ****  */
  39:.\DSP\Source\BasicMathFunctions/arm_negate_q15.c **** 
  40:.\DSP\Source\BasicMathFunctions/arm_negate_q15.c **** /**
  41:.\DSP\Source\BasicMathFunctions/arm_negate_q15.c ****   @brief         Negates the elements of a Q15 vector.
  42:.\DSP\Source\BasicMathFunctions/arm_negate_q15.c ****   @param[in]     pSrc       points to the input vector.
  43:.\DSP\Source\BasicMathFunctions/arm_negate_q15.c ****   @param[out]    pDst       points to the output vector.
  44:.\DSP\Source\BasicMathFunctions/arm_negate_q15.c ****   @param[in]     blockSize  number of samples in each vector.
  45:.\DSP\Source\BasicMathFunctions/arm_negate_q15.c ****   @return        none
  46:.\DSP\Source\BasicMathFunctions/arm_negate_q15.c **** 
  47:.\DSP\Source\BasicMathFunctions/arm_negate_q15.c ****   @par           Conditions for optimum performance
  48:.\DSP\Source\BasicMathFunctions/arm_negate_q15.c ****                    Input and output buffers should be aligned by 32-bit
  49:.\DSP\Source\BasicMathFunctions/arm_negate_q15.c ****   @par           Scaling and Overflow Behavior
  50:.\DSP\Source\BasicMathFunctions/arm_negate_q15.c ****                    The function uses saturating arithmetic.
  51:.\DSP\Source\BasicMathFunctions/arm_negate_q15.c ****                    The Q15 value -1 (0x8000) is saturated to the maximum allowable positive value 0
  52:.\DSP\Source\BasicMathFunctions/arm_negate_q15.c ****  */
  53:.\DSP\Source\BasicMathFunctions/arm_negate_q15.c **** #if defined(ARM_MATH_MVEI) && !defined(ARM_MATH_AUTOVECTORIZE)
  54:.\DSP\Source\BasicMathFunctions/arm_negate_q15.c **** 
  55:.\DSP\Source\BasicMathFunctions/arm_negate_q15.c **** #include "arm_helium_utils.h"
  56:.\DSP\Source\BasicMathFunctions/arm_negate_q15.c **** 
  57:.\DSP\Source\BasicMathFunctions/arm_negate_q15.c **** void arm_negate_q15(
  58:.\DSP\Source\BasicMathFunctions/arm_negate_q15.c ****     const q15_t  * pSrc,
  59:.\DSP\Source\BasicMathFunctions/arm_negate_q15.c ****     q15_t  * pDst,
  60:.\DSP\Source\BasicMathFunctions/arm_negate_q15.c ****     uint32_t blockSize)
  61:.\DSP\Source\BasicMathFunctions/arm_negate_q15.c **** {
  62:.\DSP\Source\BasicMathFunctions/arm_negate_q15.c ****     uint32_t  blkCnt;           /* loop counters */
  63:.\DSP\Source\BasicMathFunctions/arm_negate_q15.c ****     q15x8_t vecSrc;
  64:.\DSP\Source\BasicMathFunctions/arm_negate_q15.c **** 
  65:.\DSP\Source\BasicMathFunctions/arm_negate_q15.c ****     /* Compute 8 outputs at a time */
  66:.\DSP\Source\BasicMathFunctions/arm_negate_q15.c ****     blkCnt = blockSize >> 3;
  67:.\DSP\Source\BasicMathFunctions/arm_negate_q15.c ****     while (blkCnt > 0U)
  68:.\DSP\Source\BasicMathFunctions/arm_negate_q15.c ****     {
  69:.\DSP\Source\BasicMathFunctions/arm_negate_q15.c ****         /*
  70:.\DSP\Source\BasicMathFunctions/arm_negate_q15.c ****          * C = -A
  71:.\DSP\Source\BasicMathFunctions/arm_negate_q15.c ****          * Negate and then store the results in the destination buffer.
  72:.\DSP\Source\BasicMathFunctions/arm_negate_q15.c ****          */
  73:.\DSP\Source\BasicMathFunctions/arm_negate_q15.c ****         vecSrc = vld1q(pSrc);
  74:.\DSP\Source\BasicMathFunctions/arm_negate_q15.c ****         vst1q(pDst, vqnegq(vecSrc));
  75:.\DSP\Source\BasicMathFunctions/arm_negate_q15.c ****         /*
  76:.\DSP\Source\BasicMathFunctions/arm_negate_q15.c ****          * Decrement the blockSize loop counter
  77:.\DSP\Source\BasicMathFunctions/arm_negate_q15.c ****          */
  78:.\DSP\Source\BasicMathFunctions/arm_negate_q15.c ****         blkCnt--;
  79:.\DSP\Source\BasicMathFunctions/arm_negate_q15.c ****         /*
  80:.\DSP\Source\BasicMathFunctions/arm_negate_q15.c ****          * advance vector source and destination pointers
  81:.\DSP\Source\BasicMathFunctions/arm_negate_q15.c ****          */
  82:.\DSP\Source\BasicMathFunctions/arm_negate_q15.c ****         pSrc += 8;
  83:.\DSP\Source\BasicMathFunctions/arm_negate_q15.c ****         pDst += 8;
  84:.\DSP\Source\BasicMathFunctions/arm_negate_q15.c ****     }
  85:.\DSP\Source\BasicMathFunctions/arm_negate_q15.c ****     /*
  86:.\DSP\Source\BasicMathFunctions/arm_negate_q15.c ****      * tail
  87:.\DSP\Source\BasicMathFunctions/arm_negate_q15.c ****      */
  88:.\DSP\Source\BasicMathFunctions/arm_negate_q15.c ****     blkCnt = blockSize & 7;
ARM GAS  C:\Users\IVYLIU~1\AppData\Local\Temp\ccIjgw6y.s 			page 3


  89:.\DSP\Source\BasicMathFunctions/arm_negate_q15.c ****     if (blkCnt > 0U)
  90:.\DSP\Source\BasicMathFunctions/arm_negate_q15.c ****     {
  91:.\DSP\Source\BasicMathFunctions/arm_negate_q15.c ****         mve_pred16_t p0 = vctp16q(blkCnt);
  92:.\DSP\Source\BasicMathFunctions/arm_negate_q15.c ****         vecSrc = vld1q(pSrc);
  93:.\DSP\Source\BasicMathFunctions/arm_negate_q15.c ****         vstrhq_p(pDst, vqnegq(vecSrc), p0);
  94:.\DSP\Source\BasicMathFunctions/arm_negate_q15.c ****     }
  95:.\DSP\Source\BasicMathFunctions/arm_negate_q15.c **** }
  96:.\DSP\Source\BasicMathFunctions/arm_negate_q15.c **** 
  97:.\DSP\Source\BasicMathFunctions/arm_negate_q15.c **** #else
  98:.\DSP\Source\BasicMathFunctions/arm_negate_q15.c **** void arm_negate_q15(
  99:.\DSP\Source\BasicMathFunctions/arm_negate_q15.c ****   const q15_t * pSrc,
 100:.\DSP\Source\BasicMathFunctions/arm_negate_q15.c ****         q15_t * pDst,
 101:.\DSP\Source\BasicMathFunctions/arm_negate_q15.c ****         uint32_t blockSize)
 102:.\DSP\Source\BasicMathFunctions/arm_negate_q15.c **** {
  27              		.loc 1 102 0
  28              		.cfi_startproc
  29              		@ args = 0, pretend = 0, frame = 0
  30              		@ frame_needed = 0, uses_anonymous_args = 0
  31              		@ link register save eliminated.
  32              	.LVL0:
  33 0000 30B4     		push	{r4, r5}
  34              		.cfi_def_cfa_offset 8
  35              		.cfi_offset 4, -8
  36              		.cfi_offset 5, -4
  37              	.LVL1:
 103:.\DSP\Source\BasicMathFunctions/arm_negate_q15.c ****         uint32_t blkCnt;                               /* Loop counter */
 104:.\DSP\Source\BasicMathFunctions/arm_negate_q15.c ****         q15_t in;                                      /* Temporary input variable */
 105:.\DSP\Source\BasicMathFunctions/arm_negate_q15.c **** 
 106:.\DSP\Source\BasicMathFunctions/arm_negate_q15.c **** #if defined (ARM_MATH_LOOPUNROLL)
 107:.\DSP\Source\BasicMathFunctions/arm_negate_q15.c **** 
 108:.\DSP\Source\BasicMathFunctions/arm_negate_q15.c **** #if defined (ARM_MATH_DSP)
 109:.\DSP\Source\BasicMathFunctions/arm_negate_q15.c ****   q31_t in1;                                    /* Temporary input variables */
 110:.\DSP\Source\BasicMathFunctions/arm_negate_q15.c **** #endif
 111:.\DSP\Source\BasicMathFunctions/arm_negate_q15.c **** 
 112:.\DSP\Source\BasicMathFunctions/arm_negate_q15.c ****   /* Loop unrolling: Compute 4 outputs at a time */
 113:.\DSP\Source\BasicMathFunctions/arm_negate_q15.c ****   blkCnt = blockSize >> 2U;
 114:.\DSP\Source\BasicMathFunctions/arm_negate_q15.c **** 
 115:.\DSP\Source\BasicMathFunctions/arm_negate_q15.c ****   while (blkCnt > 0U)
 116:.\DSP\Source\BasicMathFunctions/arm_negate_q15.c ****   {
 117:.\DSP\Source\BasicMathFunctions/arm_negate_q15.c ****     /* C = -A */
 118:.\DSP\Source\BasicMathFunctions/arm_negate_q15.c **** 
 119:.\DSP\Source\BasicMathFunctions/arm_negate_q15.c **** #if defined (ARM_MATH_DSP)
 120:.\DSP\Source\BasicMathFunctions/arm_negate_q15.c ****     /* Negate and store result in destination buffer (2 samples at a time). */
 121:.\DSP\Source\BasicMathFunctions/arm_negate_q15.c ****     in1 = read_q15x2_ia (&pSrc);
 122:.\DSP\Source\BasicMathFunctions/arm_negate_q15.c ****     write_q15x2_ia (&pDst, __QSUB16(0, in1));
 123:.\DSP\Source\BasicMathFunctions/arm_negate_q15.c **** 
 124:.\DSP\Source\BasicMathFunctions/arm_negate_q15.c ****     in1 = read_q15x2_ia (&pSrc);
 125:.\DSP\Source\BasicMathFunctions/arm_negate_q15.c ****     write_q15x2_ia (&pDst, __QSUB16(0, in1));
 126:.\DSP\Source\BasicMathFunctions/arm_negate_q15.c **** #else
 127:.\DSP\Source\BasicMathFunctions/arm_negate_q15.c ****     in = *pSrc++;
 128:.\DSP\Source\BasicMathFunctions/arm_negate_q15.c ****     *pDst++ = (in == (q15_t) 0x8000) ? (q15_t) 0x7fff : -in;
 129:.\DSP\Source\BasicMathFunctions/arm_negate_q15.c **** 
 130:.\DSP\Source\BasicMathFunctions/arm_negate_q15.c ****     in = *pSrc++;
 131:.\DSP\Source\BasicMathFunctions/arm_negate_q15.c ****     *pDst++ = (in == (q15_t) 0x8000) ? (q15_t) 0x7fff : -in;
 132:.\DSP\Source\BasicMathFunctions/arm_negate_q15.c **** 
 133:.\DSP\Source\BasicMathFunctions/arm_negate_q15.c ****     in = *pSrc++;
 134:.\DSP\Source\BasicMathFunctions/arm_negate_q15.c ****     *pDst++ = (in == (q15_t) 0x8000) ? (q15_t) 0x7fff : -in;
ARM GAS  C:\Users\IVYLIU~1\AppData\Local\Temp\ccIjgw6y.s 			page 4


 135:.\DSP\Source\BasicMathFunctions/arm_negate_q15.c **** 
 136:.\DSP\Source\BasicMathFunctions/arm_negate_q15.c ****     in = *pSrc++;
 137:.\DSP\Source\BasicMathFunctions/arm_negate_q15.c ****     *pDst++ = (in == (q15_t) 0x8000) ? (q15_t) 0x7fff : -in;
 138:.\DSP\Source\BasicMathFunctions/arm_negate_q15.c **** #endif
 139:.\DSP\Source\BasicMathFunctions/arm_negate_q15.c **** 
 140:.\DSP\Source\BasicMathFunctions/arm_negate_q15.c ****     /* Decrement loop counter */
 141:.\DSP\Source\BasicMathFunctions/arm_negate_q15.c ****     blkCnt--;
 142:.\DSP\Source\BasicMathFunctions/arm_negate_q15.c ****   }
 143:.\DSP\Source\BasicMathFunctions/arm_negate_q15.c **** 
 144:.\DSP\Source\BasicMathFunctions/arm_negate_q15.c ****   /* Loop unrolling: Compute remaining outputs */
 145:.\DSP\Source\BasicMathFunctions/arm_negate_q15.c ****   blkCnt = blockSize % 0x4U;
 146:.\DSP\Source\BasicMathFunctions/arm_negate_q15.c **** 
 147:.\DSP\Source\BasicMathFunctions/arm_negate_q15.c **** #else
 148:.\DSP\Source\BasicMathFunctions/arm_negate_q15.c **** 
 149:.\DSP\Source\BasicMathFunctions/arm_negate_q15.c ****   /* Initialize blkCnt with number of samples */
 150:.\DSP\Source\BasicMathFunctions/arm_negate_q15.c ****   blkCnt = blockSize;
 151:.\DSP\Source\BasicMathFunctions/arm_negate_q15.c **** 
 152:.\DSP\Source\BasicMathFunctions/arm_negate_q15.c **** #endif /* #if defined (ARM_MATH_LOOPUNROLL) */
 153:.\DSP\Source\BasicMathFunctions/arm_negate_q15.c **** 
 154:.\DSP\Source\BasicMathFunctions/arm_negate_q15.c ****   while (blkCnt > 0U)
  38              		.loc 1 154 0
  39 0002 0FE0     		b	.L2
  40              	.LVL2:
  41              	.L4:
 155:.\DSP\Source\BasicMathFunctions/arm_negate_q15.c ****   {
 156:.\DSP\Source\BasicMathFunctions/arm_negate_q15.c ****     /* C = -A */
 157:.\DSP\Source\BasicMathFunctions/arm_negate_q15.c **** 
 158:.\DSP\Source\BasicMathFunctions/arm_negate_q15.c ****     /* Negate and store result in destination buffer. */
 159:.\DSP\Source\BasicMathFunctions/arm_negate_q15.c ****     in = *pSrc++;
  42              		.loc 1 159 0
  43 0004 841C     		adds	r4, r0, #2
  44              	.LVL3:
  45 0006 0388     		ldrh	r3, [r0]
  46              	.LVL4:
 160:.\DSP\Source\BasicMathFunctions/arm_negate_q15.c ****     *pDst++ = (in == (q15_t) 0x8000) ? (q15_t) 0x7fff : -in;
  47              		.loc 1 160 0
  48 0008 881C     		adds	r0, r1, #2
  49              	.LVL5:
  50 000a 1DB2     		sxth	r5, r3
  51 000c 15F5004F 		cmn	r5, #32768
  52 0010 02D0     		beq	.L5
  53              		.loc 1 160 0 is_stmt 0 discriminator 1
  54 0012 5B42     		negs	r3, r3
  55              	.LVL6:
  56 0014 9BB2     		uxth	r3, r3
  57 0016 01E0     		b	.L3
  58              	.LVL7:
  59              	.L5:
  60              		.loc 1 160 0
  61 0018 47F6FF73 		movw	r3, #32767
  62              	.LVL8:
  63              	.L3:
  64              		.loc 1 160 0 discriminator 4
  65 001c 0B80     		strh	r3, [r1]	@ movhi
 161:.\DSP\Source\BasicMathFunctions/arm_negate_q15.c **** 
 162:.\DSP\Source\BasicMathFunctions/arm_negate_q15.c ****     /* Decrement loop counter */
 163:.\DSP\Source\BasicMathFunctions/arm_negate_q15.c ****     blkCnt--;
ARM GAS  C:\Users\IVYLIU~1\AppData\Local\Temp\ccIjgw6y.s 			page 5


  66              		.loc 1 163 0 is_stmt 1 discriminator 4
  67 001e 013A     		subs	r2, r2, #1
  68              	.LVL9:
 160:.\DSP\Source\BasicMathFunctions/arm_negate_q15.c ****     *pDst++ = (in == (q15_t) 0x8000) ? (q15_t) 0x7fff : -in;
  69              		.loc 1 160 0 discriminator 4
  70 0020 0146     		mov	r1, r0
 159:.\DSP\Source\BasicMathFunctions/arm_negate_q15.c ****     *pDst++ = (in == (q15_t) 0x8000) ? (q15_t) 0x7fff : -in;
  71              		.loc 1 159 0 discriminator 4
  72 0022 2046     		mov	r0, r4
  73              	.LVL10:
  74              	.L2:
 154:.\DSP\Source\BasicMathFunctions/arm_negate_q15.c ****   {
  75              		.loc 1 154 0
  76 0024 002A     		cmp	r2, #0
  77 0026 EDD1     		bne	.L4
 164:.\DSP\Source\BasicMathFunctions/arm_negate_q15.c ****   }
 165:.\DSP\Source\BasicMathFunctions/arm_negate_q15.c **** 
 166:.\DSP\Source\BasicMathFunctions/arm_negate_q15.c **** }
  78              		.loc 1 166 0
  79 0028 30BC     		pop	{r4, r5}
  80              		.cfi_restore 5
  81              		.cfi_restore 4
  82              		.cfi_def_cfa_offset 0
  83 002a 7047     		bx	lr
  84              		.cfi_endproc
  85              	.LFE83:
  86              		.size	arm_negate_q15, .-arm_negate_q15
  87              		.text
  88              	.Letext0:
  89              		.file 2 "c:\\program files (x86)\\cypress\\psoc creator\\3.3\\psoc creator\\import\\gnu\\arm\\4.9.
  90              		.file 3 "c:\\program files (x86)\\cypress\\psoc creator\\3.3\\psoc creator\\import\\gnu\\arm\\4.9.
  91              		.file 4 ".\\DSP\\Include/arm_math_types.h"
  92              		.file 5 ".\\Core\\Include/cmsis_gcc.h"