ARM GAS  C:\Users\IVYLIU~1\AppData\Local\Temp\cc5IrfJX.s 			page 1


   1              		.syntax unified
   2              		.cpu cortex-m3
   3              		.fpu softvfp
   4              		.eabi_attribute 20, 1
   5              		.eabi_attribute 21, 1
   6              		.eabi_attribute 23, 3
   7              		.eabi_attribute 24, 1
   8              		.eabi_attribute 25, 1
   9              		.eabi_attribute 26, 1
  10              		.eabi_attribute 30, 1
  11              		.eabi_attribute 34, 1
  12              		.eabi_attribute 18, 4
  13              		.thumb
  14              		.file	"arm_dot_prod_f32.c"
  15              		.text
  16              	.Ltext0:
  17              		.cfi_sections	.debug_frame
  18              		.global	__aeabi_fmul
  19              		.global	__aeabi_fadd
  20              		.section	.text.arm_dot_prod_f32,"ax",%progbits
  21              		.align	2
  22              		.global	arm_dot_prod_f32
  23              		.thumb
  24              		.thumb_func
  25              		.type	arm_dot_prod_f32, %function
  26              	arm_dot_prod_f32:
  27              	.LFB83:
  28              		.file 1 ".\\DSP\\Source\\BasicMathFunctions\\arm_dot_prod_f32.c"
   1:.\DSP\Source\BasicMathFunctions/arm_dot_prod_f32.c **** /* ----------------------------------------------------------------------
   2:.\DSP\Source\BasicMathFunctions/arm_dot_prod_f32.c ****  * Project:      CMSIS DSP Library
   3:.\DSP\Source\BasicMathFunctions/arm_dot_prod_f32.c ****  * Title:        arm_dot_prod_f32.c
   4:.\DSP\Source\BasicMathFunctions/arm_dot_prod_f32.c ****  * Description:  Floating-point dot product
   5:.\DSP\Source\BasicMathFunctions/arm_dot_prod_f32.c ****  *
   6:.\DSP\Source\BasicMathFunctions/arm_dot_prod_f32.c ****  * $Date:        05 October 2021
   7:.\DSP\Source\BasicMathFunctions/arm_dot_prod_f32.c ****  * $Revision:    V1.9.1
   8:.\DSP\Source\BasicMathFunctions/arm_dot_prod_f32.c ****  *
   9:.\DSP\Source\BasicMathFunctions/arm_dot_prod_f32.c ****  * Target Processor: Cortex-M and Cortex-A cores
  10:.\DSP\Source\BasicMathFunctions/arm_dot_prod_f32.c ****  * -------------------------------------------------------------------- */
  11:.\DSP\Source\BasicMathFunctions/arm_dot_prod_f32.c **** /*
  12:.\DSP\Source\BasicMathFunctions/arm_dot_prod_f32.c ****  * Copyright (C) 2010-2021 ARM Limited or its affiliates. All rights reserved.
  13:.\DSP\Source\BasicMathFunctions/arm_dot_prod_f32.c ****  *
  14:.\DSP\Source\BasicMathFunctions/arm_dot_prod_f32.c ****  * SPDX-License-Identifier: Apache-2.0
  15:.\DSP\Source\BasicMathFunctions/arm_dot_prod_f32.c ****  *
  16:.\DSP\Source\BasicMathFunctions/arm_dot_prod_f32.c ****  * Licensed under the Apache License, Version 2.0 (the License); you may
  17:.\DSP\Source\BasicMathFunctions/arm_dot_prod_f32.c ****  * not use this file except in compliance with the License.
  18:.\DSP\Source\BasicMathFunctions/arm_dot_prod_f32.c ****  * You may obtain a copy of the License at
  19:.\DSP\Source\BasicMathFunctions/arm_dot_prod_f32.c ****  *
  20:.\DSP\Source\BasicMathFunctions/arm_dot_prod_f32.c ****  * www.apache.org/licenses/LICENSE-2.0
  21:.\DSP\Source\BasicMathFunctions/arm_dot_prod_f32.c ****  *
  22:.\DSP\Source\BasicMathFunctions/arm_dot_prod_f32.c ****  * Unless required by applicable law or agreed to in writing, software
  23:.\DSP\Source\BasicMathFunctions/arm_dot_prod_f32.c ****  * distributed under the License is distributed on an AS IS BASIS, WITHOUT
  24:.\DSP\Source\BasicMathFunctions/arm_dot_prod_f32.c ****  * WARRANTIES OR CONDITIONS OF ANY KIND, either express or implied.
  25:.\DSP\Source\BasicMathFunctions/arm_dot_prod_f32.c ****  * See the License for the specific language governing permissions and
  26:.\DSP\Source\BasicMathFunctions/arm_dot_prod_f32.c ****  * limitations under the License.
  27:.\DSP\Source\BasicMathFunctions/arm_dot_prod_f32.c ****  */
  28:.\DSP\Source\BasicMathFunctions/arm_dot_prod_f32.c **** 
  29:.\DSP\Source\BasicMathFunctions/arm_dot_prod_f32.c **** #include "dsp/basic_math_functions.h"
ARM GAS  C:\Users\IVYLIU~1\AppData\Local\Temp\cc5IrfJX.s 			page 2


  30:.\DSP\Source\BasicMathFunctions/arm_dot_prod_f32.c **** 
  31:.\DSP\Source\BasicMathFunctions/arm_dot_prod_f32.c **** /**
  32:.\DSP\Source\BasicMathFunctions/arm_dot_prod_f32.c ****   @ingroup groupMath
  33:.\DSP\Source\BasicMathFunctions/arm_dot_prod_f32.c ****  */
  34:.\DSP\Source\BasicMathFunctions/arm_dot_prod_f32.c **** 
  35:.\DSP\Source\BasicMathFunctions/arm_dot_prod_f32.c **** /**
  36:.\DSP\Source\BasicMathFunctions/arm_dot_prod_f32.c ****   @defgroup BasicDotProd Vector Dot Product
  37:.\DSP\Source\BasicMathFunctions/arm_dot_prod_f32.c **** 
  38:.\DSP\Source\BasicMathFunctions/arm_dot_prod_f32.c ****   Computes the dot product of two vectors.
  39:.\DSP\Source\BasicMathFunctions/arm_dot_prod_f32.c ****   The vectors are multiplied element-by-element and then summed.
  40:.\DSP\Source\BasicMathFunctions/arm_dot_prod_f32.c **** 
  41:.\DSP\Source\BasicMathFunctions/arm_dot_prod_f32.c ****   <pre>
  42:.\DSP\Source\BasicMathFunctions/arm_dot_prod_f32.c ****       sum = pSrcA[0]*pSrcB[0] + pSrcA[1]*pSrcB[1] + ... + pSrcA[blockSize-1]*pSrcB[blockSize-1]
  43:.\DSP\Source\BasicMathFunctions/arm_dot_prod_f32.c ****   </pre>
  44:.\DSP\Source\BasicMathFunctions/arm_dot_prod_f32.c **** 
  45:.\DSP\Source\BasicMathFunctions/arm_dot_prod_f32.c ****   There are separate functions for floating-point, Q7, Q15, and Q31 data types.
  46:.\DSP\Source\BasicMathFunctions/arm_dot_prod_f32.c ****  */
  47:.\DSP\Source\BasicMathFunctions/arm_dot_prod_f32.c **** 
  48:.\DSP\Source\BasicMathFunctions/arm_dot_prod_f32.c **** /**
  49:.\DSP\Source\BasicMathFunctions/arm_dot_prod_f32.c ****   @addtogroup BasicDotProd
  50:.\DSP\Source\BasicMathFunctions/arm_dot_prod_f32.c ****   @{
  51:.\DSP\Source\BasicMathFunctions/arm_dot_prod_f32.c ****  */
  52:.\DSP\Source\BasicMathFunctions/arm_dot_prod_f32.c **** 
  53:.\DSP\Source\BasicMathFunctions/arm_dot_prod_f32.c **** /**
  54:.\DSP\Source\BasicMathFunctions/arm_dot_prod_f32.c ****   @brief         Dot product of floating-point vectors.
  55:.\DSP\Source\BasicMathFunctions/arm_dot_prod_f32.c ****   @param[in]     pSrcA      points to the first input vector.
  56:.\DSP\Source\BasicMathFunctions/arm_dot_prod_f32.c ****   @param[in]     pSrcB      points to the second input vector.
  57:.\DSP\Source\BasicMathFunctions/arm_dot_prod_f32.c ****   @param[in]     blockSize  number of samples in each vector.
  58:.\DSP\Source\BasicMathFunctions/arm_dot_prod_f32.c ****   @param[out]    result     output result returned here.
  59:.\DSP\Source\BasicMathFunctions/arm_dot_prod_f32.c ****   @return        none
  60:.\DSP\Source\BasicMathFunctions/arm_dot_prod_f32.c ****  */
  61:.\DSP\Source\BasicMathFunctions/arm_dot_prod_f32.c **** 
  62:.\DSP\Source\BasicMathFunctions/arm_dot_prod_f32.c **** #if defined(ARM_MATH_MVEF) && !defined(ARM_MATH_AUTOVECTORIZE)
  63:.\DSP\Source\BasicMathFunctions/arm_dot_prod_f32.c **** 
  64:.\DSP\Source\BasicMathFunctions/arm_dot_prod_f32.c **** #include "arm_helium_utils.h"
  65:.\DSP\Source\BasicMathFunctions/arm_dot_prod_f32.c **** 
  66:.\DSP\Source\BasicMathFunctions/arm_dot_prod_f32.c **** 
  67:.\DSP\Source\BasicMathFunctions/arm_dot_prod_f32.c **** void arm_dot_prod_f32(
  68:.\DSP\Source\BasicMathFunctions/arm_dot_prod_f32.c ****     const float32_t * pSrcA,
  69:.\DSP\Source\BasicMathFunctions/arm_dot_prod_f32.c ****     const float32_t * pSrcB,
  70:.\DSP\Source\BasicMathFunctions/arm_dot_prod_f32.c ****     uint32_t    blockSize,
  71:.\DSP\Source\BasicMathFunctions/arm_dot_prod_f32.c ****     float32_t * result)
  72:.\DSP\Source\BasicMathFunctions/arm_dot_prod_f32.c **** {
  73:.\DSP\Source\BasicMathFunctions/arm_dot_prod_f32.c ****     f32x4_t vecA, vecB;
  74:.\DSP\Source\BasicMathFunctions/arm_dot_prod_f32.c ****     f32x4_t vecSum;
  75:.\DSP\Source\BasicMathFunctions/arm_dot_prod_f32.c ****     uint32_t blkCnt; 
  76:.\DSP\Source\BasicMathFunctions/arm_dot_prod_f32.c ****     float32_t sum = 0.0f;  
  77:.\DSP\Source\BasicMathFunctions/arm_dot_prod_f32.c ****     vecSum = vdupq_n_f32(0.0f);
  78:.\DSP\Source\BasicMathFunctions/arm_dot_prod_f32.c **** 
  79:.\DSP\Source\BasicMathFunctions/arm_dot_prod_f32.c ****     /* Compute 4 outputs at a time */
  80:.\DSP\Source\BasicMathFunctions/arm_dot_prod_f32.c ****     blkCnt = blockSize >> 2U;
  81:.\DSP\Source\BasicMathFunctions/arm_dot_prod_f32.c ****     while (blkCnt > 0U)
  82:.\DSP\Source\BasicMathFunctions/arm_dot_prod_f32.c ****     {
  83:.\DSP\Source\BasicMathFunctions/arm_dot_prod_f32.c ****         /*
  84:.\DSP\Source\BasicMathFunctions/arm_dot_prod_f32.c ****          * C = A[0]* B[0] + A[1]* B[1] + A[2]* B[2] + .....+ A[blockSize-1]* B[blockSize-1]
  85:.\DSP\Source\BasicMathFunctions/arm_dot_prod_f32.c ****          * Calculate dot product and then store the result in a temporary buffer.
  86:.\DSP\Source\BasicMathFunctions/arm_dot_prod_f32.c ****          * and advance vector source and destination pointers
ARM GAS  C:\Users\IVYLIU~1\AppData\Local\Temp\cc5IrfJX.s 			page 3


  87:.\DSP\Source\BasicMathFunctions/arm_dot_prod_f32.c ****          */
  88:.\DSP\Source\BasicMathFunctions/arm_dot_prod_f32.c ****         vecA = vld1q(pSrcA);
  89:.\DSP\Source\BasicMathFunctions/arm_dot_prod_f32.c ****         pSrcA += 4;
  90:.\DSP\Source\BasicMathFunctions/arm_dot_prod_f32.c ****         
  91:.\DSP\Source\BasicMathFunctions/arm_dot_prod_f32.c ****         vecB = vld1q(pSrcB);
  92:.\DSP\Source\BasicMathFunctions/arm_dot_prod_f32.c ****         pSrcB += 4;
  93:.\DSP\Source\BasicMathFunctions/arm_dot_prod_f32.c **** 
  94:.\DSP\Source\BasicMathFunctions/arm_dot_prod_f32.c ****         vecSum = vfmaq(vecSum, vecA, vecB);
  95:.\DSP\Source\BasicMathFunctions/arm_dot_prod_f32.c ****         /*
  96:.\DSP\Source\BasicMathFunctions/arm_dot_prod_f32.c ****          * Decrement the blockSize loop counter
  97:.\DSP\Source\BasicMathFunctions/arm_dot_prod_f32.c ****          */
  98:.\DSP\Source\BasicMathFunctions/arm_dot_prod_f32.c ****         blkCnt --;
  99:.\DSP\Source\BasicMathFunctions/arm_dot_prod_f32.c ****     }
 100:.\DSP\Source\BasicMathFunctions/arm_dot_prod_f32.c **** 
 101:.\DSP\Source\BasicMathFunctions/arm_dot_prod_f32.c **** 
 102:.\DSP\Source\BasicMathFunctions/arm_dot_prod_f32.c ****     blkCnt = blockSize & 3;
 103:.\DSP\Source\BasicMathFunctions/arm_dot_prod_f32.c ****     if (blkCnt > 0U)
 104:.\DSP\Source\BasicMathFunctions/arm_dot_prod_f32.c ****     {
 105:.\DSP\Source\BasicMathFunctions/arm_dot_prod_f32.c ****         /* C = A[0]* B[0] + A[1]* B[1] + A[2]* B[2] + .....+ A[blockSize-1]* B[blockSize-1] */
 106:.\DSP\Source\BasicMathFunctions/arm_dot_prod_f32.c **** 
 107:.\DSP\Source\BasicMathFunctions/arm_dot_prod_f32.c ****         mve_pred16_t p0 = vctp32q(blkCnt);
 108:.\DSP\Source\BasicMathFunctions/arm_dot_prod_f32.c ****         vecA = vld1q(pSrcA);
 109:.\DSP\Source\BasicMathFunctions/arm_dot_prod_f32.c ****         vecB = vld1q(pSrcB);
 110:.\DSP\Source\BasicMathFunctions/arm_dot_prod_f32.c ****         vecSum = vfmaq_m(vecSum, vecA, vecB, p0);
 111:.\DSP\Source\BasicMathFunctions/arm_dot_prod_f32.c ****     }
 112:.\DSP\Source\BasicMathFunctions/arm_dot_prod_f32.c **** 
 113:.\DSP\Source\BasicMathFunctions/arm_dot_prod_f32.c ****     sum = vecAddAcrossF32Mve(vecSum);
 114:.\DSP\Source\BasicMathFunctions/arm_dot_prod_f32.c **** 
 115:.\DSP\Source\BasicMathFunctions/arm_dot_prod_f32.c ****     /* Store result in destination buffer */
 116:.\DSP\Source\BasicMathFunctions/arm_dot_prod_f32.c ****     *result = sum;
 117:.\DSP\Source\BasicMathFunctions/arm_dot_prod_f32.c **** 
 118:.\DSP\Source\BasicMathFunctions/arm_dot_prod_f32.c **** }
 119:.\DSP\Source\BasicMathFunctions/arm_dot_prod_f32.c **** 
 120:.\DSP\Source\BasicMathFunctions/arm_dot_prod_f32.c **** #else
 121:.\DSP\Source\BasicMathFunctions/arm_dot_prod_f32.c **** 
 122:.\DSP\Source\BasicMathFunctions/arm_dot_prod_f32.c **** void arm_dot_prod_f32(
 123:.\DSP\Source\BasicMathFunctions/arm_dot_prod_f32.c ****   const float32_t * pSrcA,
 124:.\DSP\Source\BasicMathFunctions/arm_dot_prod_f32.c ****   const float32_t * pSrcB,
 125:.\DSP\Source\BasicMathFunctions/arm_dot_prod_f32.c ****         uint32_t blockSize,
 126:.\DSP\Source\BasicMathFunctions/arm_dot_prod_f32.c ****         float32_t * result)
 127:.\DSP\Source\BasicMathFunctions/arm_dot_prod_f32.c **** {
  29              		.loc 1 127 0
  30              		.cfi_startproc
  31              		@ args = 0, pretend = 0, frame = 0
  32              		@ frame_needed = 0, uses_anonymous_args = 0
  33              	.LVL0:
  34 0000 2DE9F041 		push	{r4, r5, r6, r7, r8, lr}
  35              		.cfi_def_cfa_offset 24
  36              		.cfi_offset 4, -24
  37              		.cfi_offset 5, -20
  38              		.cfi_offset 6, -16
  39              		.cfi_offset 7, -12
  40              		.cfi_offset 8, -8
  41              		.cfi_offset 14, -4
  42 0004 1446     		mov	r4, r2
  43 0006 9846     		mov	r8, r3
  44              	.LVL1:
ARM GAS  C:\Users\IVYLIU~1\AppData\Local\Temp\cc5IrfJX.s 			page 4


 128:.\DSP\Source\BasicMathFunctions/arm_dot_prod_f32.c ****         uint32_t blkCnt;                               /* Loop counter */
 129:.\DSP\Source\BasicMathFunctions/arm_dot_prod_f32.c ****         float32_t sum = 0.0f;                          /* Temporary return variable */
  45              		.loc 1 129 0
  46 0008 0025     		movs	r5, #0
 130:.\DSP\Source\BasicMathFunctions/arm_dot_prod_f32.c **** 
 131:.\DSP\Source\BasicMathFunctions/arm_dot_prod_f32.c **** #if defined(ARM_MATH_NEON) && !defined(ARM_MATH_AUTOVECTORIZE)
 132:.\DSP\Source\BasicMathFunctions/arm_dot_prod_f32.c ****     f32x4_t vec1;
 133:.\DSP\Source\BasicMathFunctions/arm_dot_prod_f32.c ****     f32x4_t vec2;
 134:.\DSP\Source\BasicMathFunctions/arm_dot_prod_f32.c ****     f32x4_t accum = vdupq_n_f32(0);   
 135:.\DSP\Source\BasicMathFunctions/arm_dot_prod_f32.c **** #if !defined(__aarch64__)
 136:.\DSP\Source\BasicMathFunctions/arm_dot_prod_f32.c ****     f32x2_t tmp = vdup_n_f32(0); 
 137:.\DSP\Source\BasicMathFunctions/arm_dot_prod_f32.c **** #endif   
 138:.\DSP\Source\BasicMathFunctions/arm_dot_prod_f32.c **** 
 139:.\DSP\Source\BasicMathFunctions/arm_dot_prod_f32.c ****     /* Compute 4 outputs at a time */
 140:.\DSP\Source\BasicMathFunctions/arm_dot_prod_f32.c ****     blkCnt = blockSize >> 2U;
 141:.\DSP\Source\BasicMathFunctions/arm_dot_prod_f32.c **** 
 142:.\DSP\Source\BasicMathFunctions/arm_dot_prod_f32.c ****     vec1 = vld1q_f32(pSrcA);
 143:.\DSP\Source\BasicMathFunctions/arm_dot_prod_f32.c ****     vec2 = vld1q_f32(pSrcB);
 144:.\DSP\Source\BasicMathFunctions/arm_dot_prod_f32.c **** 
 145:.\DSP\Source\BasicMathFunctions/arm_dot_prod_f32.c ****     while (blkCnt > 0U)
 146:.\DSP\Source\BasicMathFunctions/arm_dot_prod_f32.c ****     {
 147:.\DSP\Source\BasicMathFunctions/arm_dot_prod_f32.c ****         /* C = A[0]*B[0] + A[1]*B[1] + A[2]*B[2] + ... + A[blockSize-1]*B[blockSize-1] */
 148:.\DSP\Source\BasicMathFunctions/arm_dot_prod_f32.c ****         /* Calculate dot product and then store the result in a temporary buffer. */
 149:.\DSP\Source\BasicMathFunctions/arm_dot_prod_f32.c ****         
 150:.\DSP\Source\BasicMathFunctions/arm_dot_prod_f32.c **** 	      accum = vmlaq_f32(accum, vec1, vec2);
 151:.\DSP\Source\BasicMathFunctions/arm_dot_prod_f32.c **** 	
 152:.\DSP\Source\BasicMathFunctions/arm_dot_prod_f32.c ****         /* Increment pointers */
 153:.\DSP\Source\BasicMathFunctions/arm_dot_prod_f32.c ****         pSrcA += 4;
 154:.\DSP\Source\BasicMathFunctions/arm_dot_prod_f32.c ****         pSrcB += 4; 
 155:.\DSP\Source\BasicMathFunctions/arm_dot_prod_f32.c **** 
 156:.\DSP\Source\BasicMathFunctions/arm_dot_prod_f32.c ****         vec1 = vld1q_f32(pSrcA);
 157:.\DSP\Source\BasicMathFunctions/arm_dot_prod_f32.c ****         vec2 = vld1q_f32(pSrcB);
 158:.\DSP\Source\BasicMathFunctions/arm_dot_prod_f32.c ****         
 159:.\DSP\Source\BasicMathFunctions/arm_dot_prod_f32.c ****         /* Decrement the loop counter */
 160:.\DSP\Source\BasicMathFunctions/arm_dot_prod_f32.c ****         blkCnt--;
 161:.\DSP\Source\BasicMathFunctions/arm_dot_prod_f32.c ****     }
 162:.\DSP\Source\BasicMathFunctions/arm_dot_prod_f32.c ****     
 163:.\DSP\Source\BasicMathFunctions/arm_dot_prod_f32.c **** #if defined(__aarch64__)
 164:.\DSP\Source\BasicMathFunctions/arm_dot_prod_f32.c ****     sum = vpadds_f32(vpadd_f32(vget_low_f32(accum), vget_high_f32(accum)));
 165:.\DSP\Source\BasicMathFunctions/arm_dot_prod_f32.c **** #else
 166:.\DSP\Source\BasicMathFunctions/arm_dot_prod_f32.c ****     tmp = vpadd_f32(vget_low_f32(accum), vget_high_f32(accum));
 167:.\DSP\Source\BasicMathFunctions/arm_dot_prod_f32.c ****     sum = vget_lane_f32(tmp, 0) + vget_lane_f32(tmp, 1);
 168:.\DSP\Source\BasicMathFunctions/arm_dot_prod_f32.c **** 
 169:.\DSP\Source\BasicMathFunctions/arm_dot_prod_f32.c **** #endif    
 170:.\DSP\Source\BasicMathFunctions/arm_dot_prod_f32.c **** 
 171:.\DSP\Source\BasicMathFunctions/arm_dot_prod_f32.c ****     /* Tail */
 172:.\DSP\Source\BasicMathFunctions/arm_dot_prod_f32.c ****     blkCnt = blockSize & 0x3;
 173:.\DSP\Source\BasicMathFunctions/arm_dot_prod_f32.c **** 
 174:.\DSP\Source\BasicMathFunctions/arm_dot_prod_f32.c **** #else
 175:.\DSP\Source\BasicMathFunctions/arm_dot_prod_f32.c **** #if defined (ARM_MATH_LOOPUNROLL) && !defined(ARM_MATH_AUTOVECTORIZE)
 176:.\DSP\Source\BasicMathFunctions/arm_dot_prod_f32.c **** 
 177:.\DSP\Source\BasicMathFunctions/arm_dot_prod_f32.c ****   /* Loop unrolling: Compute 4 outputs at a time */
 178:.\DSP\Source\BasicMathFunctions/arm_dot_prod_f32.c ****   blkCnt = blockSize >> 2U;
 179:.\DSP\Source\BasicMathFunctions/arm_dot_prod_f32.c **** 
 180:.\DSP\Source\BasicMathFunctions/arm_dot_prod_f32.c ****   /* First part of the processing with loop unrolling. Compute 4 outputs at a time.
 181:.\DSP\Source\BasicMathFunctions/arm_dot_prod_f32.c ****    ** a second loop below computes the remaining 1 to 3 samples. */
 182:.\DSP\Source\BasicMathFunctions/arm_dot_prod_f32.c ****   while (blkCnt > 0U)
ARM GAS  C:\Users\IVYLIU~1\AppData\Local\Temp\cc5IrfJX.s 			page 5


 183:.\DSP\Source\BasicMathFunctions/arm_dot_prod_f32.c ****   {
 184:.\DSP\Source\BasicMathFunctions/arm_dot_prod_f32.c ****     /* C = A[0]* B[0] + A[1]* B[1] + A[2]* B[2] + .....+ A[blockSize-1]* B[blockSize-1] */
 185:.\DSP\Source\BasicMathFunctions/arm_dot_prod_f32.c **** 
 186:.\DSP\Source\BasicMathFunctions/arm_dot_prod_f32.c ****     /* Calculate dot product and store result in a temporary buffer. */
 187:.\DSP\Source\BasicMathFunctions/arm_dot_prod_f32.c ****     sum += (*pSrcA++) * (*pSrcB++);
 188:.\DSP\Source\BasicMathFunctions/arm_dot_prod_f32.c **** 
 189:.\DSP\Source\BasicMathFunctions/arm_dot_prod_f32.c ****     sum += (*pSrcA++) * (*pSrcB++);
 190:.\DSP\Source\BasicMathFunctions/arm_dot_prod_f32.c **** 
 191:.\DSP\Source\BasicMathFunctions/arm_dot_prod_f32.c ****     sum += (*pSrcA++) * (*pSrcB++);
 192:.\DSP\Source\BasicMathFunctions/arm_dot_prod_f32.c **** 
 193:.\DSP\Source\BasicMathFunctions/arm_dot_prod_f32.c ****     sum += (*pSrcA++) * (*pSrcB++);
 194:.\DSP\Source\BasicMathFunctions/arm_dot_prod_f32.c **** 
 195:.\DSP\Source\BasicMathFunctions/arm_dot_prod_f32.c ****     /* Decrement loop counter */
 196:.\DSP\Source\BasicMathFunctions/arm_dot_prod_f32.c ****     blkCnt--;
 197:.\DSP\Source\BasicMathFunctions/arm_dot_prod_f32.c ****   }
 198:.\DSP\Source\BasicMathFunctions/arm_dot_prod_f32.c **** 
 199:.\DSP\Source\BasicMathFunctions/arm_dot_prod_f32.c ****   /* Loop unrolling: Compute remaining outputs */
 200:.\DSP\Source\BasicMathFunctions/arm_dot_prod_f32.c ****   blkCnt = blockSize % 0x4U;
 201:.\DSP\Source\BasicMathFunctions/arm_dot_prod_f32.c **** 
 202:.\DSP\Source\BasicMathFunctions/arm_dot_prod_f32.c **** #else
 203:.\DSP\Source\BasicMathFunctions/arm_dot_prod_f32.c **** 
 204:.\DSP\Source\BasicMathFunctions/arm_dot_prod_f32.c ****   /* Initialize blkCnt with number of samples */
 205:.\DSP\Source\BasicMathFunctions/arm_dot_prod_f32.c ****   blkCnt = blockSize;
 206:.\DSP\Source\BasicMathFunctions/arm_dot_prod_f32.c **** 
 207:.\DSP\Source\BasicMathFunctions/arm_dot_prod_f32.c **** #endif /* #if defined (ARM_MATH_LOOPUNROLL) */
 208:.\DSP\Source\BasicMathFunctions/arm_dot_prod_f32.c **** #endif /* #if defined(ARM_MATH_NEON) */
 209:.\DSP\Source\BasicMathFunctions/arm_dot_prod_f32.c **** 
 210:.\DSP\Source\BasicMathFunctions/arm_dot_prod_f32.c ****   while (blkCnt > 0U)
  47              		.loc 1 210 0
  48 000a 0DE0     		b	.L2
  49              	.LVL2:
  50              	.L3:
 211:.\DSP\Source\BasicMathFunctions/arm_dot_prod_f32.c ****   {
 212:.\DSP\Source\BasicMathFunctions/arm_dot_prod_f32.c ****     /* C = A[0]* B[0] + A[1]* B[1] + A[2]* B[2] + .....+ A[blockSize-1]* B[blockSize-1] */
 213:.\DSP\Source\BasicMathFunctions/arm_dot_prod_f32.c **** 
 214:.\DSP\Source\BasicMathFunctions/arm_dot_prod_f32.c ****     /* Calculate dot product and store result in a temporary buffer. */
 215:.\DSP\Source\BasicMathFunctions/arm_dot_prod_f32.c ****     sum += (*pSrcA++) * (*pSrcB++);
  51              		.loc 1 215 0
  52 000c 061D     		adds	r6, r0, #4
  53              	.LVL3:
  54 000e 0F1D     		adds	r7, r1, #4
  55              	.LVL4:
  56 0010 0068     		ldr	r0, [r0]	@ float
  57 0012 0968     		ldr	r1, [r1]	@ float
  58 0014 FFF7FEFF 		bl	__aeabi_fmul
  59              	.LVL5:
  60 0018 0146     		mov	r1, r0
  61 001a 2846     		mov	r0, r5
  62 001c FFF7FEFF 		bl	__aeabi_fadd
  63              	.LVL6:
  64 0020 0546     		mov	r5, r0
  65              	.LVL7:
 216:.\DSP\Source\BasicMathFunctions/arm_dot_prod_f32.c **** 
 217:.\DSP\Source\BasicMathFunctions/arm_dot_prod_f32.c ****     /* Decrement loop counter */
 218:.\DSP\Source\BasicMathFunctions/arm_dot_prod_f32.c ****     blkCnt--;
  66              		.loc 1 218 0
  67 0022 013C     		subs	r4, r4, #1
ARM GAS  C:\Users\IVYLIU~1\AppData\Local\Temp\cc5IrfJX.s 			page 6


  68              	.LVL8:
 215:.\DSP\Source\BasicMathFunctions/arm_dot_prod_f32.c **** 
  69              		.loc 1 215 0
  70 0024 3946     		mov	r1, r7
  71 0026 3046     		mov	r0, r6
  72              	.LVL9:
  73              	.L2:
 210:.\DSP\Source\BasicMathFunctions/arm_dot_prod_f32.c ****   {
  74              		.loc 1 210 0
  75 0028 002C     		cmp	r4, #0
  76 002a EFD1     		bne	.L3
 219:.\DSP\Source\BasicMathFunctions/arm_dot_prod_f32.c ****   }
 220:.\DSP\Source\BasicMathFunctions/arm_dot_prod_f32.c **** 
 221:.\DSP\Source\BasicMathFunctions/arm_dot_prod_f32.c ****   /* Store result in destination buffer */
 222:.\DSP\Source\BasicMathFunctions/arm_dot_prod_f32.c ****   *result = sum;
  77              		.loc 1 222 0
  78 002c C8F80050 		str	r5, [r8]	@ float
  79 0030 BDE8F081 		pop	{r4, r5, r6, r7, r8, pc}
  80              		.cfi_endproc
  81              	.LFE83:
  82              		.size	arm_dot_prod_f32, .-arm_dot_prod_f32
  83              		.text
  84              	.Letext0:
  85              		.file 2 "c:\\program files (x86)\\cypress\\psoc creator\\3.3\\psoc creator\\import\\gnu\\arm\\4.9.
  86              		.file 3 "c:\\program files (x86)\\cypress\\psoc creator\\3.3\\psoc creator\\import\\gnu\\arm\\4.9.
  87              		.file 4 ".\\DSP\\Include/arm_math_types.h"
  88              		.file 5 ".\\Core\\Include/cmsis_gcc.h"