ARM GAS  C:\Users\IVYLIU~1\AppData\Local\Temp\cc7gzL6d.s 			page 1


   1              		.syntax unified
   2              		.cpu cortex-m3
   3              		.fpu softvfp
   4              		.eabi_attribute 20, 1
   5              		.eabi_attribute 21, 1
   6              		.eabi_attribute 23, 3
   7              		.eabi_attribute 24, 1
   8              		.eabi_attribute 25, 1
   9              		.eabi_attribute 26, 1
  10              		.eabi_attribute 30, 1
  11              		.eabi_attribute 34, 1
  12              		.eabi_attribute 18, 4
  13              		.thumb
  14              		.file	"BasicMathFunctions.c"
  15              		.text
  16              	.Ltext0:
  17              		.cfi_sections	.debug_frame
  18              		.section	.text.arm_abs_f32,"ax",%progbits
  19              		.align	2
  20              		.global	arm_abs_f32
  21              		.thumb
  22              		.thumb_func
  23              		.type	arm_abs_f32, %function
  24              	arm_abs_f32:
  25              	.LFB83:
  26              		.file 1 ".\\DSP\\Source\\BasicMathFunctions\\arm_abs_f32.c"
   1:.\DSP\Source\BasicMathFunctions/arm_abs_f32.c **** /* ----------------------------------------------------------------------
   2:.\DSP\Source\BasicMathFunctions/arm_abs_f32.c ****  * Project:      CMSIS DSP Library
   3:.\DSP\Source\BasicMathFunctions/arm_abs_f32.c ****  * Title:        arm_abs_f32.c
   4:.\DSP\Source\BasicMathFunctions/arm_abs_f32.c ****  * Description:  Floating-point vector absolute value
   5:.\DSP\Source\BasicMathFunctions/arm_abs_f32.c ****  *
   6:.\DSP\Source\BasicMathFunctions/arm_abs_f32.c ****  * $Date:        23 April 2021
   7:.\DSP\Source\BasicMathFunctions/arm_abs_f32.c ****  * $Revision:    V1.9.0
   8:.\DSP\Source\BasicMathFunctions/arm_abs_f32.c ****  *
   9:.\DSP\Source\BasicMathFunctions/arm_abs_f32.c ****  * Target Processor: Cortex-M and Cortex-A cores
  10:.\DSP\Source\BasicMathFunctions/arm_abs_f32.c ****  * -------------------------------------------------------------------- */
  11:.\DSP\Source\BasicMathFunctions/arm_abs_f32.c **** /*
  12:.\DSP\Source\BasicMathFunctions/arm_abs_f32.c ****  * Copyright (C) 2010-2021 ARM Limited or its affiliates. All rights reserved.
  13:.\DSP\Source\BasicMathFunctions/arm_abs_f32.c ****  *
  14:.\DSP\Source\BasicMathFunctions/arm_abs_f32.c ****  * SPDX-License-Identifier: Apache-2.0
  15:.\DSP\Source\BasicMathFunctions/arm_abs_f32.c ****  *
  16:.\DSP\Source\BasicMathFunctions/arm_abs_f32.c ****  * Licensed under the Apache License, Version 2.0 (the License); you may
  17:.\DSP\Source\BasicMathFunctions/arm_abs_f32.c ****  * not use this file except in compliance with the License.
  18:.\DSP\Source\BasicMathFunctions/arm_abs_f32.c ****  * You may obtain a copy of the License at
  19:.\DSP\Source\BasicMathFunctions/arm_abs_f32.c ****  *
  20:.\DSP\Source\BasicMathFunctions/arm_abs_f32.c ****  * www.apache.org/licenses/LICENSE-2.0
  21:.\DSP\Source\BasicMathFunctions/arm_abs_f32.c ****  *
  22:.\DSP\Source\BasicMathFunctions/arm_abs_f32.c ****  * Unless required by applicable law or agreed to in writing, software
  23:.\DSP\Source\BasicMathFunctions/arm_abs_f32.c ****  * distributed under the License is distributed on an AS IS BASIS, WITHOUT
  24:.\DSP\Source\BasicMathFunctions/arm_abs_f32.c ****  * WARRANTIES OR CONDITIONS OF ANY KIND, either express or implied.
  25:.\DSP\Source\BasicMathFunctions/arm_abs_f32.c ****  * See the License for the specific language governing permissions and
  26:.\DSP\Source\BasicMathFunctions/arm_abs_f32.c ****  * limitations under the License.
  27:.\DSP\Source\BasicMathFunctions/arm_abs_f32.c ****  */
  28:.\DSP\Source\BasicMathFunctions/arm_abs_f32.c **** 
  29:.\DSP\Source\BasicMathFunctions/arm_abs_f32.c **** #include "dsp/basic_math_functions.h"
  30:.\DSP\Source\BasicMathFunctions/arm_abs_f32.c **** #include <math.h>
  31:.\DSP\Source\BasicMathFunctions/arm_abs_f32.c **** 
ARM GAS  C:\Users\IVYLIU~1\AppData\Local\Temp\cc7gzL6d.s 			page 2


  32:.\DSP\Source\BasicMathFunctions/arm_abs_f32.c **** /**
  33:.\DSP\Source\BasicMathFunctions/arm_abs_f32.c ****   @ingroup groupMath
  34:.\DSP\Source\BasicMathFunctions/arm_abs_f32.c ****  */
  35:.\DSP\Source\BasicMathFunctions/arm_abs_f32.c **** 
  36:.\DSP\Source\BasicMathFunctions/arm_abs_f32.c **** /**
  37:.\DSP\Source\BasicMathFunctions/arm_abs_f32.c ****   @defgroup BasicAbs Vector Absolute Value
  38:.\DSP\Source\BasicMathFunctions/arm_abs_f32.c **** 
  39:.\DSP\Source\BasicMathFunctions/arm_abs_f32.c ****   Computes the absolute value of a vector on an element-by-element basis.
  40:.\DSP\Source\BasicMathFunctions/arm_abs_f32.c **** 
  41:.\DSP\Source\BasicMathFunctions/arm_abs_f32.c ****   <pre>
  42:.\DSP\Source\BasicMathFunctions/arm_abs_f32.c ****       pDst[n] = abs(pSrc[n]),   0 <= n < blockSize.
  43:.\DSP\Source\BasicMathFunctions/arm_abs_f32.c ****   </pre>
  44:.\DSP\Source\BasicMathFunctions/arm_abs_f32.c **** 
  45:.\DSP\Source\BasicMathFunctions/arm_abs_f32.c ****   The functions support in-place computation allowing the source and
  46:.\DSP\Source\BasicMathFunctions/arm_abs_f32.c ****   destination pointers to reference the same memory buffer.
  47:.\DSP\Source\BasicMathFunctions/arm_abs_f32.c ****   There are separate functions for floating-point, Q7, Q15, and Q31 data types.
  48:.\DSP\Source\BasicMathFunctions/arm_abs_f32.c ****  */
  49:.\DSP\Source\BasicMathFunctions/arm_abs_f32.c **** 
  50:.\DSP\Source\BasicMathFunctions/arm_abs_f32.c **** /**
  51:.\DSP\Source\BasicMathFunctions/arm_abs_f32.c ****   @addtogroup BasicAbs
  52:.\DSP\Source\BasicMathFunctions/arm_abs_f32.c ****   @{
  53:.\DSP\Source\BasicMathFunctions/arm_abs_f32.c ****  */
  54:.\DSP\Source\BasicMathFunctions/arm_abs_f32.c **** 
  55:.\DSP\Source\BasicMathFunctions/arm_abs_f32.c **** /**
  56:.\DSP\Source\BasicMathFunctions/arm_abs_f32.c ****   @brief         Floating-point vector absolute value.
  57:.\DSP\Source\BasicMathFunctions/arm_abs_f32.c ****   @param[in]     pSrc       points to the input vector
  58:.\DSP\Source\BasicMathFunctions/arm_abs_f32.c ****   @param[out]    pDst       points to the output vector
  59:.\DSP\Source\BasicMathFunctions/arm_abs_f32.c ****   @param[in]     blockSize  number of samples in each vector
  60:.\DSP\Source\BasicMathFunctions/arm_abs_f32.c ****   @return        none
  61:.\DSP\Source\BasicMathFunctions/arm_abs_f32.c ****  */
  62:.\DSP\Source\BasicMathFunctions/arm_abs_f32.c **** 
  63:.\DSP\Source\BasicMathFunctions/arm_abs_f32.c **** 
  64:.\DSP\Source\BasicMathFunctions/arm_abs_f32.c **** #if defined(ARM_MATH_MVEF) && !defined(ARM_MATH_AUTOVECTORIZE)
  65:.\DSP\Source\BasicMathFunctions/arm_abs_f32.c **** 
  66:.\DSP\Source\BasicMathFunctions/arm_abs_f32.c **** #include "arm_helium_utils.h"
  67:.\DSP\Source\BasicMathFunctions/arm_abs_f32.c **** 
  68:.\DSP\Source\BasicMathFunctions/arm_abs_f32.c **** void arm_abs_f32(
  69:.\DSP\Source\BasicMathFunctions/arm_abs_f32.c ****   const float32_t * pSrc,
  70:.\DSP\Source\BasicMathFunctions/arm_abs_f32.c ****         float32_t * pDst,
  71:.\DSP\Source\BasicMathFunctions/arm_abs_f32.c ****         uint32_t blockSize)
  72:.\DSP\Source\BasicMathFunctions/arm_abs_f32.c **** {
  73:.\DSP\Source\BasicMathFunctions/arm_abs_f32.c ****     uint32_t blkCnt;                               /* Loop counter */
  74:.\DSP\Source\BasicMathFunctions/arm_abs_f32.c ****     f32x4_t vec1;
  75:.\DSP\Source\BasicMathFunctions/arm_abs_f32.c ****     f32x4_t res;
  76:.\DSP\Source\BasicMathFunctions/arm_abs_f32.c **** 
  77:.\DSP\Source\BasicMathFunctions/arm_abs_f32.c **** 
  78:.\DSP\Source\BasicMathFunctions/arm_abs_f32.c ****     /* Compute 4 outputs at a time */
  79:.\DSP\Source\BasicMathFunctions/arm_abs_f32.c ****     blkCnt = blockSize >> 2U;
  80:.\DSP\Source\BasicMathFunctions/arm_abs_f32.c **** 
  81:.\DSP\Source\BasicMathFunctions/arm_abs_f32.c ****     while (blkCnt > 0U)
  82:.\DSP\Source\BasicMathFunctions/arm_abs_f32.c ****     {
  83:.\DSP\Source\BasicMathFunctions/arm_abs_f32.c ****         /* C = |A| */
  84:.\DSP\Source\BasicMathFunctions/arm_abs_f32.c **** 
  85:.\DSP\Source\BasicMathFunctions/arm_abs_f32.c ****         /* Calculate absolute values and then store the results in the destination buffer. */
  86:.\DSP\Source\BasicMathFunctions/arm_abs_f32.c ****         vec1 = vld1q(pSrc);
  87:.\DSP\Source\BasicMathFunctions/arm_abs_f32.c ****         res = vabsq(vec1);
  88:.\DSP\Source\BasicMathFunctions/arm_abs_f32.c ****         vst1q(pDst, res);
ARM GAS  C:\Users\IVYLIU~1\AppData\Local\Temp\cc7gzL6d.s 			page 3


  89:.\DSP\Source\BasicMathFunctions/arm_abs_f32.c **** 
  90:.\DSP\Source\BasicMathFunctions/arm_abs_f32.c ****         /* Increment pointers */
  91:.\DSP\Source\BasicMathFunctions/arm_abs_f32.c ****         pSrc += 4;
  92:.\DSP\Source\BasicMathFunctions/arm_abs_f32.c ****         pDst += 4;
  93:.\DSP\Source\BasicMathFunctions/arm_abs_f32.c ****         
  94:.\DSP\Source\BasicMathFunctions/arm_abs_f32.c ****         /* Decrement the loop counter */
  95:.\DSP\Source\BasicMathFunctions/arm_abs_f32.c ****         blkCnt--;
  96:.\DSP\Source\BasicMathFunctions/arm_abs_f32.c ****     }
  97:.\DSP\Source\BasicMathFunctions/arm_abs_f32.c **** 
  98:.\DSP\Source\BasicMathFunctions/arm_abs_f32.c ****     /* Tail */
  99:.\DSP\Source\BasicMathFunctions/arm_abs_f32.c ****     blkCnt = blockSize & 0x3;
 100:.\DSP\Source\BasicMathFunctions/arm_abs_f32.c **** 
 101:.\DSP\Source\BasicMathFunctions/arm_abs_f32.c **** 
 102:.\DSP\Source\BasicMathFunctions/arm_abs_f32.c ****     if (blkCnt > 0U)
 103:.\DSP\Source\BasicMathFunctions/arm_abs_f32.c ****     {
 104:.\DSP\Source\BasicMathFunctions/arm_abs_f32.c ****       /* C = |A| */
 105:.\DSP\Source\BasicMathFunctions/arm_abs_f32.c ****       mve_pred16_t p0 = vctp32q(blkCnt);
 106:.\DSP\Source\BasicMathFunctions/arm_abs_f32.c ****       vec1 = vld1q(pSrc);
 107:.\DSP\Source\BasicMathFunctions/arm_abs_f32.c ****       vstrwq_p(pDst, vabsq(vec1), p0);
 108:.\DSP\Source\BasicMathFunctions/arm_abs_f32.c ****     }
 109:.\DSP\Source\BasicMathFunctions/arm_abs_f32.c **** 
 110:.\DSP\Source\BasicMathFunctions/arm_abs_f32.c **** }
 111:.\DSP\Source\BasicMathFunctions/arm_abs_f32.c **** 
 112:.\DSP\Source\BasicMathFunctions/arm_abs_f32.c **** #else
 113:.\DSP\Source\BasicMathFunctions/arm_abs_f32.c **** void arm_abs_f32(
 114:.\DSP\Source\BasicMathFunctions/arm_abs_f32.c ****   const float32_t * pSrc,
 115:.\DSP\Source\BasicMathFunctions/arm_abs_f32.c ****         float32_t * pDst,
 116:.\DSP\Source\BasicMathFunctions/arm_abs_f32.c ****         uint32_t blockSize)
 117:.\DSP\Source\BasicMathFunctions/arm_abs_f32.c **** {
  27              		.loc 1 117 0
  28              		.cfi_startproc
  29              		@ args = 0, pretend = 0, frame = 0
  30              		@ frame_needed = 0, uses_anonymous_args = 0
  31              		@ link register save eliminated.
  32              	.LVL0:
 118:.\DSP\Source\BasicMathFunctions/arm_abs_f32.c ****         uint32_t blkCnt;                               /* Loop counter */
 119:.\DSP\Source\BasicMathFunctions/arm_abs_f32.c **** 
 120:.\DSP\Source\BasicMathFunctions/arm_abs_f32.c **** #if defined(ARM_MATH_NEON) && !defined(ARM_MATH_AUTOVECTORIZE)
 121:.\DSP\Source\BasicMathFunctions/arm_abs_f32.c ****     f32x4_t vec1;
 122:.\DSP\Source\BasicMathFunctions/arm_abs_f32.c ****     f32x4_t res;
 123:.\DSP\Source\BasicMathFunctions/arm_abs_f32.c **** 
 124:.\DSP\Source\BasicMathFunctions/arm_abs_f32.c ****     /* Compute 4 outputs at a time */
 125:.\DSP\Source\BasicMathFunctions/arm_abs_f32.c ****     blkCnt = blockSize >> 2U;
 126:.\DSP\Source\BasicMathFunctions/arm_abs_f32.c **** 
 127:.\DSP\Source\BasicMathFunctions/arm_abs_f32.c ****     while (blkCnt > 0U)
 128:.\DSP\Source\BasicMathFunctions/arm_abs_f32.c ****     {
 129:.\DSP\Source\BasicMathFunctions/arm_abs_f32.c ****         /* C = |A| */
 130:.\DSP\Source\BasicMathFunctions/arm_abs_f32.c **** 
 131:.\DSP\Source\BasicMathFunctions/arm_abs_f32.c ****     	/* Calculate absolute values and then store the results in the destination buffer. */
 132:.\DSP\Source\BasicMathFunctions/arm_abs_f32.c ****         vec1 = vld1q_f32(pSrc);
 133:.\DSP\Source\BasicMathFunctions/arm_abs_f32.c ****         res = vabsq_f32(vec1);
 134:.\DSP\Source\BasicMathFunctions/arm_abs_f32.c ****         vst1q_f32(pDst, res);
 135:.\DSP\Source\BasicMathFunctions/arm_abs_f32.c **** 
 136:.\DSP\Source\BasicMathFunctions/arm_abs_f32.c ****         /* Increment pointers */
 137:.\DSP\Source\BasicMathFunctions/arm_abs_f32.c ****         pSrc += 4;
 138:.\DSP\Source\BasicMathFunctions/arm_abs_f32.c ****         pDst += 4;
 139:.\DSP\Source\BasicMathFunctions/arm_abs_f32.c ****         
ARM GAS  C:\Users\IVYLIU~1\AppData\Local\Temp\cc7gzL6d.s 			page 4


 140:.\DSP\Source\BasicMathFunctions/arm_abs_f32.c ****         /* Decrement the loop counter */
 141:.\DSP\Source\BasicMathFunctions/arm_abs_f32.c ****         blkCnt--;
 142:.\DSP\Source\BasicMathFunctions/arm_abs_f32.c ****     }
 143:.\DSP\Source\BasicMathFunctions/arm_abs_f32.c **** 
 144:.\DSP\Source\BasicMathFunctions/arm_abs_f32.c ****     /* Tail */
 145:.\DSP\Source\BasicMathFunctions/arm_abs_f32.c ****     blkCnt = blockSize & 0x3;
 146:.\DSP\Source\BasicMathFunctions/arm_abs_f32.c **** 
 147:.\DSP\Source\BasicMathFunctions/arm_abs_f32.c **** #else
 148:.\DSP\Source\BasicMathFunctions/arm_abs_f32.c **** #if defined (ARM_MATH_LOOPUNROLL) && !defined(ARM_MATH_AUTOVECTORIZE)
 149:.\DSP\Source\BasicMathFunctions/arm_abs_f32.c **** 
 150:.\DSP\Source\BasicMathFunctions/arm_abs_f32.c ****   /* Loop unrolling: Compute 4 outputs at a time */
 151:.\DSP\Source\BasicMathFunctions/arm_abs_f32.c ****   blkCnt = blockSize >> 2U;
 152:.\DSP\Source\BasicMathFunctions/arm_abs_f32.c **** 
 153:.\DSP\Source\BasicMathFunctions/arm_abs_f32.c ****   while (blkCnt > 0U)
 154:.\DSP\Source\BasicMathFunctions/arm_abs_f32.c ****   {
 155:.\DSP\Source\BasicMathFunctions/arm_abs_f32.c ****     /* C = |A| */
 156:.\DSP\Source\BasicMathFunctions/arm_abs_f32.c **** 
 157:.\DSP\Source\BasicMathFunctions/arm_abs_f32.c ****     /* Calculate absolute and store result in destination buffer. */
 158:.\DSP\Source\BasicMathFunctions/arm_abs_f32.c ****     *pDst++ = fabsf(*pSrc++);
 159:.\DSP\Source\BasicMathFunctions/arm_abs_f32.c **** 
 160:.\DSP\Source\BasicMathFunctions/arm_abs_f32.c ****     *pDst++ = fabsf(*pSrc++);
 161:.\DSP\Source\BasicMathFunctions/arm_abs_f32.c **** 
 162:.\DSP\Source\BasicMathFunctions/arm_abs_f32.c ****     *pDst++ = fabsf(*pSrc++);
 163:.\DSP\Source\BasicMathFunctions/arm_abs_f32.c **** 
 164:.\DSP\Source\BasicMathFunctions/arm_abs_f32.c ****     *pDst++ = fabsf(*pSrc++);
 165:.\DSP\Source\BasicMathFunctions/arm_abs_f32.c **** 
 166:.\DSP\Source\BasicMathFunctions/arm_abs_f32.c ****     /* Decrement loop counter */
 167:.\DSP\Source\BasicMathFunctions/arm_abs_f32.c ****     blkCnt--;
 168:.\DSP\Source\BasicMathFunctions/arm_abs_f32.c ****   }
 169:.\DSP\Source\BasicMathFunctions/arm_abs_f32.c **** 
 170:.\DSP\Source\BasicMathFunctions/arm_abs_f32.c ****   /* Loop unrolling: Compute remaining outputs */
 171:.\DSP\Source\BasicMathFunctions/arm_abs_f32.c ****   blkCnt = blockSize % 0x4U;
 172:.\DSP\Source\BasicMathFunctions/arm_abs_f32.c **** 
 173:.\DSP\Source\BasicMathFunctions/arm_abs_f32.c **** #else
 174:.\DSP\Source\BasicMathFunctions/arm_abs_f32.c **** 
 175:.\DSP\Source\BasicMathFunctions/arm_abs_f32.c ****   /* Initialize blkCnt with number of samples */
 176:.\DSP\Source\BasicMathFunctions/arm_abs_f32.c ****   blkCnt = blockSize;
 177:.\DSP\Source\BasicMathFunctions/arm_abs_f32.c **** 
 178:.\DSP\Source\BasicMathFunctions/arm_abs_f32.c **** #endif /* #if defined (ARM_MATH_LOOPUNROLL) */
 179:.\DSP\Source\BasicMathFunctions/arm_abs_f32.c **** #endif /* #if defined(ARM_MATH_NEON) */
 180:.\DSP\Source\BasicMathFunctions/arm_abs_f32.c **** 
 181:.\DSP\Source\BasicMathFunctions/arm_abs_f32.c ****   while (blkCnt > 0U)
  33              		.loc 1 181 0
  34 0000 06E0     		b	.L2
  35              	.LVL1:
  36              	.L3:
 182:.\DSP\Source\BasicMathFunctions/arm_abs_f32.c ****   {
 183:.\DSP\Source\BasicMathFunctions/arm_abs_f32.c ****     /* C = |A| */
 184:.\DSP\Source\BasicMathFunctions/arm_abs_f32.c **** 
 185:.\DSP\Source\BasicMathFunctions/arm_abs_f32.c ****     /* Calculate absolute and store result in destination buffer. */
 186:.\DSP\Source\BasicMathFunctions/arm_abs_f32.c ****     *pDst++ = fabsf(*pSrc++);
  37              		.loc 1 186 0
  38 0002 0368     		ldr	r3, [r0]
  39 0004 23F00043 		bic	r3, r3, #-2147483648
  40 0008 0B60     		str	r3, [r1]	@ float
 187:.\DSP\Source\BasicMathFunctions/arm_abs_f32.c **** 
 188:.\DSP\Source\BasicMathFunctions/arm_abs_f32.c ****     /* Decrement loop counter */
ARM GAS  C:\Users\IVYLIU~1\AppData\Local\Temp\cc7gzL6d.s 			page 5


 189:.\DSP\Source\BasicMathFunctions/arm_abs_f32.c ****     blkCnt--;
  41              		.loc 1 189 0
  42 000a 013A     		subs	r2, r2, #1
  43              	.LVL2:
 186:.\DSP\Source\BasicMathFunctions/arm_abs_f32.c **** 
  44              		.loc 1 186 0
  45 000c 0431     		adds	r1, r1, #4
  46              	.LVL3:
  47 000e 0430     		adds	r0, r0, #4
  48              	.LVL4:
  49              	.L2:
 181:.\DSP\Source\BasicMathFunctions/arm_abs_f32.c ****   {
  50              		.loc 1 181 0
  51 0010 002A     		cmp	r2, #0
  52 0012 F6D1     		bne	.L3
 190:.\DSP\Source\BasicMathFunctions/arm_abs_f32.c ****   }
 191:.\DSP\Source\BasicMathFunctions/arm_abs_f32.c **** 
 192:.\DSP\Source\BasicMathFunctions/arm_abs_f32.c **** }
  53              		.loc 1 192 0
  54 0014 7047     		bx	lr
  55              		.cfi_endproc
  56              	.LFE83:
  57              		.size	arm_abs_f32, .-arm_abs_f32
  58 0016 00BF     		.section	.text.arm_abs_f64,"ax",%progbits
  59              		.align	2
  60              		.global	arm_abs_f64
  61              		.thumb
  62              		.thumb_func
  63              		.type	arm_abs_f64, %function
  64              	arm_abs_f64:
  65              	.LFB84:
  66              		.file 2 ".\\DSP\\Source\\BasicMathFunctions\\arm_abs_f64.c"
   1:.\DSP\Source\BasicMathFunctions/arm_abs_f64.c **** /* ----------------------------------------------------------------------
   2:.\DSP\Source\BasicMathFunctions/arm_abs_f64.c ****  * Project:      CMSIS DSP Library
   3:.\DSP\Source\BasicMathFunctions/arm_abs_f64.c ****  * Title:        arm_abs_f64.c
   4:.\DSP\Source\BasicMathFunctions/arm_abs_f64.c ****  * Description:  Floating-point vector absolute value
   5:.\DSP\Source\BasicMathFunctions/arm_abs_f64.c ****  *
   6:.\DSP\Source\BasicMathFunctions/arm_abs_f64.c ****  * $Date:        13 September 2021
   7:.\DSP\Source\BasicMathFunctions/arm_abs_f64.c ****  * $Revision:    V1.10.0
   8:.\DSP\Source\BasicMathFunctions/arm_abs_f64.c ****  *
   9:.\DSP\Source\BasicMathFunctions/arm_abs_f64.c ****  * Target Processor: Cortex-M and Cortex-A cores
  10:.\DSP\Source\BasicMathFunctions/arm_abs_f64.c ****  * -------------------------------------------------------------------- */
  11:.\DSP\Source\BasicMathFunctions/arm_abs_f64.c **** /*
  12:.\DSP\Source\BasicMathFunctions/arm_abs_f64.c ****  * Copyright (C) 2010-2021 ARM Limited or its affiliates. All rights reserved.
  13:.\DSP\Source\BasicMathFunctions/arm_abs_f64.c ****  *
  14:.\DSP\Source\BasicMathFunctions/arm_abs_f64.c ****  * SPDX-License-Identifier: Apache-2.0
  15:.\DSP\Source\BasicMathFunctions/arm_abs_f64.c ****  *
  16:.\DSP\Source\BasicMathFunctions/arm_abs_f64.c ****  * Licensed under the Apache License, Version 2.0 (the License); you may
  17:.\DSP\Source\BasicMathFunctions/arm_abs_f64.c ****  * not use this file except in compliance with the License.
  18:.\DSP\Source\BasicMathFunctions/arm_abs_f64.c ****  * You may obtain a copy of the License at
  19:.\DSP\Source\BasicMathFunctions/arm_abs_f64.c ****  *
  20:.\DSP\Source\BasicMathFunctions/arm_abs_f64.c ****  * www.apache.org/licenses/LICENSE-2.0
  21:.\DSP\Source\BasicMathFunctions/arm_abs_f64.c ****  *
  22:.\DSP\Source\BasicMathFunctions/arm_abs_f64.c ****  * Unless required by applicable law or agreed to in writing, software
  23:.\DSP\Source\BasicMathFunctions/arm_abs_f64.c ****  * distributed under the License is distributed on an AS IS BASIS, WITHOUT
  24:.\DSP\Source\BasicMathFunctions/arm_abs_f64.c ****  * WARRANTIES OR CONDITIONS OF ANY KIND, either express or implied.
  25:.\DSP\Source\BasicMathFunctions/arm_abs_f64.c ****  * See the License for the specific language governing permissions and
ARM GAS  C:\Users\IVYLIU~1\AppData\Local\Temp\cc7gzL6d.s 			page 6


  26:.\DSP\Source\BasicMathFunctions/arm_abs_f64.c ****  * limitations under the License.
  27:.\DSP\Source\BasicMathFunctions/arm_abs_f64.c ****  */
  28:.\DSP\Source\BasicMathFunctions/arm_abs_f64.c **** 
  29:.\DSP\Source\BasicMathFunctions/arm_abs_f64.c **** #include "dsp/basic_math_functions.h"
  30:.\DSP\Source\BasicMathFunctions/arm_abs_f64.c **** #include <math.h>
  31:.\DSP\Source\BasicMathFunctions/arm_abs_f64.c **** 
  32:.\DSP\Source\BasicMathFunctions/arm_abs_f64.c **** /**
  33:.\DSP\Source\BasicMathFunctions/arm_abs_f64.c ****   @ingroup groupMath
  34:.\DSP\Source\BasicMathFunctions/arm_abs_f64.c ****  */
  35:.\DSP\Source\BasicMathFunctions/arm_abs_f64.c **** 
  36:.\DSP\Source\BasicMathFunctions/arm_abs_f64.c **** /**
  37:.\DSP\Source\BasicMathFunctions/arm_abs_f64.c ****   @addtogroup BasicAbs
  38:.\DSP\Source\BasicMathFunctions/arm_abs_f64.c ****   @{
  39:.\DSP\Source\BasicMathFunctions/arm_abs_f64.c ****  */
  40:.\DSP\Source\BasicMathFunctions/arm_abs_f64.c **** 
  41:.\DSP\Source\BasicMathFunctions/arm_abs_f64.c **** /**
  42:.\DSP\Source\BasicMathFunctions/arm_abs_f64.c ****   @brief         Floating-point vector absolute value.
  43:.\DSP\Source\BasicMathFunctions/arm_abs_f64.c ****   @param[in]     pSrc       points to the input vector
  44:.\DSP\Source\BasicMathFunctions/arm_abs_f64.c ****   @param[out]    pDst       points to the output vector
  45:.\DSP\Source\BasicMathFunctions/arm_abs_f64.c ****   @param[in]     blockSize  number of samples in each vector
  46:.\DSP\Source\BasicMathFunctions/arm_abs_f64.c ****   @return        none
  47:.\DSP\Source\BasicMathFunctions/arm_abs_f64.c ****  */
  48:.\DSP\Source\BasicMathFunctions/arm_abs_f64.c **** 
  49:.\DSP\Source\BasicMathFunctions/arm_abs_f64.c **** void arm_abs_f64(
  50:.\DSP\Source\BasicMathFunctions/arm_abs_f64.c ****   const float64_t * pSrc,
  51:.\DSP\Source\BasicMathFunctions/arm_abs_f64.c ****         float64_t * pDst,
  52:.\DSP\Source\BasicMathFunctions/arm_abs_f64.c ****         uint32_t blockSize)
  53:.\DSP\Source\BasicMathFunctions/arm_abs_f64.c **** {
  67              		.loc 2 53 0
  68              		.cfi_startproc
  69              		@ args = 0, pretend = 0, frame = 0
  70              		@ frame_needed = 0, uses_anonymous_args = 0
  71              		@ link register save eliminated.
  72              	.LVL5:
  73 0000 30B4     		push	{r4, r5}
  74              		.cfi_def_cfa_offset 8
  75              		.cfi_offset 4, -8
  76              		.cfi_offset 5, -4
  77              	.LVL6:
  54:.\DSP\Source\BasicMathFunctions/arm_abs_f64.c ****   uint32_t blkCnt;                               /* Loop counter */
  55:.\DSP\Source\BasicMathFunctions/arm_abs_f64.c **** 
  56:.\DSP\Source\BasicMathFunctions/arm_abs_f64.c ****   /* Initialize blkCnt with number of samples */
  57:.\DSP\Source\BasicMathFunctions/arm_abs_f64.c ****   blkCnt = blockSize;
  58:.\DSP\Source\BasicMathFunctions/arm_abs_f64.c **** 
  59:.\DSP\Source\BasicMathFunctions/arm_abs_f64.c ****   while (blkCnt > 0U)
  78              		.loc 2 59 0
  79 0002 08E0     		b	.L5
  80              	.LVL7:
  81              	.L6:
  60:.\DSP\Source\BasicMathFunctions/arm_abs_f64.c ****   {
  61:.\DSP\Source\BasicMathFunctions/arm_abs_f64.c ****     /* C = |A| */
  62:.\DSP\Source\BasicMathFunctions/arm_abs_f64.c **** 
  63:.\DSP\Source\BasicMathFunctions/arm_abs_f64.c ****     /* Calculate absolute and store result in destination buffer. */
  64:.\DSP\Source\BasicMathFunctions/arm_abs_f64.c ****     *pDst++ = fabs(*pSrc++);
  82              		.loc 2 64 0
  83 0004 4368     		ldr	r3, [r0, #4]
  84 0006 0468     		ldr	r4, [r0]
ARM GAS  C:\Users\IVYLIU~1\AppData\Local\Temp\cc7gzL6d.s 			page 7


  85 0008 23F00045 		bic	r5, r3, #-2147483648
  86 000c C1E90045 		strd	r4, [r1]
  65:.\DSP\Source\BasicMathFunctions/arm_abs_f64.c **** 
  66:.\DSP\Source\BasicMathFunctions/arm_abs_f64.c ****     /* Decrement loop counter */
  67:.\DSP\Source\BasicMathFunctions/arm_abs_f64.c ****     blkCnt--;
  87              		.loc 2 67 0
  88 0010 013A     		subs	r2, r2, #1
  89              	.LVL8:
  64:.\DSP\Source\BasicMathFunctions/arm_abs_f64.c **** 
  90              		.loc 2 64 0
  91 0012 0831     		adds	r1, r1, #8
  92              	.LVL9:
  93 0014 0830     		adds	r0, r0, #8
  94              	.LVL10:
  95              	.L5:
  59:.\DSP\Source\BasicMathFunctions/arm_abs_f64.c ****   {
  96              		.loc 2 59 0
  97 0016 002A     		cmp	r2, #0
  98 0018 F4D1     		bne	.L6
  68:.\DSP\Source\BasicMathFunctions/arm_abs_f64.c ****   }
  69:.\DSP\Source\BasicMathFunctions/arm_abs_f64.c **** 
  70:.\DSP\Source\BasicMathFunctions/arm_abs_f64.c **** }
  99              		.loc 2 70 0
 100 001a 30BC     		pop	{r4, r5}
 101              		.cfi_restore 5
 102              		.cfi_restore 4
 103              		.cfi_def_cfa_offset 0
 104 001c 7047     		bx	lr
 105              		.cfi_endproc
 106              	.LFE84:
 107              		.size	arm_abs_f64, .-arm_abs_f64
 108 001e 00BF     		.section	.text.arm_abs_q15,"ax",%progbits
 109              		.align	2
 110              		.global	arm_abs_q15
 111              		.thumb
 112              		.thumb_func
 113              		.type	arm_abs_q15, %function
 114              	arm_abs_q15:
 115              	.LFB85:
 116              		.file 3 ".\\DSP\\Source\\BasicMathFunctions\\arm_abs_q15.c"
   1:.\DSP\Source\BasicMathFunctions/arm_abs_q15.c **** /* ----------------------------------------------------------------------
   2:.\DSP\Source\BasicMathFunctions/arm_abs_q15.c ****  * Project:      CMSIS DSP Library
   3:.\DSP\Source\BasicMathFunctions/arm_abs_q15.c ****  * Title:        arm_abs_q15.c
   4:.\DSP\Source\BasicMathFunctions/arm_abs_q15.c ****  * Description:  Q15 vector absolute value
   5:.\DSP\Source\BasicMathFunctions/arm_abs_q15.c ****  *
   6:.\DSP\Source\BasicMathFunctions/arm_abs_q15.c ****  * $Date:        23 April 2021
   7:.\DSP\Source\BasicMathFunctions/arm_abs_q15.c ****  * $Revision:    V1.9.0
   8:.\DSP\Source\BasicMathFunctions/arm_abs_q15.c ****  *
   9:.\DSP\Source\BasicMathFunctions/arm_abs_q15.c ****  * Target Processor: Cortex-M and Cortex-A cores
  10:.\DSP\Source\BasicMathFunctions/arm_abs_q15.c ****  * -------------------------------------------------------------------- */
  11:.\DSP\Source\BasicMathFunctions/arm_abs_q15.c **** /*
  12:.\DSP\Source\BasicMathFunctions/arm_abs_q15.c ****  * Copyright (C) 2010-2021 ARM Limited or its affiliates. All rights reserved.
  13:.\DSP\Source\BasicMathFunctions/arm_abs_q15.c ****  *
  14:.\DSP\Source\BasicMathFunctions/arm_abs_q15.c ****  * SPDX-License-Identifier: Apache-2.0
  15:.\DSP\Source\BasicMathFunctions/arm_abs_q15.c ****  *
  16:.\DSP\Source\BasicMathFunctions/arm_abs_q15.c ****  * Licensed under the Apache License, Version 2.0 (the License); you may
  17:.\DSP\Source\BasicMathFunctions/arm_abs_q15.c ****  * not use this file except in compliance with the License.
ARM GAS  C:\Users\IVYLIU~1\AppData\Local\Temp\cc7gzL6d.s 			page 8


  18:.\DSP\Source\BasicMathFunctions/arm_abs_q15.c ****  * You may obtain a copy of the License at
  19:.\DSP\Source\BasicMathFunctions/arm_abs_q15.c ****  *
  20:.\DSP\Source\BasicMathFunctions/arm_abs_q15.c ****  * www.apache.org/licenses/LICENSE-2.0
  21:.\DSP\Source\BasicMathFunctions/arm_abs_q15.c ****  *
  22:.\DSP\Source\BasicMathFunctions/arm_abs_q15.c ****  * Unless required by applicable law or agreed to in writing, software
  23:.\DSP\Source\BasicMathFunctions/arm_abs_q15.c ****  * distributed under the License is distributed on an AS IS BASIS, WITHOUT
  24:.\DSP\Source\BasicMathFunctions/arm_abs_q15.c ****  * WARRANTIES OR CONDITIONS OF ANY KIND, either express or implied.
  25:.\DSP\Source\BasicMathFunctions/arm_abs_q15.c ****  * See the License for the specific language governing permissions and
  26:.\DSP\Source\BasicMathFunctions/arm_abs_q15.c ****  * limitations under the License.
  27:.\DSP\Source\BasicMathFunctions/arm_abs_q15.c ****  */
  28:.\DSP\Source\BasicMathFunctions/arm_abs_q15.c **** 
  29:.\DSP\Source\BasicMathFunctions/arm_abs_q15.c **** #include "dsp/basic_math_functions.h"
  30:.\DSP\Source\BasicMathFunctions/arm_abs_q15.c **** 
  31:.\DSP\Source\BasicMathFunctions/arm_abs_q15.c **** /**
  32:.\DSP\Source\BasicMathFunctions/arm_abs_q15.c ****   @ingroup groupMath
  33:.\DSP\Source\BasicMathFunctions/arm_abs_q15.c ****  */
  34:.\DSP\Source\BasicMathFunctions/arm_abs_q15.c **** 
  35:.\DSP\Source\BasicMathFunctions/arm_abs_q15.c **** /**
  36:.\DSP\Source\BasicMathFunctions/arm_abs_q15.c ****   @addtogroup BasicAbs
  37:.\DSP\Source\BasicMathFunctions/arm_abs_q15.c ****   @{
  38:.\DSP\Source\BasicMathFunctions/arm_abs_q15.c ****  */
  39:.\DSP\Source\BasicMathFunctions/arm_abs_q15.c **** 
  40:.\DSP\Source\BasicMathFunctions/arm_abs_q15.c **** /**
  41:.\DSP\Source\BasicMathFunctions/arm_abs_q15.c ****   @brief         Q15 vector absolute value.
  42:.\DSP\Source\BasicMathFunctions/arm_abs_q15.c ****   @param[in]     pSrc       points to the input vector
  43:.\DSP\Source\BasicMathFunctions/arm_abs_q15.c ****   @param[out]    pDst       points to the output vector
  44:.\DSP\Source\BasicMathFunctions/arm_abs_q15.c ****   @param[in]     blockSize  number of samples in each vector
  45:.\DSP\Source\BasicMathFunctions/arm_abs_q15.c ****   @return        none
  46:.\DSP\Source\BasicMathFunctions/arm_abs_q15.c **** 
  47:.\DSP\Source\BasicMathFunctions/arm_abs_q15.c ****   @par           Scaling and Overflow Behavior
  48:.\DSP\Source\BasicMathFunctions/arm_abs_q15.c ****                    The function uses saturating arithmetic.
  49:.\DSP\Source\BasicMathFunctions/arm_abs_q15.c ****                    The Q15 value -1 (0x8000) will be saturated to the maximum allowable positive va
  50:.\DSP\Source\BasicMathFunctions/arm_abs_q15.c ****  */
  51:.\DSP\Source\BasicMathFunctions/arm_abs_q15.c **** 
  52:.\DSP\Source\BasicMathFunctions/arm_abs_q15.c **** #if defined(ARM_MATH_MVEI) && !defined(ARM_MATH_AUTOVECTORIZE)
  53:.\DSP\Source\BasicMathFunctions/arm_abs_q15.c **** 
  54:.\DSP\Source\BasicMathFunctions/arm_abs_q15.c **** #include "arm_helium_utils.h"
  55:.\DSP\Source\BasicMathFunctions/arm_abs_q15.c **** 
  56:.\DSP\Source\BasicMathFunctions/arm_abs_q15.c **** void arm_abs_q15(
  57:.\DSP\Source\BasicMathFunctions/arm_abs_q15.c ****     const q15_t * pSrc,
  58:.\DSP\Source\BasicMathFunctions/arm_abs_q15.c ****     q15_t * pDst,
  59:.\DSP\Source\BasicMathFunctions/arm_abs_q15.c ****     uint32_t blockSize)
  60:.\DSP\Source\BasicMathFunctions/arm_abs_q15.c **** {
  61:.\DSP\Source\BasicMathFunctions/arm_abs_q15.c ****     uint32_t  blkCnt;           /* loop counters */
  62:.\DSP\Source\BasicMathFunctions/arm_abs_q15.c ****     q15x8_t vecSrc;
  63:.\DSP\Source\BasicMathFunctions/arm_abs_q15.c **** 
  64:.\DSP\Source\BasicMathFunctions/arm_abs_q15.c ****     /* Compute 8 outputs at a time */
  65:.\DSP\Source\BasicMathFunctions/arm_abs_q15.c ****     blkCnt = blockSize >> 3;
  66:.\DSP\Source\BasicMathFunctions/arm_abs_q15.c ****     while (blkCnt > 0U)
  67:.\DSP\Source\BasicMathFunctions/arm_abs_q15.c ****     {
  68:.\DSP\Source\BasicMathFunctions/arm_abs_q15.c ****         /*
  69:.\DSP\Source\BasicMathFunctions/arm_abs_q15.c ****          * C = |A|
  70:.\DSP\Source\BasicMathFunctions/arm_abs_q15.c ****          * Calculate absolute and then store the results in the destination buffer.
  71:.\DSP\Source\BasicMathFunctions/arm_abs_q15.c ****          */
  72:.\DSP\Source\BasicMathFunctions/arm_abs_q15.c ****         vecSrc = vld1q(pSrc);
  73:.\DSP\Source\BasicMathFunctions/arm_abs_q15.c ****         vst1q(pDst, vqabsq(vecSrc));
  74:.\DSP\Source\BasicMathFunctions/arm_abs_q15.c ****         /*
ARM GAS  C:\Users\IVYLIU~1\AppData\Local\Temp\cc7gzL6d.s 			page 9


  75:.\DSP\Source\BasicMathFunctions/arm_abs_q15.c ****          * Decrement the blockSize loop counter
  76:.\DSP\Source\BasicMathFunctions/arm_abs_q15.c ****          */
  77:.\DSP\Source\BasicMathFunctions/arm_abs_q15.c ****         blkCnt--;
  78:.\DSP\Source\BasicMathFunctions/arm_abs_q15.c ****         /*
  79:.\DSP\Source\BasicMathFunctions/arm_abs_q15.c ****          * advance vector source and destination pointers
  80:.\DSP\Source\BasicMathFunctions/arm_abs_q15.c ****          */
  81:.\DSP\Source\BasicMathFunctions/arm_abs_q15.c ****         pSrc += 8;
  82:.\DSP\Source\BasicMathFunctions/arm_abs_q15.c ****         pDst += 8;
  83:.\DSP\Source\BasicMathFunctions/arm_abs_q15.c ****     }
  84:.\DSP\Source\BasicMathFunctions/arm_abs_q15.c ****     /*
  85:.\DSP\Source\BasicMathFunctions/arm_abs_q15.c ****      * tail
  86:.\DSP\Source\BasicMathFunctions/arm_abs_q15.c ****      */
  87:.\DSP\Source\BasicMathFunctions/arm_abs_q15.c ****     blkCnt = blockSize & 7;
  88:.\DSP\Source\BasicMathFunctions/arm_abs_q15.c ****     if (blkCnt > 0U)
  89:.\DSP\Source\BasicMathFunctions/arm_abs_q15.c ****     {
  90:.\DSP\Source\BasicMathFunctions/arm_abs_q15.c ****         mve_pred16_t p0 = vctp16q(blkCnt);
  91:.\DSP\Source\BasicMathFunctions/arm_abs_q15.c ****         vecSrc = vld1q(pSrc);
  92:.\DSP\Source\BasicMathFunctions/arm_abs_q15.c ****         vstrhq_p(pDst, vqabsq(vecSrc), p0);
  93:.\DSP\Source\BasicMathFunctions/arm_abs_q15.c ****     }
  94:.\DSP\Source\BasicMathFunctions/arm_abs_q15.c **** }
  95:.\DSP\Source\BasicMathFunctions/arm_abs_q15.c **** 
  96:.\DSP\Source\BasicMathFunctions/arm_abs_q15.c **** #else
  97:.\DSP\Source\BasicMathFunctions/arm_abs_q15.c **** void arm_abs_q15(
  98:.\DSP\Source\BasicMathFunctions/arm_abs_q15.c ****   const q15_t * pSrc,
  99:.\DSP\Source\BasicMathFunctions/arm_abs_q15.c ****         q15_t * pDst,
 100:.\DSP\Source\BasicMathFunctions/arm_abs_q15.c ****         uint32_t blockSize)
 101:.\DSP\Source\BasicMathFunctions/arm_abs_q15.c **** {
 117              		.loc 3 101 0
 118              		.cfi_startproc
 119              		@ args = 0, pretend = 0, frame = 0
 120              		@ frame_needed = 0, uses_anonymous_args = 0
 121              		@ link register save eliminated.
 122              	.LVL11:
 123 0000 30B4     		push	{r4, r5}
 124              		.cfi_def_cfa_offset 8
 125              		.cfi_offset 4, -8
 126              		.cfi_offset 5, -4
 127              	.LVL12:
 102:.\DSP\Source\BasicMathFunctions/arm_abs_q15.c ****         uint32_t blkCnt;                               /* Loop counter */
 103:.\DSP\Source\BasicMathFunctions/arm_abs_q15.c ****         q15_t in;                                      /* Temporary input variable */
 104:.\DSP\Source\BasicMathFunctions/arm_abs_q15.c **** 
 105:.\DSP\Source\BasicMathFunctions/arm_abs_q15.c **** #if defined (ARM_MATH_LOOPUNROLL)
 106:.\DSP\Source\BasicMathFunctions/arm_abs_q15.c **** 
 107:.\DSP\Source\BasicMathFunctions/arm_abs_q15.c ****   /* Loop unrolling: Compute 4 outputs at a time */
 108:.\DSP\Source\BasicMathFunctions/arm_abs_q15.c ****   blkCnt = blockSize >> 2U;
 109:.\DSP\Source\BasicMathFunctions/arm_abs_q15.c **** 
 110:.\DSP\Source\BasicMathFunctions/arm_abs_q15.c ****   while (blkCnt > 0U)
 111:.\DSP\Source\BasicMathFunctions/arm_abs_q15.c ****   {
 112:.\DSP\Source\BasicMathFunctions/arm_abs_q15.c ****     /* C = |A| */
 113:.\DSP\Source\BasicMathFunctions/arm_abs_q15.c **** 
 114:.\DSP\Source\BasicMathFunctions/arm_abs_q15.c ****     /* Calculate absolute of input (if -1 then saturated to 0x7fff) and store result in destination
 115:.\DSP\Source\BasicMathFunctions/arm_abs_q15.c ****     in = *pSrc++;
 116:.\DSP\Source\BasicMathFunctions/arm_abs_q15.c **** #if defined (ARM_MATH_DSP)
 117:.\DSP\Source\BasicMathFunctions/arm_abs_q15.c ****     *pDst++ = (in > 0) ? in : (q15_t)__QSUB16(0, in);
 118:.\DSP\Source\BasicMathFunctions/arm_abs_q15.c **** #else
 119:.\DSP\Source\BasicMathFunctions/arm_abs_q15.c ****     *pDst++ = (in > 0) ? in : ((in == (q15_t) 0x8000) ? 0x7fff : -in);
 120:.\DSP\Source\BasicMathFunctions/arm_abs_q15.c **** #endif
ARM GAS  C:\Users\IVYLIU~1\AppData\Local\Temp\cc7gzL6d.s 			page 10


 121:.\DSP\Source\BasicMathFunctions/arm_abs_q15.c **** 
 122:.\DSP\Source\BasicMathFunctions/arm_abs_q15.c ****     in = *pSrc++;
 123:.\DSP\Source\BasicMathFunctions/arm_abs_q15.c **** #if defined (ARM_MATH_DSP)
 124:.\DSP\Source\BasicMathFunctions/arm_abs_q15.c ****     *pDst++ = (in > 0) ? in : (q15_t)__QSUB16(0, in);
 125:.\DSP\Source\BasicMathFunctions/arm_abs_q15.c **** #else
 126:.\DSP\Source\BasicMathFunctions/arm_abs_q15.c ****     *pDst++ = (in > 0) ? in : ((in == (q15_t) 0x8000) ? 0x7fff : -in);
 127:.\DSP\Source\BasicMathFunctions/arm_abs_q15.c **** #endif
 128:.\DSP\Source\BasicMathFunctions/arm_abs_q15.c **** 
 129:.\DSP\Source\BasicMathFunctions/arm_abs_q15.c ****     in = *pSrc++;
 130:.\DSP\Source\BasicMathFunctions/arm_abs_q15.c **** #if defined (ARM_MATH_DSP)
 131:.\DSP\Source\BasicMathFunctions/arm_abs_q15.c ****     *pDst++ = (in > 0) ? in : (q15_t)__QSUB16(0, in);
 132:.\DSP\Source\BasicMathFunctions/arm_abs_q15.c **** #else
 133:.\DSP\Source\BasicMathFunctions/arm_abs_q15.c ****     *pDst++ = (in > 0) ? in : ((in == (q15_t) 0x8000) ? 0x7fff : -in);
 134:.\DSP\Source\BasicMathFunctions/arm_abs_q15.c **** #endif
 135:.\DSP\Source\BasicMathFunctions/arm_abs_q15.c **** 
 136:.\DSP\Source\BasicMathFunctions/arm_abs_q15.c ****     in = *pSrc++;
 137:.\DSP\Source\BasicMathFunctions/arm_abs_q15.c **** #if defined (ARM_MATH_DSP)
 138:.\DSP\Source\BasicMathFunctions/arm_abs_q15.c ****     *pDst++ = (in > 0) ? in : (q15_t)__QSUB16(0, in);
 139:.\DSP\Source\BasicMathFunctions/arm_abs_q15.c **** #else
 140:.\DSP\Source\BasicMathFunctions/arm_abs_q15.c ****     *pDst++ = (in > 0) ? in : ((in == (q15_t) 0x8000) ? 0x7fff : -in);
 141:.\DSP\Source\BasicMathFunctions/arm_abs_q15.c **** #endif
 142:.\DSP\Source\BasicMathFunctions/arm_abs_q15.c **** 
 143:.\DSP\Source\BasicMathFunctions/arm_abs_q15.c ****     /* Decrement loop counter */
 144:.\DSP\Source\BasicMathFunctions/arm_abs_q15.c ****     blkCnt--;
 145:.\DSP\Source\BasicMathFunctions/arm_abs_q15.c ****   }
 146:.\DSP\Source\BasicMathFunctions/arm_abs_q15.c **** 
 147:.\DSP\Source\BasicMathFunctions/arm_abs_q15.c ****   /* Loop unrolling: Compute remaining outputs */
 148:.\DSP\Source\BasicMathFunctions/arm_abs_q15.c ****   blkCnt = blockSize % 0x4U;
 149:.\DSP\Source\BasicMathFunctions/arm_abs_q15.c **** 
 150:.\DSP\Source\BasicMathFunctions/arm_abs_q15.c **** #else
 151:.\DSP\Source\BasicMathFunctions/arm_abs_q15.c **** 
 152:.\DSP\Source\BasicMathFunctions/arm_abs_q15.c ****   /* Initialize blkCnt with number of samples */
 153:.\DSP\Source\BasicMathFunctions/arm_abs_q15.c ****   blkCnt = blockSize;
 154:.\DSP\Source\BasicMathFunctions/arm_abs_q15.c **** 
 155:.\DSP\Source\BasicMathFunctions/arm_abs_q15.c **** #endif /* #if defined (ARM_MATH_LOOPUNROLL) */
 156:.\DSP\Source\BasicMathFunctions/arm_abs_q15.c **** 
 157:.\DSP\Source\BasicMathFunctions/arm_abs_q15.c ****   while (blkCnt > 0U)
 128              		.loc 3 157 0
 129 0002 11E0     		b	.L9
 130              	.LVL13:
 131              	.L12:
 158:.\DSP\Source\BasicMathFunctions/arm_abs_q15.c ****   {
 159:.\DSP\Source\BasicMathFunctions/arm_abs_q15.c ****     /* C = |A| */
 160:.\DSP\Source\BasicMathFunctions/arm_abs_q15.c **** 
 161:.\DSP\Source\BasicMathFunctions/arm_abs_q15.c ****     /* Calculate absolute of input (if -1 then saturated to 0x7fff) and store result in destination
 162:.\DSP\Source\BasicMathFunctions/arm_abs_q15.c ****     in = *pSrc++;
 132              		.loc 3 162 0
 133 0004 841C     		adds	r4, r0, #2
 134              	.LVL14:
 135 0006 0388     		ldrh	r3, [r0]
 136              	.LVL15:
 163:.\DSP\Source\BasicMathFunctions/arm_abs_q15.c **** #if defined (ARM_MATH_DSP)
 164:.\DSP\Source\BasicMathFunctions/arm_abs_q15.c ****     *pDst++ = (in > 0) ? in : (q15_t)__QSUB16(0, in);
 165:.\DSP\Source\BasicMathFunctions/arm_abs_q15.c **** #else
 166:.\DSP\Source\BasicMathFunctions/arm_abs_q15.c ****     *pDst++ = (in > 0) ? in : ((in == (q15_t) 0x8000) ? 0x7fff : -in);
 137              		.loc 3 166 0
 138 0008 881C     		adds	r0, r1, #2
ARM GAS  C:\Users\IVYLIU~1\AppData\Local\Temp\cc7gzL6d.s 			page 11


 139              	.LVL16:
 140 000a 1DB2     		sxth	r5, r3
 141 000c 002D     		cmp	r5, #0
 142 000e 07DC     		bgt	.L10
 143              		.loc 3 166 0 is_stmt 0 discriminator 1
 144 0010 15F5004F 		cmn	r5, #32768
 145 0014 02D0     		beq	.L14
 146              		.loc 3 166 0 discriminator 3
 147 0016 5B42     		negs	r3, r3
 148              	.LVL17:
 149 0018 9BB2     		uxth	r3, r3
 150 001a 01E0     		b	.L10
 151              	.LVL18:
 152              	.L14:
 153              		.loc 3 166 0
 154 001c 47F6FF73 		movw	r3, #32767
 155              	.LVL19:
 156              	.L10:
 157              		.loc 3 166 0 discriminator 8
 158 0020 0B80     		strh	r3, [r1]	@ movhi
 167:.\DSP\Source\BasicMathFunctions/arm_abs_q15.c **** #endif
 168:.\DSP\Source\BasicMathFunctions/arm_abs_q15.c **** 
 169:.\DSP\Source\BasicMathFunctions/arm_abs_q15.c ****     /* Decrement loop counter */
 170:.\DSP\Source\BasicMathFunctions/arm_abs_q15.c ****     blkCnt--;
 159              		.loc 3 170 0 is_stmt 1 discriminator 8
 160 0022 013A     		subs	r2, r2, #1
 161              	.LVL20:
 166:.\DSP\Source\BasicMathFunctions/arm_abs_q15.c **** #endif
 162              		.loc 3 166 0 discriminator 8
 163 0024 0146     		mov	r1, r0
 162:.\DSP\Source\BasicMathFunctions/arm_abs_q15.c **** #if defined (ARM_MATH_DSP)
 164              		.loc 3 162 0 discriminator 8
 165 0026 2046     		mov	r0, r4
 166              	.LVL21:
 167              	.L9:
 157:.\DSP\Source\BasicMathFunctions/arm_abs_q15.c ****   {
 168              		.loc 3 157 0
 169 0028 002A     		cmp	r2, #0
 170 002a EBD1     		bne	.L12
 171:.\DSP\Source\BasicMathFunctions/arm_abs_q15.c ****   }
 172:.\DSP\Source\BasicMathFunctions/arm_abs_q15.c **** 
 173:.\DSP\Source\BasicMathFunctions/arm_abs_q15.c **** }
 171              		.loc 3 173 0
 172 002c 30BC     		pop	{r4, r5}
 173              		.cfi_restore 5
 174              		.cfi_restore 4
 175              		.cfi_def_cfa_offset 0
 176 002e 7047     		bx	lr
 177              		.cfi_endproc
 178              	.LFE85:
 179              		.size	arm_abs_q15, .-arm_abs_q15
 180              		.section	.text.arm_abs_q31,"ax",%progbits
 181              		.align	2
 182              		.global	arm_abs_q31
 183              		.thumb
 184              		.thumb_func
 185              		.type	arm_abs_q31, %function
ARM GAS  C:\Users\IVYLIU~1\AppData\Local\Temp\cc7gzL6d.s 			page 12


 186              	arm_abs_q31:
 187              	.LFB86:
 188              		.file 4 ".\\DSP\\Source\\BasicMathFunctions\\arm_abs_q31.c"
   1:.\DSP\Source\BasicMathFunctions/arm_abs_q31.c **** /* ----------------------------------------------------------------------
   2:.\DSP\Source\BasicMathFunctions/arm_abs_q31.c ****  * Project:      CMSIS DSP Library
   3:.\DSP\Source\BasicMathFunctions/arm_abs_q31.c ****  * Title:        arm_abs_q31.c
   4:.\DSP\Source\BasicMathFunctions/arm_abs_q31.c ****  * Description:  Q31 vector absolute value
   5:.\DSP\Source\BasicMathFunctions/arm_abs_q31.c ****  *
   6:.\DSP\Source\BasicMathFunctions/arm_abs_q31.c ****  * $Date:        23 April 2021
   7:.\DSP\Source\BasicMathFunctions/arm_abs_q31.c ****  * $Revision:    V1.9.0
   8:.\DSP\Source\BasicMathFunctions/arm_abs_q31.c ****  *
   9:.\DSP\Source\BasicMathFunctions/arm_abs_q31.c ****  * Target Processor: Cortex-M and Cortex-A cores
  10:.\DSP\Source\BasicMathFunctions/arm_abs_q31.c ****  * -------------------------------------------------------------------- */
  11:.\DSP\Source\BasicMathFunctions/arm_abs_q31.c **** /*
  12:.\DSP\Source\BasicMathFunctions/arm_abs_q31.c ****  * Copyright (C) 2010-2021 ARM Limited or its affiliates. All rights reserved.
  13:.\DSP\Source\BasicMathFunctions/arm_abs_q31.c ****  *
  14:.\DSP\Source\BasicMathFunctions/arm_abs_q31.c ****  * SPDX-License-Identifier: Apache-2.0
  15:.\DSP\Source\BasicMathFunctions/arm_abs_q31.c ****  *
  16:.\DSP\Source\BasicMathFunctions/arm_abs_q31.c ****  * Licensed under the Apache License, Version 2.0 (the License); you may
  17:.\DSP\Source\BasicMathFunctions/arm_abs_q31.c ****  * not use this file except in compliance with the License.
  18:.\DSP\Source\BasicMathFunctions/arm_abs_q31.c ****  * You may obtain a copy of the License at
  19:.\DSP\Source\BasicMathFunctions/arm_abs_q31.c ****  *
  20:.\DSP\Source\BasicMathFunctions/arm_abs_q31.c ****  * www.apache.org/licenses/LICENSE-2.0
  21:.\DSP\Source\BasicMathFunctions/arm_abs_q31.c ****  *
  22:.\DSP\Source\BasicMathFunctions/arm_abs_q31.c ****  * Unless required by applicable law or agreed to in writing, software
  23:.\DSP\Source\BasicMathFunctions/arm_abs_q31.c ****  * distributed under the License is distributed on an AS IS BASIS, WITHOUT
  24:.\DSP\Source\BasicMathFunctions/arm_abs_q31.c ****  * WARRANTIES OR CONDITIONS OF ANY KIND, either express or implied.
  25:.\DSP\Source\BasicMathFunctions/arm_abs_q31.c ****  * See the License for the specific language governing permissions and
  26:.\DSP\Source\BasicMathFunctions/arm_abs_q31.c ****  * limitations under the License.
  27:.\DSP\Source\BasicMathFunctions/arm_abs_q31.c ****  */
  28:.\DSP\Source\BasicMathFunctions/arm_abs_q31.c **** 
  29:.\DSP\Source\BasicMathFunctions/arm_abs_q31.c **** #include "dsp/basic_math_functions.h"
  30:.\DSP\Source\BasicMathFunctions/arm_abs_q31.c **** 
  31:.\DSP\Source\BasicMathFunctions/arm_abs_q31.c **** /**
  32:.\DSP\Source\BasicMathFunctions/arm_abs_q31.c ****   @ingroup groupMath
  33:.\DSP\Source\BasicMathFunctions/arm_abs_q31.c ****  */
  34:.\DSP\Source\BasicMathFunctions/arm_abs_q31.c **** 
  35:.\DSP\Source\BasicMathFunctions/arm_abs_q31.c **** /**
  36:.\DSP\Source\BasicMathFunctions/arm_abs_q31.c ****   @addtogroup BasicAbs
  37:.\DSP\Source\BasicMathFunctions/arm_abs_q31.c ****   @{
  38:.\DSP\Source\BasicMathFunctions/arm_abs_q31.c ****  */
  39:.\DSP\Source\BasicMathFunctions/arm_abs_q31.c **** 
  40:.\DSP\Source\BasicMathFunctions/arm_abs_q31.c **** /**
  41:.\DSP\Source\BasicMathFunctions/arm_abs_q31.c ****   @brief         Q31 vector absolute value.
  42:.\DSP\Source\BasicMathFunctions/arm_abs_q31.c ****   @param[in]     pSrc       points to the input vector
  43:.\DSP\Source\BasicMathFunctions/arm_abs_q31.c ****   @param[out]    pDst       points to the output vector
  44:.\DSP\Source\BasicMathFunctions/arm_abs_q31.c ****   @param[in]     blockSize  number of samples in each vector
  45:.\DSP\Source\BasicMathFunctions/arm_abs_q31.c ****   @return        none
  46:.\DSP\Source\BasicMathFunctions/arm_abs_q31.c **** 
  47:.\DSP\Source\BasicMathFunctions/arm_abs_q31.c ****   @par           Scaling and Overflow Behavior
  48:.\DSP\Source\BasicMathFunctions/arm_abs_q31.c ****                    The function uses saturating arithmetic.
  49:.\DSP\Source\BasicMathFunctions/arm_abs_q31.c ****                    The Q31 value -1 (0x80000000) will be saturated to the maximum allowable positiv
  50:.\DSP\Source\BasicMathFunctions/arm_abs_q31.c ****  */
  51:.\DSP\Source\BasicMathFunctions/arm_abs_q31.c **** 
  52:.\DSP\Source\BasicMathFunctions/arm_abs_q31.c **** #if defined(ARM_MATH_MVEI) && !defined(ARM_MATH_AUTOVECTORIZE)
  53:.\DSP\Source\BasicMathFunctions/arm_abs_q31.c **** 
  54:.\DSP\Source\BasicMathFunctions/arm_abs_q31.c **** #include "arm_helium_utils.h"
ARM GAS  C:\Users\IVYLIU~1\AppData\Local\Temp\cc7gzL6d.s 			page 13


  55:.\DSP\Source\BasicMathFunctions/arm_abs_q31.c **** 
  56:.\DSP\Source\BasicMathFunctions/arm_abs_q31.c **** void arm_abs_q31(
  57:.\DSP\Source\BasicMathFunctions/arm_abs_q31.c ****     const q31_t * pSrc,
  58:.\DSP\Source\BasicMathFunctions/arm_abs_q31.c ****     q31_t * pDst,
  59:.\DSP\Source\BasicMathFunctions/arm_abs_q31.c ****     uint32_t blockSize)
  60:.\DSP\Source\BasicMathFunctions/arm_abs_q31.c **** {
  61:.\DSP\Source\BasicMathFunctions/arm_abs_q31.c ****     uint32_t  blkCnt;           /* Loop counters */
  62:.\DSP\Source\BasicMathFunctions/arm_abs_q31.c ****     q31x4_t vecSrc;
  63:.\DSP\Source\BasicMathFunctions/arm_abs_q31.c **** 
  64:.\DSP\Source\BasicMathFunctions/arm_abs_q31.c ****     /* Compute 4 outputs at a time */
  65:.\DSP\Source\BasicMathFunctions/arm_abs_q31.c ****     blkCnt = blockSize >> 2;
  66:.\DSP\Source\BasicMathFunctions/arm_abs_q31.c **** 
  67:.\DSP\Source\BasicMathFunctions/arm_abs_q31.c ****     while (blkCnt > 0U)
  68:.\DSP\Source\BasicMathFunctions/arm_abs_q31.c ****     {
  69:.\DSP\Source\BasicMathFunctions/arm_abs_q31.c ****         /*
  70:.\DSP\Source\BasicMathFunctions/arm_abs_q31.c ****          * C = |A|
  71:.\DSP\Source\BasicMathFunctions/arm_abs_q31.c ****          * Calculate absolute and then store the results in the destination buffer.
  72:.\DSP\Source\BasicMathFunctions/arm_abs_q31.c ****          */
  73:.\DSP\Source\BasicMathFunctions/arm_abs_q31.c ****         vecSrc = vld1q(pSrc);
  74:.\DSP\Source\BasicMathFunctions/arm_abs_q31.c ****         vst1q(pDst, vqabsq(vecSrc));
  75:.\DSP\Source\BasicMathFunctions/arm_abs_q31.c ****         /*
  76:.\DSP\Source\BasicMathFunctions/arm_abs_q31.c ****          * Decrement the blockSize loop counter
  77:.\DSP\Source\BasicMathFunctions/arm_abs_q31.c ****          */
  78:.\DSP\Source\BasicMathFunctions/arm_abs_q31.c ****         blkCnt--;
  79:.\DSP\Source\BasicMathFunctions/arm_abs_q31.c ****         /*
  80:.\DSP\Source\BasicMathFunctions/arm_abs_q31.c ****          * Advance vector source and destination pointers
  81:.\DSP\Source\BasicMathFunctions/arm_abs_q31.c ****          */
  82:.\DSP\Source\BasicMathFunctions/arm_abs_q31.c ****         pSrc += 4;
  83:.\DSP\Source\BasicMathFunctions/arm_abs_q31.c ****         pDst += 4;
  84:.\DSP\Source\BasicMathFunctions/arm_abs_q31.c ****     }
  85:.\DSP\Source\BasicMathFunctions/arm_abs_q31.c ****     /*
  86:.\DSP\Source\BasicMathFunctions/arm_abs_q31.c ****      * Tail
  87:.\DSP\Source\BasicMathFunctions/arm_abs_q31.c ****      */
  88:.\DSP\Source\BasicMathFunctions/arm_abs_q31.c ****     blkCnt = blockSize & 3;
  89:.\DSP\Source\BasicMathFunctions/arm_abs_q31.c **** 
  90:.\DSP\Source\BasicMathFunctions/arm_abs_q31.c ****     if (blkCnt > 0U)
  91:.\DSP\Source\BasicMathFunctions/arm_abs_q31.c ****     {
  92:.\DSP\Source\BasicMathFunctions/arm_abs_q31.c ****         mve_pred16_t p0 = vctp32q(blkCnt);
  93:.\DSP\Source\BasicMathFunctions/arm_abs_q31.c ****         vecSrc = vld1q(pSrc);
  94:.\DSP\Source\BasicMathFunctions/arm_abs_q31.c ****         vstrwq_p(pDst, vqabsq(vecSrc), p0);
  95:.\DSP\Source\BasicMathFunctions/arm_abs_q31.c ****     }
  96:.\DSP\Source\BasicMathFunctions/arm_abs_q31.c **** }
  97:.\DSP\Source\BasicMathFunctions/arm_abs_q31.c **** 
  98:.\DSP\Source\BasicMathFunctions/arm_abs_q31.c **** #else
  99:.\DSP\Source\BasicMathFunctions/arm_abs_q31.c **** void arm_abs_q31(
 100:.\DSP\Source\BasicMathFunctions/arm_abs_q31.c ****   const q31_t * pSrc,
 101:.\DSP\Source\BasicMathFunctions/arm_abs_q31.c ****         q31_t * pDst,
 102:.\DSP\Source\BasicMathFunctions/arm_abs_q31.c ****         uint32_t blockSize)
 103:.\DSP\Source\BasicMathFunctions/arm_abs_q31.c **** {
 189              		.loc 4 103 0
 190              		.cfi_startproc
 191              		@ args = 0, pretend = 0, frame = 0
 192              		@ frame_needed = 0, uses_anonymous_args = 0
 193              		@ link register save eliminated.
 194              	.LVL22:
 195 0000 10B4     		push	{r4}
 196              		.cfi_def_cfa_offset 4
ARM GAS  C:\Users\IVYLIU~1\AppData\Local\Temp\cc7gzL6d.s 			page 14


 197              		.cfi_offset 4, -4
 198              	.LVL23:
 104:.\DSP\Source\BasicMathFunctions/arm_abs_q31.c ****         uint32_t blkCnt;                               /* Loop counter */
 105:.\DSP\Source\BasicMathFunctions/arm_abs_q31.c ****         q31_t in;                                      /* Temporary variable */
 106:.\DSP\Source\BasicMathFunctions/arm_abs_q31.c **** 
 107:.\DSP\Source\BasicMathFunctions/arm_abs_q31.c **** #if defined(ARM_MATH_NEON)
 108:.\DSP\Source\BasicMathFunctions/arm_abs_q31.c ****     int32x4_t vec1;
 109:.\DSP\Source\BasicMathFunctions/arm_abs_q31.c ****     int32x4_t res;
 110:.\DSP\Source\BasicMathFunctions/arm_abs_q31.c **** 
 111:.\DSP\Source\BasicMathFunctions/arm_abs_q31.c ****     /* Compute 4 outputs at a time */  
 112:.\DSP\Source\BasicMathFunctions/arm_abs_q31.c ****     blkCnt = blockSize >> 2U;
 113:.\DSP\Source\BasicMathFunctions/arm_abs_q31.c **** 
 114:.\DSP\Source\BasicMathFunctions/arm_abs_q31.c ****     while (blkCnt > 0U)
 115:.\DSP\Source\BasicMathFunctions/arm_abs_q31.c ****     {
 116:.\DSP\Source\BasicMathFunctions/arm_abs_q31.c ****         /* C = |A| */
 117:.\DSP\Source\BasicMathFunctions/arm_abs_q31.c ****         /* Calculate absolute and then store the results in the destination buffer. */
 118:.\DSP\Source\BasicMathFunctions/arm_abs_q31.c **** 
 119:.\DSP\Source\BasicMathFunctions/arm_abs_q31.c ****         vec1 = vld1q_s32(pSrc);
 120:.\DSP\Source\BasicMathFunctions/arm_abs_q31.c ****         res = vqabsq_s32(vec1);
 121:.\DSP\Source\BasicMathFunctions/arm_abs_q31.c ****         vst1q_s32(pDst, res);
 122:.\DSP\Source\BasicMathFunctions/arm_abs_q31.c **** 
 123:.\DSP\Source\BasicMathFunctions/arm_abs_q31.c ****         /* Increment pointers */
 124:.\DSP\Source\BasicMathFunctions/arm_abs_q31.c ****         pSrc += 4;
 125:.\DSP\Source\BasicMathFunctions/arm_abs_q31.c ****         pDst += 4;
 126:.\DSP\Source\BasicMathFunctions/arm_abs_q31.c ****         
 127:.\DSP\Source\BasicMathFunctions/arm_abs_q31.c ****         /* Decrement the blockSize loop counter */
 128:.\DSP\Source\BasicMathFunctions/arm_abs_q31.c ****         blkCnt--;
 129:.\DSP\Source\BasicMathFunctions/arm_abs_q31.c ****     }
 130:.\DSP\Source\BasicMathFunctions/arm_abs_q31.c **** 
 131:.\DSP\Source\BasicMathFunctions/arm_abs_q31.c ****     /* Tail */
 132:.\DSP\Source\BasicMathFunctions/arm_abs_q31.c ****     blkCnt = blockSize & 0x3;
 133:.\DSP\Source\BasicMathFunctions/arm_abs_q31.c **** 
 134:.\DSP\Source\BasicMathFunctions/arm_abs_q31.c **** #else
 135:.\DSP\Source\BasicMathFunctions/arm_abs_q31.c **** #if defined (ARM_MATH_LOOPUNROLL)
 136:.\DSP\Source\BasicMathFunctions/arm_abs_q31.c **** 
 137:.\DSP\Source\BasicMathFunctions/arm_abs_q31.c ****   /* Loop unrolling: Compute 4 outputs at a time */
 138:.\DSP\Source\BasicMathFunctions/arm_abs_q31.c ****   blkCnt = blockSize >> 2U;
 139:.\DSP\Source\BasicMathFunctions/arm_abs_q31.c **** 
 140:.\DSP\Source\BasicMathFunctions/arm_abs_q31.c ****   while (blkCnt > 0U)
 141:.\DSP\Source\BasicMathFunctions/arm_abs_q31.c ****   {
 142:.\DSP\Source\BasicMathFunctions/arm_abs_q31.c ****     /* C = |A| */
 143:.\DSP\Source\BasicMathFunctions/arm_abs_q31.c **** 
 144:.\DSP\Source\BasicMathFunctions/arm_abs_q31.c ****     /* Calculate absolute of input (if -1 then saturated to 0x7fffffff) and store result in destina
 145:.\DSP\Source\BasicMathFunctions/arm_abs_q31.c ****     in = *pSrc++;
 146:.\DSP\Source\BasicMathFunctions/arm_abs_q31.c **** #if defined (ARM_MATH_DSP)
 147:.\DSP\Source\BasicMathFunctions/arm_abs_q31.c ****     *pDst++ = (in > 0) ? in : (q31_t)__QSUB(0, in);
 148:.\DSP\Source\BasicMathFunctions/arm_abs_q31.c **** #else
 149:.\DSP\Source\BasicMathFunctions/arm_abs_q31.c ****     *pDst++ = (in > 0) ? in : ((in == INT32_MIN) ? INT32_MAX : -in);
 150:.\DSP\Source\BasicMathFunctions/arm_abs_q31.c **** #endif
 151:.\DSP\Source\BasicMathFunctions/arm_abs_q31.c **** 
 152:.\DSP\Source\BasicMathFunctions/arm_abs_q31.c ****     in = *pSrc++;
 153:.\DSP\Source\BasicMathFunctions/arm_abs_q31.c **** #if defined (ARM_MATH_DSP)
 154:.\DSP\Source\BasicMathFunctions/arm_abs_q31.c ****     *pDst++ = (in > 0) ? in : (q31_t)__QSUB(0, in);
 155:.\DSP\Source\BasicMathFunctions/arm_abs_q31.c **** #else
 156:.\DSP\Source\BasicMathFunctions/arm_abs_q31.c ****     *pDst++ = (in > 0) ? in : ((in == INT32_MIN) ? INT32_MAX : -in);
 157:.\DSP\Source\BasicMathFunctions/arm_abs_q31.c **** #endif
 158:.\DSP\Source\BasicMathFunctions/arm_abs_q31.c **** 
ARM GAS  C:\Users\IVYLIU~1\AppData\Local\Temp\cc7gzL6d.s 			page 15


 159:.\DSP\Source\BasicMathFunctions/arm_abs_q31.c ****     in = *pSrc++;
 160:.\DSP\Source\BasicMathFunctions/arm_abs_q31.c **** #if defined (ARM_MATH_DSP)
 161:.\DSP\Source\BasicMathFunctions/arm_abs_q31.c ****     *pDst++ = (in > 0) ? in : (q31_t)__QSUB(0, in);
 162:.\DSP\Source\BasicMathFunctions/arm_abs_q31.c **** #else
 163:.\DSP\Source\BasicMathFunctions/arm_abs_q31.c ****     *pDst++ = (in > 0) ? in : ((in == INT32_MIN) ? INT32_MAX : -in);
 164:.\DSP\Source\BasicMathFunctions/arm_abs_q31.c **** #endif
 165:.\DSP\Source\BasicMathFunctions/arm_abs_q31.c **** 
 166:.\DSP\Source\BasicMathFunctions/arm_abs_q31.c ****     in = *pSrc++;
 167:.\DSP\Source\BasicMathFunctions/arm_abs_q31.c **** #if defined (ARM_MATH_DSP)
 168:.\DSP\Source\BasicMathFunctions/arm_abs_q31.c ****     *pDst++ = (in > 0) ? in : (q31_t)__QSUB(0, in);
 169:.\DSP\Source\BasicMathFunctions/arm_abs_q31.c **** #else
 170:.\DSP\Source\BasicMathFunctions/arm_abs_q31.c ****     *pDst++ = (in > 0) ? in : ((in == INT32_MIN) ? INT32_MAX : -in);
 171:.\DSP\Source\BasicMathFunctions/arm_abs_q31.c **** #endif
 172:.\DSP\Source\BasicMathFunctions/arm_abs_q31.c **** 
 173:.\DSP\Source\BasicMathFunctions/arm_abs_q31.c ****     /* Decrement loop counter */
 174:.\DSP\Source\BasicMathFunctions/arm_abs_q31.c ****     blkCnt--;
 175:.\DSP\Source\BasicMathFunctions/arm_abs_q31.c ****   }
 176:.\DSP\Source\BasicMathFunctions/arm_abs_q31.c **** 
 177:.\DSP\Source\BasicMathFunctions/arm_abs_q31.c ****   /* Loop unrolling: Compute remaining outputs */
 178:.\DSP\Source\BasicMathFunctions/arm_abs_q31.c ****   blkCnt = blockSize % 0x4U;
 179:.\DSP\Source\BasicMathFunctions/arm_abs_q31.c **** 
 180:.\DSP\Source\BasicMathFunctions/arm_abs_q31.c **** #else
 181:.\DSP\Source\BasicMathFunctions/arm_abs_q31.c **** 
 182:.\DSP\Source\BasicMathFunctions/arm_abs_q31.c ****   /* Initialize blkCnt with number of samples */
 183:.\DSP\Source\BasicMathFunctions/arm_abs_q31.c ****   blkCnt = blockSize;
 184:.\DSP\Source\BasicMathFunctions/arm_abs_q31.c **** 
 185:.\DSP\Source\BasicMathFunctions/arm_abs_q31.c **** #endif /* #if defined (ARM_MATH_LOOPUNROLL) */
 186:.\DSP\Source\BasicMathFunctions/arm_abs_q31.c **** #endif /* #if defined (ARM_MATH_NEON) */
 187:.\DSP\Source\BasicMathFunctions/arm_abs_q31.c **** 
 188:.\DSP\Source\BasicMathFunctions/arm_abs_q31.c ****   while (blkCnt > 0U)
 199              		.loc 4 188 0
 200 0002 0FE0     		b	.L17
 201              	.LVL24:
 202              	.L20:
 189:.\DSP\Source\BasicMathFunctions/arm_abs_q31.c ****   {
 190:.\DSP\Source\BasicMathFunctions/arm_abs_q31.c ****     /* C = |A| */
 191:.\DSP\Source\BasicMathFunctions/arm_abs_q31.c **** 
 192:.\DSP\Source\BasicMathFunctions/arm_abs_q31.c ****     /* Calculate absolute of input (if -1 then saturated to 0x7fffffff) and store result in destina
 193:.\DSP\Source\BasicMathFunctions/arm_abs_q31.c ****     in = *pSrc++;
 203              		.loc 4 193 0
 204 0004 041D     		adds	r4, r0, #4
 205              	.LVL25:
 206 0006 0368     		ldr	r3, [r0]
 207              	.LVL26:
 194:.\DSP\Source\BasicMathFunctions/arm_abs_q31.c **** #if defined (ARM_MATH_DSP)
 195:.\DSP\Source\BasicMathFunctions/arm_abs_q31.c ****     *pDst++ = (in > 0) ? in : (q31_t)__QSUB(0, in);
 196:.\DSP\Source\BasicMathFunctions/arm_abs_q31.c **** #else
 197:.\DSP\Source\BasicMathFunctions/arm_abs_q31.c ****     *pDst++ = (in > 0) ? in : ((in == INT32_MIN) ? INT32_MAX : -in);
 208              		.loc 4 197 0
 209 0008 081D     		adds	r0, r1, #4
 210              	.LVL27:
 211 000a 002B     		cmp	r3, #0
 212 000c 06DC     		bgt	.L18
 213              		.loc 4 197 0 is_stmt 0 discriminator 1
 214 000e B3F1004F 		cmp	r3, #-2147483648
 215 0012 01D0     		beq	.L22
 216              		.loc 4 197 0 discriminator 3
ARM GAS  C:\Users\IVYLIU~1\AppData\Local\Temp\cc7gzL6d.s 			page 16


 217 0014 5B42     		negs	r3, r3
 218              	.LVL28:
 219 0016 01E0     		b	.L18
 220              	.LVL29:
 221              	.L22:
 222              		.loc 4 197 0
 223 0018 6FF00043 		mvn	r3, #-2147483648
 224              	.LVL30:
 225              	.L18:
 226              		.loc 4 197 0 discriminator 8
 227 001c 0B60     		str	r3, [r1]
 228              	.LVL31:
 198:.\DSP\Source\BasicMathFunctions/arm_abs_q31.c **** #endif
 199:.\DSP\Source\BasicMathFunctions/arm_abs_q31.c **** 
 200:.\DSP\Source\BasicMathFunctions/arm_abs_q31.c ****     /* Decrement loop counter */
 201:.\DSP\Source\BasicMathFunctions/arm_abs_q31.c ****     blkCnt--;
 229              		.loc 4 201 0 is_stmt 1 discriminator 8
 230 001e 013A     		subs	r2, r2, #1
 231              	.LVL32:
 197:.\DSP\Source\BasicMathFunctions/arm_abs_q31.c **** #endif
 232              		.loc 4 197 0 discriminator 8
 233 0020 0146     		mov	r1, r0
 193:.\DSP\Source\BasicMathFunctions/arm_abs_q31.c **** #if defined (ARM_MATH_DSP)
 234              		.loc 4 193 0 discriminator 8
 235 0022 2046     		mov	r0, r4
 236              	.LVL33:
 237              	.L17:
 188:.\DSP\Source\BasicMathFunctions/arm_abs_q31.c ****   {
 238              		.loc 4 188 0
 239 0024 002A     		cmp	r2, #0
 240 0026 EDD1     		bne	.L20
 202:.\DSP\Source\BasicMathFunctions/arm_abs_q31.c ****   }
 203:.\DSP\Source\BasicMathFunctions/arm_abs_q31.c **** 
 204:.\DSP\Source\BasicMathFunctions/arm_abs_q31.c **** }
 241              		.loc 4 204 0
 242 0028 5DF8044B 		ldr	r4, [sp], #4
 243              		.cfi_restore 4
 244              		.cfi_def_cfa_offset 0
 245 002c 7047     		bx	lr
 246              		.cfi_endproc
 247              	.LFE86:
 248              		.size	arm_abs_q31, .-arm_abs_q31
 249 002e 00BF     		.section	.text.arm_abs_q7,"ax",%progbits
 250              		.align	2
 251              		.global	arm_abs_q7
 252              		.thumb
 253              		.thumb_func
 254              		.type	arm_abs_q7, %function
 255              	arm_abs_q7:
 256              	.LFB87:
 257              		.file 5 ".\\DSP\\Source\\BasicMathFunctions\\arm_abs_q7.c"
   1:.\DSP\Source\BasicMathFunctions/arm_abs_q7.c **** /* ----------------------------------------------------------------------
   2:.\DSP\Source\BasicMathFunctions/arm_abs_q7.c ****  * Project:      CMSIS DSP Library
   3:.\DSP\Source\BasicMathFunctions/arm_abs_q7.c ****  * Title:        arm_abs_q7.c
   4:.\DSP\Source\BasicMathFunctions/arm_abs_q7.c ****  * Description:  Q7 vector absolute value
   5:.\DSP\Source\BasicMathFunctions/arm_abs_q7.c ****  *
   6:.\DSP\Source\BasicMathFunctions/arm_abs_q7.c ****  * $Date:        23 April 2021
ARM GAS  C:\Users\IVYLIU~1\AppData\Local\Temp\cc7gzL6d.s 			page 17


   7:.\DSP\Source\BasicMathFunctions/arm_abs_q7.c ****  * $Revision:    V1.9.0
   8:.\DSP\Source\BasicMathFunctions/arm_abs_q7.c ****  *
   9:.\DSP\Source\BasicMathFunctions/arm_abs_q7.c ****  * Target Processor: Cortex-M and Cortex-A cores
  10:.\DSP\Source\BasicMathFunctions/arm_abs_q7.c ****  * -------------------------------------------------------------------- */
  11:.\DSP\Source\BasicMathFunctions/arm_abs_q7.c **** /*
  12:.\DSP\Source\BasicMathFunctions/arm_abs_q7.c ****  * Copyright (C) 2010-2021 ARM Limited or its affiliates. All rights reserved.
  13:.\DSP\Source\BasicMathFunctions/arm_abs_q7.c ****  *
  14:.\DSP\Source\BasicMathFunctions/arm_abs_q7.c ****  * SPDX-License-Identifier: Apache-2.0
  15:.\DSP\Source\BasicMathFunctions/arm_abs_q7.c ****  *
  16:.\DSP\Source\BasicMathFunctions/arm_abs_q7.c ****  * Licensed under the Apache License, Version 2.0 (the License); you may
  17:.\DSP\Source\BasicMathFunctions/arm_abs_q7.c ****  * not use this file except in compliance with the License.
  18:.\DSP\Source\BasicMathFunctions/arm_abs_q7.c ****  * You may obtain a copy of the License at
  19:.\DSP\Source\BasicMathFunctions/arm_abs_q7.c ****  *
  20:.\DSP\Source\BasicMathFunctions/arm_abs_q7.c ****  * www.apache.org/licenses/LICENSE-2.0
  21:.\DSP\Source\BasicMathFunctions/arm_abs_q7.c ****  *
  22:.\DSP\Source\BasicMathFunctions/arm_abs_q7.c ****  * Unless required by applicable law or agreed to in writing, software
  23:.\DSP\Source\BasicMathFunctions/arm_abs_q7.c ****  * distributed under the License is distributed on an AS IS BASIS, WITHOUT
  24:.\DSP\Source\BasicMathFunctions/arm_abs_q7.c ****  * WARRANTIES OR CONDITIONS OF ANY KIND, either express or implied.
  25:.\DSP\Source\BasicMathFunctions/arm_abs_q7.c ****  * See the License for the specific language governing permissions and
  26:.\DSP\Source\BasicMathFunctions/arm_abs_q7.c ****  * limitations under the License.
  27:.\DSP\Source\BasicMathFunctions/arm_abs_q7.c ****  */
  28:.\DSP\Source\BasicMathFunctions/arm_abs_q7.c **** 
  29:.\DSP\Source\BasicMathFunctions/arm_abs_q7.c **** #include "dsp/basic_math_functions.h"
  30:.\DSP\Source\BasicMathFunctions/arm_abs_q7.c **** 
  31:.\DSP\Source\BasicMathFunctions/arm_abs_q7.c **** /**
  32:.\DSP\Source\BasicMathFunctions/arm_abs_q7.c ****   @ingroup groupMath
  33:.\DSP\Source\BasicMathFunctions/arm_abs_q7.c ****  */
  34:.\DSP\Source\BasicMathFunctions/arm_abs_q7.c **** 
  35:.\DSP\Source\BasicMathFunctions/arm_abs_q7.c **** /**
  36:.\DSP\Source\BasicMathFunctions/arm_abs_q7.c ****   @addtogroup BasicAbs
  37:.\DSP\Source\BasicMathFunctions/arm_abs_q7.c ****   @{
  38:.\DSP\Source\BasicMathFunctions/arm_abs_q7.c ****  */
  39:.\DSP\Source\BasicMathFunctions/arm_abs_q7.c **** 
  40:.\DSP\Source\BasicMathFunctions/arm_abs_q7.c **** /**
  41:.\DSP\Source\BasicMathFunctions/arm_abs_q7.c ****   @brief         Q7 vector absolute value.
  42:.\DSP\Source\BasicMathFunctions/arm_abs_q7.c ****   @param[in]     pSrc       points to the input vector
  43:.\DSP\Source\BasicMathFunctions/arm_abs_q7.c ****   @param[out]    pDst       points to the output vector
  44:.\DSP\Source\BasicMathFunctions/arm_abs_q7.c ****   @param[in]     blockSize  number of samples in each vector
  45:.\DSP\Source\BasicMathFunctions/arm_abs_q7.c ****   @return        none
  46:.\DSP\Source\BasicMathFunctions/arm_abs_q7.c **** 
  47:.\DSP\Source\BasicMathFunctions/arm_abs_q7.c ****   @par           Conditions for optimum performance
  48:.\DSP\Source\BasicMathFunctions/arm_abs_q7.c ****                    Input and output buffers should be aligned by 32-bit
  49:.\DSP\Source\BasicMathFunctions/arm_abs_q7.c ****   @par           Scaling and Overflow Behavior
  50:.\DSP\Source\BasicMathFunctions/arm_abs_q7.c ****                    The function uses saturating arithmetic.
  51:.\DSP\Source\BasicMathFunctions/arm_abs_q7.c ****                    The Q7 value -1 (0x80) will be saturated to the maximum allowable positive value
  52:.\DSP\Source\BasicMathFunctions/arm_abs_q7.c ****  */
  53:.\DSP\Source\BasicMathFunctions/arm_abs_q7.c **** 
  54:.\DSP\Source\BasicMathFunctions/arm_abs_q7.c **** #if defined(ARM_MATH_MVEI) && !defined(ARM_MATH_AUTOVECTORIZE)
  55:.\DSP\Source\BasicMathFunctions/arm_abs_q7.c **** 
  56:.\DSP\Source\BasicMathFunctions/arm_abs_q7.c **** #include "arm_helium_utils.h"
  57:.\DSP\Source\BasicMathFunctions/arm_abs_q7.c **** 
  58:.\DSP\Source\BasicMathFunctions/arm_abs_q7.c **** void arm_abs_q7(
  59:.\DSP\Source\BasicMathFunctions/arm_abs_q7.c ****     const q7_t * pSrc,
  60:.\DSP\Source\BasicMathFunctions/arm_abs_q7.c ****     q7_t * pDst,
  61:.\DSP\Source\BasicMathFunctions/arm_abs_q7.c ****     uint32_t blockSize)
  62:.\DSP\Source\BasicMathFunctions/arm_abs_q7.c **** {
  63:.\DSP\Source\BasicMathFunctions/arm_abs_q7.c ****     uint32_t  blkCnt;           /* loop counters */
ARM GAS  C:\Users\IVYLIU~1\AppData\Local\Temp\cc7gzL6d.s 			page 18


  64:.\DSP\Source\BasicMathFunctions/arm_abs_q7.c ****     q7x16_t vecSrc;
  65:.\DSP\Source\BasicMathFunctions/arm_abs_q7.c **** 
  66:.\DSP\Source\BasicMathFunctions/arm_abs_q7.c ****     /* Compute 16 outputs at a time */
  67:.\DSP\Source\BasicMathFunctions/arm_abs_q7.c ****     blkCnt = blockSize >> 4;
  68:.\DSP\Source\BasicMathFunctions/arm_abs_q7.c ****     while (blkCnt > 0U)
  69:.\DSP\Source\BasicMathFunctions/arm_abs_q7.c ****     {
  70:.\DSP\Source\BasicMathFunctions/arm_abs_q7.c ****         /*
  71:.\DSP\Source\BasicMathFunctions/arm_abs_q7.c ****          * C = |A|
  72:.\DSP\Source\BasicMathFunctions/arm_abs_q7.c ****          * Calculate absolute and then store the results in the destination buffer.
  73:.\DSP\Source\BasicMathFunctions/arm_abs_q7.c ****          */
  74:.\DSP\Source\BasicMathFunctions/arm_abs_q7.c ****         vecSrc = vld1q(pSrc);
  75:.\DSP\Source\BasicMathFunctions/arm_abs_q7.c ****         vst1q(pDst, vqabsq(vecSrc));
  76:.\DSP\Source\BasicMathFunctions/arm_abs_q7.c ****         /*
  77:.\DSP\Source\BasicMathFunctions/arm_abs_q7.c ****          * Decrement the blockSize loop counter
  78:.\DSP\Source\BasicMathFunctions/arm_abs_q7.c ****          */
  79:.\DSP\Source\BasicMathFunctions/arm_abs_q7.c ****         blkCnt--;
  80:.\DSP\Source\BasicMathFunctions/arm_abs_q7.c ****         /*
  81:.\DSP\Source\BasicMathFunctions/arm_abs_q7.c ****          * advance vector source and destination pointers
  82:.\DSP\Source\BasicMathFunctions/arm_abs_q7.c ****          */
  83:.\DSP\Source\BasicMathFunctions/arm_abs_q7.c ****         pSrc += 16;
  84:.\DSP\Source\BasicMathFunctions/arm_abs_q7.c ****         pDst += 16;
  85:.\DSP\Source\BasicMathFunctions/arm_abs_q7.c ****     }
  86:.\DSP\Source\BasicMathFunctions/arm_abs_q7.c ****     /*
  87:.\DSP\Source\BasicMathFunctions/arm_abs_q7.c ****      * tail
  88:.\DSP\Source\BasicMathFunctions/arm_abs_q7.c ****      */
  89:.\DSP\Source\BasicMathFunctions/arm_abs_q7.c ****     blkCnt = blockSize & 0xF;
  90:.\DSP\Source\BasicMathFunctions/arm_abs_q7.c ****     if (blkCnt > 0U)
  91:.\DSP\Source\BasicMathFunctions/arm_abs_q7.c ****     {
  92:.\DSP\Source\BasicMathFunctions/arm_abs_q7.c ****         mve_pred16_t p0 = vctp8q(blkCnt);
  93:.\DSP\Source\BasicMathFunctions/arm_abs_q7.c ****         vecSrc = vld1q(pSrc);
  94:.\DSP\Source\BasicMathFunctions/arm_abs_q7.c ****         vstrbq_p(pDst, vqabsq(vecSrc), p0);
  95:.\DSP\Source\BasicMathFunctions/arm_abs_q7.c ****     }
  96:.\DSP\Source\BasicMathFunctions/arm_abs_q7.c **** }
  97:.\DSP\Source\BasicMathFunctions/arm_abs_q7.c **** 
  98:.\DSP\Source\BasicMathFunctions/arm_abs_q7.c **** #else
  99:.\DSP\Source\BasicMathFunctions/arm_abs_q7.c **** void arm_abs_q7(
 100:.\DSP\Source\BasicMathFunctions/arm_abs_q7.c ****   const q7_t * pSrc,
 101:.\DSP\Source\BasicMathFunctions/arm_abs_q7.c ****         q7_t * pDst,
 102:.\DSP\Source\BasicMathFunctions/arm_abs_q7.c ****         uint32_t blockSize)
 103:.\DSP\Source\BasicMathFunctions/arm_abs_q7.c **** {
 258              		.loc 5 103 0
 259              		.cfi_startproc
 260              		@ args = 0, pretend = 0, frame = 0
 261              		@ frame_needed = 0, uses_anonymous_args = 0
 262              		@ link register save eliminated.
 263              	.LVL34:
 264 0000 30B4     		push	{r4, r5}
 265              		.cfi_def_cfa_offset 8
 266              		.cfi_offset 4, -8
 267              		.cfi_offset 5, -4
 268              	.LVL35:
 104:.\DSP\Source\BasicMathFunctions/arm_abs_q7.c ****         uint32_t blkCnt;                               /* Loop counter */
 105:.\DSP\Source\BasicMathFunctions/arm_abs_q7.c ****         q7_t in;                                       /* Temporary input variable */
 106:.\DSP\Source\BasicMathFunctions/arm_abs_q7.c **** 
 107:.\DSP\Source\BasicMathFunctions/arm_abs_q7.c **** #if defined (ARM_MATH_LOOPUNROLL)
 108:.\DSP\Source\BasicMathFunctions/arm_abs_q7.c **** 
 109:.\DSP\Source\BasicMathFunctions/arm_abs_q7.c ****   /* Loop unrolling: Compute 4 outputs at a time */
ARM GAS  C:\Users\IVYLIU~1\AppData\Local\Temp\cc7gzL6d.s 			page 19


 110:.\DSP\Source\BasicMathFunctions/arm_abs_q7.c ****   blkCnt = blockSize >> 2U;
 111:.\DSP\Source\BasicMathFunctions/arm_abs_q7.c **** 
 112:.\DSP\Source\BasicMathFunctions/arm_abs_q7.c ****   while (blkCnt > 0U)
 113:.\DSP\Source\BasicMathFunctions/arm_abs_q7.c ****   {
 114:.\DSP\Source\BasicMathFunctions/arm_abs_q7.c ****     /* C = |A| */
 115:.\DSP\Source\BasicMathFunctions/arm_abs_q7.c **** 
 116:.\DSP\Source\BasicMathFunctions/arm_abs_q7.c ****     /* Calculate absolute of input (if -1 then saturated to 0x7f) and store result in destination b
 117:.\DSP\Source\BasicMathFunctions/arm_abs_q7.c ****     in = *pSrc++;
 118:.\DSP\Source\BasicMathFunctions/arm_abs_q7.c **** #if defined (ARM_MATH_DSP)
 119:.\DSP\Source\BasicMathFunctions/arm_abs_q7.c ****     *pDst++ = (in > 0) ? in : (q7_t)__QSUB8(0, in);
 120:.\DSP\Source\BasicMathFunctions/arm_abs_q7.c **** #else
 121:.\DSP\Source\BasicMathFunctions/arm_abs_q7.c ****     *pDst++ = (in > 0) ? in : ((in == (q7_t) 0x80) ? (q7_t) 0x7f : -in);
 122:.\DSP\Source\BasicMathFunctions/arm_abs_q7.c **** #endif
 123:.\DSP\Source\BasicMathFunctions/arm_abs_q7.c **** 
 124:.\DSP\Source\BasicMathFunctions/arm_abs_q7.c ****     in = *pSrc++;
 125:.\DSP\Source\BasicMathFunctions/arm_abs_q7.c **** #if defined (ARM_MATH_DSP)
 126:.\DSP\Source\BasicMathFunctions/arm_abs_q7.c ****     *pDst++ = (in > 0) ? in : (q7_t)__QSUB8(0, in);
 127:.\DSP\Source\BasicMathFunctions/arm_abs_q7.c **** #else
 128:.\DSP\Source\BasicMathFunctions/arm_abs_q7.c ****     *pDst++ = (in > 0) ? in : ((in == (q7_t) 0x80) ? (q7_t) 0x7f : -in);
 129:.\DSP\Source\BasicMathFunctions/arm_abs_q7.c **** #endif
 130:.\DSP\Source\BasicMathFunctions/arm_abs_q7.c **** 
 131:.\DSP\Source\BasicMathFunctions/arm_abs_q7.c ****     in = *pSrc++;
 132:.\DSP\Source\BasicMathFunctions/arm_abs_q7.c **** #if defined (ARM_MATH_DSP)
 133:.\DSP\Source\BasicMathFunctions/arm_abs_q7.c ****     *pDst++ = (in > 0) ? in : (q7_t)__QSUB8(0, in);
 134:.\DSP\Source\BasicMathFunctions/arm_abs_q7.c **** #else
 135:.\DSP\Source\BasicMathFunctions/arm_abs_q7.c ****     *pDst++ = (in > 0) ? in : ((in == (q7_t) 0x80) ? (q7_t) 0x7f : -in);
 136:.\DSP\Source\BasicMathFunctions/arm_abs_q7.c **** #endif
 137:.\DSP\Source\BasicMathFunctions/arm_abs_q7.c **** 
 138:.\DSP\Source\BasicMathFunctions/arm_abs_q7.c ****     in = *pSrc++;
 139:.\DSP\Source\BasicMathFunctions/arm_abs_q7.c **** #if defined (ARM_MATH_DSP)
 140:.\DSP\Source\BasicMathFunctions/arm_abs_q7.c ****     *pDst++ = (in > 0) ? in : (q7_t)__QSUB8(0, in);
 141:.\DSP\Source\BasicMathFunctions/arm_abs_q7.c **** #else
 142:.\DSP\Source\BasicMathFunctions/arm_abs_q7.c ****     *pDst++ = (in > 0) ? in : ((in == (q7_t) 0x80) ? (q7_t) 0x7f : -in);
 143:.\DSP\Source\BasicMathFunctions/arm_abs_q7.c **** #endif
 144:.\DSP\Source\BasicMathFunctions/arm_abs_q7.c **** 
 145:.\DSP\Source\BasicMathFunctions/arm_abs_q7.c ****     /* Decrement loop counter */
 146:.\DSP\Source\BasicMathFunctions/arm_abs_q7.c ****     blkCnt--;
 147:.\DSP\Source\BasicMathFunctions/arm_abs_q7.c ****   }
 148:.\DSP\Source\BasicMathFunctions/arm_abs_q7.c **** 
 149:.\DSP\Source\BasicMathFunctions/arm_abs_q7.c ****   /* Loop unrolling: Compute remaining outputs */
 150:.\DSP\Source\BasicMathFunctions/arm_abs_q7.c ****   blkCnt = blockSize % 0x4U;
 151:.\DSP\Source\BasicMathFunctions/arm_abs_q7.c **** 
 152:.\DSP\Source\BasicMathFunctions/arm_abs_q7.c **** #else
 153:.\DSP\Source\BasicMathFunctions/arm_abs_q7.c **** 
 154:.\DSP\Source\BasicMathFunctions/arm_abs_q7.c ****   /* Initialize blkCnt with number of samples */
 155:.\DSP\Source\BasicMathFunctions/arm_abs_q7.c ****   blkCnt = blockSize;
 156:.\DSP\Source\BasicMathFunctions/arm_abs_q7.c **** 
 157:.\DSP\Source\BasicMathFunctions/arm_abs_q7.c **** #endif /* #if defined (ARM_MATH_LOOPUNROLL) */
 158:.\DSP\Source\BasicMathFunctions/arm_abs_q7.c **** 
 159:.\DSP\Source\BasicMathFunctions/arm_abs_q7.c ****   while (blkCnt > 0U)
 269              		.loc 5 159 0
 270 0002 10E0     		b	.L25
 271              	.LVL36:
 272              	.L28:
 160:.\DSP\Source\BasicMathFunctions/arm_abs_q7.c ****   {
 161:.\DSP\Source\BasicMathFunctions/arm_abs_q7.c ****     /* C = |A| */
 162:.\DSP\Source\BasicMathFunctions/arm_abs_q7.c **** 
ARM GAS  C:\Users\IVYLIU~1\AppData\Local\Temp\cc7gzL6d.s 			page 20


 163:.\DSP\Source\BasicMathFunctions/arm_abs_q7.c ****     /* Calculate absolute of input (if -1 then saturated to 0x7f) and store result in destination b
 164:.\DSP\Source\BasicMathFunctions/arm_abs_q7.c ****     in = *pSrc++;
 273              		.loc 5 164 0
 274 0004 441C     		adds	r4, r0, #1
 275              	.LVL37:
 276 0006 0378     		ldrb	r3, [r0]	@ zero_extendqisi2
 277              	.LVL38:
 165:.\DSP\Source\BasicMathFunctions/arm_abs_q7.c **** #if defined (ARM_MATH_DSP)
 166:.\DSP\Source\BasicMathFunctions/arm_abs_q7.c ****     *pDst++ = (in > 0) ? in : (q7_t) __QSUB8(0, in);
 167:.\DSP\Source\BasicMathFunctions/arm_abs_q7.c **** #else
 168:.\DSP\Source\BasicMathFunctions/arm_abs_q7.c ****     *pDst++ = (in > 0) ? in : ((in == (q7_t) 0x80) ? (q7_t) 0x7f : -in);
 278              		.loc 5 168 0
 279 0008 481C     		adds	r0, r1, #1
 280              	.LVL39:
 281 000a 5DB2     		sxtb	r5, r3
 282 000c 002D     		cmp	r5, #0
 283 000e 06DC     		bgt	.L26
 284              		.loc 5 168 0 is_stmt 0 discriminator 1
 285 0010 15F1800F 		cmn	r5, #128
 286 0014 02D0     		beq	.L30
 287              		.loc 5 168 0 discriminator 3
 288 0016 5B42     		negs	r3, r3
 289              	.LVL40:
 290 0018 DBB2     		uxtb	r3, r3
 291 001a 00E0     		b	.L26
 292              	.LVL41:
 293              	.L30:
 294              		.loc 5 168 0
 295 001c 7F23     		movs	r3, #127
 296              	.LVL42:
 297              	.L26:
 298              		.loc 5 168 0 discriminator 8
 299 001e 0B70     		strb	r3, [r1]
 169:.\DSP\Source\BasicMathFunctions/arm_abs_q7.c **** #endif
 170:.\DSP\Source\BasicMathFunctions/arm_abs_q7.c **** 
 171:.\DSP\Source\BasicMathFunctions/arm_abs_q7.c ****     /* Decrement loop counter */
 172:.\DSP\Source\BasicMathFunctions/arm_abs_q7.c ****     blkCnt--;
 300              		.loc 5 172 0 is_stmt 1 discriminator 8
 301 0020 013A     		subs	r2, r2, #1
 302              	.LVL43:
 168:.\DSP\Source\BasicMathFunctions/arm_abs_q7.c **** #endif
 303              		.loc 5 168 0 discriminator 8
 304 0022 0146     		mov	r1, r0
 164:.\DSP\Source\BasicMathFunctions/arm_abs_q7.c **** #if defined (ARM_MATH_DSP)
 305              		.loc 5 164 0 discriminator 8
 306 0024 2046     		mov	r0, r4
 307              	.LVL44:
 308              	.L25:
 159:.\DSP\Source\BasicMathFunctions/arm_abs_q7.c ****   {
 309              		.loc 5 159 0
 310 0026 002A     		cmp	r2, #0
 311 0028 ECD1     		bne	.L28
 173:.\DSP\Source\BasicMathFunctions/arm_abs_q7.c ****   }
 174:.\DSP\Source\BasicMathFunctions/arm_abs_q7.c **** 
 175:.\DSP\Source\BasicMathFunctions/arm_abs_q7.c **** }
 312              		.loc 5 175 0
 313 002a 30BC     		pop	{r4, r5}
ARM GAS  C:\Users\IVYLIU~1\AppData\Local\Temp\cc7gzL6d.s 			page 21


 314              		.cfi_restore 5
 315              		.cfi_restore 4
 316              		.cfi_def_cfa_offset 0
 317 002c 7047     		bx	lr
 318              		.cfi_endproc
 319              	.LFE87:
 320              		.size	arm_abs_q7, .-arm_abs_q7
 321              		.global	__aeabi_fadd
 322 002e 00BF     		.section	.text.arm_add_f32,"ax",%progbits
 323              		.align	2
 324              		.global	arm_add_f32
 325              		.thumb
 326              		.thumb_func
 327              		.type	arm_add_f32, %function
 328              	arm_add_f32:
 329              	.LFB88:
 330              		.file 6 ".\\DSP\\Source\\BasicMathFunctions\\arm_add_f32.c"
   1:.\DSP\Source\BasicMathFunctions/arm_add_f32.c **** /* ----------------------------------------------------------------------
   2:.\DSP\Source\BasicMathFunctions/arm_add_f32.c ****  * Project:      CMSIS DSP Library
   3:.\DSP\Source\BasicMathFunctions/arm_add_f32.c ****  * Title:        arm_add_f32.c
   4:.\DSP\Source\BasicMathFunctions/arm_add_f32.c ****  * Description:  Floating-point vector addition
   5:.\DSP\Source\BasicMathFunctions/arm_add_f32.c ****  *
   6:.\DSP\Source\BasicMathFunctions/arm_add_f32.c ****  * $Date:        23 April 2021
   7:.\DSP\Source\BasicMathFunctions/arm_add_f32.c ****  * $Revision:    V1.9.0
   8:.\DSP\Source\BasicMathFunctions/arm_add_f32.c ****  *
   9:.\DSP\Source\BasicMathFunctions/arm_add_f32.c ****  * Target Processor: Cortex-M and Cortex-A cores
  10:.\DSP\Source\BasicMathFunctions/arm_add_f32.c ****  * -------------------------------------------------------------------- */
  11:.\DSP\Source\BasicMathFunctions/arm_add_f32.c **** /*
  12:.\DSP\Source\BasicMathFunctions/arm_add_f32.c ****  * Copyright (C) 2010-2021 ARM Limited or its affiliates. All rights reserved.
  13:.\DSP\Source\BasicMathFunctions/arm_add_f32.c ****  *
  14:.\DSP\Source\BasicMathFunctions/arm_add_f32.c ****  * SPDX-License-Identifier: Apache-2.0
  15:.\DSP\Source\BasicMathFunctions/arm_add_f32.c ****  *
  16:.\DSP\Source\BasicMathFunctions/arm_add_f32.c ****  * Licensed under the Apache License, Version 2.0 (the License); you may
  17:.\DSP\Source\BasicMathFunctions/arm_add_f32.c ****  * not use this file except in compliance with the License.
  18:.\DSP\Source\BasicMathFunctions/arm_add_f32.c ****  * You may obtain a copy of the License at
  19:.\DSP\Source\BasicMathFunctions/arm_add_f32.c ****  *
  20:.\DSP\Source\BasicMathFunctions/arm_add_f32.c ****  * www.apache.org/licenses/LICENSE-2.0
  21:.\DSP\Source\BasicMathFunctions/arm_add_f32.c ****  *
  22:.\DSP\Source\BasicMathFunctions/arm_add_f32.c ****  * Unless required by applicable law or agreed to in writing, software
  23:.\DSP\Source\BasicMathFunctions/arm_add_f32.c ****  * distributed under the License is distributed on an AS IS BASIS, WITHOUT
  24:.\DSP\Source\BasicMathFunctions/arm_add_f32.c ****  * WARRANTIES OR CONDITIONS OF ANY KIND, either express or implied.
  25:.\DSP\Source\BasicMathFunctions/arm_add_f32.c ****  * See the License for the specific language governing permissions and
  26:.\DSP\Source\BasicMathFunctions/arm_add_f32.c ****  * limitations under the License.
  27:.\DSP\Source\BasicMathFunctions/arm_add_f32.c ****  */
  28:.\DSP\Source\BasicMathFunctions/arm_add_f32.c **** 
  29:.\DSP\Source\BasicMathFunctions/arm_add_f32.c **** #include "dsp/basic_math_functions.h"
  30:.\DSP\Source\BasicMathFunctions/arm_add_f32.c **** 
  31:.\DSP\Source\BasicMathFunctions/arm_add_f32.c **** /**
  32:.\DSP\Source\BasicMathFunctions/arm_add_f32.c ****   @ingroup groupMath
  33:.\DSP\Source\BasicMathFunctions/arm_add_f32.c ****  */
  34:.\DSP\Source\BasicMathFunctions/arm_add_f32.c **** 
  35:.\DSP\Source\BasicMathFunctions/arm_add_f32.c **** /**
  36:.\DSP\Source\BasicMathFunctions/arm_add_f32.c ****   @defgroup BasicAdd Vector Addition
  37:.\DSP\Source\BasicMathFunctions/arm_add_f32.c **** 
  38:.\DSP\Source\BasicMathFunctions/arm_add_f32.c ****   Element-by-element addition of two vectors.
  39:.\DSP\Source\BasicMathFunctions/arm_add_f32.c **** 
  40:.\DSP\Source\BasicMathFunctions/arm_add_f32.c ****   <pre>
ARM GAS  C:\Users\IVYLIU~1\AppData\Local\Temp\cc7gzL6d.s 			page 22


  41:.\DSP\Source\BasicMathFunctions/arm_add_f32.c ****       pDst[n] = pSrcA[n] + pSrcB[n],   0 <= n < blockSize.
  42:.\DSP\Source\BasicMathFunctions/arm_add_f32.c ****   </pre>
  43:.\DSP\Source\BasicMathFunctions/arm_add_f32.c **** 
  44:.\DSP\Source\BasicMathFunctions/arm_add_f32.c ****   There are separate functions for floating-point, Q7, Q15, and Q31 data types.
  45:.\DSP\Source\BasicMathFunctions/arm_add_f32.c ****  */
  46:.\DSP\Source\BasicMathFunctions/arm_add_f32.c **** 
  47:.\DSP\Source\BasicMathFunctions/arm_add_f32.c **** /**
  48:.\DSP\Source\BasicMathFunctions/arm_add_f32.c ****   @addtogroup BasicAdd
  49:.\DSP\Source\BasicMathFunctions/arm_add_f32.c ****   @{
  50:.\DSP\Source\BasicMathFunctions/arm_add_f32.c ****  */
  51:.\DSP\Source\BasicMathFunctions/arm_add_f32.c **** 
  52:.\DSP\Source\BasicMathFunctions/arm_add_f32.c **** /**
  53:.\DSP\Source\BasicMathFunctions/arm_add_f32.c ****   @brief         Floating-point vector addition.
  54:.\DSP\Source\BasicMathFunctions/arm_add_f32.c ****   @param[in]     pSrcA      points to first input vector
  55:.\DSP\Source\BasicMathFunctions/arm_add_f32.c ****   @param[in]     pSrcB      points to second input vector
  56:.\DSP\Source\BasicMathFunctions/arm_add_f32.c ****   @param[out]    pDst       points to output vector
  57:.\DSP\Source\BasicMathFunctions/arm_add_f32.c ****   @param[in]     blockSize  number of samples in each vector
  58:.\DSP\Source\BasicMathFunctions/arm_add_f32.c ****   @return        none
  59:.\DSP\Source\BasicMathFunctions/arm_add_f32.c ****  */
  60:.\DSP\Source\BasicMathFunctions/arm_add_f32.c **** 
  61:.\DSP\Source\BasicMathFunctions/arm_add_f32.c **** #if defined(ARM_MATH_MVEF) && !defined(ARM_MATH_AUTOVECTORIZE)
  62:.\DSP\Source\BasicMathFunctions/arm_add_f32.c **** 
  63:.\DSP\Source\BasicMathFunctions/arm_add_f32.c **** #include "arm_helium_utils.h"
  64:.\DSP\Source\BasicMathFunctions/arm_add_f32.c **** 
  65:.\DSP\Source\BasicMathFunctions/arm_add_f32.c **** void arm_add_f32(
  66:.\DSP\Source\BasicMathFunctions/arm_add_f32.c ****   const float32_t * pSrcA,
  67:.\DSP\Source\BasicMathFunctions/arm_add_f32.c ****   const float32_t * pSrcB,
  68:.\DSP\Source\BasicMathFunctions/arm_add_f32.c ****         float32_t * pDst,
  69:.\DSP\Source\BasicMathFunctions/arm_add_f32.c ****         uint32_t blockSize)
  70:.\DSP\Source\BasicMathFunctions/arm_add_f32.c **** {
  71:.\DSP\Source\BasicMathFunctions/arm_add_f32.c ****     uint32_t blkCnt;                               /* Loop counter */
  72:.\DSP\Source\BasicMathFunctions/arm_add_f32.c **** 
  73:.\DSP\Source\BasicMathFunctions/arm_add_f32.c ****     f32x4_t vec1;
  74:.\DSP\Source\BasicMathFunctions/arm_add_f32.c ****     f32x4_t vec2;
  75:.\DSP\Source\BasicMathFunctions/arm_add_f32.c ****     f32x4_t res;
  76:.\DSP\Source\BasicMathFunctions/arm_add_f32.c **** 
  77:.\DSP\Source\BasicMathFunctions/arm_add_f32.c ****     /* Compute 4 outputs at a time */
  78:.\DSP\Source\BasicMathFunctions/arm_add_f32.c ****     blkCnt = blockSize >> 2U;
  79:.\DSP\Source\BasicMathFunctions/arm_add_f32.c **** 
  80:.\DSP\Source\BasicMathFunctions/arm_add_f32.c ****     while (blkCnt > 0U)
  81:.\DSP\Source\BasicMathFunctions/arm_add_f32.c ****     {
  82:.\DSP\Source\BasicMathFunctions/arm_add_f32.c ****         /* C = A + B */
  83:.\DSP\Source\BasicMathFunctions/arm_add_f32.c **** 
  84:.\DSP\Source\BasicMathFunctions/arm_add_f32.c ****         /* Add and then store the results in the destination buffer. */
  85:.\DSP\Source\BasicMathFunctions/arm_add_f32.c ****         vec1 = vld1q(pSrcA);
  86:.\DSP\Source\BasicMathFunctions/arm_add_f32.c ****         vec2 = vld1q(pSrcB);
  87:.\DSP\Source\BasicMathFunctions/arm_add_f32.c ****         res = vaddq(vec1, vec2);
  88:.\DSP\Source\BasicMathFunctions/arm_add_f32.c ****         vst1q(pDst, res);
  89:.\DSP\Source\BasicMathFunctions/arm_add_f32.c **** 
  90:.\DSP\Source\BasicMathFunctions/arm_add_f32.c ****         /* Increment pointers */
  91:.\DSP\Source\BasicMathFunctions/arm_add_f32.c ****         pSrcA += 4;
  92:.\DSP\Source\BasicMathFunctions/arm_add_f32.c ****         pSrcB += 4; 
  93:.\DSP\Source\BasicMathFunctions/arm_add_f32.c ****         pDst += 4;
  94:.\DSP\Source\BasicMathFunctions/arm_add_f32.c ****         
  95:.\DSP\Source\BasicMathFunctions/arm_add_f32.c ****         /* Decrement the loop counter */
  96:.\DSP\Source\BasicMathFunctions/arm_add_f32.c ****         blkCnt--;
  97:.\DSP\Source\BasicMathFunctions/arm_add_f32.c ****     }
ARM GAS  C:\Users\IVYLIU~1\AppData\Local\Temp\cc7gzL6d.s 			page 23


  98:.\DSP\Source\BasicMathFunctions/arm_add_f32.c **** 
  99:.\DSP\Source\BasicMathFunctions/arm_add_f32.c ****     /* Tail */
 100:.\DSP\Source\BasicMathFunctions/arm_add_f32.c ****     blkCnt = blockSize & 0x3;
 101:.\DSP\Source\BasicMathFunctions/arm_add_f32.c **** 
 102:.\DSP\Source\BasicMathFunctions/arm_add_f32.c ****     if (blkCnt > 0U)
 103:.\DSP\Source\BasicMathFunctions/arm_add_f32.c ****     {
 104:.\DSP\Source\BasicMathFunctions/arm_add_f32.c ****       /* C = A + B */
 105:.\DSP\Source\BasicMathFunctions/arm_add_f32.c ****       mve_pred16_t p0 = vctp32q(blkCnt);
 106:.\DSP\Source\BasicMathFunctions/arm_add_f32.c ****       vec1 = vld1q(pSrcA);
 107:.\DSP\Source\BasicMathFunctions/arm_add_f32.c ****       vec2 = vld1q(pSrcB);
 108:.\DSP\Source\BasicMathFunctions/arm_add_f32.c ****       vstrwq_p(pDst, vaddq(vec1,vec2), p0);
 109:.\DSP\Source\BasicMathFunctions/arm_add_f32.c ****     }
 110:.\DSP\Source\BasicMathFunctions/arm_add_f32.c **** 
 111:.\DSP\Source\BasicMathFunctions/arm_add_f32.c **** }
 112:.\DSP\Source\BasicMathFunctions/arm_add_f32.c **** 
 113:.\DSP\Source\BasicMathFunctions/arm_add_f32.c **** #else
 114:.\DSP\Source\BasicMathFunctions/arm_add_f32.c **** void arm_add_f32(
 115:.\DSP\Source\BasicMathFunctions/arm_add_f32.c ****   const float32_t * pSrcA,
 116:.\DSP\Source\BasicMathFunctions/arm_add_f32.c ****   const float32_t * pSrcB,
 117:.\DSP\Source\BasicMathFunctions/arm_add_f32.c ****         float32_t * pDst,
 118:.\DSP\Source\BasicMathFunctions/arm_add_f32.c ****         uint32_t blockSize)
 119:.\DSP\Source\BasicMathFunctions/arm_add_f32.c **** {
 331              		.loc 6 119 0
 332              		.cfi_startproc
 333              		@ args = 0, pretend = 0, frame = 0
 334              		@ frame_needed = 0, uses_anonymous_args = 0
 335              	.LVL45:
 336 0000 2DE9F041 		push	{r4, r5, r6, r7, r8, lr}
 337              		.cfi_def_cfa_offset 24
 338              		.cfi_offset 4, -24
 339              		.cfi_offset 5, -20
 340              		.cfi_offset 6, -16
 341              		.cfi_offset 7, -12
 342              		.cfi_offset 8, -8
 343              		.cfi_offset 14, -4
 344 0004 1546     		mov	r5, r2
 345 0006 1C46     		mov	r4, r3
 346              	.LVL46:
 120:.\DSP\Source\BasicMathFunctions/arm_add_f32.c ****         uint32_t blkCnt;                               /* Loop counter */
 121:.\DSP\Source\BasicMathFunctions/arm_add_f32.c **** 
 122:.\DSP\Source\BasicMathFunctions/arm_add_f32.c **** #if defined(ARM_MATH_NEON) && !defined(ARM_MATH_AUTOVECTORIZE)
 123:.\DSP\Source\BasicMathFunctions/arm_add_f32.c ****     f32x4_t vec1;
 124:.\DSP\Source\BasicMathFunctions/arm_add_f32.c ****     f32x4_t vec2;
 125:.\DSP\Source\BasicMathFunctions/arm_add_f32.c ****     f32x4_t res;
 126:.\DSP\Source\BasicMathFunctions/arm_add_f32.c **** 
 127:.\DSP\Source\BasicMathFunctions/arm_add_f32.c ****     /* Compute 4 outputs at a time */
 128:.\DSP\Source\BasicMathFunctions/arm_add_f32.c ****     blkCnt = blockSize >> 2U;
 129:.\DSP\Source\BasicMathFunctions/arm_add_f32.c **** 
 130:.\DSP\Source\BasicMathFunctions/arm_add_f32.c ****     while (blkCnt > 0U)
 131:.\DSP\Source\BasicMathFunctions/arm_add_f32.c ****     {
 132:.\DSP\Source\BasicMathFunctions/arm_add_f32.c ****         /* C = A + B */
 133:.\DSP\Source\BasicMathFunctions/arm_add_f32.c **** 
 134:.\DSP\Source\BasicMathFunctions/arm_add_f32.c ****     	/* Add and then store the results in the destination buffer. */
 135:.\DSP\Source\BasicMathFunctions/arm_add_f32.c ****         vec1 = vld1q_f32(pSrcA);
 136:.\DSP\Source\BasicMathFunctions/arm_add_f32.c ****         vec2 = vld1q_f32(pSrcB);
 137:.\DSP\Source\BasicMathFunctions/arm_add_f32.c ****         res = vaddq_f32(vec1, vec2);
 138:.\DSP\Source\BasicMathFunctions/arm_add_f32.c ****         vst1q_f32(pDst, res);
ARM GAS  C:\Users\IVYLIU~1\AppData\Local\Temp\cc7gzL6d.s 			page 24


 139:.\DSP\Source\BasicMathFunctions/arm_add_f32.c **** 
 140:.\DSP\Source\BasicMathFunctions/arm_add_f32.c ****         /* Increment pointers */
 141:.\DSP\Source\BasicMathFunctions/arm_add_f32.c ****         pSrcA += 4;
 142:.\DSP\Source\BasicMathFunctions/arm_add_f32.c ****         pSrcB += 4; 
 143:.\DSP\Source\BasicMathFunctions/arm_add_f32.c ****         pDst += 4;
 144:.\DSP\Source\BasicMathFunctions/arm_add_f32.c ****         
 145:.\DSP\Source\BasicMathFunctions/arm_add_f32.c ****         /* Decrement the loop counter */
 146:.\DSP\Source\BasicMathFunctions/arm_add_f32.c ****         blkCnt--;
 147:.\DSP\Source\BasicMathFunctions/arm_add_f32.c ****     }
 148:.\DSP\Source\BasicMathFunctions/arm_add_f32.c **** 
 149:.\DSP\Source\BasicMathFunctions/arm_add_f32.c ****     /* Tail */
 150:.\DSP\Source\BasicMathFunctions/arm_add_f32.c ****     blkCnt = blockSize & 0x3;
 151:.\DSP\Source\BasicMathFunctions/arm_add_f32.c **** 
 152:.\DSP\Source\BasicMathFunctions/arm_add_f32.c **** #else
 153:.\DSP\Source\BasicMathFunctions/arm_add_f32.c **** #if defined (ARM_MATH_LOOPUNROLL) && !defined(ARM_MATH_AUTOVECTORIZE)
 154:.\DSP\Source\BasicMathFunctions/arm_add_f32.c **** 
 155:.\DSP\Source\BasicMathFunctions/arm_add_f32.c ****   /* Loop unrolling: Compute 4 outputs at a time */
 156:.\DSP\Source\BasicMathFunctions/arm_add_f32.c ****   blkCnt = blockSize >> 2U;
 157:.\DSP\Source\BasicMathFunctions/arm_add_f32.c **** 
 158:.\DSP\Source\BasicMathFunctions/arm_add_f32.c ****   while (blkCnt > 0U)
 159:.\DSP\Source\BasicMathFunctions/arm_add_f32.c ****   {
 160:.\DSP\Source\BasicMathFunctions/arm_add_f32.c ****     /* C = A + B */
 161:.\DSP\Source\BasicMathFunctions/arm_add_f32.c **** 
 162:.\DSP\Source\BasicMathFunctions/arm_add_f32.c ****     /* Add and store result in destination buffer. */
 163:.\DSP\Source\BasicMathFunctions/arm_add_f32.c ****     *pDst++ = (*pSrcA++) + (*pSrcB++);
 164:.\DSP\Source\BasicMathFunctions/arm_add_f32.c ****     *pDst++ = (*pSrcA++) + (*pSrcB++);
 165:.\DSP\Source\BasicMathFunctions/arm_add_f32.c ****     *pDst++ = (*pSrcA++) + (*pSrcB++);
 166:.\DSP\Source\BasicMathFunctions/arm_add_f32.c ****     *pDst++ = (*pSrcA++) + (*pSrcB++);
 167:.\DSP\Source\BasicMathFunctions/arm_add_f32.c **** 
 168:.\DSP\Source\BasicMathFunctions/arm_add_f32.c ****     /* Decrement loop counter */
 169:.\DSP\Source\BasicMathFunctions/arm_add_f32.c ****     blkCnt--;
 170:.\DSP\Source\BasicMathFunctions/arm_add_f32.c ****   }
 171:.\DSP\Source\BasicMathFunctions/arm_add_f32.c **** 
 172:.\DSP\Source\BasicMathFunctions/arm_add_f32.c ****   /* Loop unrolling: Compute remaining outputs */
 173:.\DSP\Source\BasicMathFunctions/arm_add_f32.c ****   blkCnt = blockSize % 0x4U;
 174:.\DSP\Source\BasicMathFunctions/arm_add_f32.c **** 
 175:.\DSP\Source\BasicMathFunctions/arm_add_f32.c **** #else
 176:.\DSP\Source\BasicMathFunctions/arm_add_f32.c **** 
 177:.\DSP\Source\BasicMathFunctions/arm_add_f32.c ****   /* Initialize blkCnt with number of samples */
 178:.\DSP\Source\BasicMathFunctions/arm_add_f32.c ****   blkCnt = blockSize;
 179:.\DSP\Source\BasicMathFunctions/arm_add_f32.c **** 
 180:.\DSP\Source\BasicMathFunctions/arm_add_f32.c **** #endif /* #if defined (ARM_MATH_LOOPUNROLL) */
 181:.\DSP\Source\BasicMathFunctions/arm_add_f32.c **** #endif /* #if defined(ARM_MATH_NEON) */
 182:.\DSP\Source\BasicMathFunctions/arm_add_f32.c **** 
 183:.\DSP\Source\BasicMathFunctions/arm_add_f32.c ****   while (blkCnt > 0U)
 347              		.loc 6 183 0
 348 0008 0CE0     		b	.L33
 349              	.LVL47:
 350              	.L34:
 184:.\DSP\Source\BasicMathFunctions/arm_add_f32.c ****   {
 185:.\DSP\Source\BasicMathFunctions/arm_add_f32.c ****     /* C = A + B */
 186:.\DSP\Source\BasicMathFunctions/arm_add_f32.c **** 
 187:.\DSP\Source\BasicMathFunctions/arm_add_f32.c ****     /* Add and store result in destination buffer. */
 188:.\DSP\Source\BasicMathFunctions/arm_add_f32.c ****     *pDst++ = (*pSrcA++) + (*pSrcB++);
 351              		.loc 6 188 0
 352 000a 05F10408 		add	r8, r5, #4
 353              	.LVL48:
ARM GAS  C:\Users\IVYLIU~1\AppData\Local\Temp\cc7gzL6d.s 			page 25


 354 000e 061D     		adds	r6, r0, #4
 355              	.LVL49:
 356 0010 0F1D     		adds	r7, r1, #4
 357              	.LVL50:
 358 0012 0068     		ldr	r0, [r0]	@ float
 359 0014 0968     		ldr	r1, [r1]	@ float
 360 0016 FFF7FEFF 		bl	__aeabi_fadd
 361              	.LVL51:
 362 001a 2860     		str	r0, [r5]	@ float
 189:.\DSP\Source\BasicMathFunctions/arm_add_f32.c **** 
 190:.\DSP\Source\BasicMathFunctions/arm_add_f32.c ****     /* Decrement loop counter */
 191:.\DSP\Source\BasicMathFunctions/arm_add_f32.c ****     blkCnt--;
 363              		.loc 6 191 0
 364 001c 013C     		subs	r4, r4, #1
 365              	.LVL52:
 188:.\DSP\Source\BasicMathFunctions/arm_add_f32.c **** 
 366              		.loc 6 188 0
 367 001e 4546     		mov	r5, r8
 368 0020 3946     		mov	r1, r7
 369 0022 3046     		mov	r0, r6
 370              	.LVL53:
 371              	.L33:
 183:.\DSP\Source\BasicMathFunctions/arm_add_f32.c ****   {
 372              		.loc 6 183 0
 373 0024 002C     		cmp	r4, #0
 374 0026 F0D1     		bne	.L34
 192:.\DSP\Source\BasicMathFunctions/arm_add_f32.c ****   }
 193:.\DSP\Source\BasicMathFunctions/arm_add_f32.c **** 
 194:.\DSP\Source\BasicMathFunctions/arm_add_f32.c **** }
 375              		.loc 6 194 0
 376 0028 BDE8F081 		pop	{r4, r5, r6, r7, r8, pc}
 377              		.cfi_endproc
 378              	.LFE88:
 379              		.size	arm_add_f32, .-arm_add_f32
 380              		.global	__aeabi_dadd
 381              		.section	.text.arm_add_f64,"ax",%progbits
 382              		.align	2
 383              		.global	arm_add_f64
 384              		.thumb
 385              		.thumb_func
 386              		.type	arm_add_f64, %function
 387              	arm_add_f64:
 388              	.LFB89:
 389              		.file 7 ".\\DSP\\Source\\BasicMathFunctions\\arm_add_f64.c"
   1:.\DSP\Source\BasicMathFunctions/arm_add_f64.c **** /* ----------------------------------------------------------------------
   2:.\DSP\Source\BasicMathFunctions/arm_add_f64.c ****  * Project:      CMSIS DSP Library
   3:.\DSP\Source\BasicMathFunctions/arm_add_f64.c ****  * Title:        arm_add_f64.c
   4:.\DSP\Source\BasicMathFunctions/arm_add_f64.c ****  * Description:  Floating-point vector addition
   5:.\DSP\Source\BasicMathFunctions/arm_add_f64.c ****  *
   6:.\DSP\Source\BasicMathFunctions/arm_add_f64.c ****  * $Date:        13 September 2021
   7:.\DSP\Source\BasicMathFunctions/arm_add_f64.c ****  * $Revision:    V1.10.0
   8:.\DSP\Source\BasicMathFunctions/arm_add_f64.c ****  *
   9:.\DSP\Source\BasicMathFunctions/arm_add_f64.c ****  * Target Processor: Cortex-M and Cortex-A cores
  10:.\DSP\Source\BasicMathFunctions/arm_add_f64.c ****  * -------------------------------------------------------------------- */
  11:.\DSP\Source\BasicMathFunctions/arm_add_f64.c **** /*
  12:.\DSP\Source\BasicMathFunctions/arm_add_f64.c ****  * Copyright (C) 2010-2021 ARM Limited or its affiliates. All rights reserved.
  13:.\DSP\Source\BasicMathFunctions/arm_add_f64.c ****  *
ARM GAS  C:\Users\IVYLIU~1\AppData\Local\Temp\cc7gzL6d.s 			page 26


  14:.\DSP\Source\BasicMathFunctions/arm_add_f64.c ****  * SPDX-License-Identifier: Apache-2.0
  15:.\DSP\Source\BasicMathFunctions/arm_add_f64.c ****  *
  16:.\DSP\Source\BasicMathFunctions/arm_add_f64.c ****  * Licensed under the Apache License, Version 2.0 (the License); you may
  17:.\DSP\Source\BasicMathFunctions/arm_add_f64.c ****  * not use this file except in compliance with the License.
  18:.\DSP\Source\BasicMathFunctions/arm_add_f64.c ****  * You may obtain a copy of the License at
  19:.\DSP\Source\BasicMathFunctions/arm_add_f64.c ****  *
  20:.\DSP\Source\BasicMathFunctions/arm_add_f64.c ****  * www.apache.org/licenses/LICENSE-2.0
  21:.\DSP\Source\BasicMathFunctions/arm_add_f64.c ****  *
  22:.\DSP\Source\BasicMathFunctions/arm_add_f64.c ****  * Unless required by applicable law or agreed to in writing, software
  23:.\DSP\Source\BasicMathFunctions/arm_add_f64.c ****  * distributed under the License is distributed on an AS IS BASIS, WITHOUT
  24:.\DSP\Source\BasicMathFunctions/arm_add_f64.c ****  * WARRANTIES OR CONDITIONS OF ANY KIND, either express or implied.
  25:.\DSP\Source\BasicMathFunctions/arm_add_f64.c ****  * See the License for the specific language governing permissions and
  26:.\DSP\Source\BasicMathFunctions/arm_add_f64.c ****  * limitations under the License.
  27:.\DSP\Source\BasicMathFunctions/arm_add_f64.c ****  */
  28:.\DSP\Source\BasicMathFunctions/arm_add_f64.c **** 
  29:.\DSP\Source\BasicMathFunctions/arm_add_f64.c **** #include "dsp/basic_math_functions.h"
  30:.\DSP\Source\BasicMathFunctions/arm_add_f64.c **** 
  31:.\DSP\Source\BasicMathFunctions/arm_add_f64.c **** /**
  32:.\DSP\Source\BasicMathFunctions/arm_add_f64.c ****   @ingroup groupMath
  33:.\DSP\Source\BasicMathFunctions/arm_add_f64.c ****  */
  34:.\DSP\Source\BasicMathFunctions/arm_add_f64.c **** 
  35:.\DSP\Source\BasicMathFunctions/arm_add_f64.c **** /**
  36:.\DSP\Source\BasicMathFunctions/arm_add_f64.c ****   @addtogroup BasicAdd
  37:.\DSP\Source\BasicMathFunctions/arm_add_f64.c ****   @{
  38:.\DSP\Source\BasicMathFunctions/arm_add_f64.c ****  */
  39:.\DSP\Source\BasicMathFunctions/arm_add_f64.c **** 
  40:.\DSP\Source\BasicMathFunctions/arm_add_f64.c **** /**
  41:.\DSP\Source\BasicMathFunctions/arm_add_f64.c ****   @brief         Floating-point vector addition.
  42:.\DSP\Source\BasicMathFunctions/arm_add_f64.c ****   @param[in]     pSrcA      points to first input vector
  43:.\DSP\Source\BasicMathFunctions/arm_add_f64.c ****   @param[in]     pSrcB      points to second input vector
  44:.\DSP\Source\BasicMathFunctions/arm_add_f64.c ****   @param[out]    pDst       points to output vector
  45:.\DSP\Source\BasicMathFunctions/arm_add_f64.c ****   @param[in]     blockSize  number of samples in each vector
  46:.\DSP\Source\BasicMathFunctions/arm_add_f64.c ****   @return        none
  47:.\DSP\Source\BasicMathFunctions/arm_add_f64.c ****  */
  48:.\DSP\Source\BasicMathFunctions/arm_add_f64.c **** 
  49:.\DSP\Source\BasicMathFunctions/arm_add_f64.c **** void arm_add_f64(
  50:.\DSP\Source\BasicMathFunctions/arm_add_f64.c ****   const float64_t * pSrcA,
  51:.\DSP\Source\BasicMathFunctions/arm_add_f64.c ****   const float64_t * pSrcB,
  52:.\DSP\Source\BasicMathFunctions/arm_add_f64.c ****         float64_t * pDst,
  53:.\DSP\Source\BasicMathFunctions/arm_add_f64.c ****         uint32_t blockSize)
  54:.\DSP\Source\BasicMathFunctions/arm_add_f64.c **** {
 390              		.loc 7 54 0
 391              		.cfi_startproc
 392              		@ args = 0, pretend = 0, frame = 0
 393              		@ frame_needed = 0, uses_anonymous_args = 0
 394              	.LVL54:
 395 0000 2DE9F843 		push	{r3, r4, r5, r6, r7, r8, r9, lr}
 396              		.cfi_def_cfa_offset 32
 397              		.cfi_offset 3, -32
 398              		.cfi_offset 4, -28
 399              		.cfi_offset 5, -24
 400              		.cfi_offset 6, -20
 401              		.cfi_offset 7, -16
 402              		.cfi_offset 8, -12
 403              		.cfi_offset 9, -8
 404              		.cfi_offset 14, -4
 405 0004 0E46     		mov	r6, r1
ARM GAS  C:\Users\IVYLIU~1\AppData\Local\Temp\cc7gzL6d.s 			page 27


 406 0006 1546     		mov	r5, r2
 407 0008 1C46     		mov	r4, r3
 408              	.LVL55:
  55:.\DSP\Source\BasicMathFunctions/arm_add_f64.c ****   uint32_t blkCnt;                               /* Loop counter */
  56:.\DSP\Source\BasicMathFunctions/arm_add_f64.c **** 
  57:.\DSP\Source\BasicMathFunctions/arm_add_f64.c ****   /* Initialize blkCnt with number of samples */
  58:.\DSP\Source\BasicMathFunctions/arm_add_f64.c ****   blkCnt = blockSize;
  59:.\DSP\Source\BasicMathFunctions/arm_add_f64.c **** 
  60:.\DSP\Source\BasicMathFunctions/arm_add_f64.c ****   while (blkCnt > 0U)
 409              		.loc 7 60 0
 410 000a 10E0     		b	.L37
 411              	.LVL56:
 412              	.L38:
  61:.\DSP\Source\BasicMathFunctions/arm_add_f64.c ****   {
  62:.\DSP\Source\BasicMathFunctions/arm_add_f64.c ****     /* C = A + B */
  63:.\DSP\Source\BasicMathFunctions/arm_add_f64.c **** 
  64:.\DSP\Source\BasicMathFunctions/arm_add_f64.c ****     /* Add and store result in destination buffer. */
  65:.\DSP\Source\BasicMathFunctions/arm_add_f64.c ****     *pDst++ = (*pSrcA++) + (*pSrcB++);
 413              		.loc 7 65 0
 414 000c 05F10809 		add	r9, r5, #8
 415              	.LVL57:
 416 0010 00F10807 		add	r7, r0, #8
 417              	.LVL58:
 418 0014 06F10808 		add	r8, r6, #8
 419              	.LVL59:
 420 0018 03C8     		ldmia	r0, {r0-r1}
 421 001a D6E90023 		ldrd	r2, [r6]
 422 001e FFF7FEFF 		bl	__aeabi_dadd
 423              	.LVL60:
 424 0022 C5E90001 		strd	r0, [r5]
  66:.\DSP\Source\BasicMathFunctions/arm_add_f64.c **** 
  67:.\DSP\Source\BasicMathFunctions/arm_add_f64.c ****     /* Decrement loop counter */
  68:.\DSP\Source\BasicMathFunctions/arm_add_f64.c ****     blkCnt--;
 425              		.loc 7 68 0
 426 0026 013C     		subs	r4, r4, #1
 427              	.LVL61:
  65:.\DSP\Source\BasicMathFunctions/arm_add_f64.c **** 
 428              		.loc 7 65 0
 429 0028 4D46     		mov	r5, r9
 430 002a 4646     		mov	r6, r8
 431 002c 3846     		mov	r0, r7
 432              	.LVL62:
 433              	.L37:
  60:.\DSP\Source\BasicMathFunctions/arm_add_f64.c ****   {
 434              		.loc 7 60 0
 435 002e 002C     		cmp	r4, #0
 436 0030 ECD1     		bne	.L38
  69:.\DSP\Source\BasicMathFunctions/arm_add_f64.c ****   }
  70:.\DSP\Source\BasicMathFunctions/arm_add_f64.c **** 
  71:.\DSP\Source\BasicMathFunctions/arm_add_f64.c **** }
 437              		.loc 7 71 0
 438 0032 BDE8F883 		pop	{r3, r4, r5, r6, r7, r8, r9, pc}
 439              		.cfi_endproc
 440              	.LFE89:
 441              		.size	arm_add_f64, .-arm_add_f64
 442 0036 00BF     		.section	.text.arm_add_q15,"ax",%progbits
 443              		.align	2
ARM GAS  C:\Users\IVYLIU~1\AppData\Local\Temp\cc7gzL6d.s 			page 28


 444              		.global	arm_add_q15
 445              		.thumb
 446              		.thumb_func
 447              		.type	arm_add_q15, %function
 448              	arm_add_q15:
 449              	.LFB90:
 450              		.file 8 ".\\DSP\\Source\\BasicMathFunctions\\arm_add_q15.c"
   1:.\DSP\Source\BasicMathFunctions/arm_add_q15.c **** /* ----------------------------------------------------------------------
   2:.\DSP\Source\BasicMathFunctions/arm_add_q15.c ****  * Project:      CMSIS DSP Library
   3:.\DSP\Source\BasicMathFunctions/arm_add_q15.c ****  * Title:        arm_add_q15.c
   4:.\DSP\Source\BasicMathFunctions/arm_add_q15.c ****  * Description:  Q15 vector addition
   5:.\DSP\Source\BasicMathFunctions/arm_add_q15.c ****  *
   6:.\DSP\Source\BasicMathFunctions/arm_add_q15.c ****  * $Date:        23 April 2021
   7:.\DSP\Source\BasicMathFunctions/arm_add_q15.c ****  * $Revision:    V1.9.0
   8:.\DSP\Source\BasicMathFunctions/arm_add_q15.c ****  *
   9:.\DSP\Source\BasicMathFunctions/arm_add_q15.c ****  * Target Processor: Cortex-M and Cortex-A cores
  10:.\DSP\Source\BasicMathFunctions/arm_add_q15.c ****  * -------------------------------------------------------------------- */
  11:.\DSP\Source\BasicMathFunctions/arm_add_q15.c **** /*
  12:.\DSP\Source\BasicMathFunctions/arm_add_q15.c ****  * Copyright (C) 2010-2021 ARM Limited or its affiliates. All rights reserved.
  13:.\DSP\Source\BasicMathFunctions/arm_add_q15.c ****  *
  14:.\DSP\Source\BasicMathFunctions/arm_add_q15.c ****  * SPDX-License-Identifier: Apache-2.0
  15:.\DSP\Source\BasicMathFunctions/arm_add_q15.c ****  *
  16:.\DSP\Source\BasicMathFunctions/arm_add_q15.c ****  * Licensed under the Apache License, Version 2.0 (the License); you may
  17:.\DSP\Source\BasicMathFunctions/arm_add_q15.c ****  * not use this file except in compliance with the License.
  18:.\DSP\Source\BasicMathFunctions/arm_add_q15.c ****  * You may obtain a copy of the License at
  19:.\DSP\Source\BasicMathFunctions/arm_add_q15.c ****  *
  20:.\DSP\Source\BasicMathFunctions/arm_add_q15.c ****  * www.apache.org/licenses/LICENSE-2.0
  21:.\DSP\Source\BasicMathFunctions/arm_add_q15.c ****  *
  22:.\DSP\Source\BasicMathFunctions/arm_add_q15.c ****  * Unless required by applicable law or agreed to in writing, software
  23:.\DSP\Source\BasicMathFunctions/arm_add_q15.c ****  * distributed under the License is distributed on an AS IS BASIS, WITHOUT
  24:.\DSP\Source\BasicMathFunctions/arm_add_q15.c ****  * WARRANTIES OR CONDITIONS OF ANY KIND, either express or implied.
  25:.\DSP\Source\BasicMathFunctions/arm_add_q15.c ****  * See the License for the specific language governing permissions and
  26:.\DSP\Source\BasicMathFunctions/arm_add_q15.c ****  * limitations under the License.
  27:.\DSP\Source\BasicMathFunctions/arm_add_q15.c ****  */
  28:.\DSP\Source\BasicMathFunctions/arm_add_q15.c **** 
  29:.\DSP\Source\BasicMathFunctions/arm_add_q15.c **** #include "dsp/basic_math_functions.h"
  30:.\DSP\Source\BasicMathFunctions/arm_add_q15.c **** 
  31:.\DSP\Source\BasicMathFunctions/arm_add_q15.c **** /**
  32:.\DSP\Source\BasicMathFunctions/arm_add_q15.c ****   @ingroup groupMath
  33:.\DSP\Source\BasicMathFunctions/arm_add_q15.c ****  */
  34:.\DSP\Source\BasicMathFunctions/arm_add_q15.c **** 
  35:.\DSP\Source\BasicMathFunctions/arm_add_q15.c **** /**
  36:.\DSP\Source\BasicMathFunctions/arm_add_q15.c ****   @addtogroup BasicAdd
  37:.\DSP\Source\BasicMathFunctions/arm_add_q15.c ****   @{
  38:.\DSP\Source\BasicMathFunctions/arm_add_q15.c ****  */
  39:.\DSP\Source\BasicMathFunctions/arm_add_q15.c **** 
  40:.\DSP\Source\BasicMathFunctions/arm_add_q15.c **** /**
  41:.\DSP\Source\BasicMathFunctions/arm_add_q15.c ****   @brief         Q15 vector addition.
  42:.\DSP\Source\BasicMathFunctions/arm_add_q15.c ****   @param[in]     pSrcA      points to the first input vector
  43:.\DSP\Source\BasicMathFunctions/arm_add_q15.c ****   @param[in]     pSrcB      points to the second input vector
  44:.\DSP\Source\BasicMathFunctions/arm_add_q15.c ****   @param[out]    pDst       points to the output vector
  45:.\DSP\Source\BasicMathFunctions/arm_add_q15.c ****   @param[in]     blockSize  number of samples in each vector
  46:.\DSP\Source\BasicMathFunctions/arm_add_q15.c ****   @return        none
  47:.\DSP\Source\BasicMathFunctions/arm_add_q15.c **** 
  48:.\DSP\Source\BasicMathFunctions/arm_add_q15.c ****   @par           Scaling and Overflow Behavior
  49:.\DSP\Source\BasicMathFunctions/arm_add_q15.c ****                    The function uses saturating arithmetic.
  50:.\DSP\Source\BasicMathFunctions/arm_add_q15.c ****                    Results outside of the allowable Q15 range [0x8000 0x7FFF] are saturated.
ARM GAS  C:\Users\IVYLIU~1\AppData\Local\Temp\cc7gzL6d.s 			page 29


  51:.\DSP\Source\BasicMathFunctions/arm_add_q15.c ****  */
  52:.\DSP\Source\BasicMathFunctions/arm_add_q15.c **** 
  53:.\DSP\Source\BasicMathFunctions/arm_add_q15.c **** #if defined(ARM_MATH_MVEI) && !defined(ARM_MATH_AUTOVECTORIZE)
  54:.\DSP\Source\BasicMathFunctions/arm_add_q15.c **** 
  55:.\DSP\Source\BasicMathFunctions/arm_add_q15.c **** #include "arm_helium_utils.h"
  56:.\DSP\Source\BasicMathFunctions/arm_add_q15.c **** 
  57:.\DSP\Source\BasicMathFunctions/arm_add_q15.c **** void arm_add_q15(
  58:.\DSP\Source\BasicMathFunctions/arm_add_q15.c ****     const q15_t * pSrcA,
  59:.\DSP\Source\BasicMathFunctions/arm_add_q15.c ****     const q15_t * pSrcB,
  60:.\DSP\Source\BasicMathFunctions/arm_add_q15.c ****     q15_t * pDst,
  61:.\DSP\Source\BasicMathFunctions/arm_add_q15.c ****     uint32_t blockSize)
  62:.\DSP\Source\BasicMathFunctions/arm_add_q15.c **** {
  63:.\DSP\Source\BasicMathFunctions/arm_add_q15.c ****     uint32_t  blkCnt;           /* loop counters */
  64:.\DSP\Source\BasicMathFunctions/arm_add_q15.c ****     q15x8_t vecA;
  65:.\DSP\Source\BasicMathFunctions/arm_add_q15.c ****     q15x8_t vecB;
  66:.\DSP\Source\BasicMathFunctions/arm_add_q15.c **** 
  67:.\DSP\Source\BasicMathFunctions/arm_add_q15.c ****     /* Compute 8 outputs at a time */
  68:.\DSP\Source\BasicMathFunctions/arm_add_q15.c ****     blkCnt = blockSize >> 3;
  69:.\DSP\Source\BasicMathFunctions/arm_add_q15.c ****     while (blkCnt > 0U)
  70:.\DSP\Source\BasicMathFunctions/arm_add_q15.c ****     {
  71:.\DSP\Source\BasicMathFunctions/arm_add_q15.c ****         /*
  72:.\DSP\Source\BasicMathFunctions/arm_add_q15.c ****          * C = A + B
  73:.\DSP\Source\BasicMathFunctions/arm_add_q15.c ****          * Add and then store the results in the destination buffer.
  74:.\DSP\Source\BasicMathFunctions/arm_add_q15.c ****          */
  75:.\DSP\Source\BasicMathFunctions/arm_add_q15.c ****         vecA = vld1q(pSrcA);
  76:.\DSP\Source\BasicMathFunctions/arm_add_q15.c ****         vecB = vld1q(pSrcB);
  77:.\DSP\Source\BasicMathFunctions/arm_add_q15.c ****         vst1q(pDst, vqaddq(vecA, vecB));
  78:.\DSP\Source\BasicMathFunctions/arm_add_q15.c ****         /*
  79:.\DSP\Source\BasicMathFunctions/arm_add_q15.c ****          * Decrement the blockSize loop counter
  80:.\DSP\Source\BasicMathFunctions/arm_add_q15.c ****          */
  81:.\DSP\Source\BasicMathFunctions/arm_add_q15.c ****         blkCnt--;
  82:.\DSP\Source\BasicMathFunctions/arm_add_q15.c ****         /*
  83:.\DSP\Source\BasicMathFunctions/arm_add_q15.c ****          * advance vector source and destination pointers
  84:.\DSP\Source\BasicMathFunctions/arm_add_q15.c ****          */
  85:.\DSP\Source\BasicMathFunctions/arm_add_q15.c ****         pSrcA  += 8;
  86:.\DSP\Source\BasicMathFunctions/arm_add_q15.c ****         pSrcB  += 8;
  87:.\DSP\Source\BasicMathFunctions/arm_add_q15.c ****         pDst   += 8;
  88:.\DSP\Source\BasicMathFunctions/arm_add_q15.c ****     }
  89:.\DSP\Source\BasicMathFunctions/arm_add_q15.c ****     /*
  90:.\DSP\Source\BasicMathFunctions/arm_add_q15.c ****      * tail
  91:.\DSP\Source\BasicMathFunctions/arm_add_q15.c ****      */
  92:.\DSP\Source\BasicMathFunctions/arm_add_q15.c ****     blkCnt = blockSize & 7;
  93:.\DSP\Source\BasicMathFunctions/arm_add_q15.c ****     if (blkCnt > 0U)
  94:.\DSP\Source\BasicMathFunctions/arm_add_q15.c ****     {
  95:.\DSP\Source\BasicMathFunctions/arm_add_q15.c ****         mve_pred16_t p0 = vctp16q(blkCnt);
  96:.\DSP\Source\BasicMathFunctions/arm_add_q15.c ****         vecA = vld1q(pSrcA);
  97:.\DSP\Source\BasicMathFunctions/arm_add_q15.c ****         vecB = vld1q(pSrcB);
  98:.\DSP\Source\BasicMathFunctions/arm_add_q15.c ****         vstrhq_p(pDst, vqaddq(vecA, vecB), p0);
  99:.\DSP\Source\BasicMathFunctions/arm_add_q15.c ****     }
 100:.\DSP\Source\BasicMathFunctions/arm_add_q15.c **** }
 101:.\DSP\Source\BasicMathFunctions/arm_add_q15.c **** 
 102:.\DSP\Source\BasicMathFunctions/arm_add_q15.c **** #else
 103:.\DSP\Source\BasicMathFunctions/arm_add_q15.c **** void arm_add_q15(
 104:.\DSP\Source\BasicMathFunctions/arm_add_q15.c ****   const q15_t * pSrcA,
 105:.\DSP\Source\BasicMathFunctions/arm_add_q15.c ****   const q15_t * pSrcB,
 106:.\DSP\Source\BasicMathFunctions/arm_add_q15.c ****         q15_t * pDst,
 107:.\DSP\Source\BasicMathFunctions/arm_add_q15.c ****         uint32_t blockSize)
ARM GAS  C:\Users\IVYLIU~1\AppData\Local\Temp\cc7gzL6d.s 			page 30


 108:.\DSP\Source\BasicMathFunctions/arm_add_q15.c **** {
 451              		.loc 8 108 0
 452              		.cfi_startproc
 453              		@ args = 0, pretend = 0, frame = 0
 454              		@ frame_needed = 0, uses_anonymous_args = 0
 455              		@ link register save eliminated.
 456              	.LVL63:
 457 0000 E0B4     		push	{r5, r6, r7}
 458              		.cfi_def_cfa_offset 12
 459              		.cfi_offset 5, -12
 460              		.cfi_offset 6, -8
 461              		.cfi_offset 7, -4
 462              	.LVL64:
 109:.\DSP\Source\BasicMathFunctions/arm_add_q15.c ****         uint32_t blkCnt;                               /* Loop counter */
 110:.\DSP\Source\BasicMathFunctions/arm_add_q15.c **** 
 111:.\DSP\Source\BasicMathFunctions/arm_add_q15.c **** #if defined (ARM_MATH_LOOPUNROLL)
 112:.\DSP\Source\BasicMathFunctions/arm_add_q15.c **** 
 113:.\DSP\Source\BasicMathFunctions/arm_add_q15.c **** #if defined (ARM_MATH_DSP)
 114:.\DSP\Source\BasicMathFunctions/arm_add_q15.c ****   q31_t inA1, inA2;
 115:.\DSP\Source\BasicMathFunctions/arm_add_q15.c ****   q31_t inB1, inB2;
 116:.\DSP\Source\BasicMathFunctions/arm_add_q15.c **** #endif
 117:.\DSP\Source\BasicMathFunctions/arm_add_q15.c **** 
 118:.\DSP\Source\BasicMathFunctions/arm_add_q15.c ****   /* Loop unrolling: Compute 4 outputs at a time */
 119:.\DSP\Source\BasicMathFunctions/arm_add_q15.c ****   blkCnt = blockSize >> 2U;
 120:.\DSP\Source\BasicMathFunctions/arm_add_q15.c **** 
 121:.\DSP\Source\BasicMathFunctions/arm_add_q15.c ****   while (blkCnt > 0U)
 122:.\DSP\Source\BasicMathFunctions/arm_add_q15.c ****   {
 123:.\DSP\Source\BasicMathFunctions/arm_add_q15.c ****     /* C = A + B */
 124:.\DSP\Source\BasicMathFunctions/arm_add_q15.c **** 
 125:.\DSP\Source\BasicMathFunctions/arm_add_q15.c **** #if defined (ARM_MATH_DSP)
 126:.\DSP\Source\BasicMathFunctions/arm_add_q15.c ****     /* read 2 times 2 samples at a time from sourceA */
 127:.\DSP\Source\BasicMathFunctions/arm_add_q15.c ****     inA1 = read_q15x2_ia (&pSrcA);
 128:.\DSP\Source\BasicMathFunctions/arm_add_q15.c ****     inA2 = read_q15x2_ia (&pSrcA);
 129:.\DSP\Source\BasicMathFunctions/arm_add_q15.c ****     /* read 2 times 2 samples at a time from sourceB */
 130:.\DSP\Source\BasicMathFunctions/arm_add_q15.c ****     inB1 = read_q15x2_ia (&pSrcB);
 131:.\DSP\Source\BasicMathFunctions/arm_add_q15.c ****     inB2 = read_q15x2_ia (&pSrcB);
 132:.\DSP\Source\BasicMathFunctions/arm_add_q15.c **** 
 133:.\DSP\Source\BasicMathFunctions/arm_add_q15.c ****     /* Add and store 2 times 2 samples at a time */
 134:.\DSP\Source\BasicMathFunctions/arm_add_q15.c ****     write_q15x2_ia (&pDst, __QADD16(inA1, inB1));
 135:.\DSP\Source\BasicMathFunctions/arm_add_q15.c ****     write_q15x2_ia (&pDst, __QADD16(inA2, inB2));
 136:.\DSP\Source\BasicMathFunctions/arm_add_q15.c **** #else
 137:.\DSP\Source\BasicMathFunctions/arm_add_q15.c ****     *pDst++ = (q15_t) __SSAT(((q31_t) *pSrcA++ + *pSrcB++), 16);
 138:.\DSP\Source\BasicMathFunctions/arm_add_q15.c ****     *pDst++ = (q15_t) __SSAT(((q31_t) *pSrcA++ + *pSrcB++), 16);
 139:.\DSP\Source\BasicMathFunctions/arm_add_q15.c ****     *pDst++ = (q15_t) __SSAT(((q31_t) *pSrcA++ + *pSrcB++), 16);
 140:.\DSP\Source\BasicMathFunctions/arm_add_q15.c ****     *pDst++ = (q15_t) __SSAT(((q31_t) *pSrcA++ + *pSrcB++), 16);
 141:.\DSP\Source\BasicMathFunctions/arm_add_q15.c **** #endif
 142:.\DSP\Source\BasicMathFunctions/arm_add_q15.c **** 
 143:.\DSP\Source\BasicMathFunctions/arm_add_q15.c ****     /* Decrement loop counter */
 144:.\DSP\Source\BasicMathFunctions/arm_add_q15.c ****     blkCnt--;
 145:.\DSP\Source\BasicMathFunctions/arm_add_q15.c ****   }
 146:.\DSP\Source\BasicMathFunctions/arm_add_q15.c **** 
 147:.\DSP\Source\BasicMathFunctions/arm_add_q15.c ****   /* Loop unrolling: Compute remaining outputs */
 148:.\DSP\Source\BasicMathFunctions/arm_add_q15.c ****   blkCnt = blockSize % 0x4U;
 149:.\DSP\Source\BasicMathFunctions/arm_add_q15.c **** 
 150:.\DSP\Source\BasicMathFunctions/arm_add_q15.c **** #else
 151:.\DSP\Source\BasicMathFunctions/arm_add_q15.c **** 
 152:.\DSP\Source\BasicMathFunctions/arm_add_q15.c ****   /* Initialize blkCnt with number of samples */
ARM GAS  C:\Users\IVYLIU~1\AppData\Local\Temp\cc7gzL6d.s 			page 31


 153:.\DSP\Source\BasicMathFunctions/arm_add_q15.c ****   blkCnt = blockSize;
 154:.\DSP\Source\BasicMathFunctions/arm_add_q15.c **** 
 155:.\DSP\Source\BasicMathFunctions/arm_add_q15.c **** #endif /* #if defined (ARM_MATH_LOOPUNROLL) */
 156:.\DSP\Source\BasicMathFunctions/arm_add_q15.c **** 
 157:.\DSP\Source\BasicMathFunctions/arm_add_q15.c ****   while (blkCnt > 0U)
 463              		.loc 8 157 0
 464 0002 0EE0     		b	.L41
 465              	.LVL65:
 466              	.L42:
 158:.\DSP\Source\BasicMathFunctions/arm_add_q15.c ****   {
 159:.\DSP\Source\BasicMathFunctions/arm_add_q15.c ****     /* C = A + B */
 160:.\DSP\Source\BasicMathFunctions/arm_add_q15.c **** 
 161:.\DSP\Source\BasicMathFunctions/arm_add_q15.c ****     /* Add and store result in destination buffer. */
 162:.\DSP\Source\BasicMathFunctions/arm_add_q15.c **** #if defined (ARM_MATH_DSP)
 163:.\DSP\Source\BasicMathFunctions/arm_add_q15.c ****     *pDst++ = (q15_t) __QADD16(*pSrcA++, *pSrcB++);
 164:.\DSP\Source\BasicMathFunctions/arm_add_q15.c **** #else
 165:.\DSP\Source\BasicMathFunctions/arm_add_q15.c ****     *pDst++ = (q15_t) __SSAT(((q31_t) *pSrcA++ + *pSrcB++), 16);
 467              		.loc 8 165 0
 468 0004 961C     		adds	r6, r2, #2
 469              	.LVL66:
 470              	.LBB18:
 471 0006 851C     		adds	r5, r0, #2
 472              	.LVL67:
 473 0008 B0F90070 		ldrsh	r7, [r0]
 474 000c 881C     		adds	r0, r1, #2
 475              	.LVL68:
 476 000e B1F90010 		ldrsh	r1, [r1]
 477 0012 3944     		add	r1, r1, r7
 478              	.LVL69:
 479              	@ 165 ".\DSP\Source\BasicMathFunctions\arm_add_q15.c" 1
 480 0014 01F30F01 		ssat r1, #16, r1
 481              	@ 0 "" 2
 482              	.LVL70:
 483              		.thumb
 484              	.LBE18:
 485 0018 1180     		strh	r1, [r2]	@ movhi
 486              	.LVL71:
 166:.\DSP\Source\BasicMathFunctions/arm_add_q15.c **** #endif
 167:.\DSP\Source\BasicMathFunctions/arm_add_q15.c **** 
 168:.\DSP\Source\BasicMathFunctions/arm_add_q15.c ****     /* Decrement loop counter */
 169:.\DSP\Source\BasicMathFunctions/arm_add_q15.c ****     blkCnt--;
 487              		.loc 8 169 0
 488 001a 013B     		subs	r3, r3, #1
 489              	.LVL72:
 165:.\DSP\Source\BasicMathFunctions/arm_add_q15.c **** #endif
 490              		.loc 8 165 0
 491 001c 3246     		mov	r2, r6
 492              	.LBB19:
 493 001e 0146     		mov	r1, r0
 494              	.LVL73:
 495 0020 2846     		mov	r0, r5
 496              	.LVL74:
 497              	.L41:
 498              	.LBE19:
 157:.\DSP\Source\BasicMathFunctions/arm_add_q15.c ****   {
 499              		.loc 8 157 0
 500 0022 002B     		cmp	r3, #0
ARM GAS  C:\Users\IVYLIU~1\AppData\Local\Temp\cc7gzL6d.s 			page 32


 501 0024 EED1     		bne	.L42
 170:.\DSP\Source\BasicMathFunctions/arm_add_q15.c ****   }
 171:.\DSP\Source\BasicMathFunctions/arm_add_q15.c **** 
 172:.\DSP\Source\BasicMathFunctions/arm_add_q15.c **** }
 502              		.loc 8 172 0
 503 0026 E0BC     		pop	{r5, r6, r7}
 504              		.cfi_restore 7
 505              		.cfi_restore 6
 506              		.cfi_restore 5
 507              		.cfi_def_cfa_offset 0
 508 0028 7047     		bx	lr
 509              		.cfi_endproc
 510              	.LFE90:
 511              		.size	arm_add_q15, .-arm_add_q15
 512 002a 00BF     		.section	.text.arm_add_q31,"ax",%progbits
 513              		.align	2
 514              		.global	arm_add_q31
 515              		.thumb
 516              		.thumb_func
 517              		.type	arm_add_q31, %function
 518              	arm_add_q31:
 519              	.LFB91:
 520              		.file 9 ".\\DSP\\Source\\BasicMathFunctions\\arm_add_q31.c"
   1:.\DSP\Source\BasicMathFunctions/arm_add_q31.c **** /* ----------------------------------------------------------------------
   2:.\DSP\Source\BasicMathFunctions/arm_add_q31.c ****  * Project:      CMSIS DSP Library
   3:.\DSP\Source\BasicMathFunctions/arm_add_q31.c ****  * Title:        arm_add_q31.c
   4:.\DSP\Source\BasicMathFunctions/arm_add_q31.c ****  * Description:  Q31 vector addition
   5:.\DSP\Source\BasicMathFunctions/arm_add_q31.c ****  *
   6:.\DSP\Source\BasicMathFunctions/arm_add_q31.c ****  * $Date:        23 April 2021
   7:.\DSP\Source\BasicMathFunctions/arm_add_q31.c ****  * $Revision:    V1.9.0
   8:.\DSP\Source\BasicMathFunctions/arm_add_q31.c ****  *
   9:.\DSP\Source\BasicMathFunctions/arm_add_q31.c ****  * Target Processor: Cortex-M and Cortex-A cores
  10:.\DSP\Source\BasicMathFunctions/arm_add_q31.c ****  * -------------------------------------------------------------------- */
  11:.\DSP\Source\BasicMathFunctions/arm_add_q31.c **** /*
  12:.\DSP\Source\BasicMathFunctions/arm_add_q31.c ****  * Copyright (C) 2010-2021 ARM Limited or its affiliates. All rights reserved.
  13:.\DSP\Source\BasicMathFunctions/arm_add_q31.c ****  *
  14:.\DSP\Source\BasicMathFunctions/arm_add_q31.c ****  * SPDX-License-Identifier: Apache-2.0
  15:.\DSP\Source\BasicMathFunctions/arm_add_q31.c ****  *
  16:.\DSP\Source\BasicMathFunctions/arm_add_q31.c ****  * Licensed under the Apache License, Version 2.0 (the License); you may
  17:.\DSP\Source\BasicMathFunctions/arm_add_q31.c ****  * not use this file except in compliance with the License.
  18:.\DSP\Source\BasicMathFunctions/arm_add_q31.c ****  * You may obtain a copy of the License at
  19:.\DSP\Source\BasicMathFunctions/arm_add_q31.c ****  *
  20:.\DSP\Source\BasicMathFunctions/arm_add_q31.c ****  * www.apache.org/licenses/LICENSE-2.0
  21:.\DSP\Source\BasicMathFunctions/arm_add_q31.c ****  *
  22:.\DSP\Source\BasicMathFunctions/arm_add_q31.c ****  * Unless required by applicable law or agreed to in writing, software
  23:.\DSP\Source\BasicMathFunctions/arm_add_q31.c ****  * distributed under the License is distributed on an AS IS BASIS, WITHOUT
  24:.\DSP\Source\BasicMathFunctions/arm_add_q31.c ****  * WARRANTIES OR CONDITIONS OF ANY KIND, either express or implied.
  25:.\DSP\Source\BasicMathFunctions/arm_add_q31.c ****  * See the License for the specific language governing permissions and
  26:.\DSP\Source\BasicMathFunctions/arm_add_q31.c ****  * limitations under the License.
  27:.\DSP\Source\BasicMathFunctions/arm_add_q31.c ****  */
  28:.\DSP\Source\BasicMathFunctions/arm_add_q31.c **** 
  29:.\DSP\Source\BasicMathFunctions/arm_add_q31.c **** #include "dsp/basic_math_functions.h"
  30:.\DSP\Source\BasicMathFunctions/arm_add_q31.c **** 
  31:.\DSP\Source\BasicMathFunctions/arm_add_q31.c **** /**
  32:.\DSP\Source\BasicMathFunctions/arm_add_q31.c ****   @ingroup groupMath
  33:.\DSP\Source\BasicMathFunctions/arm_add_q31.c ****  */
  34:.\DSP\Source\BasicMathFunctions/arm_add_q31.c **** 
ARM GAS  C:\Users\IVYLIU~1\AppData\Local\Temp\cc7gzL6d.s 			page 33


  35:.\DSP\Source\BasicMathFunctions/arm_add_q31.c **** /**
  36:.\DSP\Source\BasicMathFunctions/arm_add_q31.c ****   @addtogroup BasicAdd
  37:.\DSP\Source\BasicMathFunctions/arm_add_q31.c ****   @{
  38:.\DSP\Source\BasicMathFunctions/arm_add_q31.c ****  */
  39:.\DSP\Source\BasicMathFunctions/arm_add_q31.c **** 
  40:.\DSP\Source\BasicMathFunctions/arm_add_q31.c **** /**
  41:.\DSP\Source\BasicMathFunctions/arm_add_q31.c ****   @brief         Q31 vector addition.
  42:.\DSP\Source\BasicMathFunctions/arm_add_q31.c ****   @param[in]     pSrcA      points to the first input vector
  43:.\DSP\Source\BasicMathFunctions/arm_add_q31.c ****   @param[in]     pSrcB      points to the second input vector
  44:.\DSP\Source\BasicMathFunctions/arm_add_q31.c ****   @param[out]    pDst       points to the output vector
  45:.\DSP\Source\BasicMathFunctions/arm_add_q31.c ****   @param[in]     blockSize  number of samples in each vector
  46:.\DSP\Source\BasicMathFunctions/arm_add_q31.c ****   @return        none
  47:.\DSP\Source\BasicMathFunctions/arm_add_q31.c **** 
  48:.\DSP\Source\BasicMathFunctions/arm_add_q31.c ****   @par           Scaling and Overflow Behavior
  49:.\DSP\Source\BasicMathFunctions/arm_add_q31.c ****                    The function uses saturating arithmetic.
  50:.\DSP\Source\BasicMathFunctions/arm_add_q31.c ****                    Results outside of the allowable Q31 range [0x80000000 0x7FFFFFFF] are saturated
  51:.\DSP\Source\BasicMathFunctions/arm_add_q31.c ****  */
  52:.\DSP\Source\BasicMathFunctions/arm_add_q31.c **** 
  53:.\DSP\Source\BasicMathFunctions/arm_add_q31.c **** #if defined(ARM_MATH_MVEI) && !defined(ARM_MATH_AUTOVECTORIZE)
  54:.\DSP\Source\BasicMathFunctions/arm_add_q31.c **** 
  55:.\DSP\Source\BasicMathFunctions/arm_add_q31.c **** #include "arm_helium_utils.h"
  56:.\DSP\Source\BasicMathFunctions/arm_add_q31.c **** 
  57:.\DSP\Source\BasicMathFunctions/arm_add_q31.c **** void arm_add_q31(
  58:.\DSP\Source\BasicMathFunctions/arm_add_q31.c ****   const q31_t * pSrcA,
  59:.\DSP\Source\BasicMathFunctions/arm_add_q31.c ****   const q31_t * pSrcB,
  60:.\DSP\Source\BasicMathFunctions/arm_add_q31.c ****         q31_t * pDst,
  61:.\DSP\Source\BasicMathFunctions/arm_add_q31.c ****         uint32_t blockSize)
  62:.\DSP\Source\BasicMathFunctions/arm_add_q31.c **** {
  63:.\DSP\Source\BasicMathFunctions/arm_add_q31.c ****     uint32_t blkCnt;   
  64:.\DSP\Source\BasicMathFunctions/arm_add_q31.c ****     q31x4_t vecA;
  65:.\DSP\Source\BasicMathFunctions/arm_add_q31.c ****     q31x4_t vecB;
  66:.\DSP\Source\BasicMathFunctions/arm_add_q31.c **** 
  67:.\DSP\Source\BasicMathFunctions/arm_add_q31.c ****     /* Compute 4 outputs at a time */
  68:.\DSP\Source\BasicMathFunctions/arm_add_q31.c ****     blkCnt = blockSize >> 2;
  69:.\DSP\Source\BasicMathFunctions/arm_add_q31.c ****     while (blkCnt > 0U)
  70:.\DSP\Source\BasicMathFunctions/arm_add_q31.c ****     {
  71:.\DSP\Source\BasicMathFunctions/arm_add_q31.c ****         /*
  72:.\DSP\Source\BasicMathFunctions/arm_add_q31.c ****          * C = A + B
  73:.\DSP\Source\BasicMathFunctions/arm_add_q31.c ****          * Add and then store the results in the destination buffer.
  74:.\DSP\Source\BasicMathFunctions/arm_add_q31.c ****          */
  75:.\DSP\Source\BasicMathFunctions/arm_add_q31.c ****         vecA = vld1q(pSrcA);
  76:.\DSP\Source\BasicMathFunctions/arm_add_q31.c ****         vecB = vld1q(pSrcB);
  77:.\DSP\Source\BasicMathFunctions/arm_add_q31.c ****         vst1q(pDst, vqaddq(vecA, vecB));
  78:.\DSP\Source\BasicMathFunctions/arm_add_q31.c ****         /*
  79:.\DSP\Source\BasicMathFunctions/arm_add_q31.c ****          * Decrement the blockSize loop counter
  80:.\DSP\Source\BasicMathFunctions/arm_add_q31.c ****          */
  81:.\DSP\Source\BasicMathFunctions/arm_add_q31.c ****         blkCnt--;
  82:.\DSP\Source\BasicMathFunctions/arm_add_q31.c ****         /*
  83:.\DSP\Source\BasicMathFunctions/arm_add_q31.c ****          * advance vector source and destination pointers
  84:.\DSP\Source\BasicMathFunctions/arm_add_q31.c ****          */
  85:.\DSP\Source\BasicMathFunctions/arm_add_q31.c ****         pSrcA  += 4;
  86:.\DSP\Source\BasicMathFunctions/arm_add_q31.c ****         pSrcB  += 4;
  87:.\DSP\Source\BasicMathFunctions/arm_add_q31.c ****         pDst   += 4;
  88:.\DSP\Source\BasicMathFunctions/arm_add_q31.c ****     }
  89:.\DSP\Source\BasicMathFunctions/arm_add_q31.c ****     /*
  90:.\DSP\Source\BasicMathFunctions/arm_add_q31.c ****      * tail
  91:.\DSP\Source\BasicMathFunctions/arm_add_q31.c ****      */
ARM GAS  C:\Users\IVYLIU~1\AppData\Local\Temp\cc7gzL6d.s 			page 34


  92:.\DSP\Source\BasicMathFunctions/arm_add_q31.c ****     blkCnt = blockSize & 3;
  93:.\DSP\Source\BasicMathFunctions/arm_add_q31.c ****     if (blkCnt > 0U)
  94:.\DSP\Source\BasicMathFunctions/arm_add_q31.c ****     {
  95:.\DSP\Source\BasicMathFunctions/arm_add_q31.c ****         mve_pred16_t p0 = vctp32q(blkCnt);
  96:.\DSP\Source\BasicMathFunctions/arm_add_q31.c ****         vecA = vld1q(pSrcA);
  97:.\DSP\Source\BasicMathFunctions/arm_add_q31.c ****         vecB = vld1q(pSrcB);
  98:.\DSP\Source\BasicMathFunctions/arm_add_q31.c ****         vstrwq_p(pDst, vqaddq(vecA, vecB), p0);
  99:.\DSP\Source\BasicMathFunctions/arm_add_q31.c ****     }
 100:.\DSP\Source\BasicMathFunctions/arm_add_q31.c **** }
 101:.\DSP\Source\BasicMathFunctions/arm_add_q31.c **** 
 102:.\DSP\Source\BasicMathFunctions/arm_add_q31.c **** #else
 103:.\DSP\Source\BasicMathFunctions/arm_add_q31.c **** void arm_add_q31(
 104:.\DSP\Source\BasicMathFunctions/arm_add_q31.c ****   const q31_t * pSrcA,
 105:.\DSP\Source\BasicMathFunctions/arm_add_q31.c ****   const q31_t * pSrcB,
 106:.\DSP\Source\BasicMathFunctions/arm_add_q31.c ****         q31_t * pDst,
 107:.\DSP\Source\BasicMathFunctions/arm_add_q31.c ****         uint32_t blockSize)
 108:.\DSP\Source\BasicMathFunctions/arm_add_q31.c **** {
 521              		.loc 9 108 0
 522              		.cfi_startproc
 523              		@ args = 0, pretend = 0, frame = 0
 524              		@ frame_needed = 0, uses_anonymous_args = 0
 525              		@ link register save eliminated.
 526              	.LVL75:
 527 0000 F0B4     		push	{r4, r5, r6, r7}
 528              		.cfi_def_cfa_offset 16
 529              		.cfi_offset 4, -16
 530              		.cfi_offset 5, -12
 531              		.cfi_offset 6, -8
 532              		.cfi_offset 7, -4
 533              	.LVL76:
 109:.\DSP\Source\BasicMathFunctions/arm_add_q31.c ****         uint32_t blkCnt;                               /* Loop counter */
 110:.\DSP\Source\BasicMathFunctions/arm_add_q31.c **** 
 111:.\DSP\Source\BasicMathFunctions/arm_add_q31.c **** #if defined (ARM_MATH_LOOPUNROLL)
 112:.\DSP\Source\BasicMathFunctions/arm_add_q31.c **** 
 113:.\DSP\Source\BasicMathFunctions/arm_add_q31.c ****   /* Loop unrolling: Compute 4 outputs at a time */
 114:.\DSP\Source\BasicMathFunctions/arm_add_q31.c ****   blkCnt = blockSize >> 2U;
 115:.\DSP\Source\BasicMathFunctions/arm_add_q31.c **** 
 116:.\DSP\Source\BasicMathFunctions/arm_add_q31.c ****   while (blkCnt > 0U)
 117:.\DSP\Source\BasicMathFunctions/arm_add_q31.c ****   {
 118:.\DSP\Source\BasicMathFunctions/arm_add_q31.c ****     /* C = A + B */
 119:.\DSP\Source\BasicMathFunctions/arm_add_q31.c **** 
 120:.\DSP\Source\BasicMathFunctions/arm_add_q31.c ****     /* Add and store result in destination buffer. */
 121:.\DSP\Source\BasicMathFunctions/arm_add_q31.c ****     *pDst++ = __QADD(*pSrcA++, *pSrcB++);
 122:.\DSP\Source\BasicMathFunctions/arm_add_q31.c **** 
 123:.\DSP\Source\BasicMathFunctions/arm_add_q31.c ****     *pDst++ = __QADD(*pSrcA++, *pSrcB++);
 124:.\DSP\Source\BasicMathFunctions/arm_add_q31.c **** 
 125:.\DSP\Source\BasicMathFunctions/arm_add_q31.c ****     *pDst++ = __QADD(*pSrcA++, *pSrcB++);
 126:.\DSP\Source\BasicMathFunctions/arm_add_q31.c **** 
 127:.\DSP\Source\BasicMathFunctions/arm_add_q31.c ****     *pDst++ = __QADD(*pSrcA++, *pSrcB++);
 128:.\DSP\Source\BasicMathFunctions/arm_add_q31.c **** 
 129:.\DSP\Source\BasicMathFunctions/arm_add_q31.c ****     /* Decrement loop counter */
 130:.\DSP\Source\BasicMathFunctions/arm_add_q31.c ****     blkCnt--;
 131:.\DSP\Source\BasicMathFunctions/arm_add_q31.c ****   }
 132:.\DSP\Source\BasicMathFunctions/arm_add_q31.c **** 
 133:.\DSP\Source\BasicMathFunctions/arm_add_q31.c ****   /* Loop unrolling: Compute remaining outputs */
 134:.\DSP\Source\BasicMathFunctions/arm_add_q31.c ****   blkCnt = blockSize % 0x4U;
 135:.\DSP\Source\BasicMathFunctions/arm_add_q31.c **** 
ARM GAS  C:\Users\IVYLIU~1\AppData\Local\Temp\cc7gzL6d.s 			page 35


 136:.\DSP\Source\BasicMathFunctions/arm_add_q31.c **** #else
 137:.\DSP\Source\BasicMathFunctions/arm_add_q31.c **** 
 138:.\DSP\Source\BasicMathFunctions/arm_add_q31.c ****   /* Initialize blkCnt with number of samples */
 139:.\DSP\Source\BasicMathFunctions/arm_add_q31.c ****   blkCnt = blockSize;
 140:.\DSP\Source\BasicMathFunctions/arm_add_q31.c **** 
 141:.\DSP\Source\BasicMathFunctions/arm_add_q31.c **** #endif /* #if defined (ARM_MATH_LOOPUNROLL) */
 142:.\DSP\Source\BasicMathFunctions/arm_add_q31.c **** 
 143:.\DSP\Source\BasicMathFunctions/arm_add_q31.c ****   while (blkCnt > 0U)
 534              		.loc 9 143 0
 535 0002 14E0     		b	.L45
 536              	.LVL77:
 537              	.L48:
 144:.\DSP\Source\BasicMathFunctions/arm_add_q31.c ****   {
 145:.\DSP\Source\BasicMathFunctions/arm_add_q31.c ****     /* C = A + B */
 146:.\DSP\Source\BasicMathFunctions/arm_add_q31.c **** 
 147:.\DSP\Source\BasicMathFunctions/arm_add_q31.c ****     /* Add and store result in destination buffer. */
 148:.\DSP\Source\BasicMathFunctions/arm_add_q31.c ****     *pDst++ = __QADD(*pSrcA++, *pSrcB++);
 538              		.loc 9 148 0
 539 0004 161D     		adds	r6, r2, #4
 540              	.LVL78:
 541 0006 041D     		adds	r4, r0, #4
 542              	.LVL79:
 543 0008 0768     		ldr	r7, [r0]
 544 000a 0D1D     		adds	r5, r1, #4
 545              	.LVL80:
 546 000c 0868     		ldr	r0, [r1]
 547              	.LVL81:
 548              	.LBB20:
 549              	.LBB21:
 550              		.file 10 ".\\DSP\\Include/dsp/none.h"
   1:.\DSP\Include/dsp/none.h **** /******************************************************************************
   2:.\DSP\Include/dsp/none.h ****  * @file     none.h
   3:.\DSP\Include/dsp/none.h ****  * @brief    Intrinsincs when no DSP extension available
   4:.\DSP\Include/dsp/none.h ****  * @version  V1.9.0
   5:.\DSP\Include/dsp/none.h ****  * @date     20. July 2020
   6:.\DSP\Include/dsp/none.h ****  ******************************************************************************/
   7:.\DSP\Include/dsp/none.h **** /*
   8:.\DSP\Include/dsp/none.h ****  * Copyright (c) 2010-2020 Arm Limited or its affiliates. All rights reserved.
   9:.\DSP\Include/dsp/none.h ****  *
  10:.\DSP\Include/dsp/none.h ****  * SPDX-License-Identifier: Apache-2.0
  11:.\DSP\Include/dsp/none.h ****  *
  12:.\DSP\Include/dsp/none.h ****  * Licensed under the Apache License, Version 2.0 (the License); you may
  13:.\DSP\Include/dsp/none.h ****  * not use this file except in compliance with the License.
  14:.\DSP\Include/dsp/none.h ****  * You may obtain a copy of the License at
  15:.\DSP\Include/dsp/none.h ****  *
  16:.\DSP\Include/dsp/none.h ****  * www.apache.org/licenses/LICENSE-2.0
  17:.\DSP\Include/dsp/none.h ****  *
  18:.\DSP\Include/dsp/none.h ****  * Unless required by applicable law or agreed to in writing, software
  19:.\DSP\Include/dsp/none.h ****  * distributed under the License is distributed on an AS IS BASIS, WITHOUT
  20:.\DSP\Include/dsp/none.h ****  * WARRANTIES OR CONDITIONS OF ANY KIND, either express or implied.
  21:.\DSP\Include/dsp/none.h ****  * See the License for the specific language governing permissions and
  22:.\DSP\Include/dsp/none.h ****  * limitations under the License.
  23:.\DSP\Include/dsp/none.h ****  */
  24:.\DSP\Include/dsp/none.h **** 
  25:.\DSP\Include/dsp/none.h **** /*
  26:.\DSP\Include/dsp/none.h **** 
  27:.\DSP\Include/dsp/none.h **** Definitions in this file are allowing to reuse some versions of the
ARM GAS  C:\Users\IVYLIU~1\AppData\Local\Temp\cc7gzL6d.s 			page 36


  28:.\DSP\Include/dsp/none.h **** CMSIS-DSP to build on a core (M0 for instance) or a host where
  29:.\DSP\Include/dsp/none.h **** DSP extension are not available.
  30:.\DSP\Include/dsp/none.h **** 
  31:.\DSP\Include/dsp/none.h **** Ideally a pure C version should have been used instead.
  32:.\DSP\Include/dsp/none.h **** But those are not always available or use a restricted set
  33:.\DSP\Include/dsp/none.h **** of intrinsics.
  34:.\DSP\Include/dsp/none.h **** 
  35:.\DSP\Include/dsp/none.h **** */
  36:.\DSP\Include/dsp/none.h ****  
  37:.\DSP\Include/dsp/none.h **** #ifndef _NONE_H_
  38:.\DSP\Include/dsp/none.h **** #define _NONE_H_
  39:.\DSP\Include/dsp/none.h **** 
  40:.\DSP\Include/dsp/none.h **** #include "arm_math_types.h"
  41:.\DSP\Include/dsp/none.h **** 
  42:.\DSP\Include/dsp/none.h **** #ifdef   __cplusplus
  43:.\DSP\Include/dsp/none.h **** extern "C"
  44:.\DSP\Include/dsp/none.h **** {
  45:.\DSP\Include/dsp/none.h **** #endif
  46:.\DSP\Include/dsp/none.h **** 
  47:.\DSP\Include/dsp/none.h ****  
  48:.\DSP\Include/dsp/none.h **** 
  49:.\DSP\Include/dsp/none.h **** /*
  50:.\DSP\Include/dsp/none.h **** 
  51:.\DSP\Include/dsp/none.h **** Normally those kind of definitions are in a compiler file
  52:.\DSP\Include/dsp/none.h **** in Core or Core_A.
  53:.\DSP\Include/dsp/none.h **** 
  54:.\DSP\Include/dsp/none.h **** But for MSVC compiler it is a bit special. The goal is very specific
  55:.\DSP\Include/dsp/none.h **** to CMSIS-DSP and only to allow the use of this library from other
  56:.\DSP\Include/dsp/none.h **** systems like Python or Matlab.
  57:.\DSP\Include/dsp/none.h **** 
  58:.\DSP\Include/dsp/none.h **** MSVC is not going to be used to cross-compile to ARM. So, having a MSVC
  59:.\DSP\Include/dsp/none.h **** compiler file in Core or Core_A would not make sense.
  60:.\DSP\Include/dsp/none.h **** 
  61:.\DSP\Include/dsp/none.h **** */
  62:.\DSP\Include/dsp/none.h **** #if defined ( _MSC_VER ) || defined(__GNUC_PYTHON__) || defined(__APPLE_CC__)
  63:.\DSP\Include/dsp/none.h ****     __STATIC_FORCEINLINE uint8_t __CLZ(uint32_t data)
  64:.\DSP\Include/dsp/none.h ****     {
  65:.\DSP\Include/dsp/none.h ****       if (data == 0U) { return 32U; }
  66:.\DSP\Include/dsp/none.h **** 
  67:.\DSP\Include/dsp/none.h ****       uint32_t count = 0U;
  68:.\DSP\Include/dsp/none.h ****       uint32_t mask = 0x80000000U;
  69:.\DSP\Include/dsp/none.h **** 
  70:.\DSP\Include/dsp/none.h ****       while ((data & mask) == 0U)
  71:.\DSP\Include/dsp/none.h ****       {
  72:.\DSP\Include/dsp/none.h ****         count += 1U;
  73:.\DSP\Include/dsp/none.h ****         mask = mask >> 1U;
  74:.\DSP\Include/dsp/none.h ****       }
  75:.\DSP\Include/dsp/none.h ****       return count;
  76:.\DSP\Include/dsp/none.h ****     }
  77:.\DSP\Include/dsp/none.h **** 
  78:.\DSP\Include/dsp/none.h ****   __STATIC_FORCEINLINE int32_t __SSAT(int32_t val, uint32_t sat)
  79:.\DSP\Include/dsp/none.h ****   {
  80:.\DSP\Include/dsp/none.h ****     if ((sat >= 1U) && (sat <= 32U))
  81:.\DSP\Include/dsp/none.h ****     {
  82:.\DSP\Include/dsp/none.h ****       const int32_t max = (int32_t)((1U << (sat - 1U)) - 1U);
  83:.\DSP\Include/dsp/none.h ****       const int32_t min = -1 - max ;
  84:.\DSP\Include/dsp/none.h ****       if (val > max)
ARM GAS  C:\Users\IVYLIU~1\AppData\Local\Temp\cc7gzL6d.s 			page 37


  85:.\DSP\Include/dsp/none.h ****       {
  86:.\DSP\Include/dsp/none.h ****         return max;
  87:.\DSP\Include/dsp/none.h ****       }
  88:.\DSP\Include/dsp/none.h ****       else if (val < min)
  89:.\DSP\Include/dsp/none.h ****       {
  90:.\DSP\Include/dsp/none.h ****         return min;
  91:.\DSP\Include/dsp/none.h ****       }
  92:.\DSP\Include/dsp/none.h ****     }
  93:.\DSP\Include/dsp/none.h ****     return val;
  94:.\DSP\Include/dsp/none.h ****   }
  95:.\DSP\Include/dsp/none.h **** 
  96:.\DSP\Include/dsp/none.h ****   __STATIC_FORCEINLINE uint32_t __USAT(int32_t val, uint32_t sat)
  97:.\DSP\Include/dsp/none.h ****   {
  98:.\DSP\Include/dsp/none.h ****     if (sat <= 31U)
  99:.\DSP\Include/dsp/none.h ****     {
 100:.\DSP\Include/dsp/none.h ****       const uint32_t max = ((1U << sat) - 1U);
 101:.\DSP\Include/dsp/none.h ****       if (val > (int32_t)max)
 102:.\DSP\Include/dsp/none.h ****       {
 103:.\DSP\Include/dsp/none.h ****         return max;
 104:.\DSP\Include/dsp/none.h ****       }
 105:.\DSP\Include/dsp/none.h ****       else if (val < 0)
 106:.\DSP\Include/dsp/none.h ****       {
 107:.\DSP\Include/dsp/none.h ****         return 0U;
 108:.\DSP\Include/dsp/none.h ****       }
 109:.\DSP\Include/dsp/none.h ****     }
 110:.\DSP\Include/dsp/none.h ****     return (uint32_t)val;
 111:.\DSP\Include/dsp/none.h ****   }
 112:.\DSP\Include/dsp/none.h **** 
 113:.\DSP\Include/dsp/none.h ****  /**
 114:.\DSP\Include/dsp/none.h ****   \brief   Rotate Right in unsigned value (32 bit)
 115:.\DSP\Include/dsp/none.h ****   \details Rotate Right (immediate) provides the value of the contents of a register rotated by a v
 116:.\DSP\Include/dsp/none.h ****   \param [in]    op1  Value to rotate
 117:.\DSP\Include/dsp/none.h ****   \param [in]    op2  Number of Bits to rotate
 118:.\DSP\Include/dsp/none.h ****   \return               Rotated value
 119:.\DSP\Include/dsp/none.h ****  */
 120:.\DSP\Include/dsp/none.h **** __STATIC_FORCEINLINE uint32_t __ROR(uint32_t op1, uint32_t op2)
 121:.\DSP\Include/dsp/none.h **** {
 122:.\DSP\Include/dsp/none.h ****   op2 %= 32U;
 123:.\DSP\Include/dsp/none.h ****   if (op2 == 0U)
 124:.\DSP\Include/dsp/none.h ****   {
 125:.\DSP\Include/dsp/none.h ****     return op1;
 126:.\DSP\Include/dsp/none.h ****   }
 127:.\DSP\Include/dsp/none.h ****   return (op1 >> op2) | (op1 << (32U - op2));
 128:.\DSP\Include/dsp/none.h **** }
 129:.\DSP\Include/dsp/none.h **** 
 130:.\DSP\Include/dsp/none.h **** 
 131:.\DSP\Include/dsp/none.h **** #endif
 132:.\DSP\Include/dsp/none.h **** 
 133:.\DSP\Include/dsp/none.h **** /**
 134:.\DSP\Include/dsp/none.h ****    * @brief Clips Q63 to Q31 values.
 135:.\DSP\Include/dsp/none.h ****    */
 136:.\DSP\Include/dsp/none.h ****   __STATIC_FORCEINLINE q31_t clip_q63_to_q31(
 137:.\DSP\Include/dsp/none.h ****   q63_t x)
 138:.\DSP\Include/dsp/none.h ****   {
 139:.\DSP\Include/dsp/none.h ****     return ((q31_t) (x >> 32) != ((q31_t) x >> 31)) ?
 140:.\DSP\Include/dsp/none.h ****       ((0x7FFFFFFF ^ ((q31_t) (x >> 63)))) : (q31_t) x;
 141:.\DSP\Include/dsp/none.h ****   }
ARM GAS  C:\Users\IVYLIU~1\AppData\Local\Temp\cc7gzL6d.s 			page 38


 142:.\DSP\Include/dsp/none.h **** 
 143:.\DSP\Include/dsp/none.h ****   /**
 144:.\DSP\Include/dsp/none.h ****    * @brief Clips Q63 to Q15 values.
 145:.\DSP\Include/dsp/none.h ****    */
 146:.\DSP\Include/dsp/none.h ****   __STATIC_FORCEINLINE q15_t clip_q63_to_q15(
 147:.\DSP\Include/dsp/none.h ****   q63_t x)
 148:.\DSP\Include/dsp/none.h ****   {
 149:.\DSP\Include/dsp/none.h ****     return ((q31_t) (x >> 32) != ((q31_t) x >> 31)) ?
 150:.\DSP\Include/dsp/none.h ****       ((0x7FFF ^ ((q15_t) (x >> 63)))) : (q15_t) (x >> 15);
 151:.\DSP\Include/dsp/none.h ****   }
 152:.\DSP\Include/dsp/none.h **** 
 153:.\DSP\Include/dsp/none.h ****   /**
 154:.\DSP\Include/dsp/none.h ****    * @brief Clips Q31 to Q7 values.
 155:.\DSP\Include/dsp/none.h ****    */
 156:.\DSP\Include/dsp/none.h ****   __STATIC_FORCEINLINE q7_t clip_q31_to_q7(
 157:.\DSP\Include/dsp/none.h ****   q31_t x)
 158:.\DSP\Include/dsp/none.h ****   {
 159:.\DSP\Include/dsp/none.h ****     return ((q31_t) (x >> 24) != ((q31_t) x >> 23)) ?
 160:.\DSP\Include/dsp/none.h ****       ((0x7F ^ ((q7_t) (x >> 31)))) : (q7_t) x;
 161:.\DSP\Include/dsp/none.h ****   }
 162:.\DSP\Include/dsp/none.h **** 
 163:.\DSP\Include/dsp/none.h ****   /**
 164:.\DSP\Include/dsp/none.h ****    * @brief Clips Q31 to Q15 values.
 165:.\DSP\Include/dsp/none.h ****    */
 166:.\DSP\Include/dsp/none.h ****   __STATIC_FORCEINLINE q15_t clip_q31_to_q15(
 167:.\DSP\Include/dsp/none.h ****   q31_t x)
 168:.\DSP\Include/dsp/none.h ****   {
 169:.\DSP\Include/dsp/none.h ****     return ((q31_t) (x >> 16) != ((q31_t) x >> 15)) ?
 170:.\DSP\Include/dsp/none.h ****       ((0x7FFF ^ ((q15_t) (x >> 31)))) : (q15_t) x;
 171:.\DSP\Include/dsp/none.h ****   }
 172:.\DSP\Include/dsp/none.h **** 
 173:.\DSP\Include/dsp/none.h ****   /**
 174:.\DSP\Include/dsp/none.h ****    * @brief Multiplies 32 X 64 and returns 32 bit result in 2.30 format.
 175:.\DSP\Include/dsp/none.h ****    */
 176:.\DSP\Include/dsp/none.h ****   __STATIC_FORCEINLINE q63_t mult32x64(
 177:.\DSP\Include/dsp/none.h ****   q63_t x,
 178:.\DSP\Include/dsp/none.h ****   q31_t y)
 179:.\DSP\Include/dsp/none.h ****   {
 180:.\DSP\Include/dsp/none.h ****     return ((((q63_t) (x & 0x00000000FFFFFFFF) * y) >> 32) +
 181:.\DSP\Include/dsp/none.h ****             (((q63_t) (x >> 32)                * y)      )  );
 182:.\DSP\Include/dsp/none.h ****   }
 183:.\DSP\Include/dsp/none.h **** 
 184:.\DSP\Include/dsp/none.h **** /* SMMLAR */
 185:.\DSP\Include/dsp/none.h **** #define multAcc_32x32_keep32_R(a, x, y) \
 186:.\DSP\Include/dsp/none.h ****     a = (q31_t) (((((q63_t) a) << 32) + ((q63_t) x * y) + 0x80000000LL ) >> 32)
 187:.\DSP\Include/dsp/none.h **** 
 188:.\DSP\Include/dsp/none.h **** /* SMMLSR */
 189:.\DSP\Include/dsp/none.h **** #define multSub_32x32_keep32_R(a, x, y) \
 190:.\DSP\Include/dsp/none.h ****     a = (q31_t) (((((q63_t) a) << 32) - ((q63_t) x * y) + 0x80000000LL ) >> 32)
 191:.\DSP\Include/dsp/none.h **** 
 192:.\DSP\Include/dsp/none.h **** /* SMMULR */
 193:.\DSP\Include/dsp/none.h **** #define mult_32x32_keep32_R(a, x, y) \
 194:.\DSP\Include/dsp/none.h ****     a = (q31_t) (((q63_t) x * y + 0x80000000LL ) >> 32)
 195:.\DSP\Include/dsp/none.h **** 
 196:.\DSP\Include/dsp/none.h **** /* SMMLA */
 197:.\DSP\Include/dsp/none.h **** #define multAcc_32x32_keep32(a, x, y) \
 198:.\DSP\Include/dsp/none.h ****     a += (q31_t) (((q63_t) x * y) >> 32)
ARM GAS  C:\Users\IVYLIU~1\AppData\Local\Temp\cc7gzL6d.s 			page 39


 199:.\DSP\Include/dsp/none.h **** 
 200:.\DSP\Include/dsp/none.h **** /* SMMLS */
 201:.\DSP\Include/dsp/none.h **** #define multSub_32x32_keep32(a, x, y) \
 202:.\DSP\Include/dsp/none.h ****     a -= (q31_t) (((q63_t) x * y) >> 32)
 203:.\DSP\Include/dsp/none.h **** 
 204:.\DSP\Include/dsp/none.h **** /* SMMUL */
 205:.\DSP\Include/dsp/none.h **** #define mult_32x32_keep32(a, x, y) \
 206:.\DSP\Include/dsp/none.h ****     a = (q31_t) (((q63_t) x * y ) >> 32)
 207:.\DSP\Include/dsp/none.h **** 
 208:.\DSP\Include/dsp/none.h **** #ifndef ARM_MATH_DSP
 209:.\DSP\Include/dsp/none.h ****   /**
 210:.\DSP\Include/dsp/none.h ****    * @brief definition to pack two 16 bit values.
 211:.\DSP\Include/dsp/none.h ****    */
 212:.\DSP\Include/dsp/none.h ****   #define __PKHBT(ARG1, ARG2, ARG3) ( (((int32_t)(ARG1) <<    0) & (int32_t)0x0000FFFF) | \
 213:.\DSP\Include/dsp/none.h ****                                       (((int32_t)(ARG2) << ARG3) & (int32_t)0xFFFF0000)  )
 214:.\DSP\Include/dsp/none.h ****   #define __PKHTB(ARG1, ARG2, ARG3) ( (((int32_t)(ARG1) <<    0) & (int32_t)0xFFFF0000) | \
 215:.\DSP\Include/dsp/none.h ****                                       (((int32_t)(ARG2) >> ARG3) & (int32_t)0x0000FFFF)  )
 216:.\DSP\Include/dsp/none.h **** #endif
 217:.\DSP\Include/dsp/none.h **** 
 218:.\DSP\Include/dsp/none.h ****    /**
 219:.\DSP\Include/dsp/none.h ****    * @brief definition to pack four 8 bit values.
 220:.\DSP\Include/dsp/none.h ****    */
 221:.\DSP\Include/dsp/none.h **** #ifndef ARM_MATH_BIG_ENDIAN
 222:.\DSP\Include/dsp/none.h ****   #define __PACKq7(v0,v1,v2,v3) ( (((int32_t)(v0) <<  0) & (int32_t)0x000000FF) | \
 223:.\DSP\Include/dsp/none.h ****                                   (((int32_t)(v1) <<  8) & (int32_t)0x0000FF00) | \
 224:.\DSP\Include/dsp/none.h ****                                   (((int32_t)(v2) << 16) & (int32_t)0x00FF0000) | \
 225:.\DSP\Include/dsp/none.h ****                                   (((int32_t)(v3) << 24) & (int32_t)0xFF000000)  )
 226:.\DSP\Include/dsp/none.h **** #else
 227:.\DSP\Include/dsp/none.h ****   #define __PACKq7(v0,v1,v2,v3) ( (((int32_t)(v3) <<  0) & (int32_t)0x000000FF) | \
 228:.\DSP\Include/dsp/none.h ****                                   (((int32_t)(v2) <<  8) & (int32_t)0x0000FF00) | \
 229:.\DSP\Include/dsp/none.h ****                                   (((int32_t)(v1) << 16) & (int32_t)0x00FF0000) | \
 230:.\DSP\Include/dsp/none.h ****                                   (((int32_t)(v0) << 24) & (int32_t)0xFF000000)  )
 231:.\DSP\Include/dsp/none.h **** #endif
 232:.\DSP\Include/dsp/none.h **** 
 233:.\DSP\Include/dsp/none.h **** 
 234:.\DSP\Include/dsp/none.h ****  
 235:.\DSP\Include/dsp/none.h **** 
 236:.\DSP\Include/dsp/none.h **** /*
 237:.\DSP\Include/dsp/none.h ****  * @brief C custom defined intrinsic functions
 238:.\DSP\Include/dsp/none.h ****  */
 239:.\DSP\Include/dsp/none.h **** #if !defined (ARM_MATH_DSP)
 240:.\DSP\Include/dsp/none.h **** 
 241:.\DSP\Include/dsp/none.h **** 
 242:.\DSP\Include/dsp/none.h ****   /*
 243:.\DSP\Include/dsp/none.h ****    * @brief C custom defined QADD8
 244:.\DSP\Include/dsp/none.h ****    */
 245:.\DSP\Include/dsp/none.h ****   __STATIC_FORCEINLINE uint32_t __QADD8(
 246:.\DSP\Include/dsp/none.h ****   uint32_t x,
 247:.\DSP\Include/dsp/none.h ****   uint32_t y)
 248:.\DSP\Include/dsp/none.h ****   {
 249:.\DSP\Include/dsp/none.h ****     q31_t r, s, t, u;
 250:.\DSP\Include/dsp/none.h **** 
 251:.\DSP\Include/dsp/none.h ****     r = __SSAT(((((q31_t)x << 24) >> 24) + (((q31_t)y << 24) >> 24)), 8) & (int32_t)0x000000FF;
 252:.\DSP\Include/dsp/none.h ****     s = __SSAT(((((q31_t)x << 16) >> 24) + (((q31_t)y << 16) >> 24)), 8) & (int32_t)0x000000FF;
 253:.\DSP\Include/dsp/none.h ****     t = __SSAT(((((q31_t)x <<  8) >> 24) + (((q31_t)y <<  8) >> 24)), 8) & (int32_t)0x000000FF;
 254:.\DSP\Include/dsp/none.h ****     u = __SSAT(((((q31_t)x      ) >> 24) + (((q31_t)y      ) >> 24)), 8) & (int32_t)0x000000FF;
 255:.\DSP\Include/dsp/none.h **** 
ARM GAS  C:\Users\IVYLIU~1\AppData\Local\Temp\cc7gzL6d.s 			page 40


 256:.\DSP\Include/dsp/none.h ****     return ((uint32_t)((u << 24) | (t << 16) | (s <<  8) | (r      )));
 257:.\DSP\Include/dsp/none.h ****   }
 258:.\DSP\Include/dsp/none.h **** 
 259:.\DSP\Include/dsp/none.h **** 
 260:.\DSP\Include/dsp/none.h ****   /*
 261:.\DSP\Include/dsp/none.h ****    * @brief C custom defined QSUB8
 262:.\DSP\Include/dsp/none.h ****    */
 263:.\DSP\Include/dsp/none.h ****   __STATIC_FORCEINLINE uint32_t __QSUB8(
 264:.\DSP\Include/dsp/none.h ****   uint32_t x,
 265:.\DSP\Include/dsp/none.h ****   uint32_t y)
 266:.\DSP\Include/dsp/none.h ****   {
 267:.\DSP\Include/dsp/none.h ****     q31_t r, s, t, u;
 268:.\DSP\Include/dsp/none.h **** 
 269:.\DSP\Include/dsp/none.h ****     r = __SSAT(((((q31_t)x << 24) >> 24) - (((q31_t)y << 24) >> 24)), 8) & (int32_t)0x000000FF;
 270:.\DSP\Include/dsp/none.h ****     s = __SSAT(((((q31_t)x << 16) >> 24) - (((q31_t)y << 16) >> 24)), 8) & (int32_t)0x000000FF;
 271:.\DSP\Include/dsp/none.h ****     t = __SSAT(((((q31_t)x <<  8) >> 24) - (((q31_t)y <<  8) >> 24)), 8) & (int32_t)0x000000FF;
 272:.\DSP\Include/dsp/none.h ****     u = __SSAT(((((q31_t)x      ) >> 24) - (((q31_t)y      ) >> 24)), 8) & (int32_t)0x000000FF;
 273:.\DSP\Include/dsp/none.h **** 
 274:.\DSP\Include/dsp/none.h ****     return ((uint32_t)((u << 24) | (t << 16) | (s <<  8) | (r      )));
 275:.\DSP\Include/dsp/none.h ****   }
 276:.\DSP\Include/dsp/none.h **** 
 277:.\DSP\Include/dsp/none.h **** 
 278:.\DSP\Include/dsp/none.h ****   /*
 279:.\DSP\Include/dsp/none.h ****    * @brief C custom defined QADD16
 280:.\DSP\Include/dsp/none.h ****    */
 281:.\DSP\Include/dsp/none.h ****   __STATIC_FORCEINLINE uint32_t __QADD16(
 282:.\DSP\Include/dsp/none.h ****   uint32_t x,
 283:.\DSP\Include/dsp/none.h ****   uint32_t y)
 284:.\DSP\Include/dsp/none.h ****   {
 285:.\DSP\Include/dsp/none.h **** /*  q31_t r,     s;  without initialisation 'arm_offset_q15 test' fails  but 'intrinsic' tests pass
 286:.\DSP\Include/dsp/none.h ****     q31_t r = 0, s = 0;
 287:.\DSP\Include/dsp/none.h **** 
 288:.\DSP\Include/dsp/none.h ****     r = __SSAT(((((q31_t)x << 16) >> 16) + (((q31_t)y << 16) >> 16)), 16) & (int32_t)0x0000FFFF;
 289:.\DSP\Include/dsp/none.h ****     s = __SSAT(((((q31_t)x      ) >> 16) + (((q31_t)y      ) >> 16)), 16) & (int32_t)0x0000FFFF;
 290:.\DSP\Include/dsp/none.h **** 
 291:.\DSP\Include/dsp/none.h ****     return ((uint32_t)((s << 16) | (r      )));
 292:.\DSP\Include/dsp/none.h ****   }
 293:.\DSP\Include/dsp/none.h **** 
 294:.\DSP\Include/dsp/none.h **** 
 295:.\DSP\Include/dsp/none.h ****   /*
 296:.\DSP\Include/dsp/none.h ****    * @brief C custom defined SHADD16
 297:.\DSP\Include/dsp/none.h ****    */
 298:.\DSP\Include/dsp/none.h ****   __STATIC_FORCEINLINE uint32_t __SHADD16(
 299:.\DSP\Include/dsp/none.h ****   uint32_t x,
 300:.\DSP\Include/dsp/none.h ****   uint32_t y)
 301:.\DSP\Include/dsp/none.h ****   {
 302:.\DSP\Include/dsp/none.h ****     q31_t r, s;
 303:.\DSP\Include/dsp/none.h **** 
 304:.\DSP\Include/dsp/none.h ****     r = (((((q31_t)x << 16) >> 16) + (((q31_t)y << 16) >> 16)) >> 1) & (int32_t)0x0000FFFF;
 305:.\DSP\Include/dsp/none.h ****     s = (((((q31_t)x      ) >> 16) + (((q31_t)y      ) >> 16)) >> 1) & (int32_t)0x0000FFFF;
 306:.\DSP\Include/dsp/none.h **** 
 307:.\DSP\Include/dsp/none.h ****     return ((uint32_t)((s << 16) | (r      )));
 308:.\DSP\Include/dsp/none.h ****   }
 309:.\DSP\Include/dsp/none.h **** 
 310:.\DSP\Include/dsp/none.h **** 
 311:.\DSP\Include/dsp/none.h ****   /*
 312:.\DSP\Include/dsp/none.h ****    * @brief C custom defined QSUB16
ARM GAS  C:\Users\IVYLIU~1\AppData\Local\Temp\cc7gzL6d.s 			page 41


 313:.\DSP\Include/dsp/none.h ****    */
 314:.\DSP\Include/dsp/none.h ****   __STATIC_FORCEINLINE uint32_t __QSUB16(
 315:.\DSP\Include/dsp/none.h ****   uint32_t x,
 316:.\DSP\Include/dsp/none.h ****   uint32_t y)
 317:.\DSP\Include/dsp/none.h ****   {
 318:.\DSP\Include/dsp/none.h ****     q31_t r, s;
 319:.\DSP\Include/dsp/none.h **** 
 320:.\DSP\Include/dsp/none.h ****     r = __SSAT(((((q31_t)x << 16) >> 16) - (((q31_t)y << 16) >> 16)), 16) & (int32_t)0x0000FFFF;
 321:.\DSP\Include/dsp/none.h ****     s = __SSAT(((((q31_t)x      ) >> 16) - (((q31_t)y      ) >> 16)), 16) & (int32_t)0x0000FFFF;
 322:.\DSP\Include/dsp/none.h **** 
 323:.\DSP\Include/dsp/none.h ****     return ((uint32_t)((s << 16) | (r      )));
 324:.\DSP\Include/dsp/none.h ****   }
 325:.\DSP\Include/dsp/none.h **** 
 326:.\DSP\Include/dsp/none.h **** 
 327:.\DSP\Include/dsp/none.h ****   /*
 328:.\DSP\Include/dsp/none.h ****    * @brief C custom defined SHSUB16
 329:.\DSP\Include/dsp/none.h ****    */
 330:.\DSP\Include/dsp/none.h ****   __STATIC_FORCEINLINE uint32_t __SHSUB16(
 331:.\DSP\Include/dsp/none.h ****   uint32_t x,
 332:.\DSP\Include/dsp/none.h ****   uint32_t y)
 333:.\DSP\Include/dsp/none.h ****   {
 334:.\DSP\Include/dsp/none.h ****     q31_t r, s;
 335:.\DSP\Include/dsp/none.h **** 
 336:.\DSP\Include/dsp/none.h ****     r = (((((q31_t)x << 16) >> 16) - (((q31_t)y << 16) >> 16)) >> 1) & (int32_t)0x0000FFFF;
 337:.\DSP\Include/dsp/none.h ****     s = (((((q31_t)x      ) >> 16) - (((q31_t)y      ) >> 16)) >> 1) & (int32_t)0x0000FFFF;
 338:.\DSP\Include/dsp/none.h **** 
 339:.\DSP\Include/dsp/none.h ****     return ((uint32_t)((s << 16) | (r      )));
 340:.\DSP\Include/dsp/none.h ****   }
 341:.\DSP\Include/dsp/none.h **** 
 342:.\DSP\Include/dsp/none.h **** 
 343:.\DSP\Include/dsp/none.h ****   /*
 344:.\DSP\Include/dsp/none.h ****    * @brief C custom defined QASX
 345:.\DSP\Include/dsp/none.h ****    */
 346:.\DSP\Include/dsp/none.h ****   __STATIC_FORCEINLINE uint32_t __QASX(
 347:.\DSP\Include/dsp/none.h ****   uint32_t x,
 348:.\DSP\Include/dsp/none.h ****   uint32_t y)
 349:.\DSP\Include/dsp/none.h ****   {
 350:.\DSP\Include/dsp/none.h ****     q31_t r, s;
 351:.\DSP\Include/dsp/none.h **** 
 352:.\DSP\Include/dsp/none.h ****     r = __SSAT(((((q31_t)x << 16) >> 16) - (((q31_t)y      ) >> 16)), 16) & (int32_t)0x0000FFFF;
 353:.\DSP\Include/dsp/none.h ****     s = __SSAT(((((q31_t)x      ) >> 16) + (((q31_t)y << 16) >> 16)), 16) & (int32_t)0x0000FFFF;
 354:.\DSP\Include/dsp/none.h **** 
 355:.\DSP\Include/dsp/none.h ****     return ((uint32_t)((s << 16) | (r      )));
 356:.\DSP\Include/dsp/none.h ****   }
 357:.\DSP\Include/dsp/none.h **** 
 358:.\DSP\Include/dsp/none.h **** 
 359:.\DSP\Include/dsp/none.h ****   /*
 360:.\DSP\Include/dsp/none.h ****    * @brief C custom defined SHASX
 361:.\DSP\Include/dsp/none.h ****    */
 362:.\DSP\Include/dsp/none.h ****   __STATIC_FORCEINLINE uint32_t __SHASX(
 363:.\DSP\Include/dsp/none.h ****   uint32_t x,
 364:.\DSP\Include/dsp/none.h ****   uint32_t y)
 365:.\DSP\Include/dsp/none.h ****   {
 366:.\DSP\Include/dsp/none.h ****     q31_t r, s;
 367:.\DSP\Include/dsp/none.h **** 
 368:.\DSP\Include/dsp/none.h ****     r = (((((q31_t)x << 16) >> 16) - (((q31_t)y      ) >> 16)) >> 1) & (int32_t)0x0000FFFF;
 369:.\DSP\Include/dsp/none.h ****     s = (((((q31_t)x      ) >> 16) + (((q31_t)y << 16) >> 16)) >> 1) & (int32_t)0x0000FFFF;
ARM GAS  C:\Users\IVYLIU~1\AppData\Local\Temp\cc7gzL6d.s 			page 42


 370:.\DSP\Include/dsp/none.h **** 
 371:.\DSP\Include/dsp/none.h ****     return ((uint32_t)((s << 16) | (r      )));
 372:.\DSP\Include/dsp/none.h ****   }
 373:.\DSP\Include/dsp/none.h **** 
 374:.\DSP\Include/dsp/none.h **** 
 375:.\DSP\Include/dsp/none.h ****   /*
 376:.\DSP\Include/dsp/none.h ****    * @brief C custom defined QSAX
 377:.\DSP\Include/dsp/none.h ****    */
 378:.\DSP\Include/dsp/none.h ****   __STATIC_FORCEINLINE uint32_t __QSAX(
 379:.\DSP\Include/dsp/none.h ****   uint32_t x,
 380:.\DSP\Include/dsp/none.h ****   uint32_t y)
 381:.\DSP\Include/dsp/none.h ****   {
 382:.\DSP\Include/dsp/none.h ****     q31_t r, s;
 383:.\DSP\Include/dsp/none.h **** 
 384:.\DSP\Include/dsp/none.h ****     r = __SSAT(((((q31_t)x << 16) >> 16) + (((q31_t)y      ) >> 16)), 16) & (int32_t)0x0000FFFF;
 385:.\DSP\Include/dsp/none.h ****     s = __SSAT(((((q31_t)x      ) >> 16) - (((q31_t)y << 16) >> 16)), 16) & (int32_t)0x0000FFFF;
 386:.\DSP\Include/dsp/none.h **** 
 387:.\DSP\Include/dsp/none.h ****     return ((uint32_t)((s << 16) | (r      )));
 388:.\DSP\Include/dsp/none.h ****   }
 389:.\DSP\Include/dsp/none.h **** 
 390:.\DSP\Include/dsp/none.h **** 
 391:.\DSP\Include/dsp/none.h ****   /*
 392:.\DSP\Include/dsp/none.h ****    * @brief C custom defined SHSAX
 393:.\DSP\Include/dsp/none.h ****    */
 394:.\DSP\Include/dsp/none.h ****   __STATIC_FORCEINLINE uint32_t __SHSAX(
 395:.\DSP\Include/dsp/none.h ****   uint32_t x,
 396:.\DSP\Include/dsp/none.h ****   uint32_t y)
 397:.\DSP\Include/dsp/none.h ****   {
 398:.\DSP\Include/dsp/none.h ****     q31_t r, s;
 399:.\DSP\Include/dsp/none.h **** 
 400:.\DSP\Include/dsp/none.h ****     r = (((((q31_t)x << 16) >> 16) + (((q31_t)y      ) >> 16)) >> 1) & (int32_t)0x0000FFFF;
 401:.\DSP\Include/dsp/none.h ****     s = (((((q31_t)x      ) >> 16) - (((q31_t)y << 16) >> 16)) >> 1) & (int32_t)0x0000FFFF;
 402:.\DSP\Include/dsp/none.h **** 
 403:.\DSP\Include/dsp/none.h ****     return ((uint32_t)((s << 16) | (r      )));
 404:.\DSP\Include/dsp/none.h ****   }
 405:.\DSP\Include/dsp/none.h **** 
 406:.\DSP\Include/dsp/none.h **** 
 407:.\DSP\Include/dsp/none.h ****   /*
 408:.\DSP\Include/dsp/none.h ****    * @brief C custom defined SMUSDX
 409:.\DSP\Include/dsp/none.h ****    */
 410:.\DSP\Include/dsp/none.h ****   __STATIC_FORCEINLINE uint32_t __SMUSDX(
 411:.\DSP\Include/dsp/none.h ****   uint32_t x,
 412:.\DSP\Include/dsp/none.h ****   uint32_t y)
 413:.\DSP\Include/dsp/none.h ****   {
 414:.\DSP\Include/dsp/none.h ****     return ((uint32_t)(((((q31_t)x << 16) >> 16) * (((q31_t)y      ) >> 16)) -
 415:.\DSP\Include/dsp/none.h ****                        ((((q31_t)x      ) >> 16) * (((q31_t)y << 16) >> 16))   ));
 416:.\DSP\Include/dsp/none.h ****   }
 417:.\DSP\Include/dsp/none.h **** 
 418:.\DSP\Include/dsp/none.h ****   /*
 419:.\DSP\Include/dsp/none.h ****    * @brief C custom defined SMUADX
 420:.\DSP\Include/dsp/none.h ****    */
 421:.\DSP\Include/dsp/none.h ****   __STATIC_FORCEINLINE uint32_t __SMUADX(
 422:.\DSP\Include/dsp/none.h ****   uint32_t x,
 423:.\DSP\Include/dsp/none.h ****   uint32_t y)
 424:.\DSP\Include/dsp/none.h ****   {
 425:.\DSP\Include/dsp/none.h ****     return ((uint32_t)(((((q31_t)x << 16) >> 16) * (((q31_t)y      ) >> 16)) +
 426:.\DSP\Include/dsp/none.h ****                        ((((q31_t)x      ) >> 16) * (((q31_t)y << 16) >> 16))   ));
ARM GAS  C:\Users\IVYLIU~1\AppData\Local\Temp\cc7gzL6d.s 			page 43


 427:.\DSP\Include/dsp/none.h ****   }
 428:.\DSP\Include/dsp/none.h **** 
 429:.\DSP\Include/dsp/none.h **** 
 430:.\DSP\Include/dsp/none.h ****   /*
 431:.\DSP\Include/dsp/none.h ****    * @brief C custom defined QADD
 432:.\DSP\Include/dsp/none.h ****    */
 433:.\DSP\Include/dsp/none.h ****   __STATIC_FORCEINLINE int32_t __QADD(
 434:.\DSP\Include/dsp/none.h ****   int32_t x,
 435:.\DSP\Include/dsp/none.h ****   int32_t y)
 436:.\DSP\Include/dsp/none.h ****   {
 437:.\DSP\Include/dsp/none.h ****     return ((int32_t)(clip_q63_to_q31((q63_t)x + (q31_t)y)));
 551              		.loc 10 437 0
 552 000e C117     		asrs	r1, r0, #31
 553 0010 C019     		adds	r0, r0, r7
 554              	.LVL82:
 555 0012 41EBE771 		adc	r1, r1, r7, asr #31
 556              	.LVL83:
 557              	.LBB22:
 558              	.LBB23:
 140:.\DSP\Include/dsp/none.h ****   }
 559              		.loc 10 140 0
 560 0016 B1EBE07F 		cmp	r1, r0, asr #31
 561 001a 03D0     		beq	.L49
 562 001c 6FF00040 		mvn	r0, #-2147483648
 563              	.LVL84:
 564 0020 80EAE170 		eor	r0, r0, r1, asr #31
 565              	.L49:
 566              	.LBE23:
 567              	.LBE22:
 568              	.LBE21:
 569              	.LBE20:
 570              		.loc 9 148 0
 571 0024 1060     		str	r0, [r2]
 572              	.LVL85:
 149:.\DSP\Source\BasicMathFunctions/arm_add_q31.c **** 
 150:.\DSP\Source\BasicMathFunctions/arm_add_q31.c ****     /* Decrement loop counter */
 151:.\DSP\Source\BasicMathFunctions/arm_add_q31.c ****     blkCnt--;
 573              		.loc 9 151 0
 574 0026 013B     		subs	r3, r3, #1
 575              	.LVL86:
 148:.\DSP\Source\BasicMathFunctions/arm_add_q31.c **** 
 576              		.loc 9 148 0
 577 0028 3246     		mov	r2, r6
 578 002a 2946     		mov	r1, r5
 579 002c 2046     		mov	r0, r4
 580              	.LVL87:
 581              	.L45:
 143:.\DSP\Source\BasicMathFunctions/arm_add_q31.c ****   {
 582              		.loc 9 143 0
 583 002e 002B     		cmp	r3, #0
 584 0030 E8D1     		bne	.L48
 152:.\DSP\Source\BasicMathFunctions/arm_add_q31.c ****   }
 153:.\DSP\Source\BasicMathFunctions/arm_add_q31.c **** 
 154:.\DSP\Source\BasicMathFunctions/arm_add_q31.c **** }
 585              		.loc 9 154 0
 586 0032 F0BC     		pop	{r4, r5, r6, r7}
 587              		.cfi_restore 7
ARM GAS  C:\Users\IVYLIU~1\AppData\Local\Temp\cc7gzL6d.s 			page 44


 588              		.cfi_restore 6
 589              		.cfi_restore 5
 590              		.cfi_restore 4
 591              		.cfi_def_cfa_offset 0
 592 0034 7047     		bx	lr
 593              		.cfi_endproc
 594              	.LFE91:
 595              		.size	arm_add_q31, .-arm_add_q31
 596 0036 00BF     		.section	.text.arm_add_q7,"ax",%progbits
 597              		.align	2
 598              		.global	arm_add_q7
 599              		.thumb
 600              		.thumb_func
 601              		.type	arm_add_q7, %function
 602              	arm_add_q7:
 603              	.LFB92:
 604              		.file 11 ".\\DSP\\Source\\BasicMathFunctions\\arm_add_q7.c"
   1:.\DSP\Source\BasicMathFunctions/arm_add_q7.c **** /*
   2:.\DSP\Source\BasicMathFunctions/arm_add_q7.c ****  * Copyright (C) 2010-2021 ARM Limited or its affiliates. All rights reserved.
   3:.\DSP\Source\BasicMathFunctions/arm_add_q7.c ****  *
   4:.\DSP\Source\BasicMathFunctions/arm_add_q7.c ****  * SPDX-License-Identifier: Apache-2.0
   5:.\DSP\Source\BasicMathFunctions/arm_add_q7.c ****  *
   6:.\DSP\Source\BasicMathFunctions/arm_add_q7.c ****  * Licensed under the Apache License, Version 2.0 (the License); you may
   7:.\DSP\Source\BasicMathFunctions/arm_add_q7.c ****  * not use this file except in compliance with the License.
   8:.\DSP\Source\BasicMathFunctions/arm_add_q7.c ****  * You may obtain a copy of the License at
   9:.\DSP\Source\BasicMathFunctions/arm_add_q7.c ****  *
  10:.\DSP\Source\BasicMathFunctions/arm_add_q7.c ****  * www.apache.org/licenses/LICENSE-2.0
  11:.\DSP\Source\BasicMathFunctions/arm_add_q7.c ****  *
  12:.\DSP\Source\BasicMathFunctions/arm_add_q7.c ****  * Unless required by applicable law or agreed to in writing, software
  13:.\DSP\Source\BasicMathFunctions/arm_add_q7.c ****  * distributed under the License is distributed on an AS IS BASIS, WITHOUT
  14:.\DSP\Source\BasicMathFunctions/arm_add_q7.c ****  * WARRANTIES OR CONDITIONS OF ANY KIND, either express or implied.
  15:.\DSP\Source\BasicMathFunctions/arm_add_q7.c ****  * See the License for the specific language governing permissions and
  16:.\DSP\Source\BasicMathFunctions/arm_add_q7.c ****  * limitations under the License.
  17:.\DSP\Source\BasicMathFunctions/arm_add_q7.c ****  */
  18:.\DSP\Source\BasicMathFunctions/arm_add_q7.c **** 
  19:.\DSP\Source\BasicMathFunctions/arm_add_q7.c **** /* ----------------------------------------------------------------------
  20:.\DSP\Source\BasicMathFunctions/arm_add_q7.c ****  * Project:      CMSIS DSP Library
  21:.\DSP\Source\BasicMathFunctions/arm_add_q7.c ****  * Title:        arm_add_q7.c
  22:.\DSP\Source\BasicMathFunctions/arm_add_q7.c ****  * Description:  Q7 vector addition
  23:.\DSP\Source\BasicMathFunctions/arm_add_q7.c ****  *
  24:.\DSP\Source\BasicMathFunctions/arm_add_q7.c ****  * $Date:        23 April 2021
  25:.\DSP\Source\BasicMathFunctions/arm_add_q7.c ****  * $Revision:    V1.9.0
  26:.\DSP\Source\BasicMathFunctions/arm_add_q7.c ****  *
  27:.\DSP\Source\BasicMathFunctions/arm_add_q7.c ****  * Target Processor: Cortex-M and Cortex-A cores
  28:.\DSP\Source\BasicMathFunctions/arm_add_q7.c ****  * -------------------------------------------------------------------- */
  29:.\DSP\Source\BasicMathFunctions/arm_add_q7.c **** 
  30:.\DSP\Source\BasicMathFunctions/arm_add_q7.c **** #include "dsp/basic_math_functions.h"
  31:.\DSP\Source\BasicMathFunctions/arm_add_q7.c **** 
  32:.\DSP\Source\BasicMathFunctions/arm_add_q7.c **** /**
  33:.\DSP\Source\BasicMathFunctions/arm_add_q7.c ****   @ingroup groupMath
  34:.\DSP\Source\BasicMathFunctions/arm_add_q7.c ****  */
  35:.\DSP\Source\BasicMathFunctions/arm_add_q7.c **** 
  36:.\DSP\Source\BasicMathFunctions/arm_add_q7.c **** /**
  37:.\DSP\Source\BasicMathFunctions/arm_add_q7.c ****   @addtogroup BasicAdd
  38:.\DSP\Source\BasicMathFunctions/arm_add_q7.c ****   @{
  39:.\DSP\Source\BasicMathFunctions/arm_add_q7.c ****  */
  40:.\DSP\Source\BasicMathFunctions/arm_add_q7.c **** 
ARM GAS  C:\Users\IVYLIU~1\AppData\Local\Temp\cc7gzL6d.s 			page 45


  41:.\DSP\Source\BasicMathFunctions/arm_add_q7.c **** /**
  42:.\DSP\Source\BasicMathFunctions/arm_add_q7.c ****   @brief         Q7 vector addition.
  43:.\DSP\Source\BasicMathFunctions/arm_add_q7.c ****   @param[in]     pSrcA      points to the first input vector
  44:.\DSP\Source\BasicMathFunctions/arm_add_q7.c ****   @param[in]     pSrcB      points to the second input vector
  45:.\DSP\Source\BasicMathFunctions/arm_add_q7.c ****   @param[out]    pDst       points to the output vector
  46:.\DSP\Source\BasicMathFunctions/arm_add_q7.c ****   @param[in]     blockSize  number of samples in each vector
  47:.\DSP\Source\BasicMathFunctions/arm_add_q7.c ****   @return        none
  48:.\DSP\Source\BasicMathFunctions/arm_add_q7.c **** 
  49:.\DSP\Source\BasicMathFunctions/arm_add_q7.c ****   @par           Scaling and Overflow Behavior
  50:.\DSP\Source\BasicMathFunctions/arm_add_q7.c ****                    The function uses saturating arithmetic.
  51:.\DSP\Source\BasicMathFunctions/arm_add_q7.c ****                    Results outside of the allowable Q7 range [0x80 0x7F] are saturated.
  52:.\DSP\Source\BasicMathFunctions/arm_add_q7.c ****  */
  53:.\DSP\Source\BasicMathFunctions/arm_add_q7.c **** 
  54:.\DSP\Source\BasicMathFunctions/arm_add_q7.c **** #if defined(ARM_MATH_MVEI) && !defined(ARM_MATH_AUTOVECTORIZE)
  55:.\DSP\Source\BasicMathFunctions/arm_add_q7.c **** 
  56:.\DSP\Source\BasicMathFunctions/arm_add_q7.c **** #include "arm_helium_utils.h"
  57:.\DSP\Source\BasicMathFunctions/arm_add_q7.c **** 
  58:.\DSP\Source\BasicMathFunctions/arm_add_q7.c **** void arm_add_q7(
  59:.\DSP\Source\BasicMathFunctions/arm_add_q7.c ****     const q7_t * pSrcA,
  60:.\DSP\Source\BasicMathFunctions/arm_add_q7.c ****     const q7_t * pSrcB,
  61:.\DSP\Source\BasicMathFunctions/arm_add_q7.c ****     q7_t * pDst,
  62:.\DSP\Source\BasicMathFunctions/arm_add_q7.c ****     uint32_t blockSize)
  63:.\DSP\Source\BasicMathFunctions/arm_add_q7.c **** {
  64:.\DSP\Source\BasicMathFunctions/arm_add_q7.c ****     uint32_t  blkCnt;           /* loop counters */
  65:.\DSP\Source\BasicMathFunctions/arm_add_q7.c ****     q7x16_t vecA;
  66:.\DSP\Source\BasicMathFunctions/arm_add_q7.c ****     q7x16_t vecB;
  67:.\DSP\Source\BasicMathFunctions/arm_add_q7.c **** 
  68:.\DSP\Source\BasicMathFunctions/arm_add_q7.c ****     /* Compute 16 outputs at a time */
  69:.\DSP\Source\BasicMathFunctions/arm_add_q7.c ****     blkCnt = blockSize >> 4;
  70:.\DSP\Source\BasicMathFunctions/arm_add_q7.c ****     while (blkCnt > 0U)
  71:.\DSP\Source\BasicMathFunctions/arm_add_q7.c ****     {
  72:.\DSP\Source\BasicMathFunctions/arm_add_q7.c ****         /*
  73:.\DSP\Source\BasicMathFunctions/arm_add_q7.c ****          * C = A + B
  74:.\DSP\Source\BasicMathFunctions/arm_add_q7.c ****          * Add and then store the results in the destination buffer.
  75:.\DSP\Source\BasicMathFunctions/arm_add_q7.c ****          */
  76:.\DSP\Source\BasicMathFunctions/arm_add_q7.c ****         vecA = vld1q(pSrcA);
  77:.\DSP\Source\BasicMathFunctions/arm_add_q7.c ****         vecB = vld1q(pSrcB);
  78:.\DSP\Source\BasicMathFunctions/arm_add_q7.c ****         vst1q(pDst, vqaddq(vecA, vecB));
  79:.\DSP\Source\BasicMathFunctions/arm_add_q7.c ****         /*
  80:.\DSP\Source\BasicMathFunctions/arm_add_q7.c ****          * Decrement the blockSize loop counter
  81:.\DSP\Source\BasicMathFunctions/arm_add_q7.c ****          */
  82:.\DSP\Source\BasicMathFunctions/arm_add_q7.c ****         blkCnt--;
  83:.\DSP\Source\BasicMathFunctions/arm_add_q7.c ****         /*
  84:.\DSP\Source\BasicMathFunctions/arm_add_q7.c ****          * advance vector source and destination pointers
  85:.\DSP\Source\BasicMathFunctions/arm_add_q7.c ****          */
  86:.\DSP\Source\BasicMathFunctions/arm_add_q7.c ****         pSrcA  += 16;
  87:.\DSP\Source\BasicMathFunctions/arm_add_q7.c ****         pSrcB  += 16;
  88:.\DSP\Source\BasicMathFunctions/arm_add_q7.c ****         pDst   += 16;
  89:.\DSP\Source\BasicMathFunctions/arm_add_q7.c ****     }
  90:.\DSP\Source\BasicMathFunctions/arm_add_q7.c ****     /*
  91:.\DSP\Source\BasicMathFunctions/arm_add_q7.c ****      * tail
  92:.\DSP\Source\BasicMathFunctions/arm_add_q7.c ****      */
  93:.\DSP\Source\BasicMathFunctions/arm_add_q7.c ****     blkCnt = blockSize & 0xF;
  94:.\DSP\Source\BasicMathFunctions/arm_add_q7.c ****     if (blkCnt > 0U)
  95:.\DSP\Source\BasicMathFunctions/arm_add_q7.c ****     {
  96:.\DSP\Source\BasicMathFunctions/arm_add_q7.c ****         mve_pred16_t p0 = vctp8q(blkCnt);
  97:.\DSP\Source\BasicMathFunctions/arm_add_q7.c ****         vecA = vld1q(pSrcA);
ARM GAS  C:\Users\IVYLIU~1\AppData\Local\Temp\cc7gzL6d.s 			page 46


  98:.\DSP\Source\BasicMathFunctions/arm_add_q7.c ****         vecB = vld1q(pSrcB);
  99:.\DSP\Source\BasicMathFunctions/arm_add_q7.c ****         vstrbq_p(pDst, vqaddq(vecA, vecB), p0);
 100:.\DSP\Source\BasicMathFunctions/arm_add_q7.c ****     }
 101:.\DSP\Source\BasicMathFunctions/arm_add_q7.c **** }
 102:.\DSP\Source\BasicMathFunctions/arm_add_q7.c **** #else
 103:.\DSP\Source\BasicMathFunctions/arm_add_q7.c **** void arm_add_q7(
 104:.\DSP\Source\BasicMathFunctions/arm_add_q7.c ****   const q7_t * pSrcA,
 105:.\DSP\Source\BasicMathFunctions/arm_add_q7.c ****   const q7_t * pSrcB,
 106:.\DSP\Source\BasicMathFunctions/arm_add_q7.c ****         q7_t * pDst,
 107:.\DSP\Source\BasicMathFunctions/arm_add_q7.c ****         uint32_t blockSize)
 108:.\DSP\Source\BasicMathFunctions/arm_add_q7.c **** {
 605              		.loc 11 108 0
 606              		.cfi_startproc
 607              		@ args = 0, pretend = 0, frame = 0
 608              		@ frame_needed = 0, uses_anonymous_args = 0
 609              		@ link register save eliminated.
 610              	.LVL88:
 611 0000 E0B4     		push	{r5, r6, r7}
 612              		.cfi_def_cfa_offset 12
 613              		.cfi_offset 5, -12
 614              		.cfi_offset 6, -8
 615              		.cfi_offset 7, -4
 616              	.LVL89:
 109:.\DSP\Source\BasicMathFunctions/arm_add_q7.c ****         uint32_t blkCnt;                               /* Loop counter */
 110:.\DSP\Source\BasicMathFunctions/arm_add_q7.c **** 
 111:.\DSP\Source\BasicMathFunctions/arm_add_q7.c **** #if defined (ARM_MATH_LOOPUNROLL)
 112:.\DSP\Source\BasicMathFunctions/arm_add_q7.c **** 
 113:.\DSP\Source\BasicMathFunctions/arm_add_q7.c ****   /* Loop unrolling: Compute 4 outputs at a time */
 114:.\DSP\Source\BasicMathFunctions/arm_add_q7.c ****   blkCnt = blockSize >> 2U;
 115:.\DSP\Source\BasicMathFunctions/arm_add_q7.c **** 
 116:.\DSP\Source\BasicMathFunctions/arm_add_q7.c ****   while (blkCnt > 0U)
 117:.\DSP\Source\BasicMathFunctions/arm_add_q7.c ****   {
 118:.\DSP\Source\BasicMathFunctions/arm_add_q7.c ****     /* C = A + B */
 119:.\DSP\Source\BasicMathFunctions/arm_add_q7.c **** 
 120:.\DSP\Source\BasicMathFunctions/arm_add_q7.c **** #if defined (ARM_MATH_DSP)
 121:.\DSP\Source\BasicMathFunctions/arm_add_q7.c ****     /* Add and store result in destination buffer (4 samples at a time). */
 122:.\DSP\Source\BasicMathFunctions/arm_add_q7.c ****     write_q7x4_ia (&pDst, __QADD8 (read_q7x4_ia (&pSrcA), read_q7x4_ia (&pSrcB)));
 123:.\DSP\Source\BasicMathFunctions/arm_add_q7.c **** #else
 124:.\DSP\Source\BasicMathFunctions/arm_add_q7.c ****     *pDst++ = (q7_t) __SSAT ((q15_t) *pSrcA++ + *pSrcB++, 8);
 125:.\DSP\Source\BasicMathFunctions/arm_add_q7.c ****     *pDst++ = (q7_t) __SSAT ((q15_t) *pSrcA++ + *pSrcB++, 8);
 126:.\DSP\Source\BasicMathFunctions/arm_add_q7.c ****     *pDst++ = (q7_t) __SSAT ((q15_t) *pSrcA++ + *pSrcB++, 8);
 127:.\DSP\Source\BasicMathFunctions/arm_add_q7.c ****     *pDst++ = (q7_t) __SSAT ((q15_t) *pSrcA++ + *pSrcB++, 8);
 128:.\DSP\Source\BasicMathFunctions/arm_add_q7.c **** #endif
 129:.\DSP\Source\BasicMathFunctions/arm_add_q7.c **** 
 130:.\DSP\Source\BasicMathFunctions/arm_add_q7.c ****     /* Decrement loop counter */
 131:.\DSP\Source\BasicMathFunctions/arm_add_q7.c ****     blkCnt--;
 132:.\DSP\Source\BasicMathFunctions/arm_add_q7.c ****   }
 133:.\DSP\Source\BasicMathFunctions/arm_add_q7.c **** 
 134:.\DSP\Source\BasicMathFunctions/arm_add_q7.c ****   /* Loop unrolling: Compute remaining outputs */
 135:.\DSP\Source\BasicMathFunctions/arm_add_q7.c ****   blkCnt = blockSize % 0x4U;
 136:.\DSP\Source\BasicMathFunctions/arm_add_q7.c **** 
 137:.\DSP\Source\BasicMathFunctions/arm_add_q7.c **** #else
 138:.\DSP\Source\BasicMathFunctions/arm_add_q7.c **** 
 139:.\DSP\Source\BasicMathFunctions/arm_add_q7.c ****   /* Initialize blkCnt with number of samples */
 140:.\DSP\Source\BasicMathFunctions/arm_add_q7.c ****   blkCnt = blockSize;
 141:.\DSP\Source\BasicMathFunctions/arm_add_q7.c **** 
 142:.\DSP\Source\BasicMathFunctions/arm_add_q7.c **** #endif /* #if defined (ARM_MATH_LOOPUNROLL) */
ARM GAS  C:\Users\IVYLIU~1\AppData\Local\Temp\cc7gzL6d.s 			page 47


 143:.\DSP\Source\BasicMathFunctions/arm_add_q7.c **** 
 144:.\DSP\Source\BasicMathFunctions/arm_add_q7.c ****   while (blkCnt > 0U)
 617              		.loc 11 144 0
 618 0002 0EE0     		b	.L52
 619              	.LVL90:
 620              	.L53:
 145:.\DSP\Source\BasicMathFunctions/arm_add_q7.c ****   {
 146:.\DSP\Source\BasicMathFunctions/arm_add_q7.c ****     /* C = A + B */
 147:.\DSP\Source\BasicMathFunctions/arm_add_q7.c **** 
 148:.\DSP\Source\BasicMathFunctions/arm_add_q7.c ****     /* Add and store result in destination buffer. */
 149:.\DSP\Source\BasicMathFunctions/arm_add_q7.c ****     *pDst++ = (q7_t) __SSAT((q15_t) *pSrcA++ + *pSrcB++, 8);
 621              		.loc 11 149 0
 622 0004 571C     		adds	r7, r2, #1
 623              	.LVL91:
 624              	.LBB24:
 625 0006 451C     		adds	r5, r0, #1
 626              	.LVL92:
 627 0008 4E1C     		adds	r6, r1, #1
 628              	.LVL93:
 629 000a 90F90000 		ldrsb	r0, [r0]
 630 000e 91F90010 		ldrsb	r1, [r1]
 631 0012 0144     		add	r1, r1, r0
 632              	.LVL94:
 633              	@ 149 ".\DSP\Source\BasicMathFunctions\arm_add_q7.c" 1
 634 0014 01F30701 		ssat r1, #8, r1
 635              	@ 0 "" 2
 636              	.LVL95:
 637              		.thumb
 638              	.LBE24:
 639 0018 1170     		strb	r1, [r2]
 640              	.LVL96:
 150:.\DSP\Source\BasicMathFunctions/arm_add_q7.c **** 
 151:.\DSP\Source\BasicMathFunctions/arm_add_q7.c ****     /* Decrement loop counter */
 152:.\DSP\Source\BasicMathFunctions/arm_add_q7.c ****     blkCnt--;
 641              		.loc 11 152 0
 642 001a 013B     		subs	r3, r3, #1
 643              	.LVL97:
 149:.\DSP\Source\BasicMathFunctions/arm_add_q7.c **** 
 644              		.loc 11 149 0
 645 001c 3A46     		mov	r2, r7
 646              	.LBB25:
 647 001e 3146     		mov	r1, r6
 648              	.LVL98:
 649 0020 2846     		mov	r0, r5
 650              	.LVL99:
 651              	.L52:
 652              	.LBE25:
 144:.\DSP\Source\BasicMathFunctions/arm_add_q7.c ****   {
 653              		.loc 11 144 0
 654 0022 002B     		cmp	r3, #0
 655 0024 EED1     		bne	.L53
 153:.\DSP\Source\BasicMathFunctions/arm_add_q7.c ****   }
 154:.\DSP\Source\BasicMathFunctions/arm_add_q7.c **** 
 155:.\DSP\Source\BasicMathFunctions/arm_add_q7.c **** }
 656              		.loc 11 155 0
 657 0026 E0BC     		pop	{r5, r6, r7}
 658              		.cfi_restore 7
ARM GAS  C:\Users\IVYLIU~1\AppData\Local\Temp\cc7gzL6d.s 			page 48


 659              		.cfi_restore 6
 660              		.cfi_restore 5
 661              		.cfi_def_cfa_offset 0
 662 0028 7047     		bx	lr
 663              		.cfi_endproc
 664              	.LFE92:
 665              		.size	arm_add_q7, .-arm_add_q7
 666 002a 00BF     		.section	.text.arm_and_u16,"ax",%progbits
 667              		.align	2
 668              		.global	arm_and_u16
 669              		.thumb
 670              		.thumb_func
 671              		.type	arm_and_u16, %function
 672              	arm_and_u16:
 673              	.LFB93:
 674              		.file 12 ".\\DSP\\Source\\BasicMathFunctions\\arm_and_u16.c"
   1:.\DSP\Source\BasicMathFunctions/arm_and_u16.c **** /* ----------------------------------------------------------------------
   2:.\DSP\Source\BasicMathFunctions/arm_and_u16.c ****  * Project:      CMSIS DSP Library
   3:.\DSP\Source\BasicMathFunctions/arm_and_u16.c ****  * Title:        arm_and_u16.c
   4:.\DSP\Source\BasicMathFunctions/arm_and_u16.c ****  * Description:  uint16_t bitwise AND
   5:.\DSP\Source\BasicMathFunctions/arm_and_u16.c ****  *
   6:.\DSP\Source\BasicMathFunctions/arm_and_u16.c ****  * $Date:        23 April 2021
   7:.\DSP\Source\BasicMathFunctions/arm_and_u16.c ****  * $Revision:    V1.9.0
   8:.\DSP\Source\BasicMathFunctions/arm_and_u16.c ****  *
   9:.\DSP\Source\BasicMathFunctions/arm_and_u16.c ****  * Target Processor: Cortex-M and Cortex-A cores
  10:.\DSP\Source\BasicMathFunctions/arm_and_u16.c ****  * -------------------------------------------------------------------- */
  11:.\DSP\Source\BasicMathFunctions/arm_and_u16.c **** /*
  12:.\DSP\Source\BasicMathFunctions/arm_and_u16.c ****  * Copyright (C) 2010-2021 ARM Limited or its affiliates. All rights reserved.
  13:.\DSP\Source\BasicMathFunctions/arm_and_u16.c ****  *
  14:.\DSP\Source\BasicMathFunctions/arm_and_u16.c ****  * SPDX-License-Identifier: Apache-2.0
  15:.\DSP\Source\BasicMathFunctions/arm_and_u16.c ****  *
  16:.\DSP\Source\BasicMathFunctions/arm_and_u16.c ****  * Licensed under the Apache License, Version 2.0 (the License); you may
  17:.\DSP\Source\BasicMathFunctions/arm_and_u16.c ****  * not use this file except in compliance with the License.
  18:.\DSP\Source\BasicMathFunctions/arm_and_u16.c ****  * You may obtain a copy of the License at
  19:.\DSP\Source\BasicMathFunctions/arm_and_u16.c ****  *
  20:.\DSP\Source\BasicMathFunctions/arm_and_u16.c ****  * www.apache.org/licenses/LICENSE-2.0
  21:.\DSP\Source\BasicMathFunctions/arm_and_u16.c ****  *
  22:.\DSP\Source\BasicMathFunctions/arm_and_u16.c ****  * Unless required by applicable law or agreed to in writing, software
  23:.\DSP\Source\BasicMathFunctions/arm_and_u16.c ****  * distributed under the License is distributed on an AS IS BASIS, WITHOUT
  24:.\DSP\Source\BasicMathFunctions/arm_and_u16.c ****  * WARRANTIES OR CONDITIONS OF ANY KIND, either express or implied.
  25:.\DSP\Source\BasicMathFunctions/arm_and_u16.c ****  * See the License for the specific language governing permissions and
  26:.\DSP\Source\BasicMathFunctions/arm_and_u16.c ****  * limitations under the License.
  27:.\DSP\Source\BasicMathFunctions/arm_and_u16.c ****  */
  28:.\DSP\Source\BasicMathFunctions/arm_and_u16.c **** 
  29:.\DSP\Source\BasicMathFunctions/arm_and_u16.c **** #include "dsp/basic_math_functions.h"
  30:.\DSP\Source\BasicMathFunctions/arm_and_u16.c **** 
  31:.\DSP\Source\BasicMathFunctions/arm_and_u16.c **** /**
  32:.\DSP\Source\BasicMathFunctions/arm_and_u16.c ****   @ingroup groupMath
  33:.\DSP\Source\BasicMathFunctions/arm_and_u16.c ****  */
  34:.\DSP\Source\BasicMathFunctions/arm_and_u16.c **** 
  35:.\DSP\Source\BasicMathFunctions/arm_and_u16.c **** /**
  36:.\DSP\Source\BasicMathFunctions/arm_and_u16.c ****   @defgroup And Vector bitwise AND
  37:.\DSP\Source\BasicMathFunctions/arm_and_u16.c **** 
  38:.\DSP\Source\BasicMathFunctions/arm_and_u16.c ****   Compute the logical bitwise AND.
  39:.\DSP\Source\BasicMathFunctions/arm_and_u16.c **** 
  40:.\DSP\Source\BasicMathFunctions/arm_and_u16.c ****   There are separate functions for uint32_t, uint16_t, and uint7_t data types.
  41:.\DSP\Source\BasicMathFunctions/arm_and_u16.c ****  */
ARM GAS  C:\Users\IVYLIU~1\AppData\Local\Temp\cc7gzL6d.s 			page 49


  42:.\DSP\Source\BasicMathFunctions/arm_and_u16.c **** 
  43:.\DSP\Source\BasicMathFunctions/arm_and_u16.c **** /**
  44:.\DSP\Source\BasicMathFunctions/arm_and_u16.c ****   @addtogroup And
  45:.\DSP\Source\BasicMathFunctions/arm_and_u16.c ****   @{
  46:.\DSP\Source\BasicMathFunctions/arm_and_u16.c ****  */
  47:.\DSP\Source\BasicMathFunctions/arm_and_u16.c **** 
  48:.\DSP\Source\BasicMathFunctions/arm_and_u16.c **** /**
  49:.\DSP\Source\BasicMathFunctions/arm_and_u16.c ****   @brief         Compute the logical bitwise AND of two fixed-point vectors.
  50:.\DSP\Source\BasicMathFunctions/arm_and_u16.c ****   @param[in]     pSrcA      points to input vector A
  51:.\DSP\Source\BasicMathFunctions/arm_and_u16.c ****   @param[in]     pSrcB      points to input vector B
  52:.\DSP\Source\BasicMathFunctions/arm_and_u16.c ****   @param[out]    pDst       points to output vector
  53:.\DSP\Source\BasicMathFunctions/arm_and_u16.c ****   @param[in]     blockSize  number of samples in each vector
  54:.\DSP\Source\BasicMathFunctions/arm_and_u16.c ****   @return        none
  55:.\DSP\Source\BasicMathFunctions/arm_and_u16.c ****  */
  56:.\DSP\Source\BasicMathFunctions/arm_and_u16.c **** 
  57:.\DSP\Source\BasicMathFunctions/arm_and_u16.c **** void arm_and_u16(
  58:.\DSP\Source\BasicMathFunctions/arm_and_u16.c ****     const uint16_t * pSrcA,
  59:.\DSP\Source\BasicMathFunctions/arm_and_u16.c ****     const uint16_t * pSrcB,
  60:.\DSP\Source\BasicMathFunctions/arm_and_u16.c ****           uint16_t * pDst,
  61:.\DSP\Source\BasicMathFunctions/arm_and_u16.c ****           uint32_t blockSize)
  62:.\DSP\Source\BasicMathFunctions/arm_and_u16.c **** {
 675              		.loc 12 62 0
 676              		.cfi_startproc
 677              		@ args = 0, pretend = 0, frame = 0
 678              		@ frame_needed = 0, uses_anonymous_args = 0
 679              		@ link register save eliminated.
 680              	.LVL100:
 681 0000 30B4     		push	{r4, r5}
 682              		.cfi_def_cfa_offset 8
 683              		.cfi_offset 4, -8
 684              		.cfi_offset 5, -4
 685              	.LVL101:
  63:.\DSP\Source\BasicMathFunctions/arm_and_u16.c ****     uint32_t blkCnt;      /* Loop counter */
  64:.\DSP\Source\BasicMathFunctions/arm_and_u16.c **** 
  65:.\DSP\Source\BasicMathFunctions/arm_and_u16.c **** #if defined(ARM_MATH_MVEI) && !defined(ARM_MATH_AUTOVECTORIZE)
  66:.\DSP\Source\BasicMathFunctions/arm_and_u16.c ****     uint16x8_t vecSrcA, vecSrcB;
  67:.\DSP\Source\BasicMathFunctions/arm_and_u16.c **** 
  68:.\DSP\Source\BasicMathFunctions/arm_and_u16.c ****     /* Compute 8 outputs at a time */
  69:.\DSP\Source\BasicMathFunctions/arm_and_u16.c ****     blkCnt = blockSize >> 3;
  70:.\DSP\Source\BasicMathFunctions/arm_and_u16.c **** 
  71:.\DSP\Source\BasicMathFunctions/arm_and_u16.c ****     while (blkCnt > 0U)
  72:.\DSP\Source\BasicMathFunctions/arm_and_u16.c ****     {
  73:.\DSP\Source\BasicMathFunctions/arm_and_u16.c ****         vecSrcA = vld1q(pSrcA);
  74:.\DSP\Source\BasicMathFunctions/arm_and_u16.c ****         vecSrcB = vld1q(pSrcB);
  75:.\DSP\Source\BasicMathFunctions/arm_and_u16.c **** 
  76:.\DSP\Source\BasicMathFunctions/arm_and_u16.c ****         vst1q(pDst, vandq_u16(vecSrcA, vecSrcB) );
  77:.\DSP\Source\BasicMathFunctions/arm_and_u16.c **** 
  78:.\DSP\Source\BasicMathFunctions/arm_and_u16.c ****         pSrcA += 8;
  79:.\DSP\Source\BasicMathFunctions/arm_and_u16.c ****         pSrcB += 8;
  80:.\DSP\Source\BasicMathFunctions/arm_and_u16.c ****         pDst  += 8;
  81:.\DSP\Source\BasicMathFunctions/arm_and_u16.c **** 
  82:.\DSP\Source\BasicMathFunctions/arm_and_u16.c ****         /* Decrement the loop counter */
  83:.\DSP\Source\BasicMathFunctions/arm_and_u16.c ****         blkCnt--;
  84:.\DSP\Source\BasicMathFunctions/arm_and_u16.c ****     }
  85:.\DSP\Source\BasicMathFunctions/arm_and_u16.c **** 
  86:.\DSP\Source\BasicMathFunctions/arm_and_u16.c ****     /* Tail */
  87:.\DSP\Source\BasicMathFunctions/arm_and_u16.c ****     blkCnt = blockSize & 7;
ARM GAS  C:\Users\IVYLIU~1\AppData\Local\Temp\cc7gzL6d.s 			page 50


  88:.\DSP\Source\BasicMathFunctions/arm_and_u16.c **** 
  89:.\DSP\Source\BasicMathFunctions/arm_and_u16.c ****     if (blkCnt > 0U)
  90:.\DSP\Source\BasicMathFunctions/arm_and_u16.c ****     {
  91:.\DSP\Source\BasicMathFunctions/arm_and_u16.c ****         mve_pred16_t p0 = vctp16q(blkCnt);
  92:.\DSP\Source\BasicMathFunctions/arm_and_u16.c ****         vecSrcA = vld1q(pSrcA);
  93:.\DSP\Source\BasicMathFunctions/arm_and_u16.c ****         vecSrcB = vld1q(pSrcB);
  94:.\DSP\Source\BasicMathFunctions/arm_and_u16.c ****         vstrhq_p(pDst, vandq_u16(vecSrcA, vecSrcB), p0);
  95:.\DSP\Source\BasicMathFunctions/arm_and_u16.c ****     }
  96:.\DSP\Source\BasicMathFunctions/arm_and_u16.c **** #else
  97:.\DSP\Source\BasicMathFunctions/arm_and_u16.c **** #if defined(ARM_MATH_NEON) && !defined(ARM_MATH_AUTOVECTORIZE)
  98:.\DSP\Source\BasicMathFunctions/arm_and_u16.c ****     uint16x8_t vecA, vecB;
  99:.\DSP\Source\BasicMathFunctions/arm_and_u16.c **** 
 100:.\DSP\Source\BasicMathFunctions/arm_and_u16.c ****     /* Compute 8 outputs at a time */
 101:.\DSP\Source\BasicMathFunctions/arm_and_u16.c ****     blkCnt = blockSize >> 3U;
 102:.\DSP\Source\BasicMathFunctions/arm_and_u16.c **** 
 103:.\DSP\Source\BasicMathFunctions/arm_and_u16.c ****     while (blkCnt > 0U)
 104:.\DSP\Source\BasicMathFunctions/arm_and_u16.c ****     {
 105:.\DSP\Source\BasicMathFunctions/arm_and_u16.c ****         vecA = vld1q_u16(pSrcA);
 106:.\DSP\Source\BasicMathFunctions/arm_and_u16.c ****         vecB = vld1q_u16(pSrcB);
 107:.\DSP\Source\BasicMathFunctions/arm_and_u16.c **** 
 108:.\DSP\Source\BasicMathFunctions/arm_and_u16.c ****         vst1q_u16(pDst, vandq_u16(vecA, vecB) );
 109:.\DSP\Source\BasicMathFunctions/arm_and_u16.c **** 
 110:.\DSP\Source\BasicMathFunctions/arm_and_u16.c ****         pSrcA += 8;
 111:.\DSP\Source\BasicMathFunctions/arm_and_u16.c ****         pSrcB += 8;
 112:.\DSP\Source\BasicMathFunctions/arm_and_u16.c ****         pDst  += 8;
 113:.\DSP\Source\BasicMathFunctions/arm_and_u16.c **** 
 114:.\DSP\Source\BasicMathFunctions/arm_and_u16.c ****         /* Decrement the loop counter */
 115:.\DSP\Source\BasicMathFunctions/arm_and_u16.c ****         blkCnt--;
 116:.\DSP\Source\BasicMathFunctions/arm_and_u16.c ****     }
 117:.\DSP\Source\BasicMathFunctions/arm_and_u16.c **** 
 118:.\DSP\Source\BasicMathFunctions/arm_and_u16.c ****     /* Tail */
 119:.\DSP\Source\BasicMathFunctions/arm_and_u16.c ****     blkCnt = blockSize & 7;
 120:.\DSP\Source\BasicMathFunctions/arm_and_u16.c **** #else
 121:.\DSP\Source\BasicMathFunctions/arm_and_u16.c ****     /* Initialize blkCnt with number of samples */
 122:.\DSP\Source\BasicMathFunctions/arm_and_u16.c ****     blkCnt = blockSize;
 123:.\DSP\Source\BasicMathFunctions/arm_and_u16.c **** #endif
 124:.\DSP\Source\BasicMathFunctions/arm_and_u16.c **** 
 125:.\DSP\Source\BasicMathFunctions/arm_and_u16.c ****     while (blkCnt > 0U)
 686              		.loc 12 125 0
 687 0002 07E0     		b	.L56
 688              	.LVL102:
 689              	.L57:
 126:.\DSP\Source\BasicMathFunctions/arm_and_u16.c ****     {
 127:.\DSP\Source\BasicMathFunctions/arm_and_u16.c ****         *pDst++ = (*pSrcA++)&(*pSrcB++);
 690              		.loc 12 127 0
 691 0004 0588     		ldrh	r5, [r0]
 692              	.LVL103:
 693 0006 0C88     		ldrh	r4, [r1]
 694 0008 2C40     		ands	r4, r4, r5
 695 000a 1480     		strh	r4, [r2]	@ movhi
 128:.\DSP\Source\BasicMathFunctions/arm_and_u16.c **** 
 129:.\DSP\Source\BasicMathFunctions/arm_and_u16.c ****         /* Decrement the loop counter */
 130:.\DSP\Source\BasicMathFunctions/arm_and_u16.c ****         blkCnt--;
 696              		.loc 12 130 0
 697 000c 013B     		subs	r3, r3, #1
 698              	.LVL104:
 127:.\DSP\Source\BasicMathFunctions/arm_and_u16.c **** 
ARM GAS  C:\Users\IVYLIU~1\AppData\Local\Temp\cc7gzL6d.s 			page 51


 699              		.loc 12 127 0
 700 000e 0232     		adds	r2, r2, #2
 701              	.LVL105:
 702 0010 0231     		adds	r1, r1, #2
 703              	.LVL106:
 704 0012 0230     		adds	r0, r0, #2
 705              	.LVL107:
 706              	.L56:
 125:.\DSP\Source\BasicMathFunctions/arm_and_u16.c ****     {
 707              		.loc 12 125 0
 708 0014 002B     		cmp	r3, #0
 709 0016 F5D1     		bne	.L57
 131:.\DSP\Source\BasicMathFunctions/arm_and_u16.c ****     }
 132:.\DSP\Source\BasicMathFunctions/arm_and_u16.c **** #endif /* if defined(ARM_MATH_MVEI) */
 133:.\DSP\Source\BasicMathFunctions/arm_and_u16.c **** }
 710              		.loc 12 133 0
 711 0018 30BC     		pop	{r4, r5}
 712              		.cfi_restore 5
 713              		.cfi_restore 4
 714              		.cfi_def_cfa_offset 0
 715 001a 7047     		bx	lr
 716              		.cfi_endproc
 717              	.LFE93:
 718              		.size	arm_and_u16, .-arm_and_u16
 719              		.section	.text.arm_and_u32,"ax",%progbits
 720              		.align	2
 721              		.global	arm_and_u32
 722              		.thumb
 723              		.thumb_func
 724              		.type	arm_and_u32, %function
 725              	arm_and_u32:
 726              	.LFB94:
 727              		.file 13 ".\\DSP\\Source\\BasicMathFunctions\\arm_and_u32.c"
   1:.\DSP\Source\BasicMathFunctions/arm_and_u32.c **** /* ----------------------------------------------------------------------
   2:.\DSP\Source\BasicMathFunctions/arm_and_u32.c ****  * Project:      CMSIS DSP Library
   3:.\DSP\Source\BasicMathFunctions/arm_and_u32.c ****  * Title:        arm_and_u32.c
   4:.\DSP\Source\BasicMathFunctions/arm_and_u32.c ****  * Description:  uint32_t bitwise AND
   5:.\DSP\Source\BasicMathFunctions/arm_and_u32.c ****  *
   6:.\DSP\Source\BasicMathFunctions/arm_and_u32.c ****  * $Date:        23 April 2021
   7:.\DSP\Source\BasicMathFunctions/arm_and_u32.c ****  * $Revision:    V1.9.0
   8:.\DSP\Source\BasicMathFunctions/arm_and_u32.c ****  *
   9:.\DSP\Source\BasicMathFunctions/arm_and_u32.c ****  * Target Processor: Cortex-M and Cortex-A cores
  10:.\DSP\Source\BasicMathFunctions/arm_and_u32.c ****  * -------------------------------------------------------------------- */
  11:.\DSP\Source\BasicMathFunctions/arm_and_u32.c **** /*
  12:.\DSP\Source\BasicMathFunctions/arm_and_u32.c ****  * Copyright (C) 2010-2021 ARM Limited or its affiliates. All rights reserved.
  13:.\DSP\Source\BasicMathFunctions/arm_and_u32.c ****  *
  14:.\DSP\Source\BasicMathFunctions/arm_and_u32.c ****  * SPDX-License-Identifier: Apache-2.0
  15:.\DSP\Source\BasicMathFunctions/arm_and_u32.c ****  *
  16:.\DSP\Source\BasicMathFunctions/arm_and_u32.c ****  * Licensed under the Apache License, Version 2.0 (the License); you may
  17:.\DSP\Source\BasicMathFunctions/arm_and_u32.c ****  * not use this file except in compliance with the License.
  18:.\DSP\Source\BasicMathFunctions/arm_and_u32.c ****  * You may obtain a copy of the License at
  19:.\DSP\Source\BasicMathFunctions/arm_and_u32.c ****  *
  20:.\DSP\Source\BasicMathFunctions/arm_and_u32.c ****  * www.apache.org/licenses/LICENSE-2.0
  21:.\DSP\Source\BasicMathFunctions/arm_and_u32.c ****  *
  22:.\DSP\Source\BasicMathFunctions/arm_and_u32.c ****  * Unless required by applicable law or agreed to in writing, software
  23:.\DSP\Source\BasicMathFunctions/arm_and_u32.c ****  * distributed under the License is distributed on an AS IS BASIS, WITHOUT
  24:.\DSP\Source\BasicMathFunctions/arm_and_u32.c ****  * WARRANTIES OR CONDITIONS OF ANY KIND, either express or implied.
ARM GAS  C:\Users\IVYLIU~1\AppData\Local\Temp\cc7gzL6d.s 			page 52


  25:.\DSP\Source\BasicMathFunctions/arm_and_u32.c ****  * See the License for the specific language governing permissions and
  26:.\DSP\Source\BasicMathFunctions/arm_and_u32.c ****  * limitations under the License.
  27:.\DSP\Source\BasicMathFunctions/arm_and_u32.c ****  */
  28:.\DSP\Source\BasicMathFunctions/arm_and_u32.c **** 
  29:.\DSP\Source\BasicMathFunctions/arm_and_u32.c **** #include "dsp/basic_math_functions.h"
  30:.\DSP\Source\BasicMathFunctions/arm_and_u32.c **** 
  31:.\DSP\Source\BasicMathFunctions/arm_and_u32.c **** /**
  32:.\DSP\Source\BasicMathFunctions/arm_and_u32.c ****   @ingroup groupMath
  33:.\DSP\Source\BasicMathFunctions/arm_and_u32.c ****  */
  34:.\DSP\Source\BasicMathFunctions/arm_and_u32.c **** 
  35:.\DSP\Source\BasicMathFunctions/arm_and_u32.c **** /**
  36:.\DSP\Source\BasicMathFunctions/arm_and_u32.c ****   @addtogroup And
  37:.\DSP\Source\BasicMathFunctions/arm_and_u32.c ****   @{
  38:.\DSP\Source\BasicMathFunctions/arm_and_u32.c ****  */
  39:.\DSP\Source\BasicMathFunctions/arm_and_u32.c **** 
  40:.\DSP\Source\BasicMathFunctions/arm_and_u32.c **** /**
  41:.\DSP\Source\BasicMathFunctions/arm_and_u32.c ****   @brief         Compute the logical bitwise AND of two fixed-point vectors.
  42:.\DSP\Source\BasicMathFunctions/arm_and_u32.c ****   @param[in]     pSrcA      points to input vector A
  43:.\DSP\Source\BasicMathFunctions/arm_and_u32.c ****   @param[in]     pSrcB      points to input vector B
  44:.\DSP\Source\BasicMathFunctions/arm_and_u32.c ****   @param[out]    pDst       points to output vector
  45:.\DSP\Source\BasicMathFunctions/arm_and_u32.c ****   @param[in]     blockSize  number of samples in each vector
  46:.\DSP\Source\BasicMathFunctions/arm_and_u32.c ****   @return        none
  47:.\DSP\Source\BasicMathFunctions/arm_and_u32.c ****  */
  48:.\DSP\Source\BasicMathFunctions/arm_and_u32.c **** 
  49:.\DSP\Source\BasicMathFunctions/arm_and_u32.c **** void arm_and_u32(
  50:.\DSP\Source\BasicMathFunctions/arm_and_u32.c ****     const uint32_t * pSrcA,
  51:.\DSP\Source\BasicMathFunctions/arm_and_u32.c ****     const uint32_t * pSrcB,
  52:.\DSP\Source\BasicMathFunctions/arm_and_u32.c ****           uint32_t * pDst,
  53:.\DSP\Source\BasicMathFunctions/arm_and_u32.c ****           uint32_t blockSize)
  54:.\DSP\Source\BasicMathFunctions/arm_and_u32.c **** {
 728              		.loc 13 54 0
 729              		.cfi_startproc
 730              		@ args = 0, pretend = 0, frame = 0
 731              		@ frame_needed = 0, uses_anonymous_args = 0
 732              		@ link register save eliminated.
 733              	.LVL108:
 734 0000 30B4     		push	{r4, r5}
 735              		.cfi_def_cfa_offset 8
 736              		.cfi_offset 4, -8
 737              		.cfi_offset 5, -4
 738              	.LVL109:
  55:.\DSP\Source\BasicMathFunctions/arm_and_u32.c ****     uint32_t blkCnt;      /* Loop counter */
  56:.\DSP\Source\BasicMathFunctions/arm_and_u32.c **** 
  57:.\DSP\Source\BasicMathFunctions/arm_and_u32.c **** #if defined(ARM_MATH_MVEI) && !defined(ARM_MATH_AUTOVECTORIZE)
  58:.\DSP\Source\BasicMathFunctions/arm_and_u32.c ****     uint32x4_t vecSrcA, vecSrcB;
  59:.\DSP\Source\BasicMathFunctions/arm_and_u32.c **** 
  60:.\DSP\Source\BasicMathFunctions/arm_and_u32.c ****     /* Compute 4 outputs at a time */
  61:.\DSP\Source\BasicMathFunctions/arm_and_u32.c ****     blkCnt = blockSize >> 2;
  62:.\DSP\Source\BasicMathFunctions/arm_and_u32.c **** 
  63:.\DSP\Source\BasicMathFunctions/arm_and_u32.c ****     while (blkCnt > 0U)
  64:.\DSP\Source\BasicMathFunctions/arm_and_u32.c ****     {
  65:.\DSP\Source\BasicMathFunctions/arm_and_u32.c ****         vecSrcA = vld1q(pSrcA);
  66:.\DSP\Source\BasicMathFunctions/arm_and_u32.c ****         vecSrcB = vld1q(pSrcB);
  67:.\DSP\Source\BasicMathFunctions/arm_and_u32.c **** 
  68:.\DSP\Source\BasicMathFunctions/arm_and_u32.c ****         vst1q(pDst, vandq_u32(vecSrcA, vecSrcB) );
  69:.\DSP\Source\BasicMathFunctions/arm_and_u32.c **** 
  70:.\DSP\Source\BasicMathFunctions/arm_and_u32.c ****         pSrcA += 4;
ARM GAS  C:\Users\IVYLIU~1\AppData\Local\Temp\cc7gzL6d.s 			page 53


  71:.\DSP\Source\BasicMathFunctions/arm_and_u32.c ****         pSrcB += 4;
  72:.\DSP\Source\BasicMathFunctions/arm_and_u32.c ****         pDst  += 4;
  73:.\DSP\Source\BasicMathFunctions/arm_and_u32.c **** 
  74:.\DSP\Source\BasicMathFunctions/arm_and_u32.c ****         /* Decrement the loop counter */
  75:.\DSP\Source\BasicMathFunctions/arm_and_u32.c ****         blkCnt--;
  76:.\DSP\Source\BasicMathFunctions/arm_and_u32.c ****     }
  77:.\DSP\Source\BasicMathFunctions/arm_and_u32.c **** 
  78:.\DSP\Source\BasicMathFunctions/arm_and_u32.c ****     /* Tail */
  79:.\DSP\Source\BasicMathFunctions/arm_and_u32.c ****     blkCnt = blockSize & 3;
  80:.\DSP\Source\BasicMathFunctions/arm_and_u32.c **** 
  81:.\DSP\Source\BasicMathFunctions/arm_and_u32.c ****     if (blkCnt > 0U)
  82:.\DSP\Source\BasicMathFunctions/arm_and_u32.c ****     {
  83:.\DSP\Source\BasicMathFunctions/arm_and_u32.c ****         mve_pred16_t p0 = vctp32q(blkCnt);
  84:.\DSP\Source\BasicMathFunctions/arm_and_u32.c ****         vecSrcA = vld1q(pSrcA);
  85:.\DSP\Source\BasicMathFunctions/arm_and_u32.c ****         vecSrcB = vld1q(pSrcB);
  86:.\DSP\Source\BasicMathFunctions/arm_and_u32.c ****         vstrwq_p(pDst, vandq_u32(vecSrcA, vecSrcB), p0);
  87:.\DSP\Source\BasicMathFunctions/arm_and_u32.c ****     }
  88:.\DSP\Source\BasicMathFunctions/arm_and_u32.c **** #else
  89:.\DSP\Source\BasicMathFunctions/arm_and_u32.c **** #if defined(ARM_MATH_NEON) && !defined(ARM_MATH_AUTOVECTORIZE)
  90:.\DSP\Source\BasicMathFunctions/arm_and_u32.c ****     uint32x4_t vecA, vecB;
  91:.\DSP\Source\BasicMathFunctions/arm_and_u32.c **** 
  92:.\DSP\Source\BasicMathFunctions/arm_and_u32.c ****     /* Compute 4 outputs at a time */
  93:.\DSP\Source\BasicMathFunctions/arm_and_u32.c ****     blkCnt = blockSize >> 2U;
  94:.\DSP\Source\BasicMathFunctions/arm_and_u32.c **** 
  95:.\DSP\Source\BasicMathFunctions/arm_and_u32.c ****     while (blkCnt > 0U)
  96:.\DSP\Source\BasicMathFunctions/arm_and_u32.c ****     {
  97:.\DSP\Source\BasicMathFunctions/arm_and_u32.c ****         vecA = vld1q_u32(pSrcA);
  98:.\DSP\Source\BasicMathFunctions/arm_and_u32.c ****         vecB = vld1q_u32(pSrcB);
  99:.\DSP\Source\BasicMathFunctions/arm_and_u32.c **** 
 100:.\DSP\Source\BasicMathFunctions/arm_and_u32.c ****         vst1q_u32(pDst, vandq_u32(vecA, vecB) );
 101:.\DSP\Source\BasicMathFunctions/arm_and_u32.c **** 
 102:.\DSP\Source\BasicMathFunctions/arm_and_u32.c ****         pSrcA += 4;
 103:.\DSP\Source\BasicMathFunctions/arm_and_u32.c ****         pSrcB += 4;
 104:.\DSP\Source\BasicMathFunctions/arm_and_u32.c ****         pDst  += 4;
 105:.\DSP\Source\BasicMathFunctions/arm_and_u32.c **** 
 106:.\DSP\Source\BasicMathFunctions/arm_and_u32.c ****         /* Decrement the loop counter */
 107:.\DSP\Source\BasicMathFunctions/arm_and_u32.c ****         blkCnt--;
 108:.\DSP\Source\BasicMathFunctions/arm_and_u32.c ****     }
 109:.\DSP\Source\BasicMathFunctions/arm_and_u32.c **** 
 110:.\DSP\Source\BasicMathFunctions/arm_and_u32.c ****     /* Tail */
 111:.\DSP\Source\BasicMathFunctions/arm_and_u32.c ****     blkCnt = blockSize & 3;
 112:.\DSP\Source\BasicMathFunctions/arm_and_u32.c **** #else
 113:.\DSP\Source\BasicMathFunctions/arm_and_u32.c ****     /* Initialize blkCnt with number of samples */
 114:.\DSP\Source\BasicMathFunctions/arm_and_u32.c ****     blkCnt = blockSize;
 115:.\DSP\Source\BasicMathFunctions/arm_and_u32.c **** #endif
 116:.\DSP\Source\BasicMathFunctions/arm_and_u32.c **** 
 117:.\DSP\Source\BasicMathFunctions/arm_and_u32.c ****     while (blkCnt > 0U)
 739              		.loc 13 117 0
 740 0002 07E0     		b	.L60
 741              	.LVL110:
 742              	.L61:
 118:.\DSP\Source\BasicMathFunctions/arm_and_u32.c ****     {
 119:.\DSP\Source\BasicMathFunctions/arm_and_u32.c ****         *pDst++ = (*pSrcA++)&(*pSrcB++);
 743              		.loc 13 119 0
 744 0004 0568     		ldr	r5, [r0]
 745              	.LVL111:
 746 0006 0C68     		ldr	r4, [r1]
ARM GAS  C:\Users\IVYLIU~1\AppData\Local\Temp\cc7gzL6d.s 			page 54


 747 0008 2C40     		ands	r4, r4, r5
 748 000a 1460     		str	r4, [r2]
 120:.\DSP\Source\BasicMathFunctions/arm_and_u32.c **** 
 121:.\DSP\Source\BasicMathFunctions/arm_and_u32.c ****         /* Decrement the loop counter */
 122:.\DSP\Source\BasicMathFunctions/arm_and_u32.c ****         blkCnt--;
 749              		.loc 13 122 0
 750 000c 013B     		subs	r3, r3, #1
 751              	.LVL112:
 119:.\DSP\Source\BasicMathFunctions/arm_and_u32.c **** 
 752              		.loc 13 119 0
 753 000e 0432     		adds	r2, r2, #4
 754              	.LVL113:
 755 0010 0431     		adds	r1, r1, #4
 756              	.LVL114:
 757 0012 0430     		adds	r0, r0, #4
 758              	.LVL115:
 759              	.L60:
 117:.\DSP\Source\BasicMathFunctions/arm_and_u32.c ****     {
 760              		.loc 13 117 0
 761 0014 002B     		cmp	r3, #0
 762 0016 F5D1     		bne	.L61
 123:.\DSP\Source\BasicMathFunctions/arm_and_u32.c ****     }
 124:.\DSP\Source\BasicMathFunctions/arm_and_u32.c **** #endif /* if defined(ARM_MATH_MVEI) */
 125:.\DSP\Source\BasicMathFunctions/arm_and_u32.c **** }
 763              		.loc 13 125 0
 764 0018 30BC     		pop	{r4, r5}
 765              		.cfi_restore 5
 766              		.cfi_restore 4
 767              		.cfi_def_cfa_offset 0
 768 001a 7047     		bx	lr
 769              		.cfi_endproc
 770              	.LFE94:
 771              		.size	arm_and_u32, .-arm_and_u32
 772              		.section	.text.arm_and_u8,"ax",%progbits
 773              		.align	2
 774              		.global	arm_and_u8
 775              		.thumb
 776              		.thumb_func
 777              		.type	arm_and_u8, %function
 778              	arm_and_u8:
 779              	.LFB95:
 780              		.file 14 ".\\DSP\\Source\\BasicMathFunctions\\arm_and_u8.c"
   1:.\DSP\Source\BasicMathFunctions/arm_and_u8.c **** /* ----------------------------------------------------------------------
   2:.\DSP\Source\BasicMathFunctions/arm_and_u8.c ****  * Project:      CMSIS DSP Library
   3:.\DSP\Source\BasicMathFunctions/arm_and_u8.c ****  * Title:        arm_and_u8.c
   4:.\DSP\Source\BasicMathFunctions/arm_and_u8.c ****  * Description:  uint8_t bitwise AND
   5:.\DSP\Source\BasicMathFunctions/arm_and_u8.c ****  *
   6:.\DSP\Source\BasicMathFunctions/arm_and_u8.c ****  * $Date:        23 April 2021
   7:.\DSP\Source\BasicMathFunctions/arm_and_u8.c ****  * $Revision:    V1.9.0
   8:.\DSP\Source\BasicMathFunctions/arm_and_u8.c ****  *
   9:.\DSP\Source\BasicMathFunctions/arm_and_u8.c ****  * Target Processor: Cortex-M and Cortex-A cores
  10:.\DSP\Source\BasicMathFunctions/arm_and_u8.c ****  * -------------------------------------------------------------------- */
  11:.\DSP\Source\BasicMathFunctions/arm_and_u8.c **** /*
  12:.\DSP\Source\BasicMathFunctions/arm_and_u8.c ****  * Copyright (C) 2010-2021 ARM Limited or its affiliates. All rights reserved.
  13:.\DSP\Source\BasicMathFunctions/arm_and_u8.c ****  *
  14:.\DSP\Source\BasicMathFunctions/arm_and_u8.c ****  * SPDX-License-Identifier: Apache-2.0
  15:.\DSP\Source\BasicMathFunctions/arm_and_u8.c ****  *
ARM GAS  C:\Users\IVYLIU~1\AppData\Local\Temp\cc7gzL6d.s 			page 55


  16:.\DSP\Source\BasicMathFunctions/arm_and_u8.c ****  * Licensed under the Apache License, Version 2.0 (the License); you may
  17:.\DSP\Source\BasicMathFunctions/arm_and_u8.c ****  * not use this file except in compliance with the License.
  18:.\DSP\Source\BasicMathFunctions/arm_and_u8.c ****  * You may obtain a copy of the License at
  19:.\DSP\Source\BasicMathFunctions/arm_and_u8.c ****  *
  20:.\DSP\Source\BasicMathFunctions/arm_and_u8.c ****  * www.apache.org/licenses/LICENSE-2.0
  21:.\DSP\Source\BasicMathFunctions/arm_and_u8.c ****  *
  22:.\DSP\Source\BasicMathFunctions/arm_and_u8.c ****  * Unless required by applicable law or agreed to in writing, software
  23:.\DSP\Source\BasicMathFunctions/arm_and_u8.c ****  * distributed under the License is distributed on an AS IS BASIS, WITHOUT
  24:.\DSP\Source\BasicMathFunctions/arm_and_u8.c ****  * WARRANTIES OR CONDITIONS OF ANY KIND, either express or implied.
  25:.\DSP\Source\BasicMathFunctions/arm_and_u8.c ****  * See the License for the specific language governing permissions and
  26:.\DSP\Source\BasicMathFunctions/arm_and_u8.c ****  * limitations under the License.
  27:.\DSP\Source\BasicMathFunctions/arm_and_u8.c ****  */
  28:.\DSP\Source\BasicMathFunctions/arm_and_u8.c **** 
  29:.\DSP\Source\BasicMathFunctions/arm_and_u8.c **** #include "dsp/basic_math_functions.h"
  30:.\DSP\Source\BasicMathFunctions/arm_and_u8.c **** 
  31:.\DSP\Source\BasicMathFunctions/arm_and_u8.c **** /**
  32:.\DSP\Source\BasicMathFunctions/arm_and_u8.c ****   @ingroup groupMath
  33:.\DSP\Source\BasicMathFunctions/arm_and_u8.c ****  */
  34:.\DSP\Source\BasicMathFunctions/arm_and_u8.c **** 
  35:.\DSP\Source\BasicMathFunctions/arm_and_u8.c **** 
  36:.\DSP\Source\BasicMathFunctions/arm_and_u8.c **** /**
  37:.\DSP\Source\BasicMathFunctions/arm_and_u8.c ****   @addtogroup And
  38:.\DSP\Source\BasicMathFunctions/arm_and_u8.c ****   @{
  39:.\DSP\Source\BasicMathFunctions/arm_and_u8.c ****  */
  40:.\DSP\Source\BasicMathFunctions/arm_and_u8.c **** 
  41:.\DSP\Source\BasicMathFunctions/arm_and_u8.c **** /**
  42:.\DSP\Source\BasicMathFunctions/arm_and_u8.c ****   @brief         Compute the logical bitwise AND of two fixed-point vectors.
  43:.\DSP\Source\BasicMathFunctions/arm_and_u8.c ****   @param[in]     pSrcA      points to input vector A
  44:.\DSP\Source\BasicMathFunctions/arm_and_u8.c ****   @param[in]     pSrcB      points to input vector B
  45:.\DSP\Source\BasicMathFunctions/arm_and_u8.c ****   @param[out]    pDst       points to output vector
  46:.\DSP\Source\BasicMathFunctions/arm_and_u8.c ****   @param[in]     blockSize  number of samples in each vector
  47:.\DSP\Source\BasicMathFunctions/arm_and_u8.c ****   @return        none
  48:.\DSP\Source\BasicMathFunctions/arm_and_u8.c ****  */
  49:.\DSP\Source\BasicMathFunctions/arm_and_u8.c **** 
  50:.\DSP\Source\BasicMathFunctions/arm_and_u8.c **** void arm_and_u8(
  51:.\DSP\Source\BasicMathFunctions/arm_and_u8.c ****     const uint8_t * pSrcA,
  52:.\DSP\Source\BasicMathFunctions/arm_and_u8.c ****     const uint8_t * pSrcB,
  53:.\DSP\Source\BasicMathFunctions/arm_and_u8.c ****           uint8_t * pDst,
  54:.\DSP\Source\BasicMathFunctions/arm_and_u8.c ****           uint32_t blockSize)
  55:.\DSP\Source\BasicMathFunctions/arm_and_u8.c **** {
 781              		.loc 14 55 0
 782              		.cfi_startproc
 783              		@ args = 0, pretend = 0, frame = 0
 784              		@ frame_needed = 0, uses_anonymous_args = 0
 785              		@ link register save eliminated.
 786              	.LVL116:
 787 0000 30B4     		push	{r4, r5}
 788              		.cfi_def_cfa_offset 8
 789              		.cfi_offset 4, -8
 790              		.cfi_offset 5, -4
 791              	.LVL117:
  56:.\DSP\Source\BasicMathFunctions/arm_and_u8.c ****     uint32_t blkCnt;      /* Loop counter */
  57:.\DSP\Source\BasicMathFunctions/arm_and_u8.c **** 
  58:.\DSP\Source\BasicMathFunctions/arm_and_u8.c **** #if defined(ARM_MATH_MVEI) && !defined(ARM_MATH_AUTOVECTORIZE)
  59:.\DSP\Source\BasicMathFunctions/arm_and_u8.c ****     uint8x16_t vecSrcA, vecSrcB;
  60:.\DSP\Source\BasicMathFunctions/arm_and_u8.c **** 
  61:.\DSP\Source\BasicMathFunctions/arm_and_u8.c ****     /* Compute 16 outputs at a time */
ARM GAS  C:\Users\IVYLIU~1\AppData\Local\Temp\cc7gzL6d.s 			page 56


  62:.\DSP\Source\BasicMathFunctions/arm_and_u8.c ****     blkCnt = blockSize >> 4;
  63:.\DSP\Source\BasicMathFunctions/arm_and_u8.c **** 
  64:.\DSP\Source\BasicMathFunctions/arm_and_u8.c ****     while (blkCnt > 0U)
  65:.\DSP\Source\BasicMathFunctions/arm_and_u8.c ****     {
  66:.\DSP\Source\BasicMathFunctions/arm_and_u8.c ****         vecSrcA = vld1q(pSrcA);
  67:.\DSP\Source\BasicMathFunctions/arm_and_u8.c ****         vecSrcB = vld1q(pSrcB);
  68:.\DSP\Source\BasicMathFunctions/arm_and_u8.c **** 
  69:.\DSP\Source\BasicMathFunctions/arm_and_u8.c ****         vst1q(pDst, vandq_u8(vecSrcA, vecSrcB) );
  70:.\DSP\Source\BasicMathFunctions/arm_and_u8.c **** 
  71:.\DSP\Source\BasicMathFunctions/arm_and_u8.c ****         pSrcA += 16;
  72:.\DSP\Source\BasicMathFunctions/arm_and_u8.c ****         pSrcB += 16;
  73:.\DSP\Source\BasicMathFunctions/arm_and_u8.c ****         pDst  += 16;
  74:.\DSP\Source\BasicMathFunctions/arm_and_u8.c **** 
  75:.\DSP\Source\BasicMathFunctions/arm_and_u8.c ****         /* Decrement the loop counter */
  76:.\DSP\Source\BasicMathFunctions/arm_and_u8.c ****         blkCnt--;
  77:.\DSP\Source\BasicMathFunctions/arm_and_u8.c ****     }
  78:.\DSP\Source\BasicMathFunctions/arm_and_u8.c **** 
  79:.\DSP\Source\BasicMathFunctions/arm_and_u8.c ****     /* Tail */
  80:.\DSP\Source\BasicMathFunctions/arm_and_u8.c ****     blkCnt = blockSize & 0xF;
  81:.\DSP\Source\BasicMathFunctions/arm_and_u8.c **** 
  82:.\DSP\Source\BasicMathFunctions/arm_and_u8.c ****     if (blkCnt > 0U)
  83:.\DSP\Source\BasicMathFunctions/arm_and_u8.c ****     {
  84:.\DSP\Source\BasicMathFunctions/arm_and_u8.c ****         mve_pred16_t p0 = vctp8q(blkCnt);
  85:.\DSP\Source\BasicMathFunctions/arm_and_u8.c ****         vecSrcA = vld1q(pSrcA);
  86:.\DSP\Source\BasicMathFunctions/arm_and_u8.c ****         vecSrcB = vld1q(pSrcB);
  87:.\DSP\Source\BasicMathFunctions/arm_and_u8.c ****         vstrbq_p(pDst, vandq_u8(vecSrcA, vecSrcB), p0);
  88:.\DSP\Source\BasicMathFunctions/arm_and_u8.c ****     }
  89:.\DSP\Source\BasicMathFunctions/arm_and_u8.c **** #else
  90:.\DSP\Source\BasicMathFunctions/arm_and_u8.c **** #if defined(ARM_MATH_NEON) && !defined(ARM_MATH_AUTOVECTORIZE)
  91:.\DSP\Source\BasicMathFunctions/arm_and_u8.c ****     uint8x16_t vecA, vecB;
  92:.\DSP\Source\BasicMathFunctions/arm_and_u8.c **** 
  93:.\DSP\Source\BasicMathFunctions/arm_and_u8.c ****     /* Compute 16 outputs at a time */
  94:.\DSP\Source\BasicMathFunctions/arm_and_u8.c ****     blkCnt = blockSize >> 4U;
  95:.\DSP\Source\BasicMathFunctions/arm_and_u8.c **** 
  96:.\DSP\Source\BasicMathFunctions/arm_and_u8.c ****     while (blkCnt > 0U)
  97:.\DSP\Source\BasicMathFunctions/arm_and_u8.c ****     {
  98:.\DSP\Source\BasicMathFunctions/arm_and_u8.c ****         vecA = vld1q_u8(pSrcA);
  99:.\DSP\Source\BasicMathFunctions/arm_and_u8.c ****         vecB = vld1q_u8(pSrcB);
 100:.\DSP\Source\BasicMathFunctions/arm_and_u8.c **** 
 101:.\DSP\Source\BasicMathFunctions/arm_and_u8.c ****         vst1q_u8(pDst, vandq_u8(vecA, vecB) );
 102:.\DSP\Source\BasicMathFunctions/arm_and_u8.c **** 
 103:.\DSP\Source\BasicMathFunctions/arm_and_u8.c ****         pSrcA += 16;
 104:.\DSP\Source\BasicMathFunctions/arm_and_u8.c ****         pSrcB += 16;
 105:.\DSP\Source\BasicMathFunctions/arm_and_u8.c ****         pDst  += 16;
 106:.\DSP\Source\BasicMathFunctions/arm_and_u8.c **** 
 107:.\DSP\Source\BasicMathFunctions/arm_and_u8.c ****         /* Decrement the loop counter */
 108:.\DSP\Source\BasicMathFunctions/arm_and_u8.c ****         blkCnt--;
 109:.\DSP\Source\BasicMathFunctions/arm_and_u8.c ****     }
 110:.\DSP\Source\BasicMathFunctions/arm_and_u8.c **** 
 111:.\DSP\Source\BasicMathFunctions/arm_and_u8.c ****     /* Tail */
 112:.\DSP\Source\BasicMathFunctions/arm_and_u8.c ****     blkCnt = blockSize & 0xF;
 113:.\DSP\Source\BasicMathFunctions/arm_and_u8.c **** #else
 114:.\DSP\Source\BasicMathFunctions/arm_and_u8.c ****     /* Initialize blkCnt with number of samples */
 115:.\DSP\Source\BasicMathFunctions/arm_and_u8.c ****     blkCnt = blockSize;
 116:.\DSP\Source\BasicMathFunctions/arm_and_u8.c **** #endif
 117:.\DSP\Source\BasicMathFunctions/arm_and_u8.c **** 
 118:.\DSP\Source\BasicMathFunctions/arm_and_u8.c ****     while (blkCnt > 0U)
ARM GAS  C:\Users\IVYLIU~1\AppData\Local\Temp\cc7gzL6d.s 			page 57


 792              		.loc 14 118 0
 793 0002 07E0     		b	.L64
 794              	.LVL118:
 795              	.L65:
 119:.\DSP\Source\BasicMathFunctions/arm_and_u8.c ****     {
 120:.\DSP\Source\BasicMathFunctions/arm_and_u8.c ****         *pDst++ = (*pSrcA++)&(*pSrcB++);
 796              		.loc 14 120 0
 797 0004 0578     		ldrb	r5, [r0]	@ zero_extendqisi2
 798              	.LVL119:
 799 0006 0C78     		ldrb	r4, [r1]	@ zero_extendqisi2
 800 0008 2C40     		ands	r4, r4, r5
 801 000a 1470     		strb	r4, [r2]
 121:.\DSP\Source\BasicMathFunctions/arm_and_u8.c **** 
 122:.\DSP\Source\BasicMathFunctions/arm_and_u8.c ****         /* Decrement the loop counter */
 123:.\DSP\Source\BasicMathFunctions/arm_and_u8.c ****         blkCnt--;
 802              		.loc 14 123 0
 803 000c 013B     		subs	r3, r3, #1
 804              	.LVL120:
 120:.\DSP\Source\BasicMathFunctions/arm_and_u8.c **** 
 805              		.loc 14 120 0
 806 000e 0132     		adds	r2, r2, #1
 807              	.LVL121:
 808 0010 0131     		adds	r1, r1, #1
 809              	.LVL122:
 810 0012 0130     		adds	r0, r0, #1
 811              	.LVL123:
 812              	.L64:
 118:.\DSP\Source\BasicMathFunctions/arm_and_u8.c ****     {
 813              		.loc 14 118 0
 814 0014 002B     		cmp	r3, #0
 815 0016 F5D1     		bne	.L65
 124:.\DSP\Source\BasicMathFunctions/arm_and_u8.c ****     }
 125:.\DSP\Source\BasicMathFunctions/arm_and_u8.c **** #endif /* if defined(ARM_MATH_MVEI) */
 126:.\DSP\Source\BasicMathFunctions/arm_and_u8.c **** }
 816              		.loc 14 126 0
 817 0018 30BC     		pop	{r4, r5}
 818              		.cfi_restore 5
 819              		.cfi_restore 4
 820              		.cfi_def_cfa_offset 0
 821 001a 7047     		bx	lr
 822              		.cfi_endproc
 823              	.LFE95:
 824              		.size	arm_and_u8, .-arm_and_u8
 825              		.global	__aeabi_fmul
 826              		.section	.text.arm_dot_prod_f32,"ax",%progbits
 827              		.align	2
 828              		.global	arm_dot_prod_f32
 829              		.thumb
 830              		.thumb_func
 831              		.type	arm_dot_prod_f32, %function
 832              	arm_dot_prod_f32:
 833              	.LFB96:
 834              		.file 15 ".\\DSP\\Source\\BasicMathFunctions\\arm_dot_prod_f32.c"
   1:.\DSP\Source\BasicMathFunctions/arm_dot_prod_f32.c **** /* ----------------------------------------------------------------------
   2:.\DSP\Source\BasicMathFunctions/arm_dot_prod_f32.c ****  * Project:      CMSIS DSP Library
   3:.\DSP\Source\BasicMathFunctions/arm_dot_prod_f32.c ****  * Title:        arm_dot_prod_f32.c
   4:.\DSP\Source\BasicMathFunctions/arm_dot_prod_f32.c ****  * Description:  Floating-point dot product
ARM GAS  C:\Users\IVYLIU~1\AppData\Local\Temp\cc7gzL6d.s 			page 58


   5:.\DSP\Source\BasicMathFunctions/arm_dot_prod_f32.c ****  *
   6:.\DSP\Source\BasicMathFunctions/arm_dot_prod_f32.c ****  * $Date:        05 October 2021
   7:.\DSP\Source\BasicMathFunctions/arm_dot_prod_f32.c ****  * $Revision:    V1.9.1
   8:.\DSP\Source\BasicMathFunctions/arm_dot_prod_f32.c ****  *
   9:.\DSP\Source\BasicMathFunctions/arm_dot_prod_f32.c ****  * Target Processor: Cortex-M and Cortex-A cores
  10:.\DSP\Source\BasicMathFunctions/arm_dot_prod_f32.c ****  * -------------------------------------------------------------------- */
  11:.\DSP\Source\BasicMathFunctions/arm_dot_prod_f32.c **** /*
  12:.\DSP\Source\BasicMathFunctions/arm_dot_prod_f32.c ****  * Copyright (C) 2010-2021 ARM Limited or its affiliates. All rights reserved.
  13:.\DSP\Source\BasicMathFunctions/arm_dot_prod_f32.c ****  *
  14:.\DSP\Source\BasicMathFunctions/arm_dot_prod_f32.c ****  * SPDX-License-Identifier: Apache-2.0
  15:.\DSP\Source\BasicMathFunctions/arm_dot_prod_f32.c ****  *
  16:.\DSP\Source\BasicMathFunctions/arm_dot_prod_f32.c ****  * Licensed under the Apache License, Version 2.0 (the License); you may
  17:.\DSP\Source\BasicMathFunctions/arm_dot_prod_f32.c ****  * not use this file except in compliance with the License.
  18:.\DSP\Source\BasicMathFunctions/arm_dot_prod_f32.c ****  * You may obtain a copy of the License at
  19:.\DSP\Source\BasicMathFunctions/arm_dot_prod_f32.c ****  *
  20:.\DSP\Source\BasicMathFunctions/arm_dot_prod_f32.c ****  * www.apache.org/licenses/LICENSE-2.0
  21:.\DSP\Source\BasicMathFunctions/arm_dot_prod_f32.c ****  *
  22:.\DSP\Source\BasicMathFunctions/arm_dot_prod_f32.c ****  * Unless required by applicable law or agreed to in writing, software
  23:.\DSP\Source\BasicMathFunctions/arm_dot_prod_f32.c ****  * distributed under the License is distributed on an AS IS BASIS, WITHOUT
  24:.\DSP\Source\BasicMathFunctions/arm_dot_prod_f32.c ****  * WARRANTIES OR CONDITIONS OF ANY KIND, either express or implied.
  25:.\DSP\Source\BasicMathFunctions/arm_dot_prod_f32.c ****  * See the License for the specific language governing permissions and
  26:.\DSP\Source\BasicMathFunctions/arm_dot_prod_f32.c ****  * limitations under the License.
  27:.\DSP\Source\BasicMathFunctions/arm_dot_prod_f32.c ****  */
  28:.\DSP\Source\BasicMathFunctions/arm_dot_prod_f32.c **** 
  29:.\DSP\Source\BasicMathFunctions/arm_dot_prod_f32.c **** #include "dsp/basic_math_functions.h"
  30:.\DSP\Source\BasicMathFunctions/arm_dot_prod_f32.c **** 
  31:.\DSP\Source\BasicMathFunctions/arm_dot_prod_f32.c **** /**
  32:.\DSP\Source\BasicMathFunctions/arm_dot_prod_f32.c ****   @ingroup groupMath
  33:.\DSP\Source\BasicMathFunctions/arm_dot_prod_f32.c ****  */
  34:.\DSP\Source\BasicMathFunctions/arm_dot_prod_f32.c **** 
  35:.\DSP\Source\BasicMathFunctions/arm_dot_prod_f32.c **** /**
  36:.\DSP\Source\BasicMathFunctions/arm_dot_prod_f32.c ****   @defgroup BasicDotProd Vector Dot Product
  37:.\DSP\Source\BasicMathFunctions/arm_dot_prod_f32.c **** 
  38:.\DSP\Source\BasicMathFunctions/arm_dot_prod_f32.c ****   Computes the dot product of two vectors.
  39:.\DSP\Source\BasicMathFunctions/arm_dot_prod_f32.c ****   The vectors are multiplied element-by-element and then summed.
  40:.\DSP\Source\BasicMathFunctions/arm_dot_prod_f32.c **** 
  41:.\DSP\Source\BasicMathFunctions/arm_dot_prod_f32.c ****   <pre>
  42:.\DSP\Source\BasicMathFunctions/arm_dot_prod_f32.c ****       sum = pSrcA[0]*pSrcB[0] + pSrcA[1]*pSrcB[1] + ... + pSrcA[blockSize-1]*pSrcB[blockSize-1]
  43:.\DSP\Source\BasicMathFunctions/arm_dot_prod_f32.c ****   </pre>
  44:.\DSP\Source\BasicMathFunctions/arm_dot_prod_f32.c **** 
  45:.\DSP\Source\BasicMathFunctions/arm_dot_prod_f32.c ****   There are separate functions for floating-point, Q7, Q15, and Q31 data types.
  46:.\DSP\Source\BasicMathFunctions/arm_dot_prod_f32.c ****  */
  47:.\DSP\Source\BasicMathFunctions/arm_dot_prod_f32.c **** 
  48:.\DSP\Source\BasicMathFunctions/arm_dot_prod_f32.c **** /**
  49:.\DSP\Source\BasicMathFunctions/arm_dot_prod_f32.c ****   @addtogroup BasicDotProd
  50:.\DSP\Source\BasicMathFunctions/arm_dot_prod_f32.c ****   @{
  51:.\DSP\Source\BasicMathFunctions/arm_dot_prod_f32.c ****  */
  52:.\DSP\Source\BasicMathFunctions/arm_dot_prod_f32.c **** 
  53:.\DSP\Source\BasicMathFunctions/arm_dot_prod_f32.c **** /**
  54:.\DSP\Source\BasicMathFunctions/arm_dot_prod_f32.c ****   @brief         Dot product of floating-point vectors.
  55:.\DSP\Source\BasicMathFunctions/arm_dot_prod_f32.c ****   @param[in]     pSrcA      points to the first input vector.
  56:.\DSP\Source\BasicMathFunctions/arm_dot_prod_f32.c ****   @param[in]     pSrcB      points to the second input vector.
  57:.\DSP\Source\BasicMathFunctions/arm_dot_prod_f32.c ****   @param[in]     blockSize  number of samples in each vector.
  58:.\DSP\Source\BasicMathFunctions/arm_dot_prod_f32.c ****   @param[out]    result     output result returned here.
  59:.\DSP\Source\BasicMathFunctions/arm_dot_prod_f32.c ****   @return        none
  60:.\DSP\Source\BasicMathFunctions/arm_dot_prod_f32.c ****  */
  61:.\DSP\Source\BasicMathFunctions/arm_dot_prod_f32.c **** 
ARM GAS  C:\Users\IVYLIU~1\AppData\Local\Temp\cc7gzL6d.s 			page 59


  62:.\DSP\Source\BasicMathFunctions/arm_dot_prod_f32.c **** #if defined(ARM_MATH_MVEF) && !defined(ARM_MATH_AUTOVECTORIZE)
  63:.\DSP\Source\BasicMathFunctions/arm_dot_prod_f32.c **** 
  64:.\DSP\Source\BasicMathFunctions/arm_dot_prod_f32.c **** #include "arm_helium_utils.h"
  65:.\DSP\Source\BasicMathFunctions/arm_dot_prod_f32.c **** 
  66:.\DSP\Source\BasicMathFunctions/arm_dot_prod_f32.c **** 
  67:.\DSP\Source\BasicMathFunctions/arm_dot_prod_f32.c **** void arm_dot_prod_f32(
  68:.\DSP\Source\BasicMathFunctions/arm_dot_prod_f32.c ****     const float32_t * pSrcA,
  69:.\DSP\Source\BasicMathFunctions/arm_dot_prod_f32.c ****     const float32_t * pSrcB,
  70:.\DSP\Source\BasicMathFunctions/arm_dot_prod_f32.c ****     uint32_t    blockSize,
  71:.\DSP\Source\BasicMathFunctions/arm_dot_prod_f32.c ****     float32_t * result)
  72:.\DSP\Source\BasicMathFunctions/arm_dot_prod_f32.c **** {
  73:.\DSP\Source\BasicMathFunctions/arm_dot_prod_f32.c ****     f32x4_t vecA, vecB;
  74:.\DSP\Source\BasicMathFunctions/arm_dot_prod_f32.c ****     f32x4_t vecSum;
  75:.\DSP\Source\BasicMathFunctions/arm_dot_prod_f32.c ****     uint32_t blkCnt; 
  76:.\DSP\Source\BasicMathFunctions/arm_dot_prod_f32.c ****     float32_t sum = 0.0f;  
  77:.\DSP\Source\BasicMathFunctions/arm_dot_prod_f32.c ****     vecSum = vdupq_n_f32(0.0f);
  78:.\DSP\Source\BasicMathFunctions/arm_dot_prod_f32.c **** 
  79:.\DSP\Source\BasicMathFunctions/arm_dot_prod_f32.c ****     /* Compute 4 outputs at a time */
  80:.\DSP\Source\BasicMathFunctions/arm_dot_prod_f32.c ****     blkCnt = blockSize >> 2U;
  81:.\DSP\Source\BasicMathFunctions/arm_dot_prod_f32.c ****     while (blkCnt > 0U)
  82:.\DSP\Source\BasicMathFunctions/arm_dot_prod_f32.c ****     {
  83:.\DSP\Source\BasicMathFunctions/arm_dot_prod_f32.c ****         /*
  84:.\DSP\Source\BasicMathFunctions/arm_dot_prod_f32.c ****          * C = A[0]* B[0] + A[1]* B[1] + A[2]* B[2] + .....+ A[blockSize-1]* B[blockSize-1]
  85:.\DSP\Source\BasicMathFunctions/arm_dot_prod_f32.c ****          * Calculate dot product and then store the result in a temporary buffer.
  86:.\DSP\Source\BasicMathFunctions/arm_dot_prod_f32.c ****          * and advance vector source and destination pointers
  87:.\DSP\Source\BasicMathFunctions/arm_dot_prod_f32.c ****          */
  88:.\DSP\Source\BasicMathFunctions/arm_dot_prod_f32.c ****         vecA = vld1q(pSrcA);
  89:.\DSP\Source\BasicMathFunctions/arm_dot_prod_f32.c ****         pSrcA += 4;
  90:.\DSP\Source\BasicMathFunctions/arm_dot_prod_f32.c ****         
  91:.\DSP\Source\BasicMathFunctions/arm_dot_prod_f32.c ****         vecB = vld1q(pSrcB);
  92:.\DSP\Source\BasicMathFunctions/arm_dot_prod_f32.c ****         pSrcB += 4;
  93:.\DSP\Source\BasicMathFunctions/arm_dot_prod_f32.c **** 
  94:.\DSP\Source\BasicMathFunctions/arm_dot_prod_f32.c ****         vecSum = vfmaq(vecSum, vecA, vecB);
  95:.\DSP\Source\BasicMathFunctions/arm_dot_prod_f32.c ****         /*
  96:.\DSP\Source\BasicMathFunctions/arm_dot_prod_f32.c ****          * Decrement the blockSize loop counter
  97:.\DSP\Source\BasicMathFunctions/arm_dot_prod_f32.c ****          */
  98:.\DSP\Source\BasicMathFunctions/arm_dot_prod_f32.c ****         blkCnt --;
  99:.\DSP\Source\BasicMathFunctions/arm_dot_prod_f32.c ****     }
 100:.\DSP\Source\BasicMathFunctions/arm_dot_prod_f32.c **** 
 101:.\DSP\Source\BasicMathFunctions/arm_dot_prod_f32.c **** 
 102:.\DSP\Source\BasicMathFunctions/arm_dot_prod_f32.c ****     blkCnt = blockSize & 3;
 103:.\DSP\Source\BasicMathFunctions/arm_dot_prod_f32.c ****     if (blkCnt > 0U)
 104:.\DSP\Source\BasicMathFunctions/arm_dot_prod_f32.c ****     {
 105:.\DSP\Source\BasicMathFunctions/arm_dot_prod_f32.c ****         /* C = A[0]* B[0] + A[1]* B[1] + A[2]* B[2] + .....+ A[blockSize-1]* B[blockSize-1] */
 106:.\DSP\Source\BasicMathFunctions/arm_dot_prod_f32.c **** 
 107:.\DSP\Source\BasicMathFunctions/arm_dot_prod_f32.c ****         mve_pred16_t p0 = vctp32q(blkCnt);
 108:.\DSP\Source\BasicMathFunctions/arm_dot_prod_f32.c ****         vecA = vld1q(pSrcA);
 109:.\DSP\Source\BasicMathFunctions/arm_dot_prod_f32.c ****         vecB = vld1q(pSrcB);
 110:.\DSP\Source\BasicMathFunctions/arm_dot_prod_f32.c ****         vecSum = vfmaq_m(vecSum, vecA, vecB, p0);
 111:.\DSP\Source\BasicMathFunctions/arm_dot_prod_f32.c ****     }
 112:.\DSP\Source\BasicMathFunctions/arm_dot_prod_f32.c **** 
 113:.\DSP\Source\BasicMathFunctions/arm_dot_prod_f32.c ****     sum = vecAddAcrossF32Mve(vecSum);
 114:.\DSP\Source\BasicMathFunctions/arm_dot_prod_f32.c **** 
 115:.\DSP\Source\BasicMathFunctions/arm_dot_prod_f32.c ****     /* Store result in destination buffer */
 116:.\DSP\Source\BasicMathFunctions/arm_dot_prod_f32.c ****     *result = sum;
 117:.\DSP\Source\BasicMathFunctions/arm_dot_prod_f32.c **** 
 118:.\DSP\Source\BasicMathFunctions/arm_dot_prod_f32.c **** }
ARM GAS  C:\Users\IVYLIU~1\AppData\Local\Temp\cc7gzL6d.s 			page 60


 119:.\DSP\Source\BasicMathFunctions/arm_dot_prod_f32.c **** 
 120:.\DSP\Source\BasicMathFunctions/arm_dot_prod_f32.c **** #else
 121:.\DSP\Source\BasicMathFunctions/arm_dot_prod_f32.c **** 
 122:.\DSP\Source\BasicMathFunctions/arm_dot_prod_f32.c **** void arm_dot_prod_f32(
 123:.\DSP\Source\BasicMathFunctions/arm_dot_prod_f32.c ****   const float32_t * pSrcA,
 124:.\DSP\Source\BasicMathFunctions/arm_dot_prod_f32.c ****   const float32_t * pSrcB,
 125:.\DSP\Source\BasicMathFunctions/arm_dot_prod_f32.c ****         uint32_t blockSize,
 126:.\DSP\Source\BasicMathFunctions/arm_dot_prod_f32.c ****         float32_t * result)
 127:.\DSP\Source\BasicMathFunctions/arm_dot_prod_f32.c **** {
 835              		.loc 15 127 0
 836              		.cfi_startproc
 837              		@ args = 0, pretend = 0, frame = 0
 838              		@ frame_needed = 0, uses_anonymous_args = 0
 839              	.LVL124:
 840 0000 2DE9F041 		push	{r4, r5, r6, r7, r8, lr}
 841              		.cfi_def_cfa_offset 24
 842              		.cfi_offset 4, -24
 843              		.cfi_offset 5, -20
 844              		.cfi_offset 6, -16
 845              		.cfi_offset 7, -12
 846              		.cfi_offset 8, -8
 847              		.cfi_offset 14, -4
 848 0004 1446     		mov	r4, r2
 849 0006 9846     		mov	r8, r3
 850              	.LVL125:
 128:.\DSP\Source\BasicMathFunctions/arm_dot_prod_f32.c ****         uint32_t blkCnt;                               /* Loop counter */
 129:.\DSP\Source\BasicMathFunctions/arm_dot_prod_f32.c ****         float32_t sum = 0.0f;                          /* Temporary return variable */
 851              		.loc 15 129 0
 852 0008 0025     		movs	r5, #0
 130:.\DSP\Source\BasicMathFunctions/arm_dot_prod_f32.c **** 
 131:.\DSP\Source\BasicMathFunctions/arm_dot_prod_f32.c **** #if defined(ARM_MATH_NEON) && !defined(ARM_MATH_AUTOVECTORIZE)
 132:.\DSP\Source\BasicMathFunctions/arm_dot_prod_f32.c ****     f32x4_t vec1;
 133:.\DSP\Source\BasicMathFunctions/arm_dot_prod_f32.c ****     f32x4_t vec2;
 134:.\DSP\Source\BasicMathFunctions/arm_dot_prod_f32.c ****     f32x4_t accum = vdupq_n_f32(0);   
 135:.\DSP\Source\BasicMathFunctions/arm_dot_prod_f32.c **** #if !defined(__aarch64__)
 136:.\DSP\Source\BasicMathFunctions/arm_dot_prod_f32.c ****     f32x2_t tmp = vdup_n_f32(0); 
 137:.\DSP\Source\BasicMathFunctions/arm_dot_prod_f32.c **** #endif   
 138:.\DSP\Source\BasicMathFunctions/arm_dot_prod_f32.c **** 
 139:.\DSP\Source\BasicMathFunctions/arm_dot_prod_f32.c ****     /* Compute 4 outputs at a time */
 140:.\DSP\Source\BasicMathFunctions/arm_dot_prod_f32.c ****     blkCnt = blockSize >> 2U;
 141:.\DSP\Source\BasicMathFunctions/arm_dot_prod_f32.c **** 
 142:.\DSP\Source\BasicMathFunctions/arm_dot_prod_f32.c ****     vec1 = vld1q_f32(pSrcA);
 143:.\DSP\Source\BasicMathFunctions/arm_dot_prod_f32.c ****     vec2 = vld1q_f32(pSrcB);
 144:.\DSP\Source\BasicMathFunctions/arm_dot_prod_f32.c **** 
 145:.\DSP\Source\BasicMathFunctions/arm_dot_prod_f32.c ****     while (blkCnt > 0U)
 146:.\DSP\Source\BasicMathFunctions/arm_dot_prod_f32.c ****     {
 147:.\DSP\Source\BasicMathFunctions/arm_dot_prod_f32.c ****         /* C = A[0]*B[0] + A[1]*B[1] + A[2]*B[2] + ... + A[blockSize-1]*B[blockSize-1] */
 148:.\DSP\Source\BasicMathFunctions/arm_dot_prod_f32.c ****         /* Calculate dot product and then store the result in a temporary buffer. */
 149:.\DSP\Source\BasicMathFunctions/arm_dot_prod_f32.c ****         
 150:.\DSP\Source\BasicMathFunctions/arm_dot_prod_f32.c **** 	      accum = vmlaq_f32(accum, vec1, vec2);
 151:.\DSP\Source\BasicMathFunctions/arm_dot_prod_f32.c **** 	
 152:.\DSP\Source\BasicMathFunctions/arm_dot_prod_f32.c ****         /* Increment pointers */
 153:.\DSP\Source\BasicMathFunctions/arm_dot_prod_f32.c ****         pSrcA += 4;
 154:.\DSP\Source\BasicMathFunctions/arm_dot_prod_f32.c ****         pSrcB += 4; 
 155:.\DSP\Source\BasicMathFunctions/arm_dot_prod_f32.c **** 
 156:.\DSP\Source\BasicMathFunctions/arm_dot_prod_f32.c ****         vec1 = vld1q_f32(pSrcA);
 157:.\DSP\Source\BasicMathFunctions/arm_dot_prod_f32.c ****         vec2 = vld1q_f32(pSrcB);
ARM GAS  C:\Users\IVYLIU~1\AppData\Local\Temp\cc7gzL6d.s 			page 61


 158:.\DSP\Source\BasicMathFunctions/arm_dot_prod_f32.c ****         
 159:.\DSP\Source\BasicMathFunctions/arm_dot_prod_f32.c ****         /* Decrement the loop counter */
 160:.\DSP\Source\BasicMathFunctions/arm_dot_prod_f32.c ****         blkCnt--;
 161:.\DSP\Source\BasicMathFunctions/arm_dot_prod_f32.c ****     }
 162:.\DSP\Source\BasicMathFunctions/arm_dot_prod_f32.c ****     
 163:.\DSP\Source\BasicMathFunctions/arm_dot_prod_f32.c **** #if defined(__aarch64__)
 164:.\DSP\Source\BasicMathFunctions/arm_dot_prod_f32.c ****     sum = vpadds_f32(vpadd_f32(vget_low_f32(accum), vget_high_f32(accum)));
 165:.\DSP\Source\BasicMathFunctions/arm_dot_prod_f32.c **** #else
 166:.\DSP\Source\BasicMathFunctions/arm_dot_prod_f32.c ****     tmp = vpadd_f32(vget_low_f32(accum), vget_high_f32(accum));
 167:.\DSP\Source\BasicMathFunctions/arm_dot_prod_f32.c ****     sum = vget_lane_f32(tmp, 0) + vget_lane_f32(tmp, 1);
 168:.\DSP\Source\BasicMathFunctions/arm_dot_prod_f32.c **** 
 169:.\DSP\Source\BasicMathFunctions/arm_dot_prod_f32.c **** #endif    
 170:.\DSP\Source\BasicMathFunctions/arm_dot_prod_f32.c **** 
 171:.\DSP\Source\BasicMathFunctions/arm_dot_prod_f32.c ****     /* Tail */
 172:.\DSP\Source\BasicMathFunctions/arm_dot_prod_f32.c ****     blkCnt = blockSize & 0x3;
 173:.\DSP\Source\BasicMathFunctions/arm_dot_prod_f32.c **** 
 174:.\DSP\Source\BasicMathFunctions/arm_dot_prod_f32.c **** #else
 175:.\DSP\Source\BasicMathFunctions/arm_dot_prod_f32.c **** #if defined (ARM_MATH_LOOPUNROLL) && !defined(ARM_MATH_AUTOVECTORIZE)
 176:.\DSP\Source\BasicMathFunctions/arm_dot_prod_f32.c **** 
 177:.\DSP\Source\BasicMathFunctions/arm_dot_prod_f32.c ****   /* Loop unrolling: Compute 4 outputs at a time */
 178:.\DSP\Source\BasicMathFunctions/arm_dot_prod_f32.c ****   blkCnt = blockSize >> 2U;
 179:.\DSP\Source\BasicMathFunctions/arm_dot_prod_f32.c **** 
 180:.\DSP\Source\BasicMathFunctions/arm_dot_prod_f32.c ****   /* First part of the processing with loop unrolling. Compute 4 outputs at a time.
 181:.\DSP\Source\BasicMathFunctions/arm_dot_prod_f32.c ****    ** a second loop below computes the remaining 1 to 3 samples. */
 182:.\DSP\Source\BasicMathFunctions/arm_dot_prod_f32.c ****   while (blkCnt > 0U)
 183:.\DSP\Source\BasicMathFunctions/arm_dot_prod_f32.c ****   {
 184:.\DSP\Source\BasicMathFunctions/arm_dot_prod_f32.c ****     /* C = A[0]* B[0] + A[1]* B[1] + A[2]* B[2] + .....+ A[blockSize-1]* B[blockSize-1] */
 185:.\DSP\Source\BasicMathFunctions/arm_dot_prod_f32.c **** 
 186:.\DSP\Source\BasicMathFunctions/arm_dot_prod_f32.c ****     /* Calculate dot product and store result in a temporary buffer. */
 187:.\DSP\Source\BasicMathFunctions/arm_dot_prod_f32.c ****     sum += (*pSrcA++) * (*pSrcB++);
 188:.\DSP\Source\BasicMathFunctions/arm_dot_prod_f32.c **** 
 189:.\DSP\Source\BasicMathFunctions/arm_dot_prod_f32.c ****     sum += (*pSrcA++) * (*pSrcB++);
 190:.\DSP\Source\BasicMathFunctions/arm_dot_prod_f32.c **** 
 191:.\DSP\Source\BasicMathFunctions/arm_dot_prod_f32.c ****     sum += (*pSrcA++) * (*pSrcB++);
 192:.\DSP\Source\BasicMathFunctions/arm_dot_prod_f32.c **** 
 193:.\DSP\Source\BasicMathFunctions/arm_dot_prod_f32.c ****     sum += (*pSrcA++) * (*pSrcB++);
 194:.\DSP\Source\BasicMathFunctions/arm_dot_prod_f32.c **** 
 195:.\DSP\Source\BasicMathFunctions/arm_dot_prod_f32.c ****     /* Decrement loop counter */
 196:.\DSP\Source\BasicMathFunctions/arm_dot_prod_f32.c ****     blkCnt--;
 197:.\DSP\Source\BasicMathFunctions/arm_dot_prod_f32.c ****   }
 198:.\DSP\Source\BasicMathFunctions/arm_dot_prod_f32.c **** 
 199:.\DSP\Source\BasicMathFunctions/arm_dot_prod_f32.c ****   /* Loop unrolling: Compute remaining outputs */
 200:.\DSP\Source\BasicMathFunctions/arm_dot_prod_f32.c ****   blkCnt = blockSize % 0x4U;
 201:.\DSP\Source\BasicMathFunctions/arm_dot_prod_f32.c **** 
 202:.\DSP\Source\BasicMathFunctions/arm_dot_prod_f32.c **** #else
 203:.\DSP\Source\BasicMathFunctions/arm_dot_prod_f32.c **** 
 204:.\DSP\Source\BasicMathFunctions/arm_dot_prod_f32.c ****   /* Initialize blkCnt with number of samples */
 205:.\DSP\Source\BasicMathFunctions/arm_dot_prod_f32.c ****   blkCnt = blockSize;
 206:.\DSP\Source\BasicMathFunctions/arm_dot_prod_f32.c **** 
 207:.\DSP\Source\BasicMathFunctions/arm_dot_prod_f32.c **** #endif /* #if defined (ARM_MATH_LOOPUNROLL) */
 208:.\DSP\Source\BasicMathFunctions/arm_dot_prod_f32.c **** #endif /* #if defined(ARM_MATH_NEON) */
 209:.\DSP\Source\BasicMathFunctions/arm_dot_prod_f32.c **** 
 210:.\DSP\Source\BasicMathFunctions/arm_dot_prod_f32.c ****   while (blkCnt > 0U)
 853              		.loc 15 210 0
 854 000a 0DE0     		b	.L68
 855              	.LVL126:
 856              	.L69:
ARM GAS  C:\Users\IVYLIU~1\AppData\Local\Temp\cc7gzL6d.s 			page 62


 211:.\DSP\Source\BasicMathFunctions/arm_dot_prod_f32.c ****   {
 212:.\DSP\Source\BasicMathFunctions/arm_dot_prod_f32.c ****     /* C = A[0]* B[0] + A[1]* B[1] + A[2]* B[2] + .....+ A[blockSize-1]* B[blockSize-1] */
 213:.\DSP\Source\BasicMathFunctions/arm_dot_prod_f32.c **** 
 214:.\DSP\Source\BasicMathFunctions/arm_dot_prod_f32.c ****     /* Calculate dot product and store result in a temporary buffer. */
 215:.\DSP\Source\BasicMathFunctions/arm_dot_prod_f32.c ****     sum += (*pSrcA++) * (*pSrcB++);
 857              		.loc 15 215 0
 858 000c 061D     		adds	r6, r0, #4
 859              	.LVL127:
 860 000e 0F1D     		adds	r7, r1, #4
 861              	.LVL128:
 862 0010 0068     		ldr	r0, [r0]	@ float
 863 0012 0968     		ldr	r1, [r1]	@ float
 864 0014 FFF7FEFF 		bl	__aeabi_fmul
 865              	.LVL129:
 866 0018 0146     		mov	r1, r0
 867 001a 2846     		mov	r0, r5
 868 001c FFF7FEFF 		bl	__aeabi_fadd
 869              	.LVL130:
 870 0020 0546     		mov	r5, r0
 871              	.LVL131:
 216:.\DSP\Source\BasicMathFunctions/arm_dot_prod_f32.c **** 
 217:.\DSP\Source\BasicMathFunctions/arm_dot_prod_f32.c ****     /* Decrement loop counter */
 218:.\DSP\Source\BasicMathFunctions/arm_dot_prod_f32.c ****     blkCnt--;
 872              		.loc 15 218 0
 873 0022 013C     		subs	r4, r4, #1
 874              	.LVL132:
 215:.\DSP\Source\BasicMathFunctions/arm_dot_prod_f32.c **** 
 875              		.loc 15 215 0
 876 0024 3946     		mov	r1, r7
 877 0026 3046     		mov	r0, r6
 878              	.LVL133:
 879              	.L68:
 210:.\DSP\Source\BasicMathFunctions/arm_dot_prod_f32.c ****   {
 880              		.loc 15 210 0
 881 0028 002C     		cmp	r4, #0
 882 002a EFD1     		bne	.L69
 219:.\DSP\Source\BasicMathFunctions/arm_dot_prod_f32.c ****   }
 220:.\DSP\Source\BasicMathFunctions/arm_dot_prod_f32.c **** 
 221:.\DSP\Source\BasicMathFunctions/arm_dot_prod_f32.c ****   /* Store result in destination buffer */
 222:.\DSP\Source\BasicMathFunctions/arm_dot_prod_f32.c ****   *result = sum;
 883              		.loc 15 222 0
 884 002c C8F80050 		str	r5, [r8]	@ float
 885 0030 BDE8F081 		pop	{r4, r5, r6, r7, r8, pc}
 886              		.cfi_endproc
 887              	.LFE96:
 888              		.size	arm_dot_prod_f32, .-arm_dot_prod_f32
 889              		.global	__aeabi_dmul
 890              		.section	.text.arm_dot_prod_f64,"ax",%progbits
 891              		.align	2
 892              		.global	arm_dot_prod_f64
 893              		.thumb
 894              		.thumb_func
 895              		.type	arm_dot_prod_f64, %function
 896              	arm_dot_prod_f64:
 897              	.LFB97:
 898              		.file 16 ".\\DSP\\Source\\BasicMathFunctions\\arm_dot_prod_f64.c"
   1:.\DSP\Source\BasicMathFunctions/arm_dot_prod_f64.c **** /* ----------------------------------------------------------------------
ARM GAS  C:\Users\IVYLIU~1\AppData\Local\Temp\cc7gzL6d.s 			page 63


   2:.\DSP\Source\BasicMathFunctions/arm_dot_prod_f64.c ****  * Project:      CMSIS DSP Library
   3:.\DSP\Source\BasicMathFunctions/arm_dot_prod_f64.c ****  * Title:        arm_dot_prod_f64.c
   4:.\DSP\Source\BasicMathFunctions/arm_dot_prod_f64.c ****  * Description:  Floating-point dot product
   5:.\DSP\Source\BasicMathFunctions/arm_dot_prod_f64.c ****  *
   6:.\DSP\Source\BasicMathFunctions/arm_dot_prod_f64.c ****  * $Date:        13 September 2021
   7:.\DSP\Source\BasicMathFunctions/arm_dot_prod_f64.c ****  * $Revision:    V1.10.0
   8:.\DSP\Source\BasicMathFunctions/arm_dot_prod_f64.c ****  *
   9:.\DSP\Source\BasicMathFunctions/arm_dot_prod_f64.c ****  * Target Processor: Cortex-M and Cortex-A cores
  10:.\DSP\Source\BasicMathFunctions/arm_dot_prod_f64.c ****  * -------------------------------------------------------------------- */
  11:.\DSP\Source\BasicMathFunctions/arm_dot_prod_f64.c **** /*
  12:.\DSP\Source\BasicMathFunctions/arm_dot_prod_f64.c ****  * Copyright (C) 2010-2021 ARM Limited or its affiliates. All rights reserved.
  13:.\DSP\Source\BasicMathFunctions/arm_dot_prod_f64.c ****  *
  14:.\DSP\Source\BasicMathFunctions/arm_dot_prod_f64.c ****  * SPDX-License-Identifier: Apache-2.0
  15:.\DSP\Source\BasicMathFunctions/arm_dot_prod_f64.c ****  *
  16:.\DSP\Source\BasicMathFunctions/arm_dot_prod_f64.c ****  * Licensed under the Apache License, Version 2.0 (the License); you may
  17:.\DSP\Source\BasicMathFunctions/arm_dot_prod_f64.c ****  * not use this file except in compliance with the License.
  18:.\DSP\Source\BasicMathFunctions/arm_dot_prod_f64.c ****  * You may obtain a copy of the License at
  19:.\DSP\Source\BasicMathFunctions/arm_dot_prod_f64.c ****  *
  20:.\DSP\Source\BasicMathFunctions/arm_dot_prod_f64.c ****  * www.apache.org/licenses/LICENSE-2.0
  21:.\DSP\Source\BasicMathFunctions/arm_dot_prod_f64.c ****  *
  22:.\DSP\Source\BasicMathFunctions/arm_dot_prod_f64.c ****  * Unless required by applicable law or agreed to in writing, software
  23:.\DSP\Source\BasicMathFunctions/arm_dot_prod_f64.c ****  * distributed under the License is distributed on an AS IS BASIS, WITHOUT
  24:.\DSP\Source\BasicMathFunctions/arm_dot_prod_f64.c ****  * WARRANTIES OR CONDITIONS OF ANY KIND, either express or implied.
  25:.\DSP\Source\BasicMathFunctions/arm_dot_prod_f64.c ****  * See the License for the specific language governing permissions and
  26:.\DSP\Source\BasicMathFunctions/arm_dot_prod_f64.c ****  * limitations under the License.
  27:.\DSP\Source\BasicMathFunctions/arm_dot_prod_f64.c ****  */
  28:.\DSP\Source\BasicMathFunctions/arm_dot_prod_f64.c **** 
  29:.\DSP\Source\BasicMathFunctions/arm_dot_prod_f64.c **** #include "dsp/basic_math_functions.h"
  30:.\DSP\Source\BasicMathFunctions/arm_dot_prod_f64.c **** 
  31:.\DSP\Source\BasicMathFunctions/arm_dot_prod_f64.c **** /**
  32:.\DSP\Source\BasicMathFunctions/arm_dot_prod_f64.c ****   @ingroup groupMath
  33:.\DSP\Source\BasicMathFunctions/arm_dot_prod_f64.c ****  */
  34:.\DSP\Source\BasicMathFunctions/arm_dot_prod_f64.c **** 
  35:.\DSP\Source\BasicMathFunctions/arm_dot_prod_f64.c **** /**
  36:.\DSP\Source\BasicMathFunctions/arm_dot_prod_f64.c ****   @addtogroup BasicDotProd
  37:.\DSP\Source\BasicMathFunctions/arm_dot_prod_f64.c ****   @{
  38:.\DSP\Source\BasicMathFunctions/arm_dot_prod_f64.c ****  */
  39:.\DSP\Source\BasicMathFunctions/arm_dot_prod_f64.c **** 
  40:.\DSP\Source\BasicMathFunctions/arm_dot_prod_f64.c **** /**
  41:.\DSP\Source\BasicMathFunctions/arm_dot_prod_f64.c ****   @brief         Dot product of floating-point vectors.
  42:.\DSP\Source\BasicMathFunctions/arm_dot_prod_f64.c ****   @param[in]     pSrcA      points to the first input vector.
  43:.\DSP\Source\BasicMathFunctions/arm_dot_prod_f64.c ****   @param[in]     pSrcB      points to the second input vector.
  44:.\DSP\Source\BasicMathFunctions/arm_dot_prod_f64.c ****   @param[in]     blockSize  number of samples in each vector.
