ARM GAS  C:\Users\IVYLIU~1\AppData\Local\Temp\ccnpFvRb.s 			page 1


   1              		.syntax unified
   2              		.cpu cortex-m3
   3              		.fpu softvfp
   4              		.eabi_attribute 20, 1
   5              		.eabi_attribute 21, 1
   6              		.eabi_attribute 23, 3
   7              		.eabi_attribute 24, 1
   8              		.eabi_attribute 25, 1
   9              		.eabi_attribute 26, 1
  10              		.eabi_attribute 30, 1
  11              		.eabi_attribute 34, 1
  12              		.eabi_attribute 18, 4
  13              		.thumb
  14              		.file	"ComplexMathFunctions.c"
  15              		.text
  16              	.Ltext0:
  17              		.cfi_sections	.debug_frame
  18              		.section	.text.arm_cmplx_conj_f32,"ax",%progbits
  19              		.align	2
  20              		.global	arm_cmplx_conj_f32
  21              		.thumb
  22              		.thumb_func
  23              		.type	arm_cmplx_conj_f32, %function
  24              	arm_cmplx_conj_f32:
  25              	.LFB84:
  26              		.file 1 ".\\DSP\\Source\\ComplexMathFunctions\\arm_cmplx_conj_f32.c"
   1:.\DSP\Source\ComplexMathFunctions/arm_cmplx_conj_f32.c **** /* ----------------------------------------------------------------------
   2:.\DSP\Source\ComplexMathFunctions/arm_cmplx_conj_f32.c ****  * Project:      CMSIS DSP Library
   3:.\DSP\Source\ComplexMathFunctions/arm_cmplx_conj_f32.c ****  * Title:        arm_cmplx_conj_f32.c
   4:.\DSP\Source\ComplexMathFunctions/arm_cmplx_conj_f32.c ****  * Description:  Floating-point complex conjugate
   5:.\DSP\Source\ComplexMathFunctions/arm_cmplx_conj_f32.c ****  *
   6:.\DSP\Source\ComplexMathFunctions/arm_cmplx_conj_f32.c ****  * $Date:        23 April 2021
   7:.\DSP\Source\ComplexMathFunctions/arm_cmplx_conj_f32.c ****  * $Revision:    V1.9.0
   8:.\DSP\Source\ComplexMathFunctions/arm_cmplx_conj_f32.c ****  *
   9:.\DSP\Source\ComplexMathFunctions/arm_cmplx_conj_f32.c ****  * Target Processor: Cortex-M and Cortex-A cores
  10:.\DSP\Source\ComplexMathFunctions/arm_cmplx_conj_f32.c ****  * -------------------------------------------------------------------- */
  11:.\DSP\Source\ComplexMathFunctions/arm_cmplx_conj_f32.c **** /*
  12:.\DSP\Source\ComplexMathFunctions/arm_cmplx_conj_f32.c ****  * Copyright (C) 2010-2021 ARM Limited or its affiliates. All rights reserved.
  13:.\DSP\Source\ComplexMathFunctions/arm_cmplx_conj_f32.c ****  *
  14:.\DSP\Source\ComplexMathFunctions/arm_cmplx_conj_f32.c ****  * SPDX-License-Identifier: Apache-2.0
  15:.\DSP\Source\ComplexMathFunctions/arm_cmplx_conj_f32.c ****  *
  16:.\DSP\Source\ComplexMathFunctions/arm_cmplx_conj_f32.c ****  * Licensed under the Apache License, Version 2.0 (the License); you may
  17:.\DSP\Source\ComplexMathFunctions/arm_cmplx_conj_f32.c ****  * not use this file except in compliance with the License.
  18:.\DSP\Source\ComplexMathFunctions/arm_cmplx_conj_f32.c ****  * You may obtain a copy of the License at
  19:.\DSP\Source\ComplexMathFunctions/arm_cmplx_conj_f32.c ****  *
  20:.\DSP\Source\ComplexMathFunctions/arm_cmplx_conj_f32.c ****  * www.apache.org/licenses/LICENSE-2.0
  21:.\DSP\Source\ComplexMathFunctions/arm_cmplx_conj_f32.c ****  *
  22:.\DSP\Source\ComplexMathFunctions/arm_cmplx_conj_f32.c ****  * Unless required by applicable law or agreed to in writing, software
  23:.\DSP\Source\ComplexMathFunctions/arm_cmplx_conj_f32.c ****  * distributed under the License is distributed on an AS IS BASIS, WITHOUT
  24:.\DSP\Source\ComplexMathFunctions/arm_cmplx_conj_f32.c ****  * WARRANTIES OR CONDITIONS OF ANY KIND, either express or implied.
  25:.\DSP\Source\ComplexMathFunctions/arm_cmplx_conj_f32.c ****  * See the License for the specific language governing permissions and
  26:.\DSP\Source\ComplexMathFunctions/arm_cmplx_conj_f32.c ****  * limitations under the License.
  27:.\DSP\Source\ComplexMathFunctions/arm_cmplx_conj_f32.c ****  */
  28:.\DSP\Source\ComplexMathFunctions/arm_cmplx_conj_f32.c **** 
  29:.\DSP\Source\ComplexMathFunctions/arm_cmplx_conj_f32.c **** #include "dsp/complex_math_functions.h"
  30:.\DSP\Source\ComplexMathFunctions/arm_cmplx_conj_f32.c **** 
  31:.\DSP\Source\ComplexMathFunctions/arm_cmplx_conj_f32.c **** /**
ARM GAS  C:\Users\IVYLIU~1\AppData\Local\Temp\ccnpFvRb.s 			page 2


  32:.\DSP\Source\ComplexMathFunctions/arm_cmplx_conj_f32.c ****   @ingroup groupCmplxMath
  33:.\DSP\Source\ComplexMathFunctions/arm_cmplx_conj_f32.c ****  */
  34:.\DSP\Source\ComplexMathFunctions/arm_cmplx_conj_f32.c **** 
  35:.\DSP\Source\ComplexMathFunctions/arm_cmplx_conj_f32.c **** /**
  36:.\DSP\Source\ComplexMathFunctions/arm_cmplx_conj_f32.c ****   @defgroup cmplx_conj Complex Conjugate
  37:.\DSP\Source\ComplexMathFunctions/arm_cmplx_conj_f32.c **** 
  38:.\DSP\Source\ComplexMathFunctions/arm_cmplx_conj_f32.c ****   Conjugates the elements of a complex data vector.
  39:.\DSP\Source\ComplexMathFunctions/arm_cmplx_conj_f32.c **** 
  40:.\DSP\Source\ComplexMathFunctions/arm_cmplx_conj_f32.c ****   The <code>pSrc</code> points to the source data and
  41:.\DSP\Source\ComplexMathFunctions/arm_cmplx_conj_f32.c ****   <code>pDst</code> points to the destination data where the result should be written.
  42:.\DSP\Source\ComplexMathFunctions/arm_cmplx_conj_f32.c ****   <code>numSamples</code> specifies the number of complex samples
  43:.\DSP\Source\ComplexMathFunctions/arm_cmplx_conj_f32.c ****   and the data in each array is stored in an interleaved fashion
  44:.\DSP\Source\ComplexMathFunctions/arm_cmplx_conj_f32.c ****   (real, imag, real, imag, ...).
  45:.\DSP\Source\ComplexMathFunctions/arm_cmplx_conj_f32.c ****   Each array has a total of <code>2*numSamples</code> values.
  46:.\DSP\Source\ComplexMathFunctions/arm_cmplx_conj_f32.c **** 
  47:.\DSP\Source\ComplexMathFunctions/arm_cmplx_conj_f32.c ****   The underlying algorithm is used:
  48:.\DSP\Source\ComplexMathFunctions/arm_cmplx_conj_f32.c ****   <pre>
  49:.\DSP\Source\ComplexMathFunctions/arm_cmplx_conj_f32.c ****   for (n = 0; n < numSamples; n++) {
  50:.\DSP\Source\ComplexMathFunctions/arm_cmplx_conj_f32.c ****       pDst[(2*n)  ] =  pSrc[(2*n)  ];    // real part
  51:.\DSP\Source\ComplexMathFunctions/arm_cmplx_conj_f32.c ****       pDst[(2*n)+1] = -pSrc[(2*n)+1];    // imag part
  52:.\DSP\Source\ComplexMathFunctions/arm_cmplx_conj_f32.c ****   }
  53:.\DSP\Source\ComplexMathFunctions/arm_cmplx_conj_f32.c ****   </pre>
  54:.\DSP\Source\ComplexMathFunctions/arm_cmplx_conj_f32.c **** 
  55:.\DSP\Source\ComplexMathFunctions/arm_cmplx_conj_f32.c ****   There are separate functions for floating-point, Q15, and Q31 data types.
  56:.\DSP\Source\ComplexMathFunctions/arm_cmplx_conj_f32.c ****  */
  57:.\DSP\Source\ComplexMathFunctions/arm_cmplx_conj_f32.c **** 
  58:.\DSP\Source\ComplexMathFunctions/arm_cmplx_conj_f32.c **** /**
  59:.\DSP\Source\ComplexMathFunctions/arm_cmplx_conj_f32.c ****   @addtogroup cmplx_conj
  60:.\DSP\Source\ComplexMathFunctions/arm_cmplx_conj_f32.c ****   @{
  61:.\DSP\Source\ComplexMathFunctions/arm_cmplx_conj_f32.c ****  */
  62:.\DSP\Source\ComplexMathFunctions/arm_cmplx_conj_f32.c **** 
  63:.\DSP\Source\ComplexMathFunctions/arm_cmplx_conj_f32.c **** /**
  64:.\DSP\Source\ComplexMathFunctions/arm_cmplx_conj_f32.c ****   @brief         Floating-point complex conjugate.
  65:.\DSP\Source\ComplexMathFunctions/arm_cmplx_conj_f32.c ****   @param[in]     pSrc        points to the input vector
  66:.\DSP\Source\ComplexMathFunctions/arm_cmplx_conj_f32.c ****   @param[out]    pDst        points to the output vector
  67:.\DSP\Source\ComplexMathFunctions/arm_cmplx_conj_f32.c ****   @param[in]     numSamples  number of samples in each vector
  68:.\DSP\Source\ComplexMathFunctions/arm_cmplx_conj_f32.c ****   @return        none
  69:.\DSP\Source\ComplexMathFunctions/arm_cmplx_conj_f32.c ****  */
  70:.\DSP\Source\ComplexMathFunctions/arm_cmplx_conj_f32.c **** 
  71:.\DSP\Source\ComplexMathFunctions/arm_cmplx_conj_f32.c **** #if defined(ARM_MATH_MVEF) && !defined(ARM_MATH_AUTOVECTORIZE)
  72:.\DSP\Source\ComplexMathFunctions/arm_cmplx_conj_f32.c **** 
  73:.\DSP\Source\ComplexMathFunctions/arm_cmplx_conj_f32.c **** void arm_cmplx_conj_f32(
  74:.\DSP\Source\ComplexMathFunctions/arm_cmplx_conj_f32.c ****     const float32_t * pSrc,
  75:.\DSP\Source\ComplexMathFunctions/arm_cmplx_conj_f32.c ****     float32_t * pDst,
  76:.\DSP\Source\ComplexMathFunctions/arm_cmplx_conj_f32.c ****     uint32_t numSamples)
  77:.\DSP\Source\ComplexMathFunctions/arm_cmplx_conj_f32.c **** {
  78:.\DSP\Source\ComplexMathFunctions/arm_cmplx_conj_f32.c ****     static const float32_t cmplx_conj_sign[4] = { 1.0f, -1.0f, 1.0f, -1.0f };
  79:.\DSP\Source\ComplexMathFunctions/arm_cmplx_conj_f32.c ****     uint32_t blockSize = numSamples * CMPLX_DIM;   /* loop counters */
  80:.\DSP\Source\ComplexMathFunctions/arm_cmplx_conj_f32.c ****     uint32_t blkCnt;
  81:.\DSP\Source\ComplexMathFunctions/arm_cmplx_conj_f32.c ****     f32x4_t vecSrc;
  82:.\DSP\Source\ComplexMathFunctions/arm_cmplx_conj_f32.c ****     f32x4_t vecSign;
  83:.\DSP\Source\ComplexMathFunctions/arm_cmplx_conj_f32.c **** 
  84:.\DSP\Source\ComplexMathFunctions/arm_cmplx_conj_f32.c ****     /*
  85:.\DSP\Source\ComplexMathFunctions/arm_cmplx_conj_f32.c ****      * load sign vector
  86:.\DSP\Source\ComplexMathFunctions/arm_cmplx_conj_f32.c ****      */
  87:.\DSP\Source\ComplexMathFunctions/arm_cmplx_conj_f32.c ****     vecSign = *(f32x4_t *) cmplx_conj_sign;
  88:.\DSP\Source\ComplexMathFunctions/arm_cmplx_conj_f32.c **** 
ARM GAS  C:\Users\IVYLIU~1\AppData\Local\Temp\ccnpFvRb.s 			page 3


  89:.\DSP\Source\ComplexMathFunctions/arm_cmplx_conj_f32.c ****     /* Compute 4 real samples at a time */
  90:.\DSP\Source\ComplexMathFunctions/arm_cmplx_conj_f32.c ****     blkCnt = blockSize >> 2U;
  91:.\DSP\Source\ComplexMathFunctions/arm_cmplx_conj_f32.c **** 
  92:.\DSP\Source\ComplexMathFunctions/arm_cmplx_conj_f32.c ****     while (blkCnt > 0U)
  93:.\DSP\Source\ComplexMathFunctions/arm_cmplx_conj_f32.c ****     {
  94:.\DSP\Source\ComplexMathFunctions/arm_cmplx_conj_f32.c ****         vecSrc = vld1q(pSrc);
  95:.\DSP\Source\ComplexMathFunctions/arm_cmplx_conj_f32.c ****         vst1q(pDst,vmulq(vecSrc, vecSign));
  96:.\DSP\Source\ComplexMathFunctions/arm_cmplx_conj_f32.c ****         /*
  97:.\DSP\Source\ComplexMathFunctions/arm_cmplx_conj_f32.c ****          * Decrement the blkCnt loop counter
  98:.\DSP\Source\ComplexMathFunctions/arm_cmplx_conj_f32.c ****          * Advance vector source and destination pointers
  99:.\DSP\Source\ComplexMathFunctions/arm_cmplx_conj_f32.c ****          */
 100:.\DSP\Source\ComplexMathFunctions/arm_cmplx_conj_f32.c ****         pSrc += 4;
 101:.\DSP\Source\ComplexMathFunctions/arm_cmplx_conj_f32.c ****         pDst += 4;
 102:.\DSP\Source\ComplexMathFunctions/arm_cmplx_conj_f32.c ****         blkCnt--;
 103:.\DSP\Source\ComplexMathFunctions/arm_cmplx_conj_f32.c ****     }
 104:.\DSP\Source\ComplexMathFunctions/arm_cmplx_conj_f32.c **** 
 105:.\DSP\Source\ComplexMathFunctions/arm_cmplx_conj_f32.c ****      /* Tail */
 106:.\DSP\Source\ComplexMathFunctions/arm_cmplx_conj_f32.c ****     blkCnt = (blockSize & 0x3) >> 1;
 107:.\DSP\Source\ComplexMathFunctions/arm_cmplx_conj_f32.c **** 
 108:.\DSP\Source\ComplexMathFunctions/arm_cmplx_conj_f32.c ****     while (blkCnt > 0U)
 109:.\DSP\Source\ComplexMathFunctions/arm_cmplx_conj_f32.c ****     {
 110:.\DSP\Source\ComplexMathFunctions/arm_cmplx_conj_f32.c ****       /* C[0] + jC[1] = A[0]+ j(-1)A[1] */
 111:.\DSP\Source\ComplexMathFunctions/arm_cmplx_conj_f32.c ****   
 112:.\DSP\Source\ComplexMathFunctions/arm_cmplx_conj_f32.c ****       /* Calculate Complex Conjugate and store result in destination buffer. */
 113:.\DSP\Source\ComplexMathFunctions/arm_cmplx_conj_f32.c ****       *pDst++ =  *pSrc++;
 114:.\DSP\Source\ComplexMathFunctions/arm_cmplx_conj_f32.c ****       *pDst++ = -*pSrc++;
 115:.\DSP\Source\ComplexMathFunctions/arm_cmplx_conj_f32.c ****   
 116:.\DSP\Source\ComplexMathFunctions/arm_cmplx_conj_f32.c ****       /* Decrement loop counter */
 117:.\DSP\Source\ComplexMathFunctions/arm_cmplx_conj_f32.c ****       blkCnt--;
 118:.\DSP\Source\ComplexMathFunctions/arm_cmplx_conj_f32.c ****     }
 119:.\DSP\Source\ComplexMathFunctions/arm_cmplx_conj_f32.c **** 
 120:.\DSP\Source\ComplexMathFunctions/arm_cmplx_conj_f32.c **** }
 121:.\DSP\Source\ComplexMathFunctions/arm_cmplx_conj_f32.c **** 
 122:.\DSP\Source\ComplexMathFunctions/arm_cmplx_conj_f32.c **** #else
 123:.\DSP\Source\ComplexMathFunctions/arm_cmplx_conj_f32.c **** void arm_cmplx_conj_f32(
 124:.\DSP\Source\ComplexMathFunctions/arm_cmplx_conj_f32.c ****   const float32_t * pSrc,
 125:.\DSP\Source\ComplexMathFunctions/arm_cmplx_conj_f32.c ****         float32_t * pDst,
 126:.\DSP\Source\ComplexMathFunctions/arm_cmplx_conj_f32.c ****         uint32_t numSamples)
 127:.\DSP\Source\ComplexMathFunctions/arm_cmplx_conj_f32.c **** {
  27              		.loc 1 127 0
  28              		.cfi_startproc
  29              		@ args = 0, pretend = 0, frame = 0
  30              		@ frame_needed = 0, uses_anonymous_args = 0
  31              		@ link register save eliminated.
  32              	.LVL0:
  33 0000 30B4     		push	{r4, r5}
  34              		.cfi_def_cfa_offset 8
  35              		.cfi_offset 4, -8
  36              		.cfi_offset 5, -4
  37              	.LVL1:
 128:.\DSP\Source\ComplexMathFunctions/arm_cmplx_conj_f32.c ****         uint32_t blkCnt;                               /* Loop counter */
 129:.\DSP\Source\ComplexMathFunctions/arm_cmplx_conj_f32.c **** 
 130:.\DSP\Source\ComplexMathFunctions/arm_cmplx_conj_f32.c **** #if defined(ARM_MATH_NEON) && !defined(ARM_MATH_AUTOVECTORIZE)
 131:.\DSP\Source\ComplexMathFunctions/arm_cmplx_conj_f32.c ****    float32x4_t zero;
 132:.\DSP\Source\ComplexMathFunctions/arm_cmplx_conj_f32.c ****    float32x4x2_t vec;
 133:.\DSP\Source\ComplexMathFunctions/arm_cmplx_conj_f32.c **** 
 134:.\DSP\Source\ComplexMathFunctions/arm_cmplx_conj_f32.c ****    zero = vdupq_n_f32(0.0f);
ARM GAS  C:\Users\IVYLIU~1\AppData\Local\Temp\ccnpFvRb.s 			page 4


 135:.\DSP\Source\ComplexMathFunctions/arm_cmplx_conj_f32.c **** 
 136:.\DSP\Source\ComplexMathFunctions/arm_cmplx_conj_f32.c ****    /* Compute 4 outputs at a time */
 137:.\DSP\Source\ComplexMathFunctions/arm_cmplx_conj_f32.c ****    blkCnt = numSamples >> 2U;
 138:.\DSP\Source\ComplexMathFunctions/arm_cmplx_conj_f32.c **** 
 139:.\DSP\Source\ComplexMathFunctions/arm_cmplx_conj_f32.c ****    while (blkCnt > 0U)
 140:.\DSP\Source\ComplexMathFunctions/arm_cmplx_conj_f32.c ****    {
 141:.\DSP\Source\ComplexMathFunctions/arm_cmplx_conj_f32.c ****      /* C[0]+jC[1] = A[0]+(-1)*jA[1] */
 142:.\DSP\Source\ComplexMathFunctions/arm_cmplx_conj_f32.c ****      /* Calculate Complex Conjugate and then store the results in the destination buffer. */
 143:.\DSP\Source\ComplexMathFunctions/arm_cmplx_conj_f32.c ****      vec = vld2q_f32(pSrc);
 144:.\DSP\Source\ComplexMathFunctions/arm_cmplx_conj_f32.c ****      vec.val[1] = vsubq_f32(zero,vec.val[1]);
 145:.\DSP\Source\ComplexMathFunctions/arm_cmplx_conj_f32.c ****      vst2q_f32(pDst,vec);
 146:.\DSP\Source\ComplexMathFunctions/arm_cmplx_conj_f32.c **** 
 147:.\DSP\Source\ComplexMathFunctions/arm_cmplx_conj_f32.c ****      /* Increment pointers */
 148:.\DSP\Source\ComplexMathFunctions/arm_cmplx_conj_f32.c ****      pSrc += 8;
 149:.\DSP\Source\ComplexMathFunctions/arm_cmplx_conj_f32.c ****      pDst += 8;
 150:.\DSP\Source\ComplexMathFunctions/arm_cmplx_conj_f32.c ****         
 151:.\DSP\Source\ComplexMathFunctions/arm_cmplx_conj_f32.c ****      /* Decrement the loop counter */
 152:.\DSP\Source\ComplexMathFunctions/arm_cmplx_conj_f32.c ****      blkCnt--;
 153:.\DSP\Source\ComplexMathFunctions/arm_cmplx_conj_f32.c ****    }
 154:.\DSP\Source\ComplexMathFunctions/arm_cmplx_conj_f32.c **** 
 155:.\DSP\Source\ComplexMathFunctions/arm_cmplx_conj_f32.c ****    /* Tail */
 156:.\DSP\Source\ComplexMathFunctions/arm_cmplx_conj_f32.c ****    blkCnt = numSamples & 0x3;
 157:.\DSP\Source\ComplexMathFunctions/arm_cmplx_conj_f32.c **** 
 158:.\DSP\Source\ComplexMathFunctions/arm_cmplx_conj_f32.c **** #else
 159:.\DSP\Source\ComplexMathFunctions/arm_cmplx_conj_f32.c **** #if defined (ARM_MATH_LOOPUNROLL) && !defined(ARM_MATH_AUTOVECTORIZE)
 160:.\DSP\Source\ComplexMathFunctions/arm_cmplx_conj_f32.c **** 
 161:.\DSP\Source\ComplexMathFunctions/arm_cmplx_conj_f32.c ****   /* Loop unrolling: Compute 4 outputs at a time */
 162:.\DSP\Source\ComplexMathFunctions/arm_cmplx_conj_f32.c ****   blkCnt = numSamples >> 2U;
 163:.\DSP\Source\ComplexMathFunctions/arm_cmplx_conj_f32.c **** 
 164:.\DSP\Source\ComplexMathFunctions/arm_cmplx_conj_f32.c ****   while (blkCnt > 0U)
 165:.\DSP\Source\ComplexMathFunctions/arm_cmplx_conj_f32.c ****   {
 166:.\DSP\Source\ComplexMathFunctions/arm_cmplx_conj_f32.c ****     /* C[0] + jC[1] = A[0]+ j(-1)A[1] */
 167:.\DSP\Source\ComplexMathFunctions/arm_cmplx_conj_f32.c **** 
 168:.\DSP\Source\ComplexMathFunctions/arm_cmplx_conj_f32.c ****     /* Calculate Complex Conjugate and store result in destination buffer. */
 169:.\DSP\Source\ComplexMathFunctions/arm_cmplx_conj_f32.c ****     *pDst++ =  *pSrc++;
 170:.\DSP\Source\ComplexMathFunctions/arm_cmplx_conj_f32.c ****     *pDst++ = -*pSrc++;
 171:.\DSP\Source\ComplexMathFunctions/arm_cmplx_conj_f32.c **** 
 172:.\DSP\Source\ComplexMathFunctions/arm_cmplx_conj_f32.c ****     *pDst++ =  *pSrc++;
 173:.\DSP\Source\ComplexMathFunctions/arm_cmplx_conj_f32.c ****     *pDst++ = -*pSrc++;
 174:.\DSP\Source\ComplexMathFunctions/arm_cmplx_conj_f32.c **** 
 175:.\DSP\Source\ComplexMathFunctions/arm_cmplx_conj_f32.c ****     *pDst++ =  *pSrc++;
 176:.\DSP\Source\ComplexMathFunctions/arm_cmplx_conj_f32.c ****     *pDst++ = -*pSrc++;
 177:.\DSP\Source\ComplexMathFunctions/arm_cmplx_conj_f32.c **** 
 178:.\DSP\Source\ComplexMathFunctions/arm_cmplx_conj_f32.c ****     *pDst++ =  *pSrc++;
 179:.\DSP\Source\ComplexMathFunctions/arm_cmplx_conj_f32.c ****     *pDst++ = -*pSrc++;
 180:.\DSP\Source\ComplexMathFunctions/arm_cmplx_conj_f32.c **** 
 181:.\DSP\Source\ComplexMathFunctions/arm_cmplx_conj_f32.c ****     /* Decrement loop counter */
 182:.\DSP\Source\ComplexMathFunctions/arm_cmplx_conj_f32.c ****     blkCnt--;
 183:.\DSP\Source\ComplexMathFunctions/arm_cmplx_conj_f32.c ****   }
 184:.\DSP\Source\ComplexMathFunctions/arm_cmplx_conj_f32.c **** 
 185:.\DSP\Source\ComplexMathFunctions/arm_cmplx_conj_f32.c ****   /* Loop unrolling: Compute remaining outputs */
 186:.\DSP\Source\ComplexMathFunctions/arm_cmplx_conj_f32.c ****   blkCnt = numSamples % 0x4U;
 187:.\DSP\Source\ComplexMathFunctions/arm_cmplx_conj_f32.c **** 
 188:.\DSP\Source\ComplexMathFunctions/arm_cmplx_conj_f32.c **** #else
 189:.\DSP\Source\ComplexMathFunctions/arm_cmplx_conj_f32.c **** 
 190:.\DSP\Source\ComplexMathFunctions/arm_cmplx_conj_f32.c ****   /* Initialize blkCnt with number of samples */
 191:.\DSP\Source\ComplexMathFunctions/arm_cmplx_conj_f32.c ****   blkCnt = numSamples;
ARM GAS  C:\Users\IVYLIU~1\AppData\Local\Temp\ccnpFvRb.s 			page 5


 192:.\DSP\Source\ComplexMathFunctions/arm_cmplx_conj_f32.c **** 
 193:.\DSP\Source\ComplexMathFunctions/arm_cmplx_conj_f32.c **** #endif /* #if defined (ARM_MATH_LOOPUNROLL) */
 194:.\DSP\Source\ComplexMathFunctions/arm_cmplx_conj_f32.c **** #endif /* #if defined (ARM_MATH_NEON) */
 195:.\DSP\Source\ComplexMathFunctions/arm_cmplx_conj_f32.c **** 
 196:.\DSP\Source\ComplexMathFunctions/arm_cmplx_conj_f32.c ****   while (blkCnt > 0U)
  38              		.loc 1 196 0
  39 0002 0CE0     		b	.L2
  40              	.LVL2:
  41              	.L3:
 197:.\DSP\Source\ComplexMathFunctions/arm_cmplx_conj_f32.c ****   {
 198:.\DSP\Source\ComplexMathFunctions/arm_cmplx_conj_f32.c ****     /* C[0] + jC[1] = A[0]+ j(-1)A[1] */
 199:.\DSP\Source\ComplexMathFunctions/arm_cmplx_conj_f32.c **** 
 200:.\DSP\Source\ComplexMathFunctions/arm_cmplx_conj_f32.c ****     /* Calculate Complex Conjugate and store result in destination buffer. */
 201:.\DSP\Source\ComplexMathFunctions/arm_cmplx_conj_f32.c ****     *pDst++ =  *pSrc++;
  42              		.loc 1 201 0
  43 0004 0346     		mov	r3, r0
  44 0006 53F8085B 		ldr	r5, [r3], #8	@ float
  45 000a 0C46     		mov	r4, r1
  46 000c 44F8085B 		str	r5, [r4], #8	@ float
  47              	.LVL3:
 202:.\DSP\Source\ComplexMathFunctions/arm_cmplx_conj_f32.c ****     *pDst++ = -*pSrc++;
  48              		.loc 1 202 0
  49 0010 4068     		ldr	r0, [r0, #4]	@ float
  50 0012 00F10040 		add	r0, r0, #-2147483648
  51 0016 4860     		str	r0, [r1, #4]	@ float
 203:.\DSP\Source\ComplexMathFunctions/arm_cmplx_conj_f32.c **** 
 204:.\DSP\Source\ComplexMathFunctions/arm_cmplx_conj_f32.c ****     /* Decrement loop counter */
 205:.\DSP\Source\ComplexMathFunctions/arm_cmplx_conj_f32.c ****     blkCnt--;
  52              		.loc 1 205 0
  53 0018 013A     		subs	r2, r2, #1
  54              	.LVL4:
 202:.\DSP\Source\ComplexMathFunctions/arm_cmplx_conj_f32.c ****     *pDst++ = -*pSrc++;
  55              		.loc 1 202 0
  56 001a 2146     		mov	r1, r4
  57 001c 1846     		mov	r0, r3
  58              	.LVL5:
  59              	.L2:
 196:.\DSP\Source\ComplexMathFunctions/arm_cmplx_conj_f32.c ****   {
  60              		.loc 1 196 0
  61 001e 002A     		cmp	r2, #0
  62 0020 F0D1     		bne	.L3
 206:.\DSP\Source\ComplexMathFunctions/arm_cmplx_conj_f32.c ****   }
 207:.\DSP\Source\ComplexMathFunctions/arm_cmplx_conj_f32.c **** 
 208:.\DSP\Source\ComplexMathFunctions/arm_cmplx_conj_f32.c **** }
  63              		.loc 1 208 0
  64 0022 30BC     		pop	{r4, r5}
  65              		.cfi_restore 5
  66              		.cfi_restore 4
  67              		.cfi_def_cfa_offset 0
  68 0024 7047     		bx	lr
  69              		.cfi_endproc
  70              	.LFE84:
  71              		.size	arm_cmplx_conj_f32, .-arm_cmplx_conj_f32
  72 0026 00BF     		.section	.text.arm_cmplx_conj_q15,"ax",%progbits
  73              		.align	2
  74              		.global	arm_cmplx_conj_q15
  75              		.thumb
ARM GAS  C:\Users\IVYLIU~1\AppData\Local\Temp\ccnpFvRb.s 			page 6


  76              		.thumb_func
  77              		.type	arm_cmplx_conj_q15, %function
  78              	arm_cmplx_conj_q15:
  79              	.LFB85:
  80              		.file 2 ".\\DSP\\Source\\ComplexMathFunctions\\arm_cmplx_conj_q15.c"
   1:.\DSP\Source\ComplexMathFunctions/arm_cmplx_conj_q15.c **** /* ----------------------------------------------------------------------
   2:.\DSP\Source\ComplexMathFunctions/arm_cmplx_conj_q15.c ****  * Project:      CMSIS DSP Library
   3:.\DSP\Source\ComplexMathFunctions/arm_cmplx_conj_q15.c ****  * Title:        arm_cmplx_conj_q15.c
   4:.\DSP\Source\ComplexMathFunctions/arm_cmplx_conj_q15.c ****  * Description:  Q15 complex conjugate
   5:.\DSP\Source\ComplexMathFunctions/arm_cmplx_conj_q15.c ****  *
   6:.\DSP\Source\ComplexMathFunctions/arm_cmplx_conj_q15.c ****  * $Date:        23 April 2021
   7:.\DSP\Source\ComplexMathFunctions/arm_cmplx_conj_q15.c ****  * $Revision:    V1.9.0
   8:.\DSP\Source\ComplexMathFunctions/arm_cmplx_conj_q15.c ****  *
   9:.\DSP\Source\ComplexMathFunctions/arm_cmplx_conj_q15.c ****  * Target Processor: Cortex-M and Cortex-A cores
  10:.\DSP\Source\ComplexMathFunctions/arm_cmplx_conj_q15.c ****  * -------------------------------------------------------------------- */
  11:.\DSP\Source\ComplexMathFunctions/arm_cmplx_conj_q15.c **** /*
  12:.\DSP\Source\ComplexMathFunctions/arm_cmplx_conj_q15.c ****  * Copyright (C) 2010-2021 ARM Limited or its affiliates. All rights reserved.
  13:.\DSP\Source\ComplexMathFunctions/arm_cmplx_conj_q15.c ****  *
  14:.\DSP\Source\ComplexMathFunctions/arm_cmplx_conj_q15.c ****  * SPDX-License-Identifier: Apache-2.0
  15:.\DSP\Source\ComplexMathFunctions/arm_cmplx_conj_q15.c ****  *
  16:.\DSP\Source\ComplexMathFunctions/arm_cmplx_conj_q15.c ****  * Licensed under the Apache License, Version 2.0 (the License); you may
  17:.\DSP\Source\ComplexMathFunctions/arm_cmplx_conj_q15.c ****  * not use this file except in compliance with the License.
  18:.\DSP\Source\ComplexMathFunctions/arm_cmplx_conj_q15.c ****  * You may obtain a copy of the License at
  19:.\DSP\Source\ComplexMathFunctions/arm_cmplx_conj_q15.c ****  *
  20:.\DSP\Source\ComplexMathFunctions/arm_cmplx_conj_q15.c ****  * www.apache.org/licenses/LICENSE-2.0
  21:.\DSP\Source\ComplexMathFunctions/arm_cmplx_conj_q15.c ****  *
  22:.\DSP\Source\ComplexMathFunctions/arm_cmplx_conj_q15.c ****  * Unless required by applicable law or agreed to in writing, software
  23:.\DSP\Source\ComplexMathFunctions/arm_cmplx_conj_q15.c ****  * distributed under the License is distributed on an AS IS BASIS, WITHOUT
  24:.\DSP\Source\ComplexMathFunctions/arm_cmplx_conj_q15.c ****  * WARRANTIES OR CONDITIONS OF ANY KIND, either express or implied.
  25:.\DSP\Source\ComplexMathFunctions/arm_cmplx_conj_q15.c ****  * See the License for the specific language governing permissions and
  26:.\DSP\Source\ComplexMathFunctions/arm_cmplx_conj_q15.c ****  * limitations under the License.
  27:.\DSP\Source\ComplexMathFunctions/arm_cmplx_conj_q15.c ****  */
  28:.\DSP\Source\ComplexMathFunctions/arm_cmplx_conj_q15.c **** 
  29:.\DSP\Source\ComplexMathFunctions/arm_cmplx_conj_q15.c **** #include "dsp/complex_math_functions.h"
  30:.\DSP\Source\ComplexMathFunctions/arm_cmplx_conj_q15.c **** 
  31:.\DSP\Source\ComplexMathFunctions/arm_cmplx_conj_q15.c **** /**
  32:.\DSP\Source\ComplexMathFunctions/arm_cmplx_conj_q15.c ****   @ingroup groupCmplxMath
  33:.\DSP\Source\ComplexMathFunctions/arm_cmplx_conj_q15.c ****  */
  34:.\DSP\Source\ComplexMathFunctions/arm_cmplx_conj_q15.c **** 
  35:.\DSP\Source\ComplexMathFunctions/arm_cmplx_conj_q15.c **** /**
  36:.\DSP\Source\ComplexMathFunctions/arm_cmplx_conj_q15.c ****   @addtogroup cmplx_conj
  37:.\DSP\Source\ComplexMathFunctions/arm_cmplx_conj_q15.c ****   @{
  38:.\DSP\Source\ComplexMathFunctions/arm_cmplx_conj_q15.c ****  */
  39:.\DSP\Source\ComplexMathFunctions/arm_cmplx_conj_q15.c **** 
  40:.\DSP\Source\ComplexMathFunctions/arm_cmplx_conj_q15.c **** /**
  41:.\DSP\Source\ComplexMathFunctions/arm_cmplx_conj_q15.c ****   @brief         Q15 complex conjugate.
  42:.\DSP\Source\ComplexMathFunctions/arm_cmplx_conj_q15.c ****   @param[in]     pSrc        points to the input vector
  43:.\DSP\Source\ComplexMathFunctions/arm_cmplx_conj_q15.c ****   @param[out]    pDst        points to the output vector
  44:.\DSP\Source\ComplexMathFunctions/arm_cmplx_conj_q15.c ****   @param[in]     numSamples  number of samples in each vector
  45:.\DSP\Source\ComplexMathFunctions/arm_cmplx_conj_q15.c ****   @return        none
  46:.\DSP\Source\ComplexMathFunctions/arm_cmplx_conj_q15.c **** 
  47:.\DSP\Source\ComplexMathFunctions/arm_cmplx_conj_q15.c ****   @par           Scaling and Overflow Behavior
  48:.\DSP\Source\ComplexMathFunctions/arm_cmplx_conj_q15.c ****                    The function uses saturating arithmetic.
  49:.\DSP\Source\ComplexMathFunctions/arm_cmplx_conj_q15.c ****                    The Q15 value -1 (0x8000) is saturated to the maximum allowable positive value 0
  50:.\DSP\Source\ComplexMathFunctions/arm_cmplx_conj_q15.c ****  */
  51:.\DSP\Source\ComplexMathFunctions/arm_cmplx_conj_q15.c **** 
  52:.\DSP\Source\ComplexMathFunctions/arm_cmplx_conj_q15.c **** 
ARM GAS  C:\Users\IVYLIU~1\AppData\Local\Temp\ccnpFvRb.s 			page 7


  53:.\DSP\Source\ComplexMathFunctions/arm_cmplx_conj_q15.c **** #if defined(ARM_MATH_MVEI) && !defined(ARM_MATH_AUTOVECTORIZE)
  54:.\DSP\Source\ComplexMathFunctions/arm_cmplx_conj_q15.c **** void arm_cmplx_conj_q15(
  55:.\DSP\Source\ComplexMathFunctions/arm_cmplx_conj_q15.c ****   const q15_t * pSrc,
  56:.\DSP\Source\ComplexMathFunctions/arm_cmplx_conj_q15.c ****         q15_t * pDst,
  57:.\DSP\Source\ComplexMathFunctions/arm_cmplx_conj_q15.c ****         uint32_t numSamples)
  58:.\DSP\Source\ComplexMathFunctions/arm_cmplx_conj_q15.c **** {
  59:.\DSP\Source\ComplexMathFunctions/arm_cmplx_conj_q15.c ****     uint32_t blockSize = numSamples * CMPLX_DIM;   /* loop counters */
  60:.\DSP\Source\ComplexMathFunctions/arm_cmplx_conj_q15.c ****     uint32_t blkCnt;
  61:.\DSP\Source\ComplexMathFunctions/arm_cmplx_conj_q15.c ****     q31_t in1; 
  62:.\DSP\Source\ComplexMathFunctions/arm_cmplx_conj_q15.c **** 
  63:.\DSP\Source\ComplexMathFunctions/arm_cmplx_conj_q15.c ****     q15x8x2_t vecSrc;
  64:.\DSP\Source\ComplexMathFunctions/arm_cmplx_conj_q15.c ****     q15x8_t zero;
  65:.\DSP\Source\ComplexMathFunctions/arm_cmplx_conj_q15.c **** 
  66:.\DSP\Source\ComplexMathFunctions/arm_cmplx_conj_q15.c ****     zero = vdupq_n_s16(0);
  67:.\DSP\Source\ComplexMathFunctions/arm_cmplx_conj_q15.c **** 
  68:.\DSP\Source\ComplexMathFunctions/arm_cmplx_conj_q15.c ****     /* Compute 8 real samples at a time */
  69:.\DSP\Source\ComplexMathFunctions/arm_cmplx_conj_q15.c ****     blkCnt = blockSize >> 4U;
  70:.\DSP\Source\ComplexMathFunctions/arm_cmplx_conj_q15.c ****     while (blkCnt > 0U)
  71:.\DSP\Source\ComplexMathFunctions/arm_cmplx_conj_q15.c ****     {
  72:.\DSP\Source\ComplexMathFunctions/arm_cmplx_conj_q15.c ****         vecSrc = vld2q(pSrc);
  73:.\DSP\Source\ComplexMathFunctions/arm_cmplx_conj_q15.c ****         vecSrc.val[1] = vqsubq(zero, vecSrc.val[1]);
  74:.\DSP\Source\ComplexMathFunctions/arm_cmplx_conj_q15.c ****         vst2q(pDst,vecSrc);
  75:.\DSP\Source\ComplexMathFunctions/arm_cmplx_conj_q15.c ****         /*
  76:.\DSP\Source\ComplexMathFunctions/arm_cmplx_conj_q15.c ****          * Decrement the blkCnt loop counter
  77:.\DSP\Source\ComplexMathFunctions/arm_cmplx_conj_q15.c ****          * Advance vector source and destination pointers
  78:.\DSP\Source\ComplexMathFunctions/arm_cmplx_conj_q15.c ****          */
  79:.\DSP\Source\ComplexMathFunctions/arm_cmplx_conj_q15.c ****         pSrc += 16;
  80:.\DSP\Source\ComplexMathFunctions/arm_cmplx_conj_q15.c ****         pDst += 16;
  81:.\DSP\Source\ComplexMathFunctions/arm_cmplx_conj_q15.c ****         blkCnt --;
  82:.\DSP\Source\ComplexMathFunctions/arm_cmplx_conj_q15.c ****     }
  83:.\DSP\Source\ComplexMathFunctions/arm_cmplx_conj_q15.c ****     
  84:.\DSP\Source\ComplexMathFunctions/arm_cmplx_conj_q15.c ****      /* Tail */
  85:.\DSP\Source\ComplexMathFunctions/arm_cmplx_conj_q15.c ****     blkCnt = (blockSize & 0xF) >> 1;
  86:.\DSP\Source\ComplexMathFunctions/arm_cmplx_conj_q15.c **** 
  87:.\DSP\Source\ComplexMathFunctions/arm_cmplx_conj_q15.c ****     while (blkCnt > 0U)
  88:.\DSP\Source\ComplexMathFunctions/arm_cmplx_conj_q15.c ****     {
  89:.\DSP\Source\ComplexMathFunctions/arm_cmplx_conj_q15.c ****       /* C[0] + jC[1] = A[0]+ j(-1)A[1] */
  90:.\DSP\Source\ComplexMathFunctions/arm_cmplx_conj_q15.c ****   
  91:.\DSP\Source\ComplexMathFunctions/arm_cmplx_conj_q15.c ****       /* Calculate Complex Conjugate and store result in destination buffer. */
  92:.\DSP\Source\ComplexMathFunctions/arm_cmplx_conj_q15.c ****       *pDst++ =  *pSrc++;
  93:.\DSP\Source\ComplexMathFunctions/arm_cmplx_conj_q15.c ****       in1 = *pSrc++;
  94:.\DSP\Source\ComplexMathFunctions/arm_cmplx_conj_q15.c ****       *pDst++ = __SSAT(-in1, 16);
  95:.\DSP\Source\ComplexMathFunctions/arm_cmplx_conj_q15.c ****   
  96:.\DSP\Source\ComplexMathFunctions/arm_cmplx_conj_q15.c ****       /* Decrement loop counter */
  97:.\DSP\Source\ComplexMathFunctions/arm_cmplx_conj_q15.c ****       blkCnt--;
  98:.\DSP\Source\ComplexMathFunctions/arm_cmplx_conj_q15.c ****     }
  99:.\DSP\Source\ComplexMathFunctions/arm_cmplx_conj_q15.c **** }
 100:.\DSP\Source\ComplexMathFunctions/arm_cmplx_conj_q15.c **** #else
 101:.\DSP\Source\ComplexMathFunctions/arm_cmplx_conj_q15.c **** void arm_cmplx_conj_q15(
 102:.\DSP\Source\ComplexMathFunctions/arm_cmplx_conj_q15.c ****   const q15_t * pSrc,
 103:.\DSP\Source\ComplexMathFunctions/arm_cmplx_conj_q15.c ****         q15_t * pDst,
 104:.\DSP\Source\ComplexMathFunctions/arm_cmplx_conj_q15.c ****         uint32_t numSamples)
 105:.\DSP\Source\ComplexMathFunctions/arm_cmplx_conj_q15.c **** {
  81              		.loc 2 105 0
  82              		.cfi_startproc
  83              		@ args = 0, pretend = 0, frame = 0
  84              		@ frame_needed = 0, uses_anonymous_args = 0
ARM GAS  C:\Users\IVYLIU~1\AppData\Local\Temp\ccnpFvRb.s 			page 8


  85              		@ link register save eliminated.
  86              	.LVL6:
  87 0000 30B4     		push	{r4, r5}
  88              		.cfi_def_cfa_offset 8
  89              		.cfi_offset 4, -8
  90              		.cfi_offset 5, -4
  91              	.LVL7:
 106:.\DSP\Source\ComplexMathFunctions/arm_cmplx_conj_q15.c ****         uint32_t blkCnt;                               /* Loop counter */
 107:.\DSP\Source\ComplexMathFunctions/arm_cmplx_conj_q15.c ****         q31_t in1;                                     /* Temporary input variable */
 108:.\DSP\Source\ComplexMathFunctions/arm_cmplx_conj_q15.c **** 
 109:.\DSP\Source\ComplexMathFunctions/arm_cmplx_conj_q15.c **** #if defined (ARM_MATH_LOOPUNROLL) && defined (ARM_MATH_DSP)
 110:.\DSP\Source\ComplexMathFunctions/arm_cmplx_conj_q15.c ****         q31_t in2, in3, in4;                           /* Temporary input variables */
 111:.\DSP\Source\ComplexMathFunctions/arm_cmplx_conj_q15.c **** #endif
 112:.\DSP\Source\ComplexMathFunctions/arm_cmplx_conj_q15.c **** 
 113:.\DSP\Source\ComplexMathFunctions/arm_cmplx_conj_q15.c **** 
 114:.\DSP\Source\ComplexMathFunctions/arm_cmplx_conj_q15.c **** #if defined (ARM_MATH_LOOPUNROLL)
 115:.\DSP\Source\ComplexMathFunctions/arm_cmplx_conj_q15.c **** 
 116:.\DSP\Source\ComplexMathFunctions/arm_cmplx_conj_q15.c ****   /* Loop unrolling: Compute 4 outputs at a time */
 117:.\DSP\Source\ComplexMathFunctions/arm_cmplx_conj_q15.c ****   blkCnt = numSamples >> 2U;
 118:.\DSP\Source\ComplexMathFunctions/arm_cmplx_conj_q15.c **** 
 119:.\DSP\Source\ComplexMathFunctions/arm_cmplx_conj_q15.c ****   while (blkCnt > 0U)
 120:.\DSP\Source\ComplexMathFunctions/arm_cmplx_conj_q15.c ****   {
 121:.\DSP\Source\ComplexMathFunctions/arm_cmplx_conj_q15.c ****     /* C[0] + jC[1] = A[0]+ j(-1)A[1] */
 122:.\DSP\Source\ComplexMathFunctions/arm_cmplx_conj_q15.c **** 
 123:.\DSP\Source\ComplexMathFunctions/arm_cmplx_conj_q15.c ****     /* Calculate Complex Conjugate and store result in destination buffer. */
 124:.\DSP\Source\ComplexMathFunctions/arm_cmplx_conj_q15.c **** 
 125:.\DSP\Source\ComplexMathFunctions/arm_cmplx_conj_q15.c **** #if defined (ARM_MATH_DSP)
 126:.\DSP\Source\ComplexMathFunctions/arm_cmplx_conj_q15.c ****     in1 = read_q15x2_ia (&pSrc);
 127:.\DSP\Source\ComplexMathFunctions/arm_cmplx_conj_q15.c ****     in2 = read_q15x2_ia (&pSrc);
 128:.\DSP\Source\ComplexMathFunctions/arm_cmplx_conj_q15.c ****     in3 = read_q15x2_ia (&pSrc);
 129:.\DSP\Source\ComplexMathFunctions/arm_cmplx_conj_q15.c ****     in4 = read_q15x2_ia (&pSrc);
 130:.\DSP\Source\ComplexMathFunctions/arm_cmplx_conj_q15.c **** 
 131:.\DSP\Source\ComplexMathFunctions/arm_cmplx_conj_q15.c **** #ifndef ARM_MATH_BIG_ENDIAN
 132:.\DSP\Source\ComplexMathFunctions/arm_cmplx_conj_q15.c ****     in1 = __QASX(0, in1);
 133:.\DSP\Source\ComplexMathFunctions/arm_cmplx_conj_q15.c ****     in2 = __QASX(0, in2);
 134:.\DSP\Source\ComplexMathFunctions/arm_cmplx_conj_q15.c ****     in3 = __QASX(0, in3);
 135:.\DSP\Source\ComplexMathFunctions/arm_cmplx_conj_q15.c ****     in4 = __QASX(0, in4);
 136:.\DSP\Source\ComplexMathFunctions/arm_cmplx_conj_q15.c **** #else
 137:.\DSP\Source\ComplexMathFunctions/arm_cmplx_conj_q15.c ****     in1 = __QSAX(0, in1);
 138:.\DSP\Source\ComplexMathFunctions/arm_cmplx_conj_q15.c ****     in2 = __QSAX(0, in2);
 139:.\DSP\Source\ComplexMathFunctions/arm_cmplx_conj_q15.c ****     in3 = __QSAX(0, in3);
 140:.\DSP\Source\ComplexMathFunctions/arm_cmplx_conj_q15.c ****     in4 = __QSAX(0, in4);
 141:.\DSP\Source\ComplexMathFunctions/arm_cmplx_conj_q15.c **** #endif /* #ifndef ARM_MATH_BIG_ENDIAN */
 142:.\DSP\Source\ComplexMathFunctions/arm_cmplx_conj_q15.c **** 
 143:.\DSP\Source\ComplexMathFunctions/arm_cmplx_conj_q15.c ****     in1 = ((uint32_t) in1 >> 16) | ((uint32_t) in1 << 16);
 144:.\DSP\Source\ComplexMathFunctions/arm_cmplx_conj_q15.c ****     in2 = ((uint32_t) in2 >> 16) | ((uint32_t) in2 << 16);
 145:.\DSP\Source\ComplexMathFunctions/arm_cmplx_conj_q15.c ****     in3 = ((uint32_t) in3 >> 16) | ((uint32_t) in3 << 16);
 146:.\DSP\Source\ComplexMathFunctions/arm_cmplx_conj_q15.c ****     in4 = ((uint32_t) in4 >> 16) | ((uint32_t) in4 << 16);
 147:.\DSP\Source\ComplexMathFunctions/arm_cmplx_conj_q15.c **** 
 148:.\DSP\Source\ComplexMathFunctions/arm_cmplx_conj_q15.c ****     write_q15x2_ia (&pDst, in1);
 149:.\DSP\Source\ComplexMathFunctions/arm_cmplx_conj_q15.c ****     write_q15x2_ia (&pDst, in2);
 150:.\DSP\Source\ComplexMathFunctions/arm_cmplx_conj_q15.c ****     write_q15x2_ia (&pDst, in3);
 151:.\DSP\Source\ComplexMathFunctions/arm_cmplx_conj_q15.c ****     write_q15x2_ia (&pDst, in4);
 152:.\DSP\Source\ComplexMathFunctions/arm_cmplx_conj_q15.c **** #else
 153:.\DSP\Source\ComplexMathFunctions/arm_cmplx_conj_q15.c ****     *pDst++ =  *pSrc++;
 154:.\DSP\Source\ComplexMathFunctions/arm_cmplx_conj_q15.c ****     in1 = *pSrc++;
 155:.\DSP\Source\ComplexMathFunctions/arm_cmplx_conj_q15.c ****     *pDst++ = (in1 == (q15_t) 0x8000) ? (q15_t) 0x7fff : -in1;
ARM GAS  C:\Users\IVYLIU~1\AppData\Local\Temp\ccnpFvRb.s 			page 9


 156:.\DSP\Source\ComplexMathFunctions/arm_cmplx_conj_q15.c **** 
 157:.\DSP\Source\ComplexMathFunctions/arm_cmplx_conj_q15.c ****     *pDst++ =  *pSrc++;
 158:.\DSP\Source\ComplexMathFunctions/arm_cmplx_conj_q15.c ****     in1 = *pSrc++;
 159:.\DSP\Source\ComplexMathFunctions/arm_cmplx_conj_q15.c ****     *pDst++ = (in1 == (q15_t) 0x8000) ? (q15_t) 0x7fff : -in1;
 160:.\DSP\Source\ComplexMathFunctions/arm_cmplx_conj_q15.c **** 
 161:.\DSP\Source\ComplexMathFunctions/arm_cmplx_conj_q15.c ****     *pDst++ =  *pSrc++;
 162:.\DSP\Source\ComplexMathFunctions/arm_cmplx_conj_q15.c ****     in1 = *pSrc++;
 163:.\DSP\Source\ComplexMathFunctions/arm_cmplx_conj_q15.c ****     *pDst++ = (in1 == (q15_t) 0x8000) ? (q15_t) 0x7fff : -in1;
 164:.\DSP\Source\ComplexMathFunctions/arm_cmplx_conj_q15.c **** 
 165:.\DSP\Source\ComplexMathFunctions/arm_cmplx_conj_q15.c ****     *pDst++ =  *pSrc++;
 166:.\DSP\Source\ComplexMathFunctions/arm_cmplx_conj_q15.c ****     in1 = *pSrc++;
 167:.\DSP\Source\ComplexMathFunctions/arm_cmplx_conj_q15.c ****     *pDst++ = (in1 == (q15_t) 0x8000) ? (q15_t) 0x7fff : -in1;
 168:.\DSP\Source\ComplexMathFunctions/arm_cmplx_conj_q15.c **** 
 169:.\DSP\Source\ComplexMathFunctions/arm_cmplx_conj_q15.c **** #endif /* #if defined (ARM_MATH_DSP) */
 170:.\DSP\Source\ComplexMathFunctions/arm_cmplx_conj_q15.c **** 
 171:.\DSP\Source\ComplexMathFunctions/arm_cmplx_conj_q15.c ****     /* Decrement loop counter */
 172:.\DSP\Source\ComplexMathFunctions/arm_cmplx_conj_q15.c ****     blkCnt--;
 173:.\DSP\Source\ComplexMathFunctions/arm_cmplx_conj_q15.c ****   }
 174:.\DSP\Source\ComplexMathFunctions/arm_cmplx_conj_q15.c **** 
 175:.\DSP\Source\ComplexMathFunctions/arm_cmplx_conj_q15.c ****   /* Loop unrolling: Compute remaining outputs */
 176:.\DSP\Source\ComplexMathFunctions/arm_cmplx_conj_q15.c ****   blkCnt = numSamples % 0x4U;
 177:.\DSP\Source\ComplexMathFunctions/arm_cmplx_conj_q15.c **** 
 178:.\DSP\Source\ComplexMathFunctions/arm_cmplx_conj_q15.c **** #else
 179:.\DSP\Source\ComplexMathFunctions/arm_cmplx_conj_q15.c **** 
 180:.\DSP\Source\ComplexMathFunctions/arm_cmplx_conj_q15.c ****   /* Initialize blkCnt with number of samples */
 181:.\DSP\Source\ComplexMathFunctions/arm_cmplx_conj_q15.c ****   blkCnt = numSamples;
 182:.\DSP\Source\ComplexMathFunctions/arm_cmplx_conj_q15.c **** 
 183:.\DSP\Source\ComplexMathFunctions/arm_cmplx_conj_q15.c **** #endif /* #if defined (ARM_MATH_LOOPUNROLL) */
 184:.\DSP\Source\ComplexMathFunctions/arm_cmplx_conj_q15.c **** 
 185:.\DSP\Source\ComplexMathFunctions/arm_cmplx_conj_q15.c ****   while (blkCnt > 0U)
  92              		.loc 2 185 0
  93 0002 13E0     		b	.L6
  94              	.LVL8:
  95              	.L8:
 186:.\DSP\Source\ComplexMathFunctions/arm_cmplx_conj_q15.c ****   {
 187:.\DSP\Source\ComplexMathFunctions/arm_cmplx_conj_q15.c ****     /* C[0] + jC[1] = A[0]+ j(-1)A[1] */
 188:.\DSP\Source\ComplexMathFunctions/arm_cmplx_conj_q15.c **** 
 189:.\DSP\Source\ComplexMathFunctions/arm_cmplx_conj_q15.c ****     /* Calculate Complex Conjugate and store result in destination buffer. */
 190:.\DSP\Source\ComplexMathFunctions/arm_cmplx_conj_q15.c ****     *pDst++ =  *pSrc++;
  96              		.loc 2 190 0
  97 0004 0446     		mov	r4, r0
  98 0006 34F8043B 		ldrh	r3, [r4], #4
  99 000a 0D46     		mov	r5, r1
 100 000c 25F8043B 		strh	r3, [r5], #4	@ movhi
 101              	.LVL9:
 191:.\DSP\Source\ComplexMathFunctions/arm_cmplx_conj_q15.c ****     in1 = *pSrc++;
 102              		.loc 2 191 0
 103 0010 4388     		ldrh	r3, [r0, #2]
 104 0012 18B2     		sxth	r0, r3
 105              	.LVL10:
 192:.\DSP\Source\ComplexMathFunctions/arm_cmplx_conj_q15.c **** #if defined (ARM_MATH_DSP)
 193:.\DSP\Source\ComplexMathFunctions/arm_cmplx_conj_q15.c ****     *pDst++ = __SSAT(-in1, 16);
 194:.\DSP\Source\ComplexMathFunctions/arm_cmplx_conj_q15.c **** #else
 195:.\DSP\Source\ComplexMathFunctions/arm_cmplx_conj_q15.c ****     *pDst++ = (in1 == (q15_t) 0x8000) ? (q15_t) 0x7fff : -in1;
 106              		.loc 2 195 0
 107 0014 10F5004F 		cmn	r0, #32768
 108 0018 02D0     		beq	.L9
ARM GAS  C:\Users\IVYLIU~1\AppData\Local\Temp\ccnpFvRb.s 			page 10


 109              		.loc 2 195 0 is_stmt 0 discriminator 1
 110 001a 5B42     		negs	r3, r3
 111 001c 9BB2     		uxth	r3, r3
 112 001e 01E0     		b	.L7
 113              	.L9:
 114              		.loc 2 195 0
 115 0020 47F6FF73 		movw	r3, #32767
 116              	.L7:
 117              		.loc 2 195 0 discriminator 4
 118 0024 4B80     		strh	r3, [r1, #2]	@ movhi
 196:.\DSP\Source\ComplexMathFunctions/arm_cmplx_conj_q15.c **** #endif
 197:.\DSP\Source\ComplexMathFunctions/arm_cmplx_conj_q15.c **** 
 198:.\DSP\Source\ComplexMathFunctions/arm_cmplx_conj_q15.c ****     /* Decrement loop counter */
 199:.\DSP\Source\ComplexMathFunctions/arm_cmplx_conj_q15.c ****     blkCnt--;
 119              		.loc 2 199 0 is_stmt 1 discriminator 4
 120 0026 013A     		subs	r2, r2, #1
 121              	.LVL11:
 195:.\DSP\Source\ComplexMathFunctions/arm_cmplx_conj_q15.c **** #endif
 122              		.loc 2 195 0 discriminator 4
 123 0028 2946     		mov	r1, r5
 191:.\DSP\Source\ComplexMathFunctions/arm_cmplx_conj_q15.c **** #if defined (ARM_MATH_DSP)
 124              		.loc 2 191 0 discriminator 4
 125 002a 2046     		mov	r0, r4
 126              	.LVL12:
 127              	.L6:
 185:.\DSP\Source\ComplexMathFunctions/arm_cmplx_conj_q15.c ****   {
 128              		.loc 2 185 0
 129 002c 002A     		cmp	r2, #0
 130 002e E9D1     		bne	.L8
 200:.\DSP\Source\ComplexMathFunctions/arm_cmplx_conj_q15.c ****   }
 201:.\DSP\Source\ComplexMathFunctions/arm_cmplx_conj_q15.c **** 
 202:.\DSP\Source\ComplexMathFunctions/arm_cmplx_conj_q15.c **** }
 131              		.loc 2 202 0
 132 0030 30BC     		pop	{r4, r5}
 133              		.cfi_restore 5
 134              		.cfi_restore 4
 135              		.cfi_def_cfa_offset 0
 136 0032 7047     		bx	lr
 137              		.cfi_endproc
 138              	.LFE85:
 139              		.size	arm_cmplx_conj_q15, .-arm_cmplx_conj_q15
 140              		.section	.text.arm_cmplx_conj_q31,"ax",%progbits
 141              		.align	2
 142              		.global	arm_cmplx_conj_q31
 143              		.thumb
 144              		.thumb_func
 145              		.type	arm_cmplx_conj_q31, %function
 146              	arm_cmplx_conj_q31:
 147              	.LFB86:
 148              		.file 3 ".\\DSP\\Source\\ComplexMathFunctions\\arm_cmplx_conj_q31.c"
   1:.\DSP\Source\ComplexMathFunctions/arm_cmplx_conj_q31.c **** /* ----------------------------------------------------------------------
   2:.\DSP\Source\ComplexMathFunctions/arm_cmplx_conj_q31.c ****  * Project:      CMSIS DSP Library
   3:.\DSP\Source\ComplexMathFunctions/arm_cmplx_conj_q31.c ****  * Title:        arm_cmplx_conj_q31.c
   4:.\DSP\Source\ComplexMathFunctions/arm_cmplx_conj_q31.c ****  * Description:  Q31 complex conjugate
   5:.\DSP\Source\ComplexMathFunctions/arm_cmplx_conj_q31.c ****  *
   6:.\DSP\Source\ComplexMathFunctions/arm_cmplx_conj_q31.c ****  * $Date:        23 April 2021
   7:.\DSP\Source\ComplexMathFunctions/arm_cmplx_conj_q31.c ****  * $Revision:    V1.9.0
ARM GAS  C:\Users\IVYLIU~1\AppData\Local\Temp\ccnpFvRb.s 			page 11


   8:.\DSP\Source\ComplexMathFunctions/arm_cmplx_conj_q31.c ****  *
   9:.\DSP\Source\ComplexMathFunctions/arm_cmplx_conj_q31.c ****  * Target Processor: Cortex-M and Cortex-A cores
  10:.\DSP\Source\ComplexMathFunctions/arm_cmplx_conj_q31.c ****  * -------------------------------------------------------------------- */
  11:.\DSP\Source\ComplexMathFunctions/arm_cmplx_conj_q31.c **** /*
  12:.\DSP\Source\ComplexMathFunctions/arm_cmplx_conj_q31.c ****  * Copyright (C) 2010-2021 ARM Limited or its affiliates. All rights reserved.
  13:.\DSP\Source\ComplexMathFunctions/arm_cmplx_conj_q31.c ****  *
  14:.\DSP\Source\ComplexMathFunctions/arm_cmplx_conj_q31.c ****  * SPDX-License-Identifier: Apache-2.0
  15:.\DSP\Source\ComplexMathFunctions/arm_cmplx_conj_q31.c ****  *
  16:.\DSP\Source\ComplexMathFunctions/arm_cmplx_conj_q31.c ****  * Licensed under the Apache License, Version 2.0 (the License); you may
  17:.\DSP\Source\ComplexMathFunctions/arm_cmplx_conj_q31.c ****  * not use this file except in compliance with the License.
  18:.\DSP\Source\ComplexMathFunctions/arm_cmplx_conj_q31.c ****  * You may obtain a copy of the License at
  19:.\DSP\Source\ComplexMathFunctions/arm_cmplx_conj_q31.c ****  *
  20:.\DSP\Source\ComplexMathFunctions/arm_cmplx_conj_q31.c ****  * www.apache.org/licenses/LICENSE-2.0
  21:.\DSP\Source\ComplexMathFunctions/arm_cmplx_conj_q31.c ****  *
  22:.\DSP\Source\ComplexMathFunctions/arm_cmplx_conj_q31.c ****  * Unless required by applicable law or agreed to in writing, software
  23:.\DSP\Source\ComplexMathFunctions/arm_cmplx_conj_q31.c ****  * distributed under the License is distributed on an AS IS BASIS, WITHOUT
  24:.\DSP\Source\ComplexMathFunctions/arm_cmplx_conj_q31.c ****  * WARRANTIES OR CONDITIONS OF ANY KIND, either express or implied.
  25:.\DSP\Source\ComplexMathFunctions/arm_cmplx_conj_q31.c ****  * See the License for the specific language governing permissions and
  26:.\DSP\Source\ComplexMathFunctions/arm_cmplx_conj_q31.c ****  * limitations under the License.
  27:.\DSP\Source\ComplexMathFunctions/arm_cmplx_conj_q31.c ****  */
  28:.\DSP\Source\ComplexMathFunctions/arm_cmplx_conj_q31.c **** 
  29:.\DSP\Source\ComplexMathFunctions/arm_cmplx_conj_q31.c **** #include "dsp/complex_math_functions.h"
  30:.\DSP\Source\ComplexMathFunctions/arm_cmplx_conj_q31.c **** 
  31:.\DSP\Source\ComplexMathFunctions/arm_cmplx_conj_q31.c **** /**
  32:.\DSP\Source\ComplexMathFunctions/arm_cmplx_conj_q31.c ****   @ingroup groupCmplxMath
  33:.\DSP\Source\ComplexMathFunctions/arm_cmplx_conj_q31.c ****  */
  34:.\DSP\Source\ComplexMathFunctions/arm_cmplx_conj_q31.c **** 
  35:.\DSP\Source\ComplexMathFunctions/arm_cmplx_conj_q31.c **** /**
  36:.\DSP\Source\ComplexMathFunctions/arm_cmplx_conj_q31.c ****   @addtogroup cmplx_conj
  37:.\DSP\Source\ComplexMathFunctions/arm_cmplx_conj_q31.c ****   @{
  38:.\DSP\Source\ComplexMathFunctions/arm_cmplx_conj_q31.c ****  */
  39:.\DSP\Source\ComplexMathFunctions/arm_cmplx_conj_q31.c **** 
  40:.\DSP\Source\ComplexMathFunctions/arm_cmplx_conj_q31.c **** /**
  41:.\DSP\Source\ComplexMathFunctions/arm_cmplx_conj_q31.c ****   @brief         Q31 complex conjugate.
  42:.\DSP\Source\ComplexMathFunctions/arm_cmplx_conj_q31.c ****   @param[in]     pSrc        points to the input vector
  43:.\DSP\Source\ComplexMathFunctions/arm_cmplx_conj_q31.c ****   @param[out]    pDst        points to the output vector
  44:.\DSP\Source\ComplexMathFunctions/arm_cmplx_conj_q31.c ****   @param[in]     numSamples  number of samples in each vector
  45:.\DSP\Source\ComplexMathFunctions/arm_cmplx_conj_q31.c ****   @return        none
  46:.\DSP\Source\ComplexMathFunctions/arm_cmplx_conj_q31.c **** 
  47:.\DSP\Source\ComplexMathFunctions/arm_cmplx_conj_q31.c ****   @par           Scaling and Overflow Behavior
  48:.\DSP\Source\ComplexMathFunctions/arm_cmplx_conj_q31.c ****                    The function uses saturating arithmetic.
  49:.\DSP\Source\ComplexMathFunctions/arm_cmplx_conj_q31.c ****                    The Q31 value -1 (0x80000000) is saturated to the maximum allowable positive val
  50:.\DSP\Source\ComplexMathFunctions/arm_cmplx_conj_q31.c ****  */
  51:.\DSP\Source\ComplexMathFunctions/arm_cmplx_conj_q31.c **** 
  52:.\DSP\Source\ComplexMathFunctions/arm_cmplx_conj_q31.c **** #if defined(ARM_MATH_MVEI) && !defined(ARM_MATH_AUTOVECTORIZE)
  53:.\DSP\Source\ComplexMathFunctions/arm_cmplx_conj_q31.c **** 
  54:.\DSP\Source\ComplexMathFunctions/arm_cmplx_conj_q31.c **** void arm_cmplx_conj_q31(
  55:.\DSP\Source\ComplexMathFunctions/arm_cmplx_conj_q31.c ****   const q31_t * pSrc,
  56:.\DSP\Source\ComplexMathFunctions/arm_cmplx_conj_q31.c ****         q31_t * pDst,
  57:.\DSP\Source\ComplexMathFunctions/arm_cmplx_conj_q31.c ****         uint32_t numSamples)
  58:.\DSP\Source\ComplexMathFunctions/arm_cmplx_conj_q31.c **** {
  59:.\DSP\Source\ComplexMathFunctions/arm_cmplx_conj_q31.c **** 
  60:.\DSP\Source\ComplexMathFunctions/arm_cmplx_conj_q31.c ****     uint32_t blockSize = numSamples * CMPLX_DIM;   /* loop counters */
  61:.\DSP\Source\ComplexMathFunctions/arm_cmplx_conj_q31.c ****     uint32_t blkCnt;
  62:.\DSP\Source\ComplexMathFunctions/arm_cmplx_conj_q31.c ****     q31x4x2_t vecSrc;
  63:.\DSP\Source\ComplexMathFunctions/arm_cmplx_conj_q31.c ****     q31_t in;                                      /* Temporary input variable */
  64:.\DSP\Source\ComplexMathFunctions/arm_cmplx_conj_q31.c ****     q31x4_t zero;
ARM GAS  C:\Users\IVYLIU~1\AppData\Local\Temp\ccnpFvRb.s 			page 12


  65:.\DSP\Source\ComplexMathFunctions/arm_cmplx_conj_q31.c **** 
  66:.\DSP\Source\ComplexMathFunctions/arm_cmplx_conj_q31.c ****     zero = vdupq_n_s32(0);
  67:.\DSP\Source\ComplexMathFunctions/arm_cmplx_conj_q31.c **** 
  68:.\DSP\Source\ComplexMathFunctions/arm_cmplx_conj_q31.c ****    
  69:.\DSP\Source\ComplexMathFunctions/arm_cmplx_conj_q31.c ****     /* Compute 4 real samples at a time */
  70:.\DSP\Source\ComplexMathFunctions/arm_cmplx_conj_q31.c ****     blkCnt = blockSize >> 3U;
  71:.\DSP\Source\ComplexMathFunctions/arm_cmplx_conj_q31.c **** 
  72:.\DSP\Source\ComplexMathFunctions/arm_cmplx_conj_q31.c ****     while (blkCnt > 0U)
  73:.\DSP\Source\ComplexMathFunctions/arm_cmplx_conj_q31.c ****     {
  74:.\DSP\Source\ComplexMathFunctions/arm_cmplx_conj_q31.c **** 
  75:.\DSP\Source\ComplexMathFunctions/arm_cmplx_conj_q31.c ****         vecSrc = vld2q(pSrc);
  76:.\DSP\Source\ComplexMathFunctions/arm_cmplx_conj_q31.c ****         vecSrc.val[1] = vqsubq(zero, vecSrc.val[1]);
  77:.\DSP\Source\ComplexMathFunctions/arm_cmplx_conj_q31.c ****         vst2q(pDst,vecSrc);
  78:.\DSP\Source\ComplexMathFunctions/arm_cmplx_conj_q31.c ****         /*
  79:.\DSP\Source\ComplexMathFunctions/arm_cmplx_conj_q31.c ****          * Decrement the blkCnt loop counter
  80:.\DSP\Source\ComplexMathFunctions/arm_cmplx_conj_q31.c ****          * Advance vector source and destination pointers
  81:.\DSP\Source\ComplexMathFunctions/arm_cmplx_conj_q31.c ****          */
  82:.\DSP\Source\ComplexMathFunctions/arm_cmplx_conj_q31.c ****         pSrc += 8;
  83:.\DSP\Source\ComplexMathFunctions/arm_cmplx_conj_q31.c ****         pDst += 8;
  84:.\DSP\Source\ComplexMathFunctions/arm_cmplx_conj_q31.c ****         blkCnt --;
  85:.\DSP\Source\ComplexMathFunctions/arm_cmplx_conj_q31.c ****     }
  86:.\DSP\Source\ComplexMathFunctions/arm_cmplx_conj_q31.c **** 
  87:.\DSP\Source\ComplexMathFunctions/arm_cmplx_conj_q31.c ****      /* Tail */
  88:.\DSP\Source\ComplexMathFunctions/arm_cmplx_conj_q31.c ****     blkCnt = (blockSize & 0x7) >> 1;
  89:.\DSP\Source\ComplexMathFunctions/arm_cmplx_conj_q31.c **** 
  90:.\DSP\Source\ComplexMathFunctions/arm_cmplx_conj_q31.c ****     while (blkCnt > 0U)
  91:.\DSP\Source\ComplexMathFunctions/arm_cmplx_conj_q31.c ****     {
  92:.\DSP\Source\ComplexMathFunctions/arm_cmplx_conj_q31.c ****       /* C[0] + jC[1] = A[0]+ j(-1)A[1] */
  93:.\DSP\Source\ComplexMathFunctions/arm_cmplx_conj_q31.c ****   
  94:.\DSP\Source\ComplexMathFunctions/arm_cmplx_conj_q31.c ****       /* Calculate Complex Conjugate and store result in destination buffer. */
  95:.\DSP\Source\ComplexMathFunctions/arm_cmplx_conj_q31.c ****       *pDst++ =  *pSrc++;
  96:.\DSP\Source\ComplexMathFunctions/arm_cmplx_conj_q31.c ****       in = *pSrc++;
  97:.\DSP\Source\ComplexMathFunctions/arm_cmplx_conj_q31.c ****       *pDst++ = __QSUB(0, in);
  98:.\DSP\Source\ComplexMathFunctions/arm_cmplx_conj_q31.c ****   
  99:.\DSP\Source\ComplexMathFunctions/arm_cmplx_conj_q31.c ****       /* Decrement loop counter */
 100:.\DSP\Source\ComplexMathFunctions/arm_cmplx_conj_q31.c ****       blkCnt--;
 101:.\DSP\Source\ComplexMathFunctions/arm_cmplx_conj_q31.c ****     }
 102:.\DSP\Source\ComplexMathFunctions/arm_cmplx_conj_q31.c **** 
 103:.\DSP\Source\ComplexMathFunctions/arm_cmplx_conj_q31.c **** 
 104:.\DSP\Source\ComplexMathFunctions/arm_cmplx_conj_q31.c **** }
 105:.\DSP\Source\ComplexMathFunctions/arm_cmplx_conj_q31.c **** #else
 106:.\DSP\Source\ComplexMathFunctions/arm_cmplx_conj_q31.c **** 
 107:.\DSP\Source\ComplexMathFunctions/arm_cmplx_conj_q31.c **** void arm_cmplx_conj_q31(
 108:.\DSP\Source\ComplexMathFunctions/arm_cmplx_conj_q31.c ****   const q31_t * pSrc,
 109:.\DSP\Source\ComplexMathFunctions/arm_cmplx_conj_q31.c ****         q31_t * pDst,
 110:.\DSP\Source\ComplexMathFunctions/arm_cmplx_conj_q31.c ****         uint32_t numSamples)
 111:.\DSP\Source\ComplexMathFunctions/arm_cmplx_conj_q31.c **** {
 149              		.loc 3 111 0
 150              		.cfi_startproc
 151              		@ args = 0, pretend = 0, frame = 0
 152              		@ frame_needed = 0, uses_anonymous_args = 0
 153              		@ link register save eliminated.
 154              	.LVL13:
 155 0000 30B4     		push	{r4, r5}
 156              		.cfi_def_cfa_offset 8
 157              		.cfi_offset 4, -8
 158              		.cfi_offset 5, -4
ARM GAS  C:\Users\IVYLIU~1\AppData\Local\Temp\ccnpFvRb.s 			page 13


 159              	.LVL14:
 112:.\DSP\Source\ComplexMathFunctions/arm_cmplx_conj_q31.c ****         uint32_t blkCnt;                               /* Loop counter */
 113:.\DSP\Source\ComplexMathFunctions/arm_cmplx_conj_q31.c ****         q31_t in;                                      /* Temporary input variable */
 114:.\DSP\Source\ComplexMathFunctions/arm_cmplx_conj_q31.c **** 
 115:.\DSP\Source\ComplexMathFunctions/arm_cmplx_conj_q31.c **** #if defined (ARM_MATH_LOOPUNROLL)
 116:.\DSP\Source\ComplexMathFunctions/arm_cmplx_conj_q31.c **** 
 117:.\DSP\Source\ComplexMathFunctions/arm_cmplx_conj_q31.c ****   /* Loop unrolling: Compute 4 outputs at a time */
 118:.\DSP\Source\ComplexMathFunctions/arm_cmplx_conj_q31.c ****   blkCnt = numSamples >> 2U;
 119:.\DSP\Source\ComplexMathFunctions/arm_cmplx_conj_q31.c **** 
 120:.\DSP\Source\ComplexMathFunctions/arm_cmplx_conj_q31.c ****   while (blkCnt > 0U)
 121:.\DSP\Source\ComplexMathFunctions/arm_cmplx_conj_q31.c ****   {
 122:.\DSP\Source\ComplexMathFunctions/arm_cmplx_conj_q31.c ****     /* C[0] + jC[1] = A[0]+ j(-1)A[1] */
 123:.\DSP\Source\ComplexMathFunctions/arm_cmplx_conj_q31.c **** 
 124:.\DSP\Source\ComplexMathFunctions/arm_cmplx_conj_q31.c ****     /* Calculate Complex Conjugate and store result in destination buffer. */
 125:.\DSP\Source\ComplexMathFunctions/arm_cmplx_conj_q31.c ****     *pDst++ =  *pSrc++;
 126:.\DSP\Source\ComplexMathFunctions/arm_cmplx_conj_q31.c ****     in = *pSrc++;
 127:.\DSP\Source\ComplexMathFunctions/arm_cmplx_conj_q31.c **** #if defined (ARM_MATH_DSP)
 128:.\DSP\Source\ComplexMathFunctions/arm_cmplx_conj_q31.c ****     *pDst++ = __QSUB(0, in);
 129:.\DSP\Source\ComplexMathFunctions/arm_cmplx_conj_q31.c **** #else
 130:.\DSP\Source\ComplexMathFunctions/arm_cmplx_conj_q31.c ****     *pDst++ = (in == INT32_MIN) ? INT32_MAX : -in;
 131:.\DSP\Source\ComplexMathFunctions/arm_cmplx_conj_q31.c **** #endif
 132:.\DSP\Source\ComplexMathFunctions/arm_cmplx_conj_q31.c **** 
 133:.\DSP\Source\ComplexMathFunctions/arm_cmplx_conj_q31.c ****     *pDst++ =  *pSrc++;
 134:.\DSP\Source\ComplexMathFunctions/arm_cmplx_conj_q31.c ****     in =  *pSrc++;
 135:.\DSP\Source\ComplexMathFunctions/arm_cmplx_conj_q31.c **** #if defined (ARM_MATH_DSP)
 136:.\DSP\Source\ComplexMathFunctions/arm_cmplx_conj_q31.c ****     *pDst++ = __QSUB(0, in);
 137:.\DSP\Source\ComplexMathFunctions/arm_cmplx_conj_q31.c **** #else
 138:.\DSP\Source\ComplexMathFunctions/arm_cmplx_conj_q31.c ****     *pDst++ = (in == INT32_MIN) ? INT32_MAX : -in;
 139:.\DSP\Source\ComplexMathFunctions/arm_cmplx_conj_q31.c **** #endif
 140:.\DSP\Source\ComplexMathFunctions/arm_cmplx_conj_q31.c **** 
 141:.\DSP\Source\ComplexMathFunctions/arm_cmplx_conj_q31.c ****     *pDst++ =  *pSrc++;
 142:.\DSP\Source\ComplexMathFunctions/arm_cmplx_conj_q31.c ****     in = *pSrc++;
 143:.\DSP\Source\ComplexMathFunctions/arm_cmplx_conj_q31.c **** #if defined (ARM_MATH_DSP)
 144:.\DSP\Source\ComplexMathFunctions/arm_cmplx_conj_q31.c ****     *pDst++ = __QSUB(0, in);
 145:.\DSP\Source\ComplexMathFunctions/arm_cmplx_conj_q31.c **** #else
 146:.\DSP\Source\ComplexMathFunctions/arm_cmplx_conj_q31.c ****     *pDst++ = (in == INT32_MIN) ? INT32_MAX : -in;
 147:.\DSP\Source\ComplexMathFunctions/arm_cmplx_conj_q31.c **** #endif
 148:.\DSP\Source\ComplexMathFunctions/arm_cmplx_conj_q31.c **** 
 149:.\DSP\Source\ComplexMathFunctions/arm_cmplx_conj_q31.c ****     *pDst++ =  *pSrc++;
 150:.\DSP\Source\ComplexMathFunctions/arm_cmplx_conj_q31.c ****     in = *pSrc++;
 151:.\DSP\Source\ComplexMathFunctions/arm_cmplx_conj_q31.c **** #if defined (ARM_MATH_DSP)
 152:.\DSP\Source\ComplexMathFunctions/arm_cmplx_conj_q31.c ****     *pDst++ = __QSUB(0, in);
 153:.\DSP\Source\ComplexMathFunctions/arm_cmplx_conj_q31.c **** #else
 154:.\DSP\Source\ComplexMathFunctions/arm_cmplx_conj_q31.c ****     *pDst++ = (in == INT32_MIN) ? INT32_MAX : -in;
 155:.\DSP\Source\ComplexMathFunctions/arm_cmplx_conj_q31.c **** #endif
 156:.\DSP\Source\ComplexMathFunctions/arm_cmplx_conj_q31.c **** 
 157:.\DSP\Source\ComplexMathFunctions/arm_cmplx_conj_q31.c ****     /* Decrement loop counter */
 158:.\DSP\Source\ComplexMathFunctions/arm_cmplx_conj_q31.c ****     blkCnt--;
 159:.\DSP\Source\ComplexMathFunctions/arm_cmplx_conj_q31.c ****   }
 160:.\DSP\Source\ComplexMathFunctions/arm_cmplx_conj_q31.c **** 
 161:.\DSP\Source\ComplexMathFunctions/arm_cmplx_conj_q31.c ****   /* Loop unrolling: Compute remaining outputs */
 162:.\DSP\Source\ComplexMathFunctions/arm_cmplx_conj_q31.c ****   blkCnt = numSamples % 0x4U;
 163:.\DSP\Source\ComplexMathFunctions/arm_cmplx_conj_q31.c **** 
 164:.\DSP\Source\ComplexMathFunctions/arm_cmplx_conj_q31.c **** #else
 165:.\DSP\Source\ComplexMathFunctions/arm_cmplx_conj_q31.c **** 
 166:.\DSP\Source\ComplexMathFunctions/arm_cmplx_conj_q31.c ****   /* Initialize blkCnt with number of samples */
 167:.\DSP\Source\ComplexMathFunctions/arm_cmplx_conj_q31.c ****   blkCnt = numSamples;
ARM GAS  C:\Users\IVYLIU~1\AppData\Local\Temp\ccnpFvRb.s 			page 14


 168:.\DSP\Source\ComplexMathFunctions/arm_cmplx_conj_q31.c **** 
 169:.\DSP\Source\ComplexMathFunctions/arm_cmplx_conj_q31.c **** #endif /* #if defined (ARM_MATH_LOOPUNROLL) */
 170:.\DSP\Source\ComplexMathFunctions/arm_cmplx_conj_q31.c **** 
 171:.\DSP\Source\ComplexMathFunctions/arm_cmplx_conj_q31.c ****   while (blkCnt > 0U)
 160              		.loc 3 171 0
 161 0002 11E0     		b	.L12
 162              	.LVL15:
 163              	.L14:
 172:.\DSP\Source\ComplexMathFunctions/arm_cmplx_conj_q31.c ****   {
 173:.\DSP\Source\ComplexMathFunctions/arm_cmplx_conj_q31.c ****     /* C[0] + jC[1] = A[0]+ j(-1)A[1] */
 174:.\DSP\Source\ComplexMathFunctions/arm_cmplx_conj_q31.c **** 
 175:.\DSP\Source\ComplexMathFunctions/arm_cmplx_conj_q31.c ****     /* Calculate Complex Conjugate and store result in destination buffer. */
 176:.\DSP\Source\ComplexMathFunctions/arm_cmplx_conj_q31.c ****     *pDst++ =  *pSrc++;
 164              		.loc 3 176 0
 165 0004 0446     		mov	r4, r0
 166 0006 54F8083B 		ldr	r3, [r4], #8
 167 000a 0D46     		mov	r5, r1
 168 000c 45F8083B 		str	r3, [r5], #8
 169              	.LVL16:
 177:.\DSP\Source\ComplexMathFunctions/arm_cmplx_conj_q31.c ****     in = *pSrc++;
 170              		.loc 3 177 0
 171 0010 4368     		ldr	r3, [r0, #4]
 172              	.LVL17:
 178:.\DSP\Source\ComplexMathFunctions/arm_cmplx_conj_q31.c **** #if defined (ARM_MATH_DSP)
 179:.\DSP\Source\ComplexMathFunctions/arm_cmplx_conj_q31.c ****     *pDst++ = __QSUB(0, in);
 180:.\DSP\Source\ComplexMathFunctions/arm_cmplx_conj_q31.c **** #else
 181:.\DSP\Source\ComplexMathFunctions/arm_cmplx_conj_q31.c ****     *pDst++ = (in == INT32_MIN) ? INT32_MAX : -in;
 173              		.loc 3 181 0
 174 0012 B3F1004F 		cmp	r3, #-2147483648
 175 0016 01D0     		beq	.L15
 176              		.loc 3 181 0 is_stmt 0 discriminator 1
 177 0018 5B42     		negs	r3, r3
 178              	.LVL18:
 179 001a 01E0     		b	.L13
 180              	.LVL19:
 181              	.L15:
 182              		.loc 3 181 0
 183 001c 6FF00043 		mvn	r3, #-2147483648
 184              	.LVL20:
 185              	.L13:
 186              		.loc 3 181 0 discriminator 4
 187 0020 4B60     		str	r3, [r1, #4]
 188              	.LVL21:
 182:.\DSP\Source\ComplexMathFunctions/arm_cmplx_conj_q31.c **** #endif
 183:.\DSP\Source\ComplexMathFunctions/arm_cmplx_conj_q31.c **** 
 184:.\DSP\Source\ComplexMathFunctions/arm_cmplx_conj_q31.c ****     /* Decrement loop counter */
 185:.\DSP\Source\ComplexMathFunctions/arm_cmplx_conj_q31.c ****     blkCnt--;
 189              		.loc 3 185 0 is_stmt 1 discriminator 4
 190 0022 013A     		subs	r2, r2, #1
 191              	.LVL22:
 181:.\DSP\Source\ComplexMathFunctions/arm_cmplx_conj_q31.c **** #endif
 192              		.loc 3 181 0 discriminator 4
 193 0024 2946     		mov	r1, r5
 177:.\DSP\Source\ComplexMathFunctions/arm_cmplx_conj_q31.c **** #if defined (ARM_MATH_DSP)
 194              		.loc 3 177 0 discriminator 4
 195 0026 2046     		mov	r0, r4
 196              	.LVL23:
ARM GAS  C:\Users\IVYLIU~1\AppData\Local\Temp\ccnpFvRb.s 			page 15


 197              	.L12:
 171:.\DSP\Source\ComplexMathFunctions/arm_cmplx_conj_q31.c ****   {
 198              		.loc 3 171 0
 199 0028 002A     		cmp	r2, #0
 200 002a EBD1     		bne	.L14
 186:.\DSP\Source\ComplexMathFunctions/arm_cmplx_conj_q31.c ****   }
 187:.\DSP\Source\ComplexMathFunctions/arm_cmplx_conj_q31.c **** 
 188:.\DSP\Source\ComplexMathFunctions/arm_cmplx_conj_q31.c **** }
 201              		.loc 3 188 0
 202 002c 30BC     		pop	{r4, r5}
 203              		.cfi_restore 5
 204              		.cfi_restore 4
 205              		.cfi_def_cfa_offset 0
 206 002e 7047     		bx	lr
 207              		.cfi_endproc
 208              	.LFE86:
 209              		.size	arm_cmplx_conj_q31, .-arm_cmplx_conj_q31
 210              		.global	__aeabi_fmul
 211              		.global	__aeabi_fadd
 212              		.global	__aeabi_fsub
 213              		.section	.text.arm_cmplx_dot_prod_f32,"ax",%progbits
 214              		.align	2
 215              		.global	arm_cmplx_dot_prod_f32
 216              		.thumb
 217              		.thumb_func
 218              		.type	arm_cmplx_dot_prod_f32, %function
 219              	arm_cmplx_dot_prod_f32:
 220              	.LFB87:
 221              		.file 4 ".\\DSP\\Source\\ComplexMathFunctions\\arm_cmplx_dot_prod_f32.c"
   1:.\DSP\Source\ComplexMathFunctions/arm_cmplx_dot_prod_f32.c **** /* ----------------------------------------------------------------------
   2:.\DSP\Source\ComplexMathFunctions/arm_cmplx_dot_prod_f32.c ****  * Project:      CMSIS DSP Library
   3:.\DSP\Source\ComplexMathFunctions/arm_cmplx_dot_prod_f32.c ****  * Title:        arm_cmplx_dot_prod_f32.c
   4:.\DSP\Source\ComplexMathFunctions/arm_cmplx_dot_prod_f32.c ****  * Description:  Floating-point complex dot product
   5:.\DSP\Source\ComplexMathFunctions/arm_cmplx_dot_prod_f32.c ****  *
   6:.\DSP\Source\ComplexMathFunctions/arm_cmplx_dot_prod_f32.c ****  * $Date:        23 April 2021
   7:.\DSP\Source\ComplexMathFunctions/arm_cmplx_dot_prod_f32.c ****  * $Revision:    V1.9.0
   8:.\DSP\Source\ComplexMathFunctions/arm_cmplx_dot_prod_f32.c ****  *
   9:.\DSP\Source\ComplexMathFunctions/arm_cmplx_dot_prod_f32.c ****  * Target Processor: Cortex-M and Cortex-A cores
  10:.\DSP\Source\ComplexMathFunctions/arm_cmplx_dot_prod_f32.c ****  * -------------------------------------------------------------------- */
  11:.\DSP\Source\ComplexMathFunctions/arm_cmplx_dot_prod_f32.c **** /*
  12:.\DSP\Source\ComplexMathFunctions/arm_cmplx_dot_prod_f32.c ****  * Copyright (C) 2010-2021 ARM Limited or its affiliates. All rights reserved.
  13:.\DSP\Source\ComplexMathFunctions/arm_cmplx_dot_prod_f32.c ****  *
  14:.\DSP\Source\ComplexMathFunctions/arm_cmplx_dot_prod_f32.c ****  * SPDX-License-Identifier: Apache-2.0
  15:.\DSP\Source\ComplexMathFunctions/arm_cmplx_dot_prod_f32.c ****  *
  16:.\DSP\Source\ComplexMathFunctions/arm_cmplx_dot_prod_f32.c ****  * Licensed under the Apache License, Version 2.0 (the License); you may
  17:.\DSP\Source\ComplexMathFunctions/arm_cmplx_dot_prod_f32.c ****  * not use this file except in compliance with the License.
  18:.\DSP\Source\ComplexMathFunctions/arm_cmplx_dot_prod_f32.c ****  * You may obtain a copy of the License at
  19:.\DSP\Source\ComplexMathFunctions/arm_cmplx_dot_prod_f32.c ****  *
  20:.\DSP\Source\ComplexMathFunctions/arm_cmplx_dot_prod_f32.c ****  * www.apache.org/licenses/LICENSE-2.0
  21:.\DSP\Source\ComplexMathFunctions/arm_cmplx_dot_prod_f32.c ****  *
  22:.\DSP\Source\ComplexMathFunctions/arm_cmplx_dot_prod_f32.c ****  * Unless required by applicable law or agreed to in writing, software
  23:.\DSP\Source\ComplexMathFunctions/arm_cmplx_dot_prod_f32.c ****  * distributed under the License is distributed on an AS IS BASIS, WITHOUT
  24:.\DSP\Source\ComplexMathFunctions/arm_cmplx_dot_prod_f32.c ****  * WARRANTIES OR CONDITIONS OF ANY KIND, either express or implied.
  25:.\DSP\Source\ComplexMathFunctions/arm_cmplx_dot_prod_f32.c ****  * See the License for the specific language governing permissions and
  26:.\DSP\Source\ComplexMathFunctions/arm_cmplx_dot_prod_f32.c ****  * limitations under the License.
  27:.\DSP\Source\ComplexMathFunctions/arm_cmplx_dot_prod_f32.c ****  */
  28:.\DSP\Source\ComplexMathFunctions/arm_cmplx_dot_prod_f32.c **** 
ARM GAS  C:\Users\IVYLIU~1\AppData\Local\Temp\ccnpFvRb.s 			page 16


  29:.\DSP\Source\ComplexMathFunctions/arm_cmplx_dot_prod_f32.c **** #include "dsp/complex_math_functions.h"
  30:.\DSP\Source\ComplexMathFunctions/arm_cmplx_dot_prod_f32.c **** 
  31:.\DSP\Source\ComplexMathFunctions/arm_cmplx_dot_prod_f32.c **** /**
  32:.\DSP\Source\ComplexMathFunctions/arm_cmplx_dot_prod_f32.c ****   @ingroup groupCmplxMath
  33:.\DSP\Source\ComplexMathFunctions/arm_cmplx_dot_prod_f32.c ****  */
  34:.\DSP\Source\ComplexMathFunctions/arm_cmplx_dot_prod_f32.c **** 
  35:.\DSP\Source\ComplexMathFunctions/arm_cmplx_dot_prod_f32.c **** /**
  36:.\DSP\Source\ComplexMathFunctions/arm_cmplx_dot_prod_f32.c ****   @defgroup cmplx_dot_prod Complex Dot Product
  37:.\DSP\Source\ComplexMathFunctions/arm_cmplx_dot_prod_f32.c **** 
  38:.\DSP\Source\ComplexMathFunctions/arm_cmplx_dot_prod_f32.c ****   Computes the dot product of two complex vectors.
  39:.\DSP\Source\ComplexMathFunctions/arm_cmplx_dot_prod_f32.c ****   The vectors are multiplied element-by-element and then summed.
  40:.\DSP\Source\ComplexMathFunctions/arm_cmplx_dot_prod_f32.c **** 
  41:.\DSP\Source\ComplexMathFunctions/arm_cmplx_dot_prod_f32.c ****   The <code>pSrcA</code> points to the first complex input vector and
  42:.\DSP\Source\ComplexMathFunctions/arm_cmplx_dot_prod_f32.c ****   <code>pSrcB</code> points to the second complex input vector.
  43:.\DSP\Source\ComplexMathFunctions/arm_cmplx_dot_prod_f32.c ****   <code>numSamples</code> specifies the number of complex samples
  44:.\DSP\Source\ComplexMathFunctions/arm_cmplx_dot_prod_f32.c ****   and the data in each array is stored in an interleaved fashion
  45:.\DSP\Source\ComplexMathFunctions/arm_cmplx_dot_prod_f32.c ****   (real, imag, real, imag, ...).
  46:.\DSP\Source\ComplexMathFunctions/arm_cmplx_dot_prod_f32.c ****   Each array has a total of <code>2*numSamples</code> values.
  47:.\DSP\Source\ComplexMathFunctions/arm_cmplx_dot_prod_f32.c **** 
  48:.\DSP\Source\ComplexMathFunctions/arm_cmplx_dot_prod_f32.c ****   The underlying algorithm is used:
  49:.\DSP\Source\ComplexMathFunctions/arm_cmplx_dot_prod_f32.c **** 
  50:.\DSP\Source\ComplexMathFunctions/arm_cmplx_dot_prod_f32.c ****   <pre>
  51:.\DSP\Source\ComplexMathFunctions/arm_cmplx_dot_prod_f32.c ****   realResult = 0;
  52:.\DSP\Source\ComplexMathFunctions/arm_cmplx_dot_prod_f32.c ****   imagResult = 0;
  53:.\DSP\Source\ComplexMathFunctions/arm_cmplx_dot_prod_f32.c ****   for (n = 0; n < numSamples; n++) {
  54:.\DSP\Source\ComplexMathFunctions/arm_cmplx_dot_prod_f32.c ****       realResult += pSrcA[(2*n)+0] * pSrcB[(2*n)+0] - pSrcA[(2*n)+1] * pSrcB[(2*n)+1];
  55:.\DSP\Source\ComplexMathFunctions/arm_cmplx_dot_prod_f32.c ****       imagResult += pSrcA[(2*n)+0] * pSrcB[(2*n)+1] + pSrcA[(2*n)+1] * pSrcB[(2*n)+0];
  56:.\DSP\Source\ComplexMathFunctions/arm_cmplx_dot_prod_f32.c ****   }
  57:.\DSP\Source\ComplexMathFunctions/arm_cmplx_dot_prod_f32.c ****   </pre>
  58:.\DSP\Source\ComplexMathFunctions/arm_cmplx_dot_prod_f32.c **** 
  59:.\DSP\Source\ComplexMathFunctions/arm_cmplx_dot_prod_f32.c ****   There are separate functions for floating-point, Q15, and Q31 data types.
  60:.\DSP\Source\ComplexMathFunctions/arm_cmplx_dot_prod_f32.c ****  */
  61:.\DSP\Source\ComplexMathFunctions/arm_cmplx_dot_prod_f32.c **** 
  62:.\DSP\Source\ComplexMathFunctions/arm_cmplx_dot_prod_f32.c **** /**
  63:.\DSP\Source\ComplexMathFunctions/arm_cmplx_dot_prod_f32.c ****   @addtogroup cmplx_dot_prod
  64:.\DSP\Source\ComplexMathFunctions/arm_cmplx_dot_prod_f32.c ****   @{
  65:.\DSP\Source\ComplexMathFunctions/arm_cmplx_dot_prod_f32.c ****  */
  66:.\DSP\Source\ComplexMathFunctions/arm_cmplx_dot_prod_f32.c **** 
  67:.\DSP\Source\ComplexMathFunctions/arm_cmplx_dot_prod_f32.c **** /**
  68:.\DSP\Source\ComplexMathFunctions/arm_cmplx_dot_prod_f32.c ****   @brief         Floating-point complex dot product.
  69:.\DSP\Source\ComplexMathFunctions/arm_cmplx_dot_prod_f32.c ****   @param[in]     pSrcA       points to the first input vector
  70:.\DSP\Source\ComplexMathFunctions/arm_cmplx_dot_prod_f32.c ****   @param[in]     pSrcB       points to the second input vector
  71:.\DSP\Source\ComplexMathFunctions/arm_cmplx_dot_prod_f32.c ****   @param[in]     numSamples  number of samples in each vector
  72:.\DSP\Source\ComplexMathFunctions/arm_cmplx_dot_prod_f32.c ****   @param[out]    realResult  real part of the result returned here
  73:.\DSP\Source\ComplexMathFunctions/arm_cmplx_dot_prod_f32.c ****   @param[out]    imagResult  imaginary part of the result returned here
  74:.\DSP\Source\ComplexMathFunctions/arm_cmplx_dot_prod_f32.c ****   @return        none
  75:.\DSP\Source\ComplexMathFunctions/arm_cmplx_dot_prod_f32.c ****  */
  76:.\DSP\Source\ComplexMathFunctions/arm_cmplx_dot_prod_f32.c **** 
  77:.\DSP\Source\ComplexMathFunctions/arm_cmplx_dot_prod_f32.c **** #if defined(ARM_MATH_MVEF) && !defined(ARM_MATH_AUTOVECTORIZE)
  78:.\DSP\Source\ComplexMathFunctions/arm_cmplx_dot_prod_f32.c **** 
  79:.\DSP\Source\ComplexMathFunctions/arm_cmplx_dot_prod_f32.c **** void arm_cmplx_dot_prod_f32(
  80:.\DSP\Source\ComplexMathFunctions/arm_cmplx_dot_prod_f32.c ****     const float32_t * pSrcA,
  81:.\DSP\Source\ComplexMathFunctions/arm_cmplx_dot_prod_f32.c ****     const float32_t * pSrcB,
  82:.\DSP\Source\ComplexMathFunctions/arm_cmplx_dot_prod_f32.c ****     uint32_t numSamples,
  83:.\DSP\Source\ComplexMathFunctions/arm_cmplx_dot_prod_f32.c ****     float32_t * realResult,
  84:.\DSP\Source\ComplexMathFunctions/arm_cmplx_dot_prod_f32.c ****     float32_t * imagResult)
  85:.\DSP\Source\ComplexMathFunctions/arm_cmplx_dot_prod_f32.c **** {
ARM GAS  C:\Users\IVYLIU~1\AppData\Local\Temp\ccnpFvRb.s 			page 17


  86:.\DSP\Source\ComplexMathFunctions/arm_cmplx_dot_prod_f32.c ****     int32_t         blkCnt;
  87:.\DSP\Source\ComplexMathFunctions/arm_cmplx_dot_prod_f32.c ****     float32_t       real_sum, imag_sum;
  88:.\DSP\Source\ComplexMathFunctions/arm_cmplx_dot_prod_f32.c ****     f32x4_t         vecSrcA, vecSrcB;
  89:.\DSP\Source\ComplexMathFunctions/arm_cmplx_dot_prod_f32.c ****     f32x4_t         vec_acc = vdupq_n_f32(0.0f);
  90:.\DSP\Source\ComplexMathFunctions/arm_cmplx_dot_prod_f32.c ****     f32x4_t         vecSrcC, vecSrcD;
  91:.\DSP\Source\ComplexMathFunctions/arm_cmplx_dot_prod_f32.c **** 
  92:.\DSP\Source\ComplexMathFunctions/arm_cmplx_dot_prod_f32.c ****     blkCnt = numSamples >> 2;
  93:.\DSP\Source\ComplexMathFunctions/arm_cmplx_dot_prod_f32.c ****     blkCnt -= 1;
  94:.\DSP\Source\ComplexMathFunctions/arm_cmplx_dot_prod_f32.c ****     if (blkCnt > 0) {
  95:.\DSP\Source\ComplexMathFunctions/arm_cmplx_dot_prod_f32.c ****         /* should give more freedom to generate stall free code */
  96:.\DSP\Source\ComplexMathFunctions/arm_cmplx_dot_prod_f32.c ****         vecSrcA = vld1q(pSrcA);
  97:.\DSP\Source\ComplexMathFunctions/arm_cmplx_dot_prod_f32.c ****         vecSrcB = vld1q(pSrcB);
  98:.\DSP\Source\ComplexMathFunctions/arm_cmplx_dot_prod_f32.c ****         pSrcA += 4;
  99:.\DSP\Source\ComplexMathFunctions/arm_cmplx_dot_prod_f32.c ****         pSrcB += 4;
 100:.\DSP\Source\ComplexMathFunctions/arm_cmplx_dot_prod_f32.c **** 
 101:.\DSP\Source\ComplexMathFunctions/arm_cmplx_dot_prod_f32.c ****         while (blkCnt > 0) {
 102:.\DSP\Source\ComplexMathFunctions/arm_cmplx_dot_prod_f32.c ****             vec_acc = vcmlaq(vec_acc, vecSrcA, vecSrcB);
 103:.\DSP\Source\ComplexMathFunctions/arm_cmplx_dot_prod_f32.c ****             vecSrcC = vld1q(pSrcA);
 104:.\DSP\Source\ComplexMathFunctions/arm_cmplx_dot_prod_f32.c ****             pSrcA += 4;
 105:.\DSP\Source\ComplexMathFunctions/arm_cmplx_dot_prod_f32.c **** 
 106:.\DSP\Source\ComplexMathFunctions/arm_cmplx_dot_prod_f32.c ****             vec_acc = vcmlaq_rot90(vec_acc, vecSrcA, vecSrcB);
 107:.\DSP\Source\ComplexMathFunctions/arm_cmplx_dot_prod_f32.c ****             vecSrcD = vld1q(pSrcB);
 108:.\DSP\Source\ComplexMathFunctions/arm_cmplx_dot_prod_f32.c ****             pSrcB += 4;
 109:.\DSP\Source\ComplexMathFunctions/arm_cmplx_dot_prod_f32.c **** 
 110:.\DSP\Source\ComplexMathFunctions/arm_cmplx_dot_prod_f32.c ****             vec_acc = vcmlaq(vec_acc, vecSrcC, vecSrcD);
 111:.\DSP\Source\ComplexMathFunctions/arm_cmplx_dot_prod_f32.c ****             vecSrcA = vld1q(pSrcA);
 112:.\DSP\Source\ComplexMathFunctions/arm_cmplx_dot_prod_f32.c ****             pSrcA += 4;
 113:.\DSP\Source\ComplexMathFunctions/arm_cmplx_dot_prod_f32.c **** 
 114:.\DSP\Source\ComplexMathFunctions/arm_cmplx_dot_prod_f32.c ****             vec_acc = vcmlaq_rot90(vec_acc, vecSrcC, vecSrcD);
 115:.\DSP\Source\ComplexMathFunctions/arm_cmplx_dot_prod_f32.c ****             vecSrcB = vld1q(pSrcB);
 116:.\DSP\Source\ComplexMathFunctions/arm_cmplx_dot_prod_f32.c ****             pSrcB += 4;
 117:.\DSP\Source\ComplexMathFunctions/arm_cmplx_dot_prod_f32.c ****             /*
 118:.\DSP\Source\ComplexMathFunctions/arm_cmplx_dot_prod_f32.c ****              * Decrement the blockSize loop counter
 119:.\DSP\Source\ComplexMathFunctions/arm_cmplx_dot_prod_f32.c ****              */
 120:.\DSP\Source\ComplexMathFunctions/arm_cmplx_dot_prod_f32.c ****             blkCnt--;
 121:.\DSP\Source\ComplexMathFunctions/arm_cmplx_dot_prod_f32.c ****         }
 122:.\DSP\Source\ComplexMathFunctions/arm_cmplx_dot_prod_f32.c **** 
 123:.\DSP\Source\ComplexMathFunctions/arm_cmplx_dot_prod_f32.c ****          /* process last elements out of the loop avoid the armclang breaking the SW pipeline */
 124:.\DSP\Source\ComplexMathFunctions/arm_cmplx_dot_prod_f32.c ****         vec_acc = vcmlaq(vec_acc, vecSrcA, vecSrcB);
 125:.\DSP\Source\ComplexMathFunctions/arm_cmplx_dot_prod_f32.c ****         vecSrcC = vld1q(pSrcA);
 126:.\DSP\Source\ComplexMathFunctions/arm_cmplx_dot_prod_f32.c **** 
 127:.\DSP\Source\ComplexMathFunctions/arm_cmplx_dot_prod_f32.c ****         vec_acc = vcmlaq_rot90(vec_acc, vecSrcA, vecSrcB);
 128:.\DSP\Source\ComplexMathFunctions/arm_cmplx_dot_prod_f32.c ****         vecSrcD = vld1q(pSrcB);
 129:.\DSP\Source\ComplexMathFunctions/arm_cmplx_dot_prod_f32.c **** 
 130:.\DSP\Source\ComplexMathFunctions/arm_cmplx_dot_prod_f32.c ****         vec_acc = vcmlaq(vec_acc, vecSrcC, vecSrcD);
 131:.\DSP\Source\ComplexMathFunctions/arm_cmplx_dot_prod_f32.c ****         vec_acc = vcmlaq_rot90(vec_acc, vecSrcC, vecSrcD);
 132:.\DSP\Source\ComplexMathFunctions/arm_cmplx_dot_prod_f32.c **** 
 133:.\DSP\Source\ComplexMathFunctions/arm_cmplx_dot_prod_f32.c ****         /*
 134:.\DSP\Source\ComplexMathFunctions/arm_cmplx_dot_prod_f32.c ****          * tail
 135:.\DSP\Source\ComplexMathFunctions/arm_cmplx_dot_prod_f32.c ****          */
 136:.\DSP\Source\ComplexMathFunctions/arm_cmplx_dot_prod_f32.c ****         blkCnt = CMPLX_DIM * (numSamples & 3);
 137:.\DSP\Source\ComplexMathFunctions/arm_cmplx_dot_prod_f32.c ****         while (blkCnt > 0) {
 138:.\DSP\Source\ComplexMathFunctions/arm_cmplx_dot_prod_f32.c ****             mve_pred16_t    p = vctp32q(blkCnt);
 139:.\DSP\Source\ComplexMathFunctions/arm_cmplx_dot_prod_f32.c ****             pSrcA += 4;
 140:.\DSP\Source\ComplexMathFunctions/arm_cmplx_dot_prod_f32.c ****             pSrcB += 4;
 141:.\DSP\Source\ComplexMathFunctions/arm_cmplx_dot_prod_f32.c ****             vecSrcA = vldrwq_z_f32(pSrcA, p);
 142:.\DSP\Source\ComplexMathFunctions/arm_cmplx_dot_prod_f32.c ****             vecSrcB = vldrwq_z_f32(pSrcB, p);
ARM GAS  C:\Users\IVYLIU~1\AppData\Local\Temp\ccnpFvRb.s 			page 18


 143:.\DSP\Source\ComplexMathFunctions/arm_cmplx_dot_prod_f32.c ****             vec_acc = vcmlaq_m(vec_acc, vecSrcA, vecSrcB, p);
 144:.\DSP\Source\ComplexMathFunctions/arm_cmplx_dot_prod_f32.c ****             vec_acc = vcmlaq_rot90_m(vec_acc, vecSrcA, vecSrcB, p);
 145:.\DSP\Source\ComplexMathFunctions/arm_cmplx_dot_prod_f32.c ****             blkCnt -= 4;
 146:.\DSP\Source\ComplexMathFunctions/arm_cmplx_dot_prod_f32.c ****         }
 147:.\DSP\Source\ComplexMathFunctions/arm_cmplx_dot_prod_f32.c ****     } else {
 148:.\DSP\Source\ComplexMathFunctions/arm_cmplx_dot_prod_f32.c ****         /* small vector */
 149:.\DSP\Source\ComplexMathFunctions/arm_cmplx_dot_prod_f32.c ****         blkCnt = numSamples * CMPLX_DIM;
 150:.\DSP\Source\ComplexMathFunctions/arm_cmplx_dot_prod_f32.c ****         vec_acc = vdupq_n_f32(0.0f);
 151:.\DSP\Source\ComplexMathFunctions/arm_cmplx_dot_prod_f32.c **** 
 152:.\DSP\Source\ComplexMathFunctions/arm_cmplx_dot_prod_f32.c ****         do {
 153:.\DSP\Source\ComplexMathFunctions/arm_cmplx_dot_prod_f32.c ****             mve_pred16_t    p = vctp32q(blkCnt);
 154:.\DSP\Source\ComplexMathFunctions/arm_cmplx_dot_prod_f32.c **** 
 155:.\DSP\Source\ComplexMathFunctions/arm_cmplx_dot_prod_f32.c ****             vecSrcA = vldrwq_z_f32(pSrcA, p);
 156:.\DSP\Source\ComplexMathFunctions/arm_cmplx_dot_prod_f32.c ****             vecSrcB = vldrwq_z_f32(pSrcB, p);
 157:.\DSP\Source\ComplexMathFunctions/arm_cmplx_dot_prod_f32.c **** 
 158:.\DSP\Source\ComplexMathFunctions/arm_cmplx_dot_prod_f32.c ****             vec_acc = vcmlaq_m(vec_acc, vecSrcA, vecSrcB, p);
 159:.\DSP\Source\ComplexMathFunctions/arm_cmplx_dot_prod_f32.c ****             vec_acc = vcmlaq_rot90_m(vec_acc, vecSrcA, vecSrcB, p);
 160:.\DSP\Source\ComplexMathFunctions/arm_cmplx_dot_prod_f32.c **** 
 161:.\DSP\Source\ComplexMathFunctions/arm_cmplx_dot_prod_f32.c ****             /*
 162:.\DSP\Source\ComplexMathFunctions/arm_cmplx_dot_prod_f32.c ****              * Decrement the blkCnt loop counter
 163:.\DSP\Source\ComplexMathFunctions/arm_cmplx_dot_prod_f32.c ****              * Advance vector source and destination pointers
 164:.\DSP\Source\ComplexMathFunctions/arm_cmplx_dot_prod_f32.c ****              */
 165:.\DSP\Source\ComplexMathFunctions/arm_cmplx_dot_prod_f32.c ****             pSrcA += 4;
 166:.\DSP\Source\ComplexMathFunctions/arm_cmplx_dot_prod_f32.c ****             pSrcB += 4;
 167:.\DSP\Source\ComplexMathFunctions/arm_cmplx_dot_prod_f32.c ****             blkCnt -= 4;
 168:.\DSP\Source\ComplexMathFunctions/arm_cmplx_dot_prod_f32.c ****         }
 169:.\DSP\Source\ComplexMathFunctions/arm_cmplx_dot_prod_f32.c ****         while (blkCnt > 0);
 170:.\DSP\Source\ComplexMathFunctions/arm_cmplx_dot_prod_f32.c ****     }
 171:.\DSP\Source\ComplexMathFunctions/arm_cmplx_dot_prod_f32.c **** 
 172:.\DSP\Source\ComplexMathFunctions/arm_cmplx_dot_prod_f32.c ****     real_sum = vgetq_lane(vec_acc, 0) + vgetq_lane(vec_acc, 2);
 173:.\DSP\Source\ComplexMathFunctions/arm_cmplx_dot_prod_f32.c ****     imag_sum = vgetq_lane(vec_acc, 1) + vgetq_lane(vec_acc, 3);
 174:.\DSP\Source\ComplexMathFunctions/arm_cmplx_dot_prod_f32.c **** 
 175:.\DSP\Source\ComplexMathFunctions/arm_cmplx_dot_prod_f32.c ****     /*
 176:.\DSP\Source\ComplexMathFunctions/arm_cmplx_dot_prod_f32.c ****      * Store the real and imaginary results in the destination buffers
 177:.\DSP\Source\ComplexMathFunctions/arm_cmplx_dot_prod_f32.c ****      */
 178:.\DSP\Source\ComplexMathFunctions/arm_cmplx_dot_prod_f32.c ****     *realResult = real_sum;
 179:.\DSP\Source\ComplexMathFunctions/arm_cmplx_dot_prod_f32.c ****     *imagResult = imag_sum;
 180:.\DSP\Source\ComplexMathFunctions/arm_cmplx_dot_prod_f32.c **** }
 181:.\DSP\Source\ComplexMathFunctions/arm_cmplx_dot_prod_f32.c **** 
 182:.\DSP\Source\ComplexMathFunctions/arm_cmplx_dot_prod_f32.c **** #else
 183:.\DSP\Source\ComplexMathFunctions/arm_cmplx_dot_prod_f32.c **** void arm_cmplx_dot_prod_f32(
 184:.\DSP\Source\ComplexMathFunctions/arm_cmplx_dot_prod_f32.c ****   const float32_t * pSrcA,
 185:.\DSP\Source\ComplexMathFunctions/arm_cmplx_dot_prod_f32.c ****   const float32_t * pSrcB,
 186:.\DSP\Source\ComplexMathFunctions/arm_cmplx_dot_prod_f32.c ****         uint32_t numSamples,
 187:.\DSP\Source\ComplexMathFunctions/arm_cmplx_dot_prod_f32.c ****         float32_t * realResult,
 188:.\DSP\Source\ComplexMathFunctions/arm_cmplx_dot_prod_f32.c ****         float32_t * imagResult)
 189:.\DSP\Source\ComplexMathFunctions/arm_cmplx_dot_prod_f32.c **** {
 222              		.loc 4 189 0
 223              		.cfi_startproc
 224              		@ args = 4, pretend = 0, frame = 8
 225              		@ frame_needed = 0, uses_anonymous_args = 0
 226              	.LVL24:
 227 0000 2DE9F04F 		push	{r4, r5, r6, r7, r8, r9, r10, fp, lr}
 228              		.cfi_def_cfa_offset 36
 229              		.cfi_offset 4, -36
 230              		.cfi_offset 5, -32
 231              		.cfi_offset 6, -28
ARM GAS  C:\Users\IVYLIU~1\AppData\Local\Temp\ccnpFvRb.s 			page 19


 232              		.cfi_offset 7, -24
 233              		.cfi_offset 8, -20
 234              		.cfi_offset 9, -16
 235              		.cfi_offset 10, -12
 236              		.cfi_offset 11, -8
 237              		.cfi_offset 14, -4
 238 0004 83B0     		sub	sp, sp, #12
 239              		.cfi_def_cfa_offset 48
 240 0006 1646     		mov	r6, r2
 241 0008 0193     		str	r3, [sp, #4]
 242              	.LVL25:
 190:.\DSP\Source\ComplexMathFunctions/arm_cmplx_dot_prod_f32.c ****         uint32_t blkCnt;                               /* Loop counter */
 191:.\DSP\Source\ComplexMathFunctions/arm_cmplx_dot_prod_f32.c ****         float32_t real_sum = 0.0f, imag_sum = 0.0f;    /* Temporary result variables */
 243              		.loc 4 191 0
 244 000a 0023     		movs	r3, #0
 245              	.LVL26:
 246 000c 0093     		str	r3, [sp]	@ float
 247 000e 9B46     		mov	fp, r3
 192:.\DSP\Source\ComplexMathFunctions/arm_cmplx_dot_prod_f32.c ****         float32_t a0,b0,c0,d0;
 193:.\DSP\Source\ComplexMathFunctions/arm_cmplx_dot_prod_f32.c **** 
 194:.\DSP\Source\ComplexMathFunctions/arm_cmplx_dot_prod_f32.c **** #if defined(ARM_MATH_NEON) && !defined(ARM_MATH_AUTOVECTORIZE)
 195:.\DSP\Source\ComplexMathFunctions/arm_cmplx_dot_prod_f32.c ****     float32x4x2_t vec1,vec2,vec3,vec4;
 196:.\DSP\Source\ComplexMathFunctions/arm_cmplx_dot_prod_f32.c ****     float32x4_t accR,accI;
 197:.\DSP\Source\ComplexMathFunctions/arm_cmplx_dot_prod_f32.c ****     float32x2_t accum = vdup_n_f32(0);
 198:.\DSP\Source\ComplexMathFunctions/arm_cmplx_dot_prod_f32.c **** 
 199:.\DSP\Source\ComplexMathFunctions/arm_cmplx_dot_prod_f32.c ****     accR = vdupq_n_f32(0.0f);
 200:.\DSP\Source\ComplexMathFunctions/arm_cmplx_dot_prod_f32.c ****     accI = vdupq_n_f32(0.0f);
 201:.\DSP\Source\ComplexMathFunctions/arm_cmplx_dot_prod_f32.c **** 
 202:.\DSP\Source\ComplexMathFunctions/arm_cmplx_dot_prod_f32.c ****     /* Loop unrolling: Compute 8 outputs at a time */
 203:.\DSP\Source\ComplexMathFunctions/arm_cmplx_dot_prod_f32.c ****     blkCnt = numSamples >> 3U;
 204:.\DSP\Source\ComplexMathFunctions/arm_cmplx_dot_prod_f32.c **** 
 205:.\DSP\Source\ComplexMathFunctions/arm_cmplx_dot_prod_f32.c ****     while (blkCnt > 0U)
 206:.\DSP\Source\ComplexMathFunctions/arm_cmplx_dot_prod_f32.c ****     {
 207:.\DSP\Source\ComplexMathFunctions/arm_cmplx_dot_prod_f32.c **** 	/* C = (A[0]+jA[1])*(B[0]+jB[1]) + ...  */
 208:.\DSP\Source\ComplexMathFunctions/arm_cmplx_dot_prod_f32.c ****         /* Calculate dot product and then store the result in a temporary buffer. */
 209:.\DSP\Source\ComplexMathFunctions/arm_cmplx_dot_prod_f32.c **** 
 210:.\DSP\Source\ComplexMathFunctions/arm_cmplx_dot_prod_f32.c **** 	      vec1 = vld2q_f32(pSrcA);
 211:.\DSP\Source\ComplexMathFunctions/arm_cmplx_dot_prod_f32.c ****         vec2 = vld2q_f32(pSrcB);
 212:.\DSP\Source\ComplexMathFunctions/arm_cmplx_dot_prod_f32.c **** 
 213:.\DSP\Source\ComplexMathFunctions/arm_cmplx_dot_prod_f32.c **** 	/* Increment pointers */
 214:.\DSP\Source\ComplexMathFunctions/arm_cmplx_dot_prod_f32.c ****         pSrcA += 8;
 215:.\DSP\Source\ComplexMathFunctions/arm_cmplx_dot_prod_f32.c ****         pSrcB += 8;
 216:.\DSP\Source\ComplexMathFunctions/arm_cmplx_dot_prod_f32.c **** 
 217:.\DSP\Source\ComplexMathFunctions/arm_cmplx_dot_prod_f32.c **** 	/* Re{C} = Re{A}*Re{B} - Im{A}*Im{B} */
 218:.\DSP\Source\ComplexMathFunctions/arm_cmplx_dot_prod_f32.c ****         accR = vmlaq_f32(accR,vec1.val[0],vec2.val[0]);
 219:.\DSP\Source\ComplexMathFunctions/arm_cmplx_dot_prod_f32.c ****         accR = vmlsq_f32(accR,vec1.val[1],vec2.val[1]);
 220:.\DSP\Source\ComplexMathFunctions/arm_cmplx_dot_prod_f32.c **** 
 221:.\DSP\Source\ComplexMathFunctions/arm_cmplx_dot_prod_f32.c **** 	/* Im{C} = Re{A}*Im{B} + Im{A}*Re{B} */
 222:.\DSP\Source\ComplexMathFunctions/arm_cmplx_dot_prod_f32.c ****         accI = vmlaq_f32(accI,vec1.val[1],vec2.val[0]);
 223:.\DSP\Source\ComplexMathFunctions/arm_cmplx_dot_prod_f32.c ****         accI = vmlaq_f32(accI,vec1.val[0],vec2.val[1]);
 224:.\DSP\Source\ComplexMathFunctions/arm_cmplx_dot_prod_f32.c **** 
 225:.\DSP\Source\ComplexMathFunctions/arm_cmplx_dot_prod_f32.c ****         vec3 = vld2q_f32(pSrcA);
 226:.\DSP\Source\ComplexMathFunctions/arm_cmplx_dot_prod_f32.c ****         vec4 = vld2q_f32(pSrcB);
 227:.\DSP\Source\ComplexMathFunctions/arm_cmplx_dot_prod_f32.c **** 	
 228:.\DSP\Source\ComplexMathFunctions/arm_cmplx_dot_prod_f32.c **** 	/* Increment pointers */
 229:.\DSP\Source\ComplexMathFunctions/arm_cmplx_dot_prod_f32.c ****         pSrcA += 8;
 230:.\DSP\Source\ComplexMathFunctions/arm_cmplx_dot_prod_f32.c ****         pSrcB += 8;
ARM GAS  C:\Users\IVYLIU~1\AppData\Local\Temp\ccnpFvRb.s 			page 20


 231:.\DSP\Source\ComplexMathFunctions/arm_cmplx_dot_prod_f32.c **** 
 232:.\DSP\Source\ComplexMathFunctions/arm_cmplx_dot_prod_f32.c **** 	/* Re{C} = Re{A}*Re{B} - Im{A}*Im{B} */
 233:.\DSP\Source\ComplexMathFunctions/arm_cmplx_dot_prod_f32.c ****         accR = vmlaq_f32(accR,vec3.val[0],vec4.val[0]);
 234:.\DSP\Source\ComplexMathFunctions/arm_cmplx_dot_prod_f32.c ****         accR = vmlsq_f32(accR,vec3.val[1],vec4.val[1]);
 235:.\DSP\Source\ComplexMathFunctions/arm_cmplx_dot_prod_f32.c **** 
 236:.\DSP\Source\ComplexMathFunctions/arm_cmplx_dot_prod_f32.c **** 	/* Im{C} = Re{A}*Im{B} + Im{A}*Re{B} */
 237:.\DSP\Source\ComplexMathFunctions/arm_cmplx_dot_prod_f32.c ****         accI = vmlaq_f32(accI,vec3.val[1],vec4.val[0]);
 238:.\DSP\Source\ComplexMathFunctions/arm_cmplx_dot_prod_f32.c ****         accI = vmlaq_f32(accI,vec3.val[0],vec4.val[1]);
 239:.\DSP\Source\ComplexMathFunctions/arm_cmplx_dot_prod_f32.c **** 
 240:.\DSP\Source\ComplexMathFunctions/arm_cmplx_dot_prod_f32.c ****         /* Decrement the loop counter */
 241:.\DSP\Source\ComplexMathFunctions/arm_cmplx_dot_prod_f32.c ****         blkCnt--;
 242:.\DSP\Source\ComplexMathFunctions/arm_cmplx_dot_prod_f32.c ****     }
 243:.\DSP\Source\ComplexMathFunctions/arm_cmplx_dot_prod_f32.c **** 
 244:.\DSP\Source\ComplexMathFunctions/arm_cmplx_dot_prod_f32.c ****     accum = vpadd_f32(vget_low_f32(accR), vget_high_f32(accR));
 245:.\DSP\Source\ComplexMathFunctions/arm_cmplx_dot_prod_f32.c ****     real_sum += vget_lane_f32(accum, 0) + vget_lane_f32(accum, 1);
 246:.\DSP\Source\ComplexMathFunctions/arm_cmplx_dot_prod_f32.c **** 
 247:.\DSP\Source\ComplexMathFunctions/arm_cmplx_dot_prod_f32.c ****     accum = vpadd_f32(vget_low_f32(accI), vget_high_f32(accI));
 248:.\DSP\Source\ComplexMathFunctions/arm_cmplx_dot_prod_f32.c ****     imag_sum += vget_lane_f32(accum, 0) + vget_lane_f32(accum, 1);
 249:.\DSP\Source\ComplexMathFunctions/arm_cmplx_dot_prod_f32.c **** 
 250:.\DSP\Source\ComplexMathFunctions/arm_cmplx_dot_prod_f32.c ****     /* Tail */
 251:.\DSP\Source\ComplexMathFunctions/arm_cmplx_dot_prod_f32.c ****     blkCnt = numSamples & 0x7;
 252:.\DSP\Source\ComplexMathFunctions/arm_cmplx_dot_prod_f32.c **** 
 253:.\DSP\Source\ComplexMathFunctions/arm_cmplx_dot_prod_f32.c **** #else
 254:.\DSP\Source\ComplexMathFunctions/arm_cmplx_dot_prod_f32.c **** #if defined (ARM_MATH_LOOPUNROLL) && !defined(ARM_MATH_AUTOVECTORIZE)
 255:.\DSP\Source\ComplexMathFunctions/arm_cmplx_dot_prod_f32.c **** 
 256:.\DSP\Source\ComplexMathFunctions/arm_cmplx_dot_prod_f32.c ****   /* Loop unrolling: Compute 4 outputs at a time */
 257:.\DSP\Source\ComplexMathFunctions/arm_cmplx_dot_prod_f32.c ****   blkCnt = numSamples >> 2U;
 258:.\DSP\Source\ComplexMathFunctions/arm_cmplx_dot_prod_f32.c **** 
 259:.\DSP\Source\ComplexMathFunctions/arm_cmplx_dot_prod_f32.c ****   while (blkCnt > 0U)
 260:.\DSP\Source\ComplexMathFunctions/arm_cmplx_dot_prod_f32.c ****   {
 261:.\DSP\Source\ComplexMathFunctions/arm_cmplx_dot_prod_f32.c ****     a0 = *pSrcA++;
 262:.\DSP\Source\ComplexMathFunctions/arm_cmplx_dot_prod_f32.c ****     b0 = *pSrcA++;
 263:.\DSP\Source\ComplexMathFunctions/arm_cmplx_dot_prod_f32.c ****     c0 = *pSrcB++;
 264:.\DSP\Source\ComplexMathFunctions/arm_cmplx_dot_prod_f32.c ****     d0 = *pSrcB++;
 265:.\DSP\Source\ComplexMathFunctions/arm_cmplx_dot_prod_f32.c **** 
 266:.\DSP\Source\ComplexMathFunctions/arm_cmplx_dot_prod_f32.c ****     real_sum += a0 * c0;
 267:.\DSP\Source\ComplexMathFunctions/arm_cmplx_dot_prod_f32.c ****     imag_sum += a0 * d0;
 268:.\DSP\Source\ComplexMathFunctions/arm_cmplx_dot_prod_f32.c ****     real_sum -= b0 * d0;
 269:.\DSP\Source\ComplexMathFunctions/arm_cmplx_dot_prod_f32.c ****     imag_sum += b0 * c0;
 270:.\DSP\Source\ComplexMathFunctions/arm_cmplx_dot_prod_f32.c **** 
 271:.\DSP\Source\ComplexMathFunctions/arm_cmplx_dot_prod_f32.c ****     a0 = *pSrcA++;
 272:.\DSP\Source\ComplexMathFunctions/arm_cmplx_dot_prod_f32.c ****     b0 = *pSrcA++;
 273:.\DSP\Source\ComplexMathFunctions/arm_cmplx_dot_prod_f32.c ****     c0 = *pSrcB++;
 274:.\DSP\Source\ComplexMathFunctions/arm_cmplx_dot_prod_f32.c ****     d0 = *pSrcB++;
 275:.\DSP\Source\ComplexMathFunctions/arm_cmplx_dot_prod_f32.c **** 
 276:.\DSP\Source\ComplexMathFunctions/arm_cmplx_dot_prod_f32.c ****     real_sum += a0 * c0;
 277:.\DSP\Source\ComplexMathFunctions/arm_cmplx_dot_prod_f32.c ****     imag_sum += a0 * d0;
 278:.\DSP\Source\ComplexMathFunctions/arm_cmplx_dot_prod_f32.c ****     real_sum -= b0 * d0;
 279:.\DSP\Source\ComplexMathFunctions/arm_cmplx_dot_prod_f32.c ****     imag_sum += b0 * c0;
 280:.\DSP\Source\ComplexMathFunctions/arm_cmplx_dot_prod_f32.c **** 
 281:.\DSP\Source\ComplexMathFunctions/arm_cmplx_dot_prod_f32.c ****     a0 = *pSrcA++;
 282:.\DSP\Source\ComplexMathFunctions/arm_cmplx_dot_prod_f32.c ****     b0 = *pSrcA++;
 283:.\DSP\Source\ComplexMathFunctions/arm_cmplx_dot_prod_f32.c ****     c0 = *pSrcB++;
 284:.\DSP\Source\ComplexMathFunctions/arm_cmplx_dot_prod_f32.c ****     d0 = *pSrcB++;
 285:.\DSP\Source\ComplexMathFunctions/arm_cmplx_dot_prod_f32.c **** 
 286:.\DSP\Source\ComplexMathFunctions/arm_cmplx_dot_prod_f32.c ****     real_sum += a0 * c0;
 287:.\DSP\Source\ComplexMathFunctions/arm_cmplx_dot_prod_f32.c ****     imag_sum += a0 * d0;
ARM GAS  C:\Users\IVYLIU~1\AppData\Local\Temp\ccnpFvRb.s 			page 21


 288:.\DSP\Source\ComplexMathFunctions/arm_cmplx_dot_prod_f32.c ****     real_sum -= b0 * d0;
 289:.\DSP\Source\ComplexMathFunctions/arm_cmplx_dot_prod_f32.c ****     imag_sum += b0 * c0;
 290:.\DSP\Source\ComplexMathFunctions/arm_cmplx_dot_prod_f32.c **** 
 291:.\DSP\Source\ComplexMathFunctions/arm_cmplx_dot_prod_f32.c ****     a0 = *pSrcA++;
 292:.\DSP\Source\ComplexMathFunctions/arm_cmplx_dot_prod_f32.c ****     b0 = *pSrcA++;
 293:.\DSP\Source\ComplexMathFunctions/arm_cmplx_dot_prod_f32.c ****     c0 = *pSrcB++;
 294:.\DSP\Source\ComplexMathFunctions/arm_cmplx_dot_prod_f32.c ****     d0 = *pSrcB++;
 295:.\DSP\Source\ComplexMathFunctions/arm_cmplx_dot_prod_f32.c **** 
 296:.\DSP\Source\ComplexMathFunctions/arm_cmplx_dot_prod_f32.c ****     real_sum += a0 * c0;
 297:.\DSP\Source\ComplexMathFunctions/arm_cmplx_dot_prod_f32.c ****     imag_sum += a0 * d0;
 298:.\DSP\Source\ComplexMathFunctions/arm_cmplx_dot_prod_f32.c ****     real_sum -= b0 * d0;
 299:.\DSP\Source\ComplexMathFunctions/arm_cmplx_dot_prod_f32.c ****     imag_sum += b0 * c0;
 300:.\DSP\Source\ComplexMathFunctions/arm_cmplx_dot_prod_f32.c **** 
 301:.\DSP\Source\ComplexMathFunctions/arm_cmplx_dot_prod_f32.c ****     /* Decrement loop counter */
 302:.\DSP\Source\ComplexMathFunctions/arm_cmplx_dot_prod_f32.c ****     blkCnt--;
 303:.\DSP\Source\ComplexMathFunctions/arm_cmplx_dot_prod_f32.c ****   }
 304:.\DSP\Source\ComplexMathFunctions/arm_cmplx_dot_prod_f32.c **** 
 305:.\DSP\Source\ComplexMathFunctions/arm_cmplx_dot_prod_f32.c ****   /* Loop unrolling: Compute remaining outputs */
 306:.\DSP\Source\ComplexMathFunctions/arm_cmplx_dot_prod_f32.c ****   blkCnt = numSamples % 0x4U;
 307:.\DSP\Source\ComplexMathFunctions/arm_cmplx_dot_prod_f32.c **** 
 308:.\DSP\Source\ComplexMathFunctions/arm_cmplx_dot_prod_f32.c **** #else
 309:.\DSP\Source\ComplexMathFunctions/arm_cmplx_dot_prod_f32.c **** 
 310:.\DSP\Source\ComplexMathFunctions/arm_cmplx_dot_prod_f32.c ****   /* Initialize blkCnt with number of samples */
 311:.\DSP\Source\ComplexMathFunctions/arm_cmplx_dot_prod_f32.c ****   blkCnt = numSamples;
 312:.\DSP\Source\ComplexMathFunctions/arm_cmplx_dot_prod_f32.c **** 
 313:.\DSP\Source\ComplexMathFunctions/arm_cmplx_dot_prod_f32.c **** #endif /* #if defined (ARM_MATH_LOOPUNROLL) */
 314:.\DSP\Source\ComplexMathFunctions/arm_cmplx_dot_prod_f32.c **** #endif /* #if defined(ARM_MATH_NEON) */
 315:.\DSP\Source\ComplexMathFunctions/arm_cmplx_dot_prod_f32.c **** 
 316:.\DSP\Source\ComplexMathFunctions/arm_cmplx_dot_prod_f32.c ****   while (blkCnt > 0U)
 248              		.loc 4 316 0
 249 0010 2DE0     		b	.L18
 250              	.LVL27:
 251              	.L19:
 317:.\DSP\Source\ComplexMathFunctions/arm_cmplx_dot_prod_f32.c ****   {
 318:.\DSP\Source\ComplexMathFunctions/arm_cmplx_dot_prod_f32.c ****     a0 = *pSrcA++;
 252              		.loc 4 318 0
 253 0012 0446     		mov	r4, r0
 254 0014 54F808AB 		ldr	r10, [r4], #8	@ float
 255              	.LVL28:
 319:.\DSP\Source\ComplexMathFunctions/arm_cmplx_dot_prod_f32.c ****     b0 = *pSrcA++;
 256              		.loc 4 319 0
 257 0018 D0F80480 		ldr	r8, [r0, #4]	@ float
 258              	.LVL29:
 320:.\DSP\Source\ComplexMathFunctions/arm_cmplx_dot_prod_f32.c ****     c0 = *pSrcB++;
 259              		.loc 4 320 0
 260 001c 0D46     		mov	r5, r1
 261 001e 55F8087B 		ldr	r7, [r5], #8	@ float
 262              	.LVL30:
 321:.\DSP\Source\ComplexMathFunctions/arm_cmplx_dot_prod_f32.c ****     d0 = *pSrcB++;
 263              		.loc 4 321 0
 264 0022 D1F80490 		ldr	r9, [r1, #4]	@ float
 265              	.LVL31:
 322:.\DSP\Source\ComplexMathFunctions/arm_cmplx_dot_prod_f32.c **** 
 323:.\DSP\Source\ComplexMathFunctions/arm_cmplx_dot_prod_f32.c ****     real_sum += a0 * c0;
 266              		.loc 4 323 0
 267 0026 5046     		mov	r0, r10
 268 0028 3946     		mov	r1, r7
ARM GAS  C:\Users\IVYLIU~1\AppData\Local\Temp\ccnpFvRb.s 			page 22


 269 002a FFF7FEFF 		bl	__aeabi_fmul
 270              	.LVL32:
 271 002e 5946     		mov	r1, fp
 272 0030 FFF7FEFF 		bl	__aeabi_fadd
 273              	.LVL33:
 274 0034 8346     		mov	fp, r0
 275              	.LVL34:
 324:.\DSP\Source\ComplexMathFunctions/arm_cmplx_dot_prod_f32.c ****     imag_sum += a0 * d0;
 276              		.loc 4 324 0
 277 0036 5046     		mov	r0, r10
 278              	.LVL35:
 279 0038 4946     		mov	r1, r9
 280 003a FFF7FEFF 		bl	__aeabi_fmul
 281              	.LVL36:
 282 003e 0099     		ldr	r1, [sp]	@ float
 283 0040 FFF7FEFF 		bl	__aeabi_fadd
 284              	.LVL37:
 285 0044 8246     		mov	r10, r0
 286              	.LVL38:
 325:.\DSP\Source\ComplexMathFunctions/arm_cmplx_dot_prod_f32.c ****     real_sum -= b0 * d0;
 287              		.loc 4 325 0
 288 0046 4046     		mov	r0, r8
 289              	.LVL39:
 290 0048 4946     		mov	r1, r9
 291 004a FFF7FEFF 		bl	__aeabi_fmul
 292              	.LVL40:
 293 004e 0146     		mov	r1, r0
 294 0050 5846     		mov	r0, fp
 295 0052 FFF7FEFF 		bl	__aeabi_fsub
 296              	.LVL41:
 297 0056 8346     		mov	fp, r0
 298              	.LVL42:
 326:.\DSP\Source\ComplexMathFunctions/arm_cmplx_dot_prod_f32.c ****     imag_sum += b0 * c0;
 299              		.loc 4 326 0
 300 0058 4046     		mov	r0, r8
 301              	.LVL43:
 302 005a 3946     		mov	r1, r7
 303 005c FFF7FEFF 		bl	__aeabi_fmul
 304              	.LVL44:
 305 0060 5146     		mov	r1, r10
 306 0062 FFF7FEFF 		bl	__aeabi_fadd
 307              	.LVL45:
 308 0066 0090     		str	r0, [sp]	@ float
 309              	.LVL46:
 327:.\DSP\Source\ComplexMathFunctions/arm_cmplx_dot_prod_f32.c **** 
 328:.\DSP\Source\ComplexMathFunctions/arm_cmplx_dot_prod_f32.c ****     /* Decrement loop counter */
 329:.\DSP\Source\ComplexMathFunctions/arm_cmplx_dot_prod_f32.c ****     blkCnt--;
 310              		.loc 4 329 0
 311 0068 013E     		subs	r6, r6, #1
 312              	.LVL47:
 321:.\DSP\Source\ComplexMathFunctions/arm_cmplx_dot_prod_f32.c **** 
 313              		.loc 4 321 0
 314 006a 2946     		mov	r1, r5
 319:.\DSP\Source\ComplexMathFunctions/arm_cmplx_dot_prod_f32.c ****     c0 = *pSrcB++;
 315              		.loc 4 319 0
 316 006c 2046     		mov	r0, r4
 317              	.LVL48:
ARM GAS  C:\Users\IVYLIU~1\AppData\Local\Temp\ccnpFvRb.s 			page 23


 318              	.L18:
 316:.\DSP\Source\ComplexMathFunctions/arm_cmplx_dot_prod_f32.c ****   {
 319              		.loc 4 316 0
 320 006e 002E     		cmp	r6, #0
 321 0070 CFD1     		bne	.L19
 330:.\DSP\Source\ComplexMathFunctions/arm_cmplx_dot_prod_f32.c ****   }
 331:.\DSP\Source\ComplexMathFunctions/arm_cmplx_dot_prod_f32.c **** 
 332:.\DSP\Source\ComplexMathFunctions/arm_cmplx_dot_prod_f32.c ****   /* Store real and imaginary result in destination buffer. */
 333:.\DSP\Source\ComplexMathFunctions/arm_cmplx_dot_prod_f32.c ****   *realResult = real_sum;
 322              		.loc 4 333 0
 323 0072 019B     		ldr	r3, [sp, #4]
 324 0074 C3F800B0 		str	fp, [r3]	@ float
 334:.\DSP\Source\ComplexMathFunctions/arm_cmplx_dot_prod_f32.c ****   *imagResult = imag_sum;
 325              		.loc 4 334 0
 326 0078 0C9B     		ldr	r3, [sp, #48]
 327 007a 009A     		ldr	r2, [sp]	@ float
 328 007c 1A60     		str	r2, [r3]	@ float
 335:.\DSP\Source\ComplexMathFunctions/arm_cmplx_dot_prod_f32.c **** }
 329              		.loc 4 335 0
 330 007e 03B0     		add	sp, sp, #12
 331              		.cfi_def_cfa_offset 36
 332              	.LVL49:
 333              		@ sp needed
 334 0080 BDE8F08F 		pop	{r4, r5, r6, r7, r8, r9, r10, fp, pc}
 335              		.cfi_endproc
 336              	.LFE87:
 337              		.size	arm_cmplx_dot_prod_f32, .-arm_cmplx_dot_prod_f32
 338              		.section	.text.arm_cmplx_dot_prod_q15,"ax",%progbits
 339              		.align	2
 340              		.global	arm_cmplx_dot_prod_q15
 341              		.thumb
 342              		.thumb_func
 343              		.type	arm_cmplx_dot_prod_q15, %function
 344              	arm_cmplx_dot_prod_q15:
 345              	.LFB88:
 346              		.file 5 ".\\DSP\\Source\\ComplexMathFunctions\\arm_cmplx_dot_prod_q15.c"
   1:.\DSP\Source\ComplexMathFunctions/arm_cmplx_dot_prod_q15.c **** /* ----------------------------------------------------------------------
   2:.\DSP\Source\ComplexMathFunctions/arm_cmplx_dot_prod_q15.c ****  * Project:      CMSIS DSP Library
   3:.\DSP\Source\ComplexMathFunctions/arm_cmplx_dot_prod_q15.c ****  * Title:        arm_cmplx_dot_prod_q15.c
   4:.\DSP\Source\ComplexMathFunctions/arm_cmplx_dot_prod_q15.c ****  * Description:  Processing function for the Q15 Complex Dot product
   5:.\DSP\Source\ComplexMathFunctions/arm_cmplx_dot_prod_q15.c ****  *
   6:.\DSP\Source\ComplexMathFunctions/arm_cmplx_dot_prod_q15.c ****  * $Date:        23 April 2021
   7:.\DSP\Source\ComplexMathFunctions/arm_cmplx_dot_prod_q15.c ****  * $Revision:    V1.9.0
   8:.\DSP\Source\ComplexMathFunctions/arm_cmplx_dot_prod_q15.c ****  *
   9:.\DSP\Source\ComplexMathFunctions/arm_cmplx_dot_prod_q15.c ****  * Target Processor: Cortex-M and Cortex-A cores
  10:.\DSP\Source\ComplexMathFunctions/arm_cmplx_dot_prod_q15.c ****  * -------------------------------------------------------------------- */
  11:.\DSP\Source\ComplexMathFunctions/arm_cmplx_dot_prod_q15.c **** /*
  12:.\DSP\Source\ComplexMathFunctions/arm_cmplx_dot_prod_q15.c ****  * Copyright (C) 2010-2021 ARM Limited or its affiliates. All rights reserved.
  13:.\DSP\Source\ComplexMathFunctions/arm_cmplx_dot_prod_q15.c ****  *
  14:.\DSP\Source\ComplexMathFunctions/arm_cmplx_dot_prod_q15.c ****  * SPDX-License-Identifier: Apache-2.0
  15:.\DSP\Source\ComplexMathFunctions/arm_cmplx_dot_prod_q15.c ****  *
  16:.\DSP\Source\ComplexMathFunctions/arm_cmplx_dot_prod_q15.c ****  * Licensed under the Apache License, Version 2.0 (the License); you may
  17:.\DSP\Source\ComplexMathFunctions/arm_cmplx_dot_prod_q15.c ****  * not use this file except in compliance with the License.
  18:.\DSP\Source\ComplexMathFunctions/arm_cmplx_dot_prod_q15.c ****  * You may obtain a copy of the License at
  19:.\DSP\Source\ComplexMathFunctions/arm_cmplx_dot_prod_q15.c ****  *
  20:.\DSP\Source\ComplexMathFunctions/arm_cmplx_dot_prod_q15.c ****  * www.apache.org/licenses/LICENSE-2.0
  21:.\DSP\Source\ComplexMathFunctions/arm_cmplx_dot_prod_q15.c ****  *
ARM GAS  C:\Users\IVYLIU~1\AppData\Local\Temp\ccnpFvRb.s 			page 24


  22:.\DSP\Source\ComplexMathFunctions/arm_cmplx_dot_prod_q15.c ****  * Unless required by applicable law or agreed to in writing, software
  23:.\DSP\Source\ComplexMathFunctions/arm_cmplx_dot_prod_q15.c ****  * distributed under the License is distributed on an AS IS BASIS, WITHOUT
  24:.\DSP\Source\ComplexMathFunctions/arm_cmplx_dot_prod_q15.c ****  * WARRANTIES OR CONDITIONS OF ANY KIND, either express or implied.
  25:.\DSP\Source\ComplexMathFunctions/arm_cmplx_dot_prod_q15.c ****  * See the License for the specific language governing permissions and
  26:.\DSP\Source\ComplexMathFunctions/arm_cmplx_dot_prod_q15.c ****  * limitations under the License.
  27:.\DSP\Source\ComplexMathFunctions/arm_cmplx_dot_prod_q15.c ****  */
  28:.\DSP\Source\ComplexMathFunctions/arm_cmplx_dot_prod_q15.c **** 
  29:.\DSP\Source\ComplexMathFunctions/arm_cmplx_dot_prod_q15.c **** #include "dsp/complex_math_functions.h"
  30:.\DSP\Source\ComplexMathFunctions/arm_cmplx_dot_prod_q15.c **** 
  31:.\DSP\Source\ComplexMathFunctions/arm_cmplx_dot_prod_q15.c **** /**
  32:.\DSP\Source\ComplexMathFunctions/arm_cmplx_dot_prod_q15.c ****   @ingroup groupCmplxMath
  33:.\DSP\Source\ComplexMathFunctions/arm_cmplx_dot_prod_q15.c ****  */
  34:.\DSP\Source\ComplexMathFunctions/arm_cmplx_dot_prod_q15.c **** 
  35:.\DSP\Source\ComplexMathFunctions/arm_cmplx_dot_prod_q15.c **** /**
  36:.\DSP\Source\ComplexMathFunctions/arm_cmplx_dot_prod_q15.c ****   @addtogroup cmplx_dot_prod
  37:.\DSP\Source\ComplexMathFunctions/arm_cmplx_dot_prod_q15.c ****   @{
  38:.\DSP\Source\ComplexMathFunctions/arm_cmplx_dot_prod_q15.c ****  */
  39:.\DSP\Source\ComplexMathFunctions/arm_cmplx_dot_prod_q15.c **** 
  40:.\DSP\Source\ComplexMathFunctions/arm_cmplx_dot_prod_q15.c **** /**
  41:.\DSP\Source\ComplexMathFunctions/arm_cmplx_dot_prod_q15.c ****   @brief         Q15 complex dot product.
  42:.\DSP\Source\ComplexMathFunctions/arm_cmplx_dot_prod_q15.c ****   @param[in]     pSrcA       points to the first input vector
  43:.\DSP\Source\ComplexMathFunctions/arm_cmplx_dot_prod_q15.c ****   @param[in]     pSrcB       points to the second input vector
  44:.\DSP\Source\ComplexMathFunctions/arm_cmplx_dot_prod_q15.c ****   @param[in]     numSamples  number of samples in each vector
  45:.\DSP\Source\ComplexMathFunctions/arm_cmplx_dot_prod_q15.c ****   @param[out]    realResult  real part of the result returned here
  46:.\DSP\Source\ComplexMathFunctions/arm_cmplx_dot_prod_q15.c ****   @param[out]    imagResult  imaginary part of the result returned her
  47:.\DSP\Source\ComplexMathFunctions/arm_cmplx_dot_prod_q15.c ****   @return        none
  48:.\DSP\Source\ComplexMathFunctions/arm_cmplx_dot_prod_q15.c **** 
  49:.\DSP\Source\ComplexMathFunctions/arm_cmplx_dot_prod_q15.c ****   @par           Scaling and Overflow Behavior
  50:.\DSP\Source\ComplexMathFunctions/arm_cmplx_dot_prod_q15.c ****                    The function is implemented using an internal 64-bit accumulator.
  51:.\DSP\Source\ComplexMathFunctions/arm_cmplx_dot_prod_q15.c ****                    The intermediate 1.15 by 1.15 multiplications are performed with full precision 
  52:.\DSP\Source\ComplexMathFunctions/arm_cmplx_dot_prod_q15.c ****                    These are accumulated in a 64-bit accumulator with 34.30 precision.
  53:.\DSP\Source\ComplexMathFunctions/arm_cmplx_dot_prod_q15.c ****                    As a final step, the accumulators are converted to 8.24 format.
  54:.\DSP\Source\ComplexMathFunctions/arm_cmplx_dot_prod_q15.c ****                    The return results <code>realResult</code> and <code>imagResult</code> are in 8.
  55:.\DSP\Source\ComplexMathFunctions/arm_cmplx_dot_prod_q15.c ****  */
  56:.\DSP\Source\ComplexMathFunctions/arm_cmplx_dot_prod_q15.c **** 
  57:.\DSP\Source\ComplexMathFunctions/arm_cmplx_dot_prod_q15.c **** #if defined(ARM_MATH_MVEI) && !defined(ARM_MATH_AUTOVECTORIZE)
  58:.\DSP\Source\ComplexMathFunctions/arm_cmplx_dot_prod_q15.c **** void arm_cmplx_dot_prod_q15(
  59:.\DSP\Source\ComplexMathFunctions/arm_cmplx_dot_prod_q15.c ****   const q15_t * pSrcA,
  60:.\DSP\Source\ComplexMathFunctions/arm_cmplx_dot_prod_q15.c ****   const q15_t * pSrcB,
  61:.\DSP\Source\ComplexMathFunctions/arm_cmplx_dot_prod_q15.c ****         uint32_t numSamples,
  62:.\DSP\Source\ComplexMathFunctions/arm_cmplx_dot_prod_q15.c ****         q31_t * realResult,
  63:.\DSP\Source\ComplexMathFunctions/arm_cmplx_dot_prod_q15.c ****         q31_t * imagResult)
  64:.\DSP\Source\ComplexMathFunctions/arm_cmplx_dot_prod_q15.c **** {
  65:.\DSP\Source\ComplexMathFunctions/arm_cmplx_dot_prod_q15.c ****     int32_t         blkCnt;
  66:.\DSP\Source\ComplexMathFunctions/arm_cmplx_dot_prod_q15.c ****     q63_t           accReal = 0LL;
  67:.\DSP\Source\ComplexMathFunctions/arm_cmplx_dot_prod_q15.c ****     q63_t           accImag = 0LL;
  68:.\DSP\Source\ComplexMathFunctions/arm_cmplx_dot_prod_q15.c ****     q15x8_t         vecSrcA, vecSrcB;
  69:.\DSP\Source\ComplexMathFunctions/arm_cmplx_dot_prod_q15.c ****     q15x8_t         vecSrcC, vecSrcD;
  70:.\DSP\Source\ComplexMathFunctions/arm_cmplx_dot_prod_q15.c **** 
  71:.\DSP\Source\ComplexMathFunctions/arm_cmplx_dot_prod_q15.c ****     blkCnt = (numSamples >> 3);
  72:.\DSP\Source\ComplexMathFunctions/arm_cmplx_dot_prod_q15.c ****     blkCnt -= 1;
  73:.\DSP\Source\ComplexMathFunctions/arm_cmplx_dot_prod_q15.c ****     if (blkCnt > 0) {
  74:.\DSP\Source\ComplexMathFunctions/arm_cmplx_dot_prod_q15.c ****         /* should give more freedom to generate stall free code */
  75:.\DSP\Source\ComplexMathFunctions/arm_cmplx_dot_prod_q15.c ****         vecSrcA = vld1q(pSrcA);
  76:.\DSP\Source\ComplexMathFunctions/arm_cmplx_dot_prod_q15.c ****         vecSrcB = vld1q(pSrcB);
  77:.\DSP\Source\ComplexMathFunctions/arm_cmplx_dot_prod_q15.c ****         pSrcA += 8;
  78:.\DSP\Source\ComplexMathFunctions/arm_cmplx_dot_prod_q15.c ****         pSrcB += 8;
ARM GAS  C:\Users\IVYLIU~1\AppData\Local\Temp\ccnpFvRb.s 			page 25


  79:.\DSP\Source\ComplexMathFunctions/arm_cmplx_dot_prod_q15.c **** 
  80:.\DSP\Source\ComplexMathFunctions/arm_cmplx_dot_prod_q15.c ****         while (blkCnt > 0) {
  81:.\DSP\Source\ComplexMathFunctions/arm_cmplx_dot_prod_q15.c **** 
  82:.\DSP\Source\ComplexMathFunctions/arm_cmplx_dot_prod_q15.c ****             accReal = vmlsldavaq(accReal, vecSrcA, vecSrcB);
  83:.\DSP\Source\ComplexMathFunctions/arm_cmplx_dot_prod_q15.c ****             vecSrcC = vld1q(pSrcA);
  84:.\DSP\Source\ComplexMathFunctions/arm_cmplx_dot_prod_q15.c ****             pSrcA += 8;
  85:.\DSP\Source\ComplexMathFunctions/arm_cmplx_dot_prod_q15.c **** 
  86:.\DSP\Source\ComplexMathFunctions/arm_cmplx_dot_prod_q15.c ****             accImag = vmlaldavaxq(accImag, vecSrcA, vecSrcB);
  87:.\DSP\Source\ComplexMathFunctions/arm_cmplx_dot_prod_q15.c ****             vecSrcD = vld1q(pSrcB);
  88:.\DSP\Source\ComplexMathFunctions/arm_cmplx_dot_prod_q15.c ****             pSrcB += 8;
  89:.\DSP\Source\ComplexMathFunctions/arm_cmplx_dot_prod_q15.c **** 
  90:.\DSP\Source\ComplexMathFunctions/arm_cmplx_dot_prod_q15.c ****             accReal = vmlsldavaq(accReal, vecSrcC, vecSrcD);
  91:.\DSP\Source\ComplexMathFunctions/arm_cmplx_dot_prod_q15.c ****             vecSrcA = vld1q(pSrcA);
  92:.\DSP\Source\ComplexMathFunctions/arm_cmplx_dot_prod_q15.c ****             pSrcA += 8;
  93:.\DSP\Source\ComplexMathFunctions/arm_cmplx_dot_prod_q15.c **** 
  94:.\DSP\Source\ComplexMathFunctions/arm_cmplx_dot_prod_q15.c ****             accImag = vmlaldavaxq(accImag, vecSrcC, vecSrcD);
  95:.\DSP\Source\ComplexMathFunctions/arm_cmplx_dot_prod_q15.c ****             vecSrcB = vld1q(pSrcB);
  96:.\DSP\Source\ComplexMathFunctions/arm_cmplx_dot_prod_q15.c ****             pSrcB += 8;
  97:.\DSP\Source\ComplexMathFunctions/arm_cmplx_dot_prod_q15.c ****             /*
  98:.\DSP\Source\ComplexMathFunctions/arm_cmplx_dot_prod_q15.c ****              * Decrement the blockSize loop counter
  99:.\DSP\Source\ComplexMathFunctions/arm_cmplx_dot_prod_q15.c ****              */
 100:.\DSP\Source\ComplexMathFunctions/arm_cmplx_dot_prod_q15.c ****             blkCnt--;
 101:.\DSP\Source\ComplexMathFunctions/arm_cmplx_dot_prod_q15.c ****         }
 102:.\DSP\Source\ComplexMathFunctions/arm_cmplx_dot_prod_q15.c **** 
 103:.\DSP\Source\ComplexMathFunctions/arm_cmplx_dot_prod_q15.c ****         /* process last elements out of the loop avoid the armclang breaking the SW pipeline */
 104:.\DSP\Source\ComplexMathFunctions/arm_cmplx_dot_prod_q15.c ****         accReal = vmlsldavaq(accReal, vecSrcA, vecSrcB);
 105:.\DSP\Source\ComplexMathFunctions/arm_cmplx_dot_prod_q15.c ****         vecSrcC = vld1q(pSrcA);
 106:.\DSP\Source\ComplexMathFunctions/arm_cmplx_dot_prod_q15.c **** 
 107:.\DSP\Source\ComplexMathFunctions/arm_cmplx_dot_prod_q15.c ****         accImag = vmlaldavaxq(accImag, vecSrcA, vecSrcB);
 108:.\DSP\Source\ComplexMathFunctions/arm_cmplx_dot_prod_q15.c ****         vecSrcD = vld1q(pSrcB);
 109:.\DSP\Source\ComplexMathFunctions/arm_cmplx_dot_prod_q15.c **** 
 110:.\DSP\Source\ComplexMathFunctions/arm_cmplx_dot_prod_q15.c ****         accReal = vmlsldavaq(accReal, vecSrcC, vecSrcD);
 111:.\DSP\Source\ComplexMathFunctions/arm_cmplx_dot_prod_q15.c ****         vecSrcA = vld1q(pSrcA);
 112:.\DSP\Source\ComplexMathFunctions/arm_cmplx_dot_prod_q15.c **** 
 113:.\DSP\Source\ComplexMathFunctions/arm_cmplx_dot_prod_q15.c ****         accImag = vmlaldavaxq(accImag, vecSrcC, vecSrcD);
 114:.\DSP\Source\ComplexMathFunctions/arm_cmplx_dot_prod_q15.c ****         vecSrcB = vld1q(pSrcB);
 115:.\DSP\Source\ComplexMathFunctions/arm_cmplx_dot_prod_q15.c **** 
 116:.\DSP\Source\ComplexMathFunctions/arm_cmplx_dot_prod_q15.c ****         /*
 117:.\DSP\Source\ComplexMathFunctions/arm_cmplx_dot_prod_q15.c ****          * tail
 118:.\DSP\Source\ComplexMathFunctions/arm_cmplx_dot_prod_q15.c ****          */
 119:.\DSP\Source\ComplexMathFunctions/arm_cmplx_dot_prod_q15.c ****         blkCnt = CMPLX_DIM * (numSamples & 7);
 120:.\DSP\Source\ComplexMathFunctions/arm_cmplx_dot_prod_q15.c ****         do {
 121:.\DSP\Source\ComplexMathFunctions/arm_cmplx_dot_prod_q15.c ****             mve_pred16_t    p = vctp16q(blkCnt);
 122:.\DSP\Source\ComplexMathFunctions/arm_cmplx_dot_prod_q15.c **** 
 123:.\DSP\Source\ComplexMathFunctions/arm_cmplx_dot_prod_q15.c ****             pSrcA += 8;
 124:.\DSP\Source\ComplexMathFunctions/arm_cmplx_dot_prod_q15.c ****             pSrcB += 8;
 125:.\DSP\Source\ComplexMathFunctions/arm_cmplx_dot_prod_q15.c **** 
 126:.\DSP\Source\ComplexMathFunctions/arm_cmplx_dot_prod_q15.c ****             vecSrcA = vldrhq_z_s16(pSrcA, p);
 127:.\DSP\Source\ComplexMathFunctions/arm_cmplx_dot_prod_q15.c ****             vecSrcB = vldrhq_z_s16(pSrcB, p);
 128:.\DSP\Source\ComplexMathFunctions/arm_cmplx_dot_prod_q15.c **** 
 129:.\DSP\Source\ComplexMathFunctions/arm_cmplx_dot_prod_q15.c ****             accReal = vmlsldavaq_p(accReal, vecSrcA, vecSrcB, p);
 130:.\DSP\Source\ComplexMathFunctions/arm_cmplx_dot_prod_q15.c ****             accImag = vmlaldavaxq_p(accImag, vecSrcA, vecSrcB, p);
 131:.\DSP\Source\ComplexMathFunctions/arm_cmplx_dot_prod_q15.c **** 
 132:.\DSP\Source\ComplexMathFunctions/arm_cmplx_dot_prod_q15.c ****             blkCnt -= 8;
 133:.\DSP\Source\ComplexMathFunctions/arm_cmplx_dot_prod_q15.c ****         }
 134:.\DSP\Source\ComplexMathFunctions/arm_cmplx_dot_prod_q15.c ****         while ((int32_t) blkCnt > 0);
 135:.\DSP\Source\ComplexMathFunctions/arm_cmplx_dot_prod_q15.c ****     } else {
ARM GAS  C:\Users\IVYLIU~1\AppData\Local\Temp\ccnpFvRb.s 			page 26


 136:.\DSP\Source\ComplexMathFunctions/arm_cmplx_dot_prod_q15.c ****         blkCnt = numSamples * CMPLX_DIM;
 137:.\DSP\Source\ComplexMathFunctions/arm_cmplx_dot_prod_q15.c ****         while (blkCnt > 0) {
 138:.\DSP\Source\ComplexMathFunctions/arm_cmplx_dot_prod_q15.c ****             mve_pred16_t    p = vctp16q(blkCnt);
 139:.\DSP\Source\ComplexMathFunctions/arm_cmplx_dot_prod_q15.c **** 
 140:.\DSP\Source\ComplexMathFunctions/arm_cmplx_dot_prod_q15.c ****             vecSrcA = vldrhq_z_s16(pSrcA, p);
 141:.\DSP\Source\ComplexMathFunctions/arm_cmplx_dot_prod_q15.c ****             vecSrcB = vldrhq_z_s16(pSrcB, p);
 142:.\DSP\Source\ComplexMathFunctions/arm_cmplx_dot_prod_q15.c **** 
 143:.\DSP\Source\ComplexMathFunctions/arm_cmplx_dot_prod_q15.c ****             accReal = vmlsldavaq_p(accReal, vecSrcA, vecSrcB, p);
 144:.\DSP\Source\ComplexMathFunctions/arm_cmplx_dot_prod_q15.c ****             accImag = vmlaldavaxq_p(accImag, vecSrcA, vecSrcB, p);
 145:.\DSP\Source\ComplexMathFunctions/arm_cmplx_dot_prod_q15.c **** 
 146:.\DSP\Source\ComplexMathFunctions/arm_cmplx_dot_prod_q15.c ****             /*
 147:.\DSP\Source\ComplexMathFunctions/arm_cmplx_dot_prod_q15.c ****              * Decrement the blkCnt loop counter
 148:.\DSP\Source\ComplexMathFunctions/arm_cmplx_dot_prod_q15.c ****              * Advance vector source and destination pointers
 149:.\DSP\Source\ComplexMathFunctions/arm_cmplx_dot_prod_q15.c ****              */
 150:.\DSP\Source\ComplexMathFunctions/arm_cmplx_dot_prod_q15.c ****             pSrcA += 8;
 151:.\DSP\Source\ComplexMathFunctions/arm_cmplx_dot_prod_q15.c ****             pSrcB += 8;
 152:.\DSP\Source\ComplexMathFunctions/arm_cmplx_dot_prod_q15.c ****             blkCnt -= 8;
 153:.\DSP\Source\ComplexMathFunctions/arm_cmplx_dot_prod_q15.c ****         }
 154:.\DSP\Source\ComplexMathFunctions/arm_cmplx_dot_prod_q15.c ****     }
 155:.\DSP\Source\ComplexMathFunctions/arm_cmplx_dot_prod_q15.c ****     *realResult = asrl(accReal, (14 - 8));
 156:.\DSP\Source\ComplexMathFunctions/arm_cmplx_dot_prod_q15.c ****     *imagResult = asrl(accImag, (14 - 8));
 157:.\DSP\Source\ComplexMathFunctions/arm_cmplx_dot_prod_q15.c **** }
 158:.\DSP\Source\ComplexMathFunctions/arm_cmplx_dot_prod_q15.c **** #else
 159:.\DSP\Source\ComplexMathFunctions/arm_cmplx_dot_prod_q15.c **** void arm_cmplx_dot_prod_q15(
 160:.\DSP\Source\ComplexMathFunctions/arm_cmplx_dot_prod_q15.c ****   const q15_t * pSrcA,
 161:.\DSP\Source\ComplexMathFunctions/arm_cmplx_dot_prod_q15.c ****   const q15_t * pSrcB,
 162:.\DSP\Source\ComplexMathFunctions/arm_cmplx_dot_prod_q15.c ****         uint32_t numSamples,
 163:.\DSP\Source\ComplexMathFunctions/arm_cmplx_dot_prod_q15.c ****         q31_t * realResult,
 164:.\DSP\Source\ComplexMathFunctions/arm_cmplx_dot_prod_q15.c ****         q31_t * imagResult)
 165:.\DSP\Source\ComplexMathFunctions/arm_cmplx_dot_prod_q15.c **** {
 347              		.loc 5 165 0
 348              		.cfi_startproc
 349              		@ args = 4, pretend = 0, frame = 0
 350              		@ frame_needed = 0, uses_anonymous_args = 0
 351              	.LVL50:
 352 0000 2DE9F047 		push	{r4, r5, r6, r7, r8, r9, r10, lr}
 353              		.cfi_def_cfa_offset 32
 354              		.cfi_offset 4, -32
 355              		.cfi_offset 5, -28
 356              		.cfi_offset 6, -24
 357              		.cfi_offset 7, -20
 358              		.cfi_offset 8, -16
 359              		.cfi_offset 9, -12
 360              		.cfi_offset 10, -8
 361              		.cfi_offset 14, -4
 362 0004 9A46     		mov	r10, r3
 363              	.LVL51:
 166:.\DSP\Source\ComplexMathFunctions/arm_cmplx_dot_prod_q15.c ****         uint32_t blkCnt;                               /* Loop counter */
 167:.\DSP\Source\ComplexMathFunctions/arm_cmplx_dot_prod_q15.c ****         q63_t real_sum = 0, imag_sum = 0;              /* Temporary result variables */
 364              		.loc 5 167 0
 365 0006 0026     		movs	r6, #0
 366 0008 0027     		movs	r7, #0
 367 000a B046     		mov	r8, r6
 368 000c B946     		mov	r9, r7
 168:.\DSP\Source\ComplexMathFunctions/arm_cmplx_dot_prod_q15.c ****         q15_t a0,b0,c0,d0;
 169:.\DSP\Source\ComplexMathFunctions/arm_cmplx_dot_prod_q15.c **** 
 170:.\DSP\Source\ComplexMathFunctions/arm_cmplx_dot_prod_q15.c **** #if defined (ARM_MATH_LOOPUNROLL)
ARM GAS  C:\Users\IVYLIU~1\AppData\Local\Temp\ccnpFvRb.s 			page 27


 171:.\DSP\Source\ComplexMathFunctions/arm_cmplx_dot_prod_q15.c ****   /* Loop unrolling: Compute 4 outputs at a time */
 172:.\DSP\Source\ComplexMathFunctions/arm_cmplx_dot_prod_q15.c ****   blkCnt = numSamples >> 2U;
 173:.\DSP\Source\ComplexMathFunctions/arm_cmplx_dot_prod_q15.c **** 
 174:.\DSP\Source\ComplexMathFunctions/arm_cmplx_dot_prod_q15.c ****   while (blkCnt > 0U)
 175:.\DSP\Source\ComplexMathFunctions/arm_cmplx_dot_prod_q15.c ****   {
 176:.\DSP\Source\ComplexMathFunctions/arm_cmplx_dot_prod_q15.c ****     a0 = *pSrcA++;
 177:.\DSP\Source\ComplexMathFunctions/arm_cmplx_dot_prod_q15.c ****     b0 = *pSrcA++;
 178:.\DSP\Source\ComplexMathFunctions/arm_cmplx_dot_prod_q15.c ****     c0 = *pSrcB++;
 179:.\DSP\Source\ComplexMathFunctions/arm_cmplx_dot_prod_q15.c ****     d0 = *pSrcB++;
 180:.\DSP\Source\ComplexMathFunctions/arm_cmplx_dot_prod_q15.c **** 
 181:.\DSP\Source\ComplexMathFunctions/arm_cmplx_dot_prod_q15.c ****     real_sum += (q31_t)a0 * c0;
 182:.\DSP\Source\ComplexMathFunctions/arm_cmplx_dot_prod_q15.c ****     imag_sum += (q31_t)a0 * d0;
 183:.\DSP\Source\ComplexMathFunctions/arm_cmplx_dot_prod_q15.c ****     real_sum -= (q31_t)b0 * d0;
 184:.\DSP\Source\ComplexMathFunctions/arm_cmplx_dot_prod_q15.c ****     imag_sum += (q31_t)b0 * c0;
 185:.\DSP\Source\ComplexMathFunctions/arm_cmplx_dot_prod_q15.c **** 
 186:.\DSP\Source\ComplexMathFunctions/arm_cmplx_dot_prod_q15.c ****     a0 = *pSrcA++;
 187:.\DSP\Source\ComplexMathFunctions/arm_cmplx_dot_prod_q15.c ****     b0 = *pSrcA++;
 188:.\DSP\Source\ComplexMathFunctions/arm_cmplx_dot_prod_q15.c ****     c0 = *pSrcB++;
 189:.\DSP\Source\ComplexMathFunctions/arm_cmplx_dot_prod_q15.c ****     d0 = *pSrcB++;
 190:.\DSP\Source\ComplexMathFunctions/arm_cmplx_dot_prod_q15.c **** 
 191:.\DSP\Source\ComplexMathFunctions/arm_cmplx_dot_prod_q15.c ****     real_sum += (q31_t)a0 * c0;
 192:.\DSP\Source\ComplexMathFunctions/arm_cmplx_dot_prod_q15.c ****     imag_sum += (q31_t)a0 * d0;
 193:.\DSP\Source\ComplexMathFunctions/arm_cmplx_dot_prod_q15.c ****     real_sum -= (q31_t)b0 * d0;
 194:.\DSP\Source\ComplexMathFunctions/arm_cmplx_dot_prod_q15.c ****     imag_sum += (q31_t)b0 * c0;
 195:.\DSP\Source\ComplexMathFunctions/arm_cmplx_dot_prod_q15.c **** 
 196:.\DSP\Source\ComplexMathFunctions/arm_cmplx_dot_prod_q15.c ****     a0 = *pSrcA++;
 197:.\DSP\Source\ComplexMathFunctions/arm_cmplx_dot_prod_q15.c ****     b0 = *pSrcA++;
 198:.\DSP\Source\ComplexMathFunctions/arm_cmplx_dot_prod_q15.c ****     c0 = *pSrcB++;
 199:.\DSP\Source\ComplexMathFunctions/arm_cmplx_dot_prod_q15.c ****     d0 = *pSrcB++;
 200:.\DSP\Source\ComplexMathFunctions/arm_cmplx_dot_prod_q15.c **** 
 201:.\DSP\Source\ComplexMathFunctions/arm_cmplx_dot_prod_q15.c ****     real_sum += (q31_t)a0 * c0;
 202:.\DSP\Source\ComplexMathFunctions/arm_cmplx_dot_prod_q15.c ****     imag_sum += (q31_t)a0 * d0;
 203:.\DSP\Source\ComplexMathFunctions/arm_cmplx_dot_prod_q15.c ****     real_sum -= (q31_t)b0 * d0;
 204:.\DSP\Source\ComplexMathFunctions/arm_cmplx_dot_prod_q15.c ****     imag_sum += (q31_t)b0 * c0;
 205:.\DSP\Source\ComplexMathFunctions/arm_cmplx_dot_prod_q15.c **** 
 206:.\DSP\Source\ComplexMathFunctions/arm_cmplx_dot_prod_q15.c ****     a0 = *pSrcA++;
 207:.\DSP\Source\ComplexMathFunctions/arm_cmplx_dot_prod_q15.c ****     b0 = *pSrcA++;
 208:.\DSP\Source\ComplexMathFunctions/arm_cmplx_dot_prod_q15.c ****     c0 = *pSrcB++;
 209:.\DSP\Source\ComplexMathFunctions/arm_cmplx_dot_prod_q15.c ****     d0 = *pSrcB++;
 210:.\DSP\Source\ComplexMathFunctions/arm_cmplx_dot_prod_q15.c **** 
 211:.\DSP\Source\ComplexMathFunctions/arm_cmplx_dot_prod_q15.c ****     real_sum += (q31_t)a0 * c0;
 212:.\DSP\Source\ComplexMathFunctions/arm_cmplx_dot_prod_q15.c ****     imag_sum += (q31_t)a0 * d0;
 213:.\DSP\Source\ComplexMathFunctions/arm_cmplx_dot_prod_q15.c ****     real_sum -= (q31_t)b0 * d0;
 214:.\DSP\Source\ComplexMathFunctions/arm_cmplx_dot_prod_q15.c ****     imag_sum += (q31_t)b0 * c0;
 215:.\DSP\Source\ComplexMathFunctions/arm_cmplx_dot_prod_q15.c **** 
 216:.\DSP\Source\ComplexMathFunctions/arm_cmplx_dot_prod_q15.c ****     /* Decrement loop counter */
 217:.\DSP\Source\ComplexMathFunctions/arm_cmplx_dot_prod_q15.c ****     blkCnt--;
 218:.\DSP\Source\ComplexMathFunctions/arm_cmplx_dot_prod_q15.c ****   }
 219:.\DSP\Source\ComplexMathFunctions/arm_cmplx_dot_prod_q15.c **** 
 220:.\DSP\Source\ComplexMathFunctions/arm_cmplx_dot_prod_q15.c ****   /* Loop unrolling: Compute remaining outputs */
 221:.\DSP\Source\ComplexMathFunctions/arm_cmplx_dot_prod_q15.c ****   blkCnt = numSamples % 0x4U;
 222:.\DSP\Source\ComplexMathFunctions/arm_cmplx_dot_prod_q15.c **** 
 223:.\DSP\Source\ComplexMathFunctions/arm_cmplx_dot_prod_q15.c **** #else
 224:.\DSP\Source\ComplexMathFunctions/arm_cmplx_dot_prod_q15.c **** 
 225:.\DSP\Source\ComplexMathFunctions/arm_cmplx_dot_prod_q15.c ****   /* Initialize blkCnt with number of samples */
 226:.\DSP\Source\ComplexMathFunctions/arm_cmplx_dot_prod_q15.c ****   blkCnt = numSamples;
 227:.\DSP\Source\ComplexMathFunctions/arm_cmplx_dot_prod_q15.c **** 
ARM GAS  C:\Users\IVYLIU~1\AppData\Local\Temp\ccnpFvRb.s 			page 28


 228:.\DSP\Source\ComplexMathFunctions/arm_cmplx_dot_prod_q15.c **** #endif /* #if defined (ARM_MATH_LOOPUNROLL) */
 229:.\DSP\Source\ComplexMathFunctions/arm_cmplx_dot_prod_q15.c **** 
 230:.\DSP\Source\ComplexMathFunctions/arm_cmplx_dot_prod_q15.c ****   while (blkCnt > 0U)
 369              		.loc 5 230 0
 370 000e 23E0     		b	.L22
 371              	.LVL52:
 372              	.L23:
 231:.\DSP\Source\ComplexMathFunctions/arm_cmplx_dot_prod_q15.c ****   {
 232:.\DSP\Source\ComplexMathFunctions/arm_cmplx_dot_prod_q15.c ****     a0 = *pSrcA++;
 373              		.loc 5 232 0
 374 0010 0346     		mov	r3, r0
 375              	.LVL53:
 233:.\DSP\Source\ComplexMathFunctions/arm_cmplx_dot_prod_q15.c ****     b0 = *pSrcA++;
 234:.\DSP\Source\ComplexMathFunctions/arm_cmplx_dot_prod_q15.c ****     c0 = *pSrcB++;
 376              		.loc 5 234 0
 377 0012 0C46     		mov	r4, r1
 378              	.LVL54:
 235:.\DSP\Source\ComplexMathFunctions/arm_cmplx_dot_prod_q15.c ****     d0 = *pSrcB++;
 236:.\DSP\Source\ComplexMathFunctions/arm_cmplx_dot_prod_q15.c **** 
 237:.\DSP\Source\ComplexMathFunctions/arm_cmplx_dot_prod_q15.c ****     real_sum += (q31_t)a0 * c0;
 379              		.loc 5 237 0
 380 0014 33F904EB 		ldrsh	lr, [r3], #4
 381 0018 34F9045B 		ldrsh	r5, [r4], #4
 382 001c 05FB0EFC 		mul	ip, r5, lr
 383 0020 18EB0C08 		adds	r8, r8, ip
 384              	.LVL55:
 385 0024 49EBEC79 		adc	r9, r9, ip, asr #31
 386              	.LVL56:
 238:.\DSP\Source\ComplexMathFunctions/arm_cmplx_dot_prod_q15.c ****     imag_sum += (q31_t)a0 * d0;
 387              		.loc 5 238 0
 388 0028 B1F90210 		ldrsh	r1, [r1, #2]
 389              	.LVL57:
 390 002c 01FB0EFE 		mul	lr, r1, lr
 391 0030 16EB0E06 		adds	r6, r6, lr
 392              	.LVL58:
 393 0034 47EBEE77 		adc	r7, r7, lr, asr #31
 394              	.LVL59:
 239:.\DSP\Source\ComplexMathFunctions/arm_cmplx_dot_prod_q15.c ****     real_sum -= (q31_t)b0 * d0;
 395              		.loc 5 239 0
 396 0038 B0F90200 		ldrsh	r0, [r0, #2]
 397              	.LVL60:
 398 003c 00FB01F1 		mul	r1, r0, r1
 399 0040 B8EB0108 		subs	r8, r8, r1
 400              	.LVL61:
 401 0044 69EBE179 		sbc	r9, r9, r1, asr #31
 402              	.LVL62:
 240:.\DSP\Source\ComplexMathFunctions/arm_cmplx_dot_prod_q15.c ****     imag_sum += (q31_t)b0 * c0;
 403              		.loc 5 240 0
 404 0048 00FB05F5 		mul	r5, r0, r5
 405 004c 7619     		adds	r6, r6, r5
 406              	.LVL63:
 407 004e 47EBE577 		adc	r7, r7, r5, asr #31
 408              	.LVL64:
 241:.\DSP\Source\ComplexMathFunctions/arm_cmplx_dot_prod_q15.c **** 
 242:.\DSP\Source\ComplexMathFunctions/arm_cmplx_dot_prod_q15.c ****     /* Decrement loop counter */
 243:.\DSP\Source\ComplexMathFunctions/arm_cmplx_dot_prod_q15.c ****     blkCnt--;
 409              		.loc 5 243 0
ARM GAS  C:\Users\IVYLIU~1\AppData\Local\Temp\ccnpFvRb.s 			page 29


 410 0052 013A     		subs	r2, r2, #1
 411              	.LVL65:
 235:.\DSP\Source\ComplexMathFunctions/arm_cmplx_dot_prod_q15.c **** 
 412              		.loc 5 235 0
 413 0054 2146     		mov	r1, r4
 233:.\DSP\Source\ComplexMathFunctions/arm_cmplx_dot_prod_q15.c ****     c0 = *pSrcB++;
 414              		.loc 5 233 0
 415 0056 1846     		mov	r0, r3
 416              	.LVL66:
 417              	.L22:
 230:.\DSP\Source\ComplexMathFunctions/arm_cmplx_dot_prod_q15.c ****   {
 418              		.loc 5 230 0
 419 0058 002A     		cmp	r2, #0
 420 005a D9D1     		bne	.L23
 244:.\DSP\Source\ComplexMathFunctions/arm_cmplx_dot_prod_q15.c ****   }
 245:.\DSP\Source\ComplexMathFunctions/arm_cmplx_dot_prod_q15.c **** 
 246:.\DSP\Source\ComplexMathFunctions/arm_cmplx_dot_prod_q15.c ****   /* Store real and imaginary result in 8.24 format  */
 247:.\DSP\Source\ComplexMathFunctions/arm_cmplx_dot_prod_q15.c ****   /* Convert real data in 34.30 to 8.24 by 6 right shifts */
 248:.\DSP\Source\ComplexMathFunctions/arm_cmplx_dot_prod_q15.c ****   *realResult = (q31_t) (real_sum >> 6);
 421              		.loc 5 248 0
 422 005c 4FEA9813 		lsr	r3, r8, #6
 423 0060 43EA8963 		orr	r3, r3, r9, lsl #26
 424 0064 CAF80030 		str	r3, [r10]
 249:.\DSP\Source\ComplexMathFunctions/arm_cmplx_dot_prod_q15.c ****   /* Convert imaginary data in 34.30 to 8.24 by 6 right shifts */
 250:.\DSP\Source\ComplexMathFunctions/arm_cmplx_dot_prod_q15.c ****   *imagResult = (q31_t) (imag_sum >> 6);
 425              		.loc 5 250 0
 426 0068 B309     		lsrs	r3, r6, #6
 427 006a 43EA8763 		orr	r3, r3, r7, lsl #26
 428 006e 089A     		ldr	r2, [sp, #32]
 429              	.LVL67:
 430 0070 1360     		str	r3, [r2]
 431 0072 BDE8F087 		pop	{r4, r5, r6, r7, r8, r9, r10, pc}
 432              		.cfi_endproc
 433              	.LFE88:
 434              		.size	arm_cmplx_dot_prod_q15, .-arm_cmplx_dot_prod_q15
 435 0076 00BF     		.section	.text.arm_cmplx_dot_prod_q31,"ax",%progbits
 436              		.align	2
 437              		.global	arm_cmplx_dot_prod_q31
 438              		.thumb
 439              		.thumb_func
 440              		.type	arm_cmplx_dot_prod_q31, %function
 441              	arm_cmplx_dot_prod_q31:
 442              	.LFB89:
 443              		.file 6 ".\\DSP\\Source\\ComplexMathFunctions\\arm_cmplx_dot_prod_q31.c"
   1:.\DSP\Source\ComplexMathFunctions/arm_cmplx_dot_prod_q31.c **** /* ----------------------------------------------------------------------
   2:.\DSP\Source\ComplexMathFunctions/arm_cmplx_dot_prod_q31.c ****  * Project:      CMSIS DSP Library
   3:.\DSP\Source\ComplexMathFunctions/arm_cmplx_dot_prod_q31.c ****  * Title:        arm_cmplx_dot_prod_q31.c
   4:.\DSP\Source\ComplexMathFunctions/arm_cmplx_dot_prod_q31.c ****  * Description:  Q31 complex dot product
   5:.\DSP\Source\ComplexMathFunctions/arm_cmplx_dot_prod_q31.c ****  *
   6:.\DSP\Source\ComplexMathFunctions/arm_cmplx_dot_prod_q31.c ****  * $Date:        23 April 2021
   7:.\DSP\Source\ComplexMathFunctions/arm_cmplx_dot_prod_q31.c ****  * $Revision:    V1.9.0
   8:.\DSP\Source\ComplexMathFunctions/arm_cmplx_dot_prod_q31.c ****  *
   9:.\DSP\Source\ComplexMathFunctions/arm_cmplx_dot_prod_q31.c ****  * Target Processor: Cortex-M and Cortex-A cores
  10:.\DSP\Source\ComplexMathFunctions/arm_cmplx_dot_prod_q31.c ****  * -------------------------------------------------------------------- */
  11:.\DSP\Source\ComplexMathFunctions/arm_cmplx_dot_prod_q31.c **** /*
  12:.\DSP\Source\ComplexMathFunctions/arm_cmplx_dot_prod_q31.c ****  * Copyright (C) 2010-2021 ARM Limited or its affiliates. All rights reserved.
  13:.\DSP\Source\ComplexMathFunctions/arm_cmplx_dot_prod_q31.c ****  *
ARM GAS  C:\Users\IVYLIU~1\AppData\Local\Temp\ccnpFvRb.s 			page 30


  14:.\DSP\Source\ComplexMathFunctions/arm_cmplx_dot_prod_q31.c ****  * SPDX-License-Identifier: Apache-2.0
  15:.\DSP\Source\ComplexMathFunctions/arm_cmplx_dot_prod_q31.c ****  *
  16:.\DSP\Source\ComplexMathFunctions/arm_cmplx_dot_prod_q31.c ****  * Licensed under the Apache License, Version 2.0 (the License); you may
  17:.\DSP\Source\ComplexMathFunctions/arm_cmplx_dot_prod_q31.c ****  * not use this file except in compliance with the License.
  18:.\DSP\Source\ComplexMathFunctions/arm_cmplx_dot_prod_q31.c ****  * You may obtain a copy of the License at
  19:.\DSP\Source\ComplexMathFunctions/arm_cmplx_dot_prod_q31.c ****  *
  20:.\DSP\Source\ComplexMathFunctions/arm_cmplx_dot_prod_q31.c ****  * www.apache.org/licenses/LICENSE-2.0
  21:.\DSP\Source\ComplexMathFunctions/arm_cmplx_dot_prod_q31.c ****  *
  22:.\DSP\Source\ComplexMathFunctions/arm_cmplx_dot_prod_q31.c ****  * Unless required by applicable law or agreed to in writing, software
  23:.\DSP\Source\ComplexMathFunctions/arm_cmplx_dot_prod_q31.c ****  * distributed under the License is distributed on an AS IS BASIS, WITHOUT
  24:.\DSP\Source\ComplexMathFunctions/arm_cmplx_dot_prod_q31.c ****  * WARRANTIES OR CONDITIONS OF ANY KIND, either express or implied.
  25:.\DSP\Source\ComplexMathFunctions/arm_cmplx_dot_prod_q31.c ****  * See the License for the specific language governing permissions and
  26:.\DSP\Source\ComplexMathFunctions/arm_cmplx_dot_prod_q31.c ****  * limitations under the License.
  27:.\DSP\Source\ComplexMathFunctions/arm_cmplx_dot_prod_q31.c ****  */
  28:.\DSP\Source\ComplexMathFunctions/arm_cmplx_dot_prod_q31.c **** 
  29:.\DSP\Source\ComplexMathFunctions/arm_cmplx_dot_prod_q31.c **** #include "dsp/complex_math_functions.h"
  30:.\DSP\Source\ComplexMathFunctions/arm_cmplx_dot_prod_q31.c **** 
  31:.\DSP\Source\ComplexMathFunctions/arm_cmplx_dot_prod_q31.c **** /**
  32:.\DSP\Source\ComplexMathFunctions/arm_cmplx_dot_prod_q31.c ****   @ingroup groupCmplxMath
  33:.\DSP\Source\ComplexMathFunctions/arm_cmplx_dot_prod_q31.c ****  */
  34:.\DSP\Source\ComplexMathFunctions/arm_cmplx_dot_prod_q31.c **** 
  35:.\DSP\Source\ComplexMathFunctions/arm_cmplx_dot_prod_q31.c **** /**
  36:.\DSP\Source\ComplexMathFunctions/arm_cmplx_dot_prod_q31.c ****   @addtogroup cmplx_dot_prod
  37:.\DSP\Source\ComplexMathFunctions/arm_cmplx_dot_prod_q31.c ****   @{
  38:.\DSP\Source\ComplexMathFunctions/arm_cmplx_dot_prod_q31.c ****  */
  39:.\DSP\Source\ComplexMathFunctions/arm_cmplx_dot_prod_q31.c **** 
  40:.\DSP\Source\ComplexMathFunctions/arm_cmplx_dot_prod_q31.c **** /**
  41:.\DSP\Source\ComplexMathFunctions/arm_cmplx_dot_prod_q31.c ****   @brief         Q31 complex dot product.
  42:.\DSP\Source\ComplexMathFunctions/arm_cmplx_dot_prod_q31.c ****   @param[in]     pSrcA       points to the first input vector
  43:.\DSP\Source\ComplexMathFunctions/arm_cmplx_dot_prod_q31.c ****   @param[in]     pSrcB       points to the second input vector
  44:.\DSP\Source\ComplexMathFunctions/arm_cmplx_dot_prod_q31.c ****   @param[in]     numSamples  number of samples in each vector
  45:.\DSP\Source\ComplexMathFunctions/arm_cmplx_dot_prod_q31.c ****   @param[out]    realResult  real part of the result returned here
  46:.\DSP\Source\ComplexMathFunctions/arm_cmplx_dot_prod_q31.c ****   @param[out]    imagResult  imaginary part of the result returned here
  47:.\DSP\Source\ComplexMathFunctions/arm_cmplx_dot_prod_q31.c ****   @return        none
  48:.\DSP\Source\ComplexMathFunctions/arm_cmplx_dot_prod_q31.c **** 
  49:.\DSP\Source\ComplexMathFunctions/arm_cmplx_dot_prod_q31.c ****   @par           Scaling and Overflow Behavior
  50:.\DSP\Source\ComplexMathFunctions/arm_cmplx_dot_prod_q31.c ****                    The function is implemented using an internal 64-bit accumulator.
  51:.\DSP\Source\ComplexMathFunctions/arm_cmplx_dot_prod_q31.c ****                    The intermediate 1.31 by 1.31 multiplications are performed with 64-bit precisio
  52:.\DSP\Source\ComplexMathFunctions/arm_cmplx_dot_prod_q31.c ****                    The internal real and imaginary accumulators are in 16.48 format and provide 15 
  53:.\DSP\Source\ComplexMathFunctions/arm_cmplx_dot_prod_q31.c ****                    Additions are nonsaturating and no overflow will occur as long as <code>numSampl
  54:.\DSP\Source\ComplexMathFunctions/arm_cmplx_dot_prod_q31.c ****                    The return results <code>realResult</code> and <code>imagResult</code> are in 16
  55:.\DSP\Source\ComplexMathFunctions/arm_cmplx_dot_prod_q31.c ****                    Input down scaling is not required.
  56:.\DSP\Source\ComplexMathFunctions/arm_cmplx_dot_prod_q31.c ****  */
  57:.\DSP\Source\ComplexMathFunctions/arm_cmplx_dot_prod_q31.c **** 
  58:.\DSP\Source\ComplexMathFunctions/arm_cmplx_dot_prod_q31.c **** #if defined(ARM_MATH_MVEI) && !defined(ARM_MATH_AUTOVECTORIZE)
  59:.\DSP\Source\ComplexMathFunctions/arm_cmplx_dot_prod_q31.c **** 
  60:.\DSP\Source\ComplexMathFunctions/arm_cmplx_dot_prod_q31.c **** void arm_cmplx_dot_prod_q31(
  61:.\DSP\Source\ComplexMathFunctions/arm_cmplx_dot_prod_q31.c ****   const q31_t * pSrcA,
  62:.\DSP\Source\ComplexMathFunctions/arm_cmplx_dot_prod_q31.c ****   const q31_t * pSrcB,
  63:.\DSP\Source\ComplexMathFunctions/arm_cmplx_dot_prod_q31.c ****         uint32_t numSamples,
  64:.\DSP\Source\ComplexMathFunctions/arm_cmplx_dot_prod_q31.c ****         q63_t * realResult,
  65:.\DSP\Source\ComplexMathFunctions/arm_cmplx_dot_prod_q31.c ****         q63_t * imagResult)
  66:.\DSP\Source\ComplexMathFunctions/arm_cmplx_dot_prod_q31.c **** {
  67:.\DSP\Source\ComplexMathFunctions/arm_cmplx_dot_prod_q31.c ****     int32_t         blkCnt;
  68:.\DSP\Source\ComplexMathFunctions/arm_cmplx_dot_prod_q31.c ****     q63_t           accReal = 0LL;
  69:.\DSP\Source\ComplexMathFunctions/arm_cmplx_dot_prod_q31.c ****     q63_t           accImag = 0LL;
  70:.\DSP\Source\ComplexMathFunctions/arm_cmplx_dot_prod_q31.c ****     q31x4_t         vecSrcA, vecSrcB;
ARM GAS  C:\Users\IVYLIU~1\AppData\Local\Temp\ccnpFvRb.s 			page 31


  71:.\DSP\Source\ComplexMathFunctions/arm_cmplx_dot_prod_q31.c ****     q31x4_t         vecSrcC, vecSrcD;
  72:.\DSP\Source\ComplexMathFunctions/arm_cmplx_dot_prod_q31.c **** 
  73:.\DSP\Source\ComplexMathFunctions/arm_cmplx_dot_prod_q31.c ****     blkCnt = numSamples >> 2;
  74:.\DSP\Source\ComplexMathFunctions/arm_cmplx_dot_prod_q31.c ****     blkCnt -= 1;
  75:.\DSP\Source\ComplexMathFunctions/arm_cmplx_dot_prod_q31.c ****     if (blkCnt > 0) {
  76:.\DSP\Source\ComplexMathFunctions/arm_cmplx_dot_prod_q31.c ****         /* should give more freedom to generate stall free code */
  77:.\DSP\Source\ComplexMathFunctions/arm_cmplx_dot_prod_q31.c ****         vecSrcA = vld1q(pSrcA);
  78:.\DSP\Source\ComplexMathFunctions/arm_cmplx_dot_prod_q31.c ****         vecSrcB = vld1q(pSrcB);
  79:.\DSP\Source\ComplexMathFunctions/arm_cmplx_dot_prod_q31.c ****         pSrcA += 4;
  80:.\DSP\Source\ComplexMathFunctions/arm_cmplx_dot_prod_q31.c ****         pSrcB += 4;
  81:.\DSP\Source\ComplexMathFunctions/arm_cmplx_dot_prod_q31.c **** 
  82:.\DSP\Source\ComplexMathFunctions/arm_cmplx_dot_prod_q31.c ****         while (blkCnt > 0) {
  83:.\DSP\Source\ComplexMathFunctions/arm_cmplx_dot_prod_q31.c **** 
  84:.\DSP\Source\ComplexMathFunctions/arm_cmplx_dot_prod_q31.c ****             accReal = vrmlsldavhaq(accReal, vecSrcA, vecSrcB);
  85:.\DSP\Source\ComplexMathFunctions/arm_cmplx_dot_prod_q31.c ****             vecSrcC = vld1q(pSrcA);
  86:.\DSP\Source\ComplexMathFunctions/arm_cmplx_dot_prod_q31.c ****             pSrcA += 4;
  87:.\DSP\Source\ComplexMathFunctions/arm_cmplx_dot_prod_q31.c **** 
  88:.\DSP\Source\ComplexMathFunctions/arm_cmplx_dot_prod_q31.c ****             accImag = vrmlaldavhaxq(accImag, vecSrcA, vecSrcB);
  89:.\DSP\Source\ComplexMathFunctions/arm_cmplx_dot_prod_q31.c ****             vecSrcD = vld1q(pSrcB);
  90:.\DSP\Source\ComplexMathFunctions/arm_cmplx_dot_prod_q31.c ****             pSrcB += 4;
  91:.\DSP\Source\ComplexMathFunctions/arm_cmplx_dot_prod_q31.c **** 
  92:.\DSP\Source\ComplexMathFunctions/arm_cmplx_dot_prod_q31.c ****             accReal = vrmlsldavhaq(accReal, vecSrcC, vecSrcD);
  93:.\DSP\Source\ComplexMathFunctions/arm_cmplx_dot_prod_q31.c ****             vecSrcA = vld1q(pSrcA);
  94:.\DSP\Source\ComplexMathFunctions/arm_cmplx_dot_prod_q31.c ****             pSrcA += 4;
  95:.\DSP\Source\ComplexMathFunctions/arm_cmplx_dot_prod_q31.c **** 
  96:.\DSP\Source\ComplexMathFunctions/arm_cmplx_dot_prod_q31.c ****             accImag = vrmlaldavhaxq(accImag, vecSrcC, vecSrcD);
  97:.\DSP\Source\ComplexMathFunctions/arm_cmplx_dot_prod_q31.c ****             vecSrcB = vld1q(pSrcB);
  98:.\DSP\Source\ComplexMathFunctions/arm_cmplx_dot_prod_q31.c ****             pSrcB += 4;
  99:.\DSP\Source\ComplexMathFunctions/arm_cmplx_dot_prod_q31.c ****             /*
 100:.\DSP\Source\ComplexMathFunctions/arm_cmplx_dot_prod_q31.c ****              * Decrement the blockSize loop counter
 101:.\DSP\Source\ComplexMathFunctions/arm_cmplx_dot_prod_q31.c ****              */
 102:.\DSP\Source\ComplexMathFunctions/arm_cmplx_dot_prod_q31.c ****             blkCnt--;
 103:.\DSP\Source\ComplexMathFunctions/arm_cmplx_dot_prod_q31.c ****         }
 104:.\DSP\Source\ComplexMathFunctions/arm_cmplx_dot_prod_q31.c **** 
 105:.\DSP\Source\ComplexMathFunctions/arm_cmplx_dot_prod_q31.c ****         /* process last elements out of the loop avoid the armclang breaking the SW pipeline */
 106:.\DSP\Source\ComplexMathFunctions/arm_cmplx_dot_prod_q31.c ****         accReal = vrmlsldavhaq(accReal, vecSrcA, vecSrcB);
 107:.\DSP\Source\ComplexMathFunctions/arm_cmplx_dot_prod_q31.c ****         vecSrcC = vld1q(pSrcA);
 108:.\DSP\Source\ComplexMathFunctions/arm_cmplx_dot_prod_q31.c **** 
 109:.\DSP\Source\ComplexMathFunctions/arm_cmplx_dot_prod_q31.c ****         accImag = vrmlaldavhaxq(accImag, vecSrcA, vecSrcB);
 110:.\DSP\Source\ComplexMathFunctions/arm_cmplx_dot_prod_q31.c ****         vecSrcD = vld1q(pSrcB);
 111:.\DSP\Source\ComplexMathFunctions/arm_cmplx_dot_prod_q31.c **** 
 112:.\DSP\Source\ComplexMathFunctions/arm_cmplx_dot_prod_q31.c ****         accReal = vrmlsldavhaq(accReal, vecSrcC, vecSrcD);
 113:.\DSP\Source\ComplexMathFunctions/arm_cmplx_dot_prod_q31.c ****         vecSrcA = vld1q(pSrcA);
 114:.\DSP\Source\ComplexMathFunctions/arm_cmplx_dot_prod_q31.c **** 
 115:.\DSP\Source\ComplexMathFunctions/arm_cmplx_dot_prod_q31.c ****         accImag = vrmlaldavhaxq(accImag, vecSrcC, vecSrcD);
 116:.\DSP\Source\ComplexMathFunctions/arm_cmplx_dot_prod_q31.c ****         vecSrcB = vld1q(pSrcB);
 117:.\DSP\Source\ComplexMathFunctions/arm_cmplx_dot_prod_q31.c **** 
 118:.\DSP\Source\ComplexMathFunctions/arm_cmplx_dot_prod_q31.c ****         /*
 119:.\DSP\Source\ComplexMathFunctions/arm_cmplx_dot_prod_q31.c ****          * tail
 120:.\DSP\Source\ComplexMathFunctions/arm_cmplx_dot_prod_q31.c ****          */
 121:.\DSP\Source\ComplexMathFunctions/arm_cmplx_dot_prod_q31.c ****         blkCnt = CMPLX_DIM * (numSamples & 3);
 122:.\DSP\Source\ComplexMathFunctions/arm_cmplx_dot_prod_q31.c ****         do {
 123:.\DSP\Source\ComplexMathFunctions/arm_cmplx_dot_prod_q31.c ****             mve_pred16_t    p = vctp32q(blkCnt);
 124:.\DSP\Source\ComplexMathFunctions/arm_cmplx_dot_prod_q31.c **** 
 125:.\DSP\Source\ComplexMathFunctions/arm_cmplx_dot_prod_q31.c ****             pSrcA += 4;
 126:.\DSP\Source\ComplexMathFunctions/arm_cmplx_dot_prod_q31.c ****             pSrcB += 4;
 127:.\DSP\Source\ComplexMathFunctions/arm_cmplx_dot_prod_q31.c **** 
ARM GAS  C:\Users\IVYLIU~1\AppData\Local\Temp\ccnpFvRb.s 			page 32


 128:.\DSP\Source\ComplexMathFunctions/arm_cmplx_dot_prod_q31.c ****             vecSrcA = vldrwq_z_s32(pSrcA, p);
 129:.\DSP\Source\ComplexMathFunctions/arm_cmplx_dot_prod_q31.c ****             vecSrcB = vldrwq_z_s32(pSrcB, p);
 130:.\DSP\Source\ComplexMathFunctions/arm_cmplx_dot_prod_q31.c **** 
 131:.\DSP\Source\ComplexMathFunctions/arm_cmplx_dot_prod_q31.c ****             accReal = vrmlsldavhaq_p(accReal, vecSrcA, vecSrcB, p);
 132:.\DSP\Source\ComplexMathFunctions/arm_cmplx_dot_prod_q31.c ****             accImag = vrmlaldavhaxq_p(accImag, vecSrcA, vecSrcB, p);
 133:.\DSP\Source\ComplexMathFunctions/arm_cmplx_dot_prod_q31.c **** 
 134:.\DSP\Source\ComplexMathFunctions/arm_cmplx_dot_prod_q31.c ****             blkCnt -= 4;
 135:.\DSP\Source\ComplexMathFunctions/arm_cmplx_dot_prod_q31.c ****         }
 136:.\DSP\Source\ComplexMathFunctions/arm_cmplx_dot_prod_q31.c ****         while ((int32_t) blkCnt > 0);
 137:.\DSP\Source\ComplexMathFunctions/arm_cmplx_dot_prod_q31.c ****     } else {
 138:.\DSP\Source\ComplexMathFunctions/arm_cmplx_dot_prod_q31.c ****         blkCnt = numSamples * CMPLX_DIM;
 139:.\DSP\Source\ComplexMathFunctions/arm_cmplx_dot_prod_q31.c ****         while (blkCnt > 0) {
 140:.\DSP\Source\ComplexMathFunctions/arm_cmplx_dot_prod_q31.c ****             mve_pred16_t    p = vctp32q(blkCnt);
 141:.\DSP\Source\ComplexMathFunctions/arm_cmplx_dot_prod_q31.c **** 
 142:.\DSP\Source\ComplexMathFunctions/arm_cmplx_dot_prod_q31.c ****             vecSrcA = vldrwq_z_s32(pSrcA, p);
 143:.\DSP\Source\ComplexMathFunctions/arm_cmplx_dot_prod_q31.c ****             vecSrcB = vldrwq_z_s32(pSrcB, p);
 144:.\DSP\Source\ComplexMathFunctions/arm_cmplx_dot_prod_q31.c **** 
 145:.\DSP\Source\ComplexMathFunctions/arm_cmplx_dot_prod_q31.c ****             accReal = vrmlsldavhaq_p(accReal, vecSrcA, vecSrcB, p);
 146:.\DSP\Source\ComplexMathFunctions/arm_cmplx_dot_prod_q31.c ****             accImag = vrmlaldavhaxq_p(accImag, vecSrcA, vecSrcB, p);
 147:.\DSP\Source\ComplexMathFunctions/arm_cmplx_dot_prod_q31.c **** 
 148:.\DSP\Source\ComplexMathFunctions/arm_cmplx_dot_prod_q31.c ****             /*
 149:.\DSP\Source\ComplexMathFunctions/arm_cmplx_dot_prod_q31.c ****              * Decrement the blkCnt loop counter
 150:.\DSP\Source\ComplexMathFunctions/arm_cmplx_dot_prod_q31.c ****              * Advance vector source and destination pointers
 151:.\DSP\Source\ComplexMathFunctions/arm_cmplx_dot_prod_q31.c ****              */
 152:.\DSP\Source\ComplexMathFunctions/arm_cmplx_dot_prod_q31.c ****             pSrcA += 4;
 153:.\DSP\Source\ComplexMathFunctions/arm_cmplx_dot_prod_q31.c ****             pSrcB += 4;
 154:.\DSP\Source\ComplexMathFunctions/arm_cmplx_dot_prod_q31.c ****             blkCnt -= 4;
 155:.\DSP\Source\ComplexMathFunctions/arm_cmplx_dot_prod_q31.c ****         }
 156:.\DSP\Source\ComplexMathFunctions/arm_cmplx_dot_prod_q31.c ****     }
 157:.\DSP\Source\ComplexMathFunctions/arm_cmplx_dot_prod_q31.c ****     *realResult = asrl(accReal, (14 - 8));
 158:.\DSP\Source\ComplexMathFunctions/arm_cmplx_dot_prod_q31.c ****     *imagResult = asrl(accImag, (14 - 8));
 159:.\DSP\Source\ComplexMathFunctions/arm_cmplx_dot_prod_q31.c **** 
 160:.\DSP\Source\ComplexMathFunctions/arm_cmplx_dot_prod_q31.c **** }
 161:.\DSP\Source\ComplexMathFunctions/arm_cmplx_dot_prod_q31.c **** 
 162:.\DSP\Source\ComplexMathFunctions/arm_cmplx_dot_prod_q31.c **** #else
 163:.\DSP\Source\ComplexMathFunctions/arm_cmplx_dot_prod_q31.c **** void arm_cmplx_dot_prod_q31(
 164:.\DSP\Source\ComplexMathFunctions/arm_cmplx_dot_prod_q31.c ****   const q31_t * pSrcA,
 165:.\DSP\Source\ComplexMathFunctions/arm_cmplx_dot_prod_q31.c ****   const q31_t * pSrcB,
 166:.\DSP\Source\ComplexMathFunctions/arm_cmplx_dot_prod_q31.c ****         uint32_t numSamples,
 167:.\DSP\Source\ComplexMathFunctions/arm_cmplx_dot_prod_q31.c ****         q63_t * realResult,
 168:.\DSP\Source\ComplexMathFunctions/arm_cmplx_dot_prod_q31.c ****         q63_t * imagResult)
 169:.\DSP\Source\ComplexMathFunctions/arm_cmplx_dot_prod_q31.c **** {
 444              		.loc 6 169 0
 445              		.cfi_startproc
 446              		@ args = 4, pretend = 0, frame = 56
 447              		@ frame_needed = 0, uses_anonymous_args = 0
 448              	.LVL68:
 449 0000 2DE9F04F 		push	{r4, r5, r6, r7, r8, r9, r10, fp, lr}
 450              		.cfi_def_cfa_offset 36
 451              		.cfi_offset 4, -36
 452              		.cfi_offset 5, -32
 453              		.cfi_offset 6, -28
 454              		.cfi_offset 7, -24
 455              		.cfi_offset 8, -20
 456              		.cfi_offset 9, -16
 457              		.cfi_offset 10, -12
 458              		.cfi_offset 11, -8
ARM GAS  C:\Users\IVYLIU~1\AppData\Local\Temp\ccnpFvRb.s 			page 33


 459              		.cfi_offset 14, -4
 460 0004 8FB0     		sub	sp, sp, #60
 461              		.cfi_def_cfa_offset 96
 462 0006 9446     		mov	ip, r2
 463 0008 0D93     		str	r3, [sp, #52]
 464              	.LVL69:
 170:.\DSP\Source\ComplexMathFunctions/arm_cmplx_dot_prod_q31.c ****         uint32_t blkCnt;                               /* Loop counter */
 171:.\DSP\Source\ComplexMathFunctions/arm_cmplx_dot_prod_q31.c ****         q63_t real_sum = 0, imag_sum = 0;              /* Temporary result variables */
 465              		.loc 6 171 0
 466 000a 0022     		movs	r2, #0
 467              	.LVL70:
 468 000c 0023     		movs	r3, #0
 469              	.LVL71:
 470 000e CDE90823 		strd	r2, [sp, #32]
 471 0012 CDE90623 		strd	r2, [sp, #24]
 472 0016 0346     		mov	r3, r0
 473 0018 CDF830C0 		str	ip, [sp, #48]
 172:.\DSP\Source\ComplexMathFunctions/arm_cmplx_dot_prod_q31.c ****         q31_t a0,b0,c0,d0;
 173:.\DSP\Source\ComplexMathFunctions/arm_cmplx_dot_prod_q31.c **** 
 174:.\DSP\Source\ComplexMathFunctions/arm_cmplx_dot_prod_q31.c **** #if defined (ARM_MATH_LOOPUNROLL)
 175:.\DSP\Source\ComplexMathFunctions/arm_cmplx_dot_prod_q31.c **** 
 176:.\DSP\Source\ComplexMathFunctions/arm_cmplx_dot_prod_q31.c ****   /* Loop unrolling: Compute 4 outputs at a time */
 177:.\DSP\Source\ComplexMathFunctions/arm_cmplx_dot_prod_q31.c ****   blkCnt = numSamples >> 2U;
 178:.\DSP\Source\ComplexMathFunctions/arm_cmplx_dot_prod_q31.c **** 
 179:.\DSP\Source\ComplexMathFunctions/arm_cmplx_dot_prod_q31.c ****   while (blkCnt > 0U)
 180:.\DSP\Source\ComplexMathFunctions/arm_cmplx_dot_prod_q31.c ****   {
 181:.\DSP\Source\ComplexMathFunctions/arm_cmplx_dot_prod_q31.c ****     a0 = *pSrcA++;
 182:.\DSP\Source\ComplexMathFunctions/arm_cmplx_dot_prod_q31.c ****     b0 = *pSrcA++;
 183:.\DSP\Source\ComplexMathFunctions/arm_cmplx_dot_prod_q31.c ****     c0 = *pSrcB++;
 184:.\DSP\Source\ComplexMathFunctions/arm_cmplx_dot_prod_q31.c ****     d0 = *pSrcB++;
 185:.\DSP\Source\ComplexMathFunctions/arm_cmplx_dot_prod_q31.c **** 
 186:.\DSP\Source\ComplexMathFunctions/arm_cmplx_dot_prod_q31.c ****     real_sum += ((q63_t)a0 * c0) >> 14;
 187:.\DSP\Source\ComplexMathFunctions/arm_cmplx_dot_prod_q31.c ****     imag_sum += ((q63_t)a0 * d0) >> 14;
 188:.\DSP\Source\ComplexMathFunctions/arm_cmplx_dot_prod_q31.c ****     real_sum -= ((q63_t)b0 * d0) >> 14;
 189:.\DSP\Source\ComplexMathFunctions/arm_cmplx_dot_prod_q31.c ****     imag_sum += ((q63_t)b0 * c0) >> 14;
 190:.\DSP\Source\ComplexMathFunctions/arm_cmplx_dot_prod_q31.c **** 
 191:.\DSP\Source\ComplexMathFunctions/arm_cmplx_dot_prod_q31.c ****     a0 = *pSrcA++;
 192:.\DSP\Source\ComplexMathFunctions/arm_cmplx_dot_prod_q31.c ****     b0 = *pSrcA++;
 193:.\DSP\Source\ComplexMathFunctions/arm_cmplx_dot_prod_q31.c ****     c0 = *pSrcB++;
 194:.\DSP\Source\ComplexMathFunctions/arm_cmplx_dot_prod_q31.c ****     d0 = *pSrcB++;
 195:.\DSP\Source\ComplexMathFunctions/arm_cmplx_dot_prod_q31.c **** 
 196:.\DSP\Source\ComplexMathFunctions/arm_cmplx_dot_prod_q31.c ****     real_sum += ((q63_t)a0 * c0) >> 14;
 197:.\DSP\Source\ComplexMathFunctions/arm_cmplx_dot_prod_q31.c ****     imag_sum += ((q63_t)a0 * d0) >> 14;
 198:.\DSP\Source\ComplexMathFunctions/arm_cmplx_dot_prod_q31.c ****     real_sum -= ((q63_t)b0 * d0) >> 14;
 199:.\DSP\Source\ComplexMathFunctions/arm_cmplx_dot_prod_q31.c ****     imag_sum += ((q63_t)b0 * c0) >> 14;
 200:.\DSP\Source\ComplexMathFunctions/arm_cmplx_dot_prod_q31.c **** 
 201:.\DSP\Source\ComplexMathFunctions/arm_cmplx_dot_prod_q31.c ****     a0 = *pSrcA++;
 202:.\DSP\Source\ComplexMathFunctions/arm_cmplx_dot_prod_q31.c ****     b0 = *pSrcA++;
 203:.\DSP\Source\ComplexMathFunctions/arm_cmplx_dot_prod_q31.c ****     c0 = *pSrcB++;
 204:.\DSP\Source\ComplexMathFunctions/arm_cmplx_dot_prod_q31.c ****     d0 = *pSrcB++;
 205:.\DSP\Source\ComplexMathFunctions/arm_cmplx_dot_prod_q31.c **** 
 206:.\DSP\Source\ComplexMathFunctions/arm_cmplx_dot_prod_q31.c ****     real_sum += ((q63_t)a0 * c0) >> 14;
 207:.\DSP\Source\ComplexMathFunctions/arm_cmplx_dot_prod_q31.c ****     imag_sum += ((q63_t)a0 * d0) >> 14;
 208:.\DSP\Source\ComplexMathFunctions/arm_cmplx_dot_prod_q31.c ****     real_sum -= ((q63_t)b0 * d0) >> 14;
 209:.\DSP\Source\ComplexMathFunctions/arm_cmplx_dot_prod_q31.c ****     imag_sum += ((q63_t)b0 * c0) >> 14;
 210:.\DSP\Source\ComplexMathFunctions/arm_cmplx_dot_prod_q31.c **** 
 211:.\DSP\Source\ComplexMathFunctions/arm_cmplx_dot_prod_q31.c ****     a0 = *pSrcA++;
ARM GAS  C:\Users\IVYLIU~1\AppData\Local\Temp\ccnpFvRb.s 			page 34


 212:.\DSP\Source\ComplexMathFunctions/arm_cmplx_dot_prod_q31.c ****     b0 = *pSrcA++;
 213:.\DSP\Source\ComplexMathFunctions/arm_cmplx_dot_prod_q31.c ****     c0 = *pSrcB++;
 214:.\DSP\Source\ComplexMathFunctions/arm_cmplx_dot_prod_q31.c ****     d0 = *pSrcB++;
 215:.\DSP\Source\ComplexMathFunctions/arm_cmplx_dot_prod_q31.c **** 
 216:.\DSP\Source\ComplexMathFunctions/arm_cmplx_dot_prod_q31.c ****     real_sum += ((q63_t)a0 * c0) >> 14;
 217:.\DSP\Source\ComplexMathFunctions/arm_cmplx_dot_prod_q31.c ****     imag_sum += ((q63_t)a0 * d0) >> 14;
 218:.\DSP\Source\ComplexMathFunctions/arm_cmplx_dot_prod_q31.c ****     real_sum -= ((q63_t)b0 * d0) >> 14;
 219:.\DSP\Source\ComplexMathFunctions/arm_cmplx_dot_prod_q31.c ****     imag_sum += ((q63_t)b0 * c0) >> 14;
 220:.\DSP\Source\ComplexMathFunctions/arm_cmplx_dot_prod_q31.c **** 
 221:.\DSP\Source\ComplexMathFunctions/arm_cmplx_dot_prod_q31.c ****     /* Decrement loop counter */
 222:.\DSP\Source\ComplexMathFunctions/arm_cmplx_dot_prod_q31.c ****     blkCnt--;
 223:.\DSP\Source\ComplexMathFunctions/arm_cmplx_dot_prod_q31.c ****   }
 224:.\DSP\Source\ComplexMathFunctions/arm_cmplx_dot_prod_q31.c **** 
 225:.\DSP\Source\ComplexMathFunctions/arm_cmplx_dot_prod_q31.c ****   /* Loop unrolling: Compute remaining outputs */
 226:.\DSP\Source\ComplexMathFunctions/arm_cmplx_dot_prod_q31.c ****   blkCnt = numSamples % 0x4U;
 227:.\DSP\Source\ComplexMathFunctions/arm_cmplx_dot_prod_q31.c **** 
 228:.\DSP\Source\ComplexMathFunctions/arm_cmplx_dot_prod_q31.c **** #else
 229:.\DSP\Source\ComplexMathFunctions/arm_cmplx_dot_prod_q31.c **** 
 230:.\DSP\Source\ComplexMathFunctions/arm_cmplx_dot_prod_q31.c ****   /* Initialize blkCnt with number of samples */
 231:.\DSP\Source\ComplexMathFunctions/arm_cmplx_dot_prod_q31.c ****   blkCnt = numSamples;
 232:.\DSP\Source\ComplexMathFunctions/arm_cmplx_dot_prod_q31.c **** 
 233:.\DSP\Source\ComplexMathFunctions/arm_cmplx_dot_prod_q31.c **** #endif /* #if defined (ARM_MATH_LOOPUNROLL) */
 234:.\DSP\Source\ComplexMathFunctions/arm_cmplx_dot_prod_q31.c **** 
 235:.\DSP\Source\ComplexMathFunctions/arm_cmplx_dot_prod_q31.c ****   while (blkCnt > 0U)
 474              		.loc 6 235 0
 475 001c 70E0     		b	.L26
 476              	.LVL72:
 477              	.L27:
 236:.\DSP\Source\ComplexMathFunctions/arm_cmplx_dot_prod_q31.c ****   {
 237:.\DSP\Source\ComplexMathFunctions/arm_cmplx_dot_prod_q31.c ****     a0 = *pSrcA++;
 478              		.loc 6 237 0
 479 001e 9C46     		mov	ip, r3
 480 0020 5CF8080B 		ldr	r0, [ip], #8
 481              	.LVL73:
 238:.\DSP\Source\ComplexMathFunctions/arm_cmplx_dot_prod_q31.c ****     b0 = *pSrcA++;
 482              		.loc 6 238 0
 483 0024 5C68     		ldr	r4, [r3, #4]
 484              	.LVL74:
 239:.\DSP\Source\ComplexMathFunctions/arm_cmplx_dot_prod_q31.c ****     c0 = *pSrcB++;
 485              		.loc 6 239 0
 486 0026 8E46     		mov	lr, r1
 487 0028 5EF8083B 		ldr	r3, [lr], #8
 488              	.LVL75:
 240:.\DSP\Source\ComplexMathFunctions/arm_cmplx_dot_prod_q31.c ****     d0 = *pSrcB++;
 489              		.loc 6 240 0
 490 002c 4A68     		ldr	r2, [r1, #4]
 491              	.LVL76:
 241:.\DSP\Source\ComplexMathFunctions/arm_cmplx_dot_prod_q31.c **** 
 242:.\DSP\Source\ComplexMathFunctions/arm_cmplx_dot_prod_q31.c ****     real_sum += ((q63_t)a0 * c0) >> 14;
 492              		.loc 6 242 0
 493 002e 4FEAE07B 		asr	fp, r0, #31
 494 0032 1E46     		mov	r6, r3
 495 0034 DF17     		asrs	r7, r3, #31
 496 0036 CDE90A67 		strd	r6, [sp, #40]
 497 003a 3946     		mov	r1, r7
 498 003c 00FB01F1 		mul	r1, r0, r1
 499 0040 03FB0B11 		mla	r1, r3, fp, r1
ARM GAS  C:\Users\IVYLIU~1\AppData\Local\Temp\ccnpFvRb.s 			page 35


 500 0044 A0FB0367 		umull	r6, r7, r0, r3
 501 0048 0F44     		add	r7, r7, r1
 502 004a 4FEA9638 		lsr	r8, r6, #14
 503 004e 48EA8748 		orr	r8, r8, r7, lsl #18
 504 0052 4FEAA739 		asr	r9, r7, #14
 505 0056 DDE90667 		ldrd	r6, [sp, #24]
 506 005a 16EB0806 		adds	r6, r6, r8
 507 005e 47EB0907 		adc	r7, r7, r9
 508 0062 CDE90667 		strd	r6, [sp, #24]
 509              	.LVL77:
 243:.\DSP\Source\ComplexMathFunctions/arm_cmplx_dot_prod_q31.c ****     imag_sum += ((q63_t)a0 * d0) >> 14;
 510              		.loc 6 243 0
 511 0066 D717     		asrs	r7, r2, #31
 512 0068 00FB07F6 		mul	r6, r0, r7
 513              	.LVL78:
 514 006c 02FB0B66 		mla	r6, r2, fp, r6
 515 0070 A0FB0201 		umull	r0, r1, r0, r2
 516              	.LVL79:
 517 0074 3144     		add	r1, r1, r6
 518 0076 850B     		lsrs	r5, r0, #14
 519 0078 45EA8145 		orr	r5, r5, r1, lsl #18
 520 007c 0095     		str	r5, [sp]
 521 007e 8913     		asrs	r1, r1, #14
 522 0080 0191     		str	r1, [sp, #4]
 523 0082 DDE900AB 		ldrd	r10, [sp]
 524 0086 DDE90801 		ldrd	r0, [sp, #32]
 525 008a 1AEB000A 		adds	r10, r10, r0
 526 008e 4BEB010B 		adc	fp, fp, r1
 527 0092 CDE908AB 		strd	r10, [sp, #32]
 528              	.LVL80:
 244:.\DSP\Source\ComplexMathFunctions/arm_cmplx_dot_prod_q31.c ****     real_sum -= ((q63_t)b0 * d0) >> 14;
 529              		.loc 6 244 0
 530 0096 E117     		asrs	r1, r4, #31
 531 0098 02FB01F0 		mul	r0, r2, r1
 532 009c 04FB0700 		mla	r0, r4, r7, r0
 533 00a0 A2FB0467 		umull	r6, r7, r2, r4
 534 00a4 0744     		add	r7, r7, r0
 535 00a6 B20B     		lsrs	r2, r6, #14
 536              	.LVL81:
 537 00a8 42EA8742 		orr	r2, r2, r7, lsl #18
 538 00ac 0292     		str	r2, [sp, #8]
 539 00ae BA13     		asrs	r2, r7, #14
 540 00b0 0392     		str	r2, [sp, #12]
 541 00b2 DDE902AB 		ldrd	r10, [sp, #8]
 542              	.LVL82:
 543 00b6 DDE90667 		ldrd	r6, [sp, #24]
 544 00ba B6EB0A0A 		subs	r10, r6, r10
 545 00be 67EB0B0B 		sbc	fp, r7, fp
 546 00c2 CDE906AB 		strd	r10, [sp, #24]
 547              	.LVL83:
 245:.\DSP\Source\ComplexMathFunctions/arm_cmplx_dot_prod_q31.c ****     imag_sum += ((q63_t)b0 * c0) >> 14;
 548              		.loc 6 245 0
 549 00c6 03FB01F1 		mul	r1, r3, r1
 550 00ca 0B9A     		ldr	r2, [sp, #44]
 551 00cc 04FB0211 		mla	r1, r4, r2, r1
 552 00d0 A3FB0423 		umull	r2, r3, r3, r4
 553 00d4 0B44     		add	r3, r3, r1
ARM GAS  C:\Users\IVYLIU~1\AppData\Local\Temp\ccnpFvRb.s 			page 36


 554              	.LVL84:
 555 00d6 910B     		lsrs	r1, r2, #14
 556 00d8 41EA8341 		orr	r1, r1, r3, lsl #18
 557 00dc 0491     		str	r1, [sp, #16]
 558 00de 9B13     		asrs	r3, r3, #14
 559 00e0 0593     		str	r3, [sp, #20]
 560 00e2 DDE90423 		ldrd	r2, [sp, #16]
 561 00e6 DDE90801 		ldrd	r0, [sp, #32]
 562 00ea 8018     		adds	r0, r0, r2
 563 00ec 5941     		adcs	r1, r1, r3
 564 00ee 0246     		mov	r2, r0
 565 00f0 0B46     		mov	r3, r1
 566 00f2 CDE90823 		strd	r2, [sp, #32]
 567              	.LVL85:
 246:.\DSP\Source\ComplexMathFunctions/arm_cmplx_dot_prod_q31.c **** 
 247:.\DSP\Source\ComplexMathFunctions/arm_cmplx_dot_prod_q31.c ****     /* Decrement loop counter */
 248:.\DSP\Source\ComplexMathFunctions/arm_cmplx_dot_prod_q31.c ****     blkCnt--;
 568              		.loc 6 248 0
 569 00f6 0C9B     		ldr	r3, [sp, #48]
 570 00f8 013B     		subs	r3, r3, #1
 571 00fa 0C93     		str	r3, [sp, #48]
 572              	.LVL86:
 240:.\DSP\Source\ComplexMathFunctions/arm_cmplx_dot_prod_q31.c **** 
 573              		.loc 6 240 0
 574 00fc 7146     		mov	r1, lr
 238:.\DSP\Source\ComplexMathFunctions/arm_cmplx_dot_prod_q31.c ****     c0 = *pSrcB++;
 575              		.loc 6 238 0
 576 00fe 6346     		mov	r3, ip
 577              	.LVL87:
 578              	.L26:
 235:.\DSP\Source\ComplexMathFunctions/arm_cmplx_dot_prod_q31.c ****   {
 579              		.loc 6 235 0
 580 0100 0C9A     		ldr	r2, [sp, #48]
 581 0102 002A     		cmp	r2, #0
 582 0104 8BD1     		bne	.L27
 249:.\DSP\Source\ComplexMathFunctions/arm_cmplx_dot_prod_q31.c ****   }
 250:.\DSP\Source\ComplexMathFunctions/arm_cmplx_dot_prod_q31.c **** 
 251:.\DSP\Source\ComplexMathFunctions/arm_cmplx_dot_prod_q31.c ****   /* Store real and imaginary result in 16.48 format  */
 252:.\DSP\Source\ComplexMathFunctions/arm_cmplx_dot_prod_q31.c ****   *realResult = real_sum;
 583              		.loc 6 252 0
 584 0106 0D9B     		ldr	r3, [sp, #52]
 585              	.LVL88:
 586 0108 1946     		mov	r1, r3
 587              	.LVL89:
 588 010a DDE90623 		ldrd	r2, [sp, #24]
 589 010e C1E90023 		strd	r2, [r1]
 253:.\DSP\Source\ComplexMathFunctions/arm_cmplx_dot_prod_q31.c ****   *imagResult = imag_sum;
 590              		.loc 6 253 0
 591 0112 189B     		ldr	r3, [sp, #96]
 592 0114 DDE90801 		ldrd	r0, [sp, #32]
 593 0118 C3E90001 		strd	r0, [r3]
 254:.\DSP\Source\ComplexMathFunctions/arm_cmplx_dot_prod_q31.c **** }
 594              		.loc 6 254 0
 595 011c 0FB0     		add	sp, sp, #60
 596              		.cfi_def_cfa_offset 36
 597              		@ sp needed
 598 011e BDE8F08F 		pop	{r4, r5, r6, r7, r8, r9, r10, fp, pc}
ARM GAS  C:\Users\IVYLIU~1\AppData\Local\Temp\ccnpFvRb.s 			page 37


 599              		.cfi_endproc
 600              	.LFE89:
 601              		.size	arm_cmplx_dot_prod_q31, .-arm_cmplx_dot_prod_q31
 602              		.global	__aeabi_fcmpge
 603 0122 00BF     		.section	.text.arm_cmplx_mag_f32,"ax",%progbits
 604              		.align	2
 605              		.global	arm_cmplx_mag_f32
 606              		.thumb
 607              		.thumb_func
 608              		.type	arm_cmplx_mag_f32, %function
 609              	arm_cmplx_mag_f32:
 610              	.LFB90:
 611              		.file 7 ".\\DSP\\Source\\ComplexMathFunctions\\arm_cmplx_mag_f32.c"
   1:.\DSP\Source\ComplexMathFunctions/arm_cmplx_mag_f32.c **** /* ----------------------------------------------------------------------
   2:.\DSP\Source\ComplexMathFunctions/arm_cmplx_mag_f32.c ****  * Project:      CMSIS DSP Library
   3:.\DSP\Source\ComplexMathFunctions/arm_cmplx_mag_f32.c ****  * Title:        arm_cmplx_mag_f32.c
   4:.\DSP\Source\ComplexMathFunctions/arm_cmplx_mag_f32.c ****  * Description:  Floating-point complex magnitude
   5:.\DSP\Source\ComplexMathFunctions/arm_cmplx_mag_f32.c ****  *
   6:.\DSP\Source\ComplexMathFunctions/arm_cmplx_mag_f32.c ****  * $Date:        23 April 2021
   7:.\DSP\Source\ComplexMathFunctions/arm_cmplx_mag_f32.c ****  * $Revision:    V1.9.0
   8:.\DSP\Source\ComplexMathFunctions/arm_cmplx_mag_f32.c ****  *
   9:.\DSP\Source\ComplexMathFunctions/arm_cmplx_mag_f32.c ****  * Target Processor: Cortex-M and Cortex-A cores
  10:.\DSP\Source\ComplexMathFunctions/arm_cmplx_mag_f32.c ****  * -------------------------------------------------------------------- */
  11:.\DSP\Source\ComplexMathFunctions/arm_cmplx_mag_f32.c **** /*
  12:.\DSP\Source\ComplexMathFunctions/arm_cmplx_mag_f32.c ****  * Copyright (C) 2010-2021 ARM Limited or its affiliates. All rights reserved.
  13:.\DSP\Source\ComplexMathFunctions/arm_cmplx_mag_f32.c ****  *
  14:.\DSP\Source\ComplexMathFunctions/arm_cmplx_mag_f32.c ****  * SPDX-License-Identifier: Apache-2.0
  15:.\DSP\Source\ComplexMathFunctions/arm_cmplx_mag_f32.c ****  *
  16:.\DSP\Source\ComplexMathFunctions/arm_cmplx_mag_f32.c ****  * Licensed under the Apache License, Version 2.0 (the License); you may
  17:.\DSP\Source\ComplexMathFunctions/arm_cmplx_mag_f32.c ****  * not use this file except in compliance with the License.
  18:.\DSP\Source\ComplexMathFunctions/arm_cmplx_mag_f32.c ****  * You may obtain a copy of the License at
  19:.\DSP\Source\ComplexMathFunctions/arm_cmplx_mag_f32.c ****  *
  20:.\DSP\Source\ComplexMathFunctions/arm_cmplx_mag_f32.c ****  * www.apache.org/licenses/LICENSE-2.0
  21:.\DSP\Source\ComplexMathFunctions/arm_cmplx_mag_f32.c ****  *
  22:.\DSP\Source\ComplexMathFunctions/arm_cmplx_mag_f32.c ****  * Unless required by applicable law or agreed to in writing, software
  23:.\DSP\Source\ComplexMathFunctions/arm_cmplx_mag_f32.c ****  * distributed under the License is distributed on an AS IS BASIS, WITHOUT
  24:.\DSP\Source\ComplexMathFunctions/arm_cmplx_mag_f32.c ****  * WARRANTIES OR CONDITIONS OF ANY KIND, either express or implied.
  25:.\DSP\Source\ComplexMathFunctions/arm_cmplx_mag_f32.c ****  * See the License for the specific language governing permissions and
  26:.\DSP\Source\ComplexMathFunctions/arm_cmplx_mag_f32.c ****  * limitations under the License.
  27:.\DSP\Source\ComplexMathFunctions/arm_cmplx_mag_f32.c ****  */
  28:.\DSP\Source\ComplexMathFunctions/arm_cmplx_mag_f32.c **** 
  29:.\DSP\Source\ComplexMathFunctions/arm_cmplx_mag_f32.c **** #include "dsp/complex_math_functions.h"
  30:.\DSP\Source\ComplexMathFunctions/arm_cmplx_mag_f32.c **** 
  31:.\DSP\Source\ComplexMathFunctions/arm_cmplx_mag_f32.c **** /**
  32:.\DSP\Source\ComplexMathFunctions/arm_cmplx_mag_f32.c ****   @ingroup groupCmplxMath
  33:.\DSP\Source\ComplexMathFunctions/arm_cmplx_mag_f32.c ****  */
  34:.\DSP\Source\ComplexMathFunctions/arm_cmplx_mag_f32.c **** 
  35:.\DSP\Source\ComplexMathFunctions/arm_cmplx_mag_f32.c **** /**
  36:.\DSP\Source\ComplexMathFunctions/arm_cmplx_mag_f32.c ****   @defgroup cmplx_mag Complex Magnitude
  37:.\DSP\Source\ComplexMathFunctions/arm_cmplx_mag_f32.c **** 
  38:.\DSP\Source\ComplexMathFunctions/arm_cmplx_mag_f32.c ****   Computes the magnitude of the elements of a complex data vector.
  39:.\DSP\Source\ComplexMathFunctions/arm_cmplx_mag_f32.c **** 
  40:.\DSP\Source\ComplexMathFunctions/arm_cmplx_mag_f32.c ****   The <code>pSrc</code> points to the source data and
  41:.\DSP\Source\ComplexMathFunctions/arm_cmplx_mag_f32.c ****   <code>pDst</code> points to the where the result should be written.
  42:.\DSP\Source\ComplexMathFunctions/arm_cmplx_mag_f32.c ****   <code>numSamples</code> specifies the number of complex samples
  43:.\DSP\Source\ComplexMathFunctions/arm_cmplx_mag_f32.c ****   in the input array and the data is stored in an interleaved fashion
  44:.\DSP\Source\ComplexMathFunctions/arm_cmplx_mag_f32.c ****   (real, imag, real, imag, ...).
ARM GAS  C:\Users\IVYLIU~1\AppData\Local\Temp\ccnpFvRb.s 			page 38


  45:.\DSP\Source\ComplexMathFunctions/arm_cmplx_mag_f32.c ****   The input array has a total of <code>2*numSamples</code> values;
  46:.\DSP\Source\ComplexMathFunctions/arm_cmplx_mag_f32.c ****   the output array has a total of <code>numSamples</code> values.
  47:.\DSP\Source\ComplexMathFunctions/arm_cmplx_mag_f32.c **** 
  48:.\DSP\Source\ComplexMathFunctions/arm_cmplx_mag_f32.c ****   The underlying algorithm is used:
  49:.\DSP\Source\ComplexMathFunctions/arm_cmplx_mag_f32.c **** 
  50:.\DSP\Source\ComplexMathFunctions/arm_cmplx_mag_f32.c ****   <pre>
  51:.\DSP\Source\ComplexMathFunctions/arm_cmplx_mag_f32.c ****   for (n = 0; n < numSamples; n++) {
  52:.\DSP\Source\ComplexMathFunctions/arm_cmplx_mag_f32.c ****       pDst[n] = sqrt(pSrc[(2*n)+0]^2 + pSrc[(2*n)+1]^2);
  53:.\DSP\Source\ComplexMathFunctions/arm_cmplx_mag_f32.c ****   }
  54:.\DSP\Source\ComplexMathFunctions/arm_cmplx_mag_f32.c ****   </pre>
  55:.\DSP\Source\ComplexMathFunctions/arm_cmplx_mag_f32.c **** 
  56:.\DSP\Source\ComplexMathFunctions/arm_cmplx_mag_f32.c ****   There are separate functions for floating-point, Q15, and Q31 data types.
  57:.\DSP\Source\ComplexMathFunctions/arm_cmplx_mag_f32.c ****  */
  58:.\DSP\Source\ComplexMathFunctions/arm_cmplx_mag_f32.c **** 
  59:.\DSP\Source\ComplexMathFunctions/arm_cmplx_mag_f32.c **** /**
  60:.\DSP\Source\ComplexMathFunctions/arm_cmplx_mag_f32.c ****   @addtogroup cmplx_mag
  61:.\DSP\Source\ComplexMathFunctions/arm_cmplx_mag_f32.c ****   @{
  62:.\DSP\Source\ComplexMathFunctions/arm_cmplx_mag_f32.c ****  */
  63:.\DSP\Source\ComplexMathFunctions/arm_cmplx_mag_f32.c **** 
  64:.\DSP\Source\ComplexMathFunctions/arm_cmplx_mag_f32.c **** /**
  65:.\DSP\Source\ComplexMathFunctions/arm_cmplx_mag_f32.c ****   @brief         Floating-point complex magnitude.
  66:.\DSP\Source\ComplexMathFunctions/arm_cmplx_mag_f32.c ****   @param[in]     pSrc        points to input vector
  67:.\DSP\Source\ComplexMathFunctions/arm_cmplx_mag_f32.c ****   @param[out]    pDst        points to output vector
  68:.\DSP\Source\ComplexMathFunctions/arm_cmplx_mag_f32.c ****   @param[in]     numSamples  number of samples in each vector
  69:.\DSP\Source\ComplexMathFunctions/arm_cmplx_mag_f32.c ****   @return        none
  70:.\DSP\Source\ComplexMathFunctions/arm_cmplx_mag_f32.c ****  */
  71:.\DSP\Source\ComplexMathFunctions/arm_cmplx_mag_f32.c **** 
  72:.\DSP\Source\ComplexMathFunctions/arm_cmplx_mag_f32.c **** #if defined(ARM_MATH_NEON) && !defined(ARM_MATH_AUTOVECTORIZE)
  73:.\DSP\Source\ComplexMathFunctions/arm_cmplx_mag_f32.c **** #include "arm_vec_math.h"
  74:.\DSP\Source\ComplexMathFunctions/arm_cmplx_mag_f32.c **** #endif
  75:.\DSP\Source\ComplexMathFunctions/arm_cmplx_mag_f32.c **** 
  76:.\DSP\Source\ComplexMathFunctions/arm_cmplx_mag_f32.c **** #if defined(ARM_MATH_MVEF) && !defined(ARM_MATH_AUTOVECTORIZE)
  77:.\DSP\Source\ComplexMathFunctions/arm_cmplx_mag_f32.c **** 
  78:.\DSP\Source\ComplexMathFunctions/arm_cmplx_mag_f32.c **** #include "arm_helium_utils.h"
  79:.\DSP\Source\ComplexMathFunctions/arm_cmplx_mag_f32.c **** 
  80:.\DSP\Source\ComplexMathFunctions/arm_cmplx_mag_f32.c **** 
  81:.\DSP\Source\ComplexMathFunctions/arm_cmplx_mag_f32.c **** void arm_cmplx_mag_f32(
  82:.\DSP\Source\ComplexMathFunctions/arm_cmplx_mag_f32.c ****   const float32_t * pSrc,
  83:.\DSP\Source\ComplexMathFunctions/arm_cmplx_mag_f32.c ****         float32_t * pDst,
  84:.\DSP\Source\ComplexMathFunctions/arm_cmplx_mag_f32.c ****         uint32_t numSamples)
  85:.\DSP\Source\ComplexMathFunctions/arm_cmplx_mag_f32.c **** {
  86:.\DSP\Source\ComplexMathFunctions/arm_cmplx_mag_f32.c ****     int32_t blockSize = numSamples;  /* loop counters */
  87:.\DSP\Source\ComplexMathFunctions/arm_cmplx_mag_f32.c ****     uint32_t  blkCnt;           /* loop counters */
  88:.\DSP\Source\ComplexMathFunctions/arm_cmplx_mag_f32.c ****     f32x4x2_t vecSrc;
  89:.\DSP\Source\ComplexMathFunctions/arm_cmplx_mag_f32.c ****     f32x4_t sum;
  90:.\DSP\Source\ComplexMathFunctions/arm_cmplx_mag_f32.c ****     float32_t real, imag;                      /* Temporary variables to hold input values */
  91:.\DSP\Source\ComplexMathFunctions/arm_cmplx_mag_f32.c **** 
  92:.\DSP\Source\ComplexMathFunctions/arm_cmplx_mag_f32.c ****     /* Compute 4 complex samples at a time */
  93:.\DSP\Source\ComplexMathFunctions/arm_cmplx_mag_f32.c ****     blkCnt = blockSize >> 2;
  94:.\DSP\Source\ComplexMathFunctions/arm_cmplx_mag_f32.c ****     while (blkCnt > 0U)
  95:.\DSP\Source\ComplexMathFunctions/arm_cmplx_mag_f32.c ****     {
  96:.\DSP\Source\ComplexMathFunctions/arm_cmplx_mag_f32.c ****         q31x4_t newtonStartVec;
  97:.\DSP\Source\ComplexMathFunctions/arm_cmplx_mag_f32.c ****         f32x4_t sumHalf, invSqrt;
  98:.\DSP\Source\ComplexMathFunctions/arm_cmplx_mag_f32.c **** 
  99:.\DSP\Source\ComplexMathFunctions/arm_cmplx_mag_f32.c ****         vecSrc = vld2q(pSrc);  
 100:.\DSP\Source\ComplexMathFunctions/arm_cmplx_mag_f32.c ****         pSrc += 8;
 101:.\DSP\Source\ComplexMathFunctions/arm_cmplx_mag_f32.c ****         sum = vmulq(vecSrc.val[0], vecSrc.val[0]);
ARM GAS  C:\Users\IVYLIU~1\AppData\Local\Temp\ccnpFvRb.s 			page 39


 102:.\DSP\Source\ComplexMathFunctions/arm_cmplx_mag_f32.c ****         sum = vfmaq(sum, vecSrc.val[1], vecSrc.val[1]);
 103:.\DSP\Source\ComplexMathFunctions/arm_cmplx_mag_f32.c **** 
 104:.\DSP\Source\ComplexMathFunctions/arm_cmplx_mag_f32.c ****         /*
 105:.\DSP\Source\ComplexMathFunctions/arm_cmplx_mag_f32.c ****          * inlined Fast SQRT using inverse SQRT newton-raphson method
 106:.\DSP\Source\ComplexMathFunctions/arm_cmplx_mag_f32.c ****          */
 107:.\DSP\Source\ComplexMathFunctions/arm_cmplx_mag_f32.c **** 
 108:.\DSP\Source\ComplexMathFunctions/arm_cmplx_mag_f32.c ****         /* compute initial value */
 109:.\DSP\Source\ComplexMathFunctions/arm_cmplx_mag_f32.c ****         newtonStartVec = vdupq_n_s32(INVSQRT_MAGIC_F32) - vshrq((q31x4_t) sum, 1);
 110:.\DSP\Source\ComplexMathFunctions/arm_cmplx_mag_f32.c ****         sumHalf = sum * 0.5f;
 111:.\DSP\Source\ComplexMathFunctions/arm_cmplx_mag_f32.c ****         /*
 112:.\DSP\Source\ComplexMathFunctions/arm_cmplx_mag_f32.c ****          * compute 3 x iterations
 113:.\DSP\Source\ComplexMathFunctions/arm_cmplx_mag_f32.c ****          *
 114:.\DSP\Source\ComplexMathFunctions/arm_cmplx_mag_f32.c ****          * The more iterations, the more accuracy.
 115:.\DSP\Source\ComplexMathFunctions/arm_cmplx_mag_f32.c ****          * If you need to trade a bit of accuracy for more performance,
 116:.\DSP\Source\ComplexMathFunctions/arm_cmplx_mag_f32.c ****          * you can comment out the 3rd use of the macro.
 117:.\DSP\Source\ComplexMathFunctions/arm_cmplx_mag_f32.c ****          */
 118:.\DSP\Source\ComplexMathFunctions/arm_cmplx_mag_f32.c ****         INVSQRT_NEWTON_MVE_F32(invSqrt, sumHalf, (f32x4_t) newtonStartVec);
 119:.\DSP\Source\ComplexMathFunctions/arm_cmplx_mag_f32.c ****         INVSQRT_NEWTON_MVE_F32(invSqrt, sumHalf, invSqrt);
 120:.\DSP\Source\ComplexMathFunctions/arm_cmplx_mag_f32.c ****         INVSQRT_NEWTON_MVE_F32(invSqrt, sumHalf, invSqrt);
 121:.\DSP\Source\ComplexMathFunctions/arm_cmplx_mag_f32.c ****         /*
 122:.\DSP\Source\ComplexMathFunctions/arm_cmplx_mag_f32.c ****          * set negative values to 0
 123:.\DSP\Source\ComplexMathFunctions/arm_cmplx_mag_f32.c ****          */
 124:.\DSP\Source\ComplexMathFunctions/arm_cmplx_mag_f32.c ****         invSqrt = vdupq_m(invSqrt, 0.0f, vcmpltq(invSqrt, 0.0f));
 125:.\DSP\Source\ComplexMathFunctions/arm_cmplx_mag_f32.c ****         /*
 126:.\DSP\Source\ComplexMathFunctions/arm_cmplx_mag_f32.c ****          * sqrt(x) = x * invSqrt(x)
 127:.\DSP\Source\ComplexMathFunctions/arm_cmplx_mag_f32.c ****          */
 128:.\DSP\Source\ComplexMathFunctions/arm_cmplx_mag_f32.c ****         sum = vmulq(sum, invSqrt);
 129:.\DSP\Source\ComplexMathFunctions/arm_cmplx_mag_f32.c ****         vst1q(pDst, sum); 
 130:.\DSP\Source\ComplexMathFunctions/arm_cmplx_mag_f32.c ****         pDst += 4;
 131:.\DSP\Source\ComplexMathFunctions/arm_cmplx_mag_f32.c ****         /*
 132:.\DSP\Source\ComplexMathFunctions/arm_cmplx_mag_f32.c ****          * Decrement the blockSize loop counter
 133:.\DSP\Source\ComplexMathFunctions/arm_cmplx_mag_f32.c ****          */
 134:.\DSP\Source\ComplexMathFunctions/arm_cmplx_mag_f32.c ****         blkCnt--;
 135:.\DSP\Source\ComplexMathFunctions/arm_cmplx_mag_f32.c ****     }
 136:.\DSP\Source\ComplexMathFunctions/arm_cmplx_mag_f32.c ****     /*
 137:.\DSP\Source\ComplexMathFunctions/arm_cmplx_mag_f32.c ****      * tail
 138:.\DSP\Source\ComplexMathFunctions/arm_cmplx_mag_f32.c ****      */
 139:.\DSP\Source\ComplexMathFunctions/arm_cmplx_mag_f32.c ****     blkCnt = blockSize & 3;
 140:.\DSP\Source\ComplexMathFunctions/arm_cmplx_mag_f32.c ****     while (blkCnt > 0U)
 141:.\DSP\Source\ComplexMathFunctions/arm_cmplx_mag_f32.c ****     {
 142:.\DSP\Source\ComplexMathFunctions/arm_cmplx_mag_f32.c ****       /* C[0] = sqrt(A[0] * A[0] + A[1] * A[1]) */
 143:.\DSP\Source\ComplexMathFunctions/arm_cmplx_mag_f32.c ****   
 144:.\DSP\Source\ComplexMathFunctions/arm_cmplx_mag_f32.c ****       real = *pSrc++;
 145:.\DSP\Source\ComplexMathFunctions/arm_cmplx_mag_f32.c ****       imag = *pSrc++;
 146:.\DSP\Source\ComplexMathFunctions/arm_cmplx_mag_f32.c ****   
 147:.\DSP\Source\ComplexMathFunctions/arm_cmplx_mag_f32.c ****       /* store result in destination buffer. */
 148:.\DSP\Source\ComplexMathFunctions/arm_cmplx_mag_f32.c ****       arm_sqrt_f32((real * real) + (imag * imag), pDst++);
 149:.\DSP\Source\ComplexMathFunctions/arm_cmplx_mag_f32.c ****   
 150:.\DSP\Source\ComplexMathFunctions/arm_cmplx_mag_f32.c ****       /* Decrement loop counter */
 151:.\DSP\Source\ComplexMathFunctions/arm_cmplx_mag_f32.c ****       blkCnt--;
 152:.\DSP\Source\ComplexMathFunctions/arm_cmplx_mag_f32.c ****     }
 153:.\DSP\Source\ComplexMathFunctions/arm_cmplx_mag_f32.c **** }
 154:.\DSP\Source\ComplexMathFunctions/arm_cmplx_mag_f32.c **** 
 155:.\DSP\Source\ComplexMathFunctions/arm_cmplx_mag_f32.c **** #else
 156:.\DSP\Source\ComplexMathFunctions/arm_cmplx_mag_f32.c **** void arm_cmplx_mag_f32(
 157:.\DSP\Source\ComplexMathFunctions/arm_cmplx_mag_f32.c ****   const float32_t * pSrc,
 158:.\DSP\Source\ComplexMathFunctions/arm_cmplx_mag_f32.c ****         float32_t * pDst,
ARM GAS  C:\Users\IVYLIU~1\AppData\Local\Temp\ccnpFvRb.s 			page 40


 159:.\DSP\Source\ComplexMathFunctions/arm_cmplx_mag_f32.c ****         uint32_t numSamples)
 160:.\DSP\Source\ComplexMathFunctions/arm_cmplx_mag_f32.c **** {
 612              		.loc 7 160 0
 613              		.cfi_startproc
 614              		@ args = 0, pretend = 0, frame = 0
 615              		@ frame_needed = 0, uses_anonymous_args = 0
 616              	.LVL90:
 617 0000 2DE9F041 		push	{r4, r5, r6, r7, r8, lr}
 618              		.cfi_def_cfa_offset 24
 619              		.cfi_offset 4, -24
 620              		.cfi_offset 5, -20
 621              		.cfi_offset 6, -16
 622              		.cfi_offset 7, -12
 623              		.cfi_offset 8, -8
 624              		.cfi_offset 14, -4
 625 0004 0E46     		mov	r6, r1
 626 0006 1546     		mov	r5, r2
 627              	.LVL91:
 161:.\DSP\Source\ComplexMathFunctions/arm_cmplx_mag_f32.c ****   uint32_t blkCnt;                               /* loop counter */
 162:.\DSP\Source\ComplexMathFunctions/arm_cmplx_mag_f32.c ****   float32_t real, imag;                      /* Temporary variables to hold input values */
 163:.\DSP\Source\ComplexMathFunctions/arm_cmplx_mag_f32.c **** 
 164:.\DSP\Source\ComplexMathFunctions/arm_cmplx_mag_f32.c **** #if defined(ARM_MATH_NEON) && !defined(ARM_MATH_AUTOVECTORIZE)
 165:.\DSP\Source\ComplexMathFunctions/arm_cmplx_mag_f32.c **** 
 166:.\DSP\Source\ComplexMathFunctions/arm_cmplx_mag_f32.c ****   float32x4x2_t vecA;
 167:.\DSP\Source\ComplexMathFunctions/arm_cmplx_mag_f32.c ****   float32x4_t vRealA;
 168:.\DSP\Source\ComplexMathFunctions/arm_cmplx_mag_f32.c ****   float32x4_t vImagA;
 169:.\DSP\Source\ComplexMathFunctions/arm_cmplx_mag_f32.c ****   float32x4_t vMagSqA;
 170:.\DSP\Source\ComplexMathFunctions/arm_cmplx_mag_f32.c **** 
 171:.\DSP\Source\ComplexMathFunctions/arm_cmplx_mag_f32.c ****   float32x4x2_t vecB;
 172:.\DSP\Source\ComplexMathFunctions/arm_cmplx_mag_f32.c ****   float32x4_t vRealB;
 173:.\DSP\Source\ComplexMathFunctions/arm_cmplx_mag_f32.c ****   float32x4_t vImagB;
 174:.\DSP\Source\ComplexMathFunctions/arm_cmplx_mag_f32.c ****   float32x4_t vMagSqB;
 175:.\DSP\Source\ComplexMathFunctions/arm_cmplx_mag_f32.c **** 
 176:.\DSP\Source\ComplexMathFunctions/arm_cmplx_mag_f32.c ****   /* Loop unrolling: Compute 8 outputs at a time */
 177:.\DSP\Source\ComplexMathFunctions/arm_cmplx_mag_f32.c ****   blkCnt = numSamples >> 3;
 178:.\DSP\Source\ComplexMathFunctions/arm_cmplx_mag_f32.c **** 
 179:.\DSP\Source\ComplexMathFunctions/arm_cmplx_mag_f32.c ****   while (blkCnt > 0U)
 180:.\DSP\Source\ComplexMathFunctions/arm_cmplx_mag_f32.c ****   {
 181:.\DSP\Source\ComplexMathFunctions/arm_cmplx_mag_f32.c ****     /* out = sqrt((real * real) + (imag * imag)) */
 182:.\DSP\Source\ComplexMathFunctions/arm_cmplx_mag_f32.c **** 
 183:.\DSP\Source\ComplexMathFunctions/arm_cmplx_mag_f32.c ****     vecA = vld2q_f32(pSrc);
 184:.\DSP\Source\ComplexMathFunctions/arm_cmplx_mag_f32.c ****     pSrc += 8;
 185:.\DSP\Source\ComplexMathFunctions/arm_cmplx_mag_f32.c **** 
 186:.\DSP\Source\ComplexMathFunctions/arm_cmplx_mag_f32.c ****     vecB = vld2q_f32(pSrc);
 187:.\DSP\Source\ComplexMathFunctions/arm_cmplx_mag_f32.c ****     pSrc += 8;
 188:.\DSP\Source\ComplexMathFunctions/arm_cmplx_mag_f32.c **** 
 189:.\DSP\Source\ComplexMathFunctions/arm_cmplx_mag_f32.c ****     vRealA = vmulq_f32(vecA.val[0], vecA.val[0]);
 190:.\DSP\Source\ComplexMathFunctions/arm_cmplx_mag_f32.c ****     vImagA = vmulq_f32(vecA.val[1], vecA.val[1]);
 191:.\DSP\Source\ComplexMathFunctions/arm_cmplx_mag_f32.c ****     vMagSqA = vaddq_f32(vRealA, vImagA);
 192:.\DSP\Source\ComplexMathFunctions/arm_cmplx_mag_f32.c **** 
 193:.\DSP\Source\ComplexMathFunctions/arm_cmplx_mag_f32.c ****     vRealB = vmulq_f32(vecB.val[0], vecB.val[0]);
 194:.\DSP\Source\ComplexMathFunctions/arm_cmplx_mag_f32.c ****     vImagB = vmulq_f32(vecB.val[1], vecB.val[1]);
 195:.\DSP\Source\ComplexMathFunctions/arm_cmplx_mag_f32.c ****     vMagSqB = vaddq_f32(vRealB, vImagB);
 196:.\DSP\Source\ComplexMathFunctions/arm_cmplx_mag_f32.c **** 
 197:.\DSP\Source\ComplexMathFunctions/arm_cmplx_mag_f32.c ****     /* Store the result in the destination buffer. */
 198:.\DSP\Source\ComplexMathFunctions/arm_cmplx_mag_f32.c ****     vst1q_f32(pDst, __arm_vec_sqrt_f32_neon(vMagSqA));
 199:.\DSP\Source\ComplexMathFunctions/arm_cmplx_mag_f32.c ****     pDst += 4;
ARM GAS  C:\Users\IVYLIU~1\AppData\Local\Temp\ccnpFvRb.s 			page 41


 200:.\DSP\Source\ComplexMathFunctions/arm_cmplx_mag_f32.c **** 
 201:.\DSP\Source\ComplexMathFunctions/arm_cmplx_mag_f32.c ****     vst1q_f32(pDst, __arm_vec_sqrt_f32_neon(vMagSqB));
 202:.\DSP\Source\ComplexMathFunctions/arm_cmplx_mag_f32.c ****     pDst += 4;
 203:.\DSP\Source\ComplexMathFunctions/arm_cmplx_mag_f32.c **** 
 204:.\DSP\Source\ComplexMathFunctions/arm_cmplx_mag_f32.c ****     /* Decrement the loop counter */
 205:.\DSP\Source\ComplexMathFunctions/arm_cmplx_mag_f32.c ****     blkCnt--;
 206:.\DSP\Source\ComplexMathFunctions/arm_cmplx_mag_f32.c ****   }
 207:.\DSP\Source\ComplexMathFunctions/arm_cmplx_mag_f32.c **** 
 208:.\DSP\Source\ComplexMathFunctions/arm_cmplx_mag_f32.c ****   blkCnt = numSamples & 7;
 209:.\DSP\Source\ComplexMathFunctions/arm_cmplx_mag_f32.c **** 
 210:.\DSP\Source\ComplexMathFunctions/arm_cmplx_mag_f32.c **** #else
 211:.\DSP\Source\ComplexMathFunctions/arm_cmplx_mag_f32.c **** 
 212:.\DSP\Source\ComplexMathFunctions/arm_cmplx_mag_f32.c **** #if defined (ARM_MATH_LOOPUNROLL) && !defined(ARM_MATH_AUTOVECTORIZE)
 213:.\DSP\Source\ComplexMathFunctions/arm_cmplx_mag_f32.c **** 
 214:.\DSP\Source\ComplexMathFunctions/arm_cmplx_mag_f32.c ****   /* Loop unrolling: Compute 4 outputs at a time */
 215:.\DSP\Source\ComplexMathFunctions/arm_cmplx_mag_f32.c ****   blkCnt = numSamples >> 2U;
 216:.\DSP\Source\ComplexMathFunctions/arm_cmplx_mag_f32.c **** 
 217:.\DSP\Source\ComplexMathFunctions/arm_cmplx_mag_f32.c ****   while (blkCnt > 0U)
 218:.\DSP\Source\ComplexMathFunctions/arm_cmplx_mag_f32.c ****   {
 219:.\DSP\Source\ComplexMathFunctions/arm_cmplx_mag_f32.c ****     /* C[0] = sqrt(A[0] * A[0] + A[1] * A[1]) */
 220:.\DSP\Source\ComplexMathFunctions/arm_cmplx_mag_f32.c **** 
 221:.\DSP\Source\ComplexMathFunctions/arm_cmplx_mag_f32.c ****     real = *pSrc++;
 222:.\DSP\Source\ComplexMathFunctions/arm_cmplx_mag_f32.c ****     imag = *pSrc++;
 223:.\DSP\Source\ComplexMathFunctions/arm_cmplx_mag_f32.c **** 
 224:.\DSP\Source\ComplexMathFunctions/arm_cmplx_mag_f32.c ****     /* store result in destination buffer. */
 225:.\DSP\Source\ComplexMathFunctions/arm_cmplx_mag_f32.c ****     arm_sqrt_f32((real * real) + (imag * imag), pDst++);
 226:.\DSP\Source\ComplexMathFunctions/arm_cmplx_mag_f32.c **** 
 227:.\DSP\Source\ComplexMathFunctions/arm_cmplx_mag_f32.c ****     real = *pSrc++;
 228:.\DSP\Source\ComplexMathFunctions/arm_cmplx_mag_f32.c ****     imag = *pSrc++;
 229:.\DSP\Source\ComplexMathFunctions/arm_cmplx_mag_f32.c ****     arm_sqrt_f32((real * real) + (imag * imag), pDst++);
 230:.\DSP\Source\ComplexMathFunctions/arm_cmplx_mag_f32.c **** 
 231:.\DSP\Source\ComplexMathFunctions/arm_cmplx_mag_f32.c ****     real = *pSrc++;
 232:.\DSP\Source\ComplexMathFunctions/arm_cmplx_mag_f32.c ****     imag = *pSrc++;
 233:.\DSP\Source\ComplexMathFunctions/arm_cmplx_mag_f32.c ****     arm_sqrt_f32((real * real) + (imag * imag), pDst++);
 234:.\DSP\Source\ComplexMathFunctions/arm_cmplx_mag_f32.c **** 
 235:.\DSP\Source\ComplexMathFunctions/arm_cmplx_mag_f32.c ****     real = *pSrc++;
 236:.\DSP\Source\ComplexMathFunctions/arm_cmplx_mag_f32.c ****     imag = *pSrc++;
 237:.\DSP\Source\ComplexMathFunctions/arm_cmplx_mag_f32.c ****     arm_sqrt_f32((real * real) + (imag * imag), pDst++);
 238:.\DSP\Source\ComplexMathFunctions/arm_cmplx_mag_f32.c **** 
 239:.\DSP\Source\ComplexMathFunctions/arm_cmplx_mag_f32.c ****     /* Decrement loop counter */
 240:.\DSP\Source\ComplexMathFunctions/arm_cmplx_mag_f32.c ****     blkCnt--;
 241:.\DSP\Source\ComplexMathFunctions/arm_cmplx_mag_f32.c ****   }
 242:.\DSP\Source\ComplexMathFunctions/arm_cmplx_mag_f32.c **** 
 243:.\DSP\Source\ComplexMathFunctions/arm_cmplx_mag_f32.c ****   /* Loop unrolling: Compute remaining outputs */
 244:.\DSP\Source\ComplexMathFunctions/arm_cmplx_mag_f32.c ****   blkCnt = numSamples % 0x4U;
 245:.\DSP\Source\ComplexMathFunctions/arm_cmplx_mag_f32.c **** 
 246:.\DSP\Source\ComplexMathFunctions/arm_cmplx_mag_f32.c **** #else
 247:.\DSP\Source\ComplexMathFunctions/arm_cmplx_mag_f32.c **** 
 248:.\DSP\Source\ComplexMathFunctions/arm_cmplx_mag_f32.c ****   /* Initialize blkCnt with number of samples */
 249:.\DSP\Source\ComplexMathFunctions/arm_cmplx_mag_f32.c ****   blkCnt = numSamples;
 250:.\DSP\Source\ComplexMathFunctions/arm_cmplx_mag_f32.c **** 
 251:.\DSP\Source\ComplexMathFunctions/arm_cmplx_mag_f32.c **** #endif /* #if defined (ARM_MATH_LOOPUNROLL) */
 252:.\DSP\Source\ComplexMathFunctions/arm_cmplx_mag_f32.c **** #endif /* #if defined(ARM_MATH_NEON) */
 253:.\DSP\Source\ComplexMathFunctions/arm_cmplx_mag_f32.c **** 
 254:.\DSP\Source\ComplexMathFunctions/arm_cmplx_mag_f32.c ****   while (blkCnt > 0U)
 628              		.loc 7 254 0
 629 0008 1FE0     		b	.L30
ARM GAS  C:\Users\IVYLIU~1\AppData\Local\Temp\ccnpFvRb.s 			page 42


 630              	.LVL92:
 631              	.L34:
 255:.\DSP\Source\ComplexMathFunctions/arm_cmplx_mag_f32.c ****   {
 256:.\DSP\Source\ComplexMathFunctions/arm_cmplx_mag_f32.c ****     /* C[0] = sqrt(A[0] * A[0] + A[1] * A[1]) */
 257:.\DSP\Source\ComplexMathFunctions/arm_cmplx_mag_f32.c **** 
 258:.\DSP\Source\ComplexMathFunctions/arm_cmplx_mag_f32.c ****     real = *pSrc++;
 632              		.loc 7 258 0
 633 000a 0446     		mov	r4, r0
 634 000c 54F8081B 		ldr	r1, [r4], #8	@ float
 635              	.LVL93:
 259:.\DSP\Source\ComplexMathFunctions/arm_cmplx_mag_f32.c ****     imag = *pSrc++;
 636              		.loc 7 259 0
 637 0010 4768     		ldr	r7, [r0, #4]	@ float
 638              	.LVL94:
 260:.\DSP\Source\ComplexMathFunctions/arm_cmplx_mag_f32.c **** 
 261:.\DSP\Source\ComplexMathFunctions/arm_cmplx_mag_f32.c ****     /* store result in destination buffer. */
 262:.\DSP\Source\ComplexMathFunctions/arm_cmplx_mag_f32.c ****     arm_sqrt_f32((real * real) + (imag * imag), pDst++);
 639              		.loc 7 262 0
 640 0012 0846     		mov	r0, r1
 641 0014 FFF7FEFF 		bl	__aeabi_fmul
 642              	.LVL95:
 643 0018 8046     		mov	r8, r0
 644 001a 3846     		mov	r0, r7
 645 001c 3946     		mov	r1, r7
 646 001e FFF7FEFF 		bl	__aeabi_fmul
 647              	.LVL96:
 648 0022 0146     		mov	r1, r0
 649 0024 4046     		mov	r0, r8
 650 0026 FFF7FEFF 		bl	__aeabi_fadd
 651              	.LVL97:
 652 002a 8046     		mov	r8, r0
 653 002c 371D     		adds	r7, r6, #4
 654              	.LVL98:
 655              	.LBB8:
 656              	.LBB9:
 657              		.file 8 ".\\DSP\\Include/dsp/fast_math_functions.h"
   1:.\DSP\Include/dsp/fast_math_functions.h **** /******************************************************************************
   2:.\DSP\Include/dsp/fast_math_functions.h ****  * @file     fast_math_functions.h
   3:.\DSP\Include/dsp/fast_math_functions.h ****  * @brief    Public header file for CMSIS DSP Library
   4:.\DSP\Include/dsp/fast_math_functions.h ****  * @version  V1.10.0
   5:.\DSP\Include/dsp/fast_math_functions.h ****  * @date     08 July 2021
   6:.\DSP\Include/dsp/fast_math_functions.h ****  * Target Processor: Cortex-M and Cortex-A cores
   7:.\DSP\Include/dsp/fast_math_functions.h ****  ******************************************************************************/
   8:.\DSP\Include/dsp/fast_math_functions.h **** /*
   9:.\DSP\Include/dsp/fast_math_functions.h ****  * Copyright (c) 2010-2020 Arm Limited or its affiliates. All rights reserved.
  10:.\DSP\Include/dsp/fast_math_functions.h ****  *
  11:.\DSP\Include/dsp/fast_math_functions.h ****  * SPDX-License-Identifier: Apache-2.0
  12:.\DSP\Include/dsp/fast_math_functions.h ****  *
  13:.\DSP\Include/dsp/fast_math_functions.h ****  * Licensed under the Apache License, Version 2.0 (the License); you may
  14:.\DSP\Include/dsp/fast_math_functions.h ****  * not use this file except in compliance with the License.
  15:.\DSP\Include/dsp/fast_math_functions.h ****  * You may obtain a copy of the License at
  16:.\DSP\Include/dsp/fast_math_functions.h ****  *
  17:.\DSP\Include/dsp/fast_math_functions.h ****  * www.apache.org/licenses/LICENSE-2.0
  18:.\DSP\Include/dsp/fast_math_functions.h ****  *
  19:.\DSP\Include/dsp/fast_math_functions.h ****  * Unless required by applicable law or agreed to in writing, software
  20:.\DSP\Include/dsp/fast_math_functions.h ****  * distributed under the License is distributed on an AS IS BASIS, WITHOUT
  21:.\DSP\Include/dsp/fast_math_functions.h ****  * WARRANTIES OR CONDITIONS OF ANY KIND, either express or implied.
ARM GAS  C:\Users\IVYLIU~1\AppData\Local\Temp\ccnpFvRb.s 			page 43


  22:.\DSP\Include/dsp/fast_math_functions.h ****  * See the License for the specific language governing permissions and
  23:.\DSP\Include/dsp/fast_math_functions.h ****  * limitations under the License.
  24:.\DSP\Include/dsp/fast_math_functions.h ****  */
  25:.\DSP\Include/dsp/fast_math_functions.h **** 
  26:.\DSP\Include/dsp/fast_math_functions.h ****  
  27:.\DSP\Include/dsp/fast_math_functions.h **** #ifndef _FAST_MATH_FUNCTIONS_H_
  28:.\DSP\Include/dsp/fast_math_functions.h **** #define _FAST_MATH_FUNCTIONS_H_
  29:.\DSP\Include/dsp/fast_math_functions.h **** 
  30:.\DSP\Include/dsp/fast_math_functions.h **** #include "arm_math_types.h"
  31:.\DSP\Include/dsp/fast_math_functions.h **** #include "arm_math_memory.h"
  32:.\DSP\Include/dsp/fast_math_functions.h **** 
  33:.\DSP\Include/dsp/fast_math_functions.h **** #include "dsp/none.h"
  34:.\DSP\Include/dsp/fast_math_functions.h **** #include "dsp/utils.h"
  35:.\DSP\Include/dsp/fast_math_functions.h **** 
  36:.\DSP\Include/dsp/fast_math_functions.h **** #include "dsp/basic_math_functions.h"
  37:.\DSP\Include/dsp/fast_math_functions.h **** 
  38:.\DSP\Include/dsp/fast_math_functions.h **** 
  39:.\DSP\Include/dsp/fast_math_functions.h **** #ifdef   __cplusplus
  40:.\DSP\Include/dsp/fast_math_functions.h **** extern "C"
  41:.\DSP\Include/dsp/fast_math_functions.h **** {
  42:.\DSP\Include/dsp/fast_math_functions.h **** #endif
  43:.\DSP\Include/dsp/fast_math_functions.h **** 
  44:.\DSP\Include/dsp/fast_math_functions.h ****   /**
  45:.\DSP\Include/dsp/fast_math_functions.h ****    * @brief Macros required for SINE and COSINE Fast math approximations
  46:.\DSP\Include/dsp/fast_math_functions.h ****    */
  47:.\DSP\Include/dsp/fast_math_functions.h **** 
  48:.\DSP\Include/dsp/fast_math_functions.h **** #define FAST_MATH_TABLE_SIZE  512
  49:.\DSP\Include/dsp/fast_math_functions.h **** #define FAST_MATH_Q31_SHIFT   (32 - 10)
  50:.\DSP\Include/dsp/fast_math_functions.h **** #define FAST_MATH_Q15_SHIFT   (16 - 10)
  51:.\DSP\Include/dsp/fast_math_functions.h ****   
  52:.\DSP\Include/dsp/fast_math_functions.h **** #ifndef PI
  53:.\DSP\Include/dsp/fast_math_functions.h ****   #define PI               3.14159265358979f
  54:.\DSP\Include/dsp/fast_math_functions.h **** #endif
  55:.\DSP\Include/dsp/fast_math_functions.h **** 
  56:.\DSP\Include/dsp/fast_math_functions.h **** 
  57:.\DSP\Include/dsp/fast_math_functions.h **** /**
  58:.\DSP\Include/dsp/fast_math_functions.h ****  * @defgroup groupFastMath Fast Math Functions
  59:.\DSP\Include/dsp/fast_math_functions.h ****  * This set of functions provides a fast approximation to sine, cosine, and square root.
  60:.\DSP\Include/dsp/fast_math_functions.h ****  * As compared to most of the other functions in the CMSIS math library, the fast math functions
  61:.\DSP\Include/dsp/fast_math_functions.h ****  * operate on individual values and not arrays.
  62:.\DSP\Include/dsp/fast_math_functions.h ****  * There are separate functions for Q15, Q31, and floating-point data.
  63:.\DSP\Include/dsp/fast_math_functions.h ****  *
  64:.\DSP\Include/dsp/fast_math_functions.h ****  */
  65:.\DSP\Include/dsp/fast_math_functions.h **** 
  66:.\DSP\Include/dsp/fast_math_functions.h ****   /**
  67:.\DSP\Include/dsp/fast_math_functions.h ****    * @ingroup groupFastMath
  68:.\DSP\Include/dsp/fast_math_functions.h ****    */
  69:.\DSP\Include/dsp/fast_math_functions.h **** 
  70:.\DSP\Include/dsp/fast_math_functions.h **** 
  71:.\DSP\Include/dsp/fast_math_functions.h **** /**
  72:.\DSP\Include/dsp/fast_math_functions.h ****   @addtogroup sin
  73:.\DSP\Include/dsp/fast_math_functions.h ****   @{
  74:.\DSP\Include/dsp/fast_math_functions.h ****  */
  75:.\DSP\Include/dsp/fast_math_functions.h **** 
  76:.\DSP\Include/dsp/fast_math_functions.h **** /**
  77:.\DSP\Include/dsp/fast_math_functions.h ****    * @brief  Fast approximation to the trigonometric sine function for floating-point data.
  78:.\DSP\Include/dsp/fast_math_functions.h ****    * @param[in] x  input value in radians.
ARM GAS  C:\Users\IVYLIU~1\AppData\Local\Temp\ccnpFvRb.s 			page 44


  79:.\DSP\Include/dsp/fast_math_functions.h ****    * @return  sin(x).
  80:.\DSP\Include/dsp/fast_math_functions.h ****    */
  81:.\DSP\Include/dsp/fast_math_functions.h ****   float32_t arm_sin_f32(
  82:.\DSP\Include/dsp/fast_math_functions.h ****   float32_t x);
  83:.\DSP\Include/dsp/fast_math_functions.h **** 
  84:.\DSP\Include/dsp/fast_math_functions.h **** 
  85:.\DSP\Include/dsp/fast_math_functions.h ****   /**
  86:.\DSP\Include/dsp/fast_math_functions.h ****    * @brief  Fast approximation to the trigonometric sine function for Q31 data.
  87:.\DSP\Include/dsp/fast_math_functions.h ****    * @param[in] x  Scaled input value in radians.
  88:.\DSP\Include/dsp/fast_math_functions.h ****    * @return  sin(x).
  89:.\DSP\Include/dsp/fast_math_functions.h ****    */
  90:.\DSP\Include/dsp/fast_math_functions.h ****   q31_t arm_sin_q31(
  91:.\DSP\Include/dsp/fast_math_functions.h ****   q31_t x);
  92:.\DSP\Include/dsp/fast_math_functions.h **** 
  93:.\DSP\Include/dsp/fast_math_functions.h **** 
  94:.\DSP\Include/dsp/fast_math_functions.h ****   /**
  95:.\DSP\Include/dsp/fast_math_functions.h ****    * @brief  Fast approximation to the trigonometric sine function for Q15 data.
  96:.\DSP\Include/dsp/fast_math_functions.h ****    * @param[in] x  Scaled input value in radians.
  97:.\DSP\Include/dsp/fast_math_functions.h ****    * @return  sin(x).
  98:.\DSP\Include/dsp/fast_math_functions.h ****    */
  99:.\DSP\Include/dsp/fast_math_functions.h ****   q15_t arm_sin_q15(
 100:.\DSP\Include/dsp/fast_math_functions.h ****   q15_t x);
 101:.\DSP\Include/dsp/fast_math_functions.h **** 
 102:.\DSP\Include/dsp/fast_math_functions.h **** /**
 103:.\DSP\Include/dsp/fast_math_functions.h ****   @} end of sin group
 104:.\DSP\Include/dsp/fast_math_functions.h ****  */
 105:.\DSP\Include/dsp/fast_math_functions.h **** 
 106:.\DSP\Include/dsp/fast_math_functions.h **** /**
 107:.\DSP\Include/dsp/fast_math_functions.h ****   @addtogroup cos
 108:.\DSP\Include/dsp/fast_math_functions.h ****   @{
 109:.\DSP\Include/dsp/fast_math_functions.h ****  */
 110:.\DSP\Include/dsp/fast_math_functions.h **** 
 111:.\DSP\Include/dsp/fast_math_functions.h ****   /**
 112:.\DSP\Include/dsp/fast_math_functions.h ****    * @brief  Fast approximation to the trigonometric cosine function for floating-point data.
 113:.\DSP\Include/dsp/fast_math_functions.h ****    * @param[in] x  input value in radians.
 114:.\DSP\Include/dsp/fast_math_functions.h ****    * @return  cos(x).
 115:.\DSP\Include/dsp/fast_math_functions.h ****    */
 116:.\DSP\Include/dsp/fast_math_functions.h ****   float32_t arm_cos_f32(
 117:.\DSP\Include/dsp/fast_math_functions.h ****   float32_t x);
 118:.\DSP\Include/dsp/fast_math_functions.h **** 
 119:.\DSP\Include/dsp/fast_math_functions.h **** 
 120:.\DSP\Include/dsp/fast_math_functions.h ****   /**
 121:.\DSP\Include/dsp/fast_math_functions.h ****    * @brief Fast approximation to the trigonometric cosine function for Q31 data.
 122:.\DSP\Include/dsp/fast_math_functions.h ****    * @param[in] x  Scaled input value in radians.
 123:.\DSP\Include/dsp/fast_math_functions.h ****    * @return  cos(x).
 124:.\DSP\Include/dsp/fast_math_functions.h ****    */
 125:.\DSP\Include/dsp/fast_math_functions.h ****   q31_t arm_cos_q31(
 126:.\DSP\Include/dsp/fast_math_functions.h ****   q31_t x);
 127:.\DSP\Include/dsp/fast_math_functions.h **** 
 128:.\DSP\Include/dsp/fast_math_functions.h **** 
 129:.\DSP\Include/dsp/fast_math_functions.h ****   /**
 130:.\DSP\Include/dsp/fast_math_functions.h ****    * @brief  Fast approximation to the trigonometric cosine function for Q15 data.
 131:.\DSP\Include/dsp/fast_math_functions.h ****    * @param[in] x  Scaled input value in radians.
 132:.\DSP\Include/dsp/fast_math_functions.h ****    * @return  cos(x).
 133:.\DSP\Include/dsp/fast_math_functions.h ****    */
 134:.\DSP\Include/dsp/fast_math_functions.h ****   q15_t arm_cos_q15(
 135:.\DSP\Include/dsp/fast_math_functions.h ****   q15_t x);
ARM GAS  C:\Users\IVYLIU~1\AppData\Local\Temp\ccnpFvRb.s 			page 45


 136:.\DSP\Include/dsp/fast_math_functions.h **** 
 137:.\DSP\Include/dsp/fast_math_functions.h **** /**
 138:.\DSP\Include/dsp/fast_math_functions.h ****   @} end of cos group
 139:.\DSP\Include/dsp/fast_math_functions.h ****  */
 140:.\DSP\Include/dsp/fast_math_functions.h **** 
 141:.\DSP\Include/dsp/fast_math_functions.h **** 
 142:.\DSP\Include/dsp/fast_math_functions.h **** /**
 143:.\DSP\Include/dsp/fast_math_functions.h ****   @brief         Floating-point vector of log values.
 144:.\DSP\Include/dsp/fast_math_functions.h ****   @param[in]     pSrc       points to the input vector
 145:.\DSP\Include/dsp/fast_math_functions.h ****   @param[out]    pDst       points to the output vector
 146:.\DSP\Include/dsp/fast_math_functions.h ****   @param[in]     blockSize  number of samples in each vector
 147:.\DSP\Include/dsp/fast_math_functions.h ****   @return        none
 148:.\DSP\Include/dsp/fast_math_functions.h ****  */
 149:.\DSP\Include/dsp/fast_math_functions.h ****   void arm_vlog_f32(
 150:.\DSP\Include/dsp/fast_math_functions.h ****   const float32_t * pSrc,
 151:.\DSP\Include/dsp/fast_math_functions.h ****         float32_t * pDst,
 152:.\DSP\Include/dsp/fast_math_functions.h ****         uint32_t blockSize);
 153:.\DSP\Include/dsp/fast_math_functions.h **** 
 154:.\DSP\Include/dsp/fast_math_functions.h **** 
 155:.\DSP\Include/dsp/fast_math_functions.h **** 
 156:.\DSP\Include/dsp/fast_math_functions.h **** /**
 157:.\DSP\Include/dsp/fast_math_functions.h ****   @brief         Floating-point vector of log values.
 158:.\DSP\Include/dsp/fast_math_functions.h ****   @param[in]     pSrc       points to the input vector
 159:.\DSP\Include/dsp/fast_math_functions.h ****   @param[out]    pDst       points to the output vector
 160:.\DSP\Include/dsp/fast_math_functions.h ****   @param[in]     blockSize  number of samples in each vector
 161:.\DSP\Include/dsp/fast_math_functions.h ****   @return        none
 162:.\DSP\Include/dsp/fast_math_functions.h ****  */
 163:.\DSP\Include/dsp/fast_math_functions.h ****   void arm_vlog_f64(
 164:.\DSP\Include/dsp/fast_math_functions.h ****   const float64_t * pSrc,
 165:.\DSP\Include/dsp/fast_math_functions.h **** 		float64_t * pDst,
 166:.\DSP\Include/dsp/fast_math_functions.h **** 		uint32_t blockSize);
 167:.\DSP\Include/dsp/fast_math_functions.h **** 
 168:.\DSP\Include/dsp/fast_math_functions.h **** 
 169:.\DSP\Include/dsp/fast_math_functions.h **** 
 170:.\DSP\Include/dsp/fast_math_functions.h ****   /**
 171:.\DSP\Include/dsp/fast_math_functions.h ****    * @brief  q31 vector of log values.
 172:.\DSP\Include/dsp/fast_math_functions.h ****    * @param[in]     pSrc       points to the input vector in q31
 173:.\DSP\Include/dsp/fast_math_functions.h ****    * @param[out]    pDst       points to the output vector in q5.26
 174:.\DSP\Include/dsp/fast_math_functions.h ****    * @param[in]     blockSize  number of samples in each vector
 175:.\DSP\Include/dsp/fast_math_functions.h ****    * @return        none
 176:.\DSP\Include/dsp/fast_math_functions.h ****    */
 177:.\DSP\Include/dsp/fast_math_functions.h ****   void arm_vlog_q31(const q31_t * pSrc,
 178:.\DSP\Include/dsp/fast_math_functions.h ****         q31_t * pDst,
 179:.\DSP\Include/dsp/fast_math_functions.h ****         uint32_t blockSize);
 180:.\DSP\Include/dsp/fast_math_functions.h **** 
 181:.\DSP\Include/dsp/fast_math_functions.h ****   /**
 182:.\DSP\Include/dsp/fast_math_functions.h ****    * @brief  q15 vector of log values.
 183:.\DSP\Include/dsp/fast_math_functions.h ****    * @param[in]     pSrc       points to the input vector in q15
 184:.\DSP\Include/dsp/fast_math_functions.h ****    * @param[out]    pDst       points to the output vector in q4.11
 185:.\DSP\Include/dsp/fast_math_functions.h ****    * @param[in]     blockSize  number of samples in each vector
 186:.\DSP\Include/dsp/fast_math_functions.h ****    * @return        none
 187:.\DSP\Include/dsp/fast_math_functions.h ****    */
 188:.\DSP\Include/dsp/fast_math_functions.h ****   void arm_vlog_q15(const q15_t * pSrc,
 189:.\DSP\Include/dsp/fast_math_functions.h ****         q15_t * pDst,
 190:.\DSP\Include/dsp/fast_math_functions.h ****         uint32_t blockSize);
 191:.\DSP\Include/dsp/fast_math_functions.h **** 
 192:.\DSP\Include/dsp/fast_math_functions.h **** 
ARM GAS  C:\Users\IVYLIU~1\AppData\Local\Temp\ccnpFvRb.s 			page 46


 193:.\DSP\Include/dsp/fast_math_functions.h **** 
 194:.\DSP\Include/dsp/fast_math_functions.h **** /**
 195:.\DSP\Include/dsp/fast_math_functions.h ****   @brief         Floating-point vector of exp values.
 196:.\DSP\Include/dsp/fast_math_functions.h ****   @param[in]     pSrc       points to the input vector
 197:.\DSP\Include/dsp/fast_math_functions.h ****   @param[out]    pDst       points to the output vector
 198:.\DSP\Include/dsp/fast_math_functions.h ****   @param[in]     blockSize  number of samples in each vector
 199:.\DSP\Include/dsp/fast_math_functions.h ****   @return        none
 200:.\DSP\Include/dsp/fast_math_functions.h ****  */
 201:.\DSP\Include/dsp/fast_math_functions.h ****   void arm_vexp_f32(
 202:.\DSP\Include/dsp/fast_math_functions.h ****   const float32_t * pSrc,
 203:.\DSP\Include/dsp/fast_math_functions.h ****         float32_t * pDst,
 204:.\DSP\Include/dsp/fast_math_functions.h ****         uint32_t blockSize);
 205:.\DSP\Include/dsp/fast_math_functions.h **** 
 206:.\DSP\Include/dsp/fast_math_functions.h **** 
 207:.\DSP\Include/dsp/fast_math_functions.h **** 
 208:.\DSP\Include/dsp/fast_math_functions.h **** /**
 209:.\DSP\Include/dsp/fast_math_functions.h ****   @brief         Floating-point vector of exp values.
 210:.\DSP\Include/dsp/fast_math_functions.h ****   @param[in]     pSrc       points to the input vector
 211:.\DSP\Include/dsp/fast_math_functions.h ****   @param[out]    pDst       points to the output vector
 212:.\DSP\Include/dsp/fast_math_functions.h ****   @param[in]     blockSize  number of samples in each vector
 213:.\DSP\Include/dsp/fast_math_functions.h ****   @return        none
 214:.\DSP\Include/dsp/fast_math_functions.h ****  */
 215:.\DSP\Include/dsp/fast_math_functions.h ****   void arm_vexp_f64(
 216:.\DSP\Include/dsp/fast_math_functions.h ****   const float64_t * pSrc,
 217:.\DSP\Include/dsp/fast_math_functions.h **** 		float64_t * pDst,
 218:.\DSP\Include/dsp/fast_math_functions.h **** 		uint32_t blockSize);
 219:.\DSP\Include/dsp/fast_math_functions.h **** 
 220:.\DSP\Include/dsp/fast_math_functions.h **** 
 221:.\DSP\Include/dsp/fast_math_functions.h **** 
 222:.\DSP\Include/dsp/fast_math_functions.h ****  /**
 223:.\DSP\Include/dsp/fast_math_functions.h ****    * @defgroup SQRT Square Root
 224:.\DSP\Include/dsp/fast_math_functions.h ****    *
 225:.\DSP\Include/dsp/fast_math_functions.h ****    * Computes the square root of a number.
 226:.\DSP\Include/dsp/fast_math_functions.h ****    * There are separate functions for Q15, Q31, and floating-point data types.
 227:.\DSP\Include/dsp/fast_math_functions.h ****    * The square root function is computed using the Newton-Raphson algorithm.
 228:.\DSP\Include/dsp/fast_math_functions.h ****    * This is an iterative algorithm of the form:
 229:.\DSP\Include/dsp/fast_math_functions.h ****    * <pre>
 230:.\DSP\Include/dsp/fast_math_functions.h ****    *      x1 = x0 - f(x0)/f'(x0)
 231:.\DSP\Include/dsp/fast_math_functions.h ****    * </pre>
 232:.\DSP\Include/dsp/fast_math_functions.h ****    * where <code>x1</code> is the current estimate,
 233:.\DSP\Include/dsp/fast_math_functions.h ****    * <code>x0</code> is the previous estimate, and
 234:.\DSP\Include/dsp/fast_math_functions.h ****    * <code>f'(x0)</code> is the derivative of <code>f()</code> evaluated at <code>x0</code>.
 235:.\DSP\Include/dsp/fast_math_functions.h ****    * For the square root function, the algorithm reduces to:
 236:.\DSP\Include/dsp/fast_math_functions.h ****    * <pre>
 237:.\DSP\Include/dsp/fast_math_functions.h ****    *     x0 = in/2                         [initial guess]
 238:.\DSP\Include/dsp/fast_math_functions.h ****    *     x1 = 1/2 * ( x0 + in / x0)        [each iteration]
 239:.\DSP\Include/dsp/fast_math_functions.h ****    * </pre>
 240:.\DSP\Include/dsp/fast_math_functions.h ****    */
 241:.\DSP\Include/dsp/fast_math_functions.h **** 
 242:.\DSP\Include/dsp/fast_math_functions.h **** 
 243:.\DSP\Include/dsp/fast_math_functions.h ****   /**
 244:.\DSP\Include/dsp/fast_math_functions.h ****    * @addtogroup SQRT
 245:.\DSP\Include/dsp/fast_math_functions.h ****    * @{
 246:.\DSP\Include/dsp/fast_math_functions.h ****    */
 247:.\DSP\Include/dsp/fast_math_functions.h **** 
 248:.\DSP\Include/dsp/fast_math_functions.h **** /**
 249:.\DSP\Include/dsp/fast_math_functions.h ****   @brief         Floating-point square root function.
ARM GAS  C:\Users\IVYLIU~1\AppData\Local\Temp\ccnpFvRb.s 			page 47


 250:.\DSP\Include/dsp/fast_math_functions.h ****   @param[in]     in    input value
 251:.\DSP\Include/dsp/fast_math_functions.h ****   @param[out]    pOut  square root of input value
 252:.\DSP\Include/dsp/fast_math_functions.h ****   @return        execution status
 253:.\DSP\Include/dsp/fast_math_functions.h ****                    - \ref ARM_MATH_SUCCESS        : input value is positive
 254:.\DSP\Include/dsp/fast_math_functions.h ****                    - \ref ARM_MATH_ARGUMENT_ERROR : input value is negative; *pOut is set to 0
 255:.\DSP\Include/dsp/fast_math_functions.h ****  */
 256:.\DSP\Include/dsp/fast_math_functions.h **** __STATIC_FORCEINLINE arm_status arm_sqrt_f32(
 257:.\DSP\Include/dsp/fast_math_functions.h ****   const float32_t in,
 258:.\DSP\Include/dsp/fast_math_functions.h ****   float32_t * pOut)
 259:.\DSP\Include/dsp/fast_math_functions.h ****   {
 260:.\DSP\Include/dsp/fast_math_functions.h ****     if (in >= 0.0f)
 658              		.loc 8 260 0
 659 002e 0021     		movs	r1, #0
 660 0030 FFF7FEFF 		bl	__aeabi_fcmpge
 661              	.LVL99:
 662 0034 20B1     		cbz	r0, .L37
 261:.\DSP\Include/dsp/fast_math_functions.h ****     {
 262:.\DSP\Include/dsp/fast_math_functions.h **** #if defined ( __CC_ARM )
 263:.\DSP\Include/dsp/fast_math_functions.h ****   #if defined __TARGET_FPU_VFP
 264:.\DSP\Include/dsp/fast_math_functions.h ****       *pOut = __sqrtf(in);
 265:.\DSP\Include/dsp/fast_math_functions.h ****   #else
 266:.\DSP\Include/dsp/fast_math_functions.h ****       *pOut = sqrtf(in);
 267:.\DSP\Include/dsp/fast_math_functions.h ****   #endif
 268:.\DSP\Include/dsp/fast_math_functions.h **** 
 269:.\DSP\Include/dsp/fast_math_functions.h **** #elif defined ( __ICCARM__ )
 270:.\DSP\Include/dsp/fast_math_functions.h ****   #if defined __ARMVFP__
 271:.\DSP\Include/dsp/fast_math_functions.h ****       __ASM("VSQRT.F32 %0,%1" : "=t"(*pOut) : "t"(in));
 272:.\DSP\Include/dsp/fast_math_functions.h ****   #else
 273:.\DSP\Include/dsp/fast_math_functions.h ****       *pOut = sqrtf(in);
 274:.\DSP\Include/dsp/fast_math_functions.h ****   #endif
 275:.\DSP\Include/dsp/fast_math_functions.h **** 
 276:.\DSP\Include/dsp/fast_math_functions.h **** #else
 277:.\DSP\Include/dsp/fast_math_functions.h ****       *pOut = sqrtf(in);
 663              		.loc 8 277 0
 664 0036 4046     		mov	r0, r8
 665 0038 FFF7FEFF 		bl	sqrtf
 666              	.LVL100:
 667 003c 3060     		str	r0, [r6]	@ float
 668 003e 01E0     		b	.L36
 669              	.L37:
 278:.\DSP\Include/dsp/fast_math_functions.h **** #endif
 279:.\DSP\Include/dsp/fast_math_functions.h **** 
 280:.\DSP\Include/dsp/fast_math_functions.h ****       return (ARM_MATH_SUCCESS);
 281:.\DSP\Include/dsp/fast_math_functions.h ****     }
 282:.\DSP\Include/dsp/fast_math_functions.h ****     else
 283:.\DSP\Include/dsp/fast_math_functions.h ****     {
 284:.\DSP\Include/dsp/fast_math_functions.h ****       *pOut = 0.0f;
 670              		.loc 8 284 0
 671 0040 0023     		movs	r3, #0
 672 0042 3360     		str	r3, [r6]	@ float
 673              	.L36:
 674              	.LBE9:
 675              	.LBE8:
 263:.\DSP\Source\ComplexMathFunctions/arm_cmplx_mag_f32.c **** 
 264:.\DSP\Source\ComplexMathFunctions/arm_cmplx_mag_f32.c ****     /* Decrement loop counter */
 265:.\DSP\Source\ComplexMathFunctions/arm_cmplx_mag_f32.c ****     blkCnt--;
 676              		.loc 7 265 0
ARM GAS  C:\Users\IVYLIU~1\AppData\Local\Temp\ccnpFvRb.s 			page 48


 677 0044 013D     		subs	r5, r5, #1
 678              	.LVL101:
 262:.\DSP\Source\ComplexMathFunctions/arm_cmplx_mag_f32.c **** 
 679              		.loc 7 262 0
 680 0046 3E46     		mov	r6, r7
 681              	.LVL102:
 259:.\DSP\Source\ComplexMathFunctions/arm_cmplx_mag_f32.c **** 
 682              		.loc 7 259 0
 683 0048 2046     		mov	r0, r4
 684              	.LVL103:
 685              	.L30:
 254:.\DSP\Source\ComplexMathFunctions/arm_cmplx_mag_f32.c ****   {
 686              		.loc 7 254 0
 687 004a 002D     		cmp	r5, #0
 688 004c DDD1     		bne	.L34
 266:.\DSP\Source\ComplexMathFunctions/arm_cmplx_mag_f32.c ****   }
 267:.\DSP\Source\ComplexMathFunctions/arm_cmplx_mag_f32.c **** 
 268:.\DSP\Source\ComplexMathFunctions/arm_cmplx_mag_f32.c **** }
 689              		.loc 7 268 0
 690 004e BDE8F081 		pop	{r4, r5, r6, r7, r8, pc}
 691              		.cfi_endproc
 692              	.LFE90:
 693              		.size	arm_cmplx_mag_f32, .-arm_cmplx_mag_f32
 694              		.global	__aeabi_dmul
 695              		.global	__aeabi_dadd
 696 0052 00BF     		.section	.text.arm_cmplx_mag_f64,"ax",%progbits
 697              		.align	2
 698              		.global	arm_cmplx_mag_f64
 699              		.thumb
 700              		.thumb_func
 701              		.type	arm_cmplx_mag_f64, %function
 702              	arm_cmplx_mag_f64:
 703              	.LFB91:
 704              		.file 9 ".\\DSP\\Source\\ComplexMathFunctions\\arm_cmplx_mag_f64.c"
   1:.\DSP\Source\ComplexMathFunctions/arm_cmplx_mag_f64.c **** /* ----------------------------------------------------------------------
   2:.\DSP\Source\ComplexMathFunctions/arm_cmplx_mag_f64.c ****  * Project:      CMSIS DSP Library
   3:.\DSP\Source\ComplexMathFunctions/arm_cmplx_mag_f64.c ****  * Title:        arm_cmplx_mag_f64.c
   4:.\DSP\Source\ComplexMathFunctions/arm_cmplx_mag_f64.c ****  * Description:  Floating-point complex magnitude
   5:.\DSP\Source\ComplexMathFunctions/arm_cmplx_mag_f64.c ****  *
   6:.\DSP\Source\ComplexMathFunctions/arm_cmplx_mag_f64.c ****  * $Date:        13 September 2021
   7:.\DSP\Source\ComplexMathFunctions/arm_cmplx_mag_f64.c ****  * $Revision:    V1.10.0
   8:.\DSP\Source\ComplexMathFunctions/arm_cmplx_mag_f64.c ****  *
   9:.\DSP\Source\ComplexMathFunctions/arm_cmplx_mag_f64.c ****  * Target Processor: Cortex-M and Cortex-A cores
  10:.\DSP\Source\ComplexMathFunctions/arm_cmplx_mag_f64.c ****  * -------------------------------------------------------------------- */
  11:.\DSP\Source\ComplexMathFunctions/arm_cmplx_mag_f64.c **** /*
  12:.\DSP\Source\ComplexMathFunctions/arm_cmplx_mag_f64.c ****  * Copyright (C) 2010-2021 ARM Limited or its affiliates. All rights reserved.
  13:.\DSP\Source\ComplexMathFunctions/arm_cmplx_mag_f64.c ****  *
  14:.\DSP\Source\ComplexMathFunctions/arm_cmplx_mag_f64.c ****  * SPDX-License-Identifier: Apache-2.0
  15:.\DSP\Source\ComplexMathFunctions/arm_cmplx_mag_f64.c ****  *
  16:.\DSP\Source\ComplexMathFunctions/arm_cmplx_mag_f64.c ****  * Licensed under the Apache License, Version 2.0 (the License); you may
  17:.\DSP\Source\ComplexMathFunctions/arm_cmplx_mag_f64.c ****  * not use this file except in compliance with the License.
  18:.\DSP\Source\ComplexMathFunctions/arm_cmplx_mag_f64.c ****  * You may obtain a copy of the License at
  19:.\DSP\Source\ComplexMathFunctions/arm_cmplx_mag_f64.c ****  *
  20:.\DSP\Source\ComplexMathFunctions/arm_cmplx_mag_f64.c ****  * www.apache.org/licenses/LICENSE-2.0
  21:.\DSP\Source\ComplexMathFunctions/arm_cmplx_mag_f64.c ****  *
  22:.\DSP\Source\ComplexMathFunctions/arm_cmplx_mag_f64.c ****  * Unless required by applicable law or agreed to in writing, software
  23:.\DSP\Source\ComplexMathFunctions/arm_cmplx_mag_f64.c ****  * distributed under the License is distributed on an AS IS BASIS, WITHOUT
ARM GAS  C:\Users\IVYLIU~1\AppData\Local\Temp\ccnpFvRb.s 			page 49


  24:.\DSP\Source\ComplexMathFunctions/arm_cmplx_mag_f64.c ****  * WARRANTIES OR CONDITIONS OF ANY KIND, either express or implied.
  25:.\DSP\Source\ComplexMathFunctions/arm_cmplx_mag_f64.c ****  * See the License for the specific language governing permissions and
  26:.\DSP\Source\ComplexMathFunctions/arm_cmplx_mag_f64.c ****  * limitations under the License.
  27:.\DSP\Source\ComplexMathFunctions/arm_cmplx_mag_f64.c ****  */
  28:.\DSP\Source\ComplexMathFunctions/arm_cmplx_mag_f64.c **** 
  29:.\DSP\Source\ComplexMathFunctions/arm_cmplx_mag_f64.c **** #include "dsp/complex_math_functions.h"
  30:.\DSP\Source\ComplexMathFunctions/arm_cmplx_mag_f64.c **** 
  31:.\DSP\Source\ComplexMathFunctions/arm_cmplx_mag_f64.c **** /**
  32:.\DSP\Source\ComplexMathFunctions/arm_cmplx_mag_f64.c ****   @ingroup groupCmplxMath
  33:.\DSP\Source\ComplexMathFunctions/arm_cmplx_mag_f64.c ****  */
  34:.\DSP\Source\ComplexMathFunctions/arm_cmplx_mag_f64.c **** 
  35:.\DSP\Source\ComplexMathFunctions/arm_cmplx_mag_f64.c **** /**
  36:.\DSP\Source\ComplexMathFunctions/arm_cmplx_mag_f64.c ****   @defgroup cmplx_mag Complex Magnitude
  37:.\DSP\Source\ComplexMathFunctions/arm_cmplx_mag_f64.c **** 
  38:.\DSP\Source\ComplexMathFunctions/arm_cmplx_mag_f64.c ****   Computes the magnitude of the elements of a complex data vector.
  39:.\DSP\Source\ComplexMathFunctions/arm_cmplx_mag_f64.c **** 
  40:.\DSP\Source\ComplexMathFunctions/arm_cmplx_mag_f64.c ****   The <code>pSrc</code> points to the source data and
  41:.\DSP\Source\ComplexMathFunctions/arm_cmplx_mag_f64.c ****   <code>pDst</code> points to the where the result should be written.
  42:.\DSP\Source\ComplexMathFunctions/arm_cmplx_mag_f64.c ****   <code>numSamples</code> specifies the number of complex samples
  43:.\DSP\Source\ComplexMathFunctions/arm_cmplx_mag_f64.c ****   in the input array and the data is stored in an interleaved fashion
  44:.\DSP\Source\ComplexMathFunctions/arm_cmplx_mag_f64.c ****   (real, imag, real, imag, ...).
  45:.\DSP\Source\ComplexMathFunctions/arm_cmplx_mag_f64.c ****   The input array has a total of <code>2*numSamples</code> values;
  46:.\DSP\Source\ComplexMathFunctions/arm_cmplx_mag_f64.c ****   the output array has a total of <code>numSamples</code> values.
  47:.\DSP\Source\ComplexMathFunctions/arm_cmplx_mag_f64.c **** 
  48:.\DSP\Source\ComplexMathFunctions/arm_cmplx_mag_f64.c ****   The underlying algorithm is used:
  49:.\DSP\Source\ComplexMathFunctions/arm_cmplx_mag_f64.c **** 
  50:.\DSP\Source\ComplexMathFunctions/arm_cmplx_mag_f64.c ****   <pre>
  51:.\DSP\Source\ComplexMathFunctions/arm_cmplx_mag_f64.c ****   for (n = 0; n < numSamples; n++) {
  52:.\DSP\Source\ComplexMathFunctions/arm_cmplx_mag_f64.c ****       pDst[n] = sqrt(pSrc[(2*n)+0]^2 + pSrc[(2*n)+1]^2);
  53:.\DSP\Source\ComplexMathFunctions/arm_cmplx_mag_f64.c ****   }
  54:.\DSP\Source\ComplexMathFunctions/arm_cmplx_mag_f64.c ****   </pre>
  55:.\DSP\Source\ComplexMathFunctions/arm_cmplx_mag_f64.c **** 
  56:.\DSP\Source\ComplexMathFunctions/arm_cmplx_mag_f64.c ****   There are separate functions for floating-point, Q15, and Q31 data types.
  57:.\DSP\Source\ComplexMathFunctions/arm_cmplx_mag_f64.c ****  */
  58:.\DSP\Source\ComplexMathFunctions/arm_cmplx_mag_f64.c **** 
  59:.\DSP\Source\ComplexMathFunctions/arm_cmplx_mag_f64.c **** /**
  60:.\DSP\Source\ComplexMathFunctions/arm_cmplx_mag_f64.c ****   @addtogroup cmplx_mag
  61:.\DSP\Source\ComplexMathFunctions/arm_cmplx_mag_f64.c ****   @{
  62:.\DSP\Source\ComplexMathFunctions/arm_cmplx_mag_f64.c ****  */
  63:.\DSP\Source\ComplexMathFunctions/arm_cmplx_mag_f64.c **** 
  64:.\DSP\Source\ComplexMathFunctions/arm_cmplx_mag_f64.c **** /**
  65:.\DSP\Source\ComplexMathFunctions/arm_cmplx_mag_f64.c ****   @brief         Floating-point complex magnitude.
  66:.\DSP\Source\ComplexMathFunctions/arm_cmplx_mag_f64.c ****   @param[in]     pSrc        points to input vector
  67:.\DSP\Source\ComplexMathFunctions/arm_cmplx_mag_f64.c ****   @param[out]    pDst        points to output vector
  68:.\DSP\Source\ComplexMathFunctions/arm_cmplx_mag_f64.c ****   @param[in]     numSamples  number of samples in each vector
  69:.\DSP\Source\ComplexMathFunctions/arm_cmplx_mag_f64.c ****   @return        none
  70:.\DSP\Source\ComplexMathFunctions/arm_cmplx_mag_f64.c ****  */
  71:.\DSP\Source\ComplexMathFunctions/arm_cmplx_mag_f64.c **** void arm_cmplx_mag_f64(
  72:.\DSP\Source\ComplexMathFunctions/arm_cmplx_mag_f64.c ****   const float64_t * pSrc,
  73:.\DSP\Source\ComplexMathFunctions/arm_cmplx_mag_f64.c ****         float64_t * pDst,
  74:.\DSP\Source\ComplexMathFunctions/arm_cmplx_mag_f64.c ****         uint32_t numSamples)
  75:.\DSP\Source\ComplexMathFunctions/arm_cmplx_mag_f64.c **** {
 705              		.loc 9 75 0
 706              		.cfi_startproc
 707              		@ args = 0, pretend = 0, frame = 0
 708              		@ frame_needed = 0, uses_anonymous_args = 0
 709              	.LVL104:
ARM GAS  C:\Users\IVYLIU~1\AppData\Local\Temp\ccnpFvRb.s 			page 50


 710 0000 2DE9F84F 		push	{r3, r4, r5, r6, r7, r8, r9, r10, fp, lr}
 711              		.cfi_def_cfa_offset 40
 712              		.cfi_offset 3, -40
 713              		.cfi_offset 4, -36
 714              		.cfi_offset 5, -32
 715              		.cfi_offset 6, -28
 716              		.cfi_offset 7, -24
 717              		.cfi_offset 8, -20
 718              		.cfi_offset 9, -16
 719              		.cfi_offset 10, -12
 720              		.cfi_offset 11, -8
 721              		.cfi_offset 14, -4
 722 0004 8A46     		mov	r10, r1
 723 0006 1546     		mov	r5, r2
 724              	.LVL105:
  76:.\DSP\Source\ComplexMathFunctions/arm_cmplx_mag_f64.c ****   uint32_t blkCnt;                               /* loop counter */
  77:.\DSP\Source\ComplexMathFunctions/arm_cmplx_mag_f64.c ****   float64_t real, imag;                      /* Temporary variables to hold input values */
  78:.\DSP\Source\ComplexMathFunctions/arm_cmplx_mag_f64.c **** 
  79:.\DSP\Source\ComplexMathFunctions/arm_cmplx_mag_f64.c ****   /* Initialize blkCnt with number of samples */
  80:.\DSP\Source\ComplexMathFunctions/arm_cmplx_mag_f64.c ****   blkCnt = numSamples;
  81:.\DSP\Source\ComplexMathFunctions/arm_cmplx_mag_f64.c **** 
  82:.\DSP\Source\ComplexMathFunctions/arm_cmplx_mag_f64.c ****   while (blkCnt > 0U)
 725              		.loc 9 82 0
 726 0008 21E0     		b	.L40
 727              	.LVL106:
 728              	.L41:
  83:.\DSP\Source\ComplexMathFunctions/arm_cmplx_mag_f64.c ****   {
  84:.\DSP\Source\ComplexMathFunctions/arm_cmplx_mag_f64.c ****     /* C[0] = sqrt(A[0] * A[0] + A[1] * A[1]) */
  85:.\DSP\Source\ComplexMathFunctions/arm_cmplx_mag_f64.c **** 
  86:.\DSP\Source\ComplexMathFunctions/arm_cmplx_mag_f64.c ****     real = *pSrc++;
 729              		.loc 9 86 0
 730 000a 0446     		mov	r4, r0
 731 000c F4E80423 		ldrd	r2, [r4], #16
 732              	.LVL107:
  87:.\DSP\Source\ComplexMathFunctions/arm_cmplx_mag_f64.c ****     imag = *pSrc++;
 733              		.loc 9 87 0
 734 0010 D0E90289 		ldrd	r8, [r0, #8]
 735              	.LVL108:
  88:.\DSP\Source\ComplexMathFunctions/arm_cmplx_mag_f64.c **** 
  89:.\DSP\Source\ComplexMathFunctions/arm_cmplx_mag_f64.c ****     /* store result in destination buffer. */
  90:.\DSP\Source\ComplexMathFunctions/arm_cmplx_mag_f64.c ****     *pDst++ = sqrt((real * real) + (imag * imag));
 736              		.loc 9 90 0
 737 0014 0AF1080B 		add	fp, r10, #8
 738              	.LVL109:
 739 0018 1046     		mov	r0, r2
 740 001a 1946     		mov	r1, r3
 741 001c FFF7FEFF 		bl	__aeabi_dmul
 742              	.LVL110:
 743 0020 0646     		mov	r6, r0
 744 0022 0F46     		mov	r7, r1
 745 0024 4046     		mov	r0, r8
 746 0026 4946     		mov	r1, r9
 747 0028 4246     		mov	r2, r8
 748 002a 4B46     		mov	r3, r9
 749 002c FFF7FEFF 		bl	__aeabi_dmul
 750              	.LVL111:
 751 0030 8046     		mov	r8, r0
ARM GAS  C:\Users\IVYLIU~1\AppData\Local\Temp\ccnpFvRb.s 			page 51


 752              	.LVL112:
 753 0032 8946     		mov	r9, r1
 754 0034 3046     		mov	r0, r6
 755 0036 3946     		mov	r1, r7
 756 0038 4246     		mov	r2, r8
 757 003a 4B46     		mov	r3, r9
 758 003c FFF7FEFF 		bl	__aeabi_dadd
 759              	.LVL113:
 760 0040 FFF7FEFF 		bl	sqrt
 761              	.LVL114:
 762 0044 CAE90001 		strd	r0, [r10]
  91:.\DSP\Source\ComplexMathFunctions/arm_cmplx_mag_f64.c **** 
  92:.\DSP\Source\ComplexMathFunctions/arm_cmplx_mag_f64.c ****     /* Decrement loop counter */
  93:.\DSP\Source\ComplexMathFunctions/arm_cmplx_mag_f64.c ****     blkCnt--;
 763              		.loc 9 93 0
 764 0048 013D     		subs	r5, r5, #1
 765              	.LVL115:
  90:.\DSP\Source\ComplexMathFunctions/arm_cmplx_mag_f64.c **** 
 766              		.loc 9 90 0
 767 004a DA46     		mov	r10, fp
  87:.\DSP\Source\ComplexMathFunctions/arm_cmplx_mag_f64.c **** 
 768              		.loc 9 87 0
 769 004c 2046     		mov	r0, r4
 770              	.LVL116:
 771              	.L40:
  82:.\DSP\Source\ComplexMathFunctions/arm_cmplx_mag_f64.c ****   {
 772              		.loc 9 82 0
 773 004e 002D     		cmp	r5, #0
 774 0050 DBD1     		bne	.L41
  94:.\DSP\Source\ComplexMathFunctions/arm_cmplx_mag_f64.c ****   }
  95:.\DSP\Source\ComplexMathFunctions/arm_cmplx_mag_f64.c **** 
  96:.\DSP\Source\ComplexMathFunctions/arm_cmplx_mag_f64.c **** }
 775              		.loc 9 96 0
 776 0052 BDE8F88F 		pop	{r3, r4, r5, r6, r7, r8, r9, r10, fp, pc}
 777              		.cfi_endproc
 778              	.LFE91:
 779              		.size	arm_cmplx_mag_f64, .-arm_cmplx_mag_f64
 780 0056 00BF     		.section	.text.arm_cmplx_mag_q15,"ax",%progbits
 781              		.align	2
 782              		.global	arm_cmplx_mag_q15
 783              		.thumb
 784              		.thumb_func
 785              		.type	arm_cmplx_mag_q15, %function
 786              	arm_cmplx_mag_q15:
 787              	.LFB92:
 788              		.file 10 ".\\DSP\\Source\\ComplexMathFunctions\\arm_cmplx_mag_q15.c"
   1:.\DSP\Source\ComplexMathFunctions/arm_cmplx_mag_q15.c **** /* ----------------------------------------------------------------------
   2:.\DSP\Source\ComplexMathFunctions/arm_cmplx_mag_q15.c ****  * Project:      CMSIS DSP Library
   3:.\DSP\Source\ComplexMathFunctions/arm_cmplx_mag_q15.c ****  * Title:        arm_cmplx_mag_q15.c
   4:.\DSP\Source\ComplexMathFunctions/arm_cmplx_mag_q15.c ****  * Description:  Q15 complex magnitude
   5:.\DSP\Source\ComplexMathFunctions/arm_cmplx_mag_q15.c ****  *
   6:.\DSP\Source\ComplexMathFunctions/arm_cmplx_mag_q15.c ****  * $Date:        23 April 2021
   7:.\DSP\Source\ComplexMathFunctions/arm_cmplx_mag_q15.c ****  * $Revision:    V1.9.0
   8:.\DSP\Source\ComplexMathFunctions/arm_cmplx_mag_q15.c ****  *
   9:.\DSP\Source\ComplexMathFunctions/arm_cmplx_mag_q15.c ****  * Target Processor: Cortex-M and Cortex-A cores
  10:.\DSP\Source\ComplexMathFunctions/arm_cmplx_mag_q15.c ****  * -------------------------------------------------------------------- */
  11:.\DSP\Source\ComplexMathFunctions/arm_cmplx_mag_q15.c **** /*
ARM GAS  C:\Users\IVYLIU~1\AppData\Local\Temp\ccnpFvRb.s 			page 52


  12:.\DSP\Source\ComplexMathFunctions/arm_cmplx_mag_q15.c ****  * Copyright (C) 2010-2021 ARM Limited or its affiliates. All rights reserved.
  13:.\DSP\Source\ComplexMathFunctions/arm_cmplx_mag_q15.c ****  *
  14:.\DSP\Source\ComplexMathFunctions/arm_cmplx_mag_q15.c ****  * SPDX-License-Identifier: Apache-2.0
  15:.\DSP\Source\ComplexMathFunctions/arm_cmplx_mag_q15.c ****  *
  16:.\DSP\Source\ComplexMathFunctions/arm_cmplx_mag_q15.c ****  * Licensed under the Apache License, Version 2.0 (the License); you may
  17:.\DSP\Source\ComplexMathFunctions/arm_cmplx_mag_q15.c ****  * not use this file except in compliance with the License.
  18:.\DSP\Source\ComplexMathFunctions/arm_cmplx_mag_q15.c ****  * You may obtain a copy of the License at
  19:.\DSP\Source\ComplexMathFunctions/arm_cmplx_mag_q15.c ****  *
  20:.\DSP\Source\ComplexMathFunctions/arm_cmplx_mag_q15.c ****  * www.apache.org/licenses/LICENSE-2.0
  21:.\DSP\Source\ComplexMathFunctions/arm_cmplx_mag_q15.c ****  *
  22:.\DSP\Source\ComplexMathFunctions/arm_cmplx_mag_q15.c ****  * Unless required by applicable law or agreed to in writing, software
  23:.\DSP\Source\ComplexMathFunctions/arm_cmplx_mag_q15.c ****  * distributed under the License is distributed on an AS IS BASIS, WITHOUT
  24:.\DSP\Source\ComplexMathFunctions/arm_cmplx_mag_q15.c ****  * WARRANTIES OR CONDITIONS OF ANY KIND, either express or implied.
  25:.\DSP\Source\ComplexMathFunctions/arm_cmplx_mag_q15.c ****  * See the License for the specific language governing permissions and
  26:.\DSP\Source\ComplexMathFunctions/arm_cmplx_mag_q15.c ****  * limitations under the License.
  27:.\DSP\Source\ComplexMathFunctions/arm_cmplx_mag_q15.c ****  */
  28:.\DSP\Source\ComplexMathFunctions/arm_cmplx_mag_q15.c **** 
  29:.\DSP\Source\ComplexMathFunctions/arm_cmplx_mag_q15.c **** #include "dsp/complex_math_functions.h"
  30:.\DSP\Source\ComplexMathFunctions/arm_cmplx_mag_q15.c **** 
  31:.\DSP\Source\ComplexMathFunctions/arm_cmplx_mag_q15.c **** /**
  32:.\DSP\Source\ComplexMathFunctions/arm_cmplx_mag_q15.c ****   @ingroup groupCmplxMath
  33:.\DSP\Source\ComplexMathFunctions/arm_cmplx_mag_q15.c ****  */
  34:.\DSP\Source\ComplexMathFunctions/arm_cmplx_mag_q15.c **** 
  35:.\DSP\Source\ComplexMathFunctions/arm_cmplx_mag_q15.c **** /**
  36:.\DSP\Source\ComplexMathFunctions/arm_cmplx_mag_q15.c ****   @addtogroup cmplx_mag
  37:.\DSP\Source\ComplexMathFunctions/arm_cmplx_mag_q15.c ****   @{
  38:.\DSP\Source\ComplexMathFunctions/arm_cmplx_mag_q15.c ****  */
  39:.\DSP\Source\ComplexMathFunctions/arm_cmplx_mag_q15.c **** 
  40:.\DSP\Source\ComplexMathFunctions/arm_cmplx_mag_q15.c **** /**
  41:.\DSP\Source\ComplexMathFunctions/arm_cmplx_mag_q15.c ****   @brief         Q15 complex magnitude.
  42:.\DSP\Source\ComplexMathFunctions/arm_cmplx_mag_q15.c ****   @param[in]     pSrc        points to input vector
  43:.\DSP\Source\ComplexMathFunctions/arm_cmplx_mag_q15.c ****   @param[out]    pDst        points to output vector
  44:.\DSP\Source\ComplexMathFunctions/arm_cmplx_mag_q15.c ****   @param[in]     numSamples  number of samples in each vector
  45:.\DSP\Source\ComplexMathFunctions/arm_cmplx_mag_q15.c ****   @return        none
  46:.\DSP\Source\ComplexMathFunctions/arm_cmplx_mag_q15.c **** 
  47:.\DSP\Source\ComplexMathFunctions/arm_cmplx_mag_q15.c ****   @par           Scaling and Overflow Behavior
  48:.\DSP\Source\ComplexMathFunctions/arm_cmplx_mag_q15.c ****                    The function implements 1.15 by 1.15 multiplications and finally output is conve
  49:.\DSP\Source\ComplexMathFunctions/arm_cmplx_mag_q15.c ****  */
  50:.\DSP\Source\ComplexMathFunctions/arm_cmplx_mag_q15.c **** 
  51:.\DSP\Source\ComplexMathFunctions/arm_cmplx_mag_q15.c **** /* Sqrt q31 is used otherwise accuracy is not good enough
  52:.\DSP\Source\ComplexMathFunctions/arm_cmplx_mag_q15.c ****            for small values and for some applications it is
  53:.\DSP\Source\ComplexMathFunctions/arm_cmplx_mag_q15.c ****            an issue.
  54:.\DSP\Source\ComplexMathFunctions/arm_cmplx_mag_q15.c ****         */
  55:.\DSP\Source\ComplexMathFunctions/arm_cmplx_mag_q15.c **** #if defined(ARM_MATH_MVEI) && !defined(ARM_MATH_AUTOVECTORIZE)
  56:.\DSP\Source\ComplexMathFunctions/arm_cmplx_mag_q15.c **** 
  57:.\DSP\Source\ComplexMathFunctions/arm_cmplx_mag_q15.c **** #include "arm_helium_utils.h"
  58:.\DSP\Source\ComplexMathFunctions/arm_cmplx_mag_q15.c **** 
  59:.\DSP\Source\ComplexMathFunctions/arm_cmplx_mag_q15.c **** void arm_cmplx_mag_q15(
  60:.\DSP\Source\ComplexMathFunctions/arm_cmplx_mag_q15.c ****   const q15_t * pSrc,
  61:.\DSP\Source\ComplexMathFunctions/arm_cmplx_mag_q15.c ****         q15_t * pDst,
  62:.\DSP\Source\ComplexMathFunctions/arm_cmplx_mag_q15.c ****         uint32_t numSamples)
  63:.\DSP\Source\ComplexMathFunctions/arm_cmplx_mag_q15.c **** {
  64:.\DSP\Source\ComplexMathFunctions/arm_cmplx_mag_q15.c **** 
  65:.\DSP\Source\ComplexMathFunctions/arm_cmplx_mag_q15.c ****     int32_t blockSize = numSamples;  /* loop counters */
  66:.\DSP\Source\ComplexMathFunctions/arm_cmplx_mag_q15.c ****     uint32_t  blkCnt;           /* loop counters */
  67:.\DSP\Source\ComplexMathFunctions/arm_cmplx_mag_q15.c ****     q15x8x2_t vecSrc;
  68:.\DSP\Source\ComplexMathFunctions/arm_cmplx_mag_q15.c ****     q31x4_t prod0;
ARM GAS  C:\Users\IVYLIU~1\AppData\Local\Temp\ccnpFvRb.s 			page 53


  69:.\DSP\Source\ComplexMathFunctions/arm_cmplx_mag_q15.c ****     q31x4_t prod1;
  70:.\DSP\Source\ComplexMathFunctions/arm_cmplx_mag_q15.c **** 
  71:.\DSP\Source\ComplexMathFunctions/arm_cmplx_mag_q15.c ****     q31_t in;
  72:.\DSP\Source\ComplexMathFunctions/arm_cmplx_mag_q15.c ****     q31_t acc0;
  73:.\DSP\Source\ComplexMathFunctions/arm_cmplx_mag_q15.c ****     q31x4_t acc0V;
  74:.\DSP\Source\ComplexMathFunctions/arm_cmplx_mag_q15.c ****     q31x4_t acc1V;
  75:.\DSP\Source\ComplexMathFunctions/arm_cmplx_mag_q15.c **** 
  76:.\DSP\Source\ComplexMathFunctions/arm_cmplx_mag_q15.c ****     q31_t res;
  77:.\DSP\Source\ComplexMathFunctions/arm_cmplx_mag_q15.c ****     q15x8_t resV;
  78:.\DSP\Source\ComplexMathFunctions/arm_cmplx_mag_q15.c **** 
  79:.\DSP\Source\ComplexMathFunctions/arm_cmplx_mag_q15.c ****     blkCnt = blockSize >> 3;
  80:.\DSP\Source\ComplexMathFunctions/arm_cmplx_mag_q15.c ****     while (blkCnt > 0U)
  81:.\DSP\Source\ComplexMathFunctions/arm_cmplx_mag_q15.c ****     {
  82:.\DSP\Source\ComplexMathFunctions/arm_cmplx_mag_q15.c ****         vecSrc = vld2q(pSrc);  
  83:.\DSP\Source\ComplexMathFunctions/arm_cmplx_mag_q15.c ****         pSrc += 16;
  84:.\DSP\Source\ComplexMathFunctions/arm_cmplx_mag_q15.c **** 
  85:.\DSP\Source\ComplexMathFunctions/arm_cmplx_mag_q15.c ****         acc0V = vdupq_n_s32(0);
  86:.\DSP\Source\ComplexMathFunctions/arm_cmplx_mag_q15.c ****         acc1V = vdupq_n_s32(0);
  87:.\DSP\Source\ComplexMathFunctions/arm_cmplx_mag_q15.c **** 
  88:.\DSP\Source\ComplexMathFunctions/arm_cmplx_mag_q15.c ****         prod0 = vmullbq_int_s16(vecSrc.val[0], vecSrc.val[0]);
  89:.\DSP\Source\ComplexMathFunctions/arm_cmplx_mag_q15.c ****         acc0V = vqaddq_s32(acc0V,prod0);
  90:.\DSP\Source\ComplexMathFunctions/arm_cmplx_mag_q15.c **** 
  91:.\DSP\Source\ComplexMathFunctions/arm_cmplx_mag_q15.c ****         prod0 = vmullbq_int_s16(vecSrc.val[1], vecSrc.val[1]);
  92:.\DSP\Source\ComplexMathFunctions/arm_cmplx_mag_q15.c ****         acc0V = vqaddq_s32(acc0V,prod0);
  93:.\DSP\Source\ComplexMathFunctions/arm_cmplx_mag_q15.c **** 
  94:.\DSP\Source\ComplexMathFunctions/arm_cmplx_mag_q15.c **** 
  95:.\DSP\Source\ComplexMathFunctions/arm_cmplx_mag_q15.c ****         prod1 = vmulltq_int_s16(vecSrc.val[0], vecSrc.val[0]);
  96:.\DSP\Source\ComplexMathFunctions/arm_cmplx_mag_q15.c ****         acc1V = vqaddq_s32(acc1V,prod1);
  97:.\DSP\Source\ComplexMathFunctions/arm_cmplx_mag_q15.c **** 
  98:.\DSP\Source\ComplexMathFunctions/arm_cmplx_mag_q15.c ****         prod1 = vmulltq_int_s16(vecSrc.val[1], vecSrc.val[1]);
  99:.\DSP\Source\ComplexMathFunctions/arm_cmplx_mag_q15.c ****         acc1V = vqaddq_s32(acc1V,prod1);
 100:.\DSP\Source\ComplexMathFunctions/arm_cmplx_mag_q15.c **** 
 101:.\DSP\Source\ComplexMathFunctions/arm_cmplx_mag_q15.c ****        
 102:.\DSP\Source\ComplexMathFunctions/arm_cmplx_mag_q15.c **** 
 103:.\DSP\Source\ComplexMathFunctions/arm_cmplx_mag_q15.c ****         acc0V = vshrq(acc0V, 1);
 104:.\DSP\Source\ComplexMathFunctions/arm_cmplx_mag_q15.c ****         acc1V = vshrq(acc1V, 1);
 105:.\DSP\Source\ComplexMathFunctions/arm_cmplx_mag_q15.c **** 
 106:.\DSP\Source\ComplexMathFunctions/arm_cmplx_mag_q15.c ****         acc0V = FAST_VSQRT_Q31(acc0V);
 107:.\DSP\Source\ComplexMathFunctions/arm_cmplx_mag_q15.c ****         acc1V = FAST_VSQRT_Q31(acc1V);
 108:.\DSP\Source\ComplexMathFunctions/arm_cmplx_mag_q15.c **** 
 109:.\DSP\Source\ComplexMathFunctions/arm_cmplx_mag_q15.c ****         resV = vdupq_n_s16(0);
 110:.\DSP\Source\ComplexMathFunctions/arm_cmplx_mag_q15.c ****         resV = vqshrnbq_n_s32(resV,acc0V,16);
 111:.\DSP\Source\ComplexMathFunctions/arm_cmplx_mag_q15.c ****         resV = vqshrntq_n_s32(resV,acc1V,16);
 112:.\DSP\Source\ComplexMathFunctions/arm_cmplx_mag_q15.c **** 
 113:.\DSP\Source\ComplexMathFunctions/arm_cmplx_mag_q15.c ****         vst1q(pDst, resV); 
 114:.\DSP\Source\ComplexMathFunctions/arm_cmplx_mag_q15.c ****         pDst += 8;
 115:.\DSP\Source\ComplexMathFunctions/arm_cmplx_mag_q15.c ****         /*
 116:.\DSP\Source\ComplexMathFunctions/arm_cmplx_mag_q15.c ****          * Decrement the blockSize loop counter
 117:.\DSP\Source\ComplexMathFunctions/arm_cmplx_mag_q15.c ****          */
 118:.\DSP\Source\ComplexMathFunctions/arm_cmplx_mag_q15.c ****         blkCnt--;
 119:.\DSP\Source\ComplexMathFunctions/arm_cmplx_mag_q15.c ****     }
 120:.\DSP\Source\ComplexMathFunctions/arm_cmplx_mag_q15.c **** 
 121:.\DSP\Source\ComplexMathFunctions/arm_cmplx_mag_q15.c ****     /*
 122:.\DSP\Source\ComplexMathFunctions/arm_cmplx_mag_q15.c ****      * tail
 123:.\DSP\Source\ComplexMathFunctions/arm_cmplx_mag_q15.c ****      */
 124:.\DSP\Source\ComplexMathFunctions/arm_cmplx_mag_q15.c ****     blkCnt = blockSize & 7;
 125:.\DSP\Source\ComplexMathFunctions/arm_cmplx_mag_q15.c **** 
ARM GAS  C:\Users\IVYLIU~1\AppData\Local\Temp\ccnpFvRb.s 			page 54


 126:.\DSP\Source\ComplexMathFunctions/arm_cmplx_mag_q15.c ****     while (blkCnt > 0U)
 127:.\DSP\Source\ComplexMathFunctions/arm_cmplx_mag_q15.c ****     {
 128:.\DSP\Source\ComplexMathFunctions/arm_cmplx_mag_q15.c ****       /* C[0] = sqrt(A[0] * A[0] + A[1] * A[1]) */
 129:.\DSP\Source\ComplexMathFunctions/arm_cmplx_mag_q15.c ****   
 130:.\DSP\Source\ComplexMathFunctions/arm_cmplx_mag_q15.c ****       in = read_q15x2_ia ((q15_t **) &pSrc);
 131:.\DSP\Source\ComplexMathFunctions/arm_cmplx_mag_q15.c ****       acc0 = __SMUAD(in, in);
 132:.\DSP\Source\ComplexMathFunctions/arm_cmplx_mag_q15.c ****   
 133:.\DSP\Source\ComplexMathFunctions/arm_cmplx_mag_q15.c ****       /* store result in 2.14 format in destination buffer. */
 134:.\DSP\Source\ComplexMathFunctions/arm_cmplx_mag_q15.c ****       arm_sqrt_q31(acc0  >> 1 , &res);
 135:.\DSP\Source\ComplexMathFunctions/arm_cmplx_mag_q15.c ****       *pDst++ = res >> 16;
 136:.\DSP\Source\ComplexMathFunctions/arm_cmplx_mag_q15.c ****   
 137:.\DSP\Source\ComplexMathFunctions/arm_cmplx_mag_q15.c ****   
 138:.\DSP\Source\ComplexMathFunctions/arm_cmplx_mag_q15.c ****       /* Decrement loop counter */
 139:.\DSP\Source\ComplexMathFunctions/arm_cmplx_mag_q15.c ****       blkCnt--;
 140:.\DSP\Source\ComplexMathFunctions/arm_cmplx_mag_q15.c ****     }
 141:.\DSP\Source\ComplexMathFunctions/arm_cmplx_mag_q15.c **** }
 142:.\DSP\Source\ComplexMathFunctions/arm_cmplx_mag_q15.c **** 
 143:.\DSP\Source\ComplexMathFunctions/arm_cmplx_mag_q15.c **** #else
 144:.\DSP\Source\ComplexMathFunctions/arm_cmplx_mag_q15.c **** void arm_cmplx_mag_q15(
 145:.\DSP\Source\ComplexMathFunctions/arm_cmplx_mag_q15.c ****   const q15_t * pSrc,
 146:.\DSP\Source\ComplexMathFunctions/arm_cmplx_mag_q15.c ****         q15_t * pDst,
 147:.\DSP\Source\ComplexMathFunctions/arm_cmplx_mag_q15.c ****         uint32_t numSamples)
 148:.\DSP\Source\ComplexMathFunctions/arm_cmplx_mag_q15.c **** {
 789              		.loc 10 148 0
 790              		.cfi_startproc
 791              		@ args = 0, pretend = 0, frame = 8
 792              		@ frame_needed = 0, uses_anonymous_args = 0
 793              	.LVL117:
 794 0000 70B5     		push	{r4, r5, r6, lr}
 795              		.cfi_def_cfa_offset 16
 796              		.cfi_offset 4, -16
 797              		.cfi_offset 5, -12
 798              		.cfi_offset 6, -8
 799              		.cfi_offset 14, -4
 800 0002 82B0     		sub	sp, sp, #8
 801              		.cfi_def_cfa_offset 24
 802 0004 0E46     		mov	r6, r1
 803 0006 1546     		mov	r5, r2
 804              	.LVL118:
 149:.\DSP\Source\ComplexMathFunctions/arm_cmplx_mag_q15.c ****         q31_t res; /* temporary result */
 150:.\DSP\Source\ComplexMathFunctions/arm_cmplx_mag_q15.c ****         uint32_t blkCnt;                               /* Loop counter */
 151:.\DSP\Source\ComplexMathFunctions/arm_cmplx_mag_q15.c **** 
 152:.\DSP\Source\ComplexMathFunctions/arm_cmplx_mag_q15.c **** #if defined (ARM_MATH_DSP)
 153:.\DSP\Source\ComplexMathFunctions/arm_cmplx_mag_q15.c ****         q31_t in;
 154:.\DSP\Source\ComplexMathFunctions/arm_cmplx_mag_q15.c ****         q31_t acc0;                                    /* Accumulators */
 155:.\DSP\Source\ComplexMathFunctions/arm_cmplx_mag_q15.c **** #else
 156:.\DSP\Source\ComplexMathFunctions/arm_cmplx_mag_q15.c ****        q15_t real, imag;                              /* Temporary input variables */
 157:.\DSP\Source\ComplexMathFunctions/arm_cmplx_mag_q15.c ****        q31_t acc0, acc1;                              /* Accumulators */
 158:.\DSP\Source\ComplexMathFunctions/arm_cmplx_mag_q15.c **** #endif
 159:.\DSP\Source\ComplexMathFunctions/arm_cmplx_mag_q15.c **** 
 160:.\DSP\Source\ComplexMathFunctions/arm_cmplx_mag_q15.c **** #if defined (ARM_MATH_LOOPUNROLL)
 161:.\DSP\Source\ComplexMathFunctions/arm_cmplx_mag_q15.c **** 
 162:.\DSP\Source\ComplexMathFunctions/arm_cmplx_mag_q15.c ****   /* Loop unrolling: Compute 4 outputs at a time */
 163:.\DSP\Source\ComplexMathFunctions/arm_cmplx_mag_q15.c ****   blkCnt = numSamples >> 2U;
 164:.\DSP\Source\ComplexMathFunctions/arm_cmplx_mag_q15.c **** 
 165:.\DSP\Source\ComplexMathFunctions/arm_cmplx_mag_q15.c ****   while (blkCnt > 0U)
 166:.\DSP\Source\ComplexMathFunctions/arm_cmplx_mag_q15.c ****   {
ARM GAS  C:\Users\IVYLIU~1\AppData\Local\Temp\ccnpFvRb.s 			page 55


 167:.\DSP\Source\ComplexMathFunctions/arm_cmplx_mag_q15.c ****     /* C[0] = sqrt(A[0] * A[0] + A[1] * A[1]) */
 168:.\DSP\Source\ComplexMathFunctions/arm_cmplx_mag_q15.c **** 
 169:.\DSP\Source\ComplexMathFunctions/arm_cmplx_mag_q15.c **** #if defined (ARM_MATH_DSP)
 170:.\DSP\Source\ComplexMathFunctions/arm_cmplx_mag_q15.c ****     in = read_q15x2_ia (&pSrc);
 171:.\DSP\Source\ComplexMathFunctions/arm_cmplx_mag_q15.c ****     acc0 = __SMUAD(in, in);
 172:.\DSP\Source\ComplexMathFunctions/arm_cmplx_mag_q15.c ****     /* store result in 2.14 format in destination buffer. */
 173:.\DSP\Source\ComplexMathFunctions/arm_cmplx_mag_q15.c ****     arm_sqrt_q31(acc0  >> 1 , &res);
 174:.\DSP\Source\ComplexMathFunctions/arm_cmplx_mag_q15.c ****     *pDst++ = res >> 16;
 175:.\DSP\Source\ComplexMathFunctions/arm_cmplx_mag_q15.c **** 
 176:.\DSP\Source\ComplexMathFunctions/arm_cmplx_mag_q15.c ****     in = read_q15x2_ia (&pSrc);
 177:.\DSP\Source\ComplexMathFunctions/arm_cmplx_mag_q15.c ****     acc0 = __SMUAD(in, in);
 178:.\DSP\Source\ComplexMathFunctions/arm_cmplx_mag_q15.c ****     arm_sqrt_q31(acc0  >> 1 , &res);
 179:.\DSP\Source\ComplexMathFunctions/arm_cmplx_mag_q15.c ****     *pDst++ = res >> 16;
 180:.\DSP\Source\ComplexMathFunctions/arm_cmplx_mag_q15.c **** 
 181:.\DSP\Source\ComplexMathFunctions/arm_cmplx_mag_q15.c ****     in = read_q15x2_ia (&pSrc);
 182:.\DSP\Source\ComplexMathFunctions/arm_cmplx_mag_q15.c ****     acc0 = __SMUAD(in, in);
 183:.\DSP\Source\ComplexMathFunctions/arm_cmplx_mag_q15.c ****     arm_sqrt_q31(acc0  >> 1 , &res);
 184:.\DSP\Source\ComplexMathFunctions/arm_cmplx_mag_q15.c ****     *pDst++ = res >> 16;
 185:.\DSP\Source\ComplexMathFunctions/arm_cmplx_mag_q15.c **** 
 186:.\DSP\Source\ComplexMathFunctions/arm_cmplx_mag_q15.c ****     in = read_q15x2_ia (&pSrc);
 187:.\DSP\Source\ComplexMathFunctions/arm_cmplx_mag_q15.c ****     acc0 = __SMUAD(in, in);
 188:.\DSP\Source\ComplexMathFunctions/arm_cmplx_mag_q15.c ****     arm_sqrt_q31(acc0  >> 1 , &res);
 189:.\DSP\Source\ComplexMathFunctions/arm_cmplx_mag_q15.c ****     *pDst++ = res >> 16;
 190:.\DSP\Source\ComplexMathFunctions/arm_cmplx_mag_q15.c **** #else
 191:.\DSP\Source\ComplexMathFunctions/arm_cmplx_mag_q15.c ****     real = *pSrc++;
 192:.\DSP\Source\ComplexMathFunctions/arm_cmplx_mag_q15.c ****     imag = *pSrc++;
 193:.\DSP\Source\ComplexMathFunctions/arm_cmplx_mag_q15.c ****     acc0 = ((q31_t) real * real);
 194:.\DSP\Source\ComplexMathFunctions/arm_cmplx_mag_q15.c ****     acc1 = ((q31_t) imag * imag);
 195:.\DSP\Source\ComplexMathFunctions/arm_cmplx_mag_q15.c **** 
 196:.\DSP\Source\ComplexMathFunctions/arm_cmplx_mag_q15.c ****     /* store result in 2.14 format in destination buffer. */
 197:.\DSP\Source\ComplexMathFunctions/arm_cmplx_mag_q15.c ****     arm_sqrt_q31((acc0 + acc1) >> 1 , &res);
 198:.\DSP\Source\ComplexMathFunctions/arm_cmplx_mag_q15.c ****     *pDst++ = res >> 16;
 199:.\DSP\Source\ComplexMathFunctions/arm_cmplx_mag_q15.c **** 
 200:.\DSP\Source\ComplexMathFunctions/arm_cmplx_mag_q15.c ****     real = *pSrc++;
 201:.\DSP\Source\ComplexMathFunctions/arm_cmplx_mag_q15.c ****     imag = *pSrc++;
 202:.\DSP\Source\ComplexMathFunctions/arm_cmplx_mag_q15.c ****     acc0 = ((q31_t) real * real);
 203:.\DSP\Source\ComplexMathFunctions/arm_cmplx_mag_q15.c ****     acc1 = ((q31_t) imag * imag);
 204:.\DSP\Source\ComplexMathFunctions/arm_cmplx_mag_q15.c ****     arm_sqrt_q31((acc0 + acc1) >> 1 , &res);
 205:.\DSP\Source\ComplexMathFunctions/arm_cmplx_mag_q15.c ****     *pDst++ = res >> 16;
 206:.\DSP\Source\ComplexMathFunctions/arm_cmplx_mag_q15.c **** 
 207:.\DSP\Source\ComplexMathFunctions/arm_cmplx_mag_q15.c ****     real = *pSrc++;
 208:.\DSP\Source\ComplexMathFunctions/arm_cmplx_mag_q15.c ****     imag = *pSrc++;
 209:.\DSP\Source\ComplexMathFunctions/arm_cmplx_mag_q15.c ****     acc0 = ((q31_t) real * real);
 210:.\DSP\Source\ComplexMathFunctions/arm_cmplx_mag_q15.c ****     acc1 = ((q31_t) imag * imag);
 211:.\DSP\Source\ComplexMathFunctions/arm_cmplx_mag_q15.c ****     arm_sqrt_q31((acc0 + acc1) >> 1 , &res);
 212:.\DSP\Source\ComplexMathFunctions/arm_cmplx_mag_q15.c ****     *pDst++ = res >> 16;
 213:.\DSP\Source\ComplexMathFunctions/arm_cmplx_mag_q15.c **** 
 214:.\DSP\Source\ComplexMathFunctions/arm_cmplx_mag_q15.c ****     real = *pSrc++;
 215:.\DSP\Source\ComplexMathFunctions/arm_cmplx_mag_q15.c ****     imag = *pSrc++;
 216:.\DSP\Source\ComplexMathFunctions/arm_cmplx_mag_q15.c ****     acc0 = ((q31_t) real * real);
 217:.\DSP\Source\ComplexMathFunctions/arm_cmplx_mag_q15.c ****     acc1 = ((q31_t) imag * imag);
 218:.\DSP\Source\ComplexMathFunctions/arm_cmplx_mag_q15.c ****     arm_sqrt_q31((acc0 + acc1) >> 1 , &res);
 219:.\DSP\Source\ComplexMathFunctions/arm_cmplx_mag_q15.c ****     *pDst++ = res >> 16;
 220:.\DSP\Source\ComplexMathFunctions/arm_cmplx_mag_q15.c **** #endif /* #if defined (ARM_MATH_DSP) */
 221:.\DSP\Source\ComplexMathFunctions/arm_cmplx_mag_q15.c **** 
 222:.\DSP\Source\ComplexMathFunctions/arm_cmplx_mag_q15.c ****     /* Decrement loop counter */
 223:.\DSP\Source\ComplexMathFunctions/arm_cmplx_mag_q15.c ****     blkCnt--;
ARM GAS  C:\Users\IVYLIU~1\AppData\Local\Temp\ccnpFvRb.s 			page 56


 224:.\DSP\Source\ComplexMathFunctions/arm_cmplx_mag_q15.c ****   }
 225:.\DSP\Source\ComplexMathFunctions/arm_cmplx_mag_q15.c **** 
 226:.\DSP\Source\ComplexMathFunctions/arm_cmplx_mag_q15.c ****   /* Loop unrolling: Compute remaining outputs */
 227:.\DSP\Source\ComplexMathFunctions/arm_cmplx_mag_q15.c ****   blkCnt = numSamples % 0x4U;
 228:.\DSP\Source\ComplexMathFunctions/arm_cmplx_mag_q15.c **** 
 229:.\DSP\Source\ComplexMathFunctions/arm_cmplx_mag_q15.c **** #else
 230:.\DSP\Source\ComplexMathFunctions/arm_cmplx_mag_q15.c **** 
 231:.\DSP\Source\ComplexMathFunctions/arm_cmplx_mag_q15.c ****   /* Initialize blkCnt with number of samples */
 232:.\DSP\Source\ComplexMathFunctions/arm_cmplx_mag_q15.c ****   blkCnt = numSamples;
 233:.\DSP\Source\ComplexMathFunctions/arm_cmplx_mag_q15.c **** 
 234:.\DSP\Source\ComplexMathFunctions/arm_cmplx_mag_q15.c **** #endif /* #if defined (ARM_MATH_LOOPUNROLL) */
 235:.\DSP\Source\ComplexMathFunctions/arm_cmplx_mag_q15.c **** 
 236:.\DSP\Source\ComplexMathFunctions/arm_cmplx_mag_q15.c ****   while (blkCnt > 0U)
 805              		.loc 10 236 0
 806 0008 12E0     		b	.L44
 807              	.LVL119:
 808              	.L45:
 237:.\DSP\Source\ComplexMathFunctions/arm_cmplx_mag_q15.c ****   {
 238:.\DSP\Source\ComplexMathFunctions/arm_cmplx_mag_q15.c ****     /* C[0] = sqrt(A[0] * A[0] + A[1] * A[1]) */
 239:.\DSP\Source\ComplexMathFunctions/arm_cmplx_mag_q15.c **** 
