ARM GAS  C:\Users\IVYLIU~1\AppData\Local\Temp\ccrR58bi.s 			page 1


   1              		.syntax unified
   2              		.cpu cortex-m3
   3              		.fpu softvfp
   4              		.eabi_attribute 20, 1
   5              		.eabi_attribute 21, 1
   6              		.eabi_attribute 23, 3
   7              		.eabi_attribute 24, 1
   8              		.eabi_attribute 25, 1
   9              		.eabi_attribute 26, 1
  10              		.eabi_attribute 30, 1
  11              		.eabi_attribute 34, 1
  12              		.eabi_attribute 18, 4
  13              		.thumb
  14              		.file	"cyfitter_cfg.c"
  15              		.text
  16              	.Ltext0:
  17              		.cfi_sections	.debug_frame
  18              		.section	.text.CyClockStartupError,"ax",%progbits
  19              		.align	2
  20              		.thumb
  21              		.thumb_func
  22              		.type	CyClockStartupError, %function
  23              	CyClockStartupError:
  24              	.LFB3:
  25              		.file 1 ".\\Generated_Source\\PSoC5\\cyfitter_cfg.c"
   1:.\Generated_Source\PSoC5/cyfitter_cfg.c **** /*******************************************************************************
   2:.\Generated_Source\PSoC5/cyfitter_cfg.c **** * File Name: cyfitter_cfg.c
   3:.\Generated_Source\PSoC5/cyfitter_cfg.c **** * 
   4:.\Generated_Source\PSoC5/cyfitter_cfg.c **** * PSoC Creator  3.3 CP3
   5:.\Generated_Source\PSoC5/cyfitter_cfg.c **** *
   6:.\Generated_Source\PSoC5/cyfitter_cfg.c **** * Description:
   7:.\Generated_Source\PSoC5/cyfitter_cfg.c **** * This file contains device initialization code.
   8:.\Generated_Source\PSoC5/cyfitter_cfg.c **** * Except for the user defined sections in CyClockStartupError(), this file should not be modified.
   9:.\Generated_Source\PSoC5/cyfitter_cfg.c **** * This file is automatically generated by PSoC Creator.
  10:.\Generated_Source\PSoC5/cyfitter_cfg.c **** *
  11:.\Generated_Source\PSoC5/cyfitter_cfg.c **** ********************************************************************************
  12:.\Generated_Source\PSoC5/cyfitter_cfg.c **** * Copyright (c) 2007-2016 Cypress Semiconductor.  All rights reserved.
  13:.\Generated_Source\PSoC5/cyfitter_cfg.c **** * You may use this file only in accordance with the license, terms, conditions, 
  14:.\Generated_Source\PSoC5/cyfitter_cfg.c **** * disclaimers, and limitations in the end user license agreement accompanying 
  15:.\Generated_Source\PSoC5/cyfitter_cfg.c **** * the software package with which this file was provided.
  16:.\Generated_Source\PSoC5/cyfitter_cfg.c **** ********************************************************************************/
  17:.\Generated_Source\PSoC5/cyfitter_cfg.c **** 
  18:.\Generated_Source\PSoC5/cyfitter_cfg.c **** #include <string.h>
  19:.\Generated_Source\PSoC5/cyfitter_cfg.c **** #include "cytypes.h"
  20:.\Generated_Source\PSoC5/cyfitter_cfg.c **** #include "cydevice_trm.h"
  21:.\Generated_Source\PSoC5/cyfitter_cfg.c **** #include "cyfitter.h"
  22:.\Generated_Source\PSoC5/cyfitter_cfg.c **** #include "CyLib.h"
  23:.\Generated_Source\PSoC5/cyfitter_cfg.c **** #include "cyfitter_cfg.h"
  24:.\Generated_Source\PSoC5/cyfitter_cfg.c **** 
  25:.\Generated_Source\PSoC5/cyfitter_cfg.c **** #define CY_NEED_CYCLOCKSTARTUPERROR 1
  26:.\Generated_Source\PSoC5/cyfitter_cfg.c **** 
  27:.\Generated_Source\PSoC5/cyfitter_cfg.c **** 
  28:.\Generated_Source\PSoC5/cyfitter_cfg.c **** #if defined(__GNUC__) || defined(__ARMCC_VERSION)
  29:.\Generated_Source\PSoC5/cyfitter_cfg.c ****     #define CYPACKED 
  30:.\Generated_Source\PSoC5/cyfitter_cfg.c ****     #define CYPACKED_ATTR __attribute__ ((packed))
  31:.\Generated_Source\PSoC5/cyfitter_cfg.c ****     #define CYALIGNED __attribute__ ((aligned))
  32:.\Generated_Source\PSoC5/cyfitter_cfg.c ****     #define CY_CFG_UNUSED __attribute__ ((unused))
ARM GAS  C:\Users\IVYLIU~1\AppData\Local\Temp\ccrR58bi.s 			page 2


  33:.\Generated_Source\PSoC5/cyfitter_cfg.c ****     #ifndef CY_CFG_SECTION
  34:.\Generated_Source\PSoC5/cyfitter_cfg.c ****         #define CY_CFG_SECTION __attribute__ ((section(".psocinit")))
  35:.\Generated_Source\PSoC5/cyfitter_cfg.c ****     #endif
  36:.\Generated_Source\PSoC5/cyfitter_cfg.c ****     
  37:.\Generated_Source\PSoC5/cyfitter_cfg.c ****     #if defined(__ARMCC_VERSION)
  38:.\Generated_Source\PSoC5/cyfitter_cfg.c ****         #define CY_CFG_MEMORY_BARRIER() __memory_changed()
  39:.\Generated_Source\PSoC5/cyfitter_cfg.c ****     #else
  40:.\Generated_Source\PSoC5/cyfitter_cfg.c ****         #define CY_CFG_MEMORY_BARRIER() __sync_synchronize()
  41:.\Generated_Source\PSoC5/cyfitter_cfg.c ****     #endif
  42:.\Generated_Source\PSoC5/cyfitter_cfg.c ****     
  43:.\Generated_Source\PSoC5/cyfitter_cfg.c **** #elif defined(__ICCARM__)
  44:.\Generated_Source\PSoC5/cyfitter_cfg.c ****     #include <intrinsics.h>
  45:.\Generated_Source\PSoC5/cyfitter_cfg.c **** 
  46:.\Generated_Source\PSoC5/cyfitter_cfg.c ****     #define CYPACKED __packed
  47:.\Generated_Source\PSoC5/cyfitter_cfg.c ****     #define CYPACKED_ATTR 
  48:.\Generated_Source\PSoC5/cyfitter_cfg.c ****     #define CYALIGNED _Pragma("data_alignment=4")
  49:.\Generated_Source\PSoC5/cyfitter_cfg.c ****     #define CY_CFG_UNUSED _Pragma("diag_suppress=Pe177")
  50:.\Generated_Source\PSoC5/cyfitter_cfg.c ****     #define CY_CFG_SECTION _Pragma("location=\".psocinit\"")
  51:.\Generated_Source\PSoC5/cyfitter_cfg.c ****     
  52:.\Generated_Source\PSoC5/cyfitter_cfg.c ****     #define CY_CFG_MEMORY_BARRIER() __DMB()
  53:.\Generated_Source\PSoC5/cyfitter_cfg.c ****     
  54:.\Generated_Source\PSoC5/cyfitter_cfg.c **** #else
  55:.\Generated_Source\PSoC5/cyfitter_cfg.c ****     #error Unsupported toolchain
  56:.\Generated_Source\PSoC5/cyfitter_cfg.c **** #endif
  57:.\Generated_Source\PSoC5/cyfitter_cfg.c **** 
  58:.\Generated_Source\PSoC5/cyfitter_cfg.c **** 
  59:.\Generated_Source\PSoC5/cyfitter_cfg.c **** CY_CFG_UNUSED
  60:.\Generated_Source\PSoC5/cyfitter_cfg.c **** static void CYMEMZERO(void *s, size_t n);
  61:.\Generated_Source\PSoC5/cyfitter_cfg.c **** CY_CFG_UNUSED
  62:.\Generated_Source\PSoC5/cyfitter_cfg.c **** static void CYMEMZERO(void *s, size_t n)
  63:.\Generated_Source\PSoC5/cyfitter_cfg.c **** {
  64:.\Generated_Source\PSoC5/cyfitter_cfg.c **** 	(void)memset(s, 0, n);
  65:.\Generated_Source\PSoC5/cyfitter_cfg.c **** }
  66:.\Generated_Source\PSoC5/cyfitter_cfg.c **** CY_CFG_UNUSED
  67:.\Generated_Source\PSoC5/cyfitter_cfg.c **** static void CYCONFIGCPY(void *dest, const void *src, size_t n);
  68:.\Generated_Source\PSoC5/cyfitter_cfg.c **** CY_CFG_UNUSED
  69:.\Generated_Source\PSoC5/cyfitter_cfg.c **** static void CYCONFIGCPY(void *dest, const void *src, size_t n)
  70:.\Generated_Source\PSoC5/cyfitter_cfg.c **** {
  71:.\Generated_Source\PSoC5/cyfitter_cfg.c **** 	(void)memcpy(dest, src, n);
  72:.\Generated_Source\PSoC5/cyfitter_cfg.c **** }
  73:.\Generated_Source\PSoC5/cyfitter_cfg.c **** CY_CFG_UNUSED
  74:.\Generated_Source\PSoC5/cyfitter_cfg.c **** static void CYCONFIGCPYCODE(void *dest, const void *src, size_t n);
  75:.\Generated_Source\PSoC5/cyfitter_cfg.c **** CY_CFG_UNUSED
  76:.\Generated_Source\PSoC5/cyfitter_cfg.c **** static void CYCONFIGCPYCODE(void *dest, const void *src, size_t n)
  77:.\Generated_Source\PSoC5/cyfitter_cfg.c **** {
  78:.\Generated_Source\PSoC5/cyfitter_cfg.c **** 	(void)memcpy(dest, src, n);
  79:.\Generated_Source\PSoC5/cyfitter_cfg.c **** }
  80:.\Generated_Source\PSoC5/cyfitter_cfg.c **** 
  81:.\Generated_Source\PSoC5/cyfitter_cfg.c **** 
  82:.\Generated_Source\PSoC5/cyfitter_cfg.c **** 
  83:.\Generated_Source\PSoC5/cyfitter_cfg.c **** /* Clock startup error codes                                                   */
  84:.\Generated_Source\PSoC5/cyfitter_cfg.c **** #define CYCLOCKSTART_NO_ERROR    0u
  85:.\Generated_Source\PSoC5/cyfitter_cfg.c **** #define CYCLOCKSTART_XTAL_ERROR  1u
  86:.\Generated_Source\PSoC5/cyfitter_cfg.c **** #define CYCLOCKSTART_32KHZ_ERROR 2u
  87:.\Generated_Source\PSoC5/cyfitter_cfg.c **** #define CYCLOCKSTART_PLL_ERROR   3u
  88:.\Generated_Source\PSoC5/cyfitter_cfg.c **** 
  89:.\Generated_Source\PSoC5/cyfitter_cfg.c **** #ifdef CY_NEED_CYCLOCKSTARTUPERROR
ARM GAS  C:\Users\IVYLIU~1\AppData\Local\Temp\ccrR58bi.s 			page 3


  90:.\Generated_Source\PSoC5/cyfitter_cfg.c **** /*******************************************************************************
  91:.\Generated_Source\PSoC5/cyfitter_cfg.c **** * Function Name: CyClockStartupError
  92:.\Generated_Source\PSoC5/cyfitter_cfg.c **** ********************************************************************************
  93:.\Generated_Source\PSoC5/cyfitter_cfg.c **** * Summary:
  94:.\Generated_Source\PSoC5/cyfitter_cfg.c **** *  If an error is encountered during clock configuration (crystal startup error,
  95:.\Generated_Source\PSoC5/cyfitter_cfg.c **** *  PLL lock error, etc.), the system will end up here.  Unless reimplemented by
  96:.\Generated_Source\PSoC5/cyfitter_cfg.c **** *  the customer, this function will stop in an infinite loop.
  97:.\Generated_Source\PSoC5/cyfitter_cfg.c **** *
  98:.\Generated_Source\PSoC5/cyfitter_cfg.c **** * Parameters:
  99:.\Generated_Source\PSoC5/cyfitter_cfg.c **** *   void
 100:.\Generated_Source\PSoC5/cyfitter_cfg.c **** *
 101:.\Generated_Source\PSoC5/cyfitter_cfg.c **** * Return:
 102:.\Generated_Source\PSoC5/cyfitter_cfg.c **** *   void
 103:.\Generated_Source\PSoC5/cyfitter_cfg.c **** *
 104:.\Generated_Source\PSoC5/cyfitter_cfg.c **** *******************************************************************************/
 105:.\Generated_Source\PSoC5/cyfitter_cfg.c **** CY_CFG_UNUSED
 106:.\Generated_Source\PSoC5/cyfitter_cfg.c **** static void CyClockStartupError(uint8 errorCode);
 107:.\Generated_Source\PSoC5/cyfitter_cfg.c **** CY_CFG_UNUSED
 108:.\Generated_Source\PSoC5/cyfitter_cfg.c **** static void CyClockStartupError(uint8 errorCode)
 109:.\Generated_Source\PSoC5/cyfitter_cfg.c **** {
  26              		.loc 1 109 0
  27              		.cfi_startproc
  28              		@ Volatile: function does not return.
  29              		@ args = 0, pretend = 0, frame = 0
  30              		@ frame_needed = 0, uses_anonymous_args = 0
  31              		@ link register save eliminated.
  32              	.LVL0:
  33              	.L2:
 110:.\Generated_Source\PSoC5/cyfitter_cfg.c ****     /* To remove the compiler warning if errorCode not used.                */
 111:.\Generated_Source\PSoC5/cyfitter_cfg.c ****     errorCode = errorCode;
 112:.\Generated_Source\PSoC5/cyfitter_cfg.c **** 
 113:.\Generated_Source\PSoC5/cyfitter_cfg.c ****     /* `#START CyClockStartupError` */
 114:.\Generated_Source\PSoC5/cyfitter_cfg.c **** 
 115:.\Generated_Source\PSoC5/cyfitter_cfg.c ****     /* If we have a clock startup error (bad MHz crystal, PLL lock, etc.),  */
 116:.\Generated_Source\PSoC5/cyfitter_cfg.c ****     /* we will end up here to allow the customer to implement something to  */
 117:.\Generated_Source\PSoC5/cyfitter_cfg.c ****     /* deal with the clock condition.                                       */
 118:.\Generated_Source\PSoC5/cyfitter_cfg.c **** 
 119:.\Generated_Source\PSoC5/cyfitter_cfg.c ****     /* `#END` */
 120:.\Generated_Source\PSoC5/cyfitter_cfg.c **** 
 121:.\Generated_Source\PSoC5/cyfitter_cfg.c ****     /* If nothing else, stop here since the clocks have not started         */
 122:.\Generated_Source\PSoC5/cyfitter_cfg.c ****     /* correctly.                                                           */
 123:.\Generated_Source\PSoC5/cyfitter_cfg.c ****     while(1) {}
  34              		.loc 1 123 0 discriminator 1
  35 0000 FEE7     		b	.L2
  36              		.cfi_endproc
  37              	.LFE3:
  38              		.size	CyClockStartupError, .-CyClockStartupError
  39 0002 00BF     		.section	.text.cfg_write_bytes32,"ax",%progbits
  40              		.align	2
  41              		.thumb
  42              		.thumb_func
  43              		.type	cfg_write_bytes32, %function
  44              	cfg_write_bytes32:
  45              	.LFB4:
 124:.\Generated_Source\PSoC5/cyfitter_cfg.c **** }
 125:.\Generated_Source\PSoC5/cyfitter_cfg.c **** #endif
 126:.\Generated_Source\PSoC5/cyfitter_cfg.c **** 
ARM GAS  C:\Users\IVYLIU~1\AppData\Local\Temp\ccrR58bi.s 			page 4


 127:.\Generated_Source\PSoC5/cyfitter_cfg.c **** #define CY_CFG_BASE_ADDR_COUNT 13u
 128:.\Generated_Source\PSoC5/cyfitter_cfg.c **** CYPACKED typedef struct
 129:.\Generated_Source\PSoC5/cyfitter_cfg.c **** {
 130:.\Generated_Source\PSoC5/cyfitter_cfg.c **** 	uint8 offset;
 131:.\Generated_Source\PSoC5/cyfitter_cfg.c **** 	uint8 value;
 132:.\Generated_Source\PSoC5/cyfitter_cfg.c **** } CYPACKED_ATTR cy_cfg_addrvalue_t;
 133:.\Generated_Source\PSoC5/cyfitter_cfg.c **** 
 134:.\Generated_Source\PSoC5/cyfitter_cfg.c **** #define cy_cfg_addr_table ((const uint32 CYFAR *)0x48000000u)
 135:.\Generated_Source\PSoC5/cyfitter_cfg.c **** #define cy_cfg_data_table ((const cy_cfg_addrvalue_t CYFAR *)0x48000034u)
 136:.\Generated_Source\PSoC5/cyfitter_cfg.c **** 
 137:.\Generated_Source\PSoC5/cyfitter_cfg.c **** /* IOPINS0_2 Address: CYREG_PRT2_DM0 Size (bytes): 8 */
 138:.\Generated_Source\PSoC5/cyfitter_cfg.c **** #define BS_IOPINS0_2_VAL ((const uint8 CYFAR *)0x48000064u)
 139:.\Generated_Source\PSoC5/cyfitter_cfg.c **** 
 140:.\Generated_Source\PSoC5/cyfitter_cfg.c **** /* IOPINS0_6 Address: CYREG_PRT6_DM0 Size (bytes): 8 */
 141:.\Generated_Source\PSoC5/cyfitter_cfg.c **** #define BS_IOPINS0_6_VAL ((const uint8 CYFAR *)0x4800006Cu)
 142:.\Generated_Source\PSoC5/cyfitter_cfg.c **** 
 143:.\Generated_Source\PSoC5/cyfitter_cfg.c **** /* CYDEV_CLKDIST_ACFG0_CFG0 Address: CYREG_CLKDIST_ACFG0_CFG0 Size (bytes): 4 */
 144:.\Generated_Source\PSoC5/cyfitter_cfg.c **** #define BS_CYDEV_CLKDIST_ACFG0_CFG0_VAL ((const uint8 CYFAR *)0x48000074u)
 145:.\Generated_Source\PSoC5/cyfitter_cfg.c **** 
 146:.\Generated_Source\PSoC5/cyfitter_cfg.c **** 
 147:.\Generated_Source\PSoC5/cyfitter_cfg.c **** /*******************************************************************************
 148:.\Generated_Source\PSoC5/cyfitter_cfg.c **** * Function Name: cfg_write_bytes32
 149:.\Generated_Source\PSoC5/cyfitter_cfg.c **** ********************************************************************************
 150:.\Generated_Source\PSoC5/cyfitter_cfg.c **** * Summary:
 151:.\Generated_Source\PSoC5/cyfitter_cfg.c **** *  This function is used for setting up the chip configuration areas that
 152:.\Generated_Source\PSoC5/cyfitter_cfg.c **** *  contain relatively sparse data.
 153:.\Generated_Source\PSoC5/cyfitter_cfg.c **** *
 154:.\Generated_Source\PSoC5/cyfitter_cfg.c **** * Parameters:
 155:.\Generated_Source\PSoC5/cyfitter_cfg.c **** *   void
 156:.\Generated_Source\PSoC5/cyfitter_cfg.c **** *
 157:.\Generated_Source\PSoC5/cyfitter_cfg.c **** * Return:
 158:.\Generated_Source\PSoC5/cyfitter_cfg.c **** *   void
 159:.\Generated_Source\PSoC5/cyfitter_cfg.c **** *
 160:.\Generated_Source\PSoC5/cyfitter_cfg.c **** *******************************************************************************/
 161:.\Generated_Source\PSoC5/cyfitter_cfg.c **** static void cfg_write_bytes32(const uint32 addr_table[], const cy_cfg_addrvalue_t data_table[]);
 162:.\Generated_Source\PSoC5/cyfitter_cfg.c **** static void cfg_write_bytes32(const uint32 addr_table[], const cy_cfg_addrvalue_t data_table[])
 163:.\Generated_Source\PSoC5/cyfitter_cfg.c **** {
  46              		.loc 1 163 0
  47              		.cfi_startproc
  48              		@ args = 0, pretend = 0, frame = 0
  49              		@ frame_needed = 0, uses_anonymous_args = 0
  50              		@ link register save eliminated.
  51              	.LVL1:
  52 0000 F0B4     		push	{r4, r5, r6, r7}
  53              		.cfi_def_cfa_offset 16
  54              		.cfi_offset 4, -16
  55              		.cfi_offset 5, -12
  56              		.cfi_offset 6, -8
  57              		.cfi_offset 7, -4
  58              	.LVL2:
 164:.\Generated_Source\PSoC5/cyfitter_cfg.c **** 	/* For 32-bit little-endian architectures */
 165:.\Generated_Source\PSoC5/cyfitter_cfg.c **** 	uint32 i, j = 0u;
  59              		.loc 1 165 0
  60 0002 0022     		movs	r2, #0
 166:.\Generated_Source\PSoC5/cyfitter_cfg.c **** 	for (i = 0u; i < CY_CFG_BASE_ADDR_COUNT; i++)
  61              		.loc 1 166 0
  62 0004 1746     		mov	r7, r2
ARM GAS  C:\Users\IVYLIU~1\AppData\Local\Temp\ccrR58bi.s 			page 5


  63 0006 11E0     		b	.L4
  64              	.LVL3:
  65              	.L7:
  66              	.LBB2:
 167:.\Generated_Source\PSoC5/cyfitter_cfg.c **** 	{
 168:.\Generated_Source\PSoC5/cyfitter_cfg.c **** 		uint32 baseAddr = addr_table[i];
  67              		.loc 1 168 0
  68 0008 50F82760 		ldr	r6, [r0, r7, lsl #2]
  69              	.LVL4:
 169:.\Generated_Source\PSoC5/cyfitter_cfg.c **** 		uint8 count = (uint8)baseAddr;
  70              		.loc 1 169 0
  71 000c F3B2     		uxtb	r3, r6
  72              	.LVL5:
 170:.\Generated_Source\PSoC5/cyfitter_cfg.c **** 		baseAddr &= 0xFFFFFF00u;
  73              		.loc 1 170 0
  74 000e 26F0FF06 		bic	r6, r6, #255
  75              	.LVL6:
 171:.\Generated_Source\PSoC5/cyfitter_cfg.c **** 		while (count != 0u)
  76              		.loc 1 171 0
  77 0012 08E0     		b	.L5
  78              	.L6:
 172:.\Generated_Source\PSoC5/cyfitter_cfg.c **** 		{
 173:.\Generated_Source\PSoC5/cyfitter_cfg.c **** 			CY_SET_XTND_REG8((void CYFAR *)(baseAddr + data_table[j].offset), data_table[j].value);
  79              		.loc 1 173 0
  80 0014 01EB4205 		add	r5, r1, r2, lsl #1
  81 0018 11F81240 		ldrb	r4, [r1, r2, lsl #1]	@ zero_extendqisi2
  82 001c 6D78     		ldrb	r5, [r5, #1]	@ zero_extendqisi2
  83 001e A555     		strb	r5, [r4, r6]
 174:.\Generated_Source\PSoC5/cyfitter_cfg.c **** 			j++;
  84              		.loc 1 174 0
  85 0020 0132     		adds	r2, r2, #1
  86              	.LVL7:
 175:.\Generated_Source\PSoC5/cyfitter_cfg.c **** 			count--;
  87              		.loc 1 175 0
  88 0022 013B     		subs	r3, r3, #1
  89              	.LVL8:
  90 0024 DBB2     		uxtb	r3, r3
  91              	.LVL9:
  92              	.L5:
 171:.\Generated_Source\PSoC5/cyfitter_cfg.c **** 		{
  93              		.loc 1 171 0
  94 0026 002B     		cmp	r3, #0
  95 0028 F4D1     		bne	.L6
  96              	.LBE2:
 166:.\Generated_Source\PSoC5/cyfitter_cfg.c **** 	{
  97              		.loc 1 166 0 discriminator 2
  98 002a 0137     		adds	r7, r7, #1
  99              	.LVL10:
 100              	.L4:
 166:.\Generated_Source\PSoC5/cyfitter_cfg.c **** 	{
 101              		.loc 1 166 0 is_stmt 0 discriminator 1
 102 002c 0C2F     		cmp	r7, #12
 103 002e EBD9     		bls	.L7
 176:.\Generated_Source\PSoC5/cyfitter_cfg.c **** 		}
 177:.\Generated_Source\PSoC5/cyfitter_cfg.c **** 	}
 178:.\Generated_Source\PSoC5/cyfitter_cfg.c **** }
 104              		.loc 1 178 0 is_stmt 1
ARM GAS  C:\Users\IVYLIU~1\AppData\Local\Temp\ccrR58bi.s 			page 6


 105 0030 F0BC     		pop	{r4, r5, r6, r7}
 106              		.cfi_restore 7
 107              		.cfi_restore 6
 108              		.cfi_restore 5
 109              		.cfi_restore 4
 110              		.cfi_def_cfa_offset 0
 111              	.LVL11:
 112 0032 7047     		bx	lr
 113              		.cfi_endproc
 114              	.LFE4:
 115              		.size	cfg_write_bytes32, .-cfg_write_bytes32
 116              		.section	.text.AnalogSetDefault,"ax",%progbits
 117              		.align	2
 118              		.thumb
 119              		.thumb_func
 120              		.type	AnalogSetDefault, %function
 121              	AnalogSetDefault:
 122              	.LFB6:
 179:.\Generated_Source\PSoC5/cyfitter_cfg.c **** 
 180:.\Generated_Source\PSoC5/cyfitter_cfg.c **** /*******************************************************************************
 181:.\Generated_Source\PSoC5/cyfitter_cfg.c **** * Function Name: ClockSetup
 182:.\Generated_Source\PSoC5/cyfitter_cfg.c **** ********************************************************************************
 183:.\Generated_Source\PSoC5/cyfitter_cfg.c **** *
 184:.\Generated_Source\PSoC5/cyfitter_cfg.c **** * Summary:
 185:.\Generated_Source\PSoC5/cyfitter_cfg.c **** *  Performs the initialization of all of the clocks in the device based on the
 186:.\Generated_Source\PSoC5/cyfitter_cfg.c **** *  settings in the Clock tab of the DWR.  This includes enabling the requested
 187:.\Generated_Source\PSoC5/cyfitter_cfg.c **** *  clocks and setting the necessary dividers to produce the desired frequency. 
 188:.\Generated_Source\PSoC5/cyfitter_cfg.c **** *
 189:.\Generated_Source\PSoC5/cyfitter_cfg.c **** * Parameters:
 190:.\Generated_Source\PSoC5/cyfitter_cfg.c **** *  void
 191:.\Generated_Source\PSoC5/cyfitter_cfg.c **** *
 192:.\Generated_Source\PSoC5/cyfitter_cfg.c **** * Return:
 193:.\Generated_Source\PSoC5/cyfitter_cfg.c **** *  void
 194:.\Generated_Source\PSoC5/cyfitter_cfg.c **** *
 195:.\Generated_Source\PSoC5/cyfitter_cfg.c **** *******************************************************************************/
 196:.\Generated_Source\PSoC5/cyfitter_cfg.c **** static void ClockSetup(void);
 197:.\Generated_Source\PSoC5/cyfitter_cfg.c **** static void ClockSetup(void)
 198:.\Generated_Source\PSoC5/cyfitter_cfg.c **** {
 199:.\Generated_Source\PSoC5/cyfitter_cfg.c **** 	uint32 timeout;
 200:.\Generated_Source\PSoC5/cyfitter_cfg.c **** 	uint8 pllLock;
 201:.\Generated_Source\PSoC5/cyfitter_cfg.c **** 
 202:.\Generated_Source\PSoC5/cyfitter_cfg.c **** 
 203:.\Generated_Source\PSoC5/cyfitter_cfg.c **** 	/* Configure Digital Clocks based on settings from Clock DWR */
 204:.\Generated_Source\PSoC5/cyfitter_cfg.c **** 	CY_SET_XTND_REG16((void CYFAR *)(CYREG_CLKDIST_DCFG0_CFG0), 0x0000u);
 205:.\Generated_Source\PSoC5/cyfitter_cfg.c **** 	CY_SET_XTND_REG8((void CYFAR *)(CYREG_CLKDIST_DCFG0_CFG0 + 0x2u), 0x50u);
 206:.\Generated_Source\PSoC5/cyfitter_cfg.c **** 
 207:.\Generated_Source\PSoC5/cyfitter_cfg.c **** 	/* Configure Analog Clocks based on settings from Clock DWR */
 208:.\Generated_Source\PSoC5/cyfitter_cfg.c **** 	CYCONFIGCPY((void CYFAR *)(CYREG_CLKDIST_ACFG0_CFG0), (const void CYFAR *)(BS_CYDEV_CLKDIST_ACFG0_
 209:.\Generated_Source\PSoC5/cyfitter_cfg.c **** 
 210:.\Generated_Source\PSoC5/cyfitter_cfg.c **** 	/* Configure ILO based on settings from Clock DWR */
 211:.\Generated_Source\PSoC5/cyfitter_cfg.c **** 	CY_SET_XTND_REG8((void CYFAR *)(CYREG_SLOWCLK_ILO_CR0), 0x02u);
 212:.\Generated_Source\PSoC5/cyfitter_cfg.c **** 	CY_SET_XTND_REG8((void CYFAR *)(CYREG_CLKDIST_CR), 0x08u);
 213:.\Generated_Source\PSoC5/cyfitter_cfg.c **** 
 214:.\Generated_Source\PSoC5/cyfitter_cfg.c **** 	/* Configure IMO based on settings from Clock DWR */
 215:.\Generated_Source\PSoC5/cyfitter_cfg.c **** 	CY_SET_XTND_REG8((void CYFAR *)(CYREG_FASTCLK_IMO_CR), 0x03u);
 216:.\Generated_Source\PSoC5/cyfitter_cfg.c **** 	CY_SET_XTND_REG8((void CYFAR *)(CYREG_IMO_TR1), (CY_GET_XTND_REG8((void CYFAR *)CYREG_FLSHID_CUST_
 217:.\Generated_Source\PSoC5/cyfitter_cfg.c **** 
ARM GAS  C:\Users\IVYLIU~1\AppData\Local\Temp\ccrR58bi.s 			page 7


 218:.\Generated_Source\PSoC5/cyfitter_cfg.c **** 	/* Configure PLL based on settings from Clock DWR */
 219:.\Generated_Source\PSoC5/cyfitter_cfg.c **** 	CY_SET_XTND_REG16((void CYFAR *)(CYREG_FASTCLK_PLL_P), 0x0008u);
 220:.\Generated_Source\PSoC5/cyfitter_cfg.c **** 	CY_SET_XTND_REG16((void CYFAR *)(CYREG_FASTCLK_PLL_CFG0), 0x1251u);
 221:.\Generated_Source\PSoC5/cyfitter_cfg.c **** 	/* Wait up to 250us for the PLL to lock */
 222:.\Generated_Source\PSoC5/cyfitter_cfg.c **** 	pllLock = 0u;
 223:.\Generated_Source\PSoC5/cyfitter_cfg.c **** 	for (timeout = 250u / 10u; (timeout > 0u) && (pllLock != 0x03u); timeout--)
 224:.\Generated_Source\PSoC5/cyfitter_cfg.c **** 	{ 
 225:.\Generated_Source\PSoC5/cyfitter_cfg.c **** 		pllLock = 0x03u & ((uint8)((uint8)pllLock << 1) | ((CY_GET_XTND_REG8((void CYFAR *)CYREG_FASTCLK_
 226:.\Generated_Source\PSoC5/cyfitter_cfg.c **** 		CyDelayCycles(10u * 48u); /* Delay 10us based on 48MHz clock */
 227:.\Generated_Source\PSoC5/cyfitter_cfg.c **** 	}
 228:.\Generated_Source\PSoC5/cyfitter_cfg.c **** 	/* If we ran out of time the PLL didn't lock so go to the error function */
 229:.\Generated_Source\PSoC5/cyfitter_cfg.c **** 	if (timeout == 0u)
 230:.\Generated_Source\PSoC5/cyfitter_cfg.c **** 	{
 231:.\Generated_Source\PSoC5/cyfitter_cfg.c **** 		CyClockStartupError(CYCLOCKSTART_PLL_ERROR);
 232:.\Generated_Source\PSoC5/cyfitter_cfg.c **** 	}
 233:.\Generated_Source\PSoC5/cyfitter_cfg.c **** 
 234:.\Generated_Source\PSoC5/cyfitter_cfg.c **** 	/* Configure Bus/Master Clock based on settings from Clock DWR */
 235:.\Generated_Source\PSoC5/cyfitter_cfg.c **** 	CY_SET_XTND_REG16((void CYFAR *)(CYREG_CLKDIST_MSTR0), 0x0100u);
 236:.\Generated_Source\PSoC5/cyfitter_cfg.c **** 	CY_SET_XTND_REG8((void CYFAR *)(CYREG_CLKDIST_MSTR0), 0x07u);
 237:.\Generated_Source\PSoC5/cyfitter_cfg.c **** 	CY_SET_XTND_REG8((void CYFAR *)(CYREG_CLKDIST_BCFG0), 0x00u);
 238:.\Generated_Source\PSoC5/cyfitter_cfg.c **** 	CY_SET_XTND_REG8((void CYFAR *)(CYREG_CLKDIST_BCFG2), 0x48u);
 239:.\Generated_Source\PSoC5/cyfitter_cfg.c **** 	CY_SET_XTND_REG8((void CYFAR *)(CYREG_CLKDIST_MSTR0), 0x00u);
 240:.\Generated_Source\PSoC5/cyfitter_cfg.c **** 	CY_SET_XTND_REG8((void CYFAR *)(CYREG_CLKDIST_LD), 0x02u);
 241:.\Generated_Source\PSoC5/cyfitter_cfg.c **** 	CY_SET_XTND_REG8((void CYFAR *)(CYREG_CLKDIST_DLY1), 0x04u);
 242:.\Generated_Source\PSoC5/cyfitter_cfg.c **** 
 243:.\Generated_Source\PSoC5/cyfitter_cfg.c **** 	CY_SET_XTND_REG8((void CYFAR *)(CYREG_PM_ACT_CFG2), ((CY_GET_XTND_REG8((void CYFAR *)CYREG_PM_ACT_
 244:.\Generated_Source\PSoC5/cyfitter_cfg.c **** 	CY_SET_XTND_REG8((void CYFAR *)(CYREG_PM_ACT_CFG1), ((CY_GET_XTND_REG8((void CYFAR *)CYREG_PM_ACT_
 245:.\Generated_Source\PSoC5/cyfitter_cfg.c **** 	CY_SET_XTND_REG8((void CYFAR *)(CYREG_PM_ACT_CFG0), ((CY_GET_XTND_REG8((void CYFAR *)CYREG_PM_ACT_
 246:.\Generated_Source\PSoC5/cyfitter_cfg.c **** }
 247:.\Generated_Source\PSoC5/cyfitter_cfg.c **** 
 248:.\Generated_Source\PSoC5/cyfitter_cfg.c **** 
 249:.\Generated_Source\PSoC5/cyfitter_cfg.c **** /* Analog API Functions */
 250:.\Generated_Source\PSoC5/cyfitter_cfg.c **** 
 251:.\Generated_Source\PSoC5/cyfitter_cfg.c **** 
 252:.\Generated_Source\PSoC5/cyfitter_cfg.c **** /*******************************************************************************
 253:.\Generated_Source\PSoC5/cyfitter_cfg.c **** * Function Name: AnalogSetDefault
 254:.\Generated_Source\PSoC5/cyfitter_cfg.c **** ********************************************************************************
 255:.\Generated_Source\PSoC5/cyfitter_cfg.c **** *
 256:.\Generated_Source\PSoC5/cyfitter_cfg.c **** * Summary:
 257:.\Generated_Source\PSoC5/cyfitter_cfg.c **** *  Sets up the analog portions of the chip to default values based on chip
 258:.\Generated_Source\PSoC5/cyfitter_cfg.c **** *  configuration options from the project.
 259:.\Generated_Source\PSoC5/cyfitter_cfg.c **** *
 260:.\Generated_Source\PSoC5/cyfitter_cfg.c **** * Parameters:
 261:.\Generated_Source\PSoC5/cyfitter_cfg.c **** *  void
 262:.\Generated_Source\PSoC5/cyfitter_cfg.c **** *
 263:.\Generated_Source\PSoC5/cyfitter_cfg.c **** * Return:
 264:.\Generated_Source\PSoC5/cyfitter_cfg.c **** *  void
 265:.\Generated_Source\PSoC5/cyfitter_cfg.c **** *
 266:.\Generated_Source\PSoC5/cyfitter_cfg.c **** *******************************************************************************/
 267:.\Generated_Source\PSoC5/cyfitter_cfg.c **** static void AnalogSetDefault(void);
 268:.\Generated_Source\PSoC5/cyfitter_cfg.c **** static void AnalogSetDefault(void)
 269:.\Generated_Source\PSoC5/cyfitter_cfg.c **** {
 123              		.loc 1 269 0
 124              		.cfi_startproc
 125              		@ args = 0, pretend = 0, frame = 0
 126              		@ frame_needed = 0, uses_anonymous_args = 0
 127              		@ link register save eliminated.
ARM GAS  C:\Users\IVYLIU~1\AppData\Local\Temp\ccrR58bi.s 			page 8


 270:.\Generated_Source\PSoC5/cyfitter_cfg.c **** 	uint8 bg_xover_inl_trim = CY_GET_XTND_REG8((void CYFAR *)(CYREG_FLSHID_MFG_CFG_BG_XOVER_INL_TRIM +
 128              		.loc 1 270 0
 129 0000 0A4B     		ldr	r3, .L10
 130 0002 1B78     		ldrb	r3, [r3]	@ zero_extendqisi2
 131 0004 DBB2     		uxtb	r3, r3
 132              	.LVL12:
 271:.\Generated_Source\PSoC5/cyfitter_cfg.c **** 	CY_SET_XTND_REG8((void CYFAR *)(CYREG_BG_DFT0), (bg_xover_inl_trim & 0x07u));
 133              		.loc 1 271 0
 134 0006 03F00701 		and	r1, r3, #7
 135 000a 094A     		ldr	r2, .L10+4
 136 000c 1170     		strb	r1, [r2]
 272:.\Generated_Source\PSoC5/cyfitter_cfg.c **** 	CY_SET_XTND_REG8((void CYFAR *)(CYREG_BG_DFT1), ((bg_xover_inl_trim >> 4) & 0x0Fu));
 137              		.loc 1 272 0
 138 000e 1B09     		lsrs	r3, r3, #4
 139              	.LVL13:
 140 0010 0132     		adds	r2, r2, #1
 141 0012 1370     		strb	r3, [r2]
 273:.\Generated_Source\PSoC5/cyfitter_cfg.c **** 	CY_SET_XTND_REG8((void CYFAR *)CYREG_PRT6_AG, 0x40u);
 142              		.loc 1 273 0
 143 0014 4022     		movs	r2, #64
 144 0016 074B     		ldr	r3, .L10+8
 145 0018 1A70     		strb	r2, [r3]
 274:.\Generated_Source\PSoC5/cyfitter_cfg.c **** 	CY_SET_XTND_REG8((void CYFAR *)CYREG_DSM0_SW0, 0x04u);
 146              		.loc 1 274 0
 147 001a 0422     		movs	r2, #4
 148 001c 03F69313 		addw	r3, r3, #2451
 149 0020 1A70     		strb	r2, [r3]
 275:.\Generated_Source\PSoC5/cyfitter_cfg.c **** 	CY_SET_XTND_REG8((void CYFAR *)CYREG_PUMP_CR0, 0x44u);
 150              		.loc 1 275 0
 151 0022 4422     		movs	r2, #68
 152 0024 A3F28A23 		subw	r3, r3, #650
 153 0028 1A70     		strb	r2, [r3]
 154 002a 7047     		bx	lr
 155              	.L11:
 156              		.align	2
 157              	.L10:
 158 002c CF010049 		.word	1224737231
 159 0030 6E580040 		.word	1073764462
 160 0034 6D510040 		.word	1073762669
 161              		.cfi_endproc
 162              	.LFE6:
 163              		.size	AnalogSetDefault, .-AnalogSetDefault
 164              		.section	.text.CYMEMZERO,"ax",%progbits
 165              		.align	2
 166              		.thumb
 167              		.thumb_func
 168              		.type	CYMEMZERO, %function
 169              	CYMEMZERO:
 170              	.LFB0:
  63:.\Generated_Source\PSoC5/cyfitter_cfg.c **** 	(void)memset(s, 0, n);
 171              		.loc 1 63 0
 172              		.cfi_startproc
 173              		@ args = 0, pretend = 0, frame = 0
 174              		@ frame_needed = 0, uses_anonymous_args = 0
 175              	.LVL14:
 176 0000 08B5     		push	{r3, lr}
 177              		.cfi_def_cfa_offset 8
ARM GAS  C:\Users\IVYLIU~1\AppData\Local\Temp\ccrR58bi.s 			page 9


 178              		.cfi_offset 3, -8
 179              		.cfi_offset 14, -4
 180 0002 0A46     		mov	r2, r1
  64:.\Generated_Source\PSoC5/cyfitter_cfg.c **** }
 181              		.loc 1 64 0
 182 0004 0021     		movs	r1, #0
 183              	.LVL15:
 184 0006 FFF7FEFF 		bl	memset
 185              	.LVL16:
 186 000a 08BD     		pop	{r3, pc}
 187              		.cfi_endproc
 188              	.LFE0:
 189              		.size	CYMEMZERO, .-CYMEMZERO
 190              		.section	.text.CYCONFIGCPY,"ax",%progbits
 191              		.align	2
 192              		.thumb
 193              		.thumb_func
 194              		.type	CYCONFIGCPY, %function
 195              	CYCONFIGCPY:
 196              	.LFB1:
  70:.\Generated_Source\PSoC5/cyfitter_cfg.c **** 	(void)memcpy(dest, src, n);
 197              		.loc 1 70 0
 198              		.cfi_startproc
 199              		@ args = 0, pretend = 0, frame = 0
 200              		@ frame_needed = 0, uses_anonymous_args = 0
 201              	.LVL17:
 202 0000 08B5     		push	{r3, lr}
 203              		.cfi_def_cfa_offset 8
 204              		.cfi_offset 3, -8
 205              		.cfi_offset 14, -4
  71:.\Generated_Source\PSoC5/cyfitter_cfg.c **** }
 206              		.loc 1 71 0
 207 0002 FFF7FEFF 		bl	memcpy
 208              	.LVL18:
 209 0006 08BD     		pop	{r3, pc}
 210              		.cfi_endproc
 211              	.LFE1:
 212              		.size	CYCONFIGCPY, .-CYCONFIGCPY
 213              		.section	.text.ClockSetup,"ax",%progbits
 214              		.align	2
 215              		.thumb
 216              		.thumb_func
 217              		.type	ClockSetup, %function
 218              	ClockSetup:
 219              	.LFB5:
 198:.\Generated_Source\PSoC5/cyfitter_cfg.c **** 	uint32 timeout;
 220              		.loc 1 198 0
 221              		.cfi_startproc
 222              		@ args = 0, pretend = 0, frame = 0
 223              		@ frame_needed = 0, uses_anonymous_args = 0
 224 0000 38B5     		push	{r3, r4, r5, lr}
 225              		.cfi_def_cfa_offset 16
 226              		.cfi_offset 3, -16
 227              		.cfi_offset 4, -12
 228              		.cfi_offset 5, -8
 229              		.cfi_offset 14, -4
 204:.\Generated_Source\PSoC5/cyfitter_cfg.c **** 	CY_SET_XTND_REG8((void CYFAR *)(CYREG_CLKDIST_DCFG0_CFG0 + 0x2u), 0x50u);
ARM GAS  C:\Users\IVYLIU~1\AppData\Local\Temp\ccrR58bi.s 			page 10


 230              		.loc 1 204 0
 231 0002 0024     		movs	r4, #0
 232 0004 2C4B     		ldr	r3, .L22
 233 0006 1C80     		strh	r4, [r3]	@ movhi
 205:.\Generated_Source\PSoC5/cyfitter_cfg.c **** 
 234              		.loc 1 205 0
 235 0008 5022     		movs	r2, #80
 236 000a 0233     		adds	r3, r3, #2
 237 000c 1A70     		strb	r2, [r3]
 208:.\Generated_Source\PSoC5/cyfitter_cfg.c **** 
 238              		.loc 1 208 0
 239 000e 2B48     		ldr	r0, .L22+4
 240 0010 2B49     		ldr	r1, .L22+8
 241 0012 0422     		movs	r2, #4
 242 0014 FFF7FEFF 		bl	CYCONFIGCPY
 243              	.LVL19:
 211:.\Generated_Source\PSoC5/cyfitter_cfg.c **** 	CY_SET_XTND_REG8((void CYFAR *)(CYREG_CLKDIST_CR), 0x08u);
 244              		.loc 1 211 0
 245 0018 0222     		movs	r2, #2
 246 001a 2A4B     		ldr	r3, .L22+12
 247 001c 1A70     		strb	r2, [r3]
 212:.\Generated_Source\PSoC5/cyfitter_cfg.c **** 
 248              		.loc 1 212 0
 249 001e 0822     		movs	r2, #8
 250 0020 4FF04023 		mov	r3, #1073758208
 251 0024 1A70     		strb	r2, [r3]
 215:.\Generated_Source\PSoC5/cyfitter_cfg.c **** 	CY_SET_XTND_REG8((void CYFAR *)(CYREG_IMO_TR1), (CY_GET_XTND_REG8((void CYFAR *)CYREG_FLSHID_CUST_
 252              		.loc 1 215 0
 253 0026 0321     		movs	r1, #3
 254 0028 03F50073 		add	r3, r3, #512
 255 002c 1970     		strb	r1, [r3]
 216:.\Generated_Source\PSoC5/cyfitter_cfg.c **** 
 256              		.loc 1 216 0
 257 002e 264B     		ldr	r3, .L22+16
 258 0030 1B78     		ldrb	r3, [r3]	@ zero_extendqisi2
 259 0032 DBB2     		uxtb	r3, r3
 260 0034 2549     		ldr	r1, .L22+20
 261 0036 0B70     		strb	r3, [r1]
 219:.\Generated_Source\PSoC5/cyfitter_cfg.c **** 	CY_SET_XTND_REG16((void CYFAR *)(CYREG_FASTCLK_PLL_CFG0), 0x1251u);
 262              		.loc 1 219 0
 263 0038 254B     		ldr	r3, .L22+24
 264 003a 1A80     		strh	r2, [r3]	@ movhi
 220:.\Generated_Source\PSoC5/cyfitter_cfg.c **** 	/* Wait up to 250us for the PLL to lock */
 265              		.loc 1 220 0
 266 003c 41F25122 		movw	r2, #4689
 267 0040 023B     		subs	r3, r3, #2
 268 0042 1A80     		strh	r2, [r3]	@ movhi
 269              	.LVL20:
 223:.\Generated_Source\PSoC5/cyfitter_cfg.c **** 	{ 
 270              		.loc 1 223 0
 271 0044 1925     		movs	r5, #25
 272 0046 0CE0     		b	.L17
 273              	.LVL21:
 274              	.L19:
 225:.\Generated_Source\PSoC5/cyfitter_cfg.c **** 		CyDelayCycles(10u * 48u); /* Delay 10us based on 48MHz clock */
 275              		.loc 1 225 0 discriminator 4
 276 0048 224B     		ldr	r3, .L22+28
ARM GAS  C:\Users\IVYLIU~1\AppData\Local\Temp\ccrR58bi.s 			page 11


 277 004a 1B78     		ldrb	r3, [r3]	@ zero_extendqisi2
 278 004c 03F00103 		and	r3, r3, #1
 279 0050 43EA4404 		orr	r4, r3, r4, lsl #1
 280              	.LVL22:
 281 0054 04F00304 		and	r4, r4, #3
 282              	.LVL23:
 226:.\Generated_Source\PSoC5/cyfitter_cfg.c **** 	}
 283              		.loc 1 226 0 discriminator 4
 284 0058 4FF4F070 		mov	r0, #480
 285 005c FFF7FEFF 		bl	CyDelayCycles
 286              	.LVL24:
 223:.\Generated_Source\PSoC5/cyfitter_cfg.c **** 	{ 
 287              		.loc 1 223 0 discriminator 4
 288 0060 013D     		subs	r5, r5, #1
 289              	.LVL25:
 290              	.L17:
 223:.\Generated_Source\PSoC5/cyfitter_cfg.c **** 	{ 
 291              		.loc 1 223 0 is_stmt 0 discriminator 1
 292 0062 0DB1     		cbz	r5, .L18
 223:.\Generated_Source\PSoC5/cyfitter_cfg.c **** 	{ 
 293              		.loc 1 223 0 discriminator 3
 294 0064 032C     		cmp	r4, #3
 295 0066 EFD1     		bne	.L19
 296              	.L18:
 229:.\Generated_Source\PSoC5/cyfitter_cfg.c **** 	{
 297              		.loc 1 229 0 is_stmt 1
 298 0068 15B9     		cbnz	r5, .L20
 231:.\Generated_Source\PSoC5/cyfitter_cfg.c **** 	}
 299              		.loc 1 231 0
 300 006a 0320     		movs	r0, #3
 301 006c FFF7FEFF 		bl	CyClockStartupError
 302              	.LVL26:
 303              	.L20:
 235:.\Generated_Source\PSoC5/cyfitter_cfg.c **** 	CY_SET_XTND_REG8((void CYFAR *)(CYREG_CLKDIST_MSTR0), 0x07u);
 304              		.loc 1 235 0
 305 0070 194B     		ldr	r3, .L22+32
 306 0072 4FF48072 		mov	r2, #256
 307 0076 1A80     		strh	r2, [r3]	@ movhi
 236:.\Generated_Source\PSoC5/cyfitter_cfg.c **** 	CY_SET_XTND_REG8((void CYFAR *)(CYREG_CLKDIST_BCFG0), 0x00u);
 308              		.loc 1 236 0
 309 0078 0722     		movs	r2, #7
 310 007a 1A70     		strb	r2, [r3]
 237:.\Generated_Source\PSoC5/cyfitter_cfg.c **** 	CY_SET_XTND_REG8((void CYFAR *)(CYREG_CLKDIST_BCFG2), 0x48u);
 311              		.loc 1 237 0
 312 007c 0022     		movs	r2, #0
 313 007e 1749     		ldr	r1, .L22+36
 314 0080 0A70     		strb	r2, [r1]
 238:.\Generated_Source\PSoC5/cyfitter_cfg.c **** 	CY_SET_XTND_REG8((void CYFAR *)(CYREG_CLKDIST_MSTR0), 0x00u);
 315              		.loc 1 238 0
 316 0082 4820     		movs	r0, #72
 317 0084 0231     		adds	r1, r1, #2
 318 0086 0870     		strb	r0, [r1]
 239:.\Generated_Source\PSoC5/cyfitter_cfg.c **** 	CY_SET_XTND_REG8((void CYFAR *)(CYREG_CLKDIST_LD), 0x02u);
 319              		.loc 1 239 0
 320 0088 1A70     		strb	r2, [r3]
 240:.\Generated_Source\PSoC5/cyfitter_cfg.c **** 	CY_SET_XTND_REG8((void CYFAR *)(CYREG_CLKDIST_DLY1), 0x04u);
 321              		.loc 1 240 0
ARM GAS  C:\Users\IVYLIU~1\AppData\Local\Temp\ccrR58bi.s 			page 12


 322 008a 0222     		movs	r2, #2
 323 008c 033B     		subs	r3, r3, #3
 324 008e 1A70     		strb	r2, [r3]
 241:.\Generated_Source\PSoC5/cyfitter_cfg.c **** 
 325              		.loc 1 241 0
 326 0090 0422     		movs	r2, #4
 327 0092 0A33     		adds	r3, r3, #10
 328 0094 1A70     		strb	r2, [r3]
 243:.\Generated_Source\PSoC5/cyfitter_cfg.c **** 	CY_SET_XTND_REG8((void CYFAR *)(CYREG_PM_ACT_CFG1), ((CY_GET_XTND_REG8((void CYFAR *)CYREG_PM_ACT_
 329              		.loc 1 243 0
 330 0096 124A     		ldr	r2, .L22+40
 331 0098 1378     		ldrb	r3, [r2]	@ zero_extendqisi2
 332 009a 43F00103 		orr	r3, r3, #1
 333 009e 1370     		strb	r3, [r2]
 244:.\Generated_Source\PSoC5/cyfitter_cfg.c **** 	CY_SET_XTND_REG8((void CYFAR *)(CYREG_PM_ACT_CFG0), ((CY_GET_XTND_REG8((void CYFAR *)CYREG_PM_ACT_
 334              		.loc 1 244 0
 335 00a0 013A     		subs	r2, r2, #1
 336 00a2 1378     		ldrb	r3, [r2]	@ zero_extendqisi2
 337 00a4 43F00103 		orr	r3, r3, #1
 338 00a8 1370     		strb	r3, [r2]
 245:.\Generated_Source\PSoC5/cyfitter_cfg.c **** }
 339              		.loc 1 245 0
 340 00aa 013A     		subs	r2, r2, #1
 341 00ac 1378     		ldrb	r3, [r2]	@ zero_extendqisi2
 342 00ae 43F08003 		orr	r3, r3, #128
 343 00b2 1370     		strb	r3, [r2]
 344 00b4 38BD     		pop	{r3, r4, r5, pc}
 345              	.LVL27:
 346              	.L23:
 347 00b6 00BF     		.align	2
 348              	.L22:
 349 00b8 80400040 		.word	1073758336
 350 00bc 00410040 		.word	1073758464
 351 00c0 74000048 		.word	1207959668
 352 00c4 00430040 		.word	1073758976
 353 00c8 08010049 		.word	1224737032
 354 00cc A1460040 		.word	1073759905
 355 00d0 22420040 		.word	1073758754
 356 00d4 25420040 		.word	1073758757
 357 00d8 04400040 		.word	1073758212
 358 00dc 06400040 		.word	1073758214
 359 00e0 A2430040 		.word	1073759138
 360              		.cfi_endproc
 361              	.LFE5:
 362              		.size	ClockSetup, .-ClockSetup
 363              		.section	.text.SetAnalogRoutingPumps,"ax",%progbits
 364              		.align	2
 365              		.global	SetAnalogRoutingPumps
 366              		.thumb
 367              		.thumb_func
 368              		.type	SetAnalogRoutingPumps, %function
 369              	SetAnalogRoutingPumps:
 370              	.LFB7:
 276:.\Generated_Source\PSoC5/cyfitter_cfg.c **** }
 277:.\Generated_Source\PSoC5/cyfitter_cfg.c **** 
 278:.\Generated_Source\PSoC5/cyfitter_cfg.c **** 
 279:.\Generated_Source\PSoC5/cyfitter_cfg.c **** /*******************************************************************************
ARM GAS  C:\Users\IVYLIU~1\AppData\Local\Temp\ccrR58bi.s 			page 13


 280:.\Generated_Source\PSoC5/cyfitter_cfg.c **** * Function Name: SetAnalogRoutingPumps
 281:.\Generated_Source\PSoC5/cyfitter_cfg.c **** ********************************************************************************
 282:.\Generated_Source\PSoC5/cyfitter_cfg.c **** *
 283:.\Generated_Source\PSoC5/cyfitter_cfg.c **** * Summary:
 284:.\Generated_Source\PSoC5/cyfitter_cfg.c **** * Enables or disables the analog pumps feeding analog routing switches.
 285:.\Generated_Source\PSoC5/cyfitter_cfg.c **** * Intended to be called at startup, based on the Vdda system configuration;
 286:.\Generated_Source\PSoC5/cyfitter_cfg.c **** * may be called during operation when the user informs us that the Vdda voltage
 287:.\Generated_Source\PSoC5/cyfitter_cfg.c **** * crossed the pump threshold.
 288:.\Generated_Source\PSoC5/cyfitter_cfg.c **** *
 289:.\Generated_Source\PSoC5/cyfitter_cfg.c **** * Parameters:
 290:.\Generated_Source\PSoC5/cyfitter_cfg.c **** *  enabled - 1 to enable the pumps, 0 to disable the pumps
 291:.\Generated_Source\PSoC5/cyfitter_cfg.c **** *
 292:.\Generated_Source\PSoC5/cyfitter_cfg.c **** * Return:
 293:.\Generated_Source\PSoC5/cyfitter_cfg.c **** *  void
 294:.\Generated_Source\PSoC5/cyfitter_cfg.c **** *
 295:.\Generated_Source\PSoC5/cyfitter_cfg.c **** *******************************************************************************/
 296:.\Generated_Source\PSoC5/cyfitter_cfg.c **** void SetAnalogRoutingPumps(uint8 enabled)
 297:.\Generated_Source\PSoC5/cyfitter_cfg.c **** {
 371              		.loc 1 297 0
 372              		.cfi_startproc
 373              		@ args = 0, pretend = 0, frame = 0
 374              		@ frame_needed = 0, uses_anonymous_args = 0
 375              		@ link register save eliminated.
 376              	.LVL28:
 298:.\Generated_Source\PSoC5/cyfitter_cfg.c **** 	uint8 regValue = CY_GET_XTND_REG8((void CYFAR *)CYREG_PUMP_CR0);
 377              		.loc 1 298 0
 378 0000 054B     		ldr	r3, .L27
 379 0002 1B78     		ldrb	r3, [r3]	@ zero_extendqisi2
 380 0004 DBB2     		uxtb	r3, r3
 381              	.LVL29:
 299:.\Generated_Source\PSoC5/cyfitter_cfg.c **** 	if (enabled != 0u)
 382              		.loc 1 299 0
 383 0006 10B1     		cbz	r0, .L25
 300:.\Generated_Source\PSoC5/cyfitter_cfg.c **** 	{
 301:.\Generated_Source\PSoC5/cyfitter_cfg.c **** 		regValue |= 0x22u;
 384              		.loc 1 301 0
 385 0008 43F02203 		orr	r3, r3, #34
 386              	.LVL30:
 387 000c 01E0     		b	.L26
 388              	.L25:
 302:.\Generated_Source\PSoC5/cyfitter_cfg.c **** 	}
 303:.\Generated_Source\PSoC5/cyfitter_cfg.c **** 	else
 304:.\Generated_Source\PSoC5/cyfitter_cfg.c **** 	{
 305:.\Generated_Source\PSoC5/cyfitter_cfg.c **** 		regValue &= (uint8)~0x22u;
 389              		.loc 1 305 0
 390 000e 03F0DD03 		and	r3, r3, #221
 391              	.LVL31:
 392              	.L26:
 306:.\Generated_Source\PSoC5/cyfitter_cfg.c **** 	}
 307:.\Generated_Source\PSoC5/cyfitter_cfg.c **** 	CY_SET_XTND_REG8((void CYFAR *)CYREG_PUMP_CR0, regValue);
 393              		.loc 1 307 0
 394 0012 014A     		ldr	r2, .L27
 395 0014 1370     		strb	r3, [r2]
 396 0016 7047     		bx	lr
 397              	.L28:
 398              		.align	2
 399              	.L27:
ARM GAS  C:\Users\IVYLIU~1\AppData\Local\Temp\ccrR58bi.s 			page 14


 400 0018 76580040 		.word	1073764470
 401              		.cfi_endproc
 402              	.LFE7:
 403              		.size	SetAnalogRoutingPumps, .-SetAnalogRoutingPumps
 404              		.section	.text.ADC_DelSig_1_AMux_Set,"ax",%progbits
 405              		.align	2
 406              		.global	ADC_DelSig_1_AMux_Set
 407              		.thumb
 408              		.thumb_func
 409              		.type	ADC_DelSig_1_AMux_Set, %function
 410              	ADC_DelSig_1_AMux_Set:
 411              	.LFB8:
 308:.\Generated_Source\PSoC5/cyfitter_cfg.c **** }
 309:.\Generated_Source\PSoC5/cyfitter_cfg.c **** 
 310:.\Generated_Source\PSoC5/cyfitter_cfg.c **** #define CY_AMUX_UNUSED CYREG_BOOST_SR
 311:.\Generated_Source\PSoC5/cyfitter_cfg.c **** /* This is an implementation detail of the AMux. Code that depends on it may be
 312:.\Generated_Source\PSoC5/cyfitter_cfg.c ****    incompatible with other versions of PSoC Creator. */
 313:.\Generated_Source\PSoC5/cyfitter_cfg.c **** uint8 CYXDATA * const CYCODE ADC_DelSig_1_AMux__addrTable[2] = {
 314:.\Generated_Source\PSoC5/cyfitter_cfg.c **** 	(uint8 CYXDATA *)CYREG_DSM0_SW3, 
 315:.\Generated_Source\PSoC5/cyfitter_cfg.c **** 	(uint8 CYXDATA *)CY_AMUX_UNUSED, 
 316:.\Generated_Source\PSoC5/cyfitter_cfg.c **** };
 317:.\Generated_Source\PSoC5/cyfitter_cfg.c **** 
 318:.\Generated_Source\PSoC5/cyfitter_cfg.c **** /* This is an implementation detail of the AMux. Code that depends on it may be
 319:.\Generated_Source\PSoC5/cyfitter_cfg.c ****    incompatible with other versions of PSoC Creator. */
 320:.\Generated_Source\PSoC5/cyfitter_cfg.c **** const uint8 CYCODE ADC_DelSig_1_AMux__maskTable[2] = {
 321:.\Generated_Source\PSoC5/cyfitter_cfg.c **** 	0x40u, 
 322:.\Generated_Source\PSoC5/cyfitter_cfg.c **** 	0x00u, 
 323:.\Generated_Source\PSoC5/cyfitter_cfg.c **** };
 324:.\Generated_Source\PSoC5/cyfitter_cfg.c **** 
 325:.\Generated_Source\PSoC5/cyfitter_cfg.c **** /*******************************************************************************
 326:.\Generated_Source\PSoC5/cyfitter_cfg.c **** * Function Name: ADC_DelSig_1_AMux_Set
 327:.\Generated_Source\PSoC5/cyfitter_cfg.c **** ********************************************************************************
 328:.\Generated_Source\PSoC5/cyfitter_cfg.c **** * Summary:
 329:.\Generated_Source\PSoC5/cyfitter_cfg.c **** *  This function is used to set a particular channel as active on the AMux.
 330:.\Generated_Source\PSoC5/cyfitter_cfg.c **** *
 331:.\Generated_Source\PSoC5/cyfitter_cfg.c **** * Parameters:  
 332:.\Generated_Source\PSoC5/cyfitter_cfg.c **** *   channel - The mux channel input to set as active
 333:.\Generated_Source\PSoC5/cyfitter_cfg.c **** *
 334:.\Generated_Source\PSoC5/cyfitter_cfg.c **** * Return:
 335:.\Generated_Source\PSoC5/cyfitter_cfg.c **** *   void
 336:.\Generated_Source\PSoC5/cyfitter_cfg.c **** *
 337:.\Generated_Source\PSoC5/cyfitter_cfg.c **** *******************************************************************************/
 338:.\Generated_Source\PSoC5/cyfitter_cfg.c **** void ADC_DelSig_1_AMux_Set(uint8 channel)
 339:.\Generated_Source\PSoC5/cyfitter_cfg.c **** {
 412              		.loc 1 339 0
 413              		.cfi_startproc
 414              		@ args = 0, pretend = 0, frame = 0
 415              		@ frame_needed = 0, uses_anonymous_args = 0
 416              		@ link register save eliminated.
 417              	.LVL32:
 340:.\Generated_Source\PSoC5/cyfitter_cfg.c **** 	if (channel < 2)
 418              		.loc 1 340 0
 419 0000 0128     		cmp	r0, #1
 420 0002 07D8     		bhi	.L29
 341:.\Generated_Source\PSoC5/cyfitter_cfg.c **** 	{
 342:.\Generated_Source\PSoC5/cyfitter_cfg.c **** 		*ADC_DelSig_1_AMux__addrTable[channel] |= ADC_DelSig_1_AMux__maskTable[channel];
 421              		.loc 1 342 0
ARM GAS  C:\Users\IVYLIU~1\AppData\Local\Temp\ccrR58bi.s 			page 15


 422 0004 044B     		ldr	r3, .L31
 423 0006 53F82020 		ldr	r2, [r3, r0, lsl #2]
 424 000a 1844     		add	r0, r0, r3
 425              	.LVL33:
 426 000c 017A     		ldrb	r1, [r0, #8]	@ zero_extendqisi2
 427 000e 1378     		ldrb	r3, [r2]	@ zero_extendqisi2
 428 0010 0B43     		orrs	r3, r3, r1
 429 0012 1370     		strb	r3, [r2]
 430              	.L29:
 431 0014 7047     		bx	lr
 432              	.L32:
 433 0016 00BF     		.align	2
 434              	.L31:
 435 0018 00000000 		.word	.LANCHOR0
 436              		.cfi_endproc
 437              	.LFE8:
 438              		.size	ADC_DelSig_1_AMux_Set, .-ADC_DelSig_1_AMux_Set
 439              		.section	.text.ADC_DelSig_1_AMux_Unset,"ax",%progbits
 440              		.align	2
 441              		.global	ADC_DelSig_1_AMux_Unset
 442              		.thumb
 443              		.thumb_func
 444              		.type	ADC_DelSig_1_AMux_Unset, %function
 445              	ADC_DelSig_1_AMux_Unset:
 446              	.LFB9:
 343:.\Generated_Source\PSoC5/cyfitter_cfg.c **** 	}
 344:.\Generated_Source\PSoC5/cyfitter_cfg.c **** }
 345:.\Generated_Source\PSoC5/cyfitter_cfg.c **** 
 346:.\Generated_Source\PSoC5/cyfitter_cfg.c **** /*******************************************************************************
 347:.\Generated_Source\PSoC5/cyfitter_cfg.c **** * Function Name: ADC_DelSig_1_AMux_Unset
 348:.\Generated_Source\PSoC5/cyfitter_cfg.c **** ********************************************************************************
 349:.\Generated_Source\PSoC5/cyfitter_cfg.c **** * Summary:
 350:.\Generated_Source\PSoC5/cyfitter_cfg.c **** *  This function is used to clear a particular channel from being active on the
 351:.\Generated_Source\PSoC5/cyfitter_cfg.c **** *  AMux.
 352:.\Generated_Source\PSoC5/cyfitter_cfg.c **** *
 353:.\Generated_Source\PSoC5/cyfitter_cfg.c **** * Parameters:  
 354:.\Generated_Source\PSoC5/cyfitter_cfg.c **** *   channel - The mux channel input to mark inactive
 355:.\Generated_Source\PSoC5/cyfitter_cfg.c **** *
 356:.\Generated_Source\PSoC5/cyfitter_cfg.c **** * Return:
 357:.\Generated_Source\PSoC5/cyfitter_cfg.c **** *   void
 358:.\Generated_Source\PSoC5/cyfitter_cfg.c **** *
 359:.\Generated_Source\PSoC5/cyfitter_cfg.c **** *******************************************************************************/
 360:.\Generated_Source\PSoC5/cyfitter_cfg.c **** void ADC_DelSig_1_AMux_Unset(uint8 channel)
 361:.\Generated_Source\PSoC5/cyfitter_cfg.c **** {
 447              		.loc 1 361 0
 448              		.cfi_startproc
 449              		@ args = 0, pretend = 0, frame = 0
 450              		@ frame_needed = 0, uses_anonymous_args = 0
 451              		@ link register save eliminated.
 452              	.LVL34:
 362:.\Generated_Source\PSoC5/cyfitter_cfg.c **** 	if (channel < 2)
 453              		.loc 1 362 0
 454 0000 0128     		cmp	r0, #1
 455 0002 08D8     		bhi	.L33
 363:.\Generated_Source\PSoC5/cyfitter_cfg.c **** 	{
 364:.\Generated_Source\PSoC5/cyfitter_cfg.c **** 		*ADC_DelSig_1_AMux__addrTable[channel] &= (uint8)~ADC_DelSig_1_AMux__maskTable[channel];
 456              		.loc 1 364 0
ARM GAS  C:\Users\IVYLIU~1\AppData\Local\Temp\ccrR58bi.s 			page 16


 457 0004 044B     		ldr	r3, .L35
 458 0006 53F82020 		ldr	r2, [r3, r0, lsl #2]
 459 000a 1844     		add	r0, r0, r3
 460              	.LVL35:
 461 000c 017A     		ldrb	r1, [r0, #8]	@ zero_extendqisi2
 462 000e 1378     		ldrb	r3, [r2]	@ zero_extendqisi2
 463 0010 23EA0103 		bic	r3, r3, r1
 464 0014 1370     		strb	r3, [r2]
 465              	.L33:
 466 0016 7047     		bx	lr
 467              	.L36:
 468              		.align	2
 469              	.L35:
 470 0018 00000000 		.word	.LANCHOR0
 471              		.cfi_endproc
 472              	.LFE9:
 473              		.size	ADC_DelSig_1_AMux_Unset, .-ADC_DelSig_1_AMux_Unset
 474              		.section	.text.cyfitter_cfg,"ax",%progbits
 475              		.align	2
 476              		.global	cyfitter_cfg
 477              		.thumb
 478              		.thumb_func
 479              		.type	cyfitter_cfg, %function
 480              	cyfitter_cfg:
 481              	.LFB10:
 365:.\Generated_Source\PSoC5/cyfitter_cfg.c **** 	}
 366:.\Generated_Source\PSoC5/cyfitter_cfg.c **** }
 367:.\Generated_Source\PSoC5/cyfitter_cfg.c **** 
 368:.\Generated_Source\PSoC5/cyfitter_cfg.c **** 
 369:.\Generated_Source\PSoC5/cyfitter_cfg.c **** 
 370:.\Generated_Source\PSoC5/cyfitter_cfg.c **** /*******************************************************************************
 371:.\Generated_Source\PSoC5/cyfitter_cfg.c **** * Function Name: cyfitter_cfg
 372:.\Generated_Source\PSoC5/cyfitter_cfg.c **** ********************************************************************************
 373:.\Generated_Source\PSoC5/cyfitter_cfg.c **** * Summary:
 374:.\Generated_Source\PSoC5/cyfitter_cfg.c **** *  This function is called by the start-up code for the selected device. It
 375:.\Generated_Source\PSoC5/cyfitter_cfg.c **** *  performs all of the necessary device configuration based on the design
 376:.\Generated_Source\PSoC5/cyfitter_cfg.c **** *  settings.  This includes settings from the Design Wide Resources (DWR) such
 377:.\Generated_Source\PSoC5/cyfitter_cfg.c **** *  as Clocks and Pins as well as any component configuration that is necessary.
 378:.\Generated_Source\PSoC5/cyfitter_cfg.c **** *
 379:.\Generated_Source\PSoC5/cyfitter_cfg.c **** * Parameters:  
 380:.\Generated_Source\PSoC5/cyfitter_cfg.c **** *   void
 381:.\Generated_Source\PSoC5/cyfitter_cfg.c **** *
 382:.\Generated_Source\PSoC5/cyfitter_cfg.c **** * Return:
 383:.\Generated_Source\PSoC5/cyfitter_cfg.c **** *   void
 384:.\Generated_Source\PSoC5/cyfitter_cfg.c **** *
 385:.\Generated_Source\PSoC5/cyfitter_cfg.c **** *******************************************************************************/
 386:.\Generated_Source\PSoC5/cyfitter_cfg.c **** 
 387:.\Generated_Source\PSoC5/cyfitter_cfg.c **** void cyfitter_cfg(void)
 388:.\Generated_Source\PSoC5/cyfitter_cfg.c **** {
 482              		.loc 1 388 0
 483              		.cfi_startproc
 484              		@ args = 0, pretend = 0, frame = 0
 485              		@ frame_needed = 0, uses_anonymous_args = 0
 486 0000 70B5     		push	{r4, r5, r6, lr}
 487              		.cfi_def_cfa_offset 16
 488              		.cfi_offset 4, -16
 489              		.cfi_offset 5, -12
ARM GAS  C:\Users\IVYLIU~1\AppData\Local\Temp\ccrR58bi.s 			page 17


 490              		.cfi_offset 6, -8
 491              		.cfi_offset 14, -4
 389:.\Generated_Source\PSoC5/cyfitter_cfg.c **** #ifdef CYGlobalIntDisable
 390:.\Generated_Source\PSoC5/cyfitter_cfg.c **** 	/* Disable interrupts by default. Let user enable if/when they want. */
 391:.\Generated_Source\PSoC5/cyfitter_cfg.c **** 	CYGlobalIntDisable
 492              		.loc 1 391 0
 493              	@ 391 ".\Generated_Source\PSoC5\cyfitter_cfg.c" 1
 494 0002 72B6     		CPSID   i
 495              	@ 0 "" 2
 392:.\Generated_Source\PSoC5/cyfitter_cfg.c **** #endif
 393:.\Generated_Source\PSoC5/cyfitter_cfg.c **** 
 394:.\Generated_Source\PSoC5/cyfitter_cfg.c **** 	/* Enable/Disable Debug functionality based on settings from System DWR */
 395:.\Generated_Source\PSoC5/cyfitter_cfg.c **** 	CY_SET_XTND_REG8((void CYFAR *)CYREG_MLOGIC_DEBUG, (CY_GET_XTND_REG8((void CYFAR *)CYREG_MLOGIC_DE
 496              		.loc 1 395 0
 497              		.thumb
 498 0004 284A     		ldr	r2, .L41
 499 0006 1378     		ldrb	r3, [r2]	@ zero_extendqisi2
 500 0008 43F00403 		orr	r3, r3, #4
 501 000c 1370     		strb	r3, [r2]
 502              	.LVL36:
 503              	.LBB3:
 396:.\Generated_Source\PSoC5/cyfitter_cfg.c **** 
 397:.\Generated_Source\PSoC5/cyfitter_cfg.c **** 	{
 398:.\Generated_Source\PSoC5/cyfitter_cfg.c **** 
 399:.\Generated_Source\PSoC5/cyfitter_cfg.c **** 		CYPACKED typedef struct {
 400:.\Generated_Source\PSoC5/cyfitter_cfg.c **** 			void CYFAR *address;
 401:.\Generated_Source\PSoC5/cyfitter_cfg.c **** 			uint16 size;
 402:.\Generated_Source\PSoC5/cyfitter_cfg.c **** 		} CYPACKED_ATTR cfg_memset_t;
 403:.\Generated_Source\PSoC5/cyfitter_cfg.c **** 
 404:.\Generated_Source\PSoC5/cyfitter_cfg.c **** 		static const cfg_memset_t CYCODE cfg_memset_list [] = {
 405:.\Generated_Source\PSoC5/cyfitter_cfg.c **** 			/* address, size */
 406:.\Generated_Source\PSoC5/cyfitter_cfg.c **** 			{(void CYFAR *)(CYREG_PRT0_DR), 32u},
 407:.\Generated_Source\PSoC5/cyfitter_cfg.c **** 			{(void CYFAR *)(CYREG_PRT3_DR), 48u},
 408:.\Generated_Source\PSoC5/cyfitter_cfg.c **** 			{(void CYFAR *)(CYREG_PRT12_DR), 16u},
 409:.\Generated_Source\PSoC5/cyfitter_cfg.c **** 			{(void CYFAR *)(CYREG_PRT15_DR), 16u},
 410:.\Generated_Source\PSoC5/cyfitter_cfg.c **** 			{(void CYFAR *)(CYDEV_UCFG_B0_P0_U0_BASE), 4096u},
 411:.\Generated_Source\PSoC5/cyfitter_cfg.c **** 			{(void CYFAR *)(CYDEV_UCFG_B1_P2_U0_BASE), 2048u},
 412:.\Generated_Source\PSoC5/cyfitter_cfg.c **** 			{(void CYFAR *)(CYDEV_UCFG_DSI0_BASE), 2560u},
 413:.\Generated_Source\PSoC5/cyfitter_cfg.c **** 			{(void CYFAR *)(CYDEV_UCFG_DSI12_BASE), 512u},
 414:.\Generated_Source\PSoC5/cyfitter_cfg.c **** 			{(void CYFAR *)(CYREG_BCTL0_MDCLK_EN), 32u},
 415:.\Generated_Source\PSoC5/cyfitter_cfg.c **** 		};
 416:.\Generated_Source\PSoC5/cyfitter_cfg.c **** 
 417:.\Generated_Source\PSoC5/cyfitter_cfg.c **** 		uint8 CYDATA i;
 418:.\Generated_Source\PSoC5/cyfitter_cfg.c **** 
 419:.\Generated_Source\PSoC5/cyfitter_cfg.c **** 		/* Zero out critical memory blocks before beginning configuration */
 420:.\Generated_Source\PSoC5/cyfitter_cfg.c **** 		for (i = 0u; i < (sizeof(cfg_memset_list)/sizeof(cfg_memset_list[0])); i++)
 504              		.loc 1 420 0
 505 000e 0024     		movs	r4, #0
 506 0010 0AE0     		b	.L38
 507              	.LVL37:
 508              	.L39:
 509              	.LBB4:
 421:.\Generated_Source\PSoC5/cyfitter_cfg.c **** 		{
 422:.\Generated_Source\PSoC5/cyfitter_cfg.c **** 			const cfg_memset_t CYCODE * CYDATA ms = &cfg_memset_list[i];
 423:.\Generated_Source\PSoC5/cyfitter_cfg.c **** 			CYMEMZERO(ms->address, (size_t)(uint32)(ms->size));
 510              		.loc 1 423 0 discriminator 3
 511 0012 2649     		ldr	r1, .L41+4
ARM GAS  C:\Users\IVYLIU~1\AppData\Local\Temp\ccrR58bi.s 			page 18


 512 0014 6300     		lsls	r3, r4, #1
 513 0016 1A19     		adds	r2, r3, r4
 514 0018 5200     		lsls	r2, r2, #1
 515 001a 0A44     		add	r2, r2, r1
 516 001c D068     		ldr	r0, [r2, #12]	@ unaligned
 517 001e 118A     		ldrh	r1, [r2, #16]
 518 0020 FFF7FEFF 		bl	CYMEMZERO
 519              	.LVL38:
 520              	.LBE4:
 420:.\Generated_Source\PSoC5/cyfitter_cfg.c **** 		{
 521              		.loc 1 420 0 discriminator 3
 522 0024 0134     		adds	r4, r4, #1
 523              	.LVL39:
 524 0026 E4B2     		uxtb	r4, r4
 525              	.LVL40:
 526              	.L38:
 420:.\Generated_Source\PSoC5/cyfitter_cfg.c **** 		{
 527              		.loc 1 420 0 is_stmt 0 discriminator 1
 528 0028 082C     		cmp	r4, #8
 529 002a F2D9     		bls	.L39
 424:.\Generated_Source\PSoC5/cyfitter_cfg.c **** 		}
 425:.\Generated_Source\PSoC5/cyfitter_cfg.c **** 
 426:.\Generated_Source\PSoC5/cyfitter_cfg.c **** 		cfg_write_bytes32(cy_cfg_addr_table, cy_cfg_data_table);
 530              		.loc 1 426 0 is_stmt 1
 531 002c 4FF09040 		mov	r0, #1207959552
 532 0030 1F49     		ldr	r1, .L41+8
 533 0032 FFF7FEFF 		bl	cfg_write_bytes32
 534              	.LVL41:
 427:.\Generated_Source\PSoC5/cyfitter_cfg.c **** 
 428:.\Generated_Source\PSoC5/cyfitter_cfg.c **** 		/* Perform normal device configuration. Order is not critical for these items. */
 429:.\Generated_Source\PSoC5/cyfitter_cfg.c **** 		CY_SET_XTND_REG8((void CYFAR *)(CYREG_DSM0_CR3), 0x0Au);
 535              		.loc 1 429 0
 536 0036 0A22     		movs	r2, #10
 537 0038 1E4B     		ldr	r3, .L41+12
 538 003a 1A70     		strb	r2, [r3]
 430:.\Generated_Source\PSoC5/cyfitter_cfg.c **** 
 431:.\Generated_Source\PSoC5/cyfitter_cfg.c **** 		/* Enable digital routing */
 432:.\Generated_Source\PSoC5/cyfitter_cfg.c **** 		CY_SET_XTND_REG8((void CYFAR *)CYREG_BCTL0_BANK_CTL, CY_GET_XTND_REG8((void CYFAR *)CYREG_BCTL0_B
 539              		.loc 1 432 0
 540 003c 1E4A     		ldr	r2, .L41+16
 541 003e 1378     		ldrb	r3, [r2]	@ zero_extendqisi2
 542 0040 43F00203 		orr	r3, r3, #2
 543 0044 1370     		strb	r3, [r2]
 433:.\Generated_Source\PSoC5/cyfitter_cfg.c **** 		CY_SET_XTND_REG8((void CYFAR *)CYREG_BCTL1_BANK_CTL, CY_GET_XTND_REG8((void CYFAR *)CYREG_BCTL1_B
 544              		.loc 1 433 0
 545 0046 1032     		adds	r2, r2, #16
 546 0048 1378     		ldrb	r3, [r2]	@ zero_extendqisi2
 547 004a 43F00203 		orr	r3, r3, #2
 548 004e 1370     		strb	r3, [r2]
 434:.\Generated_Source\PSoC5/cyfitter_cfg.c **** 
 435:.\Generated_Source\PSoC5/cyfitter_cfg.c **** 		/* Enable UDB array */
 436:.\Generated_Source\PSoC5/cyfitter_cfg.c **** 		CY_SET_XTND_REG8((void CYFAR *)CYREG_PM_ACT_CFG0, CY_GET_XTND_REG8((void CYFAR *)CYREG_PM_ACT_CFG
 549              		.loc 1 436 0
 550 0050 1A4C     		ldr	r4, .L41+20
 551              	.LVL42:
 552 0052 2378     		ldrb	r3, [r4]	@ zero_extendqisi2
 553 0054 43F04003 		orr	r3, r3, #64
ARM GAS  C:\Users\IVYLIU~1\AppData\Local\Temp\ccrR58bi.s 			page 19


 554 0058 2370     		strb	r3, [r4]
 437:.\Generated_Source\PSoC5/cyfitter_cfg.c **** 		CY_SET_XTND_REG8((void CYFAR *)CYREG_PM_AVAIL_CR2, CY_GET_XTND_REG8((void CYFAR *)CYREG_PM_AVAIL_
 555              		.loc 1 437 0
 556 005a A2F58632 		sub	r2, r2, #68608
 557 005e 513A     		subs	r2, r2, #81
 558 0060 1378     		ldrb	r3, [r2]	@ zero_extendqisi2
 559 0062 43F01003 		orr	r3, r3, #16
 560 0066 1370     		strb	r3, [r2]
 561              	.LBE3:
 438:.\Generated_Source\PSoC5/cyfitter_cfg.c **** 	}
 439:.\Generated_Source\PSoC5/cyfitter_cfg.c **** 
 440:.\Generated_Source\PSoC5/cyfitter_cfg.c **** 
 441:.\Generated_Source\PSoC5/cyfitter_cfg.c **** 	/* Perform second pass device configuration. These items must be configured in specific order afte
 442:.\Generated_Source\PSoC5/cyfitter_cfg.c **** 	CYCONFIGCPY((void CYFAR *)(CYREG_PRT2_DM0), (const void CYFAR *)(BS_IOPINS0_2_VAL), 8u);
 562              		.loc 1 442 0
 563 0068 1548     		ldr	r0, .L41+24
 564 006a 1649     		ldr	r1, .L41+28
 565 006c 0822     		movs	r2, #8
 566 006e FFF7FEFF 		bl	CYCONFIGCPY
 567              	.LVL43:
 443:.\Generated_Source\PSoC5/cyfitter_cfg.c **** 	CYCONFIGCPY((void CYFAR *)(CYREG_PRT6_DM0), (const void CYFAR *)(BS_IOPINS0_6_VAL), 8u);
 568              		.loc 1 443 0
 569 0072 1548     		ldr	r0, .L41+32
 570 0074 1549     		ldr	r1, .L41+36
 571 0076 0822     		movs	r2, #8
 572 0078 FFF7FEFF 		bl	CYCONFIGCPY
 573              	.LVL44:
 444:.\Generated_Source\PSoC5/cyfitter_cfg.c **** 	/* Switch Boost to the precision bandgap reference from its internal reference */
 445:.\Generated_Source\PSoC5/cyfitter_cfg.c **** 	CY_SET_REG8((void CYXDATA *)CYREG_BOOST_CR2, (CY_GET_REG8((void CYXDATA *)CYREG_BOOST_CR2) | 0x08u
 574              		.loc 1 445 0
 575 007c 144A     		ldr	r2, .L41+40
 576 007e 1378     		ldrb	r3, [r2]	@ zero_extendqisi2
 577 0080 43F00803 		orr	r3, r3, #8
 578 0084 1370     		strb	r3, [r2]
 446:.\Generated_Source\PSoC5/cyfitter_cfg.c **** 
 447:.\Generated_Source\PSoC5/cyfitter_cfg.c **** 	/* Set Flash Cycles based on max possible frequency in case a glitch occurs during ClockSetup(). *
 448:.\Generated_Source\PSoC5/cyfitter_cfg.c **** 	CY_SET_XTND_REG8((void CYFAR *)(CYREG_CACHE_CC_CTL), (((CYDEV_INSTRUCT_CACHE_ENABLED) != 0) ? 0x01
 579              		.loc 1 448 0
 580 0086 134E     		ldr	r6, .L41+44
 581 0088 0125     		movs	r5, #1
 582 008a 3570     		strb	r5, [r6]
 449:.\Generated_Source\PSoC5/cyfitter_cfg.c **** 	/* Setup clocks based on selections from Clock DWR */
 450:.\Generated_Source\PSoC5/cyfitter_cfg.c **** 	ClockSetup();
 583              		.loc 1 450 0
 584 008c FFF7FEFF 		bl	ClockSetup
 585              	.LVL45:
 451:.\Generated_Source\PSoC5/cyfitter_cfg.c **** 	/* Set Flash Cycles based on newly configured 24.00MHz Bus Clock. */
 452:.\Generated_Source\PSoC5/cyfitter_cfg.c **** 	CY_SET_XTND_REG8((void CYFAR *)(CYREG_CACHE_CC_CTL), (((CYDEV_INSTRUCT_CACHE_ENABLED) != 0) ? 0x81
 586              		.loc 1 452 0
 587 0090 8123     		movs	r3, #129
 588 0092 3370     		strb	r3, [r6]
 453:.\Generated_Source\PSoC5/cyfitter_cfg.c **** 	CY_SET_XTND_REG8((void CYFAR *)(CYREG_PANTHER_WAITPIPE), 0x01u);
 589              		.loc 1 453 0
 590 0094 104B     		ldr	r3, .L41+48
 591 0096 1D70     		strb	r5, [r3]
 454:.\Generated_Source\PSoC5/cyfitter_cfg.c **** 
 455:.\Generated_Source\PSoC5/cyfitter_cfg.c **** 	/* Perform basic analog initialization to defaults */
ARM GAS  C:\Users\IVYLIU~1\AppData\Local\Temp\ccrR58bi.s 			page 20


 456:.\Generated_Source\PSoC5/cyfitter_cfg.c **** 	AnalogSetDefault();
 592              		.loc 1 456 0
 593 0098 FFF7FEFF 		bl	AnalogSetDefault
 594              	.LVL46:
 457:.\Generated_Source\PSoC5/cyfitter_cfg.c **** 
 458:.\Generated_Source\PSoC5/cyfitter_cfg.c **** 	/* Configure alternate active mode */
 459:.\Generated_Source\PSoC5/cyfitter_cfg.c **** 	CYCONFIGCPY((void CYFAR *)CYDEV_PM_STBY_BASE, (const void CYFAR *)CYDEV_PM_ACT_BASE, 14u);
 595              		.loc 1 459 0
 596 009c 0F48     		ldr	r0, .L41+52
 597 009e 2146     		mov	r1, r4
 598 00a0 0E22     		movs	r2, #14
 599 00a2 FFF7FEFF 		bl	CYCONFIGCPY
 600              	.LVL47:
 601 00a6 70BD     		pop	{r4, r5, r6, pc}
 602              	.L42:
 603              		.align	2
 604              	.L41:
 605 00a8 E8460040 		.word	1073759976
 606 00ac 00000000 		.word	.LANCHOR0
 607 00b0 34000048 		.word	1207959604
 608 00b4 83580040 		.word	1073764483
 609 00b8 03500140 		.word	1073827843
 610 00bc A0430040 		.word	1073759136
 611 00c0 22510040 		.word	1073762594
 612 00c4 64000048 		.word	1207959652
 613 00c8 62510040 		.word	1073762658
 614 00cc 6C000048 		.word	1207959660
 615 00d0 22430040 		.word	1073759010
 616 00d4 00480040 		.word	1073760256
 617 00d8 04000840 		.word	1074266116
 618 00dc B0430040 		.word	1073759152
 619              		.cfi_endproc
 620              	.LFE10:
 621              		.size	cyfitter_cfg, .-cyfitter_cfg
 622              		.global	ADC_DelSig_1_AMux__maskTable
 623              		.global	ADC_DelSig_1_AMux__addrTable
 624              		.section	.rodata
 625              		.align	2
 626              		.set	.LANCHOR0,. + 0
 627              		.type	ADC_DelSig_1_AMux__addrTable, %object
 628              		.size	ADC_DelSig_1_AMux__addrTable, 8
 629              	ADC_DelSig_1_AMux__addrTable:
 630 0000 035B0040 		.word	1073765123
 631 0004 24430040 		.word	1073759012
 632              		.type	ADC_DelSig_1_AMux__maskTable, %object
 633              		.size	ADC_DelSig_1_AMux__maskTable, 2
 634              	ADC_DelSig_1_AMux__maskTable:
 635 0008 40       		.byte	64
 636 0009 00       		.byte	0
 637 000a 0000     		.space	2
 638              		.type	cfg_memset_list.4894, %object
 639              		.size	cfg_memset_list.4894, 54
 640              	cfg_memset_list.4894:
 641 000c 00510040 		.word	1073762560
 642 0010 2000     		.short	32
 643 0012 30510040 		.4byte	1073762608
 644 0016 3000     		.short	48
ARM GAS  C:\Users\IVYLIU~1\AppData\Local\Temp\ccrR58bi.s 			page 21


 645 0018 C0510040 		.word	1073762752
 646 001c 1000     		.short	16
 647 001e F0510040 		.4byte	1073762800
 648 0022 1000     		.short	16
 649 0024 00000140 		.word	1073807360
 650 0028 0010     		.short	4096
 651 002a 00140140 		.4byte	1073812480
 652 002e 0008     		.short	2048
 653 0030 00400140 		.word	1073823744
 654 0034 000A     		.short	2560
 655 0036 004C0140 		.4byte	1073826816
 656 003a 0002     		.short	512
 657 003c 00500140 		.word	1073827840
 658 0040 2000     		.short	32
 659 0042 0000     		.text
 660              	.Letext0:
 661              		.file 2 "c:\\program files (x86)\\cypress\\psoc creator\\3.3\\psoc creator\\import\\gnu\\arm\\4.9.
 662              		.file 3 ".\\Generated_Source\\PSoC5\\cytypes.h"
 663              		.file 4 ".\\Generated_Source\\PSoC5\\CyLib.h"