ARM GAS  C:\Users\IVYLIU~1\AppData\Local\Temp\ccwuWvRX.s 			page 1


   1              		.syntax unified
   2              		.cpu cortex-m3
   3              		.fpu softvfp
   4              		.eabi_attribute 20, 1
   5              		.eabi_attribute 21, 1
   6              		.eabi_attribute 23, 3
   7              		.eabi_attribute 24, 1
   8              		.eabi_attribute 25, 1
   9              		.eabi_attribute 26, 1
  10              		.eabi_attribute 30, 1
  11              		.eabi_attribute 34, 1
  12              		.eabi_attribute 18, 4
  13              		.thumb
  14              		.file	"fft-dit.c"
  15              		.text
  16              	.Ltext0:
  17              		.cfi_sections	.debug_frame
  18              		.section	.text.ctz,"ax",%progbits
  19              		.align	2
  20              		.thumb
  21              		.thumb_func
  22              		.type	ctz, %function
  23              	ctz:
  24              	.LFB0:
  25              		.file 1 ".\\fft-dit.c"
   1:.\fft-dit.c   **** #include "fft.h"
   2:.\fft-dit.c   **** #include <math.h>
   3:.\fft-dit.c   **** #include <stdlib.h>
   4:.\fft-dit.c   **** #include <string.h>
   5:.\fft-dit.c   **** 
   6:.\fft-dit.c   **** static int ctz(size_t N)
   7:.\fft-dit.c   **** {
  26              		.loc 1 7 0
  27              		.cfi_startproc
  28              		@ args = 0, pretend = 0, frame = 0
  29              		@ frame_needed = 0, uses_anonymous_args = 0
  30              		@ link register save eliminated.
  31              	.LVL0:
   8:.\fft-dit.c   **** 	int ctz1 = 0;
  32              		.loc 1 8 0
  33 0000 0023     		movs	r3, #0
   9:.\fft-dit.c   **** 
  10:.\fft-dit.c   **** 	while( N ) {
  34              		.loc 1 10 0
  35 0002 01E0     		b	.L2
  36              	.LVL1:
  37              	.L3:
  11:.\fft-dit.c   **** 		ctz1++;
  38              		.loc 1 11 0
  39 0004 0133     		adds	r3, r3, #1
  40              	.LVL2:
  12:.\fft-dit.c   **** 		N >>= 1;
  41              		.loc 1 12 0
  42 0006 4008     		lsrs	r0, r0, #1
  43              	.LVL3:
  44              	.L2:
  10:.\fft-dit.c   **** 		ctz1++;
ARM GAS  C:\Users\IVYLIU~1\AppData\Local\Temp\ccwuWvRX.s 			page 2


  45              		.loc 1 10 0
  46 0008 0028     		cmp	r0, #0
  47 000a FBD1     		bne	.L3
  13:.\fft-dit.c   **** 	}
  14:.\fft-dit.c   **** 
  15:.\fft-dit.c   **** 	return ctz1-1;
  16:.\fft-dit.c   **** }
  48              		.loc 1 16 0
  49 000c 581E     		subs	r0, r3, #1
  50              	.LVL4:
  51 000e 7047     		bx	lr
  52              		.cfi_endproc
  53              	.LFE0:
  54              		.size	ctz, .-ctz
  55              		.section	.text.nop_split,"ax",%progbits
  56              		.align	2
  57              		.thumb
  58              		.thumb_func
  59              		.type	nop_split, %function
  60              	nop_split:
  61              	.LFB1:
  17:.\fft-dit.c   **** 
  18:.\fft-dit.c   **** static void nop_split(const float complex *x, float complex *X, size_t N)
  19:.\fft-dit.c   **** {
  62              		.loc 1 19 0
  63              		.cfi_startproc
  64              		@ args = 0, pretend = 0, frame = 0
  65              		@ frame_needed = 0, uses_anonymous_args = 0
  66              	.LVL5:
  67 0000 F0B5     		push	{r4, r5, r6, r7, lr}
  68              		.cfi_def_cfa_offset 20
  69              		.cfi_offset 4, -20
  70              		.cfi_offset 5, -16
  71              		.cfi_offset 6, -12
  72              		.cfi_offset 7, -8
  73              		.cfi_offset 14, -4
  74              	.LVL6:
  75              	.LBB2:
  20:.\fft-dit.c   **** 	for(size_t n = 0; n < N/2; n++) {
  76              		.loc 1 20 0
  77 0002 0023     		movs	r3, #0
  78 0004 12E0     		b	.L5
  79              	.LVL7:
  80              	.L6:
  21:.\fft-dit.c   **** 		X[0/2+n] = x[2*n+0];
  81              		.loc 1 21 0 discriminator 3
  82 0006 01EBC307 		add	r7, r1, r3, lsl #3
  83 000a 1E01     		lsls	r6, r3, #4
  84 000c 8519     		adds	r5, r0, r6
  85 000e 50F806E0 		ldr	lr, [r0, r6]	@ float
  86 0012 6E68     		ldr	r6, [r5, #4]	@ float
  87 0014 41F833E0 		str	lr, [r1, r3, lsl #3]	@ float
  88 0018 7E60     		str	r6, [r7, #4]	@ float
  22:.\fft-dit.c   **** 		X[N/2+n] = x[2*n+1];
  89              		.loc 1 22 0 discriminator 3
  90 001a 1C44     		add	r4, r4, r3
  91 001c 01EBC406 		add	r6, r1, r4, lsl #3
ARM GAS  C:\Users\IVYLIU~1\AppData\Local\Temp\ccwuWvRX.s 			page 3


  92 0020 AF68     		ldr	r7, [r5, #8]	@ float
  93 0022 ED68     		ldr	r5, [r5, #12]	@ float
  94 0024 41F83470 		str	r7, [r1, r4, lsl #3]	@ float
  95 0028 7560     		str	r5, [r6, #4]	@ float
  20:.\fft-dit.c   **** 	for(size_t n = 0; n < N/2; n++) {
  96              		.loc 1 20 0 discriminator 3
  97 002a 0133     		adds	r3, r3, #1
  98              	.LVL8:
  99              	.L5:
  20:.\fft-dit.c   **** 	for(size_t n = 0; n < N/2; n++) {
 100              		.loc 1 20 0 is_stmt 0 discriminator 1
 101 002c 5408     		lsrs	r4, r2, #1
 102 002e 9C42     		cmp	r4, r3
 103 0030 E9D8     		bhi	.L6
 104              	.LBE2:
  23:.\fft-dit.c   **** 	}
  24:.\fft-dit.c   **** }
 105              		.loc 1 24 0 is_stmt 1
 106 0032 F0BD     		pop	{r4, r5, r6, r7, pc}
 107              		.cfi_endproc
 108              	.LFE1:
 109              		.size	nop_split, .-nop_split
 110              		.section	.text.revbits,"ax",%progbits
 111              		.align	2
 112              		.thumb
 113              		.thumb_func
 114              		.type	revbits, %function
 115              	revbits:
 116              	.LFB3:
  25:.\fft-dit.c   **** 
  26:.\fft-dit.c   **** static void fft_split(const float complex *x, float complex *X, size_t N, float complex phi)
  27:.\fft-dit.c   **** {
  28:.\fft-dit.c   **** 	for(size_t n = 0; n < N/2; n++) {
  29:.\fft-dit.c   **** 		X[0/2+n] = x[2*n+0] + x[2*n+1] * cexp(-2*(float)M_PI*I*phi);
  30:.\fft-dit.c   **** 		X[N/2+n] = x[2*n+0] - x[2*n+1] * cexp(-2*(float)M_PI*I*phi);
  31:.\fft-dit.c   **** 	}
  32:.\fft-dit.c   **** }
  33:.\fft-dit.c   **** 
  34:.\fft-dit.c   **** static size_t revbits(size_t v, int J)
  35:.\fft-dit.c   **** {
 117              		.loc 1 35 0
 118              		.cfi_startproc
 119              		@ args = 0, pretend = 0, frame = 0
 120              		@ frame_needed = 0, uses_anonymous_args = 0
 121              		@ link register save eliminated.
 122              	.LVL9:
 123 0000 30B4     		push	{r4, r5}
 124              		.cfi_def_cfa_offset 8
 125              		.cfi_offset 4, -8
 126              		.cfi_offset 5, -4
 127 0002 0546     		mov	r5, r0
 128              	.LVL10:
 129              	.LBB3:
  36:.\fft-dit.c   **** 	size_t r = 0;
  37:.\fft-dit.c   **** 
  38:.\fft-dit.c   **** 	for(int j = 0; j < J; j++) {
 130              		.loc 1 38 0
ARM GAS  C:\Users\IVYLIU~1\AppData\Local\Temp\ccwuWvRX.s 			page 4


 131 0004 0022     		movs	r2, #0
 132              	.LBE3:
  36:.\fft-dit.c   **** 	size_t r = 0;
 133              		.loc 1 36 0
 134 0006 1046     		mov	r0, r2
 135              	.LVL11:
 136              	.LBB4:
 137              		.loc 1 38 0
 138 0008 08E0     		b	.L9
 139              	.LVL12:
 140              	.L10:
  39:.\fft-dit.c   **** 		r |= ( (v>>j)&1 ) << (J-1-j);
 141              		.loc 1 39 0 discriminator 3
 142 000a 25FA02F3 		lsr	r3, r5, r2
 143 000e 03F00103 		and	r3, r3, #1
 144 0012 4C1E     		subs	r4, r1, #1
 145 0014 A41A     		subs	r4, r4, r2
 146 0016 A340     		lsls	r3, r3, r4
 147 0018 1843     		orrs	r0, r0, r3
 148              	.LVL13:
  38:.\fft-dit.c   **** 		r |= ( (v>>j)&1 ) << (J-1-j);
 149              		.loc 1 38 0 discriminator 3
 150 001a 0132     		adds	r2, r2, #1
 151              	.LVL14:
 152              	.L9:
  38:.\fft-dit.c   **** 		r |= ( (v>>j)&1 ) << (J-1-j);
 153              		.loc 1 38 0 is_stmt 0 discriminator 1
 154 001c 8A42     		cmp	r2, r1
 155 001e F4DB     		blt	.L10
 156              	.LBE4:
  40:.\fft-dit.c   **** 	}
  41:.\fft-dit.c   **** 
  42:.\fft-dit.c   **** 	return r;
  43:.\fft-dit.c   **** }
 157              		.loc 1 43 0 is_stmt 1
 158 0020 30BC     		pop	{r4, r5}
 159              		.cfi_restore 5
 160              		.cfi_restore 4
 161              		.cfi_def_cfa_offset 0
 162              	.LVL15:
 163 0022 7047     		bx	lr
 164              		.cfi_endproc
 165              	.LFE3:
 166              		.size	revbits, .-revbits
 167              		.section	.text.nop_reverse,"ax",%progbits
 168              		.align	2
 169              		.thumb
 170              		.thumb_func
 171              		.type	nop_reverse, %function
 172              	nop_reverse:
 173              	.LFB4:
  44:.\fft-dit.c   **** 
  45:.\fft-dit.c   **** static int nop_reverse(int b, float complex *buffers[2], size_t N)
  46:.\fft-dit.c   **** {
 174              		.loc 1 46 0
 175              		.cfi_startproc
 176              		@ args = 0, pretend = 0, frame = 0
ARM GAS  C:\Users\IVYLIU~1\AppData\Local\Temp\ccwuWvRX.s 			page 5


 177              		@ frame_needed = 0, uses_anonymous_args = 0
 178              	.LVL16:
 179 0000 2DE9F047 		push	{r4, r5, r6, r7, r8, r9, r10, lr}
 180              		.cfi_def_cfa_offset 32
 181              		.cfi_offset 4, -32
 182              		.cfi_offset 5, -28
 183              		.cfi_offset 6, -24
 184              		.cfi_offset 7, -20
 185              		.cfi_offset 8, -16
 186              		.cfi_offset 9, -12
 187              		.cfi_offset 10, -8
 188              		.cfi_offset 14, -4
 189 0004 0746     		mov	r7, r0
 190 0006 0E46     		mov	r6, r1
 191 0008 9046     		mov	r8, r2
  47:.\fft-dit.c   **** 	int J = ctz(N);
 192              		.loc 1 47 0
 193 000a 1046     		mov	r0, r2
 194              	.LVL17:
 195 000c FFF7FEFF 		bl	ctz
 196              	.LVL18:
 197 0010 8246     		mov	r10, r0
 198              	.LVL19:
 199              	.LBB5:
  48:.\fft-dit.c   **** 
  49:.\fft-dit.c   **** 	for(int j = 0; j < J-1; j++, b++) {
 200              		.loc 1 49 0
 201 0012 4FF00009 		mov	r9, #0
 202 0016 18E0     		b	.L13
 203              	.LVL20:
 204              	.L17:
 205              	.LBB6:
  50:.\fft-dit.c   **** 		size_t delta = N>>j;
 206              		.loc 1 50 0
 207 0018 28FA09F5 		lsr	r5, r8, r9
 208              	.LVL21:
 209              	.LBB7:
  51:.\fft-dit.c   **** 
  52:.\fft-dit.c   **** 		for(size_t n = 0; n < N; n += delta) {
 210              		.loc 1 52 0
 211 001c 0024     		movs	r4, #0
 212 001e 0FE0     		b	.L14
 213              	.LVL22:
 214              	.L16:
  53:.\fft-dit.c   **** 			nop_split(buffers[b&1]+n, buffers[~b&1]+n, delta);
 215              		.loc 1 53 0
 216 0020 07F00102 		and	r2, r7, #1
 217 0024 56F82200 		ldr	r0, [r6, r2, lsl #2]
 218 0028 E300     		lsls	r3, r4, #3
 219 002a 1844     		add	r0, r0, r3
 220 002c 0AB9     		cbnz	r2, .L18
 221 002e 0422     		movs	r2, #4
 222 0030 00E0     		b	.L15
 223              	.L18:
 224 0032 0022     		movs	r2, #0
 225              	.L15:
 226              		.loc 1 53 0 is_stmt 0 discriminator 4
ARM GAS  C:\Users\IVYLIU~1\AppData\Local\Temp\ccwuWvRX.s 			page 6


 227 0034 B158     		ldr	r1, [r6, r2]
 228 0036 1944     		add	r1, r1, r3
 229 0038 2A46     		mov	r2, r5
 230 003a FFF7FEFF 		bl	nop_split
 231              	.LVL23:
  52:.\fft-dit.c   **** 			nop_split(buffers[b&1]+n, buffers[~b&1]+n, delta);
 232              		.loc 1 52 0 is_stmt 1 discriminator 4
 233 003e 2C44     		add	r4, r4, r5
 234              	.LVL24:
 235              	.L14:
  52:.\fft-dit.c   **** 			nop_split(buffers[b&1]+n, buffers[~b&1]+n, delta);
 236              		.loc 1 52 0 is_stmt 0 discriminator 2
 237 0040 4445     		cmp	r4, r8
 238 0042 EDD3     		bcc	.L16
 239              	.LBE7:
 240              	.LBE6:
  49:.\fft-dit.c   **** 		size_t delta = N>>j;
 241              		.loc 1 49 0 is_stmt 1 discriminator 2
 242 0044 09F10109 		add	r9, r9, #1
 243              	.LVL25:
 244 0048 0137     		adds	r7, r7, #1
 245              	.LVL26:
 246              	.L13:
  49:.\fft-dit.c   **** 		size_t delta = N>>j;
 247              		.loc 1 49 0 is_stmt 0 discriminator 1
 248 004a 0AF1FF33 		add	r3, r10, #-1
 249 004e 4B45     		cmp	r3, r9
 250 0050 E2DC     		bgt	.L17
 251              	.LBE5:
  54:.\fft-dit.c   **** 		}
  55:.\fft-dit.c   **** 	}
  56:.\fft-dit.c   **** 
  57:.\fft-dit.c   **** 	return b;
  58:.\fft-dit.c   **** }
 252              		.loc 1 58 0 is_stmt 1
 253 0052 3846     		mov	r0, r7
 254 0054 BDE8F087 		pop	{r4, r5, r6, r7, r8, r9, r10, pc}
 255              		.cfi_endproc
 256              	.LFE4:
 257              		.size	nop_reverse, .-nop_reverse
 258              		.global	__aeabi_f2d
 259              		.global	__aeabi_dadd
 260              		.global	__aeabi_d2f
 261              		.global	__aeabi_dsub
 262              		.section	.text.fft_split,"ax",%progbits
 263              		.align	2
 264              		.thumb
 265              		.thumb_func
 266              		.type	fft_split, %function
 267              	fft_split:
 268              	.LFB2:
  27:.\fft-dit.c   **** 	for(size_t n = 0; n < N/2; n++) {
 269              		.loc 1 27 0
 270              		.cfi_startproc
 271              		@ args = 12, pretend = 8, frame = 104
 272              		@ frame_needed = 0, uses_anonymous_args = 0
 273              	.LVL27:
ARM GAS  C:\Users\IVYLIU~1\AppData\Local\Temp\ccwuWvRX.s 			page 7


 274 0000 82B0     		sub	sp, sp, #8
 275              		.cfi_def_cfa_offset 8
 276 0002 2DE9F04F 		push	{r4, r5, r6, r7, r8, r9, r10, fp, lr}
 277              		.cfi_def_cfa_offset 44
 278              		.cfi_offset 4, -44
 279              		.cfi_offset 5, -40
 280              		.cfi_offset 6, -36
 281              		.cfi_offset 7, -32
 282              		.cfi_offset 8, -28
 283              		.cfi_offset 9, -24
 284              		.cfi_offset 10, -20
 285              		.cfi_offset 11, -16
 286              		.cfi_offset 14, -12
 287 0006 A1B0     		sub	sp, sp, #132
 288              		.cfi_def_cfa_offset 176
 289 0008 8046     		mov	r8, r0
 290 000a 1792     		str	r2, [sp, #92]
 291 000c 2B93     		str	r3, [sp, #172]
 292 000e 2B9B     		ldr	r3, [sp, #172]	@ float
 293 0010 1893     		str	r3, [sp, #96]	@ float
 294 0012 2C9B     		ldr	r3, [sp, #176]	@ float
 295 0014 1993     		str	r3, [sp, #100]	@ float
 296              	.LVL28:
 297              	.LBB8:
  28:.\fft-dit.c   **** 		X[0/2+n] = x[2*n+0] + x[2*n+1] * cexp(-2*(float)M_PI*I*phi);
 298              		.loc 1 28 0
 299 0016 4FF00009 		mov	r9, #0
 300 001a 8B46     		mov	fp, r1
 301 001c ABE0     		b	.L21
 302              	.LVL29:
 303              	.L22:
  29:.\fft-dit.c   **** 		X[N/2+n] = x[2*n+0] - x[2*n+1] * cexp(-2*(float)M_PI*I*phi);
 304              		.loc 1 29 0 discriminator 3
 305 001e 0BEBC903 		add	r3, fp, r9, lsl #3
 306 0022 0893     		str	r3, [sp, #32]
 307 0024 4FEA0916 		lsl	r6, r9, #4
 308 0028 08EB0603 		add	r3, r8, r6
 309 002c 1F46     		mov	r7, r3
 310 002e 58F80600 		ldr	r0, [r8, r6]	@ float
 311 0032 FFF7FEFF 		bl	__aeabi_f2d
 312              	.LVL30:
 313 0036 CDE90C01 		strd	r0, [sp, #48]
 314 003a 0B97     		str	r7, [sp, #44]
 315 003c 7868     		ldr	r0, [r7, #4]	@ float
 316 003e FFF7FEFF 		bl	__aeabi_f2d
 317              	.LVL31:
 318 0042 CDE90E01 		strd	r0, [sp, #56]
 319 0046 06F10807 		add	r7, r6, #8
 320 004a 08EB070A 		add	r10, r8, r7
 321 004e 58F80700 		ldr	r0, [r8, r7]	@ float
 322 0052 FFF7FEFF 		bl	__aeabi_f2d
 323              	.LVL32:
 324 0056 CDE91001 		strd	r0, [sp, #64]
 325 005a DAF80400 		ldr	r0, [r10, #4]	@ float
 326 005e FFF7FEFF 		bl	__aeabi_f2d
 327              	.LVL33:
 328 0062 0446     		mov	r4, r0
ARM GAS  C:\Users\IVYLIU~1\AppData\Local\Temp\ccwuWvRX.s 			page 8


 329 0064 0D46     		mov	r5, r1
 330 0066 494B     		ldr	r3, .L24
 331 0068 0093     		str	r3, [sp]	@ float
 332 006a 1EA8     		add	r0, sp, #120
 333 006c 1899     		ldr	r1, [sp, #96]	@ float
 334 006e 199A     		ldr	r2, [sp, #100]	@ float
 335 0070 4FF00043 		mov	r3, #-2147483648
 336 0074 FFF7FEFF 		bl	__mulsc3
 337              	.LVL34:
 338 0078 1F99     		ldr	r1, [sp, #124]	@ float
 339 007a 1291     		str	r1, [sp, #72]	@ float
 340 007c 1E98     		ldr	r0, [sp, #120]	@ float
 341 007e FFF7FEFF 		bl	__aeabi_f2d
 342              	.LVL35:
 343 0082 1490     		str	r0, [sp, #80]
 344 0084 1691     		str	r1, [sp, #88]
 345 0086 1298     		ldr	r0, [sp, #72]	@ float
 346 0088 FFF7FEFF 		bl	__aeabi_f2d
 347              	.LVL36:
 348 008c 149A     		ldr	r2, [sp, #80]
 349 008e 169B     		ldr	r3, [sp, #88]
 350 0090 0191     		str	r1, [sp, #4]
 351 0092 0090     		str	r0, [sp]
 352 0094 1AA9     		add	r1, sp, #104
 353 0096 0846     		mov	r0, r1
 354 0098 FFF7FEFF 		bl	cexp
 355              	.LVL37:
 356 009c DDE91A23 		ldrd	r2, [sp, #104]
 357 00a0 DDE91C01 		ldrd	r0, [sp, #112]
 358 00a4 CDE90045 		strd	r4, [sp]
 359 00a8 CDE91223 		strd	r2, [sp, #72]
 360 00ac CDE90223 		strd	r2, [sp, #8]
 361 00b0 CDE91401 		strd	r0, [sp, #80]
 362 00b4 CDE90401 		strd	r0, [sp, #16]
 363 00b8 1AA9     		add	r1, sp, #104
 364 00ba 0846     		mov	r0, r1
 365 00bc DDE91023 		ldrd	r2, [sp, #64]
 366 00c0 FFF7FEFF 		bl	__muldc3
 367              	.LVL38:
 368 00c4 DDE91C45 		ldrd	r4, [sp, #112]
 369 00c8 DDE90C01 		ldrd	r0, [sp, #48]
 370 00cc DDE91A23 		ldrd	r2, [sp, #104]
 371 00d0 FFF7FEFF 		bl	__aeabi_dadd
 372              	.LVL39:
 373 00d4 FFF7FEFF 		bl	__aeabi_d2f
 374              	.LVL40:
 375 00d8 0C90     		str	r0, [sp, #48]	@ float
 376 00da DDE90E01 		ldrd	r0, [sp, #56]
 377 00de 2246     		mov	r2, r4
 378 00e0 2B46     		mov	r3, r5
 379 00e2 FFF7FEFF 		bl	__aeabi_dadd
 380              	.LVL41:
 381 00e6 FFF7FEFF 		bl	__aeabi_d2f
 382              	.LVL42:
 383 00ea 0C99     		ldr	r1, [sp, #48]	@ float
 384 00ec 4BF83910 		str	r1, [fp, r9, lsl #3]	@ float
 385 00f0 089B     		ldr	r3, [sp, #32]
ARM GAS  C:\Users\IVYLIU~1\AppData\Local\Temp\ccwuWvRX.s 			page 9


 386 00f2 5860     		str	r0, [r3, #4]	@ float
  30:.\fft-dit.c   **** 	}
 387              		.loc 1 30 0 discriminator 3
 388 00f4 069B     		ldr	r3, [sp, #24]
 389 00f6 4B44     		add	r3, r3, r9
 390 00f8 1C46     		mov	r4, r3
 391 00fa 0BEBC305 		add	r5, fp, r3, lsl #3
 392 00fe 58F80600 		ldr	r0, [r8, r6]	@ float
 393 0102 FFF7FEFF 		bl	__aeabi_f2d
 394              	.LVL43:
 395 0106 CDE90601 		strd	r0, [sp, #24]
 396 010a 0B9B     		ldr	r3, [sp, #44]
 397 010c 5868     		ldr	r0, [r3, #4]	@ float
 398 010e FFF7FEFF 		bl	__aeabi_f2d
 399              	.LVL44:
 400 0112 CDE90801 		strd	r0, [sp, #32]
 401 0116 58F80700 		ldr	r0, [r8, r7]	@ float
 402 011a FFF7FEFF 		bl	__aeabi_f2d
 403              	.LVL45:
 404 011e 0646     		mov	r6, r0
 405 0120 0F46     		mov	r7, r1
 406 0122 DAF80400 		ldr	r0, [r10, #4]	@ float
 407 0126 FFF7FEFF 		bl	__aeabi_f2d
 408              	.LVL46:
 409 012a DDE91423 		ldrd	r2, [sp, #80]
 410 012e CDE90023 		strd	r2, [sp]
 411 0132 CDE90267 		strd	r6, [sp, #8]
 412 0136 CDE90401 		strd	r0, [sp, #16]
 413 013a 1AAB     		add	r3, sp, #104
 414 013c 1846     		mov	r0, r3
 415 013e DDE91223 		ldrd	r2, [sp, #72]
 416 0142 FFF7FEFF 		bl	__muldc3
 417              	.LVL47:
 418 0146 DDE91C67 		ldrd	r6, [sp, #112]
 419 014a DDE90601 		ldrd	r0, [sp, #24]
 420 014e DDE91A23 		ldrd	r2, [sp, #104]
 421 0152 FFF7FEFF 		bl	__aeabi_dsub
 422              	.LVL48:
 423 0156 FFF7FEFF 		bl	__aeabi_d2f
 424              	.LVL49:
 425 015a 8246     		mov	r10, r0
 426 015c DDE90801 		ldrd	r0, [sp, #32]
 427 0160 3246     		mov	r2, r6
 428 0162 3B46     		mov	r3, r7
 429 0164 FFF7FEFF 		bl	__aeabi_dsub
 430              	.LVL50:
 431 0168 FFF7FEFF 		bl	__aeabi_d2f
 432              	.LVL51:
 433 016c 4BF834A0 		str	r10, [fp, r4, lsl #3]	@ float
 434 0170 6860     		str	r0, [r5, #4]	@ float
  28:.\fft-dit.c   **** 		X[0/2+n] = x[2*n+0] + x[2*n+1] * cexp(-2*(float)M_PI*I*phi);
 435              		.loc 1 28 0 discriminator 3
 436 0172 09F10109 		add	r9, r9, #1
 437              	.LVL52:
 438              	.L21:
  28:.\fft-dit.c   **** 		X[0/2+n] = x[2*n+0] + x[2*n+1] * cexp(-2*(float)M_PI*I*phi);
 439              		.loc 1 28 0 is_stmt 0 discriminator 1
ARM GAS  C:\Users\IVYLIU~1\AppData\Local\Temp\ccwuWvRX.s 			page 10


 440 0176 179B     		ldr	r3, [sp, #92]
 441 0178 5B08     		lsrs	r3, r3, #1
 442 017a 0693     		str	r3, [sp, #24]
 443 017c 4B45     		cmp	r3, r9
 444 017e 3FF64EAF 		bhi	.L22
 445              	.LBE8:
  32:.\fft-dit.c   **** 
 446              		.loc 1 32 0 is_stmt 1
 447 0182 21B0     		add	sp, sp, #132
 448              		.cfi_def_cfa_offset 44
 449              		@ sp needed
 450 0184 BDE8F04F 		pop	{r4, r5, r6, r7, r8, r9, r10, fp, lr}
 451              		.cfi_restore 14
 452              		.cfi_restore 11
 453              		.cfi_restore 10
 454              		.cfi_restore 9
 455              		.cfi_restore 8
 456              		.cfi_restore 7
 457              		.cfi_restore 6
 458              		.cfi_restore 5
 459              		.cfi_restore 4
 460              		.cfi_def_cfa_offset 8
 461              	.LVL53:
 462 0188 02B0     		add	sp, sp, #8
 463              		.cfi_def_cfa_offset 0
 464 018a 7047     		bx	lr
 465              	.L25:
 466              		.align	2
 467              	.L24:
 468 018c DB0FC9C0 		.word	-1060565029
 469              		.cfi_endproc
 470              	.LFE2:
 471              		.size	fft_split, .-fft_split
 472              		.global	__aeabi_ui2f
 473              		.global	__aeabi_i2f
 474              		.global	__aeabi_fdiv
 475              		.section	.text.fft_reverse,"ax",%progbits
 476              		.align	2
 477              		.thumb
 478              		.thumb_func
 479              		.type	fft_reverse, %function
 480              	fft_reverse:
 481              	.LFB5:
  59:.\fft-dit.c   **** 
  60:.\fft-dit.c   **** static int fft_reverse(int b, float complex *buffers[2], size_t N)
  61:.\fft-dit.c   **** {
 482              		.loc 1 61 0
 483              		.cfi_startproc
 484              		@ args = 0, pretend = 0, frame = 0
 485              		@ frame_needed = 0, uses_anonymous_args = 0
 486              	.LVL54:
 487 0000 2DE9F04F 		push	{r4, r5, r6, r7, r8, r9, r10, fp, lr}
 488              		.cfi_def_cfa_offset 36
 489              		.cfi_offset 4, -36
 490              		.cfi_offset 5, -32
 491              		.cfi_offset 6, -28
 492              		.cfi_offset 7, -24
ARM GAS  C:\Users\IVYLIU~1\AppData\Local\Temp\ccwuWvRX.s 			page 11


 493              		.cfi_offset 8, -20
 494              		.cfi_offset 9, -16
 495              		.cfi_offset 10, -12
 496              		.cfi_offset 11, -8
 497              		.cfi_offset 14, -4
 498 0004 83B0     		sub	sp, sp, #12
 499              		.cfi_def_cfa_offset 48
 500 0006 8046     		mov	r8, r0
 501 0008 0F46     		mov	r7, r1
 502 000a 9146     		mov	r9, r2
  62:.\fft-dit.c   **** 	int J = ctz(N);
 503              		.loc 1 62 0
 504 000c 1046     		mov	r0, r2
 505              	.LVL55:
 506 000e FFF7FEFF 		bl	ctz
 507              	.LVL56:
 508 0012 8246     		mov	r10, r0
 509              	.LVL57:
 510              	.LBB9:
  63:.\fft-dit.c   **** 
  64:.\fft-dit.c   **** 	for(int j = 0; j < J; j++, b++) {
 511              		.loc 1 64 0
 512 0014 0026     		movs	r6, #0
 513 0016 2DE0     		b	.L27
 514              	.LVL58:
 515              	.L31:
 516              	.LBB10:
  65:.\fft-dit.c   **** 		size_t delta = N>>j;
 517              		.loc 1 65 0
 518 0018 29FA06F5 		lsr	r5, r9, r6
 519              	.LVL59:
 520              	.LBB11:
  66:.\fft-dit.c   **** 
  67:.\fft-dit.c   **** 		for(size_t n = 0; n < N; n += delta) {
 521              		.loc 1 67 0
 522 001c 0024     		movs	r4, #0
 523 001e 24E0     		b	.L28
 524              	.LVL60:
 525              	.L30:
 526              	.LBB12:
  68:.\fft-dit.c   **** 			float complex phi = (float)revbits( n/delta, j) / (float)(2<<j);
 527              		.loc 1 68 0
 528 0020 B4FBF5F0 		udiv	r0, r4, r5
 529 0024 3146     		mov	r1, r6
 530 0026 FFF7FEFF 		bl	revbits
 531              	.LVL61:
 532 002a FFF7FEFF 		bl	__aeabi_ui2f
 533              	.LVL62:
 534 002e 8346     		mov	fp, r0
 535 0030 0220     		movs	r0, #2
 536 0032 B040     		lsls	r0, r0, r6
 537 0034 FFF7FEFF 		bl	__aeabi_i2f
 538              	.LVL63:
 539 0038 0146     		mov	r1, r0
 540 003a 5846     		mov	r0, fp
 541 003c FFF7FEFF 		bl	__aeabi_fdiv
 542              	.LVL64:
ARM GAS  C:\Users\IVYLIU~1\AppData\Local\Temp\ccwuWvRX.s 			page 12


  69:.\fft-dit.c   **** 			fft_split(buffers[b&1]+n, buffers[~b&1]+n, delta, phi);
 543              		.loc 1 69 0
 544 0040 08F00103 		and	r3, r8, #1
 545 0044 57F82320 		ldr	r2, [r7, r3, lsl #2]
 546 0048 E100     		lsls	r1, r4, #3
 547 004a 0A44     		add	r2, r2, r1
 548 004c 0BB9     		cbnz	r3, .L32
 549 004e 0423     		movs	r3, #4
 550 0050 00E0     		b	.L29
 551              	.L32:
 552 0052 0023     		movs	r3, #0
 553              	.L29:
 554              		.loc 1 69 0 is_stmt 0 discriminator 4
 555 0054 57F803E0 		ldr	lr, [r7, r3]
 556 0058 0023     		movs	r3, #0
 557 005a 0093     		str	r3, [sp]
 558 005c 0346     		mov	r3, r0
 559 005e 1046     		mov	r0, r2
 560              	.LVL65:
 561 0060 7144     		add	r1, r1, lr
 562 0062 2A46     		mov	r2, r5
 563 0064 FFF7FEFF 		bl	fft_split
 564              	.LVL66:
 565              	.LBE12:
  67:.\fft-dit.c   **** 			float complex phi = (float)revbits( n/delta, j) / (float)(2<<j);
 566              		.loc 1 67 0 is_stmt 1 discriminator 4
 567 0068 2C44     		add	r4, r4, r5
 568              	.LVL67:
 569              	.L28:
  67:.\fft-dit.c   **** 			float complex phi = (float)revbits( n/delta, j) / (float)(2<<j);
 570              		.loc 1 67 0 is_stmt 0 discriminator 2
 571 006a 4C45     		cmp	r4, r9
 572 006c D8D3     		bcc	.L30
 573              	.LBE11:
 574              	.LBE10:
  64:.\fft-dit.c   **** 		size_t delta = N>>j;
 575              		.loc 1 64 0 is_stmt 1 discriminator 2
 576 006e 0136     		adds	r6, r6, #1
 577              	.LVL68:
 578 0070 08F10108 		add	r8, r8, #1
 579              	.LVL69:
 580              	.L27:
  64:.\fft-dit.c   **** 		size_t delta = N>>j;
 581              		.loc 1 64 0 is_stmt 0 discriminator 1
 582 0074 5645     		cmp	r6, r10
 583 0076 CFDB     		blt	.L31
 584              	.LBE9:
  70:.\fft-dit.c   **** 		}
  71:.\fft-dit.c   **** 	}
  72:.\fft-dit.c   **** 
  73:.\fft-dit.c   **** 	return b;
  74:.\fft-dit.c   **** }
 585              		.loc 1 74 0 is_stmt 1
 586 0078 4046     		mov	r0, r8
 587 007a 03B0     		add	sp, sp, #12
 588              		.cfi_def_cfa_offset 36
 589              		@ sp needed
ARM GAS  C:\Users\IVYLIU~1\AppData\Local\Temp\ccwuWvRX.s 			page 13


 590 007c BDE8F08F 		pop	{r4, r5, r6, r7, r8, r9, r10, fp, pc}
 591              		.cfi_endproc
 592              	.LFE5:
 593              		.size	fft_reverse, .-fft_reverse
 594              		.section	.text.fft,"ax",%progbits
 595              		.align	2
 596              		.global	fft
 597              		.thumb
 598              		.thumb_func
 599              		.type	fft, %function
 600              	fft:
 601              	.LFB6:
  75:.\fft-dit.c   **** 
  76:.\fft-dit.c   **** int fft(float complex *vector, size_t N)
  77:.\fft-dit.c   **** {
 602              		.loc 1 77 0
 603              		.cfi_startproc
 604              		@ args = 0, pretend = 0, frame = 8
 605              		@ frame_needed = 0, uses_anonymous_args = 0
 606              	.LVL70:
  78:.\fft-dit.c   **** 	if( !N ) return 0;
 607              		.loc 1 78 0
 608 0000 51B3     		cbz	r1, .L36
  79:.\fft-dit.c   **** 
  80:.\fft-dit.c   **** 	if( N & (N-1) ) return 1;
 609              		.loc 1 80 0
 610 0002 4B1E     		subs	r3, r1, #1
 611 0004 0B42     		tst	r3, r1
 612 0006 29D1     		bne	.L37
  77:.\fft-dit.c   **** 	if( !N ) return 0;
 613              		.loc 1 77 0
 614 0008 70B5     		push	{r4, r5, r6, lr}
 615              		.cfi_def_cfa_offset 16
 616              		.cfi_offset 4, -16
 617              		.cfi_offset 5, -12
 618              		.cfi_offset 6, -8
 619              		.cfi_offset 14, -4
 620 000a 82B0     		sub	sp, sp, #8
 621              		.cfi_def_cfa_offset 24
 622 000c 0C46     		mov	r4, r1
 623 000e 0546     		mov	r5, r0
  81:.\fft-dit.c   **** 
  82:.\fft-dit.c   **** 	float complex *buffers[2] = { vector, malloc(N*sizeof(float complex)) };
 624              		.loc 1 82 0
 625 0010 0090     		str	r0, [sp]
 626 0012 CE00     		lsls	r6, r1, #3
 627 0014 3046     		mov	r0, r6
 628              	.LVL71:
 629 0016 FFF7FEFF 		bl	malloc
 630              	.LVL72:
 631 001a 0190     		str	r0, [sp, #4]
  83:.\fft-dit.c   **** 
  84:.\fft-dit.c   **** 	if( !buffers[1] ) return -1;
 632              		.loc 1 84 0
 633 001c 00B3     		cbz	r0, .L38
 634              	.LVL73:
  85:.\fft-dit.c   **** 
ARM GAS  C:\Users\IVYLIU~1\AppData\Local\Temp\ccwuWvRX.s 			page 14


  86:.\fft-dit.c   **** 	int b = 0;
  87:.\fft-dit.c   **** 
  88:.\fft-dit.c   **** 	b = nop_reverse(b, buffers, N);
 635              		.loc 1 88 0
 636 001e 0020     		movs	r0, #0
 637 0020 6946     		mov	r1, sp
 638 0022 2246     		mov	r2, r4
 639 0024 FFF7FEFF 		bl	nop_reverse
 640              	.LVL74:
  89:.\fft-dit.c   **** 	b = fft_reverse(b, buffers, N);
 641              		.loc 1 89 0
 642 0028 6946     		mov	r1, sp
 643 002a 2246     		mov	r2, r4
 644 002c FFF7FEFF 		bl	fft_reverse
 645              	.LVL75:
  90:.\fft-dit.c   **** 	b = nop_reverse(b, buffers, N);
 646              		.loc 1 90 0
 647 0030 6946     		mov	r1, sp
 648 0032 2246     		mov	r2, r4
 649 0034 FFF7FEFF 		bl	nop_reverse
 650              	.LVL76:
  91:.\fft-dit.c   **** 
  92:.\fft-dit.c   **** 	memmove(vector, buffers[b&1], N*sizeof(float complex));
 651              		.loc 1 92 0
 652 0038 00F00100 		and	r0, r0, #1
 653              	.LVL77:
 654 003c 02AB     		add	r3, sp, #8
 655 003e 03EB8003 		add	r3, r3, r0, lsl #2
 656 0042 2846     		mov	r0, r5
 657 0044 53F8081C 		ldr	r1, [r3, #-8]
 658 0048 3246     		mov	r2, r6
 659 004a FFF7FEFF 		bl	memmove
 660              	.LVL78:
  93:.\fft-dit.c   **** 
  94:.\fft-dit.c   **** 	free( buffers[1] );
 661              		.loc 1 94 0
 662 004e 0198     		ldr	r0, [sp, #4]
 663 0050 FFF7FEFF 		bl	free
 664              	.LVL79:
  95:.\fft-dit.c   **** 
  96:.\fft-dit.c   **** 	return 0;
 665              		.loc 1 96 0
 666 0054 0020     		movs	r0, #0
 667 0056 05E0     		b	.L35
 668              	.LVL80:
 669              	.L36:
 670              		.cfi_def_cfa_offset 0
 671              		.cfi_restore 4
 672              		.cfi_restore 5
 673              		.cfi_restore 6
 674              		.cfi_restore 14
  78:.\fft-dit.c   **** 
 675              		.loc 1 78 0
 676 0058 0020     		movs	r0, #0
 677              	.LVL81:
  97:.\fft-dit.c   **** }
 678              		.loc 1 97 0
ARM GAS  C:\Users\IVYLIU~1\AppData\Local\Temp\ccwuWvRX.s 			page 15


 679 005a 7047     		bx	lr
 680              	.LVL82:
 681              	.L37:
  80:.\fft-dit.c   **** 
 682              		.loc 1 80 0
 683 005c 0120     		movs	r0, #1
 684              	.LVL83:
 685 005e 7047     		bx	lr
 686              	.LVL84:
 687              	.L38:
 688              		.cfi_def_cfa_offset 24
 689              		.cfi_offset 4, -16
 690              		.cfi_offset 5, -12
 691              		.cfi_offset 6, -8
 692              		.cfi_offset 14, -4
  84:.\fft-dit.c   **** 
 693              		.loc 1 84 0
 694 0060 4FF0FF30 		mov	r0, #-1
 695              	.L35:
 696              		.loc 1 97 0
 697 0064 02B0     		add	sp, sp, #8
 698              		.cfi_def_cfa_offset 16
 699              		@ sp needed
 700 0066 70BD     		pop	{r4, r5, r6, pc}
 701              		.cfi_endproc
 702              	.LFE6:
 703              		.size	fft, .-fft
 704              		.text
 705              	.Letext0:
 706              		.file 2 "<built-in>"
 707              		.file 3 "c:\\program files (x86)\\cypress\\psoc creator\\3.3\\psoc creator\\import\\gnu\\arm\\4.9.
 708              		.file 4 "c:\\program files (x86)\\cypress\\psoc creator\\3.3\\psoc creator\\import\\gnu\\arm\\4.9.
 709              		.file 5 "c:\\program files (x86)\\cypress\\psoc creator\\3.3\\psoc creator\\import\\gnu\\arm\\4.9.
 710              		.file 6 "c:\\program files (x86)\\cypress\\psoc creator\\3.3\\psoc creator\\import\\gnu\\arm\\4.9.