ARM GAS  C:\Users\IVYLIU~1\AppData\Local\Temp\ccQk4GVt.s 			page 1


   1              		.syntax unified
   2              		.cpu cortex-m3
   3              		.fpu softvfp
   4              		.eabi_attribute 20, 1
   5              		.eabi_attribute 21, 1
   6              		.eabi_attribute 23, 3
   7              		.eabi_attribute 24, 1
   8              		.eabi_attribute 25, 1
   9              		.eabi_attribute 26, 1
  10              		.eabi_attribute 30, 1
  11              		.eabi_attribute 34, 1
  12              		.eabi_attribute 18, 4
  13              		.thumb
  14              		.file	"fft-dif.c"
  15              		.text
  16              	.Ltext0:
  17              		.cfi_sections	.debug_frame
  18              		.section	.text.ctz,"ax",%progbits
  19              		.align	2
  20              		.thumb
  21              		.thumb_func
  22              		.type	ctz, %function
  23              	ctz:
  24              	.LFB0:
  25              		.file 1 ".\\fft-dif.c"
   1:.\fft-dif.c   **** #include "fft.h"
   2:.\fft-dif.c   **** #include <math.h>
   3:.\fft-dif.c   **** #include <stdlib.h>
   4:.\fft-dif.c   **** #include <string.h>
   5:.\fft-dif.c   **** #include <complex.h>
   6:.\fft-dif.c   **** 
   7:.\fft-dif.c   **** 
   8:.\fft-dif.c   **** static int ctz(size_t N)
   9:.\fft-dif.c   **** {
  26              		.loc 1 9 0
  27              		.cfi_startproc
  28              		@ args = 0, pretend = 0, frame = 0
  29              		@ frame_needed = 0, uses_anonymous_args = 0
  30              		@ link register save eliminated.
  31              	.LVL0:
  10:.\fft-dif.c   **** 	int ctz1 = 0;
  32              		.loc 1 10 0
  33 0000 0023     		movs	r3, #0
  11:.\fft-dif.c   **** 
  12:.\fft-dif.c   **** 	while( N ) {
  34              		.loc 1 12 0
  35 0002 01E0     		b	.L2
  36              	.LVL1:
  37              	.L3:
  13:.\fft-dif.c   **** 		ctz1++;
  38              		.loc 1 13 0
  39 0004 0133     		adds	r3, r3, #1
  40              	.LVL2:
  14:.\fft-dif.c   **** 		N >>= 1;
  41              		.loc 1 14 0
  42 0006 4008     		lsrs	r0, r0, #1
  43              	.LVL3:
ARM GAS  C:\Users\IVYLIU~1\AppData\Local\Temp\ccQk4GVt.s 			page 2


  44              	.L2:
  12:.\fft-dif.c   **** 		ctz1++;
  45              		.loc 1 12 0
  46 0008 0028     		cmp	r0, #0
  47 000a FBD1     		bne	.L3
  15:.\fft-dif.c   **** 	}
  16:.\fft-dif.c   **** 
  17:.\fft-dif.c   **** 	return ctz1-1;
  18:.\fft-dif.c   **** }
  48              		.loc 1 18 0
  49 000c 581E     		subs	r0, r3, #1
  50              	.LVL4:
  51 000e 7047     		bx	lr
  52              		.cfi_endproc
  53              	.LFE0:
  54              		.size	ctz, .-ctz
  55              		.section	.text.nop_split,"ax",%progbits
  56              		.align	2
  57              		.thumb
  58              		.thumb_func
  59              		.type	nop_split, %function
  60              	nop_split:
  61              	.LFB1:
  19:.\fft-dif.c   **** 
  20:.\fft-dif.c   **** static void nop_split(const float complex *x, float complex *X, size_t N)
  21:.\fft-dif.c   **** {
  62              		.loc 1 21 0
  63              		.cfi_startproc
  64              		@ args = 0, pretend = 0, frame = 0
  65              		@ frame_needed = 0, uses_anonymous_args = 0
  66              	.LVL5:
  67 0000 F0B5     		push	{r4, r5, r6, r7, lr}
  68              		.cfi_def_cfa_offset 20
  69              		.cfi_offset 4, -20
  70              		.cfi_offset 5, -16
  71              		.cfi_offset 6, -12
  72              		.cfi_offset 7, -8
  73              		.cfi_offset 14, -4
  74              	.LVL6:
  75              	.LBB2:
  22:.\fft-dif.c   **** 	for(size_t n = 0; n < N/2; n++) {
  76              		.loc 1 22 0
  77 0002 0024     		movs	r4, #0
  78 0004 14E0     		b	.L5
  79              	.LVL7:
  80              	.L6:
  23:.\fft-dif.c   **** 		X[2*n+0] = x[0/2+n];
  81              		.loc 1 23 0 discriminator 3
  82 0006 2501     		lsls	r5, r4, #4
  83 0008 4E19     		adds	r6, r1, r5
  84 000a 50F834E0 		ldr	lr, [r0, r4, lsl #3]	@ float
  85 000e 00EBC407 		add	r7, r0, r4, lsl #3
  86 0012 7F68     		ldr	r7, [r7, #4]	@ float
  87 0014 41F805E0 		str	lr, [r1, r5]	@ float
  88 0018 7760     		str	r7, [r6, #4]	@ float
  24:.\fft-dif.c   **** 		X[2*n+1] = x[N/2+n];
  89              		.loc 1 24 0 discriminator 3
ARM GAS  C:\Users\IVYLIU~1\AppData\Local\Temp\ccQk4GVt.s 			page 3


  90 001a 0835     		adds	r5, r5, #8
  91 001c 4E19     		adds	r6, r1, r5
  92 001e 2344     		add	r3, r3, r4
  93 0020 50F83370 		ldr	r7, [r0, r3, lsl #3]	@ float
  94 0024 00EBC303 		add	r3, r0, r3, lsl #3
  95 0028 5B68     		ldr	r3, [r3, #4]	@ float
  96 002a 4F51     		str	r7, [r1, r5]	@ float
  97 002c 7360     		str	r3, [r6, #4]	@ float
  22:.\fft-dif.c   **** 	for(size_t n = 0; n < N/2; n++) {
  98              		.loc 1 22 0 discriminator 3
  99 002e 0134     		adds	r4, r4, #1
 100              	.LVL8:
 101              	.L5:
  22:.\fft-dif.c   **** 	for(size_t n = 0; n < N/2; n++) {
 102              		.loc 1 22 0 is_stmt 0 discriminator 1
 103 0030 5308     		lsrs	r3, r2, #1
 104 0032 A342     		cmp	r3, r4
 105 0034 E7D8     		bhi	.L6
 106              	.LBE2:
  25:.\fft-dif.c   **** 	}
  26:.\fft-dif.c   **** }
 107              		.loc 1 26 0 is_stmt 1
 108 0036 F0BD     		pop	{r4, r5, r6, r7, pc}
 109              		.cfi_endproc
 110              	.LFE1:
 111              		.size	nop_split, .-nop_split
 112              		.section	.text.revbits,"ax",%progbits
 113              		.align	2
 114              		.thumb
 115              		.thumb_func
 116              		.type	revbits, %function
 117              	revbits:
 118              	.LFB3:
  27:.\fft-dif.c   **** 
  28:.\fft-dif.c   **** static void fft_split(const float complex *x, float complex *X, size_t N, float complex phi)
  29:.\fft-dif.c   **** {
  30:.\fft-dif.c   **** 	for(size_t n = 0; n < N/2; n++) {
  31:.\fft-dif.c   **** 		X[2*n+0] = (x[0/2+n] + x[N/2+n]);
  32:.\fft-dif.c   **** 		X[2*n+1] = (x[0/2+n] - x[N/2+n]) * cexp(-2*(float)M_PI*I*phi);
  33:.\fft-dif.c   **** 	}
  34:.\fft-dif.c   **** }
  35:.\fft-dif.c   **** 
  36:.\fft-dif.c   **** static size_t revbits(size_t v, int J)
  37:.\fft-dif.c   **** {
 119              		.loc 1 37 0
 120              		.cfi_startproc
 121              		@ args = 0, pretend = 0, frame = 0
 122              		@ frame_needed = 0, uses_anonymous_args = 0
 123              		@ link register save eliminated.
 124              	.LVL9:
 125 0000 30B4     		push	{r4, r5}
 126              		.cfi_def_cfa_offset 8
 127              		.cfi_offset 4, -8
 128              		.cfi_offset 5, -4
 129 0002 0546     		mov	r5, r0
 130              	.LVL10:
 131              	.LBB3:
ARM GAS  C:\Users\IVYLIU~1\AppData\Local\Temp\ccQk4GVt.s 			page 4


  38:.\fft-dif.c   **** 	size_t r = 0;
  39:.\fft-dif.c   **** 
  40:.\fft-dif.c   **** 	for(int j = 0; j < J; j++) {
 132              		.loc 1 40 0
 133 0004 0022     		movs	r2, #0
 134              	.LBE3:
  38:.\fft-dif.c   **** 	size_t r = 0;
 135              		.loc 1 38 0
 136 0006 1046     		mov	r0, r2
 137              	.LVL11:
 138              	.LBB4:
 139              		.loc 1 40 0
 140 0008 08E0     		b	.L9
 141              	.LVL12:
 142              	.L10:
  41:.\fft-dif.c   **** 		r |= ( (v>>j)&1 ) << (J-1-j);
 143              		.loc 1 41 0 discriminator 3
 144 000a 25FA02F3 		lsr	r3, r5, r2
 145 000e 03F00103 		and	r3, r3, #1
 146 0012 4C1E     		subs	r4, r1, #1
 147 0014 A41A     		subs	r4, r4, r2
 148 0016 A340     		lsls	r3, r3, r4
 149 0018 1843     		orrs	r0, r0, r3
 150              	.LVL13:
  40:.\fft-dif.c   **** 		r |= ( (v>>j)&1 ) << (J-1-j);
 151              		.loc 1 40 0 discriminator 3
 152 001a 0132     		adds	r2, r2, #1
 153              	.LVL14:
 154              	.L9:
  40:.\fft-dif.c   **** 		r |= ( (v>>j)&1 ) << (J-1-j);
 155              		.loc 1 40 0 is_stmt 0 discriminator 1
 156 001c 8A42     		cmp	r2, r1
 157 001e F4DB     		blt	.L10
 158              	.LBE4:
  42:.\fft-dif.c   **** 	}
  43:.\fft-dif.c   **** 
  44:.\fft-dif.c   **** 	return r;
  45:.\fft-dif.c   **** }
 159              		.loc 1 45 0 is_stmt 1
 160 0020 30BC     		pop	{r4, r5}
 161              		.cfi_restore 5
 162              		.cfi_restore 4
 163              		.cfi_def_cfa_offset 0
 164              	.LVL15:
 165 0022 7047     		bx	lr
 166              		.cfi_endproc
 167              	.LFE3:
 168              		.size	revbits, .-revbits
 169              		.section	.text.nop_reverse,"ax",%progbits
 170              		.align	2
 171              		.thumb
 172              		.thumb_func
 173              		.type	nop_reverse, %function
 174              	nop_reverse:
 175              	.LFB4:
  46:.\fft-dif.c   **** 
  47:.\fft-dif.c   **** static int nop_reverse(int b, float complex *buffers[2], size_t N)
ARM GAS  C:\Users\IVYLIU~1\AppData\Local\Temp\ccQk4GVt.s 			page 5


  48:.\fft-dif.c   **** {
 176              		.loc 1 48 0
 177              		.cfi_startproc
 178              		@ args = 0, pretend = 0, frame = 0
 179              		@ frame_needed = 0, uses_anonymous_args = 0
 180              	.LVL16:
 181 0000 2DE9F843 		push	{r3, r4, r5, r6, r7, r8, r9, lr}
 182              		.cfi_def_cfa_offset 32
 183              		.cfi_offset 3, -32
 184              		.cfi_offset 4, -28
 185              		.cfi_offset 5, -24
 186              		.cfi_offset 6, -20
 187              		.cfi_offset 7, -16
 188              		.cfi_offset 8, -12
 189              		.cfi_offset 9, -8
 190              		.cfi_offset 14, -4
 191 0004 0746     		mov	r7, r0
 192 0006 0E46     		mov	r6, r1
 193 0008 9046     		mov	r8, r2
  49:.\fft-dif.c   **** 	int J = ctz(N);
 194              		.loc 1 49 0
 195 000a 1046     		mov	r0, r2
 196              	.LVL17:
 197 000c FFF7FEFF 		bl	ctz
 198              	.LVL18:
 199              	.LBB5:
  50:.\fft-dif.c   **** 
  51:.\fft-dif.c   **** 	for(int j = J-2; j >= 0; j--, b++) {
 200              		.loc 1 51 0
 201 0010 A0F10209 		sub	r9, r0, #2
 202              	.LVL19:
 203 0014 18E0     		b	.L13
 204              	.LVL20:
 205              	.L17:
 206              	.LBB6:
  52:.\fft-dif.c   **** 		size_t delta = N>>j;
 207              		.loc 1 52 0
 208 0016 28FA09F5 		lsr	r5, r8, r9
 209              	.LVL21:
 210              	.LBB7:
  53:.\fft-dif.c   **** 
  54:.\fft-dif.c   **** 		for(size_t n = 0; n < N; n += delta) {
 211              		.loc 1 54 0
 212 001a 0024     		movs	r4, #0
 213 001c 0FE0     		b	.L14
 214              	.LVL22:
 215              	.L16:
  55:.\fft-dif.c   **** 			nop_split(buffers[b&1]+n, buffers[~b&1]+n, delta);
 216              		.loc 1 55 0
 217 001e 07F00102 		and	r2, r7, #1
 218 0022 56F82200 		ldr	r0, [r6, r2, lsl #2]
 219 0026 E300     		lsls	r3, r4, #3
 220 0028 1844     		add	r0, r0, r3
 221 002a 0AB9     		cbnz	r2, .L18
 222 002c 0422     		movs	r2, #4
 223 002e 00E0     		b	.L15
 224              	.L18:
ARM GAS  C:\Users\IVYLIU~1\AppData\Local\Temp\ccQk4GVt.s 			page 6


 225 0030 0022     		movs	r2, #0
 226              	.L15:
 227              		.loc 1 55 0 is_stmt 0 discriminator 4
 228 0032 B158     		ldr	r1, [r6, r2]
 229 0034 1944     		add	r1, r1, r3
 230 0036 2A46     		mov	r2, r5
 231 0038 FFF7FEFF 		bl	nop_split
 232              	.LVL23:
  54:.\fft-dif.c   **** 			nop_split(buffers[b&1]+n, buffers[~b&1]+n, delta);
 233              		.loc 1 54 0 is_stmt 1 discriminator 4
 234 003c 2C44     		add	r4, r4, r5
 235              	.LVL24:
 236              	.L14:
  54:.\fft-dif.c   **** 			nop_split(buffers[b&1]+n, buffers[~b&1]+n, delta);
 237              		.loc 1 54 0 is_stmt 0 discriminator 2
 238 003e 4445     		cmp	r4, r8
 239 0040 EDD3     		bcc	.L16
 240              	.LBE7:
 241              	.LBE6:
  51:.\fft-dif.c   **** 		size_t delta = N>>j;
 242              		.loc 1 51 0 is_stmt 1 discriminator 2
 243 0042 09F1FF39 		add	r9, r9, #-1
 244              	.LVL25:
 245 0046 0137     		adds	r7, r7, #1
 246              	.LVL26:
 247              	.L13:
  51:.\fft-dif.c   **** 		size_t delta = N>>j;
 248              		.loc 1 51 0 is_stmt 0 discriminator 1
 249 0048 B9F1000F 		cmp	r9, #0
 250 004c E3DA     		bge	.L17
 251              	.LBE5:
  56:.\fft-dif.c   **** 		}
  57:.\fft-dif.c   **** 	}
  58:.\fft-dif.c   **** 
  59:.\fft-dif.c   **** 	return b;
  60:.\fft-dif.c   **** }
 252              		.loc 1 60 0 is_stmt 1
 253 004e 3846     		mov	r0, r7
 254 0050 BDE8F883 		pop	{r3, r4, r5, r6, r7, r8, r9, pc}
 255              		.cfi_endproc
 256              	.LFE4:
 257              		.size	nop_reverse, .-nop_reverse
 258              		.global	__aeabi_fadd
 259              		.global	__aeabi_fsub
 260              		.global	__aeabi_f2d
 261              		.global	__aeabi_d2f
 262              		.section	.text.fft_split,"ax",%progbits
 263              		.align	2
 264              		.thumb
 265              		.thumb_func
 266              		.type	fft_split, %function
 267              	fft_split:
 268              	.LFB2:
  29:.\fft-dif.c   **** 	for(size_t n = 0; n < N/2; n++) {
 269              		.loc 1 29 0
 270              		.cfi_startproc
 271              		@ args = 12, pretend = 8, frame = 56
ARM GAS  C:\Users\IVYLIU~1\AppData\Local\Temp\ccQk4GVt.s 			page 7


 272              		@ frame_needed = 0, uses_anonymous_args = 0
 273              	.LVL27:
 274 0000 82B0     		sub	sp, sp, #8
 275              		.cfi_def_cfa_offset 8
 276 0002 2DE9F04F 		push	{r4, r5, r6, r7, r8, r9, r10, fp, lr}
 277              		.cfi_def_cfa_offset 44
 278              		.cfi_offset 4, -44
 279              		.cfi_offset 5, -40
 280              		.cfi_offset 6, -36
 281              		.cfi_offset 7, -32
 282              		.cfi_offset 8, -28
 283              		.cfi_offset 9, -24
 284              		.cfi_offset 10, -20
 285              		.cfi_offset 11, -16
 286              		.cfi_offset 14, -12
 287 0006 95B0     		sub	sp, sp, #84
 288              		.cfi_def_cfa_offset 128
 289 0008 0B92     		str	r2, [sp, #44]
 290 000a 1F93     		str	r3, [sp, #124]
 291 000c 1F9B     		ldr	r3, [sp, #124]	@ float
 292 000e 0C93     		str	r3, [sp, #48]	@ float
 293 0010 209B     		ldr	r3, [sp, #128]	@ float
 294 0012 0D93     		str	r3, [sp, #52]	@ float
 295              	.LVL28:
 296              	.LBB8:
  30:.\fft-dif.c   **** 		X[2*n+0] = (x[0/2+n] + x[N/2+n]);
 297              		.loc 1 30 0
 298 0014 4FF0000B 		mov	fp, #0
 299 0018 DA46     		mov	r10, fp
 300 001a 0F46     		mov	r7, r1
 301 001c 8346     		mov	fp, r0
 302 001e 70E0     		b	.L21
 303              	.LVL29:
 304              	.L22:
  31:.\fft-dif.c   **** 		X[2*n+1] = (x[0/2+n] - x[N/2+n]) * cexp(-2*(float)M_PI*I*phi);
 305              		.loc 1 31 0 discriminator 3
 306 0020 4FEA0A15 		lsl	r5, r10, #4
 307 0024 07EB0508 		add	r8, r7, r5
 308 0028 0BEBCA03 		add	r3, fp, r10, lsl #3
 309 002c 0793     		str	r3, [sp, #28]
 310 002e 5968     		ldr	r1, [r3, #4]	@ float
 311 0030 0891     		str	r1, [sp, #32]	@ float
 312 0032 5444     		add	r4, r4, r10
 313 0034 0BEBC406 		add	r6, fp, r4, lsl #3
 314 0038 D6F804E0 		ldr	lr, [r6, #4]	@ float
 315 003c CDF828E0 		str	lr, [sp, #40]	@ float
 316 0040 5BF83A00 		ldr	r0, [fp, r10, lsl #3]	@ float
 317 0044 5BF83410 		ldr	r1, [fp, r4, lsl #3]	@ float
 318 0048 FFF7FEFF 		bl	__aeabi_fadd
 319              	.LVL30:
 320 004c 8146     		mov	r9, r0
 321 004e 0898     		ldr	r0, [sp, #32]	@ float
 322 0050 0A99     		ldr	r1, [sp, #40]	@ float
 323 0052 FFF7FEFF 		bl	__aeabi_fadd
 324              	.LVL31:
 325 0056 47F80590 		str	r9, [r7, r5]	@ float
 326 005a C8F80400 		str	r0, [r8, #4]	@ float
ARM GAS  C:\Users\IVYLIU~1\AppData\Local\Temp\ccQk4GVt.s 			page 8


  32:.\fft-dif.c   **** 	}
 327              		.loc 1 32 0 discriminator 3
 328 005e 05F10808 		add	r8, r5, #8
 329 0062 07EB0809 		add	r9, r7, r8
 330 0066 5BF83A00 		ldr	r0, [fp, r10, lsl #3]	@ float
 331 006a 5BF83410 		ldr	r1, [fp, r4, lsl #3]	@ float
 332 006e FFF7FEFF 		bl	__aeabi_fsub
 333              	.LVL32:
 334 0072 FFF7FEFF 		bl	__aeabi_f2d
 335              	.LVL33:
 336 0076 CDE90801 		strd	r0, [sp, #32]
 337 007a 079B     		ldr	r3, [sp, #28]
 338 007c 5868     		ldr	r0, [r3, #4]	@ float
 339 007e 7168     		ldr	r1, [r6, #4]	@ float
 340 0080 FFF7FEFF 		bl	__aeabi_fsub
 341              	.LVL34:
 342 0084 FFF7FEFF 		bl	__aeabi_f2d
 343              	.LVL35:
 344 0088 0446     		mov	r4, r0
 345 008a 0D46     		mov	r5, r1
 346 008c 214B     		ldr	r3, .L24
 347 008e 0093     		str	r3, [sp]	@ float
 348 0090 12A8     		add	r0, sp, #72
 349 0092 0C99     		ldr	r1, [sp, #48]	@ float
 350 0094 0D9A     		ldr	r2, [sp, #52]	@ float
 351 0096 4FF00043 		mov	r3, #-2147483648
 352 009a FFF7FEFF 		bl	__mulsc3
 353              	.LVL36:
 354 009e 139E     		ldr	r6, [sp, #76]	@ float
 355 00a0 1298     		ldr	r0, [sp, #72]	@ float
 356 00a2 FFF7FEFF 		bl	__aeabi_f2d
 357              	.LVL37:
 358 00a6 0790     		str	r0, [sp, #28]
 359 00a8 0A91     		str	r1, [sp, #40]
 360 00aa 3046     		mov	r0, r6
 361 00ac FFF7FEFF 		bl	__aeabi_f2d
 362              	.LVL38:
 363 00b0 079A     		ldr	r2, [sp, #28]
 364 00b2 0A9B     		ldr	r3, [sp, #40]
 365 00b4 0191     		str	r1, [sp, #4]
 366 00b6 0090     		str	r0, [sp]
 367 00b8 0EA9     		add	r1, sp, #56
 368 00ba 0846     		mov	r0, r1
 369 00bc FFF7FEFF 		bl	cexp
 370              	.LVL39:
 371 00c0 CDE90045 		strd	r4, [sp]
 372 00c4 DDE90E23 		ldrd	r2, [sp, #56]
 373 00c8 CDE90223 		strd	r2, [sp, #8]
 374 00cc DDE91023 		ldrd	r2, [sp, #64]
 375 00d0 CDE90423 		strd	r2, [sp, #16]
 376 00d4 0EAB     		add	r3, sp, #56
 377 00d6 1846     		mov	r0, r3
 378 00d8 DDE90823 		ldrd	r2, [sp, #32]
 379 00dc FFF7FEFF 		bl	__muldc3
 380              	.LVL40:
 381 00e0 DDE91045 		ldrd	r4, [sp, #64]
 382 00e4 DDE90E01 		ldrd	r0, [sp, #56]
ARM GAS  C:\Users\IVYLIU~1\AppData\Local\Temp\ccQk4GVt.s 			page 9


 383 00e8 FFF7FEFF 		bl	__aeabi_d2f
 384              	.LVL41:
 385 00ec 0646     		mov	r6, r0
 386 00ee 2046     		mov	r0, r4
 387 00f0 2946     		mov	r1, r5
 388 00f2 FFF7FEFF 		bl	__aeabi_d2f
 389              	.LVL42:
 390 00f6 47F80860 		str	r6, [r7, r8]	@ float
 391 00fa C9F80400 		str	r0, [r9, #4]	@ float
  30:.\fft-dif.c   **** 		X[2*n+0] = (x[0/2+n] + x[N/2+n]);
 392              		.loc 1 30 0 discriminator 3
 393 00fe 0AF1010A 		add	r10, r10, #1
 394              	.LVL43:
 395              	.L21:
  30:.\fft-dif.c   **** 		X[2*n+0] = (x[0/2+n] + x[N/2+n]);
 396              		.loc 1 30 0 is_stmt 0 discriminator 1
 397 0102 0B9B     		ldr	r3, [sp, #44]
 398 0104 5C08     		lsrs	r4, r3, #1
 399 0106 5445     		cmp	r4, r10
 400 0108 8AD8     		bhi	.L22
 401              	.LBE8:
  34:.\fft-dif.c   **** 
 402              		.loc 1 34 0 is_stmt 1
 403 010a 15B0     		add	sp, sp, #84
 404              		.cfi_def_cfa_offset 44
 405              		@ sp needed
 406 010c BDE8F04F 		pop	{r4, r5, r6, r7, r8, r9, r10, fp, lr}
 407              		.cfi_restore 14
 408              		.cfi_restore 11
 409              		.cfi_restore 10
 410              		.cfi_restore 9
 411              		.cfi_restore 8
 412              		.cfi_restore 7
 413              		.cfi_restore 6
 414              		.cfi_restore 5
 415              		.cfi_restore 4
 416              		.cfi_def_cfa_offset 8
 417              	.LVL44:
 418 0110 02B0     		add	sp, sp, #8
 419              		.cfi_def_cfa_offset 0
 420 0112 7047     		bx	lr
 421              	.L25:
 422              		.align	2
 423              	.L24:
 424 0114 DB0FC9C0 		.word	-1060565029
 425              		.cfi_endproc
 426              	.LFE2:
 427              		.size	fft_split, .-fft_split
 428              		.global	__aeabi_ui2f
 429              		.global	__aeabi_i2f
 430              		.global	__aeabi_fdiv
 431              		.section	.text.fft_reverse,"ax",%progbits
 432              		.align	2
 433              		.thumb
 434              		.thumb_func
 435              		.type	fft_reverse, %function
 436              	fft_reverse:
ARM GAS  C:\Users\IVYLIU~1\AppData\Local\Temp\ccQk4GVt.s 			page 10


 437              	.LFB5:
  61:.\fft-dif.c   **** 
  62:.\fft-dif.c   **** static int fft_reverse(int b, float complex *buffers[2], size_t N)
  63:.\fft-dif.c   **** {
 438              		.loc 1 63 0
 439              		.cfi_startproc
 440              		@ args = 0, pretend = 0, frame = 0
 441              		@ frame_needed = 0, uses_anonymous_args = 0
 442              	.LVL45:
 443 0000 2DE9F047 		push	{r4, r5, r6, r7, r8, r9, r10, lr}
 444              		.cfi_def_cfa_offset 32
 445              		.cfi_offset 4, -32
 446              		.cfi_offset 5, -28
 447              		.cfi_offset 6, -24
 448              		.cfi_offset 7, -20
 449              		.cfi_offset 8, -16
 450              		.cfi_offset 9, -12
 451              		.cfi_offset 10, -8
 452              		.cfi_offset 14, -4
 453 0004 82B0     		sub	sp, sp, #8
 454              		.cfi_def_cfa_offset 40
 455 0006 8046     		mov	r8, r0
 456 0008 0F46     		mov	r7, r1
 457 000a 9146     		mov	r9, r2
  64:.\fft-dif.c   **** 	int J = ctz(N);
 458              		.loc 1 64 0
 459 000c 1046     		mov	r0, r2
 460              	.LVL46:
 461 000e FFF7FEFF 		bl	ctz
 462              	.LVL47:
 463              	.LBB9:
  65:.\fft-dif.c   **** 
  66:.\fft-dif.c   **** 	for(int j = J-1; j >= 0; j--, b++) {
 464              		.loc 1 66 0
 465 0012 461E     		subs	r6, r0, #1
 466              	.LVL48:
 467 0014 2DE0     		b	.L27
 468              	.LVL49:
 469              	.L31:
 470              	.LBB10:
  67:.\fft-dif.c   **** 		size_t delta = N>>j;
 471              		.loc 1 67 0
 472 0016 29FA06F5 		lsr	r5, r9, r6
 473              	.LVL50:
 474              	.LBB11:
  68:.\fft-dif.c   **** 
  69:.\fft-dif.c   **** 		for(size_t n = 0; n < N; n += delta) {
 475              		.loc 1 69 0
 476 001a 0024     		movs	r4, #0
 477 001c 24E0     		b	.L28
 478              	.LVL51:
 479              	.L30:
 480              	.LBB12:
  70:.\fft-dif.c   **** 			float complex phi = (float)revbits( n/delta, j) / (float)(2<<j);
 481              		.loc 1 70 0
 482 001e B4FBF5F0 		udiv	r0, r4, r5
 483 0022 3146     		mov	r1, r6
ARM GAS  C:\Users\IVYLIU~1\AppData\Local\Temp\ccQk4GVt.s 			page 11


 484 0024 FFF7FEFF 		bl	revbits
 485              	.LVL52:
 486 0028 FFF7FEFF 		bl	__aeabi_ui2f
 487              	.LVL53:
 488 002c 8246     		mov	r10, r0
 489 002e 0220     		movs	r0, #2
 490 0030 B040     		lsls	r0, r0, r6
 491 0032 FFF7FEFF 		bl	__aeabi_i2f
 492              	.LVL54:
 493 0036 0146     		mov	r1, r0
 494 0038 5046     		mov	r0, r10
 495 003a FFF7FEFF 		bl	__aeabi_fdiv
 496              	.LVL55:
  71:.\fft-dif.c   **** 			fft_split(buffers[b&1]+n, buffers[~b&1]+n, delta, phi);
 497              		.loc 1 71 0
 498 003e 08F00103 		and	r3, r8, #1
 499 0042 57F82320 		ldr	r2, [r7, r3, lsl #2]
 500 0046 E100     		lsls	r1, r4, #3
 501 0048 0A44     		add	r2, r2, r1
 502 004a 0BB9     		cbnz	r3, .L32
 503 004c 0423     		movs	r3, #4
 504 004e 00E0     		b	.L29
 505              	.L32:
 506 0050 0023     		movs	r3, #0
 507              	.L29:
 508              		.loc 1 71 0 is_stmt 0 discriminator 4
 509 0052 57F803E0 		ldr	lr, [r7, r3]
 510 0056 0023     		movs	r3, #0
 511 0058 0093     		str	r3, [sp]
 512 005a 0346     		mov	r3, r0
 513 005c 1046     		mov	r0, r2
 514              	.LVL56:
 515 005e 7144     		add	r1, r1, lr
 516 0060 2A46     		mov	r2, r5
 517 0062 FFF7FEFF 		bl	fft_split
 518              	.LVL57:
 519              	.LBE12:
  69:.\fft-dif.c   **** 			float complex phi = (float)revbits( n/delta, j) / (float)(2<<j);
 520              		.loc 1 69 0 is_stmt 1 discriminator 4
 521 0066 2C44     		add	r4, r4, r5
 522              	.LVL58:
 523              	.L28:
  69:.\fft-dif.c   **** 			float complex phi = (float)revbits( n/delta, j) / (float)(2<<j);
 524              		.loc 1 69 0 is_stmt 0 discriminator 2
 525 0068 4C45     		cmp	r4, r9
 526 006a D8D3     		bcc	.L30
 527              	.LBE11:
 528              	.LBE10:
  66:.\fft-dif.c   **** 		size_t delta = N>>j;
 529              		.loc 1 66 0 is_stmt 1 discriminator 2
 530 006c 013E     		subs	r6, r6, #1
 531              	.LVL59:
 532 006e 08F10108 		add	r8, r8, #1
 533              	.LVL60:
 534              	.L27:
  66:.\fft-dif.c   **** 		size_t delta = N>>j;
 535              		.loc 1 66 0 is_stmt 0 discriminator 1
ARM GAS  C:\Users\IVYLIU~1\AppData\Local\Temp\ccQk4GVt.s 			page 12


 536 0072 002E     		cmp	r6, #0
 537 0074 CFDA     		bge	.L31
 538              	.LBE9:
  72:.\fft-dif.c   **** 		}
  73:.\fft-dif.c   **** 	}
  74:.\fft-dif.c   **** 
  75:.\fft-dif.c   **** 	return b;
  76:.\fft-dif.c   **** }
 539              		.loc 1 76 0 is_stmt 1
 540 0076 4046     		mov	r0, r8
 541 0078 02B0     		add	sp, sp, #8
 542              		.cfi_def_cfa_offset 32
 543              		@ sp needed
 544 007a BDE8F087 		pop	{r4, r5, r6, r7, r8, r9, r10, pc}
 545              		.cfi_endproc
 546              	.LFE5:
 547              		.size	fft_reverse, .-fft_reverse
 548 007e 00BF     		.section	.text.fft,"ax",%progbits
 549              		.align	2
 550              		.global	fft
 551              		.thumb
 552              		.thumb_func
 553              		.type	fft, %function
 554              	fft:
 555              	.LFB6:
  77:.\fft-dif.c   **** 
  78:.\fft-dif.c   **** int fft(float complex *vector, size_t N)
  79:.\fft-dif.c   **** {
 556              		.loc 1 79 0
 557              		.cfi_startproc
 558              		@ args = 0, pretend = 0, frame = 8
 559              		@ frame_needed = 0, uses_anonymous_args = 0
 560              	.LVL61:
  80:.\fft-dif.c   **** 	if( !N ) return 0;
 561              		.loc 1 80 0
 562 0000 51B3     		cbz	r1, .L36
  81:.\fft-dif.c   **** 
  82:.\fft-dif.c   **** 	if( N & (N-1) ) return 1;
 563              		.loc 1 82 0
 564 0002 4B1E     		subs	r3, r1, #1
 565 0004 0B42     		tst	r3, r1
 566 0006 29D1     		bne	.L37
  79:.\fft-dif.c   **** 	if( !N ) return 0;
 567              		.loc 1 79 0
 568 0008 70B5     		push	{r4, r5, r6, lr}
 569              		.cfi_def_cfa_offset 16
 570              		.cfi_offset 4, -16
 571              		.cfi_offset 5, -12
 572              		.cfi_offset 6, -8
 573              		.cfi_offset 14, -4
 574 000a 82B0     		sub	sp, sp, #8
 575              		.cfi_def_cfa_offset 24
 576 000c 0C46     		mov	r4, r1
 577 000e 0546     		mov	r5, r0
  83:.\fft-dif.c   **** 
  84:.\fft-dif.c   **** 	float complex *buffers[2] = { vector, malloc(N*sizeof(float complex)) };
 578              		.loc 1 84 0
ARM GAS  C:\Users\IVYLIU~1\AppData\Local\Temp\ccQk4GVt.s 			page 13


 579 0010 0090     		str	r0, [sp]
 580 0012 CE00     		lsls	r6, r1, #3
 581 0014 3046     		mov	r0, r6
 582              	.LVL62:
 583 0016 FFF7FEFF 		bl	malloc
 584              	.LVL63:
 585 001a 0190     		str	r0, [sp, #4]
  85:.\fft-dif.c   **** 
  86:.\fft-dif.c   **** 	if( !buffers[1] ) return -1;
 586              		.loc 1 86 0
 587 001c 00B3     		cbz	r0, .L38
 588              	.LVL64:
  87:.\fft-dif.c   **** 
  88:.\fft-dif.c   **** 	int b = 0;
  89:.\fft-dif.c   **** 
  90:.\fft-dif.c   **** 	b = nop_reverse(b, buffers, N);
 589              		.loc 1 90 0
 590 001e 0020     		movs	r0, #0
 591 0020 6946     		mov	r1, sp
 592 0022 2246     		mov	r2, r4
 593 0024 FFF7FEFF 		bl	nop_reverse
 594              	.LVL65:
  91:.\fft-dif.c   **** 	b = fft_reverse(b, buffers, N);
 595              		.loc 1 91 0
 596 0028 6946     		mov	r1, sp
 597 002a 2246     		mov	r2, r4
 598 002c FFF7FEFF 		bl	fft_reverse
 599              	.LVL66:
  92:.\fft-dif.c   **** 	b = nop_reverse(b, buffers, N);
 600              		.loc 1 92 0
 601 0030 6946     		mov	r1, sp
 602 0032 2246     		mov	r2, r4
 603 0034 FFF7FEFF 		bl	nop_reverse
 604              	.LVL67:
  93:.\fft-dif.c   **** 
  94:.\fft-dif.c   **** 	memmove(vector, buffers[b&1], N*sizeof(float complex));
 605              		.loc 1 94 0
 606 0038 00F00100 		and	r0, r0, #1
 607              	.LVL68:
 608 003c 02AB     		add	r3, sp, #8
 609 003e 03EB8003 		add	r3, r3, r0, lsl #2
 610 0042 2846     		mov	r0, r5
 611 0044 53F8081C 		ldr	r1, [r3, #-8]
 612 0048 3246     		mov	r2, r6
 613 004a FFF7FEFF 		bl	memmove
 614              	.LVL69:
  95:.\fft-dif.c   **** 
  96:.\fft-dif.c   **** 	free( buffers[1] );
 615              		.loc 1 96 0
 616 004e 0198     		ldr	r0, [sp, #4]
 617 0050 FFF7FEFF 		bl	free
 618              	.LVL70:
  97:.\fft-dif.c   **** 
  98:.\fft-dif.c   **** 	return 0;
 619              		.loc 1 98 0
 620 0054 0020     		movs	r0, #0
 621 0056 05E0     		b	.L35
ARM GAS  C:\Users\IVYLIU~1\AppData\Local\Temp\ccQk4GVt.s 			page 14


 622              	.LVL71:
 623              	.L36:
 624              		.cfi_def_cfa_offset 0
 625              		.cfi_restore 4
 626              		.cfi_restore 5
 627              		.cfi_restore 6
 628              		.cfi_restore 14
  80:.\fft-dif.c   **** 
 629              		.loc 1 80 0
 630 0058 0020     		movs	r0, #0
 631              	.LVL72:
  99:.\fft-dif.c   **** }
 632              		.loc 1 99 0
 633 005a 7047     		bx	lr
 634              	.LVL73:
 635              	.L37:
  82:.\fft-dif.c   **** 
 636              		.loc 1 82 0
 637 005c 0120     		movs	r0, #1
 638              	.LVL74:
 639 005e 7047     		bx	lr
 640              	.LVL75:
 641              	.L38:
 642              		.cfi_def_cfa_offset 24
 643              		.cfi_offset 4, -16
 644              		.cfi_offset 5, -12
 645              		.cfi_offset 6, -8
 646              		.cfi_offset 14, -4
  86:.\fft-dif.c   **** 
 647              		.loc 1 86 0
 648 0060 4FF0FF30 		mov	r0, #-1
 649              	.L35:
 650              		.loc 1 99 0
 651 0064 02B0     		add	sp, sp, #8
 652              		.cfi_def_cfa_offset 16
 653              		@ sp needed
 654 0066 70BD     		pop	{r4, r5, r6, pc}
 655              		.cfi_endproc
 656              	.LFE6:
 657              		.size	fft, .-fft
 658              		.text
 659              	.Letext0:
 660              		.file 2 "<built-in>"
 661              		.file 3 "c:\\program files (x86)\\cypress\\psoc creator\\3.3\\psoc creator\\import\\gnu\\arm\\4.9.
 662              		.file 4 "c:\\program files (x86)\\cypress\\psoc creator\\3.3\\psoc creator\\import\\gnu\\arm\\4.9.
 663              		.file 5 "c:\\program files (x86)\\cypress\\psoc creator\\3.3\\psoc creator\\import\\gnu\\arm\\4.9.
 664              		.file 6 "c:\\program files (x86)\\cypress\\psoc creator\\3.3\\psoc creator\\import\\gnu\\arm\\4.9.