ARM GAS  C:\Users\IVYLIU~1\AppData\Local\Temp\ccJYP6uR.s 			page 1


   1              		.syntax unified
   2              		.cpu cortex-m3
   3              		.fpu softvfp
   4              		.eabi_attribute 20, 1
   5              		.eabi_attribute 21, 1
   6              		.eabi_attribute 23, 3
   7              		.eabi_attribute 24, 1
   8              		.eabi_attribute 25, 1
   9              		.eabi_attribute 26, 1
  10              		.eabi_attribute 30, 1
  11              		.eabi_attribute 34, 1
  12              		.eabi_attribute 18, 4
  13              		.thumb
  14              		.file	"ift-dit.c"
  15              		.text
  16              	.Ltext0:
  17              		.cfi_sections	.debug_frame
  18              		.section	.text.ctz,"ax",%progbits
  19              		.align	2
  20              		.thumb
  21              		.thumb_func
  22              		.type	ctz, %function
  23              	ctz:
  24              	.LFB0:
  25              		.file 1 ".\\ift-dit.c"
   1:.\ift-dit.c   **** #include "ift.h"
   2:.\ift-dit.c   **** #include <math.h>
   3:.\ift-dit.c   **** #include <stdlib.h>
   4:.\ift-dit.c   **** #include <string.h>
   5:.\ift-dit.c   **** 
   6:.\ift-dit.c   **** static int ctz(size_t N)
   7:.\ift-dit.c   **** {
  26              		.loc 1 7 0
  27              		.cfi_startproc
  28              		@ args = 0, pretend = 0, frame = 0
  29              		@ frame_needed = 0, uses_anonymous_args = 0
  30              		@ link register save eliminated.
  31              	.LVL0:
   8:.\ift-dit.c   **** 	int ctz1 = 0;
  32              		.loc 1 8 0
  33 0000 0023     		movs	r3, #0
   9:.\ift-dit.c   **** 
  10:.\ift-dit.c   **** 	while( N ) {
  34              		.loc 1 10 0
  35 0002 01E0     		b	.L2
  36              	.LVL1:
  37              	.L3:
  11:.\ift-dit.c   **** 		ctz1++;
  38              		.loc 1 11 0
  39 0004 0133     		adds	r3, r3, #1
  40              	.LVL2:
  12:.\ift-dit.c   **** 		N >>= 1;
  41              		.loc 1 12 0
  42 0006 4008     		lsrs	r0, r0, #1
  43              	.LVL3:
  44              	.L2:
  10:.\ift-dit.c   **** 		ctz1++;
ARM GAS  C:\Users\IVYLIU~1\AppData\Local\Temp\ccJYP6uR.s 			page 2


  45              		.loc 1 10 0
  46 0008 0028     		cmp	r0, #0
  47 000a FBD1     		bne	.L3
  13:.\ift-dit.c   **** 	}
  14:.\ift-dit.c   **** 
  15:.\ift-dit.c   **** 	return ctz1-1;
  16:.\ift-dit.c   **** }
  48              		.loc 1 16 0
  49 000c 581E     		subs	r0, r3, #1
  50              	.LVL4:
  51 000e 7047     		bx	lr
  52              		.cfi_endproc
  53              	.LFE0:
  54              		.size	ctz, .-ctz
  55              		.section	.text.nop_split,"ax",%progbits
  56              		.align	2
  57              		.thumb
  58              		.thumb_func
  59              		.type	nop_split, %function
  60              	nop_split:
  61              	.LFB1:
  17:.\ift-dit.c   **** 
  18:.\ift-dit.c   **** static void nop_split(const float complex *x, float complex *X, size_t N)
  19:.\ift-dit.c   **** {
  62              		.loc 1 19 0
  63              		.cfi_startproc
  64              		@ args = 0, pretend = 0, frame = 0
  65              		@ frame_needed = 0, uses_anonymous_args = 0
  66              	.LVL5:
  67 0000 F0B5     		push	{r4, r5, r6, r7, lr}
  68              		.cfi_def_cfa_offset 20
  69              		.cfi_offset 4, -20
  70              		.cfi_offset 5, -16
  71              		.cfi_offset 6, -12
  72              		.cfi_offset 7, -8
  73              		.cfi_offset 14, -4
  74              	.LVL6:
  75              	.LBB2:
  20:.\ift-dit.c   **** 	for(size_t n = 0; n < N/2; n++) {
  76              		.loc 1 20 0
  77 0002 0023     		movs	r3, #0
  78 0004 12E0     		b	.L5
  79              	.LVL7:
  80              	.L6:
  21:.\ift-dit.c   **** 		X[0/2+n] = x[2*n+0];
  81              		.loc 1 21 0 discriminator 3
  82 0006 01EBC307 		add	r7, r1, r3, lsl #3
  83 000a 1E01     		lsls	r6, r3, #4
  84 000c 8519     		adds	r5, r0, r6
  85 000e 50F806E0 		ldr	lr, [r0, r6]	@ float
  86 0012 6E68     		ldr	r6, [r5, #4]	@ float
  87 0014 41F833E0 		str	lr, [r1, r3, lsl #3]	@ float
  88 0018 7E60     		str	r6, [r7, #4]	@ float
  22:.\ift-dit.c   **** 		X[N/2+n] = x[2*n+1];
  89              		.loc 1 22 0 discriminator 3
  90 001a 1C44     		add	r4, r4, r3
  91 001c 01EBC406 		add	r6, r1, r4, lsl #3
ARM GAS  C:\Users\IVYLIU~1\AppData\Local\Temp\ccJYP6uR.s 			page 3


  92 0020 AF68     		ldr	r7, [r5, #8]	@ float
  93 0022 ED68     		ldr	r5, [r5, #12]	@ float
  94 0024 41F83470 		str	r7, [r1, r4, lsl #3]	@ float
  95 0028 7560     		str	r5, [r6, #4]	@ float
  20:.\ift-dit.c   **** 	for(size_t n = 0; n < N/2; n++) {
  96              		.loc 1 20 0 discriminator 3
  97 002a 0133     		adds	r3, r3, #1
  98              	.LVL8:
  99              	.L5:
  20:.\ift-dit.c   **** 	for(size_t n = 0; n < N/2; n++) {
 100              		.loc 1 20 0 is_stmt 0 discriminator 1
 101 002c 5408     		lsrs	r4, r2, #1
 102 002e 9C42     		cmp	r4, r3
 103 0030 E9D8     		bhi	.L6
 104              	.LBE2:
  23:.\ift-dit.c   **** 	}
  24:.\ift-dit.c   **** }
 105              		.loc 1 24 0 is_stmt 1
 106 0032 F0BD     		pop	{r4, r5, r6, r7, pc}
 107              		.cfi_endproc
 108              	.LFE1:
 109              		.size	nop_split, .-nop_split
 110              		.section	.text.revbits,"ax",%progbits
 111              		.align	2
 112              		.thumb
 113              		.thumb_func
 114              		.type	revbits, %function
 115              	revbits:
 116              	.LFB3:
  25:.\ift-dit.c   **** 
  26:.\ift-dit.c   **** static void fft_split(const float complex *x, float complex *X, size_t N, float complex phi)
  27:.\ift-dit.c   **** {
  28:.\ift-dit.c   **** 	for(size_t n = 0; n < N/2; n++) {
  29:.\ift-dit.c   **** 		X[0/2+n] = (x[2*n+0] + x[2*n+1] * cexp(+2*(float)M_PI*I*phi))/2;
  30:.\ift-dit.c   **** 		X[N/2+n] = (x[2*n+0] - x[2*n+1] * cexp(+2*(float)M_PI*I*phi))/2;
  31:.\ift-dit.c   **** 	}
  32:.\ift-dit.c   **** }
  33:.\ift-dit.c   **** 
  34:.\ift-dit.c   **** static size_t revbits(size_t v, int J)
  35:.\ift-dit.c   **** {
 117              		.loc 1 35 0
 118              		.cfi_startproc
 119              		@ args = 0, pretend = 0, frame = 0
 120              		@ frame_needed = 0, uses_anonymous_args = 0
 121              		@ link register save eliminated.
 122              	.LVL9:
 123 0000 30B4     		push	{r4, r5}
 124              		.cfi_def_cfa_offset 8
 125              		.cfi_offset 4, -8
 126              		.cfi_offset 5, -4
 127 0002 0546     		mov	r5, r0
 128              	.LVL10:
 129              	.LBB3:
  36:.\ift-dit.c   **** 	size_t r = 0;
  37:.\ift-dit.c   **** 
  38:.\ift-dit.c   **** 	for(int j = 0; j < J; j++) {
 130              		.loc 1 38 0
ARM GAS  C:\Users\IVYLIU~1\AppData\Local\Temp\ccJYP6uR.s 			page 4


 131 0004 0022     		movs	r2, #0
 132              	.LBE3:
  36:.\ift-dit.c   **** 	size_t r = 0;
 133              		.loc 1 36 0
 134 0006 1046     		mov	r0, r2
 135              	.LVL11:
 136              	.LBB4:
 137              		.loc 1 38 0
 138 0008 08E0     		b	.L9
 139              	.LVL12:
 140              	.L10:
  39:.\ift-dit.c   **** 		r |= ( (v>>j)&1 ) << (J-1-j);
 141              		.loc 1 39 0 discriminator 3
 142 000a 25FA02F3 		lsr	r3, r5, r2
 143 000e 03F00103 		and	r3, r3, #1
 144 0012 4C1E     		subs	r4, r1, #1
 145 0014 A41A     		subs	r4, r4, r2
 146 0016 A340     		lsls	r3, r3, r4
 147 0018 1843     		orrs	r0, r0, r3
 148              	.LVL13:
  38:.\ift-dit.c   **** 		r |= ( (v>>j)&1 ) << (J-1-j);
 149              		.loc 1 38 0 discriminator 3
 150 001a 0132     		adds	r2, r2, #1
 151              	.LVL14:
 152              	.L9:
  38:.\ift-dit.c   **** 		r |= ( (v>>j)&1 ) << (J-1-j);
 153              		.loc 1 38 0 is_stmt 0 discriminator 1
 154 001c 8A42     		cmp	r2, r1
 155 001e F4DB     		blt	.L10
 156              	.LBE4:
  40:.\ift-dit.c   **** 	}
  41:.\ift-dit.c   **** 
  42:.\ift-dit.c   **** 	return r;
  43:.\ift-dit.c   **** }
 157              		.loc 1 43 0 is_stmt 1
 158 0020 30BC     		pop	{r4, r5}
 159              		.cfi_restore 5
 160              		.cfi_restore 4
 161              		.cfi_def_cfa_offset 0
 162              	.LVL15:
 163 0022 7047     		bx	lr
 164              		.cfi_endproc
 165              	.LFE3:
 166              		.size	revbits, .-revbits
 167              		.section	.text.nop_reverse,"ax",%progbits
 168              		.align	2
 169              		.thumb
 170              		.thumb_func
 171              		.type	nop_reverse, %function
 172              	nop_reverse:
 173              	.LFB4:
  44:.\ift-dit.c   **** 
  45:.\ift-dit.c   **** static int nop_reverse(int b, float complex *buffers[2], size_t N)
  46:.\ift-dit.c   **** {
 174              		.loc 1 46 0
 175              		.cfi_startproc
 176              		@ args = 0, pretend = 0, frame = 0
ARM GAS  C:\Users\IVYLIU~1\AppData\Local\Temp\ccJYP6uR.s 			page 5


 177              		@ frame_needed = 0, uses_anonymous_args = 0
 178              	.LVL16:
 179 0000 2DE9F047 		push	{r4, r5, r6, r7, r8, r9, r10, lr}
 180              		.cfi_def_cfa_offset 32
 181              		.cfi_offset 4, -32
 182              		.cfi_offset 5, -28
 183              		.cfi_offset 6, -24
 184              		.cfi_offset 7, -20
 185              		.cfi_offset 8, -16
 186              		.cfi_offset 9, -12
 187              		.cfi_offset 10, -8
 188              		.cfi_offset 14, -4
 189 0004 0746     		mov	r7, r0
 190 0006 0E46     		mov	r6, r1
 191 0008 9046     		mov	r8, r2
  47:.\ift-dit.c   **** 	int J = ctz(N);
 192              		.loc 1 47 0
 193 000a 1046     		mov	r0, r2
 194              	.LVL17:
 195 000c FFF7FEFF 		bl	ctz
 196              	.LVL18:
 197 0010 8246     		mov	r10, r0
 198              	.LVL19:
 199              	.LBB5:
  48:.\ift-dit.c   **** 
  49:.\ift-dit.c   **** 	for(int j = 0; j < J-1; j++, b++) {
 200              		.loc 1 49 0
 201 0012 4FF00009 		mov	r9, #0
 202 0016 18E0     		b	.L13
 203              	.LVL20:
 204              	.L17:
 205              	.LBB6:
  50:.\ift-dit.c   **** 		size_t delta = N>>j;
 206              		.loc 1 50 0
 207 0018 28FA09F5 		lsr	r5, r8, r9
 208              	.LVL21:
 209              	.LBB7:
  51:.\ift-dit.c   **** 
  52:.\ift-dit.c   **** 		for(size_t n = 0; n < N; n += delta) {
 210              		.loc 1 52 0
 211 001c 0024     		movs	r4, #0
 212 001e 0FE0     		b	.L14
 213              	.LVL22:
 214              	.L16:
  53:.\ift-dit.c   **** 			nop_split(buffers[b&1]+n, buffers[~b&1]+n, delta);
 215              		.loc 1 53 0
 216 0020 07F00102 		and	r2, r7, #1
 217 0024 56F82200 		ldr	r0, [r6, r2, lsl #2]
 218 0028 E300     		lsls	r3, r4, #3
 219 002a 1844     		add	r0, r0, r3
 220 002c 0AB9     		cbnz	r2, .L18
 221 002e 0422     		movs	r2, #4
 222 0030 00E0     		b	.L15
 223              	.L18:
 224 0032 0022     		movs	r2, #0
 225              	.L15:
 226              		.loc 1 53 0 is_stmt 0 discriminator 4
ARM GAS  C:\Users\IVYLIU~1\AppData\Local\Temp\ccJYP6uR.s 			page 6


 227 0034 B158     		ldr	r1, [r6, r2]
 228 0036 1944     		add	r1, r1, r3
 229 0038 2A46     		mov	r2, r5
 230 003a FFF7FEFF 		bl	nop_split
 231              	.LVL23:
  52:.\ift-dit.c   **** 			nop_split(buffers[b&1]+n, buffers[~b&1]+n, delta);
 232              		.loc 1 52 0 is_stmt 1 discriminator 4
 233 003e 2C44     		add	r4, r4, r5
 234              	.LVL24:
 235              	.L14:
  52:.\ift-dit.c   **** 			nop_split(buffers[b&1]+n, buffers[~b&1]+n, delta);
 236              		.loc 1 52 0 is_stmt 0 discriminator 2
 237 0040 4445     		cmp	r4, r8
 238 0042 EDD3     		bcc	.L16
 239              	.LBE7:
 240              	.LBE6:
  49:.\ift-dit.c   **** 		size_t delta = N>>j;
 241              		.loc 1 49 0 is_stmt 1 discriminator 2
 242 0044 09F10109 		add	r9, r9, #1
 243              	.LVL25:
 244 0048 0137     		adds	r7, r7, #1
 245              	.LVL26:
 246              	.L13:
  49:.\ift-dit.c   **** 		size_t delta = N>>j;
 247              		.loc 1 49 0 is_stmt 0 discriminator 1
 248 004a 0AF1FF33 		add	r3, r10, #-1
 249 004e 4B45     		cmp	r3, r9
 250 0050 E2DC     		bgt	.L17
 251              	.LBE5:
  54:.\ift-dit.c   **** 		}
  55:.\ift-dit.c   **** 	}
  56:.\ift-dit.c   **** 
  57:.\ift-dit.c   **** 	return b;
  58:.\ift-dit.c   **** }
 252              		.loc 1 58 0 is_stmt 1
 253 0052 3846     		mov	r0, r7
 254 0054 BDE8F087 		pop	{r4, r5, r6, r7, r8, r9, r10, pc}
 255              		.cfi_endproc
 256              	.LFE4:
 257              		.size	nop_reverse, .-nop_reverse
 258              		.global	__aeabi_f2d
 259              		.global	__aeabi_dadd
 260              		.global	__aeabi_dmul
 261              		.global	__aeabi_d2f
 262              		.global	__aeabi_dsub
 263              		.section	.text.fft_split,"ax",%progbits
 264              		.align	2
 265              		.thumb
 266              		.thumb_func
 267              		.type	fft_split, %function
 268              	fft_split:
 269              	.LFB2:
  27:.\ift-dit.c   **** 	for(size_t n = 0; n < N/2; n++) {
 270              		.loc 1 27 0
 271              		.cfi_startproc
 272              		@ args = 12, pretend = 8, frame = 96
 273              		@ frame_needed = 0, uses_anonymous_args = 0
ARM GAS  C:\Users\IVYLIU~1\AppData\Local\Temp\ccJYP6uR.s 			page 7


 274              	.LVL27:
 275 0000 82B0     		sub	sp, sp, #8
 276              		.cfi_def_cfa_offset 8
 277 0002 2DE9F04F 		push	{r4, r5, r6, r7, r8, r9, r10, fp, lr}
 278              		.cfi_def_cfa_offset 44
 279              		.cfi_offset 4, -44
 280              		.cfi_offset 5, -40
 281              		.cfi_offset 6, -36
 282              		.cfi_offset 7, -32
 283              		.cfi_offset 8, -28
 284              		.cfi_offset 9, -24
 285              		.cfi_offset 10, -20
 286              		.cfi_offset 11, -16
 287              		.cfi_offset 14, -12
 288 0006 9FB0     		sub	sp, sp, #124
 289              		.cfi_def_cfa_offset 168
 290 0008 1592     		str	r2, [sp, #84]
 291 000a 2993     		str	r3, [sp, #164]
 292 000c 299B     		ldr	r3, [sp, #164]	@ float
 293 000e 1693     		str	r3, [sp, #88]	@ float
 294 0010 2A9B     		ldr	r3, [sp, #168]	@ float
 295 0012 1793     		str	r3, [sp, #92]	@ float
 296              	.LVL28:
 297              	.LBB8:
  28:.\ift-dit.c   **** 		X[0/2+n] = (x[2*n+0] + x[2*n+1] * cexp(+2*(float)M_PI*I*phi))/2;
 298              		.loc 1 28 0
 299 0014 4FF0000A 		mov	r10, #0
 300 0018 8346     		mov	fp, r0
 301 001a 8846     		mov	r8, r1
 302 001c C9E0     		b	.L21
 303              	.LVL29:
 304              	.L22:
  29:.\ift-dit.c   **** 		X[N/2+n] = (x[2*n+0] - x[2*n+1] * cexp(+2*(float)M_PI*I*phi))/2;
 305              		.loc 1 29 0 discriminator 3
 306 001e 08EBCA03 		add	r3, r8, r10, lsl #3
 307 0022 0693     		str	r3, [sp, #24]
 308 0024 4FEA0A16 		lsl	r6, r10, #4
 309 0028 0BEB0603 		add	r3, fp, r6
 310 002c 1D46     		mov	r5, r3
 311 002e 5BF80600 		ldr	r0, [fp, r6]	@ float
 312 0032 FFF7FEFF 		bl	__aeabi_f2d
 313              	.LVL30:
 314 0036 CDE90A01 		strd	r0, [sp, #40]
 315 003a 0895     		str	r5, [sp, #32]
 316 003c 6868     		ldr	r0, [r5, #4]	@ float
 317 003e FFF7FEFF 		bl	__aeabi_f2d
 318              	.LVL31:
 319 0042 CDE90C01 		strd	r0, [sp, #48]
 320 0046 06F10807 		add	r7, r6, #8
 321 004a 0BEB0701 		add	r1, fp, r7
 322 004e 0D46     		mov	r5, r1
 323 0050 5BF80700 		ldr	r0, [fp, r7]	@ float
 324 0054 FFF7FEFF 		bl	__aeabi_f2d
 325              	.LVL32:
 326 0058 CDE90E01 		strd	r0, [sp, #56]
 327 005c 1495     		str	r5, [sp, #80]
 328 005e 6868     		ldr	r0, [r5, #4]	@ float
ARM GAS  C:\Users\IVYLIU~1\AppData\Local\Temp\ccJYP6uR.s 			page 8


 329 0060 FFF7FEFF 		bl	__aeabi_f2d
 330              	.LVL33:
 331 0064 CDE91001 		strd	r0, [sp, #64]
 332 0068 574B     		ldr	r3, .L24
 333 006a 0093     		str	r3, [sp]	@ float
 334 006c 1CA8     		add	r0, sp, #112
 335 006e 1699     		ldr	r1, [sp, #88]	@ float
 336 0070 179A     		ldr	r2, [sp, #92]	@ float
 337 0072 0023     		movs	r3, #0
 338 0074 FFF7FEFF 		bl	__mulsc3
 339              	.LVL34:
 340 0078 1D9D     		ldr	r5, [sp, #116]	@ float
 341 007a 1C98     		ldr	r0, [sp, #112]	@ float
 342 007c FFF7FEFF 		bl	__aeabi_f2d
 343              	.LVL35:
 344 0080 1290     		str	r0, [sp, #72]
 345 0082 0C46     		mov	r4, r1
 346 0084 2846     		mov	r0, r5
 347 0086 FFF7FEFF 		bl	__aeabi_f2d
 348              	.LVL36:
 349 008a 129A     		ldr	r2, [sp, #72]
 350 008c 2346     		mov	r3, r4
 351 008e 0191     		str	r1, [sp, #4]
 352 0090 0090     		str	r0, [sp]
 353 0092 0DF1600E 		add	lr, sp, #96
 354 0096 7046     		mov	r0, lr
 355 0098 FFF7FEFF 		bl	cexp
 356              	.LVL37:
 357 009c DDE91823 		ldrd	r2, [sp, #96]
 358 00a0 DDE91A01 		ldrd	r0, [sp, #104]
 359 00a4 DDE91045 		ldrd	r4, [sp, #64]
 360 00a8 CDE90045 		strd	r4, [sp]
 361 00ac CDE91023 		strd	r2, [sp, #64]
 362 00b0 CDE90223 		strd	r2, [sp, #8]
 363 00b4 CDE91201 		strd	r0, [sp, #72]
 364 00b8 CDE90401 		strd	r0, [sp, #16]
 365 00bc 18AC     		add	r4, sp, #96
 366 00be 2046     		mov	r0, r4
 367 00c0 DDE90E23 		ldrd	r2, [sp, #56]
 368 00c4 FFF7FEFF 		bl	__muldc3
 369              	.LVL38:
 370 00c8 DDE91A45 		ldrd	r4, [sp, #104]
 371 00cc DDE90A01 		ldrd	r0, [sp, #40]
 372 00d0 DDE91823 		ldrd	r2, [sp, #96]
 373 00d4 FFF7FEFF 		bl	__aeabi_dadd
 374              	.LVL39:
 375 00d8 CDE90A01 		strd	r0, [sp, #40]
 376 00dc DDE90C01 		ldrd	r0, [sp, #48]
 377 00e0 2246     		mov	r2, r4
 378 00e2 2B46     		mov	r3, r5
 379 00e4 FFF7FEFF 		bl	__aeabi_dadd
 380              	.LVL40:
 381 00e8 0446     		mov	r4, r0
 382 00ea 0D46     		mov	r5, r1
 383 00ec DDE90A01 		ldrd	r0, [sp, #40]
 384 00f0 0022     		movs	r2, #0
 385 00f2 364B     		ldr	r3, .L24+4
ARM GAS  C:\Users\IVYLIU~1\AppData\Local\Temp\ccJYP6uR.s 			page 9


 386 00f4 FFF7FEFF 		bl	__aeabi_dmul
 387              	.LVL41:
 388 00f8 FFF7FEFF 		bl	__aeabi_d2f
 389              	.LVL42:
 390 00fc 48F83A00 		str	r0, [r8, r10, lsl #3]	@ float
 391 0100 2046     		mov	r0, r4
 392 0102 2946     		mov	r1, r5
 393 0104 0022     		movs	r2, #0
 394 0106 314B     		ldr	r3, .L24+4
 395 0108 FFF7FEFF 		bl	__aeabi_dmul
 396              	.LVL43:
 397 010c FFF7FEFF 		bl	__aeabi_d2f
 398              	.LVL44:
 399 0110 069B     		ldr	r3, [sp, #24]
 400 0112 5860     		str	r0, [r3, #4]	@ float
  30:.\ift-dit.c   **** 	}
 401              		.loc 1 30 0 discriminator 3
 402 0114 0AEB0904 		add	r4, r10, r9
 403 0118 08EBC405 		add	r5, r8, r4, lsl #3
 404 011c 5BF80600 		ldr	r0, [fp, r6]	@ float
 405 0120 FFF7FEFF 		bl	__aeabi_f2d
 406              	.LVL45:
 407 0124 CDE90601 		strd	r0, [sp, #24]
 408 0128 089B     		ldr	r3, [sp, #32]
 409 012a 5868     		ldr	r0, [r3, #4]	@ float
 410 012c FFF7FEFF 		bl	__aeabi_f2d
 411              	.LVL46:
 412 0130 CDE90801 		strd	r0, [sp, #32]
 413 0134 5BF80700 		ldr	r0, [fp, r7]	@ float
 414 0138 FFF7FEFF 		bl	__aeabi_f2d
 415              	.LVL47:
 416 013c 0646     		mov	r6, r0
 417 013e 0F46     		mov	r7, r1
 418 0140 1499     		ldr	r1, [sp, #80]
 419 0142 4868     		ldr	r0, [r1, #4]	@ float
 420 0144 FFF7FEFF 		bl	__aeabi_f2d
 421              	.LVL48:
 422 0148 DDE91223 		ldrd	r2, [sp, #72]
 423 014c CDE90023 		strd	r2, [sp]
 424 0150 CDE90267 		strd	r6, [sp, #8]
 425 0154 CDE90401 		strd	r0, [sp, #16]
 426 0158 18AB     		add	r3, sp, #96
 427 015a 1846     		mov	r0, r3
 428 015c DDE91023 		ldrd	r2, [sp, #64]
 429 0160 FFF7FEFF 		bl	__muldc3
 430              	.LVL49:
 431 0164 DDE91A67 		ldrd	r6, [sp, #104]
 432 0168 DDE90601 		ldrd	r0, [sp, #24]
 433 016c DDE91823 		ldrd	r2, [sp, #96]
 434 0170 FFF7FEFF 		bl	__aeabi_dsub
 435              	.LVL50:
 436 0174 CDE90601 		strd	r0, [sp, #24]
 437 0178 DDE90801 		ldrd	r0, [sp, #32]
 438 017c 3246     		mov	r2, r6
 439 017e 3B46     		mov	r3, r7
 440 0180 FFF7FEFF 		bl	__aeabi_dsub
 441              	.LVL51:
ARM GAS  C:\Users\IVYLIU~1\AppData\Local\Temp\ccJYP6uR.s 			page 10


 442 0184 0646     		mov	r6, r0
 443 0186 0F46     		mov	r7, r1
 444 0188 DDE90601 		ldrd	r0, [sp, #24]
 445 018c 0022     		movs	r2, #0
 446 018e 0F4B     		ldr	r3, .L24+4
 447 0190 FFF7FEFF 		bl	__aeabi_dmul
 448              	.LVL52:
 449 0194 FFF7FEFF 		bl	__aeabi_d2f
 450              	.LVL53:
 451 0198 48F83400 		str	r0, [r8, r4, lsl #3]	@ float
 452 019c 3046     		mov	r0, r6
 453 019e 3946     		mov	r1, r7
 454 01a0 0022     		movs	r2, #0
 455 01a2 0A4B     		ldr	r3, .L24+4
 456 01a4 FFF7FEFF 		bl	__aeabi_dmul
 457              	.LVL54:
 458 01a8 FFF7FEFF 		bl	__aeabi_d2f
 459              	.LVL55:
 460 01ac 6860     		str	r0, [r5, #4]	@ float
  28:.\ift-dit.c   **** 		X[0/2+n] = (x[2*n+0] + x[2*n+1] * cexp(+2*(float)M_PI*I*phi))/2;
 461              		.loc 1 28 0 discriminator 3
 462 01ae 0AF1010A 		add	r10, r10, #1
 463              	.LVL56:
 464              	.L21:
  28:.\ift-dit.c   **** 		X[0/2+n] = (x[2*n+0] + x[2*n+1] * cexp(+2*(float)M_PI*I*phi))/2;
 465              		.loc 1 28 0 is_stmt 0 discriminator 1
 466 01b2 159B     		ldr	r3, [sp, #84]
 467 01b4 4FEA5309 		lsr	r9, r3, #1
 468 01b8 D145     		cmp	r9, r10
 469 01ba 3FF630AF 		bhi	.L22
 470              	.LBE8:
  32:.\ift-dit.c   **** 
 471              		.loc 1 32 0 is_stmt 1
 472 01be 1FB0     		add	sp, sp, #124
 473              		.cfi_def_cfa_offset 44
 474              		@ sp needed
 475 01c0 BDE8F04F 		pop	{r4, r5, r6, r7, r8, r9, r10, fp, lr}
 476              		.cfi_restore 14
 477              		.cfi_restore 11
 478              		.cfi_restore 10
 479              		.cfi_restore 9
 480              		.cfi_restore 8
 481              		.cfi_restore 7
 482              		.cfi_restore 6
 483              		.cfi_restore 5
 484              		.cfi_restore 4
 485              		.cfi_def_cfa_offset 8
 486              	.LVL57:
 487 01c4 02B0     		add	sp, sp, #8
 488              		.cfi_def_cfa_offset 0
 489 01c6 7047     		bx	lr
 490              	.L25:
 491              		.align	2
 492              	.L24:
 493 01c8 DB0FC940 		.word	1086918619
 494 01cc 0000E03F 		.word	1071644672
 495              		.cfi_endproc
ARM GAS  C:\Users\IVYLIU~1\AppData\Local\Temp\ccJYP6uR.s 			page 11


 496              	.LFE2:
 497              		.size	fft_split, .-fft_split
 498              		.global	__aeabi_ui2f
 499              		.global	__aeabi_i2f
 500              		.global	__aeabi_fdiv
 501              		.section	.text.fft_reverse,"ax",%progbits
 502              		.align	2
 503              		.thumb
 504              		.thumb_func
 505              		.type	fft_reverse, %function
 506              	fft_reverse:
 507              	.LFB5:
  59:.\ift-dit.c   **** 
  60:.\ift-dit.c   **** static int fft_reverse(int b, float complex *buffers[2], size_t N)
  61:.\ift-dit.c   **** {
 508              		.loc 1 61 0
 509              		.cfi_startproc
 510              		@ args = 0, pretend = 0, frame = 0
 511              		@ frame_needed = 0, uses_anonymous_args = 0
 512              	.LVL58:
 513 0000 2DE9F04F 		push	{r4, r5, r6, r7, r8, r9, r10, fp, lr}
 514              		.cfi_def_cfa_offset 36
 515              		.cfi_offset 4, -36
 516              		.cfi_offset 5, -32
 517              		.cfi_offset 6, -28
 518              		.cfi_offset 7, -24
 519              		.cfi_offset 8, -20
 520              		.cfi_offset 9, -16
 521              		.cfi_offset 10, -12
 522              		.cfi_offset 11, -8
 523              		.cfi_offset 14, -4
 524 0004 83B0     		sub	sp, sp, #12
 525              		.cfi_def_cfa_offset 48
 526 0006 8046     		mov	r8, r0
 527 0008 0F46     		mov	r7, r1
 528 000a 9146     		mov	r9, r2
  62:.\ift-dit.c   **** 	int J = ctz(N);
 529              		.loc 1 62 0
 530 000c 1046     		mov	r0, r2
 531              	.LVL59:
 532 000e FFF7FEFF 		bl	ctz
 533              	.LVL60:
 534 0012 8246     		mov	r10, r0
 535              	.LVL61:
 536              	.LBB9:
  63:.\ift-dit.c   **** 
  64:.\ift-dit.c   **** 	for(int j = 0; j < J; j++, b++) {
 537              		.loc 1 64 0
 538 0014 0026     		movs	r6, #0
 539 0016 2DE0     		b	.L27
 540              	.LVL62:
 541              	.L31:
 542              	.LBB10:
  65:.\ift-dit.c   **** 		size_t delta = N>>j;
 543              		.loc 1 65 0
 544 0018 29FA06F5 		lsr	r5, r9, r6
 545              	.LVL63:
ARM GAS  C:\Users\IVYLIU~1\AppData\Local\Temp\ccJYP6uR.s 			page 12


 546              	.LBB11:
  66:.\ift-dit.c   **** 
  67:.\ift-dit.c   **** 		for(size_t n = 0; n < N; n += delta) {
 547              		.loc 1 67 0
 548 001c 0024     		movs	r4, #0
 549 001e 24E0     		b	.L28
 550              	.LVL64:
 551              	.L30:
 552              	.LBB12:
  68:.\ift-dit.c   **** 			float complex phi = (float)revbits( n/delta, j) / (float)(2<<j);
 553              		.loc 1 68 0
 554 0020 B4FBF5F0 		udiv	r0, r4, r5
 555 0024 3146     		mov	r1, r6
 556 0026 FFF7FEFF 		bl	revbits
 557              	.LVL65:
 558 002a FFF7FEFF 		bl	__aeabi_ui2f
 559              	.LVL66:
 560 002e 8346     		mov	fp, r0
 561 0030 0220     		movs	r0, #2
 562 0032 B040     		lsls	r0, r0, r6
 563 0034 FFF7FEFF 		bl	__aeabi_i2f
 564              	.LVL67:
 565 0038 0146     		mov	r1, r0
 566 003a 5846     		mov	r0, fp
 567 003c FFF7FEFF 		bl	__aeabi_fdiv
 568              	.LVL68:
  69:.\ift-dit.c   **** 			fft_split(buffers[b&1]+n, buffers[~b&1]+n, delta, phi);
 569              		.loc 1 69 0
 570 0040 08F00103 		and	r3, r8, #1
 571 0044 57F82320 		ldr	r2, [r7, r3, lsl #2]
 572 0048 E100     		lsls	r1, r4, #3
 573 004a 0A44     		add	r2, r2, r1
 574 004c 0BB9     		cbnz	r3, .L32
 575 004e 0423     		movs	r3, #4
 576 0050 00E0     		b	.L29
 577              	.L32:
 578 0052 0023     		movs	r3, #0
 579              	.L29:
 580              		.loc 1 69 0 is_stmt 0 discriminator 4
 581 0054 57F803E0 		ldr	lr, [r7, r3]
 582 0058 0023     		movs	r3, #0
 583 005a 0093     		str	r3, [sp]
 584 005c 0346     		mov	r3, r0
 585 005e 1046     		mov	r0, r2
 586              	.LVL69:
 587 0060 7144     		add	r1, r1, lr
 588 0062 2A46     		mov	r2, r5
 589 0064 FFF7FEFF 		bl	fft_split
 590              	.LVL70:
 591              	.LBE12:
  67:.\ift-dit.c   **** 			float complex phi = (float)revbits( n/delta, j) / (float)(2<<j);
 592              		.loc 1 67 0 is_stmt 1 discriminator 4
 593 0068 2C44     		add	r4, r4, r5
 594              	.LVL71:
 595              	.L28:
  67:.\ift-dit.c   **** 			float complex phi = (float)revbits( n/delta, j) / (float)(2<<j);
 596              		.loc 1 67 0 is_stmt 0 discriminator 2
ARM GAS  C:\Users\IVYLIU~1\AppData\Local\Temp\ccJYP6uR.s 			page 13


 597 006a 4C45     		cmp	r4, r9
 598 006c D8D3     		bcc	.L30
 599              	.LBE11:
 600              	.LBE10:
  64:.\ift-dit.c   **** 		size_t delta = N>>j;
 601              		.loc 1 64 0 is_stmt 1 discriminator 2
 602 006e 0136     		adds	r6, r6, #1
 603              	.LVL72:
 604 0070 08F10108 		add	r8, r8, #1
 605              	.LVL73:
 606              	.L27:
  64:.\ift-dit.c   **** 		size_t delta = N>>j;
 607              		.loc 1 64 0 is_stmt 0 discriminator 1
 608 0074 5645     		cmp	r6, r10
 609 0076 CFDB     		blt	.L31
 610              	.LBE9:
  70:.\ift-dit.c   **** 		}
  71:.\ift-dit.c   **** 	}
  72:.\ift-dit.c   **** 
  73:.\ift-dit.c   **** 	return b;
  74:.\ift-dit.c   **** }
 611              		.loc 1 74 0 is_stmt 1
 612 0078 4046     		mov	r0, r8
 613 007a 03B0     		add	sp, sp, #12
 614              		.cfi_def_cfa_offset 36
 615              		@ sp needed
 616 007c BDE8F08F 		pop	{r4, r5, r6, r7, r8, r9, r10, fp, pc}
 617              		.cfi_endproc
 618              	.LFE5:
 619              		.size	fft_reverse, .-fft_reverse
 620              		.section	.text.ift,"ax",%progbits
 621              		.align	2
 622              		.global	ift
 623              		.thumb
 624              		.thumb_func
 625              		.type	ift, %function
 626              	ift:
 627              	.LFB6:
  75:.\ift-dit.c   **** 
  76:.\ift-dit.c   **** int ift(float complex *vector, size_t N)
  77:.\ift-dit.c   **** {
 628              		.loc 1 77 0
 629              		.cfi_startproc
 630              		@ args = 0, pretend = 0, frame = 8
 631              		@ frame_needed = 0, uses_anonymous_args = 0
 632              	.LVL74:
  78:.\ift-dit.c   **** 	if( !N ) return 0;
 633              		.loc 1 78 0
 634 0000 51B3     		cbz	r1, .L36
  79:.\ift-dit.c   **** 
  80:.\ift-dit.c   **** 	if( N & (N-1) ) return 1;
 635              		.loc 1 80 0
 636 0002 4B1E     		subs	r3, r1, #1
 637 0004 0B42     		tst	r3, r1
 638 0006 29D1     		bne	.L37
  77:.\ift-dit.c   **** 	if( !N ) return 0;
 639              		.loc 1 77 0
ARM GAS  C:\Users\IVYLIU~1\AppData\Local\Temp\ccJYP6uR.s 			page 14


 640 0008 70B5     		push	{r4, r5, r6, lr}
 641              		.cfi_def_cfa_offset 16
 642              		.cfi_offset 4, -16
 643              		.cfi_offset 5, -12
 644              		.cfi_offset 6, -8
 645              		.cfi_offset 14, -4
 646 000a 82B0     		sub	sp, sp, #8
 647              		.cfi_def_cfa_offset 24
 648 000c 0C46     		mov	r4, r1
 649 000e 0546     		mov	r5, r0
  81:.\ift-dit.c   **** 
  82:.\ift-dit.c   **** 	float complex *buffers[2] = { vector, malloc(N*sizeof(float complex)) };
 650              		.loc 1 82 0
 651 0010 0090     		str	r0, [sp]
 652 0012 CE00     		lsls	r6, r1, #3
 653 0014 3046     		mov	r0, r6
 654              	.LVL75:
 655 0016 FFF7FEFF 		bl	malloc
 656              	.LVL76:
 657 001a 0190     		str	r0, [sp, #4]
  83:.\ift-dit.c   **** 
  84:.\ift-dit.c   **** 	if( !buffers[1] ) return -1;
 658              		.loc 1 84 0
 659 001c 00B3     		cbz	r0, .L38
 660              	.LVL77:
  85:.\ift-dit.c   **** 
  86:.\ift-dit.c   **** 	int b = 0;
  87:.\ift-dit.c   **** 
  88:.\ift-dit.c   **** 	b = nop_reverse(b, buffers, N);
 661              		.loc 1 88 0
 662 001e 0020     		movs	r0, #0
 663 0020 6946     		mov	r1, sp
 664 0022 2246     		mov	r2, r4
 665 0024 FFF7FEFF 		bl	nop_reverse
 666              	.LVL78:
  89:.\ift-dit.c   **** 	b = fft_reverse(b, buffers, N);
 667              		.loc 1 89 0
 668 0028 6946     		mov	r1, sp
 669 002a 2246     		mov	r2, r4
 670 002c FFF7FEFF 		bl	fft_reverse
 671              	.LVL79:
  90:.\ift-dit.c   **** 	b = nop_reverse(b, buffers, N);
 672              		.loc 1 90 0
 673 0030 6946     		mov	r1, sp
 674 0032 2246     		mov	r2, r4
 675 0034 FFF7FEFF 		bl	nop_reverse
 676              	.LVL80:
  91:.\ift-dit.c   **** 
  92:.\ift-dit.c   **** 	memmove(vector, buffers[b&1], N*sizeof(float complex));
 677              		.loc 1 92 0
 678 0038 00F00100 		and	r0, r0, #1
 679              	.LVL81:
 680 003c 02AB     		add	r3, sp, #8
 681 003e 03EB8003 		add	r3, r3, r0, lsl #2
 682 0042 2846     		mov	r0, r5
 683 0044 53F8081C 		ldr	r1, [r3, #-8]
 684 0048 3246     		mov	r2, r6
ARM GAS  C:\Users\IVYLIU~1\AppData\Local\Temp\ccJYP6uR.s 			page 15


 685 004a FFF7FEFF 		bl	memmove
 686              	.LVL82:
  93:.\ift-dit.c   **** 
  94:.\ift-dit.c   **** 	free( buffers[1] );
 687              		.loc 1 94 0
 688 004e 0198     		ldr	r0, [sp, #4]
 689 0050 FFF7FEFF 		bl	free
 690              	.LVL83:
  95:.\ift-dit.c   **** 
  96:.\ift-dit.c   **** 	return 0;
 691              		.loc 1 96 0
 692 0054 0020     		movs	r0, #0
 693 0056 05E0     		b	.L35
 694              	.LVL84:
 695              	.L36:
 696              		.cfi_def_cfa_offset 0
 697              		.cfi_restore 4
 698              		.cfi_restore 5
 699              		.cfi_restore 6
 700              		.cfi_restore 14
  78:.\ift-dit.c   **** 
 701              		.loc 1 78 0
 702 0058 0020     		movs	r0, #0
 703              	.LVL85:
  97:.\ift-dit.c   **** }
 704              		.loc 1 97 0
 705 005a 7047     		bx	lr
 706              	.LVL86:
 707              	.L37:
  80:.\ift-dit.c   **** 
 708              		.loc 1 80 0
 709 005c 0120     		movs	r0, #1
 710              	.LVL87:
 711 005e 7047     		bx	lr
 712              	.LVL88:
 713              	.L38:
 714              		.cfi_def_cfa_offset 24
 715              		.cfi_offset 4, -16
 716              		.cfi_offset 5, -12
 717              		.cfi_offset 6, -8
 718              		.cfi_offset 14, -4
  84:.\ift-dit.c   **** 
 719              		.loc 1 84 0
 720 0060 4FF0FF30 		mov	r0, #-1
 721              	.L35:
 722              		.loc 1 97 0
 723 0064 02B0     		add	sp, sp, #8
 724              		.cfi_def_cfa_offset 16
 725              		@ sp needed
 726 0066 70BD     		pop	{r4, r5, r6, pc}
 727              		.cfi_endproc
 728              	.LFE6:
 729              		.size	ift, .-ift
 730              		.text
 731              	.Letext0:
 732              		.file 2 "<built-in>"
 733              		.file 3 "c:\\program files (x86)\\cypress\\psoc creator\\3.3\\psoc creator\\import\\gnu\\arm\\4.9.
ARM GAS  C:\Users\IVYLIU~1\AppData\Local\Temp\ccJYP6uR.s 			page 16


 734              		.file 4 "c:\\program files (x86)\\cypress\\psoc creator\\3.3\\psoc creator\\import\\gnu\\arm\\4.9.
 735              		.file 5 "c:\\program files (x86)\\cypress\\psoc creator\\3.3\\psoc creator\\import\\gnu\\arm\\4.9.
 736              		.file 6 "c:\\program files (x86)\\cypress\\psoc creator\\3.3\\psoc creator\\import\\gnu\\arm\\4.9.