ARM GAS  C:\Users\IVYLIU~1\AppData\Local\Temp\ccAidacZ.s 			page 1


   1              		.syntax unified
   2              		.cpu cortex-m3
   3              		.fpu softvfp
   4              		.eabi_attribute 20, 1
   5              		.eabi_attribute 21, 1
   6              		.eabi_attribute 23, 3
   7              		.eabi_attribute 24, 1
   8              		.eabi_attribute 25, 1
   9              		.eabi_attribute 26, 1
  10              		.eabi_attribute 30, 1
  11              		.eabi_attribute 34, 1
  12              		.eabi_attribute 18, 4
  13              		.thumb
  14              		.file	"ift-dif.c"
  15              		.text
  16              	.Ltext0:
  17              		.cfi_sections	.debug_frame
  18              		.section	.text.ctz,"ax",%progbits
  19              		.align	2
  20              		.thumb
  21              		.thumb_func
  22              		.type	ctz, %function
  23              	ctz:
  24              	.LFB0:
  25              		.file 1 ".\\ift-dif.c"
   1:.\ift-dif.c   **** #include "ift.h"
   2:.\ift-dif.c   **** #include <math.h>
   3:.\ift-dif.c   **** #include <stdlib.h>
   4:.\ift-dif.c   **** #include <string.h>
   5:.\ift-dif.c   **** #include <complex.h>
   6:.\ift-dif.c   **** 
   7:.\ift-dif.c   **** static int ctz(size_t N)
   8:.\ift-dif.c   **** {
  26              		.loc 1 8 0
  27              		.cfi_startproc
  28              		@ args = 0, pretend = 0, frame = 0
  29              		@ frame_needed = 0, uses_anonymous_args = 0
  30              		@ link register save eliminated.
  31              	.LVL0:
   9:.\ift-dif.c   **** 	int ctz1 = 0;
  32              		.loc 1 9 0
  33 0000 0023     		movs	r3, #0
  10:.\ift-dif.c   **** 
  11:.\ift-dif.c   **** 	while( N ) {
  34              		.loc 1 11 0
  35 0002 01E0     		b	.L2
  36              	.LVL1:
  37              	.L3:
  12:.\ift-dif.c   **** 		ctz1++;
  38              		.loc 1 12 0
  39 0004 0133     		adds	r3, r3, #1
  40              	.LVL2:
  13:.\ift-dif.c   **** 		N >>= 1;
  41              		.loc 1 13 0
  42 0006 4008     		lsrs	r0, r0, #1
  43              	.LVL3:
  44              	.L2:
ARM GAS  C:\Users\IVYLIU~1\AppData\Local\Temp\ccAidacZ.s 			page 2


  11:.\ift-dif.c   **** 		ctz1++;
  45              		.loc 1 11 0
  46 0008 0028     		cmp	r0, #0
  47 000a FBD1     		bne	.L3
  14:.\ift-dif.c   **** 	}
  15:.\ift-dif.c   **** 
  16:.\ift-dif.c   **** 	return ctz1-1;
  17:.\ift-dif.c   **** }
  48              		.loc 1 17 0
  49 000c 581E     		subs	r0, r3, #1
  50              	.LVL4:
  51 000e 7047     		bx	lr
  52              		.cfi_endproc
  53              	.LFE0:
  54              		.size	ctz, .-ctz
  55              		.section	.text.nop_split,"ax",%progbits
  56              		.align	2
  57              		.thumb
  58              		.thumb_func
  59              		.type	nop_split, %function
  60              	nop_split:
  61              	.LFB1:
  18:.\ift-dif.c   **** 
  19:.\ift-dif.c   **** static void nop_split(const float complex *x, float complex *X, size_t N)
  20:.\ift-dif.c   **** {
  62              		.loc 1 20 0
  63              		.cfi_startproc
  64              		@ args = 0, pretend = 0, frame = 0
  65              		@ frame_needed = 0, uses_anonymous_args = 0
  66              	.LVL5:
  67 0000 F0B5     		push	{r4, r5, r6, r7, lr}
  68              		.cfi_def_cfa_offset 20
  69              		.cfi_offset 4, -20
  70              		.cfi_offset 5, -16
  71              		.cfi_offset 6, -12
  72              		.cfi_offset 7, -8
  73              		.cfi_offset 14, -4
  74              	.LVL6:
  75              	.LBB2:
  21:.\ift-dif.c   **** 	for(size_t n = 0; n < N/2; n++) {
  76              		.loc 1 21 0
  77 0002 0024     		movs	r4, #0
  78 0004 14E0     		b	.L5
  79              	.LVL7:
  80              	.L6:
  22:.\ift-dif.c   **** 		X[2*n+0] = x[0/2+n];
  81              		.loc 1 22 0 discriminator 3
  82 0006 2501     		lsls	r5, r4, #4
  83 0008 4E19     		adds	r6, r1, r5
  84 000a 50F834E0 		ldr	lr, [r0, r4, lsl #3]	@ float
  85 000e 00EBC407 		add	r7, r0, r4, lsl #3
  86 0012 7F68     		ldr	r7, [r7, #4]	@ float
  87 0014 41F805E0 		str	lr, [r1, r5]	@ float
  88 0018 7760     		str	r7, [r6, #4]	@ float
  23:.\ift-dif.c   **** 		X[2*n+1] = x[N/2+n];
  89              		.loc 1 23 0 discriminator 3
  90 001a 0835     		adds	r5, r5, #8
ARM GAS  C:\Users\IVYLIU~1\AppData\Local\Temp\ccAidacZ.s 			page 3


  91 001c 4E19     		adds	r6, r1, r5
  92 001e 2344     		add	r3, r3, r4
  93 0020 50F83370 		ldr	r7, [r0, r3, lsl #3]	@ float
  94 0024 00EBC303 		add	r3, r0, r3, lsl #3
  95 0028 5B68     		ldr	r3, [r3, #4]	@ float
  96 002a 4F51     		str	r7, [r1, r5]	@ float
  97 002c 7360     		str	r3, [r6, #4]	@ float
  21:.\ift-dif.c   **** 	for(size_t n = 0; n < N/2; n++) {
  98              		.loc 1 21 0 discriminator 3
  99 002e 0134     		adds	r4, r4, #1
 100              	.LVL8:
 101              	.L5:
  21:.\ift-dif.c   **** 	for(size_t n = 0; n < N/2; n++) {
 102              		.loc 1 21 0 is_stmt 0 discriminator 1
 103 0030 5308     		lsrs	r3, r2, #1
 104 0032 A342     		cmp	r3, r4
 105 0034 E7D8     		bhi	.L6
 106              	.LBE2:
  24:.\ift-dif.c   **** 	}
  25:.\ift-dif.c   **** }
 107              		.loc 1 25 0 is_stmt 1
 108 0036 F0BD     		pop	{r4, r5, r6, r7, pc}
 109              		.cfi_endproc
 110              	.LFE1:
 111              		.size	nop_split, .-nop_split
 112              		.section	.text.revbits,"ax",%progbits
 113              		.align	2
 114              		.thumb
 115              		.thumb_func
 116              		.type	revbits, %function
 117              	revbits:
 118              	.LFB3:
  26:.\ift-dif.c   **** 
  27:.\ift-dif.c   **** static void fft_split(const float complex *x, float complex *X, size_t N, float complex phi)
  28:.\ift-dif.c   **** {
  29:.\ift-dif.c   **** 	for(size_t n = 0; n < N/2; n++) {
  30:.\ift-dif.c   **** 		X[2*n+0] = (x[0/2+n] + x[N/2+n])/2;
  31:.\ift-dif.c   **** 		X[2*n+1] = (x[0/2+n] - x[N/2+n])/2 * cexp(+2*(float)M_PI*I*phi);
  32:.\ift-dif.c   **** 	}
  33:.\ift-dif.c   **** }
  34:.\ift-dif.c   **** 
  35:.\ift-dif.c   **** static size_t revbits(size_t v, int J)
  36:.\ift-dif.c   **** {
 119              		.loc 1 36 0
 120              		.cfi_startproc
 121              		@ args = 0, pretend = 0, frame = 0
 122              		@ frame_needed = 0, uses_anonymous_args = 0
 123              		@ link register save eliminated.
 124              	.LVL9:
 125 0000 30B4     		push	{r4, r5}
 126              		.cfi_def_cfa_offset 8
 127              		.cfi_offset 4, -8
 128              		.cfi_offset 5, -4
 129 0002 0546     		mov	r5, r0
 130              	.LVL10:
 131              	.LBB3:
  37:.\ift-dif.c   **** 	size_t r = 0;
ARM GAS  C:\Users\IVYLIU~1\AppData\Local\Temp\ccAidacZ.s 			page 4


  38:.\ift-dif.c   **** 
  39:.\ift-dif.c   **** 	for(int j = 0; j < J; j++) {
 132              		.loc 1 39 0
 133 0004 0022     		movs	r2, #0
 134              	.LBE3:
  37:.\ift-dif.c   **** 	size_t r = 0;
 135              		.loc 1 37 0
 136 0006 1046     		mov	r0, r2
 137              	.LVL11:
 138              	.LBB4:
 139              		.loc 1 39 0
 140 0008 08E0     		b	.L9
 141              	.LVL12:
 142              	.L10:
  40:.\ift-dif.c   **** 		r |= ( (v>>j)&1 ) << (J-1-j);
 143              		.loc 1 40 0 discriminator 3
 144 000a 25FA02F3 		lsr	r3, r5, r2
 145 000e 03F00103 		and	r3, r3, #1
 146 0012 4C1E     		subs	r4, r1, #1
 147 0014 A41A     		subs	r4, r4, r2
 148 0016 A340     		lsls	r3, r3, r4
 149 0018 1843     		orrs	r0, r0, r3
 150              	.LVL13:
  39:.\ift-dif.c   **** 		r |= ( (v>>j)&1 ) << (J-1-j);
 151              		.loc 1 39 0 discriminator 3
 152 001a 0132     		adds	r2, r2, #1
 153              	.LVL14:
 154              	.L9:
  39:.\ift-dif.c   **** 		r |= ( (v>>j)&1 ) << (J-1-j);
 155              		.loc 1 39 0 is_stmt 0 discriminator 1
 156 001c 8A42     		cmp	r2, r1
 157 001e F4DB     		blt	.L10
 158              	.LBE4:
  41:.\ift-dif.c   **** 	}
  42:.\ift-dif.c   **** 
  43:.\ift-dif.c   **** 	return r;
  44:.\ift-dif.c   **** }
 159              		.loc 1 44 0 is_stmt 1
 160 0020 30BC     		pop	{r4, r5}
 161              		.cfi_restore 5
 162              		.cfi_restore 4
 163              		.cfi_def_cfa_offset 0
 164              	.LVL15:
 165 0022 7047     		bx	lr
 166              		.cfi_endproc
 167              	.LFE3:
 168              		.size	revbits, .-revbits
 169              		.section	.text.nop_reverse,"ax",%progbits
 170              		.align	2
 171              		.thumb
 172              		.thumb_func
 173              		.type	nop_reverse, %function
 174              	nop_reverse:
 175              	.LFB4:
  45:.\ift-dif.c   **** 
  46:.\ift-dif.c   **** static int nop_reverse(int b, float complex *buffers[2], size_t N)
  47:.\ift-dif.c   **** {
ARM GAS  C:\Users\IVYLIU~1\AppData\Local\Temp\ccAidacZ.s 			page 5


 176              		.loc 1 47 0
 177              		.cfi_startproc
 178              		@ args = 0, pretend = 0, frame = 0
 179              		@ frame_needed = 0, uses_anonymous_args = 0
 180              	.LVL16:
 181 0000 2DE9F843 		push	{r3, r4, r5, r6, r7, r8, r9, lr}
 182              		.cfi_def_cfa_offset 32
 183              		.cfi_offset 3, -32
 184              		.cfi_offset 4, -28
 185              		.cfi_offset 5, -24
 186              		.cfi_offset 6, -20
 187              		.cfi_offset 7, -16
 188              		.cfi_offset 8, -12
 189              		.cfi_offset 9, -8
 190              		.cfi_offset 14, -4
 191 0004 0746     		mov	r7, r0
 192 0006 0E46     		mov	r6, r1
 193 0008 9046     		mov	r8, r2
  48:.\ift-dif.c   **** 	int J = ctz(N);
 194              		.loc 1 48 0
 195 000a 1046     		mov	r0, r2
 196              	.LVL17:
 197 000c FFF7FEFF 		bl	ctz
 198              	.LVL18:
 199              	.LBB5:
  49:.\ift-dif.c   **** 
  50:.\ift-dif.c   **** 	for(int j = J-2; j >= 0; j--, b++) {
 200              		.loc 1 50 0
 201 0010 A0F10209 		sub	r9, r0, #2
 202              	.LVL19:
 203 0014 18E0     		b	.L13
 204              	.LVL20:
 205              	.L17:
 206              	.LBB6:
  51:.\ift-dif.c   **** 		size_t delta = N>>j;
 207              		.loc 1 51 0
 208 0016 28FA09F5 		lsr	r5, r8, r9
 209              	.LVL21:
 210              	.LBB7:
  52:.\ift-dif.c   **** 
  53:.\ift-dif.c   **** 		for(size_t n = 0; n < N; n += delta) {
 211              		.loc 1 53 0
 212 001a 0024     		movs	r4, #0
 213 001c 0FE0     		b	.L14
 214              	.LVL22:
 215              	.L16:
  54:.\ift-dif.c   **** 			nop_split(buffers[b&1]+n, buffers[~b&1]+n, delta);
 216              		.loc 1 54 0
 217 001e 07F00102 		and	r2, r7, #1
 218 0022 56F82200 		ldr	r0, [r6, r2, lsl #2]
 219 0026 E300     		lsls	r3, r4, #3
 220 0028 1844     		add	r0, r0, r3
 221 002a 0AB9     		cbnz	r2, .L18
 222 002c 0422     		movs	r2, #4
 223 002e 00E0     		b	.L15
 224              	.L18:
 225 0030 0022     		movs	r2, #0
ARM GAS  C:\Users\IVYLIU~1\AppData\Local\Temp\ccAidacZ.s 			page 6


 226              	.L15:
 227              		.loc 1 54 0 is_stmt 0 discriminator 4
 228 0032 B158     		ldr	r1, [r6, r2]
 229 0034 1944     		add	r1, r1, r3
 230 0036 2A46     		mov	r2, r5
 231 0038 FFF7FEFF 		bl	nop_split
 232              	.LVL23:
  53:.\ift-dif.c   **** 			nop_split(buffers[b&1]+n, buffers[~b&1]+n, delta);
 233              		.loc 1 53 0 is_stmt 1 discriminator 4
 234 003c 2C44     		add	r4, r4, r5
 235              	.LVL24:
 236              	.L14:
  53:.\ift-dif.c   **** 			nop_split(buffers[b&1]+n, buffers[~b&1]+n, delta);
 237              		.loc 1 53 0 is_stmt 0 discriminator 2
 238 003e 4445     		cmp	r4, r8
 239 0040 EDD3     		bcc	.L16
 240              	.LBE7:
 241              	.LBE6:
  50:.\ift-dif.c   **** 		size_t delta = N>>j;
 242              		.loc 1 50 0 is_stmt 1 discriminator 2
 243 0042 09F1FF39 		add	r9, r9, #-1
 244              	.LVL25:
 245 0046 0137     		adds	r7, r7, #1
 246              	.LVL26:
 247              	.L13:
  50:.\ift-dif.c   **** 		size_t delta = N>>j;
 248              		.loc 1 50 0 is_stmt 0 discriminator 1
 249 0048 B9F1000F 		cmp	r9, #0
 250 004c E3DA     		bge	.L17
 251              	.LBE5:
  55:.\ift-dif.c   **** 		}
  56:.\ift-dif.c   **** 	}
  57:.\ift-dif.c   **** 
  58:.\ift-dif.c   **** 	return b;
  59:.\ift-dif.c   **** }
 252              		.loc 1 59 0 is_stmt 1
 253 004e 3846     		mov	r0, r7
 254 0050 BDE8F883 		pop	{r3, r4, r5, r6, r7, r8, r9, pc}
 255              		.cfi_endproc
 256              	.LFE4:
 257              		.size	nop_reverse, .-nop_reverse
 258              		.global	__aeabi_fadd
 259              		.global	__aeabi_fmul
 260              		.global	__aeabi_fsub
 261              		.global	__aeabi_f2d
 262              		.global	__aeabi_d2f
 263              		.section	.text.fft_split,"ax",%progbits
 264              		.align	2
 265              		.thumb
 266              		.thumb_func
 267              		.type	fft_split, %function
 268              	fft_split:
 269              	.LFB2:
  28:.\ift-dif.c   **** 	for(size_t n = 0; n < N/2; n++) {
 270              		.loc 1 28 0
 271              		.cfi_startproc
 272              		@ args = 12, pretend = 8, frame = 56
ARM GAS  C:\Users\IVYLIU~1\AppData\Local\Temp\ccAidacZ.s 			page 7


 273              		@ frame_needed = 0, uses_anonymous_args = 0
 274              	.LVL27:
 275 0000 82B0     		sub	sp, sp, #8
 276              		.cfi_def_cfa_offset 8
 277 0002 2DE9F04F 		push	{r4, r5, r6, r7, r8, r9, r10, fp, lr}
 278              		.cfi_def_cfa_offset 44
 279              		.cfi_offset 4, -44
 280              		.cfi_offset 5, -40
 281              		.cfi_offset 6, -36
 282              		.cfi_offset 7, -32
 283              		.cfi_offset 8, -28
 284              		.cfi_offset 9, -24
 285              		.cfi_offset 10, -20
 286              		.cfi_offset 11, -16
 287              		.cfi_offset 14, -12
 288 0006 95B0     		sub	sp, sp, #84
 289              		.cfi_def_cfa_offset 128
 290 0008 8146     		mov	r9, r0
 291 000a 8B46     		mov	fp, r1
 292 000c 0B92     		str	r2, [sp, #44]
 293 000e 1F93     		str	r3, [sp, #124]
 294 0010 1F9B     		ldr	r3, [sp, #124]	@ float
 295 0012 0C93     		str	r3, [sp, #48]	@ float
 296 0014 209B     		ldr	r3, [sp, #128]	@ float
 297 0016 0D93     		str	r3, [sp, #52]	@ float
 298              	.LVL28:
 299              	.LBB8:
  29:.\ift-dif.c   **** 		X[2*n+0] = (x[0/2+n] + x[N/2+n])/2;
 300              		.loc 1 29 0
 301 0018 4FF0000A 		mov	r10, #0
 302 001c 7FE0     		b	.L21
 303              	.LVL29:
 304              	.L22:
  30:.\ift-dif.c   **** 		X[2*n+1] = (x[0/2+n] - x[N/2+n])/2 * cexp(+2*(float)M_PI*I*phi);
 305              		.loc 1 30 0 discriminator 3
 306 001e 4FEA0A15 		lsl	r5, r10, #4
 307 0022 0BEB0508 		add	r8, fp, r5
 308 0026 09EBCA07 		add	r7, r9, r10, lsl #3
 309 002a 5444     		add	r4, r4, r10
 310 002c 09EBC406 		add	r6, r9, r4, lsl #3
 311 0030 59F83A00 		ldr	r0, [r9, r10, lsl #3]	@ float
 312 0034 59F83410 		ldr	r1, [r9, r4, lsl #3]	@ float
 313 0038 FFF7FEFF 		bl	__aeabi_fadd
 314              	.LVL30:
 315 003c 4FF07C51 		mov	r1, #1056964608
 316 0040 FFF7FEFF 		bl	__aeabi_fmul
 317              	.LVL31:
 318 0044 0690     		str	r0, [sp, #24]	@ float
 319 0046 7868     		ldr	r0, [r7, #4]	@ float
 320 0048 7168     		ldr	r1, [r6, #4]	@ float
 321 004a FFF7FEFF 		bl	__aeabi_fadd
 322              	.LVL32:
 323 004e 4FF07C51 		mov	r1, #1056964608
 324 0052 FFF7FEFF 		bl	__aeabi_fmul
 325              	.LVL33:
 326 0056 069B     		ldr	r3, [sp, #24]	@ float
 327 0058 4BF80530 		str	r3, [fp, r5]	@ float
ARM GAS  C:\Users\IVYLIU~1\AppData\Local\Temp\ccAidacZ.s 			page 8


 328 005c C8F80400 		str	r0, [r8, #4]	@ float
  31:.\ift-dif.c   **** 	}
 329              		.loc 1 31 0 discriminator 3
 330 0060 05F10808 		add	r8, r5, #8
 331 0064 0BEB0805 		add	r5, fp, r8
 332 0068 59F83A00 		ldr	r0, [r9, r10, lsl #3]	@ float
 333 006c 59F83410 		ldr	r1, [r9, r4, lsl #3]	@ float
 334 0070 FFF7FEFF 		bl	__aeabi_fsub
 335              	.LVL34:
 336 0074 0890     		str	r0, [sp, #32]	@ float
 337 0076 7868     		ldr	r0, [r7, #4]	@ float
 338 0078 7168     		ldr	r1, [r6, #4]	@ float
 339 007a FFF7FEFF 		bl	__aeabi_fsub
 340              	.LVL35:
 341 007e 0A90     		str	r0, [sp, #40]	@ float
 342 0080 2C4B     		ldr	r3, .L24
 343 0082 0093     		str	r3, [sp]	@ float
 344 0084 12A8     		add	r0, sp, #72
 345 0086 0C99     		ldr	r1, [sp, #48]	@ float
 346 0088 0D9A     		ldr	r2, [sp, #52]	@ float
 347 008a 0023     		movs	r3, #0
 348 008c FFF7FEFF 		bl	__mulsc3
 349              	.LVL36:
 350 0090 139F     		ldr	r7, [sp, #76]	@ float
 351 0092 1298     		ldr	r0, [sp, #72]	@ float
 352 0094 FFF7FEFF 		bl	__aeabi_f2d
 353              	.LVL37:
 354 0098 0646     		mov	r6, r0
 355 009a 0C46     		mov	r4, r1
 356 009c 3846     		mov	r0, r7
 357 009e FFF7FEFF 		bl	__aeabi_f2d
 358              	.LVL38:
 359 00a2 3246     		mov	r2, r6
 360 00a4 2346     		mov	r3, r4
 361 00a6 0191     		str	r1, [sp, #4]
 362 00a8 0090     		str	r0, [sp]
 363 00aa 0EA9     		add	r1, sp, #56
 364 00ac 0846     		mov	r0, r1
 365 00ae FFF7FEFF 		bl	cexp
 366              	.LVL39:
 367 00b2 DDE90E67 		ldrd	r6, [sp, #56]
 368 00b6 DDE91023 		ldrd	r2, [sp, #64]
 369 00ba CDE90623 		strd	r2, [sp, #24]
 370 00be 0898     		ldr	r0, [sp, #32]	@ float
 371 00c0 4FF07C51 		mov	r1, #1056964608
 372 00c4 FFF7FEFF 		bl	__aeabi_fmul
 373              	.LVL40:
 374 00c8 FFF7FEFF 		bl	__aeabi_f2d
 375              	.LVL41:
 376 00cc CDE90801 		strd	r0, [sp, #32]
 377 00d0 0A98     		ldr	r0, [sp, #40]	@ float
 378 00d2 4FF07C51 		mov	r1, #1056964608
 379 00d6 FFF7FEFF 		bl	__aeabi_fmul
 380              	.LVL42:
 381 00da FFF7FEFF 		bl	__aeabi_f2d
 382              	.LVL43:
 383 00de CDE90001 		strd	r0, [sp]
ARM GAS  C:\Users\IVYLIU~1\AppData\Local\Temp\ccAidacZ.s 			page 9


 384 00e2 CDE90267 		strd	r6, [sp, #8]
 385 00e6 DDE90667 		ldrd	r6, [sp, #24]
 386 00ea CDE90467 		strd	r6, [sp, #16]
 387 00ee 0EAB     		add	r3, sp, #56
 388 00f0 1846     		mov	r0, r3
 389 00f2 DDE90823 		ldrd	r2, [sp, #32]
 390 00f6 FFF7FEFF 		bl	__muldc3
 391              	.LVL44:
 392 00fa DDE91023 		ldrd	r2, [sp, #64]
 393 00fe CDE90623 		strd	r2, [sp, #24]
 394 0102 DDE90E01 		ldrd	r0, [sp, #56]
 395 0106 FFF7FEFF 		bl	__aeabi_d2f
 396              	.LVL45:
 397 010a 0646     		mov	r6, r0
 398 010c DDE90601 		ldrd	r0, [sp, #24]
 399 0110 FFF7FEFF 		bl	__aeabi_d2f
 400              	.LVL46:
 401 0114 4BF80860 		str	r6, [fp, r8]	@ float
 402 0118 6860     		str	r0, [r5, #4]	@ float
  29:.\ift-dif.c   **** 		X[2*n+0] = (x[0/2+n] + x[N/2+n])/2;
 403              		.loc 1 29 0 discriminator 3
 404 011a 0AF1010A 		add	r10, r10, #1
 405              	.LVL47:
 406              	.L21:
  29:.\ift-dif.c   **** 		X[2*n+0] = (x[0/2+n] + x[N/2+n])/2;
 407              		.loc 1 29 0 is_stmt 0 discriminator 1
 408 011e 0B9B     		ldr	r3, [sp, #44]
 409 0120 5C08     		lsrs	r4, r3, #1
 410 0122 5445     		cmp	r4, r10
 411 0124 3FF67BAF 		bhi	.L22
 412              	.LBE8:
  33:.\ift-dif.c   **** 
 413              		.loc 1 33 0 is_stmt 1
 414 0128 15B0     		add	sp, sp, #84
 415              		.cfi_def_cfa_offset 44
 416              		@ sp needed
 417 012a BDE8F04F 		pop	{r4, r5, r6, r7, r8, r9, r10, fp, lr}
 418              		.cfi_restore 14
 419              		.cfi_restore 11
 420              		.cfi_restore 10
 421              		.cfi_restore 9
 422              		.cfi_restore 8
 423              		.cfi_restore 7
 424              		.cfi_restore 6
 425              		.cfi_restore 5
 426              		.cfi_restore 4
 427              		.cfi_def_cfa_offset 8
 428              	.LVL48:
 429 012e 02B0     		add	sp, sp, #8
 430              		.cfi_def_cfa_offset 0
 431 0130 7047     		bx	lr
 432              	.L25:
 433 0132 00BF     		.align	2
 434              	.L24:
 435 0134 DB0FC940 		.word	1086918619
 436              		.cfi_endproc
 437              	.LFE2:
ARM GAS  C:\Users\IVYLIU~1\AppData\Local\Temp\ccAidacZ.s 			page 10


 438              		.size	fft_split, .-fft_split
 439              		.global	__aeabi_ui2f
 440              		.global	__aeabi_i2f
 441              		.global	__aeabi_fdiv
 442              		.section	.text.fft_reverse,"ax",%progbits
 443              		.align	2
 444              		.thumb
 445              		.thumb_func
 446              		.type	fft_reverse, %function
 447              	fft_reverse:
 448              	.LFB5:
  60:.\ift-dif.c   **** 
  61:.\ift-dif.c   **** static int fft_reverse(int b, float complex *buffers[2], size_t N)
  62:.\ift-dif.c   **** {
 449              		.loc 1 62 0
 450              		.cfi_startproc
 451              		@ args = 0, pretend = 0, frame = 0
 452              		@ frame_needed = 0, uses_anonymous_args = 0
 453              	.LVL49:
 454 0000 2DE9F047 		push	{r4, r5, r6, r7, r8, r9, r10, lr}
 455              		.cfi_def_cfa_offset 32
 456              		.cfi_offset 4, -32
 457              		.cfi_offset 5, -28
 458              		.cfi_offset 6, -24
 459              		.cfi_offset 7, -20
 460              		.cfi_offset 8, -16
 461              		.cfi_offset 9, -12
 462              		.cfi_offset 10, -8
 463              		.cfi_offset 14, -4
 464 0004 82B0     		sub	sp, sp, #8
 465              		.cfi_def_cfa_offset 40
 466 0006 8046     		mov	r8, r0
 467 0008 0F46     		mov	r7, r1
 468 000a 9146     		mov	r9, r2
  63:.\ift-dif.c   **** 	int J = ctz(N);
 469              		.loc 1 63 0
 470 000c 1046     		mov	r0, r2
 471              	.LVL50:
 472 000e FFF7FEFF 		bl	ctz
 473              	.LVL51:
 474              	.LBB9:
  64:.\ift-dif.c   **** 
  65:.\ift-dif.c   **** 	for(int j = J-1; j >= 0; j--, b++) {
 475              		.loc 1 65 0
 476 0012 461E     		subs	r6, r0, #1
 477              	.LVL52:
 478 0014 2DE0     		b	.L27
 479              	.LVL53:
 480              	.L31:
 481              	.LBB10:
  66:.\ift-dif.c   **** 		size_t delta = N>>j;
 482              		.loc 1 66 0
 483 0016 29FA06F5 		lsr	r5, r9, r6
 484              	.LVL54:
 485              	.LBB11:
  67:.\ift-dif.c   **** 
  68:.\ift-dif.c   **** 		for(size_t n = 0; n < N; n += delta) {
ARM GAS  C:\Users\IVYLIU~1\AppData\Local\Temp\ccAidacZ.s 			page 11


 486              		.loc 1 68 0
 487 001a 0024     		movs	r4, #0
 488 001c 24E0     		b	.L28
 489              	.LVL55:
 490              	.L30:
 491              	.LBB12:
  69:.\ift-dif.c   **** 			float complex phi = (float)revbits( n/delta, j) / (float)(2<<j);
 492              		.loc 1 69 0
 493 001e B4FBF5F0 		udiv	r0, r4, r5
 494 0022 3146     		mov	r1, r6
 495 0024 FFF7FEFF 		bl	revbits
 496              	.LVL56:
 497 0028 FFF7FEFF 		bl	__aeabi_ui2f
 498              	.LVL57:
 499 002c 8246     		mov	r10, r0
 500 002e 0220     		movs	r0, #2
 501 0030 B040     		lsls	r0, r0, r6
 502 0032 FFF7FEFF 		bl	__aeabi_i2f
 503              	.LVL58:
 504 0036 0146     		mov	r1, r0
 505 0038 5046     		mov	r0, r10
 506 003a FFF7FEFF 		bl	__aeabi_fdiv
 507              	.LVL59:
  70:.\ift-dif.c   **** 			fft_split(buffers[b&1]+n, buffers[~b&1]+n, delta, phi);
 508              		.loc 1 70 0
 509 003e 08F00103 		and	r3, r8, #1
 510 0042 57F82320 		ldr	r2, [r7, r3, lsl #2]
 511 0046 E100     		lsls	r1, r4, #3
 512 0048 0A44     		add	r2, r2, r1
 513 004a 0BB9     		cbnz	r3, .L32
 514 004c 0423     		movs	r3, #4
 515 004e 00E0     		b	.L29
 516              	.L32:
 517 0050 0023     		movs	r3, #0
 518              	.L29:
 519              		.loc 1 70 0 is_stmt 0 discriminator 4
 520 0052 57F803E0 		ldr	lr, [r7, r3]
 521 0056 0023     		movs	r3, #0
 522 0058 0093     		str	r3, [sp]
 523 005a 0346     		mov	r3, r0
 524 005c 1046     		mov	r0, r2
 525              	.LVL60:
 526 005e 7144     		add	r1, r1, lr
 527 0060 2A46     		mov	r2, r5
 528 0062 FFF7FEFF 		bl	fft_split
 529              	.LVL61:
 530              	.LBE12:
  68:.\ift-dif.c   **** 			float complex phi = (float)revbits( n/delta, j) / (float)(2<<j);
 531              		.loc 1 68 0 is_stmt 1 discriminator 4
 532 0066 2C44     		add	r4, r4, r5
 533              	.LVL62:
 534              	.L28:
  68:.\ift-dif.c   **** 			float complex phi = (float)revbits( n/delta, j) / (float)(2<<j);
 535              		.loc 1 68 0 is_stmt 0 discriminator 2
 536 0068 4C45     		cmp	r4, r9
 537 006a D8D3     		bcc	.L30
 538              	.LBE11:
ARM GAS  C:\Users\IVYLIU~1\AppData\Local\Temp\ccAidacZ.s 			page 12


 539              	.LBE10:
  65:.\ift-dif.c   **** 		size_t delta = N>>j;
 540              		.loc 1 65 0 is_stmt 1 discriminator 2
 541 006c 013E     		subs	r6, r6, #1
 542              	.LVL63:
 543 006e 08F10108 		add	r8, r8, #1
 544              	.LVL64:
 545              	.L27:
  65:.\ift-dif.c   **** 		size_t delta = N>>j;
 546              		.loc 1 65 0 is_stmt 0 discriminator 1
 547 0072 002E     		cmp	r6, #0
 548 0074 CFDA     		bge	.L31
 549              	.LBE9:
  71:.\ift-dif.c   **** 		}
  72:.\ift-dif.c   **** 	}
  73:.\ift-dif.c   **** 
  74:.\ift-dif.c   **** 	return b;
  75:.\ift-dif.c   **** }
 550              		.loc 1 75 0 is_stmt 1
 551 0076 4046     		mov	r0, r8
 552 0078 02B0     		add	sp, sp, #8
 553              		.cfi_def_cfa_offset 32
 554              		@ sp needed
 555 007a BDE8F087 		pop	{r4, r5, r6, r7, r8, r9, r10, pc}
 556              		.cfi_endproc
 557              	.LFE5:
 558              		.size	fft_reverse, .-fft_reverse
 559 007e 00BF     		.section	.text.ift,"ax",%progbits
 560              		.align	2
 561              		.global	ift
 562              		.thumb
 563              		.thumb_func
 564              		.type	ift, %function
 565              	ift:
 566              	.LFB6:
  76:.\ift-dif.c   **** 
  77:.\ift-dif.c   **** int ift(float complex *vector, size_t N)
  78:.\ift-dif.c   **** {
 567              		.loc 1 78 0
 568              		.cfi_startproc
 569              		@ args = 0, pretend = 0, frame = 8
 570              		@ frame_needed = 0, uses_anonymous_args = 0
 571              	.LVL65:
  79:.\ift-dif.c   **** 	if( !N ) return 0;
 572              		.loc 1 79 0
 573 0000 51B3     		cbz	r1, .L36
  80:.\ift-dif.c   **** 
  81:.\ift-dif.c   **** 	if( N & (N-1) ) return 1;
 574              		.loc 1 81 0
 575 0002 4B1E     		subs	r3, r1, #1
 576 0004 0B42     		tst	r3, r1
 577 0006 29D1     		bne	.L37
  78:.\ift-dif.c   **** 	if( !N ) return 0;
 578              		.loc 1 78 0
 579 0008 70B5     		push	{r4, r5, r6, lr}
 580              		.cfi_def_cfa_offset 16
 581              		.cfi_offset 4, -16
ARM GAS  C:\Users\IVYLIU~1\AppData\Local\Temp\ccAidacZ.s 			page 13


 582              		.cfi_offset 5, -12
 583              		.cfi_offset 6, -8
 584              		.cfi_offset 14, -4
 585 000a 82B0     		sub	sp, sp, #8
 586              		.cfi_def_cfa_offset 24
 587 000c 0C46     		mov	r4, r1
 588 000e 0546     		mov	r5, r0
  82:.\ift-dif.c   **** 
  83:.\ift-dif.c   **** 	float complex *buffers[2] = { vector, malloc(N*sizeof(float complex)) };
 589              		.loc 1 83 0
 590 0010 0090     		str	r0, [sp]
 591 0012 CE00     		lsls	r6, r1, #3
 592 0014 3046     		mov	r0, r6
 593              	.LVL66:
 594 0016 FFF7FEFF 		bl	malloc
 595              	.LVL67:
 596 001a 0190     		str	r0, [sp, #4]
  84:.\ift-dif.c   **** 
  85:.\ift-dif.c   **** 	if( !buffers[1] ) return -1;
 597              		.loc 1 85 0
 598 001c 00B3     		cbz	r0, .L38
 599              	.LVL68:
  86:.\ift-dif.c   **** 
  87:.\ift-dif.c   **** 	int b = 0;
  88:.\ift-dif.c   **** 
  89:.\ift-dif.c   **** 	b = nop_reverse(b, buffers, N);
 600              		.loc 1 89 0
 601 001e 0020     		movs	r0, #0
 602 0020 6946     		mov	r1, sp
 603 0022 2246     		mov	r2, r4
 604 0024 FFF7FEFF 		bl	nop_reverse
 605              	.LVL69:
  90:.\ift-dif.c   **** 	b = fft_reverse(b, buffers, N);
 606              		.loc 1 90 0
 607 0028 6946     		mov	r1, sp
 608 002a 2246     		mov	r2, r4
 609 002c FFF7FEFF 		bl	fft_reverse
 610              	.LVL70:
  91:.\ift-dif.c   **** 	b = nop_reverse(b, buffers, N);
 611              		.loc 1 91 0
 612 0030 6946     		mov	r1, sp
 613 0032 2246     		mov	r2, r4
 614 0034 FFF7FEFF 		bl	nop_reverse
 615              	.LVL71:
  92:.\ift-dif.c   **** 
  93:.\ift-dif.c   **** 	memmove(vector, buffers[b&1], N*sizeof(float complex));
 616              		.loc 1 93 0
 617 0038 00F00100 		and	r0, r0, #1
 618              	.LVL72:
 619 003c 02AB     		add	r3, sp, #8
 620 003e 03EB8003 		add	r3, r3, r0, lsl #2
 621 0042 2846     		mov	r0, r5
 622 0044 53F8081C 		ldr	r1, [r3, #-8]
 623 0048 3246     		mov	r2, r6
 624 004a FFF7FEFF 		bl	memmove
 625              	.LVL73:
  94:.\ift-dif.c   **** 
ARM GAS  C:\Users\IVYLIU~1\AppData\Local\Temp\ccAidacZ.s 			page 14


  95:.\ift-dif.c   **** 	free( buffers[1] );
 626              		.loc 1 95 0
 627 004e 0198     		ldr	r0, [sp, #4]
 628 0050 FFF7FEFF 		bl	free
 629              	.LVL74:
  96:.\ift-dif.c   **** 
  97:.\ift-dif.c   **** 	return 0;
 630              		.loc 1 97 0
 631 0054 0020     		movs	r0, #0
 632 0056 05E0     		b	.L35
 633              	.LVL75:
 634              	.L36:
 635              		.cfi_def_cfa_offset 0
 636              		.cfi_restore 4
 637              		.cfi_restore 5
 638              		.cfi_restore 6
 639              		.cfi_restore 14
  79:.\ift-dif.c   **** 
 640              		.loc 1 79 0
 641 0058 0020     		movs	r0, #0
 642              	.LVL76:
  98:.\ift-dif.c   **** }
 643              		.loc 1 98 0
 644 005a 7047     		bx	lr
 645              	.LVL77:
 646              	.L37:
  81:.\ift-dif.c   **** 
 647              		.loc 1 81 0
 648 005c 0120     		movs	r0, #1
 649              	.LVL78:
 650 005e 7047     		bx	lr
 651              	.LVL79:
 652              	.L38:
 653              		.cfi_def_cfa_offset 24
 654              		.cfi_offset 4, -16
 655              		.cfi_offset 5, -12
 656              		.cfi_offset 6, -8
 657              		.cfi_offset 14, -4
  85:.\ift-dif.c   **** 
 658              		.loc 1 85 0
 659 0060 4FF0FF30 		mov	r0, #-1
 660              	.L35:
 661              		.loc 1 98 0
 662 0064 02B0     		add	sp, sp, #8
 663              		.cfi_def_cfa_offset 16
 664              		@ sp needed
 665 0066 70BD     		pop	{r4, r5, r6, pc}
 666              		.cfi_endproc
 667              	.LFE6:
 668              		.size	ift, .-ift
 669              		.text
 670              	.Letext0:
 671              		.file 2 "<built-in>"
 672              		.file 3 "c:\\program files (x86)\\cypress\\psoc creator\\3.3\\psoc creator\\import\\gnu\\arm\\4.9.
 673              		.file 4 "c:\\program files (x86)\\cypress\\psoc creator\\3.3\\psoc creator\\import\\gnu\\arm\\4.9.
 674              		.file 5 "c:\\program files (x86)\\cypress\\psoc creator\\3.3\\psoc creator\\import\\gnu\\arm\\4.9.
 675              		.file 6 "c:\\program files (x86)\\cypress\\psoc creator\\3.3\\psoc creator\\import\\gnu\\arm\\4.9.
ARM GAS  C:\Users\IVYLIU~1\AppData\Local\Temp\ccAidacZ.s 			page 15

