ARM GAS  C:\Users\IVYLIU~1\AppData\Local\Temp\ccefH2Ng.s 			page 1


   1              		.syntax unified
   2              		.cpu cortex-m3
   3              		.fpu softvfp
   4              		.eabi_attribute 20, 1
   5              		.eabi_attribute 21, 1
   6              		.eabi_attribute 23, 3
   7              		.eabi_attribute 24, 1
   8              		.eabi_attribute 25, 1
   9              		.eabi_attribute 26, 1
  10              		.eabi_attribute 30, 1
  11              		.eabi_attribute 34, 1
  12              		.eabi_attribute 18, 4
  13              		.thumb
  14              		.file	"main.c"
  15              		.text
  16              	.Ltext0:
  17              		.cfi_sections	.debug_frame
  18              		.global	__aeabi_ui2f
  19              		.section	.text.detectNote,"ax",%progbits
  20              		.align	2
  21              		.global	detectNote
  22              		.thumb
  23              		.thumb_func
  24              		.type	detectNote, %function
  25              	detectNote:
  26              	.LFB124:
  27              		.file 1 ".\\main.c"
   1:.\main.c      **** /* ========================================
   2:.\main.c      ****  *
   3:.\main.c      ****  * Copyright YOUR COMPANY, THE YEAR
   4:.\main.c      ****  * All Rights Reserved
   5:.\main.c      ****  * UNPUBLISHED, LICENSED SOFTWARE.
   6:.\main.c      ****  *
   7:.\main.c      ****  * CONFIDENTIAL AND PROPRIETARY INFORMATION
   8:.\main.c      ****  * WHICH IS THE PROPERTY OF your company.
   9:.\main.c      ****  *
  10:.\main.c      ****  * This file is necessary for your project to build.
  11:.\main.c      ****  * Please do not delete it.
  12:.\main.c      ****  *
  13:.\main.c      ****  * ========================================
  14:.\main.c      **** */
  15:.\main.c      **** 
  16:.\main.c      **** #include <project.h>
  17:.\main.c      **** #include <stdio.h>
  18:.\main.c      **** #include "arm_math.h"
  19:.\main.c      **** #include <arm_const_structs.h>
  20:.\main.c      **** #define TEST_LENGTH_SAMPLES 2048
  21:.\main.c      **** 
  22:.\main.c      **** void DigitLED_Write( int);
  23:.\main.c      **** void DigitLED_WriteHex( int);
  24:.\main.c      **** uint32_t adcResult = 0;
  25:.\main.c      **** 
  26:.\main.c      **** /* ------------------------------------------------------------------
  27:.\main.c      **** * Global variables for FFT Bin Example
  28:.\main.c      **** * ------------------------------------------------------------------- */
  29:.\main.c      **** uint32_t fftSize = 1024;            // number of bins
  30:.\main.c      **** uint32_t ifftFlag = 0;
ARM GAS  C:\Users\IVYLIU~1\AppData\Local\Temp\ccefH2Ng.s 			page 2


  31:.\main.c      **** uint32_t doBitReverse = 1;
  32:.\main.c      **** arm_cfft_instance_f32 varInstCfftF32;
  33:.\main.c      **** /* Reference index at which max energy of bin ocuurs */
  34:.\main.c      **** uint32_t testIndex = 0;
  35:.\main.c      **** 
  36:.\main.c      **** /* -------------------------------------------------------------------
  37:.\main.c      **** * External Input and Output buffer Declarations for FFT Bin Example
  38:.\main.c      **** * ------------------------------------------------------------------- */
  39:.\main.c      **** float32_t testInput[TEST_LENGTH_SAMPLES];
  40:.\main.c      **** float32_t testOutput[TEST_LENGTH_SAMPLES/2];
  41:.\main.c      ****     
  42:.\main.c      **** 
  43:.\main.c      **** int detectNote(void);
  44:.\main.c      **** 
  45:.\main.c      **** void main()
  46:.\main.c      **** {		
  47:.\main.c      **** 	LCD_Char_1_Start();					// initialize lcd
  48:.\main.c      **** 	LCD_Char_1_ClearDisplay();
  49:.\main.c      **** 	//LCD_Char_1_PrintString("ADC : ");
  50:.\main.c      **** 	
  51:.\main.c      **** 	ADC_DelSig_1_Start();				// start the ADC_DelSig_1
  52:.\main.c      **** 	ADC_DelSig_1_StartConvert();		// start the ADC_DelSig_1 conversion
  53:.\main.c      ****         
  54:.\main.c      ****     /******** Initialize FFT data **********/
  55:.\main.c      ****     uint16_t i = 0;
  56:.\main.c      **** 
  57:.\main.c      ****     for(;;)
  58:.\main.c      ****     {
  59:.\main.c      **** 		detectNote();
  60:.\main.c      ****     }
  61:.\main.c      **** }
  62:.\main.c      **** 
  63:.\main.c      **** int detectNote() {
  28              		.loc 1 63 0
  29              		.cfi_startproc
  30              		@ args = 0, pretend = 0, frame = 24
  31              		@ frame_needed = 0, uses_anonymous_args = 0
  32 0000 F0B5     		push	{r4, r5, r6, r7, lr}
  33              		.cfi_def_cfa_offset 20
  34              		.cfi_offset 4, -20
  35              		.cfi_offset 5, -16
  36              		.cfi_offset 6, -12
  37              		.cfi_offset 7, -8
  38              		.cfi_offset 14, -4
  39 0002 87B0     		sub	sp, sp, #28
  40              		.cfi_def_cfa_offset 48
  41              	.LVL0:
  64:.\main.c      ****     int fft_start = 0;
  65:.\main.c      ****     uint16_t i = 0;
  42              		.loc 1 65 0
  43 0004 0024     		movs	r4, #0
  64:.\main.c      ****     int fft_start = 0;
  44              		.loc 1 64 0
  45 0006 2546     		mov	r5, r4
  46              	.LVL1:
  47              	.L3:
  66:.\main.c      **** 
ARM GAS  C:\Users\IVYLIU~1\AppData\Local\Temp\ccefH2Ng.s 			page 3


  67:.\main.c      ****     while (1==1) {
  68:.\main.c      ****         if(ADC_DelSig_1_IsEndConversion(ADC_DelSig_1_WAIT_FOR_RESULT) )
  48              		.loc 1 68 0
  49 0008 0020     		movs	r0, #0
  50 000a FFF7FEFF 		bl	ADC_DelSig_1_IsEndConversion
  51              	.LVL2:
  52 000e 0028     		cmp	r0, #0
  53 0010 FAD0     		beq	.L3
  69:.\main.c      ****         {
  70:.\main.c      ****             adcResult = ADC_DelSig_1_GetResult32();		// read the adc and assign the value adcResult
  54              		.loc 1 70 0
  55 0012 FFF7FEFF 		bl	ADC_DelSig_1_GetResult32
  56              	.LVL3:
  57 0016 2A4B     		ldr	r3, .L7
  58 0018 1860     		str	r0, [r3]
  71:.\main.c      ****             
  72:.\main.c      ****             // if the adc is above a certain threshold, start sampling for fft
  73:.\main.c      ****             if (adcResult > 36000 || adcResult < 30000) {
  59              		.loc 1 73 0
  60 001a A0F5EA40 		sub	r0, r0, #29952
  61 001e 3038     		subs	r0, r0, #48
  62 0020 41F27073 		movw	r3, #6000
  63 0024 9842     		cmp	r0, r3
  64 0026 04D9     		bls	.L4
  74:.\main.c      ****                 adc_threshold_Write(1);
  65              		.loc 1 74 0
  66 0028 0120     		movs	r0, #1
  67 002a FFF7FEFF 		bl	adc_threshold_Write
  68              	.LVL4:
  75:.\main.c      ****                 i = 0;
  69              		.loc 1 75 0
  70 002e 0024     		movs	r4, #0
  76:.\main.c      ****                 fft_start = 1;
  71              		.loc 1 76 0
  72 0030 0125     		movs	r5, #1
  73              	.LVL5:
  74              	.L4:
  77:.\main.c      ****             }
  78:.\main.c      ****             
  79:.\main.c      ****             if (fft_start) {
  75              		.loc 1 79 0
  76 0032 002D     		cmp	r5, #0
  77 0034 E8D0     		beq	.L3
  80:.\main.c      ****                 testInput[i] = adcResult;
  78              		.loc 1 80 0
  79 0036 224B     		ldr	r3, .L7
  80 0038 1868     		ldr	r0, [r3]
  81 003a FFF7FEFF 		bl	__aeabi_ui2f
  82              	.LVL6:
  83 003e 214B     		ldr	r3, .L7+4
  84 0040 43F82400 		str	r0, [r3, r4, lsl #2]	@ float
  81:.\main.c      ****                 i++;
  85              		.loc 1 81 0
  86 0044 0134     		adds	r4, r4, #1
  87              	.LVL7:
  88 0046 A4B2     		uxth	r4, r4
  89              	.LVL8:
ARM GAS  C:\Users\IVYLIU~1\AppData\Local\Temp\ccefH2Ng.s 			page 4


  82:.\main.c      ****             
  83:.\main.c      ****                 if (i > 4095) {
  90              		.loc 1 83 0
  91 0048 B4F5805F 		cmp	r4, #4096
  92 004c DCD3     		bcc	.L3
  93              	.LBB2:
  84:.\main.c      ****                     float32_t maxValue;
  85:.\main.c      ****                     arm_cfft_init_f32(&varInstCfftF32,fftSize);
  94              		.loc 1 85 0
  95 004e 1E4E     		ldr	r6, .L7+8
  96 0050 1E4D     		ldr	r5, .L7+12
  97              	.LVL9:
  98 0052 3046     		mov	r0, r6
  99 0054 2988     		ldrh	r1, [r5]
 100 0056 FFF7FEFF 		bl	arm_cfft_init_f32
 101              	.LVL10:
  86:.\main.c      ****                     /* Process the data through the CFFT/CIFFT module */
  87:.\main.c      ****                     arm_cfft_f32(&varInstCfftF32, testInput, ifftFlag, doBitReverse);
 102              		.loc 1 87 0
 103 005a 1A4F     		ldr	r7, .L7+4
 104 005c 184C     		ldr	r4, .L7
 105              	.LVL11:
 106 005e 3046     		mov	r0, r6
 107 0060 3946     		mov	r1, r7
 108 0062 2279     		ldrb	r2, [r4, #4]	@ zero_extendqisi2
 109 0064 2B79     		ldrb	r3, [r5, #4]	@ zero_extendqisi2
 110 0066 FFF7FEFF 		bl	arm_cfft_f32
 111              	.LVL12:
  88:.\main.c      ****                     /* Process the data through the Complex Magnitude Module for
  89:.\main.c      ****                     calculating the magnitude at each bin */
  90:.\main.c      ****                     arm_cmplx_mag_f32(testInput, testOutput, fftSize);
 112              		.loc 1 90 0
 113 006a 194E     		ldr	r6, .L7+16
 114 006c 3846     		mov	r0, r7
 115 006e 3146     		mov	r1, r6
 116 0070 2A68     		ldr	r2, [r5]
 117 0072 FFF7FEFF 		bl	arm_cmplx_mag_f32
 118              	.LVL13:
  91:.\main.c      ****                     /* Calculates maxValue and returns corresponding BIN value */
  92:.\main.c      ****                     testOutput[0] = 0;
 119              		.loc 1 92 0
 120 0076 0023     		movs	r3, #0
 121 0078 3360     		str	r3, [r6]	@ float
  93:.\main.c      ****                     arm_max_f32(testOutput, fftSize, &maxValue, &testIndex);
 122              		.loc 1 93 0
 123 007a 3046     		mov	r0, r6
 124 007c 2968     		ldr	r1, [r5]
 125 007e 01AA     		add	r2, sp, #4
 126 0080 04F10803 		add	r3, r4, #8
 127 0084 FFF7FEFF 		bl	arm_max_f32
 128              	.LVL14:
  94:.\main.c      ****                     
  95:.\main.c      ****                     LCD_Char_1_ClearDisplay();
 129              		.loc 1 95 0
 130 0088 0120     		movs	r0, #1
 131 008a FFF7FEFF 		bl	LCD_Char_1_WriteControl
 132              	.LVL15:
ARM GAS  C:\Users\IVYLIU~1\AppData\Local\Temp\ccefH2Ng.s 			page 5


  96:.\main.c      ****         			LCD_Char_1_Position(0, 0);
 133              		.loc 1 96 0
 134 008e 0020     		movs	r0, #0
 135 0090 0146     		mov	r1, r0
 136 0092 FFF7FEFF 		bl	LCD_Char_1_Position
 137              	.LVL16:
  97:.\main.c      ****         			LCD_Char_1_PrintString("!");			    // clean up the previous display
 138              		.loc 1 97 0
 139 0096 0F48     		ldr	r0, .L7+20
 140 0098 FFF7FEFF 		bl	LCD_Char_1_PrintString
 141              	.LVL17:
  98:.\main.c      ****                     
  99:.\main.c      ****                     char cur_string[16];
 100:.\main.c      ****                     sprintf(cur_string, "%d", testIndex);
 142              		.loc 1 100 0
 143 009c 02A8     		add	r0, sp, #8
 144 009e 0E49     		ldr	r1, .L7+24
 145 00a0 A268     		ldr	r2, [r4, #8]
 146 00a2 FFF7FEFF 		bl	sprintf
 147              	.LVL18:
 101:.\main.c      ****                     LCD_Char_1_PrintString(cur_string);
 148              		.loc 1 101 0
 149 00a6 02A8     		add	r0, sp, #8
 150 00a8 FFF7FEFF 		bl	LCD_Char_1_PrintString
 151              	.LVL19:
 102:.\main.c      ****                    
 103:.\main.c      ****                     adc_threshold_Write(0);
 152              		.loc 1 103 0
 153 00ac 0020     		movs	r0, #0
 154 00ae FFF7FEFF 		bl	adc_threshold_Write
 155              	.LVL20:
 104:.\main.c      ****                     fft_start = 0;
 105:.\main.c      ****                     CyDelay(500);									// delay in milliseconds
 156              		.loc 1 105 0
 157 00b2 4FF4FA70 		mov	r0, #500
 158 00b6 FFF7FEFF 		bl	CyDelay
 159              	.LVL21:
 160              	.LBE2:
 106:.\main.c      ****                     return testIndex;
 107:.\main.c      ****                 }
 108:.\main.c      ****             }
 109:.\main.c      ****         }
 110:.\main.c      ****     }
 111:.\main.c      **** }
 161              		.loc 1 111 0
 162 00ba A068     		ldr	r0, [r4, #8]
 163 00bc 07B0     		add	sp, sp, #28
 164              		.cfi_def_cfa_offset 20
 165              		@ sp needed
 166 00be F0BD     		pop	{r4, r5, r6, r7, pc}
 167              	.L8:
 168              		.align	2
 169              	.L7:
 170 00c0 00000000 		.word	.LANCHOR0
 171 00c4 00000000 		.word	testInput
 172 00c8 00000000 		.word	varInstCfftF32
 173 00cc 00000000 		.word	.LANCHOR1
ARM GAS  C:\Users\IVYLIU~1\AppData\Local\Temp\ccefH2Ng.s 			page 6


 174 00d0 00000000 		.word	testOutput
 175 00d4 00000000 		.word	.LC0
 176 00d8 04000000 		.word	.LC1
 177              		.cfi_endproc
 178              	.LFE124:
 179              		.size	detectNote, .-detectNote
 180              		.section	.text.main,"ax",%progbits
 181              		.align	2
 182              		.global	main
 183              		.thumb
 184              		.thumb_func
 185              		.type	main, %function
 186              	main:
 187              	.LFB123:
  46:.\main.c      **** 	LCD_Char_1_Start();					// initialize lcd
 188              		.loc 1 46 0
 189              		.cfi_startproc
 190              		@ args = 0, pretend = 0, frame = 0
 191              		@ frame_needed = 0, uses_anonymous_args = 0
 192 0000 08B5     		push	{r3, lr}
 193              		.cfi_def_cfa_offset 8
 194              		.cfi_offset 3, -8
 195              		.cfi_offset 14, -4
  47:.\main.c      **** 	LCD_Char_1_ClearDisplay();
 196              		.loc 1 47 0
 197 0002 FFF7FEFF 		bl	LCD_Char_1_Start
 198              	.LVL22:
  48:.\main.c      **** 	//LCD_Char_1_PrintString("ADC : ");
 199              		.loc 1 48 0
 200 0006 0120     		movs	r0, #1
 201 0008 FFF7FEFF 		bl	LCD_Char_1_WriteControl
 202              	.LVL23:
  51:.\main.c      **** 	ADC_DelSig_1_StartConvert();		// start the ADC_DelSig_1 conversion
 203              		.loc 1 51 0
 204 000c FFF7FEFF 		bl	ADC_DelSig_1_Start
 205              	.LVL24:
  52:.\main.c      ****         
 206              		.loc 1 52 0
 207 0010 FFF7FEFF 		bl	ADC_DelSig_1_StartConvert
 208              	.LVL25:
 209              	.L10:
  59:.\main.c      ****     }
 210              		.loc 1 59 0 discriminator 1
 211 0014 FFF7FEFF 		bl	detectNote
 212              	.LVL26:
  60:.\main.c      **** }
 213              		.loc 1 60 0 discriminator 1
 214 0018 FCE7     		b	.L10
 215              		.cfi_endproc
 216              	.LFE123:
 217              		.size	main, .-main
 218              		.comm	testOutput,4096,4
 219              		.comm	testInput,8192,4
 220              		.global	testIndex
 221              		.comm	varInstCfftF32,16,4
 222              		.global	doBitReverse
 223              		.global	ifftFlag
ARM GAS  C:\Users\IVYLIU~1\AppData\Local\Temp\ccefH2Ng.s 			page 7


 224              		.global	fftSize
 225              		.global	adcResult
 226 001a 00BF     		.data
 227              		.align	2
 228              		.set	.LANCHOR1,. + 0
 229              		.type	fftSize, %object
 230              		.size	fftSize, 4
 231              	fftSize:
 232 0000 00040000 		.word	1024
 233              		.type	doBitReverse, %object
 234              		.size	doBitReverse, 4
 235              	doBitReverse:
 236 0004 01000000 		.word	1
 237              		.section	.rodata.str1.4,"aMS",%progbits,1
 238              		.align	2
 239              	.LC0:
 240 0000 2100     		.ascii	"!\000"
 241 0002 0000     		.space	2
 242              	.LC1:
 243 0004 256400   		.ascii	"%d\000"
 244 0007 00       		.bss
 245              		.align	2
 246              		.set	.LANCHOR0,. + 0
 247              		.type	adcResult, %object
 248              		.size	adcResult, 4
 249              	adcResult:
 250 0000 00000000 		.space	4
 251              		.type	ifftFlag, %object
 252              		.size	ifftFlag, 4
 253              	ifftFlag:
 254 0004 00000000 		.space	4
 255              		.type	testIndex, %object
 256              		.size	testIndex, 4
 257              	testIndex:
 258 0008 00000000 		.space	4
 259              		.text
 260              	.Letext0:
 261              		.file 2 "c:\\program files (x86)\\cypress\\psoc creator\\3.3\\psoc creator\\import\\gnu\\arm\\4.9.
 262              		.file 3 "c:\\program files (x86)\\cypress\\psoc creator\\3.3\\psoc creator\\import\\gnu\\arm\\4.9.
 263              		.file 4 "Generated_Source\\PSoC5/cytypes.h"
 264              		.file 5 ".\\DSP\\Include/arm_math_types.h"
 265              		.file 6 ".\\DSP\\Include/dsp/transform_functions.h"
 266              		.file 7 ".\\Core\\Include/cmsis_gcc.h"
 267              		.file 8 ".\\Core\\Include/core_cm3.h"
 268              		.file 9 ".\\DSP\\Include/dsp/complex_math_functions.h"
 269              		.file 10 ".\\DSP\\Include/dsp/statistics_functions.h"
 270              		.file 11 "Generated_Source\\PSoC5/LCD_Char_1.h"
 271              		.file 12 "c:\\program files (x86)\\cypress\\psoc creator\\3.3\\psoc creator\\import\\gnu\\arm\\4.9
 272              		.file 13 "Generated_Source\\PSoC5/adc_threshold.h"
 273              		.file 14 "Generated_Source\\PSoC5/CyLib.h"
 274              		.file 15 "Generated_Source\\PSoC5/ADC_DelSig_1.h"