ARM GAS  C:\Users\IVYLIU~1\AppData\Local\Temp\ccHkDCQn.s 			page 1


   1              		.syntax unified
   2              		.cpu cortex-m3
   3              		.fpu softvfp
   4              		.eabi_attribute 20, 1
   5              		.eabi_attribute 21, 1
   6              		.eabi_attribute 23, 3
   7              		.eabi_attribute 24, 1
   8              		.eabi_attribute 25, 1
   9              		.eabi_attribute 26, 1
  10              		.eabi_attribute 30, 1
  11              		.eabi_attribute 34, 1
  12              		.eabi_attribute 18, 4
  13              		.thumb
  14              		.file	"main.c"
  15              		.text
  16              	.Ltext0:
  17              		.cfi_sections	.debug_frame
  18              		.section	.text.MainTask,"ax",%progbits
  19              		.align	2
  20              		.global	MainTask
  21              		.thumb
  22              		.thumb_func
  23              		.type	MainTask, %function
  24              	MainTask:
  25              	.LFB64:
  26              		.file 1 ".\\main.c"
   1:.\main.c      **** /* ========================================
   2:.\main.c      ****  *
   3:.\main.c      ****  * Copyright YOUR COMPANY, THE YEAR
   4:.\main.c      ****  * All Rights Reserved
   5:.\main.c      ****  * UNPUBLISHED, LICENSED SOFTWARE.
   6:.\main.c      ****  *
   7:.\main.c      ****  * CONFIDENTIAL AND PROPRIETARY INFORMATION
   8:.\main.c      ****  * WHICH IS THE PROPERTY OF your company.
   9:.\main.c      ****  *
  10:.\main.c      ****  * ========================================
  11:.\main.c      **** */
  12:.\main.c      **** #include <project.h>
  13:.\main.c      **** #include <stdio.h>
  14:.\main.c      **** #include "GUI.h"
  15:.\main.c      **** #include "tft.h"
  16:.\main.c      **** 
  17:.\main.c      **** #define TOP_MARGIN 20
  18:.\main.c      **** #define SCREEN_WIDTH 240
  19:.\main.c      **** #define RIGHT_MARGIN SCREEN_WIDTH - TOP_MARGIN
  20:.\main.c      **** #define BAR_SPACING 15
  21:.\main.c      **** #define NOTE_SPACING BAR_SPACING/2
  22:.\main.c      **** #define BETWEEN_CLEFS BAR_SPACING*3
  23:.\main.c      **** #define LINE_NUM 5
  24:.\main.c      **** #define LOWER_OFFSET BAR_SPACING*LINE_NUM + BETWEEN_CLEFS
  25:.\main.c      **** #define NOTE_WIDTH 12
  26:.\main.c      **** #define NOTE_HEIGHT 8
  27:.\main.c      **** enum States {
  28:.\main.c      ****     START,
  29:.\main.c      ****     MODE_SELECT,
  30:.\main.c      ****     SONG_SELECT,
  31:.\main.c      ****     CALIBRATE,
ARM GAS  C:\Users\IVYLIU~1\AppData\Local\Temp\ccHkDCQn.s 			page 2


  32:.\main.c      ****     RESET
  33:.\main.c      **** }; 
  34:.\main.c      **** 
  35:.\main.c      **** struct Notes
  36:.\main.c      **** {
  37:.\main.c      ****     const char *name;
  38:.\main.c      ****     int offset;             //fft offset from midde C/C4
  39:.\main.c      ****     int key_num;            //key number on piano, TODO: use less memory by changing from strings t
  40:.\main.c      **** };
  41:.\main.c      **** 
  42:.\main.c      **** //https://stackoverflow.com/questions/47880223/how-to-programmatically-map-integers-to-const-string
  43:.\main.c      **** struct Notes notes[] = {
  44:.\main.c      ****     { .offset = 0,  .name = "G5", .key_num = 59},
  45:.\main.c      ****     { .offset = 0,  .name = "F#5", .key_num = 58},
  46:.\main.c      ****     { .offset = 0,  .name = "F5", .key_num = 57},
  47:.\main.c      ****     { .offset = 0,  .name = "E5", .key_num = 56},
  48:.\main.c      ****     { .offset = 0,  .name = "D#5", .key_num = 55},
  49:.\main.c      ****     { .offset = 0,  .name = "D5", .key_num = 54},
  50:.\main.c      ****     { .offset = 0,  .name = "C#5", .key_num = 53},
  51:.\main.c      ****     { .offset = 0,  .name = "C5", .key_num = 52},
  52:.\main.c      ****     { .offset = 0,  .name = "B4", .key_num = 51},
  53:.\main.c      ****     { .offset = 0,  .name = "A#4", .key_num = 50},
  54:.\main.c      ****     { .offset = 0,  .name = "A4", .key_num = 49},
  55:.\main.c      ****     { .offset = 0,  .name = "G#4", .key_num = 48},
  56:.\main.c      ****     { .offset = 0,  .name = "G4", .key_num = 47},
  57:.\main.c      ****     { .offset = 0,  .name = "F#4", .key_num = 46},
  58:.\main.c      ****     { .offset = 0,  .name = "F4", .key_num = 45},
  59:.\main.c      ****     { .offset = 0,  .name = "E4", .key_num = 44},
  60:.\main.c      ****     { .offset = 0,  .name = "D#4", .key_num = 43},
  61:.\main.c      ****     { .offset = 0,  .name = "D4", .key_num = 42},
  62:.\main.c      ****     { .offset = 0,  .name = "C#4", .key_num = 41},
  63:.\main.c      ****     { .offset = 0,  .name = "C4", .key_num = 40},
  64:.\main.c      ****     { .offset = 0,  .name = "B3", .key_num = 39},
  65:.\main.c      ****     { .offset = 0,  .name = "A#3", .key_num = 38},
  66:.\main.c      ****     { .offset = 0,  .name = "A3", .key_num = 37},
  67:.\main.c      ****     { .offset = 0,  .name = "G#3", .key_num = 36},
  68:.\main.c      ****     { .offset = 0,  .name = "G3", .key_num = 35},
  69:.\main.c      ****     { .offset = 0,  .name = "F#3", .key_num = 34},
  70:.\main.c      ****     { .offset = 0,  .name = "F3", .key_num = 33},
  71:.\main.c      ****     { .offset = 0,  .name = "E3", .key_num = 32},
  72:.\main.c      ****     { .offset = 0,  .name = "D#3", .key_num = 31},
  73:.\main.c      ****     { .offset = 0,  .name = "D3", .key_num = 30},
  74:.\main.c      ****     { .offset = 0,  .name = "C#3", .key_num = 29},
  75:.\main.c      ****     { .offset = 0,  .name = "C3", .key_num = 28},
  76:.\main.c      ****     { .offset = 0,  .name = "B2", .key_num = 27},
  77:.\main.c      ****     { .offset = 0,  .name = "A#2", .key_num = 26},
  78:.\main.c      ****     { .offset = 0,  .name = "A2", .key_num = 25},
  79:.\main.c      ****     { .offset = 0,  .name = "G#2", .key_num = 24},
  80:.\main.c      ****     { .offset = 0,  .name = "G2", .key_num = 23},
  81:.\main.c      ****     { .offset = 0,  .name = "F#2", .key_num = 22},
  82:.\main.c      ****     { .offset = 0,  .name = "F2", .key_num = 21},
  83:.\main.c      ****     { .offset = 0,  .name = "E2", .key_num = 20},
  84:.\main.c      ****     { .name = NULL }
  85:.\main.c      **** };
  86:.\main.c      **** 
  87:.\main.c      **** struct Songs
  88:.\main.c      **** {
ARM GAS  C:\Users\IVYLIU~1\AppData\Local\Temp\ccHkDCQn.s 			page 3


  89:.\main.c      ****     const int song_number;
  90:.\main.c      ****     const char *name;
  91:.\main.c      ****     const char **note_seq;
  92:.\main.c      ****     const int song_length;
  93:.\main.c      **** };
  94:.\main.c      **** 
  95:.\main.c      **** const char *SONG0_SEQ[] = 
  96:.\main.c      ****     {"E5", "D#5", "E5", "D#5", "E5", "B4", "D5", "C5",
  97:.\main.c      ****      "A4", "C4", "E4", "A4", "B4", "E4", "G#4", "B4",
  98:.\main.c      ****      "C5", "E4", "E5", "D#5", "E5", "D#5", "E5", "B4", "D5", "C5", "A4", "C4", "E4", "A4",
  99:.\main.c      ****      "B4", "E4", "C5", "B4", "A4", "B4", "C5", "D5",
 100:.\main.c      ****      "E5", "G4", "F5", "E5", "D5", "F4", "E5", "D5", "C5", "E4", "D5", "C5",
 101:.\main.c      ****      "B4", "E5", "D#5", "E5", "D#5", "E5", "B4", "D5", "C5", "A4", "C4", "E4", "A4",
 102:.\main.c      ****      "B4", "E4", "G#4", "B4", "C5", "E4", "E5", "D#5", "E5", "D#5", "E5", "B4", "D5", "C5",
 103:.\main.c      ****      "A4", "C4", "E4", "A4", "B4", "E4", "C5", "A4"
 104:.\main.c      ****     };
 105:.\main.c      **** const char *SONG1_SEQ[] = 
 106:.\main.c      ****     {"G3", "G3", "D4", "D4", "E4", "E4", "D4",
 107:.\main.c      ****      "C4", "C4", "B3", "B3", "A3", "A3", "G3",
 108:.\main.c      ****      "D4", "D4", "C4", "C4", "B3", "B3", "A3",
 109:.\main.c      ****      "D4", "D4", "C4", "C4", "B3", "B3", "A3",
 110:.\main.c      ****      "G3", "G3", "D4", "D4", "E4", "E4", "D4",
 111:.\main.c      ****      "C4", "C4", "B3", "B3", "A3", "A3", "G3",
 112:.\main.c      ****     };
 113:.\main.c      **** 
 114:.\main.c      **** const int SONGS_LENGTH = 2;
 115:.\main.c      **** struct Songs songs[] = {
 116:.\main.c      ****     { .song_number = 0, .name = "Fur Elise", .note_seq = SONG0_SEQ, .song_length = 85},
 117:.\main.c      ****     { .song_number = 1, .name = "Twinkle, Twinkle,\nLittle Star", .note_seq = SONG1_SEQ, .song_leng
 118:.\main.c      **** };
 119:.\main.c      **** 
 120:.\main.c      **** void MainTask(void);
 121:.\main.c      **** void drawClefs(void);
 122:.\main.c      **** void drawNote(char* input_name);
 123:.\main.c      **** const char* getNoteName(int input_offset);
 124:.\main.c      **** void drawStartScreen(void);
 125:.\main.c      **** int drawSongSelection(void);
 126:.\main.c      **** void drawPlaySong(int song_index);
 127:.\main.c      **** int detectNote(void);
 128:.\main.c      **** 
 129:.\main.c      **** int main()
 130:.\main.c      **** {
 131:.\main.c      ****     CyGlobalIntEnable;                      // Enable global interrupts
 132:.\main.c      ****     SPIM_1_Start();                         // initialize SPIM component 
 133:.\main.c      ****     GUI_Init();                             // initilize graphics library
 134:.\main.c      **** 
 135:.\main.c      ****     int state = START;
 136:.\main.c      **** 
 137:.\main.c      ****     for(;;) {
 138:.\main.c      ****         switch (state) {
 139:.\main.c      ****             case START: // draw start screen
 140:.\main.c      ****                 drawStartScreen();
 141:.\main.c      ****                 state = MODE_SELECT;
 142:.\main.c      ****                 break;
 143:.\main.c      ****             case MODE_SELECT: // wait for mode selection
 144:.\main.c      ****                 if (!SW2_Read()) {
 145:.\main.c      ****                     while(!SW2_Read());
ARM GAS  C:\Users\IVYLIU~1\AppData\Local\Temp\ccHkDCQn.s 			page 4


 146:.\main.c      ****                     state = SONG_SELECT;
 147:.\main.c      ****                 } else if (!SW3_Read()) {
 148:.\main.c      ****                     while(!SW3_Read());
 149:.\main.c      ****                     state = CALIBRATE;
 150:.\main.c      ****                 }
 151:.\main.c      ****                 break;
 152:.\main.c      ****             case SONG_SELECT: // draw song selection and song
 153:.\main.c      ****                 drawPlaySong(drawSongSelection());
 154:.\main.c      ****                 state = START;
 155:.\main.c      ****                 break;
 156:.\main.c      ****             case CALIBRATE: // calibrate
 157:.\main.c      ****                 state = START;
 158:.\main.c      ****                 break;
 159:.\main.c      ****             default: // reset if unexpected state
 160:.\main.c      ****                 state = START;
 161:.\main.c      ****                 break;
 162:.\main.c      ****         }
 163:.\main.c      ****     }                             
 164:.\main.c      **** }
 165:.\main.c      **** 
 166:.\main.c      **** void MainTask()
 167:.\main.c      **** {
  27              		.loc 1 167 0
  28              		.cfi_startproc
  29              		@ args = 0, pretend = 0, frame = 0
  30              		@ frame_needed = 0, uses_anonymous_args = 0
  31              		@ link register save eliminated.
  32 0000 7047     		bx	lr
  33              		.cfi_endproc
  34              	.LFE64:
  35              		.size	MainTask, .-MainTask
  36 0002 00BF     		.section	.text.getNoteName,"ax",%progbits
  37              		.align	2
  38              		.global	getNoteName
  39              		.thumb
  40              		.thumb_func
  41              		.type	getNoteName, %function
  42              	getNoteName:
  43              	.LFB65:
 168:.\main.c      ****     /// Function: Display Each Note (for testing purposes)
 169:.\main.c      ****     // GUI_SetBkColor(GUI_WHITE);
 170:.\main.c      ****     // GUI_SetColor(GUI_BLACK);
 171:.\main.c      ****     // GUI_Clear();
 172:.\main.c      ****     // char *note_names[] = 
 173:.\main.c      ****     //     {"G5", "F#5", "F5", "E5", "D#5", "D5", "C#5", "C5",
 174:.\main.c      ****     //      "B4", "A#4", "A4", "G#4", "G4", "F#4", "F4", "E4",
 175:.\main.c      ****     //      "D#4", "D4", "C#4", "C4", "B3", "A#3", "A3", "G#3",
 176:.\main.c      ****     //      "G3", "F#3", "F3", "E3", "D#3", "D3", "C#3", "C3", 
 177:.\main.c      ****     //      "B2", "A#2", "A2", "G#2", "G2", "F#2", "F2", "E2"};
 178:.\main.c      ****     
 179:.\main.c      ****     // int i = 0;
 180:.\main.c      ****     // for(;i < 40; i++) {
 181:.\main.c      ****     //     GUI_Clear();
 182:.\main.c      ****     //     drawClefs();
 183:.\main.c      ****     //     drawNote(note_names[i]);
 184:.\main.c      ****     //     CyDelay(1000);
 185:.\main.c      ****     // }
ARM GAS  C:\Users\IVYLIU~1\AppData\Local\Temp\ccHkDCQn.s 			page 5


 186:.\main.c      ****     ///
 187:.\main.c      **** }
 188:.\main.c      **** 
 189:.\main.c      **** const char* getNoteName(int input_offset)
 190:.\main.c      **** {
  44              		.loc 1 190 0
  45              		.cfi_startproc
  46              		@ args = 0, pretend = 0, frame = 0
  47              		@ frame_needed = 0, uses_anonymous_args = 0
  48              		@ link register save eliminated.
  49              	.LVL0:
 191:.\main.c      ****     struct Notes *current = notes;
  50              		.loc 1 191 0
  51 0000 054B     		ldr	r3, .L7
 192:.\main.c      ****     const char *note = "Unrecognized note";
 193:.\main.c      **** 
 194:.\main.c      ****     while (current->name) {
  52              		.loc 1 194 0
  53 0002 03E0     		b	.L3
  54              	.LVL1:
  55              	.L6:
 195:.\main.c      ****         if (current->offset == input_offset) {
  56              		.loc 1 195 0
  57 0004 5968     		ldr	r1, [r3, #4]
  58 0006 8142     		cmp	r1, r0
  59 0008 04D0     		beq	.L5
 196:.\main.c      ****                 note = current->name;
 197:.\main.c      ****                 break;
 198:.\main.c      ****         }
 199:.\main.c      ****         ++current;
  60              		.loc 1 199 0
  61 000a 0C33     		adds	r3, r3, #12
  62              	.LVL2:
  63              	.L3:
 194:.\main.c      ****         if (current->offset == input_offset) {
  64              		.loc 1 194 0
  65 000c 1A68     		ldr	r2, [r3]
  66 000e 002A     		cmp	r2, #0
  67 0010 F8D1     		bne	.L6
 192:.\main.c      **** 
  68              		.loc 1 192 0
  69 0012 024A     		ldr	r2, .L7+4
  70              	.L5:
  71              	.LVL3:
 200:.\main.c      ****     }
 201:.\main.c      **** 
 202:.\main.c      ****     return note;
 203:.\main.c      **** }
  72              		.loc 1 203 0
  73 0014 1046     		mov	r0, r2
  74              	.LVL4:
  75 0016 7047     		bx	lr
  76              	.L8:
  77              		.align	2
  78              	.L7:
  79 0018 00000000 		.word	.LANCHOR0
  80 001c 00000000 		.word	.LC0
ARM GAS  C:\Users\IVYLIU~1\AppData\Local\Temp\ccHkDCQn.s 			page 6


  81              		.cfi_endproc
  82              	.LFE65:
  83              		.size	getNoteName, .-getNoteName
  84              		.section	.text.drawSongSelection,"ax",%progbits
  85              		.align	2
  86              		.global	drawSongSelection
  87              		.thumb
  88              		.thumb_func
  89              		.type	drawSongSelection, %function
  90              	drawSongSelection:
  91              	.LFB67:
 204:.\main.c      **** 
 205:.\main.c      **** void drawPlaySong(int song_index) {
 206:.\main.c      ****     // Setup
 207:.\main.c      ****     GUI_SetBkColor(GUI_WHITE);
 208:.\main.c      ****     GUI_SetColor(GUI_BLACK);
 209:.\main.c      ****     GUI_SetTextMode(GUI_TM_TRANS);
 210:.\main.c      ****     GUI_SetTextAlign(GUI_TA_VCENTER); // Bug: GUI_TA_HCENTER fails to center text horizontally
 211:.\main.c      **** 
 212:.\main.c      ****     GUI_Clear();
 213:.\main.c      ****     drawClefs();
 214:.\main.c      ****     
 215:.\main.c      ****     int note_index = 0;
 216:.\main.c      ****     char score_buf[3];
 217:.\main.c      ****     struct Songs cur_song = songs[song_index];
 218:.\main.c      ****     
 219:.\main.c      ****     // Display first note
 220:.\main.c      ****     drawNote(cur_song.note_seq[note_index]);
 221:.\main.c      ****     GUI_SetFont(&GUI_Font24B_ASCII);
 222:.\main.c      **** 
 223:.\main.c      ****     sprintf(score_buf, "%d", note_index);   //put index into str buffer for displaying score
 224:.\main.c      ****     GUI_DispStringHCenterAt("Score", SCREEN_WIDTH/2 - 20, 280);
 225:.\main.c      ****     GUI_DispStringHCenterAt(score_buf, SCREEN_WIDTH/2 + 40, 280);
 226:.\main.c      ****     
 227:.\main.c      ****     // Display each note after previous is played
 228:.\main.c      ****     while (SW3_Read()) {
 229:.\main.c      ****         if (!SW2_Read()) {
 230:.\main.c      ****             while(!SW2_Read());
 231:.\main.c      ****             // Erase current note and score drawing
 232:.\main.c      ****             GUI_SetColor(GUI_WHITE);
 233:.\main.c      ****             drawNote(cur_song.note_seq[note_index]);
 234:.\main.c      ****             
 235:.\main.c      ****             GUI_SetFont(&GUI_Font24B_ASCII);
 236:.\main.c      ****             GUI_DispStringHCenterAt("Score", SCREEN_WIDTH/2 - 20, 280);
 237:.\main.c      ****             GUI_DispStringHCenterAt(score_buf, SCREEN_WIDTH/2 + 40, 280);
 238:.\main.c      ****             
 239:.\main.c      ****             // Redraw clefs
 240:.\main.c      ****             GUI_SetColor(GUI_BLACK);
 241:.\main.c      ****             drawClefs();
 242:.\main.c      ****             
 243:.\main.c      ****             // Determine next note
 244:.\main.c      ****             note_index++;
 245:.\main.c      ****             sprintf(score_buf, "%d", note_index);   //put index into str buffer for displaying scor
 246:.\main.c      ****             
 247:.\main.c      ****             if (note_index >= cur_song.song_length) {
 248:.\main.c      ****                 // print final score then exit playing mode
 249:.\main.c      ****                 GUI_DispStringHCenterAt("Well Done!", SCREEN_WIDTH/2, 240);
ARM GAS  C:\Users\IVYLIU~1\AppData\Local\Temp\ccHkDCQn.s 			page 7


 250:.\main.c      ****                 GUI_DispStringHCenterAt("Score", SCREEN_WIDTH/2 - 20, 280);
 251:.\main.c      ****                 GUI_DispStringHCenterAt(score_buf, SCREEN_WIDTH/2 + 40, 280);
 252:.\main.c      ****                 break;
 253:.\main.c      ****             } else {
 254:.\main.c      ****                 // show next note and display score
 255:.\main.c      ****                 GUI_DispStringHCenterAt("Score", SCREEN_WIDTH/2 - 20, 280);
 256:.\main.c      ****                 GUI_DispStringHCenterAt(score_buf, SCREEN_WIDTH/2 + 40, 280);
 257:.\main.c      ****                 drawNote(cur_song.note_seq[note_index]);
 258:.\main.c      ****             }
 259:.\main.c      ****         }
 260:.\main.c      ****     }
 261:.\main.c      **** }
 262:.\main.c      **** 
 263:.\main.c      **** int drawSongSelection(){
  92              		.loc 1 263 0
  93              		.cfi_startproc
  94              		@ args = 0, pretend = 0, frame = 0
  95              		@ frame_needed = 0, uses_anonymous_args = 0
  96 0000 38B5     		push	{r3, r4, r5, lr}
  97              		.cfi_def_cfa_offset 16
  98              		.cfi_offset 3, -16
  99              		.cfi_offset 4, -12
 100              		.cfi_offset 5, -8
 101              		.cfi_offset 14, -4
 264:.\main.c      ****     // Setup
 265:.\main.c      ****     GUI_SetBkColor(GUI_WHITE);
 102              		.loc 1 265 0
 103 0002 4FF0FF30 		mov	r0, #-1
 104 0006 FFF7FEFF 		bl	GUI_SetBkColor
 105              	.LVL5:
 266:.\main.c      ****     GUI_SetColor(GUI_BLACK);
 106              		.loc 1 266 0
 107 000a 4FF07F40 		mov	r0, #-16777216
 108 000e FFF7FEFF 		bl	GUI_SetColor
 109              	.LVL6:
 267:.\main.c      ****     GUI_SetFont(&GUI_Font16B_ASCII);
 110              		.loc 1 267 0
 111 0012 354D     		ldr	r5, .L17
 112 0014 2846     		mov	r0, r5
 113 0016 FFF7FEFF 		bl	GUI_SetFont
 114              	.LVL7:
 268:.\main.c      ****     GUI_SetTextMode(GUI_TM_TRANS);
 115              		.loc 1 268 0
 116 001a 0220     		movs	r0, #2
 117 001c FFF7FEFF 		bl	GUI_SetTextMode
 118              	.LVL8:
 269:.\main.c      ****     GUI_SetTextAlign(GUI_TA_VCENTER); // Bug: GUI_TA_HCENTER fails to center text horizontally
 119              		.loc 1 269 0
 120 0020 0C20     		movs	r0, #12
 121 0022 FFF7FEFF 		bl	GUI_SetTextAlign
 122              	.LVL9:
 270:.\main.c      ****     
 271:.\main.c      ****     GUI_Clear();
 123              		.loc 1 271 0
 124 0026 FFF7FEFF 		bl	GUI_Clear
 125              	.LVL10:
 272:.\main.c      **** 
ARM GAS  C:\Users\IVYLIU~1\AppData\Local\Temp\ccHkDCQn.s 			page 8


 273:.\main.c      ****     // Display page title + first song name
 274:.\main.c      ****     int song_index = 0;
 275:.\main.c      ****     GUI_SetFont(&GUI_Font32B_ASCII);
 126              		.loc 1 275 0
 127 002a 304C     		ldr	r4, .L17+4
 128 002c 2046     		mov	r0, r4
 129 002e FFF7FEFF 		bl	GUI_SetFont
 130              	.LVL11:
 276:.\main.c      ****     GUI_DispStringHCenterAt("Song Selection", SCREEN_WIDTH/2, 20);
 131              		.loc 1 276 0
 132 0032 2F48     		ldr	r0, .L17+8
 133 0034 7821     		movs	r1, #120
 134 0036 1422     		movs	r2, #20
 135 0038 FFF7FEFF 		bl	GUI_DispStringHCenterAt
 136              	.LVL12:
 277:.\main.c      ****     
 278:.\main.c      ****     GUI_SetFont(&GUI_Font16B_ASCII);
 137              		.loc 1 278 0
 138 003c 2846     		mov	r0, r5
 139 003e FFF7FEFF 		bl	GUI_SetFont
 140              	.LVL13:
 279:.\main.c      ****     GUI_DispStringHCenterAt("Press SW2 for next option.", SCREEN_WIDTH/2,60);
 141              		.loc 1 279 0
 142 0042 2C48     		ldr	r0, .L17+12
 143 0044 7821     		movs	r1, #120
 144 0046 3C22     		movs	r2, #60
 145 0048 FFF7FEFF 		bl	GUI_DispStringHCenterAt
 146              	.LVL14:
 280:.\main.c      ****     GUI_DispStringHCenterAt("Press SW3 to confirm selection.", SCREEN_WIDTH/2,80);
 147              		.loc 1 280 0
 148 004c 2A48     		ldr	r0, .L17+16
 149 004e 7821     		movs	r1, #120
 150 0050 5022     		movs	r2, #80
 151 0052 FFF7FEFF 		bl	GUI_DispStringHCenterAt
 152              	.LVL15:
 281:.\main.c      ****     
 282:.\main.c      ****     GUI_SetFont(&GUI_Font32B_ASCII);
 153              		.loc 1 282 0
 154 0056 2046     		mov	r0, r4
 155 0058 FFF7FEFF 		bl	GUI_SetFont
 156              	.LVL16:
 283:.\main.c      ****     GUI_DispStringHCenterAt(songs[song_index].name, SCREEN_WIDTH/2, 320/2);
 157              		.loc 1 283 0
 158 005c 274B     		ldr	r3, .L17+20
 159 005e D3F8F001 		ldr	r0, [r3, #496]
 160 0062 7821     		movs	r1, #120
 161 0064 A022     		movs	r2, #160
 162 0066 FFF7FEFF 		bl	GUI_DispStringHCenterAt
 163              	.LVL17:
 274:.\main.c      ****     GUI_SetFont(&GUI_Font32B_ASCII);
 164              		.loc 1 274 0
 165 006a 0025     		movs	r5, #0
 284:.\main.c      ****     
 285:.\main.c      ****     // Wait for song to be selected
 286:.\main.c      ****     while (SW3_Read()) {
 166              		.loc 1 286 0
 167 006c 23E0     		b	.L11
ARM GAS  C:\Users\IVYLIU~1\AppData\Local\Temp\ccHkDCQn.s 			page 9


 168              	.LVL18:
 169              	.L13:
 287:.\main.c      ****         // Cycle to next song when SW3 pressed
 288:.\main.c      ****         if (!SW2_Read()) {
 170              		.loc 1 288 0
 171 006e FFF7FEFF 		bl	SW2_Read
 172              	.LVL19:
 173 0072 00BB     		cbnz	r0, .L11
 289:.\main.c      ****             song_index++;
 174              		.loc 1 289 0
 175 0074 6C1C     		adds	r4, r5, #1
 176              	.LVL20:
 290:.\main.c      ****             song_index %= SONGS_LENGTH;
 177              		.loc 1 290 0
 178 0076 224B     		ldr	r3, .L17+24
 179 0078 1C40     		ands	r4, r4, r3
 180              	.LVL21:
 181 007a 03D5     		bpl	.L12
 182 007c 013C     		subs	r4, r4, #1
 183 007e 64F00104 		orn	r4, r4, #1
 184 0082 0134     		adds	r4, r4, #1
 185              	.L12:
 186 0084 2546     		mov	r5, r4
 187              	.LVL22:
 291:.\main.c      ****             GUI_SetColor(GUI_GetBkColor());
 188              		.loc 1 291 0
 189 0086 FFF7FEFF 		bl	GUI_GetBkColor
 190              	.LVL23:
 191 008a FFF7FEFF 		bl	GUI_SetColor
 192              	.LVL24:
 292:.\main.c      ****             GUI_FillRect(0, 100, 240, 300);
 193              		.loc 1 292 0
 194 008e 0020     		movs	r0, #0
 195 0090 6421     		movs	r1, #100
 196 0092 F022     		movs	r2, #240
 197 0094 4FF49673 		mov	r3, #300
 198 0098 FFF7FEFF 		bl	GUI_FillRect
 199              	.LVL25:
 293:.\main.c      ****             GUI_SetColor(GUI_BLACK);
 200              		.loc 1 293 0
 201 009c 4FF07F40 		mov	r0, #-16777216
 202 00a0 FFF7FEFF 		bl	GUI_SetColor
 203              	.LVL26:
 294:.\main.c      ****             GUI_DispStringHCenterAt(songs[song_index].name, SCREEN_WIDTH/2, 160);
 204              		.loc 1 294 0
 205 00a4 154B     		ldr	r3, .L17+20
 206 00a6 03EB0414 		add	r4, r3, r4, lsl #4
 207              	.LVL27:
 208 00aa D4F8F001 		ldr	r0, [r4, #496]
 209 00ae 7821     		movs	r1, #120
 210 00b0 A022     		movs	r2, #160
 211 00b2 FFF7FEFF 		bl	GUI_DispStringHCenterAt
 212              	.LVL28:
 213              	.L11:
 286:.\main.c      ****         // Cycle to next song when SW3 pressed
 214              		.loc 1 286 0
 215 00b6 FFF7FEFF 		bl	SW3_Read
ARM GAS  C:\Users\IVYLIU~1\AppData\Local\Temp\ccHkDCQn.s 			page 10


 216              	.LVL29:
 217 00ba 0028     		cmp	r0, #0
 218 00bc D7D1     		bne	.L13
 219 00be 01E0     		b	.L14
 220              	.L15:
 295:.\main.c      ****         }   
 296:.\main.c      ****     }
 297:.\main.c      ****     
 298:.\main.c      ****     while (!SW3_Read())
 299:.\main.c      **** 
 300:.\main.c      ****     //Song Selection Confirmation
 301:.\main.c      ****     GUI_Clear();
 221              		.loc 1 301 0
 222 00c0 FFF7FEFF 		bl	GUI_Clear
 223              	.LVL30:
 224              	.L14:
 298:.\main.c      **** 
 225              		.loc 1 298 0
 226 00c4 FFF7FEFF 		bl	SW3_Read
 227              	.LVL31:
 228 00c8 0028     		cmp	r0, #0
 229 00ca F9D0     		beq	.L15
 302:.\main.c      ****     GUI_SetFont(&GUI_Font32B_ASCII);
 230              		.loc 1 302 0
 231 00cc 0748     		ldr	r0, .L17+4
 232 00ce FFF7FEFF 		bl	GUI_SetFont
 233              	.LVL32:
 303:.\main.c      ****     GUI_DispStringHCenterAt("Song Selected!", SCREEN_WIDTH/2, 320/2);
 234              		.loc 1 303 0
 235 00d2 0C48     		ldr	r0, .L17+28
 236 00d4 7821     		movs	r1, #120
 237 00d6 A022     		movs	r2, #160
 238 00d8 FFF7FEFF 		bl	GUI_DispStringHCenterAt
 239              	.LVL33:
 304:.\main.c      ****     CyDelay(500);
 240              		.loc 1 304 0
 241 00dc 4FF4FA70 		mov	r0, #500
 242 00e0 FFF7FEFF 		bl	CyDelay
 243              	.LVL34:
 305:.\main.c      ****     return song_index;
 306:.\main.c      **** }
 244              		.loc 1 306 0
 245 00e4 2846     		mov	r0, r5
 246 00e6 38BD     		pop	{r3, r4, r5, pc}
 247              	.LVL35:
 248              	.L18:
 249              		.align	2
 250              	.L17:
 251 00e8 00000000 		.word	GUI_Font16B_ASCII
 252 00ec 00000000 		.word	GUI_Font32B_ASCII
 253 00f0 14000000 		.word	.LC1
 254 00f4 24000000 		.word	.LC2
 255 00f8 40000000 		.word	.LC3
 256 00fc 00000000 		.word	.LANCHOR0
 257 0100 01000080 		.word	-2147483647
 258 0104 60000000 		.word	.LC4
 259              		.cfi_endproc
ARM GAS  C:\Users\IVYLIU~1\AppData\Local\Temp\ccHkDCQn.s 			page 11


 260              	.LFE67:
 261              		.size	drawSongSelection, .-drawSongSelection
 262              		.section	.text.drawStartScreen,"ax",%progbits
 263              		.align	2
 264              		.global	drawStartScreen
 265              		.thumb
 266              		.thumb_func
 267              		.type	drawStartScreen, %function
 268              	drawStartScreen:
 269              	.LFB68:
 307:.\main.c      **** 
 308:.\main.c      **** void drawStartScreen(){
 270              		.loc 1 308 0
 271              		.cfi_startproc
 272              		@ args = 0, pretend = 0, frame = 0
 273              		@ frame_needed = 0, uses_anonymous_args = 0
 274 0000 10B5     		push	{r4, lr}
 275              		.cfi_def_cfa_offset 8
 276              		.cfi_offset 4, -8
 277              		.cfi_offset 14, -4
 278 0002 82B0     		sub	sp, sp, #8
 279              		.cfi_def_cfa_offset 16
 309:.\main.c      ****     // Setup
 310:.\main.c      ****     GUI_SetBkColor(GUI_WHITE);
 280              		.loc 1 310 0
 281 0004 4FF0FF30 		mov	r0, #-1
 282 0008 FFF7FEFF 		bl	GUI_SetBkColor
 283              	.LVL36:
 311:.\main.c      ****     GUI_SetColor(GUI_BLACK);
 284              		.loc 1 311 0
 285 000c 4FF07F40 		mov	r0, #-16777216
 286 0010 FFF7FEFF 		bl	GUI_SetColor
 287              	.LVL37:
 312:.\main.c      ****     GUI_SetFont(&GUI_Font32B_ASCII);
 288              		.loc 1 312 0
 289 0014 1D48     		ldr	r0, .L21
 290 0016 FFF7FEFF 		bl	GUI_SetFont
 291              	.LVL38:
 313:.\main.c      ****     GUI_SetTextMode(GUI_TM_TRANS);
 292              		.loc 1 313 0
 293 001a 0220     		movs	r0, #2
 294 001c FFF7FEFF 		bl	GUI_SetTextMode
 295              	.LVL39:
 314:.\main.c      ****     GUI_SetTextAlign(GUI_TA_VCENTER); // Bug: GUI_TA_HCENTER fails to center text horizontally
 296              		.loc 1 314 0
 297 0020 0C20     		movs	r0, #12
 298 0022 FFF7FEFF 		bl	GUI_SetTextAlign
 299              	.LVL40:
 315:.\main.c      ****     
 316:.\main.c      ****     GUI_Clear();
 300              		.loc 1 316 0
 301 0026 FFF7FEFF 		bl	GUI_Clear
 302              	.LVL41:
 317:.\main.c      **** 
 318:.\main.c      ****     GUI_DispStringHCenterAt("Welcome to\nPiano Tiles!", SCREEN_WIDTH/2, 40);
 303              		.loc 1 318 0
 304 002a 1948     		ldr	r0, .L21+4
ARM GAS  C:\Users\IVYLIU~1\AppData\Local\Temp\ccHkDCQn.s 			page 12


 305 002c 7821     		movs	r1, #120
 306 002e 2822     		movs	r2, #40
 307 0030 FFF7FEFF 		bl	GUI_DispStringHCenterAt
 308              	.LVL42:
 319:.\main.c      **** 
 320:.\main.c      ****     // Button 1: Play
 321:.\main.c      ****     GUI_SetColor(GUI_GREEN);
 309              		.loc 1 321 0
 310 0034 4FF0FF20 		mov	r0, #-16711936
 311 0038 FFF7FEFF 		bl	GUI_SetColor
 312              	.LVL43:
 322:.\main.c      ****     GUI_FillRoundedRect(40, 120, 200, 200, 10);
 313              		.loc 1 322 0
 314 003c 0A24     		movs	r4, #10
 315 003e 0094     		str	r4, [sp]
 316 0040 2820     		movs	r0, #40
 317 0042 7821     		movs	r1, #120
 318 0044 C822     		movs	r2, #200
 319 0046 1346     		mov	r3, r2
 320 0048 FFF7FEFF 		bl	GUI_FillRoundedRect
 321              	.LVL44:
 323:.\main.c      ****     GUI_SetColor(GUI_WHITE);
 322              		.loc 1 323 0
 323 004c 4FF0FF30 		mov	r0, #-1
 324 0050 FFF7FEFF 		bl	GUI_SetColor
 325              	.LVL45:
 324:.\main.c      ****     GUI_DispStringHCenterAt("Play", SCREEN_WIDTH/2, 160);
 326              		.loc 1 324 0
 327 0054 0F48     		ldr	r0, .L21+8
 328 0056 7821     		movs	r1, #120
 329 0058 A022     		movs	r2, #160
 330 005a FFF7FEFF 		bl	GUI_DispStringHCenterAt
 331              	.LVL46:
 325:.\main.c      **** 
 326:.\main.c      ****     // Button 2: Calibrate
 327:.\main.c      ****     GUI_SetColor(GUI_BLUE);
 332              		.loc 1 327 0
 333 005e 0E48     		ldr	r0, .L21+12
 334 0060 FFF7FEFF 		bl	GUI_SetColor
 335              	.LVL47:
 328:.\main.c      ****     GUI_FillRoundedRect(40, 220, 200, 300, 10);
 336              		.loc 1 328 0
 337 0064 0094     		str	r4, [sp]
 338 0066 2820     		movs	r0, #40
 339 0068 DC21     		movs	r1, #220
 340 006a C822     		movs	r2, #200
 341 006c 4FF49673 		mov	r3, #300
 342 0070 FFF7FEFF 		bl	GUI_FillRoundedRect
 343              	.LVL48:
 329:.\main.c      ****     GUI_SetColor(GUI_WHITE);
 344              		.loc 1 329 0
 345 0074 4FF0FF30 		mov	r0, #-1
 346 0078 FFF7FEFF 		bl	GUI_SetColor
 347              	.LVL49:
 330:.\main.c      ****     GUI_DispStringHCenterAt("Calibrate", SCREEN_WIDTH/2, 260);
 348              		.loc 1 330 0
 349 007c 0748     		ldr	r0, .L21+16
ARM GAS  C:\Users\IVYLIU~1\AppData\Local\Temp\ccHkDCQn.s 			page 13


 350 007e 7821     		movs	r1, #120
 351 0080 4FF48272 		mov	r2, #260
 352 0084 FFF7FEFF 		bl	GUI_DispStringHCenterAt
 353              	.LVL50:
 331:.\main.c      **** }
 354              		.loc 1 331 0
 355 0088 02B0     		add	sp, sp, #8
 356              		.cfi_def_cfa_offset 8
 357              		@ sp needed
 358 008a 10BD     		pop	{r4, pc}
 359              	.L22:
 360              		.align	2
 361              	.L21:
 362 008c 00000000 		.word	GUI_Font32B_ASCII
 363 0090 70000000 		.word	.LC5
 364 0094 88000000 		.word	.LC6
 365 0098 FF0000FF 		.word	-16776961
 366 009c 90000000 		.word	.LC7
 367              		.cfi_endproc
 368              	.LFE68:
 369              		.size	drawStartScreen, .-drawStartScreen
 370              		.section	.text.drawNote,"ax",%progbits
 371              		.align	2
 372              		.global	drawNote
 373              		.thumb
 374              		.thumb_func
 375              		.type	drawNote, %function
 376              	drawNote:
 377              	.LFB69:
 332:.\main.c      **** 
 333:.\main.c      **** void drawNote(char* input_name){
 378              		.loc 1 333 0
 379              		.cfi_startproc
 380              		@ args = 0, pretend = 0, frame = 0
 381              		@ frame_needed = 0, uses_anonymous_args = 0
 382              	.LVL51:
 383 0000 10B5     		push	{r4, lr}
 384              		.cfi_def_cfa_offset 8
 385              		.cfi_offset 4, -8
 386              		.cfi_offset 14, -4
 387 0002 0446     		mov	r4, r0
 334:.\main.c      ****     // Center text and set size
 335:.\main.c      ****     GUI_SetFont(&GUI_Font32B_ASCII);
 388              		.loc 1 335 0
 389 0004 B948     		ldr	r0, .L66
 390              	.LVL52:
 391 0006 FFF7FEFF 		bl	GUI_SetFont
 392              	.LVL53:
 336:.\main.c      ****     GUI_SetTextMode(GUI_TM_TRANS);
 393              		.loc 1 336 0
 394 000a 0220     		movs	r0, #2
 395 000c FFF7FEFF 		bl	GUI_SetTextMode
 396              	.LVL54:
 337:.\main.c      ****     GUI_SetTextAlign(GUI_TA_HCENTER | GUI_TA_VCENTER);
 397              		.loc 1 337 0
 398 0010 0E20     		movs	r0, #14
 399 0012 FFF7FEFF 		bl	GUI_SetTextAlign
ARM GAS  C:\Users\IVYLIU~1\AppData\Local\Temp\ccHkDCQn.s 			page 14


 400              	.LVL55:
 338:.\main.c      ****     
 339:.\main.c      ****     int text_x = SCREEN_WIDTH/2;
 340:.\main.c      ****     int text_y = 240;
 341:.\main.c      ****     
 342:.\main.c      ****     if (strcmp(input_name, "G5") == 0) {
 401              		.loc 1 342 0
 402 0016 2046     		mov	r0, r4
 403 0018 B549     		ldr	r1, .L66+4
 404 001a FFF7FEFF 		bl	strcmp
 405              	.LVL56:
 406 001e 58B9     		cbnz	r0, .L24
 343:.\main.c      ****         GUI_FillEllipse(SCREEN_WIDTH/2, TOP_MARGIN - NOTE_SPACING, NOTE_WIDTH, NOTE_HEIGHT);
 407              		.loc 1 343 0
 408 0020 7820     		movs	r0, #120
 409 0022 0D21     		movs	r1, #13
 410 0024 0C22     		movs	r2, #12
 411 0026 0823     		movs	r3, #8
 412 0028 FFF7FEFF 		bl	GUI_FillEllipse
 413              	.LVL57:
 344:.\main.c      ****         GUI_DispStringAt("G5", text_x, text_y);
 414              		.loc 1 344 0
 415 002c B048     		ldr	r0, .L66+4
 416 002e 7821     		movs	r1, #120
 417 0030 F022     		movs	r2, #240
 418 0032 FFF7FEFF 		bl	GUI_DispStringAt
 419              	.LVL58:
 420 0036 10BD     		pop	{r4, pc}
 421              	.LVL59:
 422              	.L24:
 345:.\main.c      ****     } else if (strcmp(input_name, "F#5") == 0) {
 423              		.loc 1 345 0
 424 0038 2046     		mov	r0, r4
 425 003a AE49     		ldr	r1, .L66+8
 426 003c FFF7FEFF 		bl	strcmp
 427              	.LVL60:
 428 0040 98B9     		cbnz	r0, .L26
 346:.\main.c      ****         GUI_FillEllipse(SCREEN_WIDTH/2, TOP_MARGIN, NOTE_WIDTH, NOTE_HEIGHT);
 429              		.loc 1 346 0
 430 0042 7820     		movs	r0, #120
 431 0044 1421     		movs	r1, #20
 432 0046 0C22     		movs	r2, #12
 433 0048 0823     		movs	r3, #8
 434 004a FFF7FEFF 		bl	GUI_FillEllipse
 435              	.LVL61:
 347:.\main.c      ****         GUI_DispStringAt("F#5", text_x, text_y);
 436              		.loc 1 347 0
 437 004e A948     		ldr	r0, .L66+8
 438 0050 7821     		movs	r1, #120
 439 0052 F022     		movs	r2, #240
 440 0054 FFF7FEFF 		bl	GUI_DispStringAt
 441              	.LVL62:
 348:.\main.c      **** 
 349:.\main.c      ****         GUI_SetFont(&GUI_Font24B_ASCII);
 442              		.loc 1 349 0
 443 0058 A748     		ldr	r0, .L66+12
 444 005a FFF7FEFF 		bl	GUI_SetFont
ARM GAS  C:\Users\IVYLIU~1\AppData\Local\Temp\ccHkDCQn.s 			page 15


 445              	.LVL63:
 350:.\main.c      ****         GUI_DispStringAt("#", SCREEN_WIDTH/2 + 2*NOTE_WIDTH, TOP_MARGIN);
 446              		.loc 1 350 0
 447 005e A748     		ldr	r0, .L66+16
 448 0060 9021     		movs	r1, #144
 449 0062 1422     		movs	r2, #20
 450 0064 FFF7FEFF 		bl	GUI_DispStringAt
 451              	.LVL64:
 452 0068 10BD     		pop	{r4, pc}
 453              	.LVL65:
 454              	.L26:
 351:.\main.c      ****     } else if (strcmp(input_name, "F5") == 0) {
 455              		.loc 1 351 0
 456 006a 2046     		mov	r0, r4
 457 006c A449     		ldr	r1, .L66+20
 458 006e FFF7FEFF 		bl	strcmp
 459              	.LVL66:
 460 0072 58B9     		cbnz	r0, .L27
 352:.\main.c      ****         GUI_FillEllipse(SCREEN_WIDTH/2, TOP_MARGIN, NOTE_WIDTH, NOTE_HEIGHT);
 461              		.loc 1 352 0
 462 0074 7820     		movs	r0, #120
 463 0076 1421     		movs	r1, #20
 464 0078 0C22     		movs	r2, #12
 465 007a 0823     		movs	r3, #8
 466 007c FFF7FEFF 		bl	GUI_FillEllipse
 467              	.LVL67:
 353:.\main.c      ****         GUI_DispStringAt("F5", text_x, text_y);
 468              		.loc 1 353 0
 469 0080 9F48     		ldr	r0, .L66+20
 470 0082 7821     		movs	r1, #120
 471 0084 F022     		movs	r2, #240
 472 0086 FFF7FEFF 		bl	GUI_DispStringAt
 473              	.LVL68:
 474 008a 10BD     		pop	{r4, pc}
 475              	.LVL69:
 476              	.L27:
 354:.\main.c      ****     } else if (strcmp(input_name, "E5") == 0) {
 477              		.loc 1 354 0
 478 008c 2046     		mov	r0, r4
 479 008e 9D49     		ldr	r1, .L66+24
 480 0090 FFF7FEFF 		bl	strcmp
 481              	.LVL70:
 482 0094 58B9     		cbnz	r0, .L28
 355:.\main.c      ****         GUI_FillEllipse(SCREEN_WIDTH/2, TOP_MARGIN + NOTE_SPACING, NOTE_WIDTH, NOTE_HEIGHT);
 483              		.loc 1 355 0
 484 0096 7820     		movs	r0, #120
 485 0098 1B21     		movs	r1, #27
 486 009a 0C22     		movs	r2, #12
 487 009c 0823     		movs	r3, #8
 488 009e FFF7FEFF 		bl	GUI_FillEllipse
 489              	.LVL71:
 356:.\main.c      ****         GUI_DispStringAt("E5", text_x, text_y);
 490              		.loc 1 356 0
 491 00a2 9848     		ldr	r0, .L66+24
 492 00a4 7821     		movs	r1, #120
 493 00a6 F022     		movs	r2, #240
 494 00a8 FFF7FEFF 		bl	GUI_DispStringAt
ARM GAS  C:\Users\IVYLIU~1\AppData\Local\Temp\ccHkDCQn.s 			page 16


 495              	.LVL72:
 496 00ac 10BD     		pop	{r4, pc}
 497              	.LVL73:
 498              	.L28:
 357:.\main.c      ****     } else if (strcmp(input_name, "D#5") == 0) {
 499              		.loc 1 357 0
 500 00ae 2046     		mov	r0, r4
 501 00b0 9549     		ldr	r1, .L66+28
 502 00b2 FFF7FEFF 		bl	strcmp
 503              	.LVL74:
 504 00b6 98B9     		cbnz	r0, .L29
 358:.\main.c      ****         GUI_FillEllipse(SCREEN_WIDTH/2, TOP_MARGIN + 2*NOTE_SPACING, NOTE_WIDTH, NOTE_HEIGHT);
 505              		.loc 1 358 0
 506 00b8 7820     		movs	r0, #120
 507 00ba 2321     		movs	r1, #35
 508 00bc 0C22     		movs	r2, #12
 509 00be 0823     		movs	r3, #8
 510 00c0 FFF7FEFF 		bl	GUI_FillEllipse
 511              	.LVL75:
 359:.\main.c      ****         GUI_DispStringAt("D#5", text_x, text_y);
 512              		.loc 1 359 0
 513 00c4 9048     		ldr	r0, .L66+28
 514 00c6 7821     		movs	r1, #120
 515 00c8 F022     		movs	r2, #240
 516 00ca FFF7FEFF 		bl	GUI_DispStringAt
 517              	.LVL76:
 360:.\main.c      **** 
 361:.\main.c      ****         GUI_SetFont(&GUI_Font24B_ASCII);
 518              		.loc 1 361 0
 519 00ce 8A48     		ldr	r0, .L66+12
 520 00d0 FFF7FEFF 		bl	GUI_SetFont
 521              	.LVL77:
 362:.\main.c      ****         GUI_DispStringAt("#", SCREEN_WIDTH/2 + 2*NOTE_WIDTH, TOP_MARGIN + 2*NOTE_SPACING);
 522              		.loc 1 362 0
 523 00d4 8948     		ldr	r0, .L66+16
 524 00d6 9021     		movs	r1, #144
 525 00d8 2322     		movs	r2, #35
 526 00da FFF7FEFF 		bl	GUI_DispStringAt
 527              	.LVL78:
 528 00de 10BD     		pop	{r4, pc}
 529              	.LVL79:
 530              	.L29:
 363:.\main.c      ****     } else if (strcmp(input_name, "D5") == 0) {
 531              		.loc 1 363 0
 532 00e0 2046     		mov	r0, r4
 533 00e2 8A49     		ldr	r1, .L66+32
 534 00e4 FFF7FEFF 		bl	strcmp
 535              	.LVL80:
 536 00e8 58B9     		cbnz	r0, .L30
 364:.\main.c      ****         GUI_FillEllipse(SCREEN_WIDTH/2, TOP_MARGIN + 2*NOTE_SPACING, NOTE_WIDTH, NOTE_HEIGHT);
 537              		.loc 1 364 0
 538 00ea 7820     		movs	r0, #120
 539 00ec 2321     		movs	r1, #35
 540 00ee 0C22     		movs	r2, #12
 541 00f0 0823     		movs	r3, #8
 542 00f2 FFF7FEFF 		bl	GUI_FillEllipse
 543              	.LVL81:
ARM GAS  C:\Users\IVYLIU~1\AppData\Local\Temp\ccHkDCQn.s 			page 17


 365:.\main.c      ****         GUI_DispStringAt("D5", text_x, text_y);
 544              		.loc 1 365 0
 545 00f6 8548     		ldr	r0, .L66+32
 546 00f8 7821     		movs	r1, #120
 547 00fa F022     		movs	r2, #240
 548 00fc FFF7FEFF 		bl	GUI_DispStringAt
 549              	.LVL82:
 550 0100 10BD     		pop	{r4, pc}
 551              	.LVL83:
 552              	.L30:
 366:.\main.c      ****     } else if (strcmp(input_name, "C#5") == 0) {
 553              		.loc 1 366 0
 554 0102 2046     		mov	r0, r4
 555 0104 8249     		ldr	r1, .L66+36
 556 0106 FFF7FEFF 		bl	strcmp
 557              	.LVL84:
 558 010a 98B9     		cbnz	r0, .L31
 367:.\main.c      ****         GUI_FillEllipse(SCREEN_WIDTH/2, TOP_MARGIN + 3*NOTE_SPACING, NOTE_WIDTH, NOTE_HEIGHT);
 559              		.loc 1 367 0
 560 010c 7820     		movs	r0, #120
 561 010e 2A21     		movs	r1, #42
 562 0110 0C22     		movs	r2, #12
 563 0112 0823     		movs	r3, #8
 564 0114 FFF7FEFF 		bl	GUI_FillEllipse
 565              	.LVL85:
 368:.\main.c      ****         GUI_DispStringAt("C#5", text_x, text_y);
 566              		.loc 1 368 0
 567 0118 7D48     		ldr	r0, .L66+36
 568 011a 7821     		movs	r1, #120
 569 011c F022     		movs	r2, #240
 570 011e FFF7FEFF 		bl	GUI_DispStringAt
 571              	.LVL86:
 369:.\main.c      **** 
 370:.\main.c      ****         GUI_SetFont(&GUI_Font24B_ASCII);
 572              		.loc 1 370 0
 573 0122 7548     		ldr	r0, .L66+12
 574 0124 FFF7FEFF 		bl	GUI_SetFont
 575              	.LVL87:
 371:.\main.c      ****         GUI_DispStringAt("#", SCREEN_WIDTH/2 + 2*NOTE_WIDTH, TOP_MARGIN + 3*NOTE_SPACING);
 576              		.loc 1 371 0
 577 0128 7448     		ldr	r0, .L66+16
 578 012a 9021     		movs	r1, #144
 579 012c 2A22     		movs	r2, #42
 580 012e FFF7FEFF 		bl	GUI_DispStringAt
 581              	.LVL88:
 582 0132 10BD     		pop	{r4, pc}
 583              	.LVL89:
 584              	.L31:
 372:.\main.c      ****     } else if (strcmp(input_name, "C5") == 0) {
 585              		.loc 1 372 0
 586 0134 2046     		mov	r0, r4
 587 0136 7749     		ldr	r1, .L66+40
 588 0138 FFF7FEFF 		bl	strcmp
 589              	.LVL90:
 590 013c 58B9     		cbnz	r0, .L32
 373:.\main.c      ****         GUI_FillEllipse(SCREEN_WIDTH/2, TOP_MARGIN + 3*NOTE_SPACING, NOTE_WIDTH, NOTE_HEIGHT);
 591              		.loc 1 373 0
ARM GAS  C:\Users\IVYLIU~1\AppData\Local\Temp\ccHkDCQn.s 			page 18


 592 013e 7820     		movs	r0, #120
 593 0140 2A21     		movs	r1, #42
 594 0142 0C22     		movs	r2, #12
 595 0144 0823     		movs	r3, #8
 596 0146 FFF7FEFF 		bl	GUI_FillEllipse
 597              	.LVL91:
 374:.\main.c      ****         GUI_DispStringAt("C5", text_x, text_y);
 598              		.loc 1 374 0
 599 014a 7248     		ldr	r0, .L66+40
 600 014c 7821     		movs	r1, #120
 601 014e F022     		movs	r2, #240
 602 0150 FFF7FEFF 		bl	GUI_DispStringAt
 603              	.LVL92:
 604 0154 10BD     		pop	{r4, pc}
 605              	.LVL93:
 606              	.L32:
 375:.\main.c      ****     } else if (strcmp(input_name, "B4") == 0) {
 607              		.loc 1 375 0
 608 0156 2046     		mov	r0, r4
 609 0158 6F49     		ldr	r1, .L66+44
 610 015a FFF7FEFF 		bl	strcmp
 611              	.LVL94:
 612 015e 58B9     		cbnz	r0, .L33
 376:.\main.c      ****         GUI_FillEllipse(SCREEN_WIDTH/2, TOP_MARGIN + 4*NOTE_SPACING, NOTE_WIDTH, NOTE_HEIGHT);
 613              		.loc 1 376 0
 614 0160 7820     		movs	r0, #120
 615 0162 3221     		movs	r1, #50
 616 0164 0C22     		movs	r2, #12
 617 0166 0823     		movs	r3, #8
 618 0168 FFF7FEFF 		bl	GUI_FillEllipse
 619              	.LVL95:
 377:.\main.c      ****         GUI_DispStringAt("B4", text_x, text_y);
 620              		.loc 1 377 0
 621 016c 6A48     		ldr	r0, .L66+44
 622 016e 7821     		movs	r1, #120
 623 0170 F022     		movs	r2, #240
 624 0172 FFF7FEFF 		bl	GUI_DispStringAt
 625              	.LVL96:
 626 0176 10BD     		pop	{r4, pc}
 627              	.LVL97:
 628              	.L33:
 378:.\main.c      ****     } else if (strcmp(input_name, "A#4") == 0) {
 629              		.loc 1 378 0
 630 0178 2046     		mov	r0, r4
 631 017a 6849     		ldr	r1, .L66+48
 632 017c FFF7FEFF 		bl	strcmp
 633              	.LVL98:
 634 0180 98B9     		cbnz	r0, .L34
 379:.\main.c      ****         GUI_FillEllipse(SCREEN_WIDTH/2, TOP_MARGIN + 5*NOTE_SPACING, NOTE_WIDTH, NOTE_HEIGHT);
 635              		.loc 1 379 0
 636 0182 7820     		movs	r0, #120
 637 0184 3921     		movs	r1, #57
 638 0186 0C22     		movs	r2, #12
 639 0188 0823     		movs	r3, #8
 640 018a FFF7FEFF 		bl	GUI_FillEllipse
 641              	.LVL99:
 380:.\main.c      ****         GUI_DispStringAt("A#4", text_x, text_y);
ARM GAS  C:\Users\IVYLIU~1\AppData\Local\Temp\ccHkDCQn.s 			page 19


 642              		.loc 1 380 0
 643 018e 6348     		ldr	r0, .L66+48
 644 0190 7821     		movs	r1, #120
 645 0192 F022     		movs	r2, #240
 646 0194 FFF7FEFF 		bl	GUI_DispStringAt
 647              	.LVL100:
 381:.\main.c      **** 
 382:.\main.c      ****         GUI_SetFont(&GUI_Font24B_ASCII);
 648              		.loc 1 382 0
 649 0198 5748     		ldr	r0, .L66+12
 650 019a FFF7FEFF 		bl	GUI_SetFont
 651              	.LVL101:
 383:.\main.c      ****         GUI_DispStringAt("#", SCREEN_WIDTH/2 + 2*NOTE_WIDTH, TOP_MARGIN + 5*NOTE_SPACING);
 652              		.loc 1 383 0
 653 019e 5748     		ldr	r0, .L66+16
 654 01a0 9021     		movs	r1, #144
 655 01a2 3922     		movs	r2, #57
 656 01a4 FFF7FEFF 		bl	GUI_DispStringAt
 657              	.LVL102:
 658 01a8 10BD     		pop	{r4, pc}
 659              	.LVL103:
 660              	.L34:
 384:.\main.c      ****     } else if (strcmp(input_name, "A4") == 0) {
 661              		.loc 1 384 0
 662 01aa 2046     		mov	r0, r4
 663 01ac 5C49     		ldr	r1, .L66+52
 664 01ae FFF7FEFF 		bl	strcmp
 665              	.LVL104:
 666 01b2 58B9     		cbnz	r0, .L35
 385:.\main.c      ****         GUI_FillEllipse(SCREEN_WIDTH/2, TOP_MARGIN + 5*NOTE_SPACING, NOTE_WIDTH, NOTE_HEIGHT);
 667              		.loc 1 385 0
 668 01b4 7820     		movs	r0, #120
 669 01b6 3921     		movs	r1, #57
 670 01b8 0C22     		movs	r2, #12
 671 01ba 0823     		movs	r3, #8
 672 01bc FFF7FEFF 		bl	GUI_FillEllipse
 673              	.LVL105:
 386:.\main.c      ****         GUI_DispStringAt("A4", text_x, text_y);
 674              		.loc 1 386 0
 675 01c0 5748     		ldr	r0, .L66+52
 676 01c2 7821     		movs	r1, #120
 677 01c4 F022     		movs	r2, #240
 678 01c6 FFF7FEFF 		bl	GUI_DispStringAt
 679              	.LVL106:
 680 01ca 10BD     		pop	{r4, pc}
 681              	.LVL107:
 682              	.L35:
 387:.\main.c      ****     } else if (strcmp(input_name, "G#4") == 0) {
 683              		.loc 1 387 0
 684 01cc 2046     		mov	r0, r4
 685 01ce 5549     		ldr	r1, .L66+56
 686 01d0 FFF7FEFF 		bl	strcmp
 687              	.LVL108:
 688 01d4 98B9     		cbnz	r0, .L36
 388:.\main.c      ****         GUI_FillEllipse(SCREEN_WIDTH/2, TOP_MARGIN + 6*NOTE_SPACING, NOTE_WIDTH, NOTE_HEIGHT);
 689              		.loc 1 388 0
 690 01d6 7820     		movs	r0, #120
ARM GAS  C:\Users\IVYLIU~1\AppData\Local\Temp\ccHkDCQn.s 			page 20


 691 01d8 4121     		movs	r1, #65
 692 01da 0C22     		movs	r2, #12
 693 01dc 0823     		movs	r3, #8
 694 01de FFF7FEFF 		bl	GUI_FillEllipse
 695              	.LVL109:
 389:.\main.c      ****         GUI_DispStringAt("G#4", text_x, text_y);
 696              		.loc 1 389 0
 697 01e2 5048     		ldr	r0, .L66+56
 698 01e4 7821     		movs	r1, #120
 699 01e6 F022     		movs	r2, #240
 700 01e8 FFF7FEFF 		bl	GUI_DispStringAt
 701              	.LVL110:
 390:.\main.c      **** 
 391:.\main.c      ****         GUI_SetFont(&GUI_Font24B_ASCII);
 702              		.loc 1 391 0
 703 01ec 4248     		ldr	r0, .L66+12
 704 01ee FFF7FEFF 		bl	GUI_SetFont
 705              	.LVL111:
 392:.\main.c      ****         GUI_DispStringAt("#", SCREEN_WIDTH/2 + 2*NOTE_WIDTH, TOP_MARGIN + 6*NOTE_SPACING);
 706              		.loc 1 392 0
 707 01f2 4248     		ldr	r0, .L66+16
 708 01f4 9021     		movs	r1, #144
 709 01f6 4122     		movs	r2, #65
 710 01f8 FFF7FEFF 		bl	GUI_DispStringAt
 711              	.LVL112:
 712 01fc 10BD     		pop	{r4, pc}
 713              	.LVL113:
 714              	.L36:
 393:.\main.c      ****     } else if (strcmp(input_name, "G4") == 0) {
 715              		.loc 1 393 0
 716 01fe 2046     		mov	r0, r4
 717 0200 4949     		ldr	r1, .L66+60
 718 0202 FFF7FEFF 		bl	strcmp
 719              	.LVL114:
 720 0206 58B9     		cbnz	r0, .L37
 394:.\main.c      ****         GUI_FillEllipse(SCREEN_WIDTH/2, TOP_MARGIN + 6*NOTE_SPACING, NOTE_WIDTH, NOTE_HEIGHT);
 721              		.loc 1 394 0
 722 0208 7820     		movs	r0, #120
 723 020a 4121     		movs	r1, #65
 724 020c 0C22     		movs	r2, #12
 725 020e 0823     		movs	r3, #8
 726 0210 FFF7FEFF 		bl	GUI_FillEllipse
 727              	.LVL115:
 395:.\main.c      ****         GUI_DispStringAt("G4", text_x, text_y);
 728              		.loc 1 395 0
 729 0214 4448     		ldr	r0, .L66+60
 730 0216 7821     		movs	r1, #120
 731 0218 F022     		movs	r2, #240
 732 021a FFF7FEFF 		bl	GUI_DispStringAt
 733              	.LVL116:
 734 021e 10BD     		pop	{r4, pc}
 735              	.LVL117:
 736              	.L37:
 396:.\main.c      ****     } else if (strcmp(input_name, "F#4") == 0) {
 737              		.loc 1 396 0
 738 0220 2046     		mov	r0, r4
 739 0222 4249     		ldr	r1, .L66+64
ARM GAS  C:\Users\IVYLIU~1\AppData\Local\Temp\ccHkDCQn.s 			page 21


 740 0224 FFF7FEFF 		bl	strcmp
 741              	.LVL118:
 742 0228 98B9     		cbnz	r0, .L38
 397:.\main.c      ****         GUI_FillEllipse(SCREEN_WIDTH/2, TOP_MARGIN + 7*NOTE_SPACING, NOTE_WIDTH, NOTE_HEIGHT);
 743              		.loc 1 397 0
 744 022a 7820     		movs	r0, #120
 745 022c 4821     		movs	r1, #72
 746 022e 0C22     		movs	r2, #12
 747 0230 0823     		movs	r3, #8
 748 0232 FFF7FEFF 		bl	GUI_FillEllipse
 749              	.LVL119:
 398:.\main.c      ****         GUI_DispStringAt("F#4", text_x, text_y);
 750              		.loc 1 398 0
 751 0236 3D48     		ldr	r0, .L66+64
 752 0238 7821     		movs	r1, #120
 753 023a F022     		movs	r2, #240
 754 023c FFF7FEFF 		bl	GUI_DispStringAt
 755              	.LVL120:
 399:.\main.c      **** 
 400:.\main.c      ****         GUI_SetFont(&GUI_Font24B_ASCII);
 756              		.loc 1 400 0
 757 0240 2D48     		ldr	r0, .L66+12
 758 0242 FFF7FEFF 		bl	GUI_SetFont
 759              	.LVL121:
 401:.\main.c      ****         GUI_DispStringAt("#", SCREEN_WIDTH/2 + 2*NOTE_WIDTH, TOP_MARGIN + 7*NOTE_SPACING);
 760              		.loc 1 401 0
 761 0246 2D48     		ldr	r0, .L66+16
 762 0248 9021     		movs	r1, #144
 763 024a 4822     		movs	r2, #72
 764 024c FFF7FEFF 		bl	GUI_DispStringAt
 765              	.LVL122:
 766 0250 10BD     		pop	{r4, pc}
 767              	.LVL123:
 768              	.L38:
 402:.\main.c      ****     } else if (strcmp(input_name, "F4") == 0) {
 769              		.loc 1 402 0
 770 0252 2046     		mov	r0, r4
 771 0254 3649     		ldr	r1, .L66+68
 772 0256 FFF7FEFF 		bl	strcmp
 773              	.LVL124:
 774 025a 58B9     		cbnz	r0, .L39
 403:.\main.c      ****         GUI_FillEllipse(SCREEN_WIDTH/2, TOP_MARGIN + 7*NOTE_SPACING, NOTE_WIDTH, NOTE_HEIGHT);
 775              		.loc 1 403 0
 776 025c 7820     		movs	r0, #120
 777 025e 4821     		movs	r1, #72
 778 0260 0C22     		movs	r2, #12
 779 0262 0823     		movs	r3, #8
 780 0264 FFF7FEFF 		bl	GUI_FillEllipse
 781              	.LVL125:
 404:.\main.c      ****         GUI_DispStringAt("F4", text_x, text_y);
 782              		.loc 1 404 0
 783 0268 3148     		ldr	r0, .L66+68
 784 026a 7821     		movs	r1, #120
 785 026c F022     		movs	r2, #240
 786 026e FFF7FEFF 		bl	GUI_DispStringAt
 787              	.LVL126:
 788 0272 10BD     		pop	{r4, pc}
ARM GAS  C:\Users\IVYLIU~1\AppData\Local\Temp\ccHkDCQn.s 			page 22


 789              	.LVL127:
 790              	.L39:
 405:.\main.c      ****     } else if (strcmp(input_name, "E4") == 0) {
 791              		.loc 1 405 0
 792 0274 2046     		mov	r0, r4
 793 0276 2F49     		ldr	r1, .L66+72
 794 0278 FFF7FEFF 		bl	strcmp
 795              	.LVL128:
 796 027c 58B9     		cbnz	r0, .L40
 406:.\main.c      ****         GUI_FillEllipse(SCREEN_WIDTH/2, TOP_MARGIN + 8*NOTE_SPACING, NOTE_WIDTH, NOTE_HEIGHT);
 797              		.loc 1 406 0
 798 027e 7820     		movs	r0, #120
 799 0280 5021     		movs	r1, #80
 800 0282 0C22     		movs	r2, #12
 801 0284 0823     		movs	r3, #8
 802 0286 FFF7FEFF 		bl	GUI_FillEllipse
 803              	.LVL129:
 407:.\main.c      ****         GUI_DispStringAt("E4", text_x, text_y);
 804              		.loc 1 407 0
 805 028a 2A48     		ldr	r0, .L66+72
 806 028c 7821     		movs	r1, #120
 807 028e F022     		movs	r2, #240
 808 0290 FFF7FEFF 		bl	GUI_DispStringAt
 809              	.LVL130:
 810 0294 10BD     		pop	{r4, pc}
 811              	.LVL131:
 812              	.L40:
 408:.\main.c      ****     } else if (strcmp(input_name, "D#4") == 0) {
 813              		.loc 1 408 0
 814 0296 2046     		mov	r0, r4
 815 0298 2749     		ldr	r1, .L66+76
 816 029a FFF7FEFF 		bl	strcmp
 817              	.LVL132:
 818 029e 98B9     		cbnz	r0, .L41
 409:.\main.c      ****         GUI_FillEllipse(SCREEN_WIDTH/2, TOP_MARGIN + 9*NOTE_SPACING, NOTE_WIDTH, NOTE_HEIGHT);
 819              		.loc 1 409 0
 820 02a0 7820     		movs	r0, #120
 821 02a2 5721     		movs	r1, #87
 822 02a4 0C22     		movs	r2, #12
 823 02a6 0823     		movs	r3, #8
 824 02a8 FFF7FEFF 		bl	GUI_FillEllipse
 825              	.LVL133:
 410:.\main.c      ****         GUI_DispStringAt("D#4", text_x, text_y);
 826              		.loc 1 410 0
 827 02ac 2248     		ldr	r0, .L66+76
 828 02ae 7821     		movs	r1, #120
 829 02b0 F022     		movs	r2, #240
 830 02b2 FFF7FEFF 		bl	GUI_DispStringAt
 831              	.LVL134:
 411:.\main.c      **** 
 412:.\main.c      ****         GUI_SetFont(&GUI_Font24B_ASCII);
 832              		.loc 1 412 0
 833 02b6 1048     		ldr	r0, .L66+12
 834 02b8 FFF7FEFF 		bl	GUI_SetFont
 835              	.LVL135:
 413:.\main.c      ****         GUI_DispStringAt("#", SCREEN_WIDTH/2 + 2*NOTE_WIDTH, TOP_MARGIN + 9*NOTE_SPACING);
 836              		.loc 1 413 0
ARM GAS  C:\Users\IVYLIU~1\AppData\Local\Temp\ccHkDCQn.s 			page 23


 837 02bc 0F48     		ldr	r0, .L66+16
 838 02be 9021     		movs	r1, #144
 839 02c0 5722     		movs	r2, #87
 840 02c2 FFF7FEFF 		bl	GUI_DispStringAt
 841              	.LVL136:
 842 02c6 10BD     		pop	{r4, pc}
 843              	.LVL137:
 844              	.L41:
 414:.\main.c      ****     } else if (strcmp(input_name, "D4") == 0) {
 845              		.loc 1 414 0
 846 02c8 2046     		mov	r0, r4
 847 02ca 1C49     		ldr	r1, .L66+80
 848 02cc FFF7FEFF 		bl	strcmp
 849              	.LVL138:
 850 02d0 B0BB     		cbnz	r0, .L42
 415:.\main.c      ****         GUI_FillEllipse(SCREEN_WIDTH/2, TOP_MARGIN + 9*NOTE_SPACING, NOTE_WIDTH, NOTE_HEIGHT);
 851              		.loc 1 415 0
 852 02d2 7820     		movs	r0, #120
 853 02d4 5721     		movs	r1, #87
 854 02d6 0C22     		movs	r2, #12
 855 02d8 0823     		movs	r3, #8
 856 02da FFF7FEFF 		bl	GUI_FillEllipse
 857              	.LVL139:
 416:.\main.c      ****         GUI_DispStringAt("D4", text_x, text_y);
 858              		.loc 1 416 0
 859 02de 1748     		ldr	r0, .L66+80
 860 02e0 7821     		movs	r1, #120
 861 02e2 F022     		movs	r2, #240
 862 02e4 FFF7FEFF 		bl	GUI_DispStringAt
 863              	.LVL140:
 864 02e8 10BD     		pop	{r4, pc}
 865              	.LVL141:
 866              	.L67:
 867 02ea 00BF     		.align	2
 868              	.L66:
 869 02ec 00000000 		.word	GUI_Font32B_ASCII
 870 02f0 9C000000 		.word	.LC8
 871 02f4 A0000000 		.word	.LC9
 872 02f8 00000000 		.word	GUI_Font24B_ASCII
 873 02fc A4000000 		.word	.LC10
 874 0300 A8000000 		.word	.LC11
 875 0304 AC000000 		.word	.LC12
 876 0308 B0000000 		.word	.LC13
 877 030c B4000000 		.word	.LC14
 878 0310 B8000000 		.word	.LC15
 879 0314 BC000000 		.word	.LC16
 880 0318 C0000000 		.word	.LC17
 881 031c C4000000 		.word	.LC18
 882 0320 C8000000 		.word	.LC19
 883 0324 CC000000 		.word	.LC20
 884 0328 D0000000 		.word	.LC21
 885 032c D4000000 		.word	.LC22
 886 0330 D8000000 		.word	.LC23
 887 0334 DC000000 		.word	.LC24
 888 0338 E0000000 		.word	.LC25
 889 033c E4000000 		.word	.LC26
 890              	.LVL142:
ARM GAS  C:\Users\IVYLIU~1\AppData\Local\Temp\ccHkDCQn.s 			page 24


 891              	.L42:
 417:.\main.c      ****     } else if (strcmp(input_name, "C#4") == 0) {
 892              		.loc 1 417 0
 893 0340 2046     		mov	r0, r4
 894 0342 BD49     		ldr	r1, .L68
 895 0344 FFF7FEFF 		bl	strcmp
 896              	.LVL143:
 897 0348 98B9     		cbnz	r0, .L43
 418:.\main.c      ****         GUI_FillEllipse(SCREEN_WIDTH/2, TOP_MARGIN + 10*NOTE_SPACING, NOTE_WIDTH, NOTE_HEIGHT);
 898              		.loc 1 418 0
 899 034a 7820     		movs	r0, #120
 900 034c 5F21     		movs	r1, #95
 901 034e 0C22     		movs	r2, #12
 902 0350 0823     		movs	r3, #8
 903 0352 FFF7FEFF 		bl	GUI_FillEllipse
 904              	.LVL144:
 419:.\main.c      ****         GUI_DispStringAt("C#4", text_x, text_y);
 905              		.loc 1 419 0
 906 0356 B848     		ldr	r0, .L68
 907 0358 7821     		movs	r1, #120
 908 035a F022     		movs	r2, #240
 909 035c FFF7FEFF 		bl	GUI_DispStringAt
 910              	.LVL145:
 420:.\main.c      **** 
 421:.\main.c      ****         GUI_SetFont(&GUI_Font24B_ASCII);
 911              		.loc 1 421 0
 912 0360 B648     		ldr	r0, .L68+4
 913 0362 FFF7FEFF 		bl	GUI_SetFont
 914              	.LVL146:
 422:.\main.c      ****         GUI_DispStringAt("#", SCREEN_WIDTH/2 + 2*NOTE_WIDTH, TOP_MARGIN + 10*NOTE_SPACING);
 915              		.loc 1 422 0
 916 0366 B648     		ldr	r0, .L68+8
 917 0368 9021     		movs	r1, #144
 918 036a 5F22     		movs	r2, #95
 919 036c FFF7FEFF 		bl	GUI_DispStringAt
 920              	.LVL147:
 921 0370 10BD     		pop	{r4, pc}
 922              	.LVL148:
 923              	.L43:
 423:.\main.c      ****     } else if (strcmp(input_name, "C4") == 0) { //Middle C
 924              		.loc 1 423 0
 925 0372 2046     		mov	r0, r4
 926 0374 B349     		ldr	r1, .L68+12
 927 0376 FFF7FEFF 		bl	strcmp
 928              	.LVL149:
 929 037a 58B9     		cbnz	r0, .L44
 424:.\main.c      ****         GUI_FillEllipse(SCREEN_WIDTH/2, TOP_MARGIN + 10*NOTE_HEIGHT, NOTE_WIDTH, NOTE_HEIGHT);
 930              		.loc 1 424 0
 931 037c 7820     		movs	r0, #120
 932 037e 6421     		movs	r1, #100
 933 0380 0C22     		movs	r2, #12
 934 0382 0823     		movs	r3, #8
 935 0384 FFF7FEFF 		bl	GUI_FillEllipse
 936              	.LVL150:
 425:.\main.c      ****         GUI_DispStringAt("C4", text_x, text_y);
 937              		.loc 1 425 0
 938 0388 AE48     		ldr	r0, .L68+12
ARM GAS  C:\Users\IVYLIU~1\AppData\Local\Temp\ccHkDCQn.s 			page 25


 939 038a 7821     		movs	r1, #120
 940 038c F022     		movs	r2, #240
 941 038e FFF7FEFF 		bl	GUI_DispStringAt
 942              	.LVL151:
 943 0392 10BD     		pop	{r4, pc}
 944              	.LVL152:
 945              	.L44:
 426:.\main.c      ****     } else if (strcmp(input_name, "B3") == 0) {
 946              		.loc 1 426 0
 947 0394 2046     		mov	r0, r4
 948 0396 AC49     		ldr	r1, .L68+16
 949 0398 FFF7FEFF 		bl	strcmp
 950              	.LVL153:
 951 039c 58B9     		cbnz	r0, .L45
 427:.\main.c      ****         GUI_FillEllipse(SCREEN_WIDTH/2, LOWER_OFFSET - NOTE_SPACING, NOTE_WIDTH, NOTE_HEIGHT);
 952              		.loc 1 427 0
 953 039e 7820     		movs	r0, #120
 954 03a0 7121     		movs	r1, #113
 955 03a2 0C22     		movs	r2, #12
 956 03a4 0823     		movs	r3, #8
 957 03a6 FFF7FEFF 		bl	GUI_FillEllipse
 958              	.LVL154:
 428:.\main.c      ****         GUI_DispStringAt("B3", text_x, text_y);
 959              		.loc 1 428 0
 960 03aa A748     		ldr	r0, .L68+16
 961 03ac 7821     		movs	r1, #120
 962 03ae F022     		movs	r2, #240
 963 03b0 FFF7FEFF 		bl	GUI_DispStringAt
 964              	.LVL155:
 965 03b4 10BD     		pop	{r4, pc}
 966              	.LVL156:
 967              	.L45:
 429:.\main.c      ****     } else if (strcmp(input_name, "A#3") == 0) {
 968              		.loc 1 429 0
 969 03b6 2046     		mov	r0, r4
 970 03b8 A449     		ldr	r1, .L68+20
 971 03ba FFF7FEFF 		bl	strcmp
 972              	.LVL157:
 973 03be 98B9     		cbnz	r0, .L46
 430:.\main.c      ****         GUI_FillEllipse(SCREEN_WIDTH/2, LOWER_OFFSET, NOTE_WIDTH, NOTE_HEIGHT);
 974              		.loc 1 430 0
 975 03c0 7820     		movs	r0, #120
 976 03c2 0146     		mov	r1, r0
 977 03c4 0C22     		movs	r2, #12
 978 03c6 0823     		movs	r3, #8
 979 03c8 FFF7FEFF 		bl	GUI_FillEllipse
 980              	.LVL158:
 431:.\main.c      ****         GUI_DispStringAt("A#3", text_x, text_y);
 981              		.loc 1 431 0
 982 03cc 9F48     		ldr	r0, .L68+20
 983 03ce 7821     		movs	r1, #120
 984 03d0 F022     		movs	r2, #240
 985 03d2 FFF7FEFF 		bl	GUI_DispStringAt
 986              	.LVL159:
 432:.\main.c      **** 
 433:.\main.c      ****         GUI_SetFont(&GUI_Font24B_ASCII);
 987              		.loc 1 433 0
ARM GAS  C:\Users\IVYLIU~1\AppData\Local\Temp\ccHkDCQn.s 			page 26


 988 03d6 9948     		ldr	r0, .L68+4
 989 03d8 FFF7FEFF 		bl	GUI_SetFont
 990              	.LVL160:
 434:.\main.c      ****         GUI_DispStringAt("#", SCREEN_WIDTH/2 + 2*NOTE_WIDTH, LOWER_OFFSET);
 991              		.loc 1 434 0
 992 03dc 9848     		ldr	r0, .L68+8
 993 03de 9021     		movs	r1, #144
 994 03e0 7822     		movs	r2, #120
 995 03e2 FFF7FEFF 		bl	GUI_DispStringAt
 996              	.LVL161:
 997 03e6 10BD     		pop	{r4, pc}
 998              	.LVL162:
 999              	.L46:
 435:.\main.c      ****     } else if (strcmp(input_name, "A3") == 0) {
 1000              		.loc 1 435 0
 1001 03e8 2046     		mov	r0, r4
 1002 03ea 9949     		ldr	r1, .L68+24
 1003 03ec FFF7FEFF 		bl	strcmp
 1004              	.LVL163:
 1005 03f0 58B9     		cbnz	r0, .L47
 436:.\main.c      ****         GUI_FillEllipse(SCREEN_WIDTH/2, LOWER_OFFSET, NOTE_WIDTH, NOTE_HEIGHT);
 1006              		.loc 1 436 0
 1007 03f2 7820     		movs	r0, #120
 1008 03f4 0146     		mov	r1, r0
 1009 03f6 0C22     		movs	r2, #12
 1010 03f8 0823     		movs	r3, #8
 1011 03fa FFF7FEFF 		bl	GUI_FillEllipse
 1012              	.LVL164:
 437:.\main.c      ****         GUI_DispStringAt("A3", text_x, text_y);
 1013              		.loc 1 437 0
 1014 03fe 9448     		ldr	r0, .L68+24
 1015 0400 7821     		movs	r1, #120
 1016 0402 F022     		movs	r2, #240
 1017 0404 FFF7FEFF 		bl	GUI_DispStringAt
 1018              	.LVL165:
 1019 0408 10BD     		pop	{r4, pc}
 1020              	.LVL166:
 1021              	.L47:
 438:.\main.c      ****     } else if (strcmp(input_name, "G#3") == 0) {
 1022              		.loc 1 438 0
 1023 040a 2046     		mov	r0, r4
 1024 040c 9149     		ldr	r1, .L68+28
 1025 040e FFF7FEFF 		bl	strcmp
 1026              	.LVL167:
 1027 0412 98B9     		cbnz	r0, .L48
 439:.\main.c      ****         GUI_FillEllipse(SCREEN_WIDTH/2, LOWER_OFFSET + NOTE_SPACING, NOTE_WIDTH, NOTE_HEIGHT);
 1028              		.loc 1 439 0
 1029 0414 7820     		movs	r0, #120
 1030 0416 7F21     		movs	r1, #127
 1031 0418 0C22     		movs	r2, #12
 1032 041a 0823     		movs	r3, #8
 1033 041c FFF7FEFF 		bl	GUI_FillEllipse
 1034              	.LVL168:
 440:.\main.c      ****         GUI_DispStringAt("G#3", text_x, text_y);
 1035              		.loc 1 440 0
 1036 0420 8C48     		ldr	r0, .L68+28
 1037 0422 7821     		movs	r1, #120
ARM GAS  C:\Users\IVYLIU~1\AppData\Local\Temp\ccHkDCQn.s 			page 27


 1038 0424 F022     		movs	r2, #240
 1039 0426 FFF7FEFF 		bl	GUI_DispStringAt
 1040              	.LVL169:
 441:.\main.c      **** 
 442:.\main.c      ****         GUI_SetFont(&GUI_Font24B_ASCII);
 1041              		.loc 1 442 0
 1042 042a 8448     		ldr	r0, .L68+4
 1043 042c FFF7FEFF 		bl	GUI_SetFont
 1044              	.LVL170:
 443:.\main.c      ****         GUI_DispStringAt("#", SCREEN_WIDTH/2 + 2*NOTE_WIDTH, LOWER_OFFSET + NOTE_SPACING);
 1045              		.loc 1 443 0
 1046 0430 8348     		ldr	r0, .L68+8
 1047 0432 9021     		movs	r1, #144
 1048 0434 7F22     		movs	r2, #127
 1049 0436 FFF7FEFF 		bl	GUI_DispStringAt
 1050              	.LVL171:
 1051 043a 10BD     		pop	{r4, pc}
 1052              	.LVL172:
 1053              	.L48:
 444:.\main.c      ****     } else if (strcmp(input_name, "G3") == 0) {
 1054              		.loc 1 444 0
 1055 043c 2046     		mov	r0, r4
 1056 043e 8649     		ldr	r1, .L68+32
 1057 0440 FFF7FEFF 		bl	strcmp
 1058              	.LVL173:
 1059 0444 58B9     		cbnz	r0, .L49
 445:.\main.c      ****         GUI_FillEllipse(SCREEN_WIDTH/2, LOWER_OFFSET + NOTE_SPACING, NOTE_WIDTH, NOTE_HEIGHT);
 1060              		.loc 1 445 0
 1061 0446 7820     		movs	r0, #120
 1062 0448 7F21     		movs	r1, #127
 1063 044a 0C22     		movs	r2, #12
 1064 044c 0823     		movs	r3, #8
 1065 044e FFF7FEFF 		bl	GUI_FillEllipse
 1066              	.LVL174:
 446:.\main.c      ****         GUI_DispStringAt("G3", text_x, text_y);
 1067              		.loc 1 446 0
 1068 0452 8148     		ldr	r0, .L68+32
 1069 0454 7821     		movs	r1, #120
 1070 0456 F022     		movs	r2, #240
 1071 0458 FFF7FEFF 		bl	GUI_DispStringAt
 1072              	.LVL175:
 1073 045c 10BD     		pop	{r4, pc}
 1074              	.LVL176:
 1075              	.L49:
 447:.\main.c      ****     } else if (strcmp(input_name, "F#3") == 0) {
 1076              		.loc 1 447 0
 1077 045e 2046     		mov	r0, r4
 1078 0460 7E49     		ldr	r1, .L68+36
 1079 0462 FFF7FEFF 		bl	strcmp
 1080              	.LVL177:
 1081 0466 98B9     		cbnz	r0, .L50
 448:.\main.c      ****         GUI_FillEllipse(SCREEN_WIDTH/2, LOWER_OFFSET + 2*NOTE_SPACING, NOTE_WIDTH, NOTE_HEIGHT);
 1082              		.loc 1 448 0
 1083 0468 7820     		movs	r0, #120
 1084 046a 8721     		movs	r1, #135
 1085 046c 0C22     		movs	r2, #12
 1086 046e 0823     		movs	r3, #8
ARM GAS  C:\Users\IVYLIU~1\AppData\Local\Temp\ccHkDCQn.s 			page 28


 1087 0470 FFF7FEFF 		bl	GUI_FillEllipse
 1088              	.LVL178:
 449:.\main.c      ****         GUI_DispStringAt("F#3", text_x, text_y);
 1089              		.loc 1 449 0
 1090 0474 7948     		ldr	r0, .L68+36
 1091 0476 7821     		movs	r1, #120
 1092 0478 F022     		movs	r2, #240
 1093 047a FFF7FEFF 		bl	GUI_DispStringAt
 1094              	.LVL179:
 450:.\main.c      **** 
 451:.\main.c      ****         GUI_SetFont(&GUI_Font24B_ASCII);
 1095              		.loc 1 451 0
 1096 047e 6F48     		ldr	r0, .L68+4
 1097 0480 FFF7FEFF 		bl	GUI_SetFont
 1098              	.LVL180:
 452:.\main.c      ****         GUI_DispStringAt("#", SCREEN_WIDTH/2 + 2*NOTE_WIDTH, LOWER_OFFSET + 2*NOTE_SPACING);
 1099              		.loc 1 452 0
 1100 0484 6E48     		ldr	r0, .L68+8
 1101 0486 9021     		movs	r1, #144
 1102 0488 8722     		movs	r2, #135
 1103 048a FFF7FEFF 		bl	GUI_DispStringAt
 1104              	.LVL181:
 1105 048e 10BD     		pop	{r4, pc}
 1106              	.LVL182:
 1107              	.L50:
 453:.\main.c      ****     } else if (strcmp(input_name, "F3") == 0) {
 1108              		.loc 1 453 0
 1109 0490 2046     		mov	r0, r4
 1110 0492 7349     		ldr	r1, .L68+40
 1111 0494 FFF7FEFF 		bl	strcmp
 1112              	.LVL183:
 1113 0498 58B9     		cbnz	r0, .L51
 454:.\main.c      ****         GUI_FillEllipse(SCREEN_WIDTH/2, LOWER_OFFSET + 2*NOTE_SPACING, NOTE_WIDTH, NOTE_HEIGHT);
 1114              		.loc 1 454 0
 1115 049a 7820     		movs	r0, #120
 1116 049c 8721     		movs	r1, #135
 1117 049e 0C22     		movs	r2, #12
 1118 04a0 0823     		movs	r3, #8
 1119 04a2 FFF7FEFF 		bl	GUI_FillEllipse
 1120              	.LVL184:
 455:.\main.c      ****         GUI_DispStringAt("F3", text_x, text_y);
 1121              		.loc 1 455 0
 1122 04a6 6E48     		ldr	r0, .L68+40
 1123 04a8 7821     		movs	r1, #120
 1124 04aa F022     		movs	r2, #240
 1125 04ac FFF7FEFF 		bl	GUI_DispStringAt
 1126              	.LVL185:
 1127 04b0 10BD     		pop	{r4, pc}
 1128              	.LVL186:
 1129              	.L51:
 456:.\main.c      ****     } else if (strcmp(input_name, "E3") == 0) {
 1130              		.loc 1 456 0
 1131 04b2 2046     		mov	r0, r4
 1132 04b4 6B49     		ldr	r1, .L68+44
 1133 04b6 FFF7FEFF 		bl	strcmp
 1134              	.LVL187:
 1135 04ba 58B9     		cbnz	r0, .L52
ARM GAS  C:\Users\IVYLIU~1\AppData\Local\Temp\ccHkDCQn.s 			page 29


 457:.\main.c      ****         GUI_FillEllipse(SCREEN_WIDTH/2, LOWER_OFFSET + 3*NOTE_SPACING, NOTE_WIDTH, NOTE_HEIGHT);
 1136              		.loc 1 457 0
 1137 04bc 7820     		movs	r0, #120
 1138 04be 8E21     		movs	r1, #142
 1139 04c0 0C22     		movs	r2, #12
 1140 04c2 0823     		movs	r3, #8
 1141 04c4 FFF7FEFF 		bl	GUI_FillEllipse
 1142              	.LVL188:
 458:.\main.c      ****         GUI_DispStringAt("E3", text_x, text_y);
 1143              		.loc 1 458 0
 1144 04c8 6648     		ldr	r0, .L68+44
 1145 04ca 7821     		movs	r1, #120
 1146 04cc F022     		movs	r2, #240
 1147 04ce FFF7FEFF 		bl	GUI_DispStringAt
 1148              	.LVL189:
 1149 04d2 10BD     		pop	{r4, pc}
 1150              	.LVL190:
 1151              	.L52:
 459:.\main.c      ****     } else if (strcmp(input_name, "D#3") == 0) {
 1152              		.loc 1 459 0
 1153 04d4 2046     		mov	r0, r4
 1154 04d6 6449     		ldr	r1, .L68+48
 1155 04d8 FFF7FEFF 		bl	strcmp
 1156              	.LVL191:
 1157 04dc 98B9     		cbnz	r0, .L53
 460:.\main.c      ****         GUI_FillEllipse(SCREEN_WIDTH/2, LOWER_OFFSET + 4*NOTE_SPACING, NOTE_WIDTH, NOTE_HEIGHT);
 1158              		.loc 1 460 0
 1159 04de 7820     		movs	r0, #120
 1160 04e0 9621     		movs	r1, #150
 1161 04e2 0C22     		movs	r2, #12
 1162 04e4 0823     		movs	r3, #8
 1163 04e6 FFF7FEFF 		bl	GUI_FillEllipse
 1164              	.LVL192:
 461:.\main.c      ****         GUI_DispStringAt("D#3", text_x, text_y);
 1165              		.loc 1 461 0
 1166 04ea 5F48     		ldr	r0, .L68+48
 1167 04ec 7821     		movs	r1, #120
 1168 04ee F022     		movs	r2, #240
 1169 04f0 FFF7FEFF 		bl	GUI_DispStringAt
 1170              	.LVL193:
 462:.\main.c      **** 
 463:.\main.c      ****         GUI_SetFont(&GUI_Font24B_ASCII);
 1171              		.loc 1 463 0
 1172 04f4 5148     		ldr	r0, .L68+4
 1173 04f6 FFF7FEFF 		bl	GUI_SetFont
 1174              	.LVL194:
 464:.\main.c      ****         GUI_DispStringAt("#", SCREEN_WIDTH/2 + 2*NOTE_WIDTH, LOWER_OFFSET + 4*NOTE_SPACING);
 1175              		.loc 1 464 0
 1176 04fa 5148     		ldr	r0, .L68+8
 1177 04fc 9021     		movs	r1, #144
 1178 04fe 9622     		movs	r2, #150
 1179 0500 FFF7FEFF 		bl	GUI_DispStringAt
 1180              	.LVL195:
 1181 0504 10BD     		pop	{r4, pc}
 1182              	.LVL196:
 1183              	.L53:
 465:.\main.c      ****     } else if (strcmp(input_name, "D3") == 0) {
ARM GAS  C:\Users\IVYLIU~1\AppData\Local\Temp\ccHkDCQn.s 			page 30


 1184              		.loc 1 465 0
 1185 0506 2046     		mov	r0, r4
 1186 0508 5849     		ldr	r1, .L68+52
 1187 050a FFF7FEFF 		bl	strcmp
 1188              	.LVL197:
 1189 050e 58B9     		cbnz	r0, .L54
 466:.\main.c      ****         GUI_FillEllipse(SCREEN_WIDTH/2, LOWER_OFFSET + 4*NOTE_SPACING, NOTE_WIDTH, NOTE_HEIGHT);
 1190              		.loc 1 466 0
 1191 0510 7820     		movs	r0, #120
 1192 0512 9621     		movs	r1, #150
 1193 0514 0C22     		movs	r2, #12
 1194 0516 0823     		movs	r3, #8
 1195 0518 FFF7FEFF 		bl	GUI_FillEllipse
 1196              	.LVL198:
 467:.\main.c      ****         GUI_DispStringAt("D3", text_x, text_y);
 1197              		.loc 1 467 0
 1198 051c 5348     		ldr	r0, .L68+52
 1199 051e 7821     		movs	r1, #120
 1200 0520 F022     		movs	r2, #240
 1201 0522 FFF7FEFF 		bl	GUI_DispStringAt
 1202              	.LVL199:
 1203 0526 10BD     		pop	{r4, pc}
 1204              	.LVL200:
 1205              	.L54:
 468:.\main.c      ****     } else if (strcmp(input_name, "C#3") == 0) {
 1206              		.loc 1 468 0
 1207 0528 2046     		mov	r0, r4
 1208 052a 5149     		ldr	r1, .L68+56
 1209 052c FFF7FEFF 		bl	strcmp
 1210              	.LVL201:
 1211 0530 98B9     		cbnz	r0, .L55
 469:.\main.c      ****         GUI_FillEllipse(SCREEN_WIDTH/2, LOWER_OFFSET + 5*NOTE_SPACING, NOTE_WIDTH, NOTE_HEIGHT);
 1212              		.loc 1 469 0
 1213 0532 7820     		movs	r0, #120
 1214 0534 9D21     		movs	r1, #157
 1215 0536 0C22     		movs	r2, #12
 1216 0538 0823     		movs	r3, #8
 1217 053a FFF7FEFF 		bl	GUI_FillEllipse
 1218              	.LVL202:
 470:.\main.c      ****         GUI_DispStringAt("C#3", text_x, text_y);
 1219              		.loc 1 470 0
 1220 053e 4C48     		ldr	r0, .L68+56
 1221 0540 7821     		movs	r1, #120
 1222 0542 F022     		movs	r2, #240
 1223 0544 FFF7FEFF 		bl	GUI_DispStringAt
 1224              	.LVL203:
 471:.\main.c      **** 
 472:.\main.c      ****         GUI_SetFont(&GUI_Font24B_ASCII);
 1225              		.loc 1 472 0
 1226 0548 3C48     		ldr	r0, .L68+4
 1227 054a FFF7FEFF 		bl	GUI_SetFont
 1228              	.LVL204:
 473:.\main.c      ****         GUI_DispStringAt("#", SCREEN_WIDTH/2 + 2*NOTE_WIDTH, LOWER_OFFSET + 5*NOTE_SPACING);
 1229              		.loc 1 473 0
 1230 054e 3C48     		ldr	r0, .L68+8
 1231 0550 9021     		movs	r1, #144
 1232 0552 9D22     		movs	r2, #157
ARM GAS  C:\Users\IVYLIU~1\AppData\Local\Temp\ccHkDCQn.s 			page 31


 1233 0554 FFF7FEFF 		bl	GUI_DispStringAt
 1234              	.LVL205:
 1235 0558 10BD     		pop	{r4, pc}
 1236              	.LVL206:
 1237              	.L55:
 474:.\main.c      ****     } else if (strcmp(input_name, "C3") == 0) {
 1238              		.loc 1 474 0
 1239 055a 2046     		mov	r0, r4
 1240 055c 4549     		ldr	r1, .L68+60
 1241 055e FFF7FEFF 		bl	strcmp
 1242              	.LVL207:
 1243 0562 58B9     		cbnz	r0, .L56
 475:.\main.c      ****         GUI_FillEllipse(SCREEN_WIDTH/2, LOWER_OFFSET + 5*NOTE_SPACING, NOTE_WIDTH, NOTE_HEIGHT);
 1244              		.loc 1 475 0
 1245 0564 7820     		movs	r0, #120
 1246 0566 9D21     		movs	r1, #157
 1247 0568 0C22     		movs	r2, #12
 1248 056a 0823     		movs	r3, #8
 1249 056c FFF7FEFF 		bl	GUI_FillEllipse
 1250              	.LVL208:
 476:.\main.c      ****         GUI_DispStringAt("C3", text_x, text_y);
 1251              		.loc 1 476 0
 1252 0570 4048     		ldr	r0, .L68+60
 1253 0572 7821     		movs	r1, #120
 1254 0574 F022     		movs	r2, #240
 1255 0576 FFF7FEFF 		bl	GUI_DispStringAt
 1256              	.LVL209:
 1257 057a 10BD     		pop	{r4, pc}
 1258              	.LVL210:
 1259              	.L56:
 477:.\main.c      ****     } else if (strcmp(input_name, "B2") == 0) {
 1260              		.loc 1 477 0
 1261 057c 2046     		mov	r0, r4
 1262 057e 3E49     		ldr	r1, .L68+64
 1263 0580 FFF7FEFF 		bl	strcmp
 1264              	.LVL211:
 1265 0584 58B9     		cbnz	r0, .L57
 478:.\main.c      ****         GUI_FillEllipse(SCREEN_WIDTH/2, LOWER_OFFSET + 6*NOTE_SPACING, NOTE_WIDTH, NOTE_HEIGHT);
 1266              		.loc 1 478 0
 1267 0586 7820     		movs	r0, #120
 1268 0588 A521     		movs	r1, #165
 1269 058a 0C22     		movs	r2, #12
 1270 058c 0823     		movs	r3, #8
 1271 058e FFF7FEFF 		bl	GUI_FillEllipse
 1272              	.LVL212:
 479:.\main.c      ****         GUI_DispStringAt("B2", text_x, text_y);
 1273              		.loc 1 479 0
 1274 0592 3948     		ldr	r0, .L68+64
 1275 0594 7821     		movs	r1, #120
 1276 0596 F022     		movs	r2, #240
 1277 0598 FFF7FEFF 		bl	GUI_DispStringAt
 1278              	.LVL213:
 1279 059c 10BD     		pop	{r4, pc}
 1280              	.LVL214:
 1281              	.L57:
 480:.\main.c      ****     } else if (strcmp(input_name, "A#2") == 0) {
 1282              		.loc 1 480 0
ARM GAS  C:\Users\IVYLIU~1\AppData\Local\Temp\ccHkDCQn.s 			page 32


 1283 059e 2046     		mov	r0, r4
 1284 05a0 3649     		ldr	r1, .L68+68
 1285 05a2 FFF7FEFF 		bl	strcmp
 1286              	.LVL215:
 1287 05a6 98B9     		cbnz	r0, .L58
 481:.\main.c      ****         GUI_FillEllipse(SCREEN_WIDTH/2, LOWER_OFFSET + 7*NOTE_SPACING, NOTE_WIDTH, NOTE_HEIGHT);
 1288              		.loc 1 481 0
 1289 05a8 7820     		movs	r0, #120
 1290 05aa AC21     		movs	r1, #172
 1291 05ac 0C22     		movs	r2, #12
 1292 05ae 0823     		movs	r3, #8
 1293 05b0 FFF7FEFF 		bl	GUI_FillEllipse
 1294              	.LVL216:
 482:.\main.c      ****         GUI_DispStringAt("A#2", text_x, text_y);
 1295              		.loc 1 482 0
 1296 05b4 3148     		ldr	r0, .L68+68
 1297 05b6 7821     		movs	r1, #120
 1298 05b8 F022     		movs	r2, #240
 1299 05ba FFF7FEFF 		bl	GUI_DispStringAt
 1300              	.LVL217:
 483:.\main.c      **** 
 484:.\main.c      ****         GUI_SetFont(&GUI_Font24B_ASCII);
 1301              		.loc 1 484 0
 1302 05be 1F48     		ldr	r0, .L68+4
 1303 05c0 FFF7FEFF 		bl	GUI_SetFont
 1304              	.LVL218:
 485:.\main.c      ****         GUI_DispStringAt("#", SCREEN_WIDTH/2 + 2*NOTE_WIDTH, LOWER_OFFSET + 7*NOTE_SPACING);
 1305              		.loc 1 485 0
 1306 05c4 1E48     		ldr	r0, .L68+8
 1307 05c6 9021     		movs	r1, #144
 1308 05c8 AC22     		movs	r2, #172
 1309 05ca FFF7FEFF 		bl	GUI_DispStringAt
 1310              	.LVL219:
 1311 05ce 10BD     		pop	{r4, pc}
 1312              	.LVL220:
 1313              	.L58:
 486:.\main.c      ****     } else if (strcmp(input_name, "A2") == 0) {
 1314              		.loc 1 486 0
 1315 05d0 2046     		mov	r0, r4
 1316 05d2 2B49     		ldr	r1, .L68+72
 1317 05d4 FFF7FEFF 		bl	strcmp
 1318              	.LVL221:
 1319 05d8 58B9     		cbnz	r0, .L59
 487:.\main.c      ****         GUI_FillEllipse(SCREEN_WIDTH/2, LOWER_OFFSET + 7*NOTE_SPACING, NOTE_WIDTH, NOTE_HEIGHT);
 1320              		.loc 1 487 0
 1321 05da 7820     		movs	r0, #120
 1322 05dc AC21     		movs	r1, #172
 1323 05de 0C22     		movs	r2, #12
 1324 05e0 0823     		movs	r3, #8
 1325 05e2 FFF7FEFF 		bl	GUI_FillEllipse
 1326              	.LVL222:
 488:.\main.c      ****         GUI_DispStringAt("A2", text_x, text_y);
 1327              		.loc 1 488 0
 1328 05e6 2648     		ldr	r0, .L68+72
 1329 05e8 7821     		movs	r1, #120
 1330 05ea F022     		movs	r2, #240
 1331 05ec FFF7FEFF 		bl	GUI_DispStringAt
ARM GAS  C:\Users\IVYLIU~1\AppData\Local\Temp\ccHkDCQn.s 			page 33


 1332              	.LVL223:
 1333 05f0 10BD     		pop	{r4, pc}
 1334              	.LVL224:
 1335              	.L59:
 489:.\main.c      ****     } else if (strcmp(input_name, "G#2") == 0) {
 1336              		.loc 1 489 0
 1337 05f2 2046     		mov	r0, r4
 1338 05f4 2349     		ldr	r1, .L68+76
 1339 05f6 FFF7FEFF 		bl	strcmp
 1340              	.LVL225:
 1341 05fa 58B9     		cbnz	r0, .L60
 490:.\main.c      ****         GUI_FillEllipse(SCREEN_WIDTH/2, LOWER_OFFSET + 8*NOTE_SPACING, NOTE_WIDTH, NOTE_HEIGHT);
 1342              		.loc 1 490 0
 1343 05fc 7820     		movs	r0, #120
 1344 05fe B421     		movs	r1, #180
 1345 0600 0C22     		movs	r2, #12
 1346 0602 0823     		movs	r3, #8
 1347 0604 FFF7FEFF 		bl	GUI_FillEllipse
 1348              	.LVL226:
 491:.\main.c      ****         GUI_DispStringAt("G#2", text_x, text_y);
 1349              		.loc 1 491 0
 1350 0608 1E48     		ldr	r0, .L68+76
 1351 060a 7821     		movs	r1, #120
 1352 060c F022     		movs	r2, #240
 1353 060e FFF7FEFF 		bl	GUI_DispStringAt
 1354              	.LVL227:
 1355 0612 10BD     		pop	{r4, pc}
 1356              	.LVL228:
 1357              	.L60:
 492:.\main.c      ****     } else if (strcmp(input_name, "G2") == 0) {
 1358              		.loc 1 492 0
 1359 0614 2046     		mov	r0, r4
 1360 0616 1C49     		ldr	r1, .L68+80
 1361 0618 FFF7FEFF 		bl	strcmp
 1362              	.LVL229:
 1363 061c B0BB     		cbnz	r0, .L61
 493:.\main.c      ****         GUI_FillEllipse(SCREEN_WIDTH/2, LOWER_OFFSET + 8*NOTE_SPACING, NOTE_WIDTH, NOTE_HEIGHT);
 1364              		.loc 1 493 0
 1365 061e 7820     		movs	r0, #120
 1366 0620 B421     		movs	r1, #180
 1367 0622 0C22     		movs	r2, #12
 1368 0624 0823     		movs	r3, #8
 1369 0626 FFF7FEFF 		bl	GUI_FillEllipse
 1370              	.LVL230:
 494:.\main.c      ****         GUI_DispStringAt("G2", text_x, text_y);
 1371              		.loc 1 494 0
 1372 062a 1748     		ldr	r0, .L68+80
 1373 062c 7821     		movs	r1, #120
 1374 062e F022     		movs	r2, #240
 1375 0630 FFF7FEFF 		bl	GUI_DispStringAt
 1376              	.LVL231:
 1377 0634 10BD     		pop	{r4, pc}
 1378              	.LVL232:
 1379              	.L69:
 1380 0636 00BF     		.align	2
 1381              	.L68:
 1382 0638 E8000000 		.word	.LC27
ARM GAS  C:\Users\IVYLIU~1\AppData\Local\Temp\ccHkDCQn.s 			page 34


 1383 063c 00000000 		.word	GUI_Font24B_ASCII
 1384 0640 A4000000 		.word	.LC10
 1385 0644 EC000000 		.word	.LC28
 1386 0648 F0000000 		.word	.LC29
 1387 064c F4000000 		.word	.LC30
 1388 0650 F8000000 		.word	.LC31
 1389 0654 FC000000 		.word	.LC32
 1390 0658 00010000 		.word	.LC33
 1391 065c 04010000 		.word	.LC34
 1392 0660 08010000 		.word	.LC35
 1393 0664 0C010000 		.word	.LC36
 1394 0668 10010000 		.word	.LC37
 1395 066c 14010000 		.word	.LC38
 1396 0670 18010000 		.word	.LC39
 1397 0674 1C010000 		.word	.LC40
 1398 0678 20010000 		.word	.LC41
 1399 067c 24010000 		.word	.LC42
 1400 0680 28010000 		.word	.LC43
 1401 0684 2C010000 		.word	.LC44
 1402 0688 30010000 		.word	.LC45
 1403              	.LVL233:
 1404              	.L61:
 495:.\main.c      ****     } else if (strcmp(input_name, "F#2") == 0) {
 1405              		.loc 1 495 0
 1406 068c 2046     		mov	r0, r4
 1407 068e 2049     		ldr	r1, .L70
 1408 0690 FFF7FEFF 		bl	strcmp
 1409              	.LVL234:
 1410 0694 98B9     		cbnz	r0, .L62
 496:.\main.c      ****         GUI_FillEllipse(SCREEN_WIDTH/2, LOWER_OFFSET + 9*NOTE_SPACING, NOTE_WIDTH, NOTE_HEIGHT);
 1411              		.loc 1 496 0
 1412 0696 7820     		movs	r0, #120
 1413 0698 BB21     		movs	r1, #187
 1414 069a 0C22     		movs	r2, #12
 1415 069c 0823     		movs	r3, #8
 1416 069e FFF7FEFF 		bl	GUI_FillEllipse
 1417              	.LVL235:
 497:.\main.c      ****         GUI_DispStringAt("F#2", text_x, text_y);
 1418              		.loc 1 497 0
 1419 06a2 1B48     		ldr	r0, .L70
 1420 06a4 7821     		movs	r1, #120
 1421 06a6 F022     		movs	r2, #240
 1422 06a8 FFF7FEFF 		bl	GUI_DispStringAt
 1423              	.LVL236:
 498:.\main.c      **** 
 499:.\main.c      ****         GUI_SetFont(&GUI_Font24B_ASCII);
 1424              		.loc 1 499 0
 1425 06ac 1948     		ldr	r0, .L70+4
 1426 06ae FFF7FEFF 		bl	GUI_SetFont
 1427              	.LVL237:
 500:.\main.c      ****         GUI_DispStringAt("#", SCREEN_WIDTH/2 + 2*NOTE_WIDTH, LOWER_OFFSET + 9*NOTE_SPACING);
 1428              		.loc 1 500 0
 1429 06b2 1948     		ldr	r0, .L70+8
 1430 06b4 9021     		movs	r1, #144
 1431 06b6 BB22     		movs	r2, #187
 1432 06b8 FFF7FEFF 		bl	GUI_DispStringAt
 1433              	.LVL238:
ARM GAS  C:\Users\IVYLIU~1\AppData\Local\Temp\ccHkDCQn.s 			page 35


 1434 06bc 10BD     		pop	{r4, pc}
 1435              	.LVL239:
 1436              	.L62:
 501:.\main.c      ****     } else if (strcmp(input_name, "F2") == 0) {
 1437              		.loc 1 501 0
 1438 06be 2046     		mov	r0, r4
 1439 06c0 1649     		ldr	r1, .L70+12
 1440 06c2 FFF7FEFF 		bl	strcmp
 1441              	.LVL240:
 1442 06c6 58B9     		cbnz	r0, .L63
 502:.\main.c      ****         GUI_FillEllipse(SCREEN_WIDTH/2, LOWER_OFFSET + 9*NOTE_SPACING, NOTE_WIDTH, NOTE_HEIGHT);
 1443              		.loc 1 502 0
 1444 06c8 7820     		movs	r0, #120
 1445 06ca BB21     		movs	r1, #187
 1446 06cc 0C22     		movs	r2, #12
 1447 06ce 0823     		movs	r3, #8
 1448 06d0 FFF7FEFF 		bl	GUI_FillEllipse
 1449              	.LVL241:
 503:.\main.c      ****         GUI_DispStringAt("F2", text_x, text_y);
 1450              		.loc 1 503 0
 1451 06d4 1148     		ldr	r0, .L70+12
 1452 06d6 7821     		movs	r1, #120
 1453 06d8 F022     		movs	r2, #240
 1454 06da FFF7FEFF 		bl	GUI_DispStringAt
 1455              	.LVL242:
 1456 06de 10BD     		pop	{r4, pc}
 1457              	.LVL243:
 1458              	.L63:
 504:.\main.c      ****     } else if (strcmp(input_name, "E2") == 0) {
 1459              		.loc 1 504 0
 1460 06e0 2046     		mov	r0, r4
 1461 06e2 0F49     		ldr	r1, .L70+16
 1462 06e4 FFF7FEFF 		bl	strcmp
 1463              	.LVL244:
 1464 06e8 58B9     		cbnz	r0, .L64
 505:.\main.c      ****         GUI_FillEllipse(SCREEN_WIDTH/2, LOWER_OFFSET + 10*NOTE_SPACING, NOTE_WIDTH, NOTE_HEIGHT);
 1465              		.loc 1 505 0
 1466 06ea 7820     		movs	r0, #120
 1467 06ec C321     		movs	r1, #195
 1468 06ee 0C22     		movs	r2, #12
 1469 06f0 0823     		movs	r3, #8
 1470 06f2 FFF7FEFF 		bl	GUI_FillEllipse
 1471              	.LVL245:
 506:.\main.c      ****         GUI_DispStringAt("E2", text_x, text_y);
 1472              		.loc 1 506 0
 1473 06f6 0A48     		ldr	r0, .L70+16
 1474 06f8 7821     		movs	r1, #120
 1475 06fa F022     		movs	r2, #240
 1476 06fc FFF7FEFF 		bl	GUI_DispStringAt
 1477              	.LVL246:
 1478 0700 10BD     		pop	{r4, pc}
 1479              	.LVL247:
 1480              	.L64:
 507:.\main.c      ****     } else {
 508:.\main.c      ****         GUI_DispStringAt("Invalid!", text_x, text_y);
 1481              		.loc 1 508 0
 1482 0702 0848     		ldr	r0, .L70+20
ARM GAS  C:\Users\IVYLIU~1\AppData\Local\Temp\ccHkDCQn.s 			page 36


 1483 0704 7821     		movs	r1, #120
 1484 0706 F022     		movs	r2, #240
 1485 0708 FFF7FEFF 		bl	GUI_DispStringAt
 1486              	.LVL248:
 1487 070c 10BD     		pop	{r4, pc}
 1488              	.LVL249:
 1489              	.L71:
 1490 070e 00BF     		.align	2
 1491              	.L70:
 1492 0710 34010000 		.word	.LC46
 1493 0714 00000000 		.word	GUI_Font24B_ASCII
 1494 0718 A4000000 		.word	.LC10
 1495 071c 38010000 		.word	.LC47
 1496 0720 3C010000 		.word	.LC48
 1497 0724 40010000 		.word	.LC49
 1498              		.cfi_endproc
 1499              	.LFE69:
 1500              		.size	drawNote, .-drawNote
 1501              		.section	.text.drawClefs,"ax",%progbits
 1502              		.align	2
 1503              		.global	drawClefs
 1504              		.thumb
 1505              		.thumb_func
 1506              		.type	drawClefs, %function
 1507              	drawClefs:
 1508              	.LFB70:
 509:.\main.c      ****     }
 510:.\main.c      **** }
 511:.\main.c      **** 
 512:.\main.c      **** void drawClefs(){
 1509              		.loc 1 512 0
 1510              		.cfi_startproc
 1511              		@ args = 0, pretend = 0, frame = 0
 1512              		@ frame_needed = 0, uses_anonymous_args = 0
 1513 0000 38B5     		push	{r3, r4, r5, lr}
 1514              		.cfi_def_cfa_offset 16
 1515              		.cfi_offset 3, -16
 1516              		.cfi_offset 4, -12
 1517              		.cfi_offset 5, -8
 1518              		.cfi_offset 14, -4
 1519              	.LVL250:
 513:.\main.c      ****     int i;
 514:.\main.c      ****     for (i = 0; i < LINE_NUM; i++) {
 1520              		.loc 1 514 0
 1521 0002 0024     		movs	r4, #0
 1522 0004 11E0     		b	.L73
 1523              	.LVL251:
 1524              	.L74:
 515:.\main.c      ****         // Draw treble clef lines
 516:.\main.c      ****         GUI_DrawRect(TOP_MARGIN, i*BAR_SPACING + TOP_MARGIN, RIGHT_MARGIN, i*BAR_SPACING + TOP_MARG
 1525              		.loc 1 516 0 discriminator 3
 1526 0006 C4EB0415 		rsb	r5, r4, r4, lsl #4
 1527 000a 1420     		movs	r0, #20
 1528 000c 2918     		adds	r1, r5, r0
 1529 000e DC22     		movs	r2, #220
 1530 0010 05F11503 		add	r3, r5, #21
 1531 0014 FFF7FEFF 		bl	GUI_DrawRect
ARM GAS  C:\Users\IVYLIU~1\AppData\Local\Temp\ccHkDCQn.s 			page 37


 1532              	.LVL252:
 517:.\main.c      ****         // Draw bass clef lines
 518:.\main.c      ****         GUI_DrawRect(TOP_MARGIN, LOWER_OFFSET + i*BAR_SPACING, RIGHT_MARGIN, LOWER_OFFSET + i*BAR_S
 1533              		.loc 1 518 0 discriminator 3
 1534 0018 1420     		movs	r0, #20
 1535 001a 05F17801 		add	r1, r5, #120
 1536 001e DC22     		movs	r2, #220
 1537 0020 05F17903 		add	r3, r5, #121
 1538 0024 FFF7FEFF 		bl	GUI_DrawRect
 1539              	.LVL253:
 514:.\main.c      ****         // Draw treble clef lines
 1540              		.loc 1 514 0 discriminator 3
 1541 0028 0134     		adds	r4, r4, #1
 1542              	.LVL254:
 1543              	.L73:
 514:.\main.c      ****         // Draw treble clef lines
 1544              		.loc 1 514 0 is_stmt 0 discriminator 1
 1545 002a 042C     		cmp	r4, #4
 1546 002c EBDD     		ble	.L74
 519:.\main.c      ****     }
 520:.\main.c      **** }
 1547              		.loc 1 520 0 is_stmt 1
 1548 002e 38BD     		pop	{r3, r4, r5, pc}
 1549              		.cfi_endproc
 1550              	.LFE70:
 1551              		.size	drawClefs, .-drawClefs
 1552              		.section	.text.drawPlaySong,"ax",%progbits
 1553              		.align	2
 1554              		.global	drawPlaySong
 1555              		.thumb
 1556              		.thumb_func
 1557              		.type	drawPlaySong, %function
 1558              	drawPlaySong:
 1559              	.LFB66:
 205:.\main.c      ****     // Setup
 1560              		.loc 1 205 0
 1561              		.cfi_startproc
 1562              		@ args = 0, pretend = 0, frame = 24
 1563              		@ frame_needed = 0, uses_anonymous_args = 0
 1564              	.LVL255:
 1565 0000 30B5     		push	{r4, r5, lr}
 1566              		.cfi_def_cfa_offset 12
 1567              		.cfi_offset 4, -12
 1568              		.cfi_offset 5, -8
 1569              		.cfi_offset 14, -4
 1570 0002 87B0     		sub	sp, sp, #28
 1571              		.cfi_def_cfa_offset 40
 1572 0004 0446     		mov	r4, r0
 207:.\main.c      ****     GUI_SetColor(GUI_BLACK);
 1573              		.loc 1 207 0
 1574 0006 4FF0FF30 		mov	r0, #-1
 1575              	.LVL256:
 1576 000a FFF7FEFF 		bl	GUI_SetBkColor
 1577              	.LVL257:
 208:.\main.c      ****     GUI_SetTextMode(GUI_TM_TRANS);
 1578              		.loc 1 208 0
 1579 000e 4FF07F40 		mov	r0, #-16777216
ARM GAS  C:\Users\IVYLIU~1\AppData\Local\Temp\ccHkDCQn.s 			page 38


 1580 0012 FFF7FEFF 		bl	GUI_SetColor
 1581              	.LVL258:
 209:.\main.c      ****     GUI_SetTextAlign(GUI_TA_VCENTER); // Bug: GUI_TA_HCENTER fails to center text horizontally
 1582              		.loc 1 209 0
 1583 0016 0220     		movs	r0, #2
 1584 0018 FFF7FEFF 		bl	GUI_SetTextMode
 1585              	.LVL259:
 210:.\main.c      **** 
 1586              		.loc 1 210 0
 1587 001c 0C20     		movs	r0, #12
 1588 001e FFF7FEFF 		bl	GUI_SetTextAlign
 1589              	.LVL260:
 212:.\main.c      ****     drawClefs();
 1590              		.loc 1 212 0
 1591 0022 FFF7FEFF 		bl	GUI_Clear
 1592              	.LVL261:
 213:.\main.c      ****     
 1593              		.loc 1 213 0
 1594 0026 FFF7FEFF 		bl	drawClefs
 1595              	.LVL262:
 217:.\main.c      ****     
 1596              		.loc 1 217 0
 1597 002a 3C4B     		ldr	r3, .L84
 1598 002c 03EB0413 		add	r3, r3, r4, lsl #4
 1599 0030 03F5F673 		add	r3, r3, #492
 1600 0034 01AC     		add	r4, sp, #4
 1601              	.LVL263:
 1602 0036 0FCB     		ldmia	r3, {r0, r1, r2, r3}
 1603 0038 84E80F00 		stmia	r4, {r0, r1, r2, r3}
 220:.\main.c      ****     GUI_SetFont(&GUI_Font24B_ASCII);
 1604              		.loc 1 220 0
 1605 003c 039D     		ldr	r5, [sp, #12]
 1606 003e 2868     		ldr	r0, [r5]
 1607 0040 FFF7FEFF 		bl	drawNote
 1608              	.LVL264:
 221:.\main.c      **** 
 1609              		.loc 1 221 0
 1610 0044 3648     		ldr	r0, .L84+4
 1611 0046 FFF7FEFF 		bl	GUI_SetFont
 1612              	.LVL265:
 223:.\main.c      ****     GUI_DispStringHCenterAt("Score", SCREEN_WIDTH/2 - 20, 280);
 1613              		.loc 1 223 0
 1614 004a 05A8     		add	r0, sp, #20
 1615 004c 3549     		ldr	r1, .L84+8
 1616 004e 0022     		movs	r2, #0
 1617 0050 FFF7FEFF 		bl	sprintf
 1618              	.LVL266:
 224:.\main.c      ****     GUI_DispStringHCenterAt(score_buf, SCREEN_WIDTH/2 + 40, 280);
 1619              		.loc 1 224 0
 1620 0054 3448     		ldr	r0, .L84+12
 1621 0056 6421     		movs	r1, #100
 1622 0058 4FF48C72 		mov	r2, #280
 1623 005c FFF7FEFF 		bl	GUI_DispStringHCenterAt
 1624              	.LVL267:
 225:.\main.c      ****     
 1625              		.loc 1 225 0
 1626 0060 05A8     		add	r0, sp, #20
ARM GAS  C:\Users\IVYLIU~1\AppData\Local\Temp\ccHkDCQn.s 			page 39


 1627 0062 A021     		movs	r1, #160
 1628 0064 4FF48C72 		mov	r2, #280
 1629 0068 FFF7FEFF 		bl	GUI_DispStringHCenterAt
 1630              	.LVL268:
 215:.\main.c      ****     char score_buf[3];
 1631              		.loc 1 215 0
 1632 006c 0024     		movs	r4, #0
 228:.\main.c      ****         if (!SW2_Read()) {
 1633              		.loc 1 228 0
 1634 006e 4FE0     		b	.L78
 1635              	.LVL269:
 1636              	.L82:
 229:.\main.c      ****             while(!SW2_Read());
 1637              		.loc 1 229 0
 1638 0070 FFF7FEFF 		bl	SW2_Read
 1639              	.LVL270:
 1640 0074 0028     		cmp	r0, #0
 1641 0076 4BD1     		bne	.L78
 1642              	.L79:
 230:.\main.c      ****             // Erase current note and score drawing
 1643              		.loc 1 230 0 discriminator 1
 1644 0078 FFF7FEFF 		bl	SW2_Read
 1645              	.LVL271:
 1646 007c 0028     		cmp	r0, #0
 1647 007e FBD0     		beq	.L79
 232:.\main.c      ****             drawNote(cur_song.note_seq[note_index]);
 1648              		.loc 1 232 0
 1649 0080 4FF0FF30 		mov	r0, #-1
 1650 0084 FFF7FEFF 		bl	GUI_SetColor
 1651              	.LVL272:
 233:.\main.c      ****             
 1652              		.loc 1 233 0
 1653 0088 55F82400 		ldr	r0, [r5, r4, lsl #2]
 1654 008c FFF7FEFF 		bl	drawNote
 1655              	.LVL273:
 235:.\main.c      ****             GUI_DispStringHCenterAt("Score", SCREEN_WIDTH/2 - 20, 280);
 1656              		.loc 1 235 0
 1657 0090 2348     		ldr	r0, .L84+4
 1658 0092 FFF7FEFF 		bl	GUI_SetFont
 1659              	.LVL274:
 236:.\main.c      ****             GUI_DispStringHCenterAt(score_buf, SCREEN_WIDTH/2 + 40, 280);
 1660              		.loc 1 236 0
 1661 0096 2448     		ldr	r0, .L84+12
 1662 0098 6421     		movs	r1, #100
 1663 009a 4FF48C72 		mov	r2, #280
 1664 009e FFF7FEFF 		bl	GUI_DispStringHCenterAt
 1665              	.LVL275:
 237:.\main.c      ****             
 1666              		.loc 1 237 0
 1667 00a2 05A8     		add	r0, sp, #20
 1668 00a4 A021     		movs	r1, #160
 1669 00a6 4FF48C72 		mov	r2, #280
 1670 00aa FFF7FEFF 		bl	GUI_DispStringHCenterAt
 1671              	.LVL276:
 240:.\main.c      ****             drawClefs();
 1672              		.loc 1 240 0
 1673 00ae 4FF07F40 		mov	r0, #-16777216
ARM GAS  C:\Users\IVYLIU~1\AppData\Local\Temp\ccHkDCQn.s 			page 40


 1674 00b2 FFF7FEFF 		bl	GUI_SetColor
 1675              	.LVL277:
 241:.\main.c      ****             
 1676              		.loc 1 241 0
 1677 00b6 FFF7FEFF 		bl	drawClefs
 1678              	.LVL278:
 244:.\main.c      ****             sprintf(score_buf, "%d", note_index);   //put index into str buffer for displaying scor
 1679              		.loc 1 244 0
 1680 00ba 0134     		adds	r4, r4, #1
 1681              	.LVL279:
 245:.\main.c      ****             
 1682              		.loc 1 245 0
 1683 00bc 05A8     		add	r0, sp, #20
 1684 00be 1949     		ldr	r1, .L84+8
 1685 00c0 2246     		mov	r2, r4
 1686 00c2 FFF7FEFF 		bl	sprintf
 1687              	.LVL280:
 247:.\main.c      ****                 // print final score then exit playing mode
 1688              		.loc 1 247 0
 1689 00c6 049B     		ldr	r3, [sp, #16]
 1690 00c8 A342     		cmp	r3, r4
 1691 00ca 11DC     		bgt	.L80
 249:.\main.c      ****                 GUI_DispStringHCenterAt("Score", SCREEN_WIDTH/2 - 20, 280);
 1692              		.loc 1 249 0
 1693 00cc 1748     		ldr	r0, .L84+16
 1694 00ce 7821     		movs	r1, #120
 1695 00d0 F022     		movs	r2, #240
 1696 00d2 FFF7FEFF 		bl	GUI_DispStringHCenterAt
 1697              	.LVL281:
 250:.\main.c      ****                 GUI_DispStringHCenterAt(score_buf, SCREEN_WIDTH/2 + 40, 280);
 1698              		.loc 1 250 0
 1699 00d6 1448     		ldr	r0, .L84+12
 1700 00d8 6421     		movs	r1, #100
 1701 00da 4FF48C72 		mov	r2, #280
 1702 00de FFF7FEFF 		bl	GUI_DispStringHCenterAt
 1703              	.LVL282:
 251:.\main.c      ****                 break;
 1704              		.loc 1 251 0
 1705 00e2 05A8     		add	r0, sp, #20
 1706 00e4 A021     		movs	r1, #160
 1707 00e6 4FF48C72 		mov	r2, #280
 1708 00ea FFF7FEFF 		bl	GUI_DispStringHCenterAt
 1709              	.LVL283:
 252:.\main.c      ****             } else {
 1710              		.loc 1 252 0
 1711 00ee 13E0     		b	.L76
 1712              	.L80:
 255:.\main.c      ****                 GUI_DispStringHCenterAt(score_buf, SCREEN_WIDTH/2 + 40, 280);
 1713              		.loc 1 255 0
 1714 00f0 0D48     		ldr	r0, .L84+12
 1715 00f2 6421     		movs	r1, #100
 1716 00f4 4FF48C72 		mov	r2, #280
 1717 00f8 FFF7FEFF 		bl	GUI_DispStringHCenterAt
 1718              	.LVL284:
 256:.\main.c      ****                 drawNote(cur_song.note_seq[note_index]);
 1719              		.loc 1 256 0
 1720 00fc 05A8     		add	r0, sp, #20
ARM GAS  C:\Users\IVYLIU~1\AppData\Local\Temp\ccHkDCQn.s 			page 41


 1721 00fe A021     		movs	r1, #160
 1722 0100 4FF48C72 		mov	r2, #280
 1723 0104 FFF7FEFF 		bl	GUI_DispStringHCenterAt
 1724              	.LVL285:
 257:.\main.c      ****             }
 1725              		.loc 1 257 0
 1726 0108 55F82400 		ldr	r0, [r5, r4, lsl #2]
 1727 010c FFF7FEFF 		bl	drawNote
 1728              	.LVL286:
 1729              	.L78:
 228:.\main.c      ****         if (!SW2_Read()) {
 1730              		.loc 1 228 0
 1731 0110 FFF7FEFF 		bl	SW3_Read
 1732              	.LVL287:
 1733 0114 0028     		cmp	r0, #0
 1734 0116 ABD1     		bne	.L82
 1735              	.L76:
 261:.\main.c      **** 
 1736              		.loc 1 261 0
 1737 0118 07B0     		add	sp, sp, #28
 1738              		.cfi_def_cfa_offset 12
 1739              		@ sp needed
 1740 011a 30BD     		pop	{r4, r5, pc}
 1741              	.LVL288:
 1742              	.L85:
 1743              		.align	2
 1744              	.L84:
 1745 011c 00000000 		.word	.LANCHOR0
 1746 0120 00000000 		.word	GUI_Font24B_ASCII
 1747 0124 4C010000 		.word	.LC50
 1748 0128 50010000 		.word	.LC51
 1749 012c 58010000 		.word	.LC52
 1750              		.cfi_endproc
 1751              	.LFE66:
 1752              		.size	drawPlaySong, .-drawPlaySong
 1753              		.section	.text.main,"ax",%progbits
 1754              		.align	2
 1755              		.global	main
 1756              		.thumb
 1757              		.thumb_func
 1758              		.type	main, %function
 1759              	main:
 1760              	.LFB63:
 130:.\main.c      ****     CyGlobalIntEnable;                      // Enable global interrupts
 1761              		.loc 1 130 0
 1762              		.cfi_startproc
 1763              		@ args = 0, pretend = 0, frame = 0
 1764              		@ frame_needed = 0, uses_anonymous_args = 0
 1765 0000 10B5     		push	{r4, lr}
 1766              		.cfi_def_cfa_offset 8
 1767              		.cfi_offset 4, -8
 1768              		.cfi_offset 14, -4
 131:.\main.c      ****     SPIM_1_Start();                         // initialize SPIM component 
 1769              		.loc 1 131 0
 1770              	@ 131 ".\main.c" 1
 1771 0002 62B6     		CPSIE   i
 1772              	@ 0 "" 2
ARM GAS  C:\Users\IVYLIU~1\AppData\Local\Temp\ccHkDCQn.s 			page 42


 132:.\main.c      ****     GUI_Init();                             // initilize graphics library
 1773              		.loc 1 132 0
 1774              		.thumb
 1775 0004 FFF7FEFF 		bl	SPIM_1_Start
 1776              	.LVL289:
 133:.\main.c      **** 
 1777              		.loc 1 133 0
 1778 0008 FFF7FEFF 		bl	GUI_Init
 1779              	.LVL290:
 135:.\main.c      **** 
 1780              		.loc 1 135 0
 1781 000c 0024     		movs	r4, #0
 1782 000e 00E0     		b	.L88
 1783              	.LVL291:
 1784              	.L97:
 157:.\main.c      ****                 break;
 1785              		.loc 1 157 0
 1786 0010 0024     		movs	r4, #0
 1787              	.LVL292:
 1788              	.L88:
 138:.\main.c      ****             case START: // draw start screen
 1789              		.loc 1 138 0
 1790 0012 012C     		cmp	r4, #1
 1791 0014 07D0     		beq	.L89
 1792 0016 022C     		cmp	r4, #2
 1793 0018 18D0     		beq	.L90
 1794 001a 002C     		cmp	r4, #0
 1795 001c F8D1     		bne	.L97
 140:.\main.c      ****                 state = MODE_SELECT;
 1796              		.loc 1 140 0
 1797 001e FFF7FEFF 		bl	drawStartScreen
 1798              	.LVL293:
 141:.\main.c      ****                 break;
 1799              		.loc 1 141 0
 1800 0022 0124     		movs	r4, #1
 142:.\main.c      ****             case MODE_SELECT: // wait for mode selection
 1801              		.loc 1 142 0
 1802 0024 F5E7     		b	.L88
 1803              	.LVL294:
 1804              	.L89:
 144:.\main.c      ****                     while(!SW2_Read());
 1805              		.loc 1 144 0
 1806 0026 FFF7FEFF 		bl	SW2_Read
 1807              	.LVL295:
 1808 002a 28B9     		cbnz	r0, .L93
 1809              	.L94:
 145:.\main.c      ****                     state = SONG_SELECT;
 1810              		.loc 1 145 0 discriminator 1
 1811 002c FFF7FEFF 		bl	SW2_Read
 1812              	.LVL296:
 1813 0030 0028     		cmp	r0, #0
 1814 0032 FBD0     		beq	.L94
 146:.\main.c      ****                 } else if (!SW3_Read()) {
 1815              		.loc 1 146 0
 1816 0034 0224     		movs	r4, #2
 1817              	.LVL297:
 1818 0036 ECE7     		b	.L88
ARM GAS  C:\Users\IVYLIU~1\AppData\Local\Temp\ccHkDCQn.s 			page 43


 1819              	.LVL298:
 1820              	.L93:
 147:.\main.c      ****                     while(!SW3_Read());
 1821              		.loc 1 147 0
 1822 0038 FFF7FEFF 		bl	SW3_Read
 1823              	.LVL299:
 1824 003c 0028     		cmp	r0, #0
 1825 003e E8D1     		bne	.L88
 1826              	.L95:
 148:.\main.c      ****                     state = CALIBRATE;
 1827              		.loc 1 148 0 discriminator 1
 1828 0040 FFF7FEFF 		bl	SW3_Read
 1829              	.LVL300:
 1830 0044 0028     		cmp	r0, #0
 1831 0046 FBD0     		beq	.L95
 149:.\main.c      ****                 }
 1832              		.loc 1 149 0
 1833 0048 0324     		movs	r4, #3
 1834              	.LVL301:
 1835 004a E2E7     		b	.L88
 1836              	.LVL302:
 1837              	.L90:
 153:.\main.c      ****                 state = START;
 1838              		.loc 1 153 0
 1839 004c FFF7FEFF 		bl	drawSongSelection
 1840              	.LVL303:
 1841 0050 FFF7FEFF 		bl	drawPlaySong
 1842              	.LVL304:
 154:.\main.c      ****                 break;
 1843              		.loc 1 154 0
 1844 0054 0024     		movs	r4, #0
 155:.\main.c      ****             case CALIBRATE: // calibrate
 1845              		.loc 1 155 0
 1846 0056 DCE7     		b	.L88
 1847              		.cfi_endproc
 1848              	.LFE63:
 1849              		.size	main, .-main
 1850              		.global	songs
 1851              		.global	SONGS_LENGTH
 1852              		.global	SONG1_SEQ
 1853              		.global	SONG0_SEQ
 1854              		.global	notes
 1855              		.section	.rodata
 1856              		.align	2
 1857              		.type	SONGS_LENGTH, %object
 1858              		.size	SONGS_LENGTH, 4
 1859              	SONGS_LENGTH:
 1860 0000 02000000 		.word	2
 1861              		.data
 1862              		.align	2
 1863              		.set	.LANCHOR0,. + 0
 1864              		.type	notes, %object
 1865              		.size	notes, 492
 1866              	notes:
 1867 0000 9C000000 		.word	.LC8
 1868 0004 00000000 		.word	0
 1869 0008 3B000000 		.word	59
ARM GAS  C:\Users\IVYLIU~1\AppData\Local\Temp\ccHkDCQn.s 			page 44


 1870 000c A0000000 		.word	.LC9
 1871 0010 00000000 		.word	0
 1872 0014 3A000000 		.word	58
 1873 0018 A8000000 		.word	.LC11
 1874 001c 00000000 		.word	0
 1875 0020 39000000 		.word	57
 1876 0024 AC000000 		.word	.LC12
 1877 0028 00000000 		.word	0
 1878 002c 38000000 		.word	56
 1879 0030 B0000000 		.word	.LC13
 1880 0034 00000000 		.word	0
 1881 0038 37000000 		.word	55
 1882 003c B4000000 		.word	.LC14
 1883 0040 00000000 		.word	0
 1884 0044 36000000 		.word	54
 1885 0048 B8000000 		.word	.LC15
 1886 004c 00000000 		.word	0
 1887 0050 35000000 		.word	53
 1888 0054 BC000000 		.word	.LC16
 1889 0058 00000000 		.word	0
 1890 005c 34000000 		.word	52
 1891 0060 C0000000 		.word	.LC17
 1892 0064 00000000 		.word	0
 1893 0068 33000000 		.word	51
 1894 006c C4000000 		.word	.LC18
 1895 0070 00000000 		.word	0
 1896 0074 32000000 		.word	50
 1897 0078 C8000000 		.word	.LC19
 1898 007c 00000000 		.word	0
 1899 0080 31000000 		.word	49
 1900 0084 CC000000 		.word	.LC20
 1901 0088 00000000 		.word	0
 1902 008c 30000000 		.word	48
 1903 0090 D0000000 		.word	.LC21
 1904 0094 00000000 		.word	0
 1905 0098 2F000000 		.word	47
 1906 009c D4000000 		.word	.LC22
 1907 00a0 00000000 		.word	0
 1908 00a4 2E000000 		.word	46
 1909 00a8 D8000000 		.word	.LC23
 1910 00ac 00000000 		.word	0
 1911 00b0 2D000000 		.word	45
 1912 00b4 DC000000 		.word	.LC24
 1913 00b8 00000000 		.word	0
 1914 00bc 2C000000 		.word	44
 1915 00c0 E0000000 		.word	.LC25
 1916 00c4 00000000 		.word	0
 1917 00c8 2B000000 		.word	43
 1918 00cc E4000000 		.word	.LC26
 1919 00d0 00000000 		.word	0
 1920 00d4 2A000000 		.word	42
 1921 00d8 E8000000 		.word	.LC27
 1922 00dc 00000000 		.word	0
 1923 00e0 29000000 		.word	41
 1924 00e4 EC000000 		.word	.LC28
 1925 00e8 00000000 		.word	0
 1926 00ec 28000000 		.word	40
ARM GAS  C:\Users\IVYLIU~1\AppData\Local\Temp\ccHkDCQn.s 			page 45


 1927 00f0 F0000000 		.word	.LC29
 1928 00f4 00000000 		.word	0
 1929 00f8 27000000 		.word	39
 1930 00fc F4000000 		.word	.LC30
 1931 0100 00000000 		.word	0
 1932 0104 26000000 		.word	38
 1933 0108 F8000000 		.word	.LC31
 1934 010c 00000000 		.word	0
 1935 0110 25000000 		.word	37
 1936 0114 FC000000 		.word	.LC32
 1937 0118 00000000 		.word	0
 1938 011c 24000000 		.word	36
 1939 0120 00010000 		.word	.LC33
 1940 0124 00000000 		.word	0
 1941 0128 23000000 		.word	35
 1942 012c 04010000 		.word	.LC34
 1943 0130 00000000 		.word	0
 1944 0134 22000000 		.word	34
 1945 0138 08010000 		.word	.LC35
 1946 013c 00000000 		.word	0
 1947 0140 21000000 		.word	33
 1948 0144 0C010000 		.word	.LC36
 1949 0148 00000000 		.word	0
 1950 014c 20000000 		.word	32
 1951 0150 10010000 		.word	.LC37
 1952 0154 00000000 		.word	0
 1953 0158 1F000000 		.word	31
 1954 015c 14010000 		.word	.LC38
 1955 0160 00000000 		.word	0
 1956 0164 1E000000 		.word	30
 1957 0168 18010000 		.word	.LC39
 1958 016c 00000000 		.word	0
 1959 0170 1D000000 		.word	29
 1960 0174 1C010000 		.word	.LC40
 1961 0178 00000000 		.word	0
 1962 017c 1C000000 		.word	28
 1963 0180 20010000 		.word	.LC41
 1964 0184 00000000 		.word	0
 1965 0188 1B000000 		.word	27
 1966 018c 24010000 		.word	.LC42
 1967 0190 00000000 		.word	0
 1968 0194 1A000000 		.word	26
 1969 0198 28010000 		.word	.LC43
 1970 019c 00000000 		.word	0
 1971 01a0 19000000 		.word	25
 1972 01a4 2C010000 		.word	.LC44
 1973 01a8 00000000 		.word	0
 1974 01ac 18000000 		.word	24
 1975 01b0 30010000 		.word	.LC45
 1976 01b4 00000000 		.word	0
 1977 01b8 17000000 		.word	23
 1978 01bc 34010000 		.word	.LC46
 1979 01c0 00000000 		.word	0
 1980 01c4 16000000 		.word	22
 1981 01c8 38010000 		.word	.LC47
 1982 01cc 00000000 		.word	0
 1983 01d0 15000000 		.word	21
ARM GAS  C:\Users\IVYLIU~1\AppData\Local\Temp\ccHkDCQn.s 			page 46


 1984 01d4 3C010000 		.word	.LC48
 1985 01d8 00000000 		.word	0
 1986 01dc 14000000 		.word	20
 1987 01e0 00000000 		.word	0
 1988 01e4 00000000 		.space	8
 1988      00000000 
 1989              		.type	songs, %object
 1990              		.size	songs, 32
 1991              	songs:
 1992 01ec 00000000 		.word	0
 1993 01f0 64010000 		.word	.LC53
 1994 01f4 00000000 		.word	SONG0_SEQ
 1995 01f8 55000000 		.word	85
 1996 01fc 01000000 		.word	1
 1997 0200 70010000 		.word	.LC54
 1998 0204 00000000 		.word	SONG1_SEQ
 1999 0208 2A000000 		.word	42
 2000              		.type	SONG1_SEQ, %object
 2001              		.size	SONG1_SEQ, 168
 2002              	SONG1_SEQ:
 2003 020c 00010000 		.word	.LC33
 2004 0210 00010000 		.word	.LC33
 2005 0214 E4000000 		.word	.LC26
 2006 0218 E4000000 		.word	.LC26
 2007 021c DC000000 		.word	.LC24
 2008 0220 DC000000 		.word	.LC24
 2009 0224 E4000000 		.word	.LC26
 2010 0228 EC000000 		.word	.LC28
 2011 022c EC000000 		.word	.LC28
 2012 0230 F0000000 		.word	.LC29
 2013 0234 F0000000 		.word	.LC29
 2014 0238 F8000000 		.word	.LC31
 2015 023c F8000000 		.word	.LC31
 2016 0240 00010000 		.word	.LC33
 2017 0244 E4000000 		.word	.LC26
 2018 0248 E4000000 		.word	.LC26
 2019 024c EC000000 		.word	.LC28
 2020 0250 EC000000 		.word	.LC28
 2021 0254 F0000000 		.word	.LC29
 2022 0258 F0000000 		.word	.LC29
 2023 025c F8000000 		.word	.LC31
 2024 0260 E4000000 		.word	.LC26
 2025 0264 E4000000 		.word	.LC26
 2026 0268 EC000000 		.word	.LC28
 2027 026c EC000000 		.word	.LC28
 2028 0270 F0000000 		.word	.LC29
 2029 0274 F0000000 		.word	.LC29
 2030 0278 F8000000 		.word	.LC31
 2031 027c 00010000 		.word	.LC33
 2032 0280 00010000 		.word	.LC33
 2033 0284 E4000000 		.word	.LC26
 2034 0288 E4000000 		.word	.LC26
 2035 028c DC000000 		.word	.LC24
 2036 0290 DC000000 		.word	.LC24
 2037 0294 E4000000 		.word	.LC26
 2038 0298 EC000000 		.word	.LC28
 2039 029c EC000000 		.word	.LC28
ARM GAS  C:\Users\IVYLIU~1\AppData\Local\Temp\ccHkDCQn.s 			page 47


 2040 02a0 F0000000 		.word	.LC29
 2041 02a4 F0000000 		.word	.LC29
 2042 02a8 F8000000 		.word	.LC31
 2043 02ac F8000000 		.word	.LC31
 2044 02b0 00010000 		.word	.LC33
 2045              		.type	SONG0_SEQ, %object
 2046              		.size	SONG0_SEQ, 340
 2047              	SONG0_SEQ:
 2048 02b4 AC000000 		.word	.LC12
 2049 02b8 B0000000 		.word	.LC13
 2050 02bc AC000000 		.word	.LC12
 2051 02c0 B0000000 		.word	.LC13
 2052 02c4 AC000000 		.word	.LC12
 2053 02c8 C0000000 		.word	.LC17
 2054 02cc B4000000 		.word	.LC14
 2055 02d0 BC000000 		.word	.LC16
 2056 02d4 C8000000 		.word	.LC19
 2057 02d8 EC000000 		.word	.LC28
 2058 02dc DC000000 		.word	.LC24
 2059 02e0 C8000000 		.word	.LC19
 2060 02e4 C0000000 		.word	.LC17
 2061 02e8 DC000000 		.word	.LC24
 2062 02ec CC000000 		.word	.LC20
 2063 02f0 C0000000 		.word	.LC17
 2064 02f4 BC000000 		.word	.LC16
 2065 02f8 DC000000 		.word	.LC24
 2066 02fc AC000000 		.word	.LC12
 2067 0300 B0000000 		.word	.LC13
 2068 0304 AC000000 		.word	.LC12
 2069 0308 B0000000 		.word	.LC13
 2070 030c AC000000 		.word	.LC12
 2071 0310 C0000000 		.word	.LC17
 2072 0314 B4000000 		.word	.LC14
 2073 0318 BC000000 		.word	.LC16
 2074 031c C8000000 		.word	.LC19
 2075 0320 EC000000 		.word	.LC28
 2076 0324 DC000000 		.word	.LC24
 2077 0328 C8000000 		.word	.LC19
 2078 032c C0000000 		.word	.LC17
 2079 0330 DC000000 		.word	.LC24
 2080 0334 BC000000 		.word	.LC16
 2081 0338 C0000000 		.word	.LC17
 2082 033c C8000000 		.word	.LC19
 2083 0340 C0000000 		.word	.LC17
 2084 0344 BC000000 		.word	.LC16
 2085 0348 B4000000 		.word	.LC14
 2086 034c AC000000 		.word	.LC12
 2087 0350 D0000000 		.word	.LC21
 2088 0354 A8000000 		.word	.LC11
 2089 0358 AC000000 		.word	.LC12
 2090 035c B4000000 		.word	.LC14
 2091 0360 D8000000 		.word	.LC23
 2092 0364 AC000000 		.word	.LC12
 2093 0368 B4000000 		.word	.LC14
 2094 036c BC000000 		.word	.LC16
 2095 0370 DC000000 		.word	.LC24
 2096 0374 B4000000 		.word	.LC14
ARM GAS  C:\Users\IVYLIU~1\AppData\Local\Temp\ccHkDCQn.s 			page 48


 2097 0378 BC000000 		.word	.LC16
 2098 037c C0000000 		.word	.LC17
 2099 0380 AC000000 		.word	.LC12
 2100 0384 B0000000 		.word	.LC13
 2101 0388 AC000000 		.word	.LC12
 2102 038c B0000000 		.word	.LC13
 2103 0390 AC000000 		.word	.LC12
 2104 0394 C0000000 		.word	.LC17
 2105 0398 B4000000 		.word	.LC14
 2106 039c BC000000 		.word	.LC16
 2107 03a0 C8000000 		.word	.LC19
 2108 03a4 EC000000 		.word	.LC28
 2109 03a8 DC000000 		.word	.LC24
 2110 03ac C8000000 		.word	.LC19
 2111 03b0 C0000000 		.word	.LC17
 2112 03b4 DC000000 		.word	.LC24
 2113 03b8 CC000000 		.word	.LC20
 2114 03bc C0000000 		.word	.LC17
 2115 03c0 BC000000 		.word	.LC16
 2116 03c4 DC000000 		.word	.LC24
 2117 03c8 AC000000 		.word	.LC12
 2118 03cc B0000000 		.word	.LC13
 2119 03d0 AC000000 		.word	.LC12
 2120 03d4 B0000000 		.word	.LC13
 2121 03d8 AC000000 		.word	.LC12
 2122 03dc C0000000 		.word	.LC17
 2123 03e0 B4000000 		.word	.LC14
 2124 03e4 BC000000 		.word	.LC16
 2125 03e8 C8000000 		.word	.LC19
 2126 03ec EC000000 		.word	.LC28
 2127 03f0 DC000000 		.word	.LC24
 2128 03f4 C8000000 		.word	.LC19
 2129 03f8 C0000000 		.word	.LC17
 2130 03fc DC000000 		.word	.LC24
 2131 0400 BC000000 		.word	.LC16
 2132 0404 C8000000 		.word	.LC19
 2133              		.section	.rodata.str1.4,"aMS",%progbits,1
 2134              		.align	2
 2135              	.LC0:
 2136 0000 556E7265 		.ascii	"Unrecognized note\000"
 2136      636F676E 
 2136      697A6564 
 2136      206E6F74 
 2136      6500
 2137 0012 0000     		.space	2
 2138              	.LC1:
 2139 0014 536F6E67 		.ascii	"Song Selection\000"
 2139      2053656C 
 2139      65637469 
 2139      6F6E00
 2140 0023 00       		.space	1
 2141              	.LC2:
 2142 0024 50726573 		.ascii	"Press SW2 for next option.\000"
 2142      73205357 
 2142      3220666F 
 2142      72206E65 
 2142      7874206F 
ARM GAS  C:\Users\IVYLIU~1\AppData\Local\Temp\ccHkDCQn.s 			page 49


 2143 003f 00       		.space	1
 2144              	.LC3:
 2145 0040 50726573 		.ascii	"Press SW3 to confirm selection.\000"
 2145      73205357 
 2145      3320746F 
 2145      20636F6E 
 2145      6669726D 
 2146              	.LC4:
 2147 0060 536F6E67 		.ascii	"Song Selected!\000"
 2147      2053656C 
 2147      65637465 
 2147      642100
 2148 006f 00       		.space	1
 2149              	.LC5:
 2150 0070 57656C63 		.ascii	"Welcome to\012Piano Tiles!\000"
 2150      6F6D6520 
 2150      746F0A50 
 2150      69616E6F 
 2150      2054696C 
 2151              	.LC6:
 2152 0088 506C6179 		.ascii	"Play\000"
 2152      00
 2153 008d 000000   		.space	3
 2154              	.LC7:
 2155 0090 43616C69 		.ascii	"Calibrate\000"
 2155      62726174 
 2155      6500
 2156 009a 0000     		.space	2
 2157              	.LC8:
 2158 009c 473500   		.ascii	"G5\000"
 2159 009f 00       		.space	1
 2160              	.LC9:
 2161 00a0 46233500 		.ascii	"F#5\000"
 2162              	.LC10:
 2163 00a4 2300     		.ascii	"#\000"
 2164 00a6 0000     		.space	2
 2165              	.LC11:
 2166 00a8 463500   		.ascii	"F5\000"
 2167 00ab 00       		.space	1
 2168              	.LC12:
 2169 00ac 453500   		.ascii	"E5\000"
 2170 00af 00       		.space	1
 2171              	.LC13:
 2172 00b0 44233500 		.ascii	"D#5\000"
 2173              	.LC14:
 2174 00b4 443500   		.ascii	"D5\000"
 2175 00b7 00       		.space	1
 2176              	.LC15:
 2177 00b8 43233500 		.ascii	"C#5\000"
 2178              	.LC16:
 2179 00bc 433500   		.ascii	"C5\000"
 2180 00bf 00       		.space	1
 2181              	.LC17:
 2182 00c0 423400   		.ascii	"B4\000"
 2183 00c3 00       		.space	1
 2184              	.LC18:
 2185 00c4 41233400 		.ascii	"A#4\000"
ARM GAS  C:\Users\IVYLIU~1\AppData\Local\Temp\ccHkDCQn.s 			page 50


 2186              	.LC19:
 2187 00c8 413400   		.ascii	"A4\000"
 2188 00cb 00       		.space	1
 2189              	.LC20:
 2190 00cc 47233400 		.ascii	"G#4\000"
 2191              	.LC21:
 2192 00d0 473400   		.ascii	"G4\000"
 2193 00d3 00       		.space	1
 2194              	.LC22:
 2195 00d4 46233400 		.ascii	"F#4\000"
 2196              	.LC23:
 2197 00d8 463400   		.ascii	"F4\000"
 2198 00db 00       		.space	1
 2199              	.LC24:
 2200 00dc 453400   		.ascii	"E4\000"
 2201 00df 00       		.space	1
 2202              	.LC25:
 2203 00e0 44233400 		.ascii	"D#4\000"
 2204              	.LC26:
 2205 00e4 443400   		.ascii	"D4\000"
 2206 00e7 00       		.space	1
 2207              	.LC27:
 2208 00e8 43233400 		.ascii	"C#4\000"
 2209              	.LC28:
 2210 00ec 433400   		.ascii	"C4\000"
 2211 00ef 00       		.space	1
 2212              	.LC29:
 2213 00f0 423300   		.ascii	"B3\000"
 2214 00f3 00       		.space	1
 2215              	.LC30:
 2216 00f4 41233300 		.ascii	"A#3\000"
 2217              	.LC31:
 2218 00f8 413300   		.ascii	"A3\000"
 2219 00fb 00       		.space	1
 2220              	.LC32:
 2221 00fc 47233300 		.ascii	"G#3\000"
 2222              	.LC33:
 2223 0100 473300   		.ascii	"G3\000"
 2224 0103 00       		.space	1
 2225              	.LC34:
 2226 0104 46233300 		.ascii	"F#3\000"
 2227              	.LC35:
 2228 0108 463300   		.ascii	"F3\000"
 2229 010b 00       		.space	1
 2230              	.LC36:
 2231 010c 453300   		.ascii	"E3\000"
 2232 010f 00       		.space	1
 2233              	.LC37:
 2234 0110 44233300 		.ascii	"D#3\000"
 2235              	.LC38:
 2236 0114 443300   		.ascii	"D3\000"
 2237 0117 00       		.space	1
 2238              	.LC39:
 2239 0118 43233300 		.ascii	"C#3\000"
 2240              	.LC40:
 2241 011c 433300   		.ascii	"C3\000"
 2242 011f 00       		.space	1
ARM GAS  C:\Users\IVYLIU~1\AppData\Local\Temp\ccHkDCQn.s 			page 51


 2243              	.LC41:
 2244 0120 423200   		.ascii	"B2\000"
 2245 0123 00       		.space	1
 2246              	.LC42:
 2247 0124 41233200 		.ascii	"A#2\000"
 2248              	.LC43:
 2249 0128 413200   		.ascii	"A2\000"
 2250 012b 00       		.space	1
 2251              	.LC44:
 2252 012c 47233200 		.ascii	"G#2\000"
 2253              	.LC45:
 2254 0130 473200   		.ascii	"G2\000"
 2255 0133 00       		.space	1
 2256              	.LC46:
 2257 0134 46233200 		.ascii	"F#2\000"
 2258              	.LC47:
 2259 0138 463200   		.ascii	"F2\000"
 2260 013b 00       		.space	1
 2261              	.LC48:
 2262 013c 453200   		.ascii	"E2\000"
 2263 013f 00       		.space	1
 2264              	.LC49:
 2265 0140 496E7661 		.ascii	"Invalid!\000"
 2265      6C696421 
 2265      00
 2266 0149 000000   		.space	3
 2267              	.LC50:
 2268 014c 256400   		.ascii	"%d\000"
 2269 014f 00       		.space	1
 2270              	.LC51:
 2271 0150 53636F72 		.ascii	"Score\000"
 2271      6500
 2272 0156 0000     		.space	2
 2273              	.LC52:
 2274 0158 57656C6C 		.ascii	"Well Done!\000"
 2274      20446F6E 
 2274      652100
 2275 0163 00       		.space	1
 2276              	.LC53:
 2277 0164 46757220 		.ascii	"Fur Elise\000"
 2277      456C6973 
 2277      6500
 2278 016e 0000     		.space	2
 2279              	.LC54:
 2280 0170 5477696E 		.ascii	"Twinkle, Twinkle,\012Little Star\000"
 2280      6B6C652C 
 2280      20547769 
 2280      6E6B6C65 
 2280      2C0A4C69 
 2281 018e 0000     		.text
 2282              	.Letext0:
 2283              		.file 2 "c:\\program files (x86)\\cypress\\psoc creator\\3.3\\psoc creator\\import\\gnu\\arm\\4.9.
 2284              		.file 3 "c:\\program files (x86)\\cypress\\psoc creator\\3.3\\psoc creator\\import\\gnu\\arm\\4.9.
 2285              		.file 4 "Generated_Source\\PSoC5/cytypes.h"
 2286              		.file 5 "..\\emWinGraphics_v5_46\\Code\\Include\\PSoC4_5/LCD.h"
 2287              		.file 6 "..\\emWinGraphics_v5_46\\Code\\Include\\PSoC4_5/GUI_Type.h"
 2288              		.file 7 "Generated_Source\\PSoC5/core_cm3.h"
ARM GAS  C:\Users\IVYLIU~1\AppData\Local\Temp\ccHkDCQn.s 			page 52


 2289              		.file 8 "..\\emWinGraphics_v5_46\\Code\\Include\\PSoC4_5/GUI.h"
 2290              		.file 9 "Generated_Source\\PSoC5/SW2.h"
 2291              		.file 10 "Generated_Source\\PSoC5/SW3.h"
 2292              		.file 11 "Generated_Source\\PSoC5/CyLib.h"
 2293              		.file 12 "c:\\program files (x86)\\cypress\\psoc creator\\3.3\\psoc creator\\import\\gnu\\arm\\4.9
 2294              		.file 13 "c:\\program files (x86)\\cypress\\psoc creator\\3.3\\psoc creator\\import\\gnu\\arm\\4.9
 2295              		.file 14 "Generated_Source\\PSoC5/SPIM_1.h"